   1              	 .syntax unified
   2              	 .cpu cortex-m4
   3              	 .eabi_attribute 27,3
   4              	 .fpu fpv4-sp-d16
   5              	 .eabi_attribute 20,1
   6              	 .eabi_attribute 21,1
   7              	 .eabi_attribute 23,3
   8              	 .eabi_attribute 24,1
   9              	 .eabi_attribute 25,1
  10              	 .eabi_attribute 26,1
  11              	 .eabi_attribute 30,2
  12              	 .eabi_attribute 34,1
  13              	 .eabi_attribute 18,4
  14              	 .thumb
  15              	 .file "arm_q31_to_q15.c"
  16              	 .text
  17              	.Ltext0:
  18              	 .cfi_sections .debug_frame
  19              	 .section .text.arm_q31_to_q15,"ax",%progbits
  20              	 .align 2
  21              	 .global arm_q31_to_q15
  22              	 .thumb
  23              	 .thumb_func
  25              	arm_q31_to_q15:
  26              	.LFB135:
  27              	 .file 1 "../Dave/Generated/CMSIS_DSP/SupportFunctions/arm_q31_to_q15.c"
   1:../Dave/Generated/CMSIS_DSP/SupportFunctions/arm_q31_to_q15.c **** /* ----------------------------------------------------------------------
   2:../Dave/Generated/CMSIS_DSP/SupportFunctions/arm_q31_to_q15.c ****  * Project:      CMSIS DSP Library
   3:../Dave/Generated/CMSIS_DSP/SupportFunctions/arm_q31_to_q15.c ****  * Title:        arm_q31_to_q15.c
   4:../Dave/Generated/CMSIS_DSP/SupportFunctions/arm_q31_to_q15.c ****  * Description:  Converts the elements of the Q31 vector to Q15 vector
   5:../Dave/Generated/CMSIS_DSP/SupportFunctions/arm_q31_to_q15.c ****  *
   6:../Dave/Generated/CMSIS_DSP/SupportFunctions/arm_q31_to_q15.c ****  * $Date:        27. January 2017
   7:../Dave/Generated/CMSIS_DSP/SupportFunctions/arm_q31_to_q15.c ****  * $Revision:    V.1.5.1
   8:../Dave/Generated/CMSIS_DSP/SupportFunctions/arm_q31_to_q15.c ****  *
   9:../Dave/Generated/CMSIS_DSP/SupportFunctions/arm_q31_to_q15.c ****  * Target Processor: Cortex-M cores
  10:../Dave/Generated/CMSIS_DSP/SupportFunctions/arm_q31_to_q15.c ****  * -------------------------------------------------------------------- */
  11:../Dave/Generated/CMSIS_DSP/SupportFunctions/arm_q31_to_q15.c **** /*
  12:../Dave/Generated/CMSIS_DSP/SupportFunctions/arm_q31_to_q15.c ****  * Copyright (C) 2010-2017 ARM Limited or its affiliates. All rights reserved.
  13:../Dave/Generated/CMSIS_DSP/SupportFunctions/arm_q31_to_q15.c ****  *
  14:../Dave/Generated/CMSIS_DSP/SupportFunctions/arm_q31_to_q15.c ****  * SPDX-License-Identifier: Apache-2.0
  15:../Dave/Generated/CMSIS_DSP/SupportFunctions/arm_q31_to_q15.c ****  *
  16:../Dave/Generated/CMSIS_DSP/SupportFunctions/arm_q31_to_q15.c ****  * Licensed under the Apache License, Version 2.0 (the License); you may
  17:../Dave/Generated/CMSIS_DSP/SupportFunctions/arm_q31_to_q15.c ****  * not use this file except in compliance with the License.
  18:../Dave/Generated/CMSIS_DSP/SupportFunctions/arm_q31_to_q15.c ****  * You may obtain a copy of the License at
  19:../Dave/Generated/CMSIS_DSP/SupportFunctions/arm_q31_to_q15.c ****  *
  20:../Dave/Generated/CMSIS_DSP/SupportFunctions/arm_q31_to_q15.c ****  * www.apache.org/licenses/LICENSE-2.0
  21:../Dave/Generated/CMSIS_DSP/SupportFunctions/arm_q31_to_q15.c ****  *
  22:../Dave/Generated/CMSIS_DSP/SupportFunctions/arm_q31_to_q15.c ****  * Unless required by applicable law or agreed to in writing, software
  23:../Dave/Generated/CMSIS_DSP/SupportFunctions/arm_q31_to_q15.c ****  * distributed under the License is distributed on an AS IS BASIS, WITHOUT
  24:../Dave/Generated/CMSIS_DSP/SupportFunctions/arm_q31_to_q15.c ****  * WARRANTIES OR CONDITIONS OF ANY KIND, either express or implied.
  25:../Dave/Generated/CMSIS_DSP/SupportFunctions/arm_q31_to_q15.c ****  * See the License for the specific language governing permissions and
  26:../Dave/Generated/CMSIS_DSP/SupportFunctions/arm_q31_to_q15.c ****  * limitations under the License.
  27:../Dave/Generated/CMSIS_DSP/SupportFunctions/arm_q31_to_q15.c ****  */
  28:../Dave/Generated/CMSIS_DSP/SupportFunctions/arm_q31_to_q15.c **** 
  29:../Dave/Generated/CMSIS_DSP/SupportFunctions/arm_q31_to_q15.c **** #include "CMSIS_DSP/cmsis_dsp.h"
  30:../Dave/Generated/CMSIS_DSP/SupportFunctions/arm_q31_to_q15.c **** 
  31:../Dave/Generated/CMSIS_DSP/SupportFunctions/arm_q31_to_q15.c **** /**
  32:../Dave/Generated/CMSIS_DSP/SupportFunctions/arm_q31_to_q15.c ****  * @ingroup groupSupport
  33:../Dave/Generated/CMSIS_DSP/SupportFunctions/arm_q31_to_q15.c ****  */
  34:../Dave/Generated/CMSIS_DSP/SupportFunctions/arm_q31_to_q15.c **** 
  35:../Dave/Generated/CMSIS_DSP/SupportFunctions/arm_q31_to_q15.c **** /**
  36:../Dave/Generated/CMSIS_DSP/SupportFunctions/arm_q31_to_q15.c ****  * @addtogroup q31_to_x
  37:../Dave/Generated/CMSIS_DSP/SupportFunctions/arm_q31_to_q15.c ****  * @{
  38:../Dave/Generated/CMSIS_DSP/SupportFunctions/arm_q31_to_q15.c ****  */
  39:../Dave/Generated/CMSIS_DSP/SupportFunctions/arm_q31_to_q15.c **** 
  40:../Dave/Generated/CMSIS_DSP/SupportFunctions/arm_q31_to_q15.c **** /**
  41:../Dave/Generated/CMSIS_DSP/SupportFunctions/arm_q31_to_q15.c ****  * @brief Converts the elements of the Q31 vector to Q15 vector.
  42:../Dave/Generated/CMSIS_DSP/SupportFunctions/arm_q31_to_q15.c ****  * @param[in]       *pSrc points to the Q31 input vector
  43:../Dave/Generated/CMSIS_DSP/SupportFunctions/arm_q31_to_q15.c ****  * @param[out]      *pDst points to the Q15 output vector
  44:../Dave/Generated/CMSIS_DSP/SupportFunctions/arm_q31_to_q15.c ****  * @param[in]       blockSize length of the input vector
  45:../Dave/Generated/CMSIS_DSP/SupportFunctions/arm_q31_to_q15.c ****  * @return none.
  46:../Dave/Generated/CMSIS_DSP/SupportFunctions/arm_q31_to_q15.c ****  *
  47:../Dave/Generated/CMSIS_DSP/SupportFunctions/arm_q31_to_q15.c ****  * \par Description:
  48:../Dave/Generated/CMSIS_DSP/SupportFunctions/arm_q31_to_q15.c ****  *
  49:../Dave/Generated/CMSIS_DSP/SupportFunctions/arm_q31_to_q15.c ****  * The equation used for the conversion process is:
  50:../Dave/Generated/CMSIS_DSP/SupportFunctions/arm_q31_to_q15.c ****  *
  51:../Dave/Generated/CMSIS_DSP/SupportFunctions/arm_q31_to_q15.c ****  * <pre>
  52:../Dave/Generated/CMSIS_DSP/SupportFunctions/arm_q31_to_q15.c ****  * 	pDst[n] = (q15_t) pSrc[n] >> 16;   0 <= n < blockSize.
  53:../Dave/Generated/CMSIS_DSP/SupportFunctions/arm_q31_to_q15.c ****  * </pre>
  54:../Dave/Generated/CMSIS_DSP/SupportFunctions/arm_q31_to_q15.c ****  *
  55:../Dave/Generated/CMSIS_DSP/SupportFunctions/arm_q31_to_q15.c ****  */
  56:../Dave/Generated/CMSIS_DSP/SupportFunctions/arm_q31_to_q15.c **** 
  57:../Dave/Generated/CMSIS_DSP/SupportFunctions/arm_q31_to_q15.c **** 
  58:../Dave/Generated/CMSIS_DSP/SupportFunctions/arm_q31_to_q15.c **** void arm_q31_to_q15(
  59:../Dave/Generated/CMSIS_DSP/SupportFunctions/arm_q31_to_q15.c ****   q31_t * pSrc,
  60:../Dave/Generated/CMSIS_DSP/SupportFunctions/arm_q31_to_q15.c ****   q15_t * pDst,
  61:../Dave/Generated/CMSIS_DSP/SupportFunctions/arm_q31_to_q15.c ****   uint32_t blockSize)
  62:../Dave/Generated/CMSIS_DSP/SupportFunctions/arm_q31_to_q15.c **** {
  28              	 .loc 1 62 0
  29              	 .cfi_startproc
  30              	 
  31              	 
  32              	.LVL0:
  33 0000 2DE9F041 	 push {r4,r5,r6,r7,r8,lr}
  34              	.LCFI0:
  35              	 .cfi_def_cfa_offset 24
  36              	 .cfi_offset 4,-24
  37              	 .cfi_offset 5,-20
  38              	 .cfi_offset 6,-16
  39              	 .cfi_offset 7,-12
  40              	 .cfi_offset 8,-8
  41              	 .cfi_offset 14,-4
  63:../Dave/Generated/CMSIS_DSP/SupportFunctions/arm_q31_to_q15.c ****   q31_t *pIn = pSrc;                             /* Src pointer */
  64:../Dave/Generated/CMSIS_DSP/SupportFunctions/arm_q31_to_q15.c ****   uint32_t blkCnt;                               /* loop counter */
  65:../Dave/Generated/CMSIS_DSP/SupportFunctions/arm_q31_to_q15.c **** 
  66:../Dave/Generated/CMSIS_DSP/SupportFunctions/arm_q31_to_q15.c **** #if defined (ARM_MATH_DSP)
  67:../Dave/Generated/CMSIS_DSP/SupportFunctions/arm_q31_to_q15.c **** 
  68:../Dave/Generated/CMSIS_DSP/SupportFunctions/arm_q31_to_q15.c ****   /* Run the below code for Cortex-M4 and Cortex-M3 */
  69:../Dave/Generated/CMSIS_DSP/SupportFunctions/arm_q31_to_q15.c ****   q31_t in1, in2, in3, in4;
  70:../Dave/Generated/CMSIS_DSP/SupportFunctions/arm_q31_to_q15.c ****   q31_t out1, out2;
  71:../Dave/Generated/CMSIS_DSP/SupportFunctions/arm_q31_to_q15.c **** 
  72:../Dave/Generated/CMSIS_DSP/SupportFunctions/arm_q31_to_q15.c ****   /*loop Unrolling */
  73:../Dave/Generated/CMSIS_DSP/SupportFunctions/arm_q31_to_q15.c ****   blkCnt = blockSize >> 2u;
  74:../Dave/Generated/CMSIS_DSP/SupportFunctions/arm_q31_to_q15.c **** 
  75:../Dave/Generated/CMSIS_DSP/SupportFunctions/arm_q31_to_q15.c ****   /* First part of the processing with loop unrolling.  Compute 4 outputs at a time.
  76:../Dave/Generated/CMSIS_DSP/SupportFunctions/arm_q31_to_q15.c ****    ** a second loop below computes the remaining 1 to 3 samples. */
  77:../Dave/Generated/CMSIS_DSP/SupportFunctions/arm_q31_to_q15.c ****   while (blkCnt > 0u)
  42              	 .loc 1 77 0
  43 0004 5FEA9208 	 lsrs r8,r2,#2
  44              	.LVL1:
  45 0008 1CD0     	 beq .L2
  46 000a 00F11003 	 add r3,r0,#16
  47 000e 01F10804 	 add r4,r1,#8
  48 0012 4746     	 mov r7,r8
  49              	.LVL2:
  50              	.L3:
  78:../Dave/Generated/CMSIS_DSP/SupportFunctions/arm_q31_to_q15.c ****   {
  79:../Dave/Generated/CMSIS_DSP/SupportFunctions/arm_q31_to_q15.c ****     /* C = (q15_t) A >> 16 */
  80:../Dave/Generated/CMSIS_DSP/SupportFunctions/arm_q31_to_q15.c ****     /* convert from q31 to q15 and then store the results in the destination buffer */
  81:../Dave/Generated/CMSIS_DSP/SupportFunctions/arm_q31_to_q15.c ****     in1 = *pIn++;
  82:../Dave/Generated/CMSIS_DSP/SupportFunctions/arm_q31_to_q15.c ****     in2 = *pIn++;
  83:../Dave/Generated/CMSIS_DSP/SupportFunctions/arm_q31_to_q15.c ****     in3 = *pIn++;
  84:../Dave/Generated/CMSIS_DSP/SupportFunctions/arm_q31_to_q15.c ****     in4 = *pIn++;
  85:../Dave/Generated/CMSIS_DSP/SupportFunctions/arm_q31_to_q15.c **** 
  86:../Dave/Generated/CMSIS_DSP/SupportFunctions/arm_q31_to_q15.c ****     /* pack two higher 16-bit values from two 32-bit values */
  87:../Dave/Generated/CMSIS_DSP/SupportFunctions/arm_q31_to_q15.c **** #ifndef ARM_MATH_BIG_ENDIAN
  88:../Dave/Generated/CMSIS_DSP/SupportFunctions/arm_q31_to_q15.c **** 
  89:../Dave/Generated/CMSIS_DSP/SupportFunctions/arm_q31_to_q15.c ****     out1 = __PKHTB(in2, in1, 16);
  90:../Dave/Generated/CMSIS_DSP/SupportFunctions/arm_q31_to_q15.c ****     out2 = __PKHTB(in4, in3, 16);
  51              	 .loc 1 90 0
  52 0014 33F8066C 	 ldrh r6,[r3,#-6]
  53 0018 33F802CC 	 ldrh ip,[r3,#-2]
  89:../Dave/Generated/CMSIS_DSP/SupportFunctions/arm_q31_to_q15.c ****     out2 = __PKHTB(in4, in3, 16);
  54              	 .loc 1 89 0
  55 001c 33F80E5C 	 ldrh r5,[r3,#-14]
  56 0020 33F80AEC 	 ldrh lr,[r3,#-10]
  57              	 .loc 1 90 0
  58 0024 46EA0C46 	 orr r6,r6,ip,lsl#16
  59              	.LVL3:
  89:../Dave/Generated/CMSIS_DSP/SupportFunctions/arm_q31_to_q15.c ****     out2 = __PKHTB(in4, in3, 16);
  60              	 .loc 1 89 0
  61 0028 45EA0E45 	 orr r5,r5,lr,lsl#16
  77:../Dave/Generated/CMSIS_DSP/SupportFunctions/arm_q31_to_q15.c ****   {
  62              	 .loc 1 77 0
  63 002c 013F     	 subs r7,r7,#1
  64              	.LVL4:
  91:../Dave/Generated/CMSIS_DSP/SupportFunctions/arm_q31_to_q15.c **** 
  92:../Dave/Generated/CMSIS_DSP/SupportFunctions/arm_q31_to_q15.c **** #else
  93:../Dave/Generated/CMSIS_DSP/SupportFunctions/arm_q31_to_q15.c **** 
  94:../Dave/Generated/CMSIS_DSP/SupportFunctions/arm_q31_to_q15.c ****     out1 = __PKHTB(in1, in2, 16);
  95:../Dave/Generated/CMSIS_DSP/SupportFunctions/arm_q31_to_q15.c ****     out2 = __PKHTB(in3, in4, 16);
  96:../Dave/Generated/CMSIS_DSP/SupportFunctions/arm_q31_to_q15.c **** 
  97:../Dave/Generated/CMSIS_DSP/SupportFunctions/arm_q31_to_q15.c **** #endif //      #ifdef ARM_MATH_BIG_ENDIAN
  98:../Dave/Generated/CMSIS_DSP/SupportFunctions/arm_q31_to_q15.c **** 
  99:../Dave/Generated/CMSIS_DSP/SupportFunctions/arm_q31_to_q15.c ****     *__SIMD32(pDst)++ = out1;
  65              	 .loc 1 99 0
  66 002e 04E96000 	 stmdb r4,{r5,r6}
  67              	.LVL5:
  68 0032 03F11003 	 add r3,r3,#16
  69              	.LVL6:
  70 0036 04F10804 	 add r4,r4,#8
  71              	.LVL7:
  77:../Dave/Generated/CMSIS_DSP/SupportFunctions/arm_q31_to_q15.c ****   {
  72              	 .loc 1 77 0
  73 003a EBD1     	 bne .L3
  74 003c 00EB0810 	 add r0,r0,r8,lsl#4
  75              	.LVL8:
  76 0040 01EBC801 	 add r1,r1,r8,lsl#3
  77              	.LVL9:
  78              	.L2:
 100:../Dave/Generated/CMSIS_DSP/SupportFunctions/arm_q31_to_q15.c ****     *__SIMD32(pDst)++ = out2;
 101:../Dave/Generated/CMSIS_DSP/SupportFunctions/arm_q31_to_q15.c **** 
 102:../Dave/Generated/CMSIS_DSP/SupportFunctions/arm_q31_to_q15.c ****     /* Decrement the loop counter */
 103:../Dave/Generated/CMSIS_DSP/SupportFunctions/arm_q31_to_q15.c ****     blkCnt--;
 104:../Dave/Generated/CMSIS_DSP/SupportFunctions/arm_q31_to_q15.c ****   }
 105:../Dave/Generated/CMSIS_DSP/SupportFunctions/arm_q31_to_q15.c **** 
 106:../Dave/Generated/CMSIS_DSP/SupportFunctions/arm_q31_to_q15.c ****   /* If the blockSize is not a multiple of 4, compute any remaining output samples here.
 107:../Dave/Generated/CMSIS_DSP/SupportFunctions/arm_q31_to_q15.c ****    ** No loop unrolling is used. */
 108:../Dave/Generated/CMSIS_DSP/SupportFunctions/arm_q31_to_q15.c ****   blkCnt = blockSize % 0x4u;
 109:../Dave/Generated/CMSIS_DSP/SupportFunctions/arm_q31_to_q15.c **** 
 110:../Dave/Generated/CMSIS_DSP/SupportFunctions/arm_q31_to_q15.c **** #else
 111:../Dave/Generated/CMSIS_DSP/SupportFunctions/arm_q31_to_q15.c **** 
 112:../Dave/Generated/CMSIS_DSP/SupportFunctions/arm_q31_to_q15.c ****   /* Run the below code for Cortex-M0 */
 113:../Dave/Generated/CMSIS_DSP/SupportFunctions/arm_q31_to_q15.c **** 
 114:../Dave/Generated/CMSIS_DSP/SupportFunctions/arm_q31_to_q15.c ****   /* Loop over blockSize number of values */
 115:../Dave/Generated/CMSIS_DSP/SupportFunctions/arm_q31_to_q15.c ****   blkCnt = blockSize;
 116:../Dave/Generated/CMSIS_DSP/SupportFunctions/arm_q31_to_q15.c **** 
 117:../Dave/Generated/CMSIS_DSP/SupportFunctions/arm_q31_to_q15.c **** #endif /* #if defined (ARM_MATH_DSP) */
 118:../Dave/Generated/CMSIS_DSP/SupportFunctions/arm_q31_to_q15.c **** 
 119:../Dave/Generated/CMSIS_DSP/SupportFunctions/arm_q31_to_q15.c ****   while (blkCnt > 0u)
  79              	 .loc 1 119 0
  80 0044 12F00302 	 ands r2,r2,#3
  81              	.LVL10:
  82 0048 08D0     	 beq .L1
  83 004a 0239     	 subs r1,r1,#2
  84              	.LVL11:
  85              	.L5:
 120:../Dave/Generated/CMSIS_DSP/SupportFunctions/arm_q31_to_q15.c ****   {
 121:../Dave/Generated/CMSIS_DSP/SupportFunctions/arm_q31_to_q15.c ****     /* C = (q15_t) A >> 16 */
 122:../Dave/Generated/CMSIS_DSP/SupportFunctions/arm_q31_to_q15.c ****     /* convert from q31 to q15 and then store the results in the destination buffer */
 123:../Dave/Generated/CMSIS_DSP/SupportFunctions/arm_q31_to_q15.c ****     *pDst++ = (q15_t) (*pIn++ >> 16);
  86              	 .loc 1 123 0
  87 004c 50F8043B 	 ldr r3,[r0],#4
  88              	.LVL12:
 119:../Dave/Generated/CMSIS_DSP/SupportFunctions/arm_q31_to_q15.c ****   {
  89              	 .loc 1 119 0
  90 0050 013A     	 subs r2,r2,#1
  91              	.LVL13:
  92              	 .loc 1 123 0
  93 0052 4FEA2343 	 asr r3,r3,#16
  94 0056 21F8023F 	 strh r3,[r1,#2]!
  95              	.LVL14:
 119:../Dave/Generated/CMSIS_DSP/SupportFunctions/arm_q31_to_q15.c ****   {
  96              	 .loc 1 119 0
  97 005a F7D1     	 bne .L5
  98              	.LVL15:
  99              	.L1:
 100 005c BDE8F081 	 pop {r4,r5,r6,r7,r8,pc}
 101              	 .cfi_endproc
 102              	.LFE135:
 104              	 .text
 105              	.Letext0:
 106              	 .file 2 "c:\\infineon\\tools\\dave ide\\4.5.0.202105191637\\eclipse\\arm-gcc-49\\arm-none-eabi\\include\\machine\\_default_types.h"
 107              	 .file 3 "c:\\infineon\\tools\\dave ide\\4.5.0.202105191637\\eclipse\\arm-gcc-49\\arm-none-eabi\\include\\stdint.h"
 108              	 .file 4 "C:/Users/Utente/Desktop/Tesi/Firmware_Software/DAVE project/S2GLP_Pulsed_Doppler/Dave/Generated/CMSIS_DSP/arm_math.h"