   1              	 .syntax unified
   2              	 .cpu cortex-m4
   3              	 .eabi_attribute 27,3
   4              	 .fpu fpv4-sp-d16
   5              	 .eabi_attribute 20,1
   6              	 .eabi_attribute 21,1
   7              	 .eabi_attribute 23,3
   8              	 .eabi_attribute 24,1
   9              	 .eabi_attribute 25,1
  10              	 .eabi_attribute 26,1
  11              	 .eabi_attribute 30,2
  12              	 .eabi_attribute 34,1
  13              	 .eabi_attribute 18,4
  14              	 .thumb
  15              	 .file "arm_float_to_q15.c"
  16              	 .text
  17              	.Ltext0:
  18              	 .cfi_sections .debug_frame
  19              	 .section .text.arm_float_to_q15,"ax",%progbits
  20              	 .align 2
  21              	 .global arm_float_to_q15
  22              	 .thumb
  23              	 .thumb_func
  25              	arm_float_to_q15:
  26              	.LFB135:
  27              	 .file 1 "../Dave/Generated/CMSIS_DSP/SupportFunctions/arm_float_to_q15.c"
   1:../Dave/Generated/CMSIS_DSP/SupportFunctions/arm_float_to_q15.c **** /* ----------------------------------------------------------------------
   2:../Dave/Generated/CMSIS_DSP/SupportFunctions/arm_float_to_q15.c ****  * Project:      CMSIS DSP Library
   3:../Dave/Generated/CMSIS_DSP/SupportFunctions/arm_float_to_q15.c ****  * Title:        arm_float_to_q15.c
   4:../Dave/Generated/CMSIS_DSP/SupportFunctions/arm_float_to_q15.c ****  * Description:  Converts the elements of the floating-point vector to Q15 vector
   5:../Dave/Generated/CMSIS_DSP/SupportFunctions/arm_float_to_q15.c ****  *
   6:../Dave/Generated/CMSIS_DSP/SupportFunctions/arm_float_to_q15.c ****  * $Date:        27. January 2017
   7:../Dave/Generated/CMSIS_DSP/SupportFunctions/arm_float_to_q15.c ****  * $Revision:    V.1.5.1
   8:../Dave/Generated/CMSIS_DSP/SupportFunctions/arm_float_to_q15.c ****  *
   9:../Dave/Generated/CMSIS_DSP/SupportFunctions/arm_float_to_q15.c ****  * Target Processor: Cortex-M cores
  10:../Dave/Generated/CMSIS_DSP/SupportFunctions/arm_float_to_q15.c ****  * -------------------------------------------------------------------- */
  11:../Dave/Generated/CMSIS_DSP/SupportFunctions/arm_float_to_q15.c **** /*
  12:../Dave/Generated/CMSIS_DSP/SupportFunctions/arm_float_to_q15.c ****  * Copyright (C) 2010-2017 ARM Limited or its affiliates. All rights reserved.
  13:../Dave/Generated/CMSIS_DSP/SupportFunctions/arm_float_to_q15.c ****  *
  14:../Dave/Generated/CMSIS_DSP/SupportFunctions/arm_float_to_q15.c ****  * SPDX-License-Identifier: Apache-2.0
  15:../Dave/Generated/CMSIS_DSP/SupportFunctions/arm_float_to_q15.c ****  *
  16:../Dave/Generated/CMSIS_DSP/SupportFunctions/arm_float_to_q15.c ****  * Licensed under the Apache License, Version 2.0 (the License); you may
  17:../Dave/Generated/CMSIS_DSP/SupportFunctions/arm_float_to_q15.c ****  * not use this file except in compliance with the License.
  18:../Dave/Generated/CMSIS_DSP/SupportFunctions/arm_float_to_q15.c ****  * You may obtain a copy of the License at
  19:../Dave/Generated/CMSIS_DSP/SupportFunctions/arm_float_to_q15.c ****  *
  20:../Dave/Generated/CMSIS_DSP/SupportFunctions/arm_float_to_q15.c ****  * www.apache.org/licenses/LICENSE-2.0
  21:../Dave/Generated/CMSIS_DSP/SupportFunctions/arm_float_to_q15.c ****  *
  22:../Dave/Generated/CMSIS_DSP/SupportFunctions/arm_float_to_q15.c ****  * Unless required by applicable law or agreed to in writing, software
  23:../Dave/Generated/CMSIS_DSP/SupportFunctions/arm_float_to_q15.c ****  * distributed under the License is distributed on an AS IS BASIS, WITHOUT
  24:../Dave/Generated/CMSIS_DSP/SupportFunctions/arm_float_to_q15.c ****  * WARRANTIES OR CONDITIONS OF ANY KIND, either express or implied.
  25:../Dave/Generated/CMSIS_DSP/SupportFunctions/arm_float_to_q15.c ****  * See the License for the specific language governing permissions and
  26:../Dave/Generated/CMSIS_DSP/SupportFunctions/arm_float_to_q15.c ****  * limitations under the License.
  27:../Dave/Generated/CMSIS_DSP/SupportFunctions/arm_float_to_q15.c ****  */
  28:../Dave/Generated/CMSIS_DSP/SupportFunctions/arm_float_to_q15.c **** 
  29:../Dave/Generated/CMSIS_DSP/SupportFunctions/arm_float_to_q15.c **** #include "CMSIS_DSP/cmsis_dsp.h"
  30:../Dave/Generated/CMSIS_DSP/SupportFunctions/arm_float_to_q15.c **** 
  31:../Dave/Generated/CMSIS_DSP/SupportFunctions/arm_float_to_q15.c **** /**
  32:../Dave/Generated/CMSIS_DSP/SupportFunctions/arm_float_to_q15.c ****  * @ingroup groupSupport
  33:../Dave/Generated/CMSIS_DSP/SupportFunctions/arm_float_to_q15.c ****  */
  34:../Dave/Generated/CMSIS_DSP/SupportFunctions/arm_float_to_q15.c **** 
  35:../Dave/Generated/CMSIS_DSP/SupportFunctions/arm_float_to_q15.c **** /**
  36:../Dave/Generated/CMSIS_DSP/SupportFunctions/arm_float_to_q15.c ****  * @addtogroup float_to_x
  37:../Dave/Generated/CMSIS_DSP/SupportFunctions/arm_float_to_q15.c ****  * @{
  38:../Dave/Generated/CMSIS_DSP/SupportFunctions/arm_float_to_q15.c ****  */
  39:../Dave/Generated/CMSIS_DSP/SupportFunctions/arm_float_to_q15.c **** 
  40:../Dave/Generated/CMSIS_DSP/SupportFunctions/arm_float_to_q15.c **** /**
  41:../Dave/Generated/CMSIS_DSP/SupportFunctions/arm_float_to_q15.c ****  * @brief Converts the elements of the floating-point vector to Q15 vector.
  42:../Dave/Generated/CMSIS_DSP/SupportFunctions/arm_float_to_q15.c ****  * @param[in]       *pSrc points to the floating-point input vector
  43:../Dave/Generated/CMSIS_DSP/SupportFunctions/arm_float_to_q15.c ****  * @param[out]      *pDst points to the Q15 output vector
  44:../Dave/Generated/CMSIS_DSP/SupportFunctions/arm_float_to_q15.c ****  * @param[in]       blockSize length of the input vector
  45:../Dave/Generated/CMSIS_DSP/SupportFunctions/arm_float_to_q15.c ****  * @return none.
  46:../Dave/Generated/CMSIS_DSP/SupportFunctions/arm_float_to_q15.c ****  *
  47:../Dave/Generated/CMSIS_DSP/SupportFunctions/arm_float_to_q15.c ****  * \par Description:
  48:../Dave/Generated/CMSIS_DSP/SupportFunctions/arm_float_to_q15.c ****  * \par
  49:../Dave/Generated/CMSIS_DSP/SupportFunctions/arm_float_to_q15.c ****  * The equation used for the conversion process is:
  50:../Dave/Generated/CMSIS_DSP/SupportFunctions/arm_float_to_q15.c ****  * <pre>
  51:../Dave/Generated/CMSIS_DSP/SupportFunctions/arm_float_to_q15.c ****  * 	pDst[n] = (q15_t)(pSrc[n] * 32768);   0 <= n < blockSize.
  52:../Dave/Generated/CMSIS_DSP/SupportFunctions/arm_float_to_q15.c ****  * </pre>
  53:../Dave/Generated/CMSIS_DSP/SupportFunctions/arm_float_to_q15.c ****  * \par Scaling and Overflow Behavior:
  54:../Dave/Generated/CMSIS_DSP/SupportFunctions/arm_float_to_q15.c ****  * \par
  55:../Dave/Generated/CMSIS_DSP/SupportFunctions/arm_float_to_q15.c ****  * The function uses saturating arithmetic.
  56:../Dave/Generated/CMSIS_DSP/SupportFunctions/arm_float_to_q15.c ****  * Results outside of the allowable Q15 range [0x8000 0x7FFF] will be saturated.
  57:../Dave/Generated/CMSIS_DSP/SupportFunctions/arm_float_to_q15.c ****  * \note
  58:../Dave/Generated/CMSIS_DSP/SupportFunctions/arm_float_to_q15.c ****  * In order to apply rounding, the library should be rebuilt with the ROUNDING macro
  59:../Dave/Generated/CMSIS_DSP/SupportFunctions/arm_float_to_q15.c ****  * defined in the preprocessor section of project options.
  60:../Dave/Generated/CMSIS_DSP/SupportFunctions/arm_float_to_q15.c ****  *
  61:../Dave/Generated/CMSIS_DSP/SupportFunctions/arm_float_to_q15.c ****  */
  62:../Dave/Generated/CMSIS_DSP/SupportFunctions/arm_float_to_q15.c **** 
  63:../Dave/Generated/CMSIS_DSP/SupportFunctions/arm_float_to_q15.c **** 
  64:../Dave/Generated/CMSIS_DSP/SupportFunctions/arm_float_to_q15.c **** void arm_float_to_q15(
  65:../Dave/Generated/CMSIS_DSP/SupportFunctions/arm_float_to_q15.c ****   float32_t * pSrc,
  66:../Dave/Generated/CMSIS_DSP/SupportFunctions/arm_float_to_q15.c ****   q15_t * pDst,
  67:../Dave/Generated/CMSIS_DSP/SupportFunctions/arm_float_to_q15.c ****   uint32_t blockSize)
  68:../Dave/Generated/CMSIS_DSP/SupportFunctions/arm_float_to_q15.c **** {
  28              	 .loc 1 68 0
  29              	 .cfi_startproc
  30              	 
  31              	 
  32              	.LVL0:
  33 0000 F0B5     	 push {r4,r5,r6,r7,lr}
  34              	.LCFI0:
  35              	 .cfi_def_cfa_offset 20
  36              	 .cfi_offset 4,-20
  37              	 .cfi_offset 5,-16
  38              	 .cfi_offset 6,-12
  39              	 .cfi_offset 7,-8
  40              	 .cfi_offset 14,-4
  69:../Dave/Generated/CMSIS_DSP/SupportFunctions/arm_float_to_q15.c ****   float32_t *pIn = pSrc;                         /* Src pointer */
  70:../Dave/Generated/CMSIS_DSP/SupportFunctions/arm_float_to_q15.c ****   uint32_t blkCnt;                               /* loop counter */
  71:../Dave/Generated/CMSIS_DSP/SupportFunctions/arm_float_to_q15.c **** 
  72:../Dave/Generated/CMSIS_DSP/SupportFunctions/arm_float_to_q15.c **** #ifdef ARM_MATH_ROUNDING
  73:../Dave/Generated/CMSIS_DSP/SupportFunctions/arm_float_to_q15.c **** 
  74:../Dave/Generated/CMSIS_DSP/SupportFunctions/arm_float_to_q15.c ****   float32_t in;
  75:../Dave/Generated/CMSIS_DSP/SupportFunctions/arm_float_to_q15.c **** 
  76:../Dave/Generated/CMSIS_DSP/SupportFunctions/arm_float_to_q15.c **** #endif /*      #ifdef ARM_MATH_ROUNDING        */
  77:../Dave/Generated/CMSIS_DSP/SupportFunctions/arm_float_to_q15.c **** 
  78:../Dave/Generated/CMSIS_DSP/SupportFunctions/arm_float_to_q15.c **** #if defined (ARM_MATH_DSP)
  79:../Dave/Generated/CMSIS_DSP/SupportFunctions/arm_float_to_q15.c **** 
  80:../Dave/Generated/CMSIS_DSP/SupportFunctions/arm_float_to_q15.c ****   /* Run the below code for Cortex-M4 and Cortex-M3 */
  81:../Dave/Generated/CMSIS_DSP/SupportFunctions/arm_float_to_q15.c **** 
  82:../Dave/Generated/CMSIS_DSP/SupportFunctions/arm_float_to_q15.c ****   /*loop Unrolling */
  83:../Dave/Generated/CMSIS_DSP/SupportFunctions/arm_float_to_q15.c ****   blkCnt = blockSize >> 2u;
  84:../Dave/Generated/CMSIS_DSP/SupportFunctions/arm_float_to_q15.c **** 
  85:../Dave/Generated/CMSIS_DSP/SupportFunctions/arm_float_to_q15.c ****   /* First part of the processing with loop unrolling.  Compute 4 outputs at a time.
  86:../Dave/Generated/CMSIS_DSP/SupportFunctions/arm_float_to_q15.c ****    ** a second loop below computes the remaining 1 to 3 samples. */
  87:../Dave/Generated/CMSIS_DSP/SupportFunctions/arm_float_to_q15.c ****   while (blkCnt > 0u)
  41              	 .loc 1 87 0
  42 0002 5FEA920E 	 lsrs lr,r2,#2
  43              	.LVL1:
  44 0006 70D0     	 beq .L2
  88:../Dave/Generated/CMSIS_DSP/SupportFunctions/arm_float_to_q15.c ****   {
  89:../Dave/Generated/CMSIS_DSP/SupportFunctions/arm_float_to_q15.c **** 
  90:../Dave/Generated/CMSIS_DSP/SupportFunctions/arm_float_to_q15.c **** #ifdef ARM_MATH_ROUNDING
  91:../Dave/Generated/CMSIS_DSP/SupportFunctions/arm_float_to_q15.c ****     /* C = A * 32768 */
  92:../Dave/Generated/CMSIS_DSP/SupportFunctions/arm_float_to_q15.c ****     /* convert from float to q15 and then store the results in the destination buffer */
  93:../Dave/Generated/CMSIS_DSP/SupportFunctions/arm_float_to_q15.c ****     in = *pIn++;
  94:../Dave/Generated/CMSIS_DSP/SupportFunctions/arm_float_to_q15.c ****     in = (in * 32768.0f);
  45              	 .loc 1 94 0
  46 0008 DFED492A 	 flds s5,.L24
  47 000c 00F11006 	 add r6,r0,#16
  48 0010 01F10805 	 add r5,r1,#8
  87:../Dave/Generated/CMSIS_DSP/SupportFunctions/arm_float_to_q15.c ****   {
  49              	 .loc 1 87 0
  50 0014 7746     	 mov r7,lr
  95:../Dave/Generated/CMSIS_DSP/SupportFunctions/arm_float_to_q15.c ****     in += in > 0.0f ? 0.5f : -0.5f;
  51              	 .loc 1 95 0
  52 0016 B6EE003A 	 fconsts s6,#96
  53 001a FEEE003A 	 fconsts s7,#224
  54              	.LVL2:
  55              	.L7:
  93:../Dave/Generated/CMSIS_DSP/SupportFunctions/arm_float_to_q15.c ****     in = (in * 32768.0f);
  56              	 .loc 1 93 0
  57 001e 16ED046A 	 flds s12,[r6,#-16]
  58              	.LVL3:
  96:../Dave/Generated/CMSIS_DSP/SupportFunctions/arm_float_to_q15.c ****     *pDst++ = (q15_t) (__SSAT((q31_t) (in), 16));
  97:../Dave/Generated/CMSIS_DSP/SupportFunctions/arm_float_to_q15.c **** 
  98:../Dave/Generated/CMSIS_DSP/SupportFunctions/arm_float_to_q15.c ****     in = *pIn++;
  59              	 .loc 1 98 0
  60 0022 56ED036A 	 flds s13,[r6,#-12]
  99:../Dave/Generated/CMSIS_DSP/SupportFunctions/arm_float_to_q15.c ****     in = (in * 32768.0f);
 100:../Dave/Generated/CMSIS_DSP/SupportFunctions/arm_float_to_q15.c ****     in += in > 0.0f ? 0.5f : -0.5f;
 101:../Dave/Generated/CMSIS_DSP/SupportFunctions/arm_float_to_q15.c ****     *pDst++ = (q15_t) (__SSAT((q31_t) (in), 16));
 102:../Dave/Generated/CMSIS_DSP/SupportFunctions/arm_float_to_q15.c **** 
 103:../Dave/Generated/CMSIS_DSP/SupportFunctions/arm_float_to_q15.c ****     in = *pIn++;
  61              	 .loc 1 103 0
  62 0026 16ED027A 	 flds s14,[r6,#-8]
 104:../Dave/Generated/CMSIS_DSP/SupportFunctions/arm_float_to_q15.c ****     in = (in * 32768.0f);
 105:../Dave/Generated/CMSIS_DSP/SupportFunctions/arm_float_to_q15.c ****     in += in > 0.0f ? 0.5f : -0.5f;
 106:../Dave/Generated/CMSIS_DSP/SupportFunctions/arm_float_to_q15.c ****     *pDst++ = (q15_t) (__SSAT((q31_t) (in), 16));
 107:../Dave/Generated/CMSIS_DSP/SupportFunctions/arm_float_to_q15.c **** 
 108:../Dave/Generated/CMSIS_DSP/SupportFunctions/arm_float_to_q15.c ****     in = *pIn++;
  63              	 .loc 1 108 0
  64 002a 56ED017A 	 flds s15,[r6,#-4]
  94:../Dave/Generated/CMSIS_DSP/SupportFunctions/arm_float_to_q15.c ****     in += in > 0.0f ? 0.5f : -0.5f;
  65              	 .loc 1 94 0
  66 002e 26EE224A 	 fmuls s8,s12,s5
  67              	.LVL4:
  99:../Dave/Generated/CMSIS_DSP/SupportFunctions/arm_float_to_q15.c ****     in = (in * 32768.0f);
  68              	 .loc 1 99 0
  69 0032 66EEA24A 	 fmuls s9,s13,s5
 104:../Dave/Generated/CMSIS_DSP/SupportFunctions/arm_float_to_q15.c ****     in = (in * 32768.0f);
  70              	 .loc 1 104 0
  71 0036 27EE225A 	 fmuls s10,s14,s5
  95:../Dave/Generated/CMSIS_DSP/SupportFunctions/arm_float_to_q15.c ****     *pDst++ = (q15_t) (__SSAT((q31_t) (in), 16));
  72              	 .loc 1 95 0
  73 003a B5EEC04A 	 fcmpezs s8
  74 003e F1EE10FA 	 fmstat
 109:../Dave/Generated/CMSIS_DSP/SupportFunctions/arm_float_to_q15.c ****     in = (in * 32768.0f);
  75              	 .loc 1 109 0
  76 0042 67EEA25A 	 fmuls s11,s15,s5
 100:../Dave/Generated/CMSIS_DSP/SupportFunctions/arm_float_to_q15.c ****     *pDst++ = (q15_t) (__SSAT((q31_t) (in), 16));
  77              	 .loc 1 100 0
  78 0046 F5EEC04A 	 fcmpezs s9
  95:../Dave/Generated/CMSIS_DSP/SupportFunctions/arm_float_to_q15.c ****     *pDst++ = (q15_t) (__SSAT((q31_t) (in), 16));
  79              	 .loc 1 95 0
  80 004a D4BF     	 ite le
  81 004c B0EE636A 	 fcpysle s12,s7
  82 0050 B0EE436A 	 fcpysgt s12,s6
  83              	.LVL5:
 100:../Dave/Generated/CMSIS_DSP/SupportFunctions/arm_float_to_q15.c ****     *pDst++ = (q15_t) (__SSAT((q31_t) (in), 16));
  84              	 .loc 1 100 0
  85 0054 F1EE10FA 	 fmstat
 105:../Dave/Generated/CMSIS_DSP/SupportFunctions/arm_float_to_q15.c ****     *pDst++ = (q15_t) (__SSAT((q31_t) (in), 16));
  86              	 .loc 1 105 0
  87 0058 B5EEC05A 	 fcmpezs s10
 100:../Dave/Generated/CMSIS_DSP/SupportFunctions/arm_float_to_q15.c ****     *pDst++ = (q15_t) (__SSAT((q31_t) (in), 16));
  88              	 .loc 1 100 0
  89 005c D4BF     	 ite le
  90 005e F0EE636A 	 fcpysle s13,s7
  91 0062 F0EE436A 	 fcpysgt s13,s6
 105:../Dave/Generated/CMSIS_DSP/SupportFunctions/arm_float_to_q15.c ****     *pDst++ = (q15_t) (__SSAT((q31_t) (in), 16));
  92              	 .loc 1 105 0
  93 0066 F1EE10FA 	 fmstat
 110:../Dave/Generated/CMSIS_DSP/SupportFunctions/arm_float_to_q15.c ****     in += in > 0.0f ? 0.5f : -0.5f;
  94              	 .loc 1 110 0
  95 006a F5EEC05A 	 fcmpezs s11
 105:../Dave/Generated/CMSIS_DSP/SupportFunctions/arm_float_to_q15.c ****     *pDst++ = (q15_t) (__SSAT((q31_t) (in), 16));
  96              	 .loc 1 105 0
  97 006e D4BF     	 ite le
  98 0070 B0EE637A 	 fcpysle s14,s7
  99 0074 B0EE437A 	 fcpysgt s14,s6
 100              	 .loc 1 110 0
 101 0078 F1EE10FA 	 fmstat
 102 007c D4BF     	 ite le
 103 007e F0EE637A 	 fcpysle s15,s7
 104 0082 F0EE437A 	 fcpysgt s15,s6
  95:../Dave/Generated/CMSIS_DSP/SupportFunctions/arm_float_to_q15.c ****     *pDst++ = (q15_t) (__SSAT((q31_t) (in), 16));
 105              	 .loc 1 95 0
 106 0086 36EE046A 	 fadds s12,s12,s8
 107              	.LVL6:
 100:../Dave/Generated/CMSIS_DSP/SupportFunctions/arm_float_to_q15.c ****     *pDst++ = (q15_t) (__SSAT((q31_t) (in), 16));
 108              	 .loc 1 100 0
 109 008a 76EEA46A 	 fadds s13,s13,s9
 105:../Dave/Generated/CMSIS_DSP/SupportFunctions/arm_float_to_q15.c ****     *pDst++ = (q15_t) (__SSAT((q31_t) (in), 16));
 110              	 .loc 1 105 0
 111 008e 37EE057A 	 fadds s14,s14,s10
 112              	 .loc 1 110 0
 113 0092 77EEA57A 	 fadds s15,s15,s11
 114              	.LBB2:
  96:../Dave/Generated/CMSIS_DSP/SupportFunctions/arm_float_to_q15.c **** 
 115              	 .loc 1 96 0
 116 0096 BDEEC66A 	 ftosizs s12,s12
 117              	.LVL7:
 118              	.LBE2:
 119              	.LBB3:
 101:../Dave/Generated/CMSIS_DSP/SupportFunctions/arm_float_to_q15.c **** 
 120              	 .loc 1 101 0
 121 009a FDEEE66A 	 ftosizs s13,s13
 122              	.LBE3:
 123              	.LBB4:
 106:../Dave/Generated/CMSIS_DSP/SupportFunctions/arm_float_to_q15.c **** 
 124              	 .loc 1 106 0
 125 009e BDEEC77A 	 ftosizs s14,s14
 126              	.LBE4:
 127              	.LBB5:
 111:../Dave/Generated/CMSIS_DSP/SupportFunctions/arm_float_to_q15.c ****     *pDst++ = (q15_t) (__SSAT((q31_t) (in), 16));
 128              	 .loc 1 111 0
 129 00a2 FDEEE77A 	 ftosizs s15,s15
 130              	.LBE5:
  87:../Dave/Generated/CMSIS_DSP/SupportFunctions/arm_float_to_q15.c ****   {
 131              	 .loc 1 87 0
 132 00a6 013F     	 subs r7,r7,#1
 133              	.LVL8:
 134              	.LBB6:
  96:../Dave/Generated/CMSIS_DSP/SupportFunctions/arm_float_to_q15.c **** 
 135              	 .loc 1 96 0
 136 00a8 16EE104A 	 fmrs r4,s12
 137              	
 138 00ac 04F30F04 	 ssat r4,#16,r4
 139              	
 140              	.LVL9:
 141              	 .thumb
 142              	.LBE6:
 143              	.LBB7:
 101:../Dave/Generated/CMSIS_DSP/SupportFunctions/arm_float_to_q15.c **** 
 144              	 .loc 1 101 0
 145 00b0 16EE903A 	 fmrs r3,s13
 146              	
 147 00b4 03F30F03 	 ssat r3,#16,r3
 148              	
 149              	 .thumb
 150              	.LBE7:
  96:../Dave/Generated/CMSIS_DSP/SupportFunctions/arm_float_to_q15.c **** 
 151              	 .loc 1 96 0
 152 00b8 25F8084C 	 strh r4,[r5,#-8]
 153              	.LVL10:
 101:../Dave/Generated/CMSIS_DSP/SupportFunctions/arm_float_to_q15.c **** 
 154              	 .loc 1 101 0
 155 00bc 25F8063C 	 strh r3,[r5,#-6]
 156              	.LVL11:
 157              	.LBB8:
 106:../Dave/Generated/CMSIS_DSP/SupportFunctions/arm_float_to_q15.c **** 
 158              	 .loc 1 106 0
 159 00c0 17EE104A 	 fmrs r4,s14
 160              	.LVL12:
 161              	
 162 00c4 04F30F04 	 ssat r4,#16,r4
 163              	
 164              	.LVL13:
 165              	 .thumb
 166              	.LBE8:
 167              	.LBB9:
 168              	 .loc 1 111 0
 169 00c8 17EE903A 	 fmrs r3,s15
 170              	.LVL14:
 171              	
 172 00cc 03F30F03 	 ssat r3,#16,r3
 173              	
 174              	 .thumb
 175              	.LBE9:
 106:../Dave/Generated/CMSIS_DSP/SupportFunctions/arm_float_to_q15.c **** 
 176              	 .loc 1 106 0
 177 00d0 25F8044C 	 strh r4,[r5,#-4]
 178              	.LVL15:
 179              	 .loc 1 111 0
 180 00d4 25F8023C 	 strh r3,[r5,#-2]
 181 00d8 06F11006 	 add r6,r6,#16
 182 00dc 05F10805 	 add r5,r5,#8
 183              	.LVL16:
  87:../Dave/Generated/CMSIS_DSP/SupportFunctions/arm_float_to_q15.c ****   {
 184              	 .loc 1 87 0
 185 00e0 9DD1     	 bne .L7
 186 00e2 00EB0E10 	 add r0,r0,lr,lsl#4
 187              	.LVL17:
 188 00e6 01EBCE01 	 add r1,r1,lr,lsl#3
 189              	.LVL18:
 190              	.L2:
 112:../Dave/Generated/CMSIS_DSP/SupportFunctions/arm_float_to_q15.c **** 
 113:../Dave/Generated/CMSIS_DSP/SupportFunctions/arm_float_to_q15.c **** #else
 114:../Dave/Generated/CMSIS_DSP/SupportFunctions/arm_float_to_q15.c **** 
 115:../Dave/Generated/CMSIS_DSP/SupportFunctions/arm_float_to_q15.c ****     /* C = A * 32768 */
 116:../Dave/Generated/CMSIS_DSP/SupportFunctions/arm_float_to_q15.c ****     /* convert from float to q15 and then store the results in the destination buffer */
 117:../Dave/Generated/CMSIS_DSP/SupportFunctions/arm_float_to_q15.c ****     *pDst++ = (q15_t) __SSAT((q31_t) (*pIn++ * 32768.0f), 16);
 118:../Dave/Generated/CMSIS_DSP/SupportFunctions/arm_float_to_q15.c ****     *pDst++ = (q15_t) __SSAT((q31_t) (*pIn++ * 32768.0f), 16);
 119:../Dave/Generated/CMSIS_DSP/SupportFunctions/arm_float_to_q15.c ****     *pDst++ = (q15_t) __SSAT((q31_t) (*pIn++ * 32768.0f), 16);
 120:../Dave/Generated/CMSIS_DSP/SupportFunctions/arm_float_to_q15.c ****     *pDst++ = (q15_t) __SSAT((q31_t) (*pIn++ * 32768.0f), 16);
 121:../Dave/Generated/CMSIS_DSP/SupportFunctions/arm_float_to_q15.c **** 
 122:../Dave/Generated/CMSIS_DSP/SupportFunctions/arm_float_to_q15.c **** #endif /*      #ifdef ARM_MATH_ROUNDING        */
 123:../Dave/Generated/CMSIS_DSP/SupportFunctions/arm_float_to_q15.c **** 
 124:../Dave/Generated/CMSIS_DSP/SupportFunctions/arm_float_to_q15.c ****     /* Decrement the loop counter */
 125:../Dave/Generated/CMSIS_DSP/SupportFunctions/arm_float_to_q15.c ****     blkCnt--;
 126:../Dave/Generated/CMSIS_DSP/SupportFunctions/arm_float_to_q15.c ****   }
 127:../Dave/Generated/CMSIS_DSP/SupportFunctions/arm_float_to_q15.c **** 
 128:../Dave/Generated/CMSIS_DSP/SupportFunctions/arm_float_to_q15.c ****   /* If the blockSize is not a multiple of 4, compute any remaining output samples here.
 129:../Dave/Generated/CMSIS_DSP/SupportFunctions/arm_float_to_q15.c ****    ** No loop unrolling is used. */
 130:../Dave/Generated/CMSIS_DSP/SupportFunctions/arm_float_to_q15.c ****   blkCnt = blockSize % 0x4u;
 131:../Dave/Generated/CMSIS_DSP/SupportFunctions/arm_float_to_q15.c **** 
 132:../Dave/Generated/CMSIS_DSP/SupportFunctions/arm_float_to_q15.c ****   while (blkCnt > 0u)
 191              	 .loc 1 132 0
 192 00ea 12F00302 	 ands r2,r2,#3
 193              	.LVL19:
 194 00ee 1ED0     	 beq .L1
 133:../Dave/Generated/CMSIS_DSP/SupportFunctions/arm_float_to_q15.c ****   {
 134:../Dave/Generated/CMSIS_DSP/SupportFunctions/arm_float_to_q15.c **** 
 135:../Dave/Generated/CMSIS_DSP/SupportFunctions/arm_float_to_q15.c **** #ifdef ARM_MATH_ROUNDING
 136:../Dave/Generated/CMSIS_DSP/SupportFunctions/arm_float_to_q15.c ****     /* C = A * 32768 */
 137:../Dave/Generated/CMSIS_DSP/SupportFunctions/arm_float_to_q15.c ****     /* convert from float to q15 and then store the results in the destination buffer */
 138:../Dave/Generated/CMSIS_DSP/SupportFunctions/arm_float_to_q15.c ****     in = *pIn++;
 139:../Dave/Generated/CMSIS_DSP/SupportFunctions/arm_float_to_q15.c ****     in = (in * 32768.0f);
 195              	 .loc 1 139 0
 196 00f0 DFED0F5A 	 flds s11,.L24
 140:../Dave/Generated/CMSIS_DSP/SupportFunctions/arm_float_to_q15.c ****     in += in > 0.0f ? 0.5f : -0.5f;
 197              	 .loc 1 140 0
 198 00f4 B6EE006A 	 fconsts s12,#96
 199 00f8 FEEE006A 	 fconsts s13,#224
 200              	.LVL20:
 201              	.L10:
 138:../Dave/Generated/CMSIS_DSP/SupportFunctions/arm_float_to_q15.c ****     in = (in * 32768.0f);
 202              	 .loc 1 138 0
 203 00fc F0EC017A 	 fldmias r0!,{s15}
 204              	.LVL21:
 139:../Dave/Generated/CMSIS_DSP/SupportFunctions/arm_float_to_q15.c ****     in += in > 0.0f ? 0.5f : -0.5f;
 205              	 .loc 1 139 0
 206 0100 27EEA57A 	 fmuls s14,s15,s11
 207              	.LVL22:
 208              	 .loc 1 140 0
 209 0104 B5EEC07A 	 fcmpezs s14
 210 0108 F1EE10FA 	 fmstat
 211 010c D4BF     	 ite le
 212 010e F0EE667A 	 fcpysle s15,s13
 213 0112 F0EE467A 	 fcpysgt s15,s12
 214              	.LVL23:
 215 0116 77EE877A 	 fadds s15,s15,s14
 216              	.LVL24:
 132:../Dave/Generated/CMSIS_DSP/SupportFunctions/arm_float_to_q15.c ****   {
 217              	 .loc 1 132 0
 218 011a 013A     	 subs r2,r2,#1
 219              	.LVL25:
 220              	.LBB10:
 141:../Dave/Generated/CMSIS_DSP/SupportFunctions/arm_float_to_q15.c ****     *pDst++ = (q15_t) (__SSAT((q31_t) (in), 16));
 221              	 .loc 1 141 0
 222 011c FDEEE77A 	 ftosizs s15,s15
 223              	.LVL26:
 224 0120 17EE903A 	 fmrs r3,s15
 225              	
 226 0124 03F30F03 	 ssat r3,#16,r3
 227              	
 228              	.LVL27:
 229              	 .thumb
 230              	.LBE10:
 231 0128 21F8023B 	 strh r3,[r1],#2
 232              	.LVL28:
 132:../Dave/Generated/CMSIS_DSP/SupportFunctions/arm_float_to_q15.c ****   {
 233              	 .loc 1 132 0
 234 012c E6D1     	 bne .L10
 235              	.LVL29:
 236              	.L1:
 237 012e F0BD     	 pop {r4,r5,r6,r7,pc}
 238              	.L25:
 239              	 .align 2
 240              	.L24:
 241 0130 00000047 	 .word 1191182336
 242              	 .cfi_endproc
 243              	.LFE135:
 245              	 .text
 246              	.Letext0:
 247              	 .file 2 "c:\\infineon\\tools\\dave ide\\4.5.0.202105191637\\eclipse\\arm-gcc-49\\arm-none-eabi\\include\\machine\\_default_types.h"
 248              	 .file 3 "c:\\infineon\\tools\\dave ide\\4.5.0.202105191637\\eclipse\\arm-gcc-49\\arm-none-eabi\\include\\stdint.h"
 249              	 .file 4 "C:/Users/Utente/Desktop/Tesi/Firmware_Software/DAVE project/S2GLP_Pulsed_Doppler/Dave/Generated/CMSIS_DSP/arm_math.h"