   1              	 .syntax unified
   2              	 .cpu cortex-m4
   3              	 .eabi_attribute 27,3
   4              	 .fpu fpv4-sp-d16
   5              	 .eabi_attribute 20,1
   6              	 .eabi_attribute 21,1
   7              	 .eabi_attribute 23,3
   8              	 .eabi_attribute 24,1
   9              	 .eabi_attribute 25,1
  10              	 .eabi_attribute 26,1
  11              	 .eabi_attribute 30,2
  12              	 .eabi_attribute 34,1
  13              	 .eabi_attribute 18,4
  14              	 .thumb
  15              	 .file "radar_mcu4_bsp.c"
  16              	 .text
  17              	.Ltext0:
  18              	 .cfi_sections .debug_frame
  19              	 .section .text.bsp_eeprom_24cw128x_write_data,"ax",%progbits
  20              	 .align 2
  21              	 .global bsp_eeprom_24cw128x_write_data
  22              	 .thumb
  23              	 .thumb_func
  25              	bsp_eeprom_24cw128x_write_data:
  26              	.LFB529:
  27              	 .file 1 "../BSP/radar_mcu4/src/radar_mcu4_bsp.c"
   1:../BSP/radar_mcu4/src/radar_mcu4_bsp.c **** /**
   2:../BSP/radar_mcu4/src/radar_mcu4_bsp.c ****     @file: radar_mcu4_bsp.c
   3:../BSP/radar_mcu4/src/radar_mcu4_bsp.c **** 
   4:../BSP/radar_mcu4/src/radar_mcu4_bsp.c ****     @brief: This file provides a set of firmware functions to manage all peripherals,
   5:../BSP/radar_mcu4/src/radar_mcu4_bsp.c ****             LED, Button and current sensor available on Radar_MCU4 board from Infineon.
   6:../BSP/radar_mcu4/src/radar_mcu4_bsp.c ****  */
   7:../BSP/radar_mcu4/src/radar_mcu4_bsp.c **** 
   8:../BSP/radar_mcu4/src/radar_mcu4_bsp.c **** /* ===========================================================================
   9:../BSP/radar_mcu4/src/radar_mcu4_bsp.c **** ** Copyright (C) 2018-2021 Infineon Technologies AG
  10:../BSP/radar_mcu4/src/radar_mcu4_bsp.c **** ** All rights reserved.
  11:../BSP/radar_mcu4/src/radar_mcu4_bsp.c **** ** ===========================================================================
  12:../BSP/radar_mcu4/src/radar_mcu4_bsp.c **** **
  13:../BSP/radar_mcu4/src/radar_mcu4_bsp.c **** ** ===========================================================================
  14:../BSP/radar_mcu4/src/radar_mcu4_bsp.c **** ** This document contains proprietary information of Infineon Technologies AG.
  15:../BSP/radar_mcu4/src/radar_mcu4_bsp.c **** ** Passing on and copying of this document, and communication of its contents
  16:../BSP/radar_mcu4/src/radar_mcu4_bsp.c **** ** is not permitted without Infineon's prior written authorization.
  17:../BSP/radar_mcu4/src/radar_mcu4_bsp.c **** ** ===========================================================================
  18:../BSP/radar_mcu4/src/radar_mcu4_bsp.c **** */
  19:../BSP/radar_mcu4/src/radar_mcu4_bsp.c **** 
  20:../BSP/radar_mcu4/src/radar_mcu4_bsp.c **** /*
  21:../BSP/radar_mcu4/src/radar_mcu4_bsp.c **** ==============================================================================
  22:../BSP/radar_mcu4/src/radar_mcu4_bsp.c ****    1. INCLUDE FILES
  23:../BSP/radar_mcu4/src/radar_mcu4_bsp.c **** ==============================================================================
  24:../BSP/radar_mcu4/src/radar_mcu4_bsp.c ****  */
  25:../BSP/radar_mcu4/src/radar_mcu4_bsp.c **** 
  26:../BSP/radar_mcu4/src/radar_mcu4_bsp.c **** #include "radar_mcu4_bsp.h"
  27:../BSP/radar_mcu4/src/radar_mcu4_bsp.c **** 
  28:../BSP/radar_mcu4/src/radar_mcu4_bsp.c **** /*
  29:../BSP/radar_mcu4/src/radar_mcu4_bsp.c **** ==============================================================================
  30:../BSP/radar_mcu4/src/radar_mcu4_bsp.c ****    4. DATA
  31:../BSP/radar_mcu4/src/radar_mcu4_bsp.c **** ==============================================================================
  32:../BSP/radar_mcu4/src/radar_mcu4_bsp.c ****  */
  33:../BSP/radar_mcu4/src/radar_mcu4_bsp.c **** 
  34:../BSP/radar_mcu4/src/radar_mcu4_bsp.c **** /* SCL IO: In case of software reset this pin will be used to generate 9 clock cycles */
  35:../BSP/radar_mcu4/src/radar_mcu4_bsp.c **** const DIGITAL_IO_t DIGITAL_IO_EEPROM_SW_RESET =
  36:../BSP/radar_mcu4/src/radar_mcu4_bsp.c **** {
  37:../BSP/radar_mcu4/src/radar_mcu4_bsp.c ****   .gpio_port = XMC_GPIO_PORT4,
  38:../BSP/radar_mcu4/src/radar_mcu4_bsp.c ****   .gpio_pin = 2U,
  39:../BSP/radar_mcu4/src/radar_mcu4_bsp.c ****   .gpio_config = {
  40:../BSP/radar_mcu4/src/radar_mcu4_bsp.c ****     .mode = XMC_GPIO_MODE_OUTPUT_PUSH_PULL,
  41:../BSP/radar_mcu4/src/radar_mcu4_bsp.c ****     .output_level = XMC_GPIO_OUTPUT_LEVEL_LOW,
  42:../BSP/radar_mcu4/src/radar_mcu4_bsp.c **** 
  43:../BSP/radar_mcu4/src/radar_mcu4_bsp.c ****   },
  44:../BSP/radar_mcu4/src/radar_mcu4_bsp.c ****   .hwctrl = XMC_GPIO_HWCTRL_DISABLED
  45:../BSP/radar_mcu4/src/radar_mcu4_bsp.c **** };
  46:../BSP/radar_mcu4/src/radar_mcu4_bsp.c **** 
  47:../BSP/radar_mcu4/src/radar_mcu4_bsp.c **** /*
  48:../BSP/radar_mcu4/src/radar_mcu4_bsp.c **** ==============================================================================
  49:../BSP/radar_mcu4/src/radar_mcu4_bsp.c ****    5. LOCAL FUNCTION PROTOTYPES
  50:../BSP/radar_mcu4/src/radar_mcu4_bsp.c **** ==============================================================================
  51:../BSP/radar_mcu4/src/radar_mcu4_bsp.c ****  */
  52:../BSP/radar_mcu4/src/radar_mcu4_bsp.c **** 
  53:../BSP/radar_mcu4/src/radar_mcu4_bsp.c **** /*
  54:../BSP/radar_mcu4/src/radar_mcu4_bsp.c **** ==============================================================================
  55:../BSP/radar_mcu4/src/radar_mcu4_bsp.c ****    6. EXPORTED FUNCTIONS
  56:../BSP/radar_mcu4/src/radar_mcu4_bsp.c **** ==============================================================================
  57:../BSP/radar_mcu4/src/radar_mcu4_bsp.c ****  */
  58:../BSP/radar_mcu4/src/radar_mcu4_bsp.c **** 
  59:../BSP/radar_mcu4/src/radar_mcu4_bsp.c **** /* Function to write data into EEPROM in case of write operation in multi-page, within more then on
  60:../BSP/radar_mcu4/src/radar_mcu4_bsp.c **** /* ==> For many write operations we have to wait at least 5ms between each operation
  61:../BSP/radar_mcu4/src/radar_mcu4_bsp.c ****        This is needed only for write operation, there is no need to have this delay for the read op
  62:../BSP/radar_mcu4/src/radar_mcu4_bsp.c **** EEPROM_STATUS_t bsp_eeprom_24cw128x_write_data(const uint16_t mem_address, uint8_t *tx_data, uint32
  63:../BSP/radar_mcu4/src/radar_mcu4_bsp.c **** {
  28              	 .loc 1 63 0
  29              	 .cfi_startproc
  30              	 
  31              	 
  32              	.LVL0:
  33 0000 2DE9F047 	 push {r4,r5,r6,r7,r8,r9,r10,lr}
  34              	.LCFI0:
  35              	 .cfi_def_cfa_offset 32
  36              	 .cfi_offset 4,-32
  37              	 .cfi_offset 5,-28
  38              	 .cfi_offset 6,-24
  39              	 .cfi_offset 7,-20
  40              	 .cfi_offset 8,-16
  41              	 .cfi_offset 9,-12
  42              	 .cfi_offset 10,-8
  43              	 .cfi_offset 14,-4
  64:../BSP/radar_mcu4/src/radar_mcu4_bsp.c ****   I2C_MASTER_STATUS_t status = I2C_MASTER_STATUS_FAILURE;
  65:../BSP/radar_mcu4/src/radar_mcu4_bsp.c ****   uint8_t mem_add[2];
  66:../BSP/radar_mcu4/src/radar_mcu4_bsp.c ****   uint32_t nb_of_start_page = 0;  /* The index of start page */
  67:../BSP/radar_mcu4/src/radar_mcu4_bsp.c ****   uint32_t nb_of_end_page = 0;    /* The index of last page */
  68:../BSP/radar_mcu4/src/radar_mcu4_bsp.c ****   uint32_t written_data = 0;
  69:../BSP/radar_mcu4/src/radar_mcu4_bsp.c ****   uint32_t tmp_tx_size = tx_size;
  70:../BSP/radar_mcu4/src/radar_mcu4_bsp.c ****   uint16_t tmp_mem_address = mem_address;
  71:../BSP/radar_mcu4/src/radar_mcu4_bsp.c **** 
  72:../BSP/radar_mcu4/src/radar_mcu4_bsp.c ****   /* Check for valid start address and valid data size */
  73:../BSP/radar_mcu4/src/radar_mcu4_bsp.c ****   if ((tmp_mem_address >= EEPROM_24CW128X_START_MEM_ADDR) &&
  74:../BSP/radar_mcu4/src/radar_mcu4_bsp.c **** 	 ((tmp_mem_address + tmp_tx_size) <= EEPROM_24CW128X_MAX_SIZE) &&
  44              	 .loc 1 74 0
  45 0004 8318     	 adds r3,r0,r2
  73:../BSP/radar_mcu4/src/radar_mcu4_bsp.c **** 	 ((tmp_mem_address + tmp_tx_size) <= EEPROM_24CW128X_MAX_SIZE) &&
  46              	 .loc 1 73 0
  47 0006 B3F5804F 	 cmp r3,#16384
  63:../BSP/radar_mcu4/src/radar_mcu4_bsp.c ****   I2C_MASTER_STATUS_t status = I2C_MASTER_STATUS_FAILURE;
  48              	 .loc 1 63 0
  49 000a 84B0     	 sub sp,sp,#16
  50              	.LCFI1:
  51              	 .cfi_def_cfa_offset 48
  63:../BSP/radar_mcu4/src/radar_mcu4_bsp.c ****   I2C_MASTER_STATUS_t status = I2C_MASTER_STATUS_FAILURE;
  52              	 .loc 1 63 0
  53 000c 0546     	 mov r5,r0
  54 000e 1446     	 mov r4,r2
  55              	.LVL1:
  73:../BSP/radar_mcu4/src/radar_mcu4_bsp.c **** 	 ((tmp_mem_address + tmp_tx_size) <= EEPROM_24CW128X_MAX_SIZE) &&
  56              	 .loc 1 73 0
  57 0010 1CD8     	 bhi .L25
  58              	 .loc 1 74 0
  59 0012 DAB1     	 cbz r2,.L25
  75:../BSP/radar_mcu4/src/radar_mcu4_bsp.c **** 	 (tmp_tx_size > 0))
  76:../BSP/radar_mcu4/src/radar_mcu4_bsp.c ****   {
  77:../BSP/radar_mcu4/src/radar_mcu4_bsp.c **** 	/* The start write address is located in page : */
  78:../BSP/radar_mcu4/src/radar_mcu4_bsp.c **** 	nb_of_start_page = (tmp_mem_address / EEPROM_24CW128X_PAGE_SIZE) + 1;
  79:../BSP/radar_mcu4/src/radar_mcu4_bsp.c **** 
  80:../BSP/radar_mcu4/src/radar_mcu4_bsp.c **** 	/* The last write address is located in page : */
  81:../BSP/radar_mcu4/src/radar_mcu4_bsp.c **** 	nb_of_end_page = ((tmp_mem_address + tmp_tx_size - 1) / EEPROM_24CW128X_PAGE_SIZE) + 1;
  60              	 .loc 1 81 0
  61 0014 013B     	 subs r3,r3,#1
  62 0016 5B09     	 lsrs r3,r3,#5
  78:../BSP/radar_mcu4/src/radar_mcu4_bsp.c **** 
  63              	 .loc 1 78 0
  64 0018 4709     	 lsrs r7,r0,#5
  65              	 .loc 1 81 0
  66 001a 0133     	 adds r3,r3,#1
  78:../BSP/radar_mcu4/src/radar_mcu4_bsp.c **** 
  67              	 .loc 1 78 0
  68 001c 0137     	 adds r7,r7,#1
  69              	.LVL2:
  82:../BSP/radar_mcu4/src/radar_mcu4_bsp.c **** 
  83:../BSP/radar_mcu4/src/radar_mcu4_bsp.c **** 	/* Write operation in multi-page */
  84:../BSP/radar_mcu4/src/radar_mcu4_bsp.c **** 	if ((nb_of_end_page - nb_of_start_page) > 0)
  70              	 .loc 1 84 0
  71 001e BB42     	 cmp r3,r7
  72 0020 8946     	 mov r9,r1
  73 0022 00F0E680 	 beq .L3
  74              	.LVL3:
  85:../BSP/radar_mcu4/src/radar_mcu4_bsp.c **** 	{
  86:../BSP/radar_mcu4/src/radar_mcu4_bsp.c **** 	  /* Write the first part of data */
  87:../BSP/radar_mcu4/src/radar_mcu4_bsp.c **** 	  written_data = (nb_of_start_page * EEPROM_24CW128X_PAGE_SIZE) - tmp_mem_address;
  88:../BSP/radar_mcu4/src/radar_mcu4_bsp.c **** 
  89:../BSP/radar_mcu4/src/radar_mcu4_bsp.c **** 	  /* Write the first chunk of data */
  90:../BSP/radar_mcu4/src/radar_mcu4_bsp.c **** 	  if (written_data > 0)
  75              	 .loc 1 90 0
  76 0026 D0EB4717 	 rsbs r7,r0,r7,lsl#5
  77              	.LVL4:
  78 002a 13D1     	 bne .L48
  64:../BSP/radar_mcu4/src/radar_mcu4_bsp.c ****   uint8_t mem_add[2];
  79              	 .loc 1 64 0
  80 002c 0126     	 movs r6,#1
  81              	.LVL5:
  82              	.L4:
  91:../BSP/radar_mcu4/src/radar_mcu4_bsp.c **** 	  {
  92:../BSP/radar_mcu4/src/radar_mcu4_bsp.c **** 	    /* EEPROM start write address */
  93:../BSP/radar_mcu4/src/radar_mcu4_bsp.c ****         mem_add[0] = (tmp_mem_address & 0x3F00) >> 8;
  94:../BSP/radar_mcu4/src/radar_mcu4_bsp.c ****         mem_add[1] = tmp_mem_address & 0x00FF;
  95:../BSP/radar_mcu4/src/radar_mcu4_bsp.c **** 
  96:../BSP/radar_mcu4/src/radar_mcu4_bsp.c ****         /* Send memory address */
  97:../BSP/radar_mcu4/src/radar_mcu4_bsp.c ****         status = I2C_MASTER_Transmit(&I2C_MASTER_EEPROM, true, EEPROM_24CW128X_I2C_ADDRESS, mem_add
  98:../BSP/radar_mcu4/src/radar_mcu4_bsp.c ****         while(I2C_MASTER_IsTxBusy(&I2C_MASTER_EEPROM));
  99:../BSP/radar_mcu4/src/radar_mcu4_bsp.c **** 
 100:../BSP/radar_mcu4/src/radar_mcu4_bsp.c ****         if (status == I2C_MASTER_STATUS_SUCCESS)
 101:../BSP/radar_mcu4/src/radar_mcu4_bsp.c **** 	    {
 102:../BSP/radar_mcu4/src/radar_mcu4_bsp.c ****           /* Start sending data */
 103:../BSP/radar_mcu4/src/radar_mcu4_bsp.c ****           status = I2C_MASTER_Transmit(&I2C_MASTER_EEPROM, false, EEPROM_24CW128X_I2C_ADDRESS, tx_d
 104:../BSP/radar_mcu4/src/radar_mcu4_bsp.c ****           while(I2C_MASTER_IsTxBusy(&I2C_MASTER_EEPROM));
 105:../BSP/radar_mcu4/src/radar_mcu4_bsp.c **** 
 106:../BSP/radar_mcu4/src/radar_mcu4_bsp.c **** 		  /* Remaining data */
 107:../BSP/radar_mcu4/src/radar_mcu4_bsp.c **** 		  tmp_tx_size = tmp_tx_size - written_data;
 108:../BSP/radar_mcu4/src/radar_mcu4_bsp.c **** 		  tmp_mem_address = tmp_mem_address + written_data;
 109:../BSP/radar_mcu4/src/radar_mcu4_bsp.c **** 
 110:../BSP/radar_mcu4/src/radar_mcu4_bsp.c **** 		  /* Wait for the EEPROM internal write cycle, minimum for 5ms */
 111:../BSP/radar_mcu4/src/radar_mcu4_bsp.c ****           bsp_time_delay(6, BSP_TIMER_DELAY_MILLISECOND);
 112:../BSP/radar_mcu4/src/radar_mcu4_bsp.c **** 		}
 113:../BSP/radar_mcu4/src/radar_mcu4_bsp.c **** 	  }
 114:../BSP/radar_mcu4/src/radar_mcu4_bsp.c **** 
 115:../BSP/radar_mcu4/src/radar_mcu4_bsp.c **** 	  /* Loop for the number of pages to be written */
 116:../BSP/radar_mcu4/src/radar_mcu4_bsp.c **** 	  do
 117:../BSP/radar_mcu4/src/radar_mcu4_bsp.c **** 	  {
 118:../BSP/radar_mcu4/src/radar_mcu4_bsp.c **** 		if (tmp_tx_size >= EEPROM_24CW128X_PAGE_SIZE) /* Write one page data */
 119:../BSP/radar_mcu4/src/radar_mcu4_bsp.c **** 		{
 120:../BSP/radar_mcu4/src/radar_mcu4_bsp.c **** 		  /* EEPROM start write address */
 121:../BSP/radar_mcu4/src/radar_mcu4_bsp.c ****           mem_add[0] = (tmp_mem_address & 0x3F00) >> 8;
 122:../BSP/radar_mcu4/src/radar_mcu4_bsp.c ****           mem_add[1] = tmp_mem_address & 0x00FF;
 123:../BSP/radar_mcu4/src/radar_mcu4_bsp.c **** 
 124:../BSP/radar_mcu4/src/radar_mcu4_bsp.c ****           /* Send memory address */
 125:../BSP/radar_mcu4/src/radar_mcu4_bsp.c ****           status = I2C_MASTER_Transmit(&I2C_MASTER_EEPROM, true, EEPROM_24CW128X_I2C_ADDRESS, mem_a
 126:../BSP/radar_mcu4/src/radar_mcu4_bsp.c ****           while(I2C_MASTER_IsTxBusy(&I2C_MASTER_EEPROM));
 127:../BSP/radar_mcu4/src/radar_mcu4_bsp.c **** 
 128:../BSP/radar_mcu4/src/radar_mcu4_bsp.c ****           if (status == I2C_MASTER_STATUS_SUCCESS)
 129:../BSP/radar_mcu4/src/radar_mcu4_bsp.c **** 	      {
 130:../BSP/radar_mcu4/src/radar_mcu4_bsp.c ****             /* Start sending data */
 131:../BSP/radar_mcu4/src/radar_mcu4_bsp.c ****             status = I2C_MASTER_Transmit(&I2C_MASTER_EEPROM, false, EEPROM_24CW128X_I2C_ADDRESS, (t
 132:../BSP/radar_mcu4/src/radar_mcu4_bsp.c ****             while(I2C_MASTER_IsTxBusy(&I2C_MASTER_EEPROM));
 133:../BSP/radar_mcu4/src/radar_mcu4_bsp.c **** 
 134:../BSP/radar_mcu4/src/radar_mcu4_bsp.c **** 		    /* Remaining data */
 135:../BSP/radar_mcu4/src/radar_mcu4_bsp.c ****             tmp_mem_address = tmp_mem_address + EEPROM_24CW128X_PAGE_SIZE;
 136:../BSP/radar_mcu4/src/radar_mcu4_bsp.c **** 		    tmp_tx_size = tmp_tx_size - EEPROM_24CW128X_PAGE_SIZE;
 137:../BSP/radar_mcu4/src/radar_mcu4_bsp.c **** 			written_data = written_data + EEPROM_24CW128X_PAGE_SIZE;
 138:../BSP/radar_mcu4/src/radar_mcu4_bsp.c **** 
 139:../BSP/radar_mcu4/src/radar_mcu4_bsp.c **** 			/* Wait for the EEPROM internal write cycle, minimum for 5ms */
 140:../BSP/radar_mcu4/src/radar_mcu4_bsp.c **** 			bsp_time_delay(6, BSP_TIMER_DELAY_MILLISECOND);
 141:../BSP/radar_mcu4/src/radar_mcu4_bsp.c **** 		  }
 142:../BSP/radar_mcu4/src/radar_mcu4_bsp.c **** 		}
 143:../BSP/radar_mcu4/src/radar_mcu4_bsp.c **** 		else if ((tmp_tx_size > 0) && (tmp_tx_size < EEPROM_24CW128X_PAGE_SIZE)) /* Write the last chunk 
 144:../BSP/radar_mcu4/src/radar_mcu4_bsp.c **** 		{
 145:../BSP/radar_mcu4/src/radar_mcu4_bsp.c **** 		  /* EEPROM start write address */
 146:../BSP/radar_mcu4/src/radar_mcu4_bsp.c ****           mem_add[0] = (tmp_mem_address & 0x3F00) >> 8;
 147:../BSP/radar_mcu4/src/radar_mcu4_bsp.c ****           mem_add[1] = tmp_mem_address & 0x00FF;
 148:../BSP/radar_mcu4/src/radar_mcu4_bsp.c **** 
 149:../BSP/radar_mcu4/src/radar_mcu4_bsp.c ****           /* Send memory address */
 150:../BSP/radar_mcu4/src/radar_mcu4_bsp.c ****           status = I2C_MASTER_Transmit(&I2C_MASTER_EEPROM, true, EEPROM_24CW128X_I2C_ADDRESS, mem_a
  83              	 .loc 1 150 0
  84 002e DFF83882 	 ldr r8,.L52
  85              	.L8:
  86              	.LVL6:
 118:../BSP/radar_mcu4/src/radar_mcu4_bsp.c **** 		{
  87              	 .loc 1 118 0
  88 0032 1F2C     	 cmp r4,#31
  89 0034 52D8     	 bhi .L49
 143:../BSP/radar_mcu4/src/radar_mcu4_bsp.c **** 		{
  90              	 .loc 1 143 0
  91 0036 631E     	 subs r3,r4,#1
  92 0038 1E2B     	 cmp r3,#30
  93 003a 40F29780 	 bls .L50
  94              	.LVL7:
  95              	.L15:
 151:../BSP/radar_mcu4/src/radar_mcu4_bsp.c ****           while(I2C_MASTER_IsTxBusy(&I2C_MASTER_EEPROM));
 152:../BSP/radar_mcu4/src/radar_mcu4_bsp.c **** 
 153:../BSP/radar_mcu4/src/radar_mcu4_bsp.c ****           if (status == I2C_MASTER_STATUS_SUCCESS)
 154:../BSP/radar_mcu4/src/radar_mcu4_bsp.c **** 	      {
 155:../BSP/radar_mcu4/src/radar_mcu4_bsp.c ****             /* Start sending data */
 156:../BSP/radar_mcu4/src/radar_mcu4_bsp.c ****             status = I2C_MASTER_Transmit(&I2C_MASTER_EEPROM, false, EEPROM_24CW128X_I2C_ADDRESS, (v
 157:../BSP/radar_mcu4/src/radar_mcu4_bsp.c ****             while(I2C_MASTER_IsTxBusy(&I2C_MASTER_EEPROM));
 158:../BSP/radar_mcu4/src/radar_mcu4_bsp.c **** 
 159:../BSP/radar_mcu4/src/radar_mcu4_bsp.c **** 		    /* No remaining data */
 160:../BSP/radar_mcu4/src/radar_mcu4_bsp.c **** 		    tmp_tx_size = 0;
 161:../BSP/radar_mcu4/src/radar_mcu4_bsp.c **** 
 162:../BSP/radar_mcu4/src/radar_mcu4_bsp.c **** 			/* Wait for the EEPROM internal write cycle, minimum for 5ms */
 163:../BSP/radar_mcu4/src/radar_mcu4_bsp.c **** 		    bsp_time_delay(6, BSP_TIMER_DELAY_MILLISECOND);
 164:../BSP/radar_mcu4/src/radar_mcu4_bsp.c **** 		  }
 165:../BSP/radar_mcu4/src/radar_mcu4_bsp.c **** 		}
 166:../BSP/radar_mcu4/src/radar_mcu4_bsp.c **** 	  }while(tmp_tx_size > 0);
 167:../BSP/radar_mcu4/src/radar_mcu4_bsp.c **** 	}
 168:../BSP/radar_mcu4/src/radar_mcu4_bsp.c **** 	else /* Write operation within the same page */
 169:../BSP/radar_mcu4/src/radar_mcu4_bsp.c **** 	{
 170:../BSP/radar_mcu4/src/radar_mcu4_bsp.c **** 	  /* EEPROM start write address */
 171:../BSP/radar_mcu4/src/radar_mcu4_bsp.c ****       mem_add[0] = (mem_address & 0x3F00) >> 8;
 172:../BSP/radar_mcu4/src/radar_mcu4_bsp.c ****       mem_add[1] = mem_address & 0x00FF;
 173:../BSP/radar_mcu4/src/radar_mcu4_bsp.c **** 
 174:../BSP/radar_mcu4/src/radar_mcu4_bsp.c ****       /* Send memory address */
 175:../BSP/radar_mcu4/src/radar_mcu4_bsp.c ****       status = I2C_MASTER_Transmit(&I2C_MASTER_EEPROM, true, EEPROM_24CW128X_I2C_ADDRESS, mem_add, 
 176:../BSP/radar_mcu4/src/radar_mcu4_bsp.c ****       while(I2C_MASTER_IsTxBusy(&I2C_MASTER_EEPROM));
 177:../BSP/radar_mcu4/src/radar_mcu4_bsp.c **** 
 178:../BSP/radar_mcu4/src/radar_mcu4_bsp.c ****       if (status == I2C_MASTER_STATUS_SUCCESS)
 179:../BSP/radar_mcu4/src/radar_mcu4_bsp.c **** 	  {
 180:../BSP/radar_mcu4/src/radar_mcu4_bsp.c ****         /* Start sending data */
 181:../BSP/radar_mcu4/src/radar_mcu4_bsp.c ****         status = I2C_MASTER_Transmit(&I2C_MASTER_EEPROM, false, EEPROM_24CW128X_I2C_ADDRESS, (void*
 182:../BSP/radar_mcu4/src/radar_mcu4_bsp.c ****         while(I2C_MASTER_IsTxBusy(&I2C_MASTER_EEPROM));
 183:../BSP/radar_mcu4/src/radar_mcu4_bsp.c ****       }
 184:../BSP/radar_mcu4/src/radar_mcu4_bsp.c **** 
 185:../BSP/radar_mcu4/src/radar_mcu4_bsp.c **** 	  /* Wait for the EEPROM internal write cycle, minimum for 5ms */
 186:../BSP/radar_mcu4/src/radar_mcu4_bsp.c ****       bsp_time_delay(6, BSP_TIMER_DELAY_MILLISECOND);
 187:../BSP/radar_mcu4/src/radar_mcu4_bsp.c **** 	}
 188:../BSP/radar_mcu4/src/radar_mcu4_bsp.c ****   }
 189:../BSP/radar_mcu4/src/radar_mcu4_bsp.c **** 
 190:../BSP/radar_mcu4/src/radar_mcu4_bsp.c ****   if (status == I2C_MASTER_STATUS_SUCCESS)
 191:../BSP/radar_mcu4/src/radar_mcu4_bsp.c ****   {
 192:../BSP/radar_mcu4/src/radar_mcu4_bsp.c ****     return EEPROM_STATUS_SUCCESS;
 193:../BSP/radar_mcu4/src/radar_mcu4_bsp.c ****   }
 194:../BSP/radar_mcu4/src/radar_mcu4_bsp.c ****   else
 195:../BSP/radar_mcu4/src/radar_mcu4_bsp.c ****   {
 196:../BSP/radar_mcu4/src/radar_mcu4_bsp.c ****     return EEPROM_STATUS_WRITE_ERROR;
  96              	 .loc 1 196 0
  97 003e 002E     	 cmp r6,#0
  98 0040 0CBF     	 ite eq
  99 0042 0120     	 moveq r0,#1
 100 0044 0420     	 movne r0,#4
 197:../BSP/radar_mcu4/src/radar_mcu4_bsp.c ****   }
 198:../BSP/radar_mcu4/src/radar_mcu4_bsp.c **** }
 101              	 .loc 1 198 0
 102 0046 04B0     	 add sp,sp,#16
 103              	.LCFI2:
 104              	 .cfi_remember_state
 105              	 .cfi_def_cfa_offset 32
 106              	 
 107 0048 BDE8F087 	 pop {r4,r5,r6,r7,r8,r9,r10,pc}
 108              	.LVL8:
 109              	.L25:
 110              	.LCFI3:
 111              	 .cfi_restore_state
 196:../BSP/radar_mcu4/src/radar_mcu4_bsp.c ****   }
 112              	 .loc 1 196 0
 113 004c 0420     	 movs r0,#4
 114              	.LVL9:
 115              	 .loc 1 198 0
 116 004e 04B0     	 add sp,sp,#16
 117              	.LCFI4:
 118              	 .cfi_remember_state
 119              	 .cfi_def_cfa_offset 32
 120              	 
 121 0050 BDE8F087 	 pop {r4,r5,r6,r7,r8,r9,r10,pc}
 122              	.LVL10:
 123              	.L48:
 124              	.LCFI5:
 125              	 .cfi_restore_state
  97:../BSP/radar_mcu4/src/radar_mcu4_bsp.c ****         while(I2C_MASTER_IsTxBusy(&I2C_MASTER_EEPROM));
 126              	 .loc 1 97 0
 127 0054 DFF810A2 	 ldr r10,.L52
  94:../BSP/radar_mcu4/src/radar_mcu4_bsp.c **** 
 128              	 .loc 1 94 0
 129 0058 8DF80D00 	 strb r0,[sp,#13]
  97:../BSP/radar_mcu4/src/radar_mcu4_bsp.c ****         while(I2C_MASTER_IsTxBusy(&I2C_MASTER_EEPROM));
 130              	 .loc 1 97 0
 131 005c 0222     	 movs r2,#2
 132              	.LVL11:
 133 005e 0023     	 movs r3,#0
 134 0060 8DE80C00 	 stmia sp,{r2,r3}
  93:../BSP/radar_mcu4/src/radar_mcu4_bsp.c ****         mem_add[1] = tmp_mem_address & 0x00FF;
 135              	 .loc 1 93 0
 136 0064 C5F30526 	 ubfx r6,r5,#8,#6
  97:../BSP/radar_mcu4/src/radar_mcu4_bsp.c ****         while(I2C_MASTER_IsTxBusy(&I2C_MASTER_EEPROM));
 137              	 .loc 1 97 0
 138 0068 A022     	 movs r2,#160
 139 006a 5046     	 mov r0,r10
 140              	.LVL12:
 141 006c 0121     	 movs r1,#1
 142              	.LVL13:
 143 006e 03AB     	 add r3,sp,#12
  93:../BSP/radar_mcu4/src/radar_mcu4_bsp.c ****         mem_add[1] = tmp_mem_address & 0x00FF;
 144              	 .loc 1 93 0
 145 0070 8DF80C60 	 strb r6,[sp,#12]
  97:../BSP/radar_mcu4/src/radar_mcu4_bsp.c ****         while(I2C_MASTER_IsTxBusy(&I2C_MASTER_EEPROM));
 146              	 .loc 1 97 0
 147 0074 FFF7FEFF 	 bl I2C_MASTER_Transmit
 148              	.LVL14:
 149 0078 DAF80820 	 ldr r2,[r10,#8]
 150 007c 0646     	 mov r6,r0
 151              	.LVL15:
 152              	.L5:
 153              	.LBB119:
 154              	.LBB120:
 155              	 .file 2 "C:/Users/Utente/Desktop/Tesi/Firmware_Software/DAVE project/S2GLP_Pulsed_Doppler/Dave/Generated/I2C_MASTER/i2c_master.h"
   1:C:/Users/Utente/Desktop/Tesi/Firmware_Software/DAVE project/S2GLP_Pulsed_Doppler/Dave/Generated/I2C_MASTER\i2c_master.h **** /**
   2:C:/Users/Utente/Desktop/Tesi/Firmware_Software/DAVE project/S2GLP_Pulsed_Doppler/Dave/Generated/I2C_MASTER\i2c_master.h ****  * @file i2c_master.h
   3:C:/Users/Utente/Desktop/Tesi/Firmware_Software/DAVE project/S2GLP_Pulsed_Doppler/Dave/Generated/I2C_MASTER\i2c_master.h ****  * @date 2017-12-20
   4:C:/Users/Utente/Desktop/Tesi/Firmware_Software/DAVE project/S2GLP_Pulsed_Doppler/Dave/Generated/I2C_MASTER\i2c_master.h ****  *
   5:C:/Users/Utente/Desktop/Tesi/Firmware_Software/DAVE project/S2GLP_Pulsed_Doppler/Dave/Generated/I2C_MASTER\i2c_master.h ****  * NOTE:
   6:C:/Users/Utente/Desktop/Tesi/Firmware_Software/DAVE project/S2GLP_Pulsed_Doppler/Dave/Generated/I2C_MASTER\i2c_master.h ****  * This file is generated by DAVE. Any manual modification done to this file will be lost when the 
   7:C:/Users/Utente/Desktop/Tesi/Firmware_Software/DAVE project/S2GLP_Pulsed_Doppler/Dave/Generated/I2C_MASTER\i2c_master.h ****  * regenerated.
   8:C:/Users/Utente/Desktop/Tesi/Firmware_Software/DAVE project/S2GLP_Pulsed_Doppler/Dave/Generated/I2C_MASTER\i2c_master.h ****  */
   9:C:/Users/Utente/Desktop/Tesi/Firmware_Software/DAVE project/S2GLP_Pulsed_Doppler/Dave/Generated/I2C_MASTER\i2c_master.h **** /**
  10:C:/Users/Utente/Desktop/Tesi/Firmware_Software/DAVE project/S2GLP_Pulsed_Doppler/Dave/Generated/I2C_MASTER\i2c_master.h ****  * @cond
  11:C:/Users/Utente/Desktop/Tesi/Firmware_Software/DAVE project/S2GLP_Pulsed_Doppler/Dave/Generated/I2C_MASTER\i2c_master.h ****  **************************************************************************************************
  12:C:/Users/Utente/Desktop/Tesi/Firmware_Software/DAVE project/S2GLP_Pulsed_Doppler/Dave/Generated/I2C_MASTER\i2c_master.h ****  * I2C_MASTER v4.1.28 Configures USIC channel to transmit & receive data using I2C protocol.
  13:C:/Users/Utente/Desktop/Tesi/Firmware_Software/DAVE project/S2GLP_Pulsed_Doppler/Dave/Generated/I2C_MASTER\i2c_master.h ****  *
  14:C:/Users/Utente/Desktop/Tesi/Firmware_Software/DAVE project/S2GLP_Pulsed_Doppler/Dave/Generated/I2C_MASTER\i2c_master.h ****  * Copyright (c) 2015-2018, Infineon Technologies AG
  15:C:/Users/Utente/Desktop/Tesi/Firmware_Software/DAVE project/S2GLP_Pulsed_Doppler/Dave/Generated/I2C_MASTER\i2c_master.h ****  * All rights reserved.
  16:C:/Users/Utente/Desktop/Tesi/Firmware_Software/DAVE project/S2GLP_Pulsed_Doppler/Dave/Generated/I2C_MASTER\i2c_master.h ****  *
  17:C:/Users/Utente/Desktop/Tesi/Firmware_Software/DAVE project/S2GLP_Pulsed_Doppler/Dave/Generated/I2C_MASTER\i2c_master.h ****  * Redistribution and use in source and binary forms, with or without modification,are permitted pr
  18:C:/Users/Utente/Desktop/Tesi/Firmware_Software/DAVE project/S2GLP_Pulsed_Doppler/Dave/Generated/I2C_MASTER\i2c_master.h ****  * following conditions are met:
  19:C:/Users/Utente/Desktop/Tesi/Firmware_Software/DAVE project/S2GLP_Pulsed_Doppler/Dave/Generated/I2C_MASTER\i2c_master.h ****  *
  20:C:/Users/Utente/Desktop/Tesi/Firmware_Software/DAVE project/S2GLP_Pulsed_Doppler/Dave/Generated/I2C_MASTER\i2c_master.h ****  * Redistributions of source code must retain the above copyright notice, this list of conditions a
  21:C:/Users/Utente/Desktop/Tesi/Firmware_Software/DAVE project/S2GLP_Pulsed_Doppler/Dave/Generated/I2C_MASTER\i2c_master.h ****  * disclaimer.
  22:C:/Users/Utente/Desktop/Tesi/Firmware_Software/DAVE project/S2GLP_Pulsed_Doppler/Dave/Generated/I2C_MASTER\i2c_master.h ****  *
  23:C:/Users/Utente/Desktop/Tesi/Firmware_Software/DAVE project/S2GLP_Pulsed_Doppler/Dave/Generated/I2C_MASTER\i2c_master.h ****  * Redistributions in binary form must reproduce the above copyright notice, this list of condition
  24:C:/Users/Utente/Desktop/Tesi/Firmware_Software/DAVE project/S2GLP_Pulsed_Doppler/Dave/Generated/I2C_MASTER\i2c_master.h ****  * following disclaimer in the documentation and/or other materials provided with the distribution.
  25:C:/Users/Utente/Desktop/Tesi/Firmware_Software/DAVE project/S2GLP_Pulsed_Doppler/Dave/Generated/I2C_MASTER\i2c_master.h ****  *
  26:C:/Users/Utente/Desktop/Tesi/Firmware_Software/DAVE project/S2GLP_Pulsed_Doppler/Dave/Generated/I2C_MASTER\i2c_master.h ****  * Neither the name of the copyright holders nor the names of its contributors may be used to endor
  27:C:/Users/Utente/Desktop/Tesi/Firmware_Software/DAVE project/S2GLP_Pulsed_Doppler/Dave/Generated/I2C_MASTER\i2c_master.h ****  * products derived from this software without specific prior written permission.
  28:C:/Users/Utente/Desktop/Tesi/Firmware_Software/DAVE project/S2GLP_Pulsed_Doppler/Dave/Generated/I2C_MASTER\i2c_master.h ****  *
  29:C:/Users/Utente/Desktop/Tesi/Firmware_Software/DAVE project/S2GLP_Pulsed_Doppler/Dave/Generated/I2C_MASTER\i2c_master.h ****  * THIS SOFTWARE IS PROVIDED BY THE COPYRIGHT HOLDERS AND CONTRIBUTORS "AS IS" AND ANY EXPRESS OR I
  30:C:/Users/Utente/Desktop/Tesi/Firmware_Software/DAVE project/S2GLP_Pulsed_Doppler/Dave/Generated/I2C_MASTER\i2c_master.h ****  * INCLUDING, BUT NOT LIMITED TO, THE IMPLIED WARRANTIES OF MERCHANTABILITY AND FITNESS FOR A PARTI
  31:C:/Users/Utente/Desktop/Tesi/Firmware_Software/DAVE project/S2GLP_Pulsed_Doppler/Dave/Generated/I2C_MASTER\i2c_master.h ****  * DISCLAIMED. IN NO EVENT SHALL THE COPYRIGHT HOLDER OR CONTRIBUTORS BE LIABLE  FOR ANY DIRECT, IN
  32:C:/Users/Utente/Desktop/Tesi/Firmware_Software/DAVE project/S2GLP_Pulsed_Doppler/Dave/Generated/I2C_MASTER\i2c_master.h ****  * SPECIAL, EXEMPLARY, OR CONSEQUENTIAL DAMAGES (INCLUDING, BUT NOT LIMITED TO, PROCUREMENT OF SUBS
  33:C:/Users/Utente/Desktop/Tesi/Firmware_Software/DAVE project/S2GLP_Pulsed_Doppler/Dave/Generated/I2C_MASTER\i2c_master.h ****  * SERVICES; LOSS OF USE, DATA, OR PROFITS; OR BUSINESS INTERRUPTION) HOWEVER CAUSED AND ON ANY THE
  34:C:/Users/Utente/Desktop/Tesi/Firmware_Software/DAVE project/S2GLP_Pulsed_Doppler/Dave/Generated/I2C_MASTER\i2c_master.h ****  * WHETHER IN CONTRACT, STRICT LIABILITY,OR TORT (INCLUDING NEGLIGENCE OR OTHERWISE) ARISING IN ANY
  35:C:/Users/Utente/Desktop/Tesi/Firmware_Software/DAVE project/S2GLP_Pulsed_Doppler/Dave/Generated/I2C_MASTER\i2c_master.h ****  * USE OF THIS SOFTWARE, EVEN IF ADVISED OF THE POSSIBILITY OF SUCH DAMAGE.
  36:C:/Users/Utente/Desktop/Tesi/Firmware_Software/DAVE project/S2GLP_Pulsed_Doppler/Dave/Generated/I2C_MASTER\i2c_master.h ****  *
  37:C:/Users/Utente/Desktop/Tesi/Firmware_Software/DAVE project/S2GLP_Pulsed_Doppler/Dave/Generated/I2C_MASTER\i2c_master.h ****  * To improve the quality of the software, users are encouraged to share modifications, enhancement
  38:C:/Users/Utente/Desktop/Tesi/Firmware_Software/DAVE project/S2GLP_Pulsed_Doppler/Dave/Generated/I2C_MASTER\i2c_master.h ****  * with Infineon Technologies AG (dave@infineon.com).
  39:C:/Users/Utente/Desktop/Tesi/Firmware_Software/DAVE project/S2GLP_Pulsed_Doppler/Dave/Generated/I2C_MASTER\i2c_master.h ****  **************************************************************************************************
  40:C:/Users/Utente/Desktop/Tesi/Firmware_Software/DAVE project/S2GLP_Pulsed_Doppler/Dave/Generated/I2C_MASTER\i2c_master.h ****  *
  41:C:/Users/Utente/Desktop/Tesi/Firmware_Software/DAVE project/S2GLP_Pulsed_Doppler/Dave/Generated/I2C_MASTER\i2c_master.h ****  * Change History
  42:C:/Users/Utente/Desktop/Tesi/Firmware_Software/DAVE project/S2GLP_Pulsed_Doppler/Dave/Generated/I2C_MASTER\i2c_master.h ****  * --------------
  43:C:/Users/Utente/Desktop/Tesi/Firmware_Software/DAVE project/S2GLP_Pulsed_Doppler/Dave/Generated/I2C_MASTER\i2c_master.h ****  *
  44:C:/Users/Utente/Desktop/Tesi/Firmware_Software/DAVE project/S2GLP_Pulsed_Doppler/Dave/Generated/I2C_MASTER\i2c_master.h ****  * 2015-02-16:
  45:C:/Users/Utente/Desktop/Tesi/Firmware_Software/DAVE project/S2GLP_Pulsed_Doppler/Dave/Generated/I2C_MASTER\i2c_master.h ****  *     - Initial version<br>
  46:C:/Users/Utente/Desktop/Tesi/Firmware_Software/DAVE project/S2GLP_Pulsed_Doppler/Dave/Generated/I2C_MASTER\i2c_master.h ****  *
  47:C:/Users/Utente/Desktop/Tesi/Firmware_Software/DAVE project/S2GLP_Pulsed_Doppler/Dave/Generated/I2C_MASTER\i2c_master.h ****  * 2015-06-10:
  48:C:/Users/Utente/Desktop/Tesi/Firmware_Software/DAVE project/S2GLP_Pulsed_Doppler/Dave/Generated/I2C_MASTER\i2c_master.h ****  *     - AbortTransmit and AbortReceive API return type modified. <br>
  49:C:/Users/Utente/Desktop/Tesi/Firmware_Software/DAVE project/S2GLP_Pulsed_Doppler/Dave/Generated/I2C_MASTER\i2c_master.h ****  *
  50:C:/Users/Utente/Desktop/Tesi/Firmware_Software/DAVE project/S2GLP_Pulsed_Doppler/Dave/Generated/I2C_MASTER\i2c_master.h ****  * 2015-08-31:
  51:C:/Users/Utente/Desktop/Tesi/Firmware_Software/DAVE project/S2GLP_Pulsed_Doppler/Dave/Generated/I2C_MASTER\i2c_master.h ****  *     - DMA support APIs added
  52:C:/Users/Utente/Desktop/Tesi/Firmware_Software/DAVE project/S2GLP_Pulsed_Doppler/Dave/Generated/I2C_MASTER\i2c_master.h ****  * 2015-10-20:
  53:C:/Users/Utente/Desktop/Tesi/Firmware_Software/DAVE project/S2GLP_Pulsed_Doppler/Dave/Generated/I2C_MASTER\i2c_master.h ****  *     - Code snippets updated
  54:C:/Users/Utente/Desktop/Tesi/Firmware_Software/DAVE project/S2GLP_Pulsed_Doppler/Dave/Generated/I2C_MASTER\i2c_master.h ****  * 2016-08-18:
  55:C:/Users/Utente/Desktop/Tesi/Firmware_Software/DAVE project/S2GLP_Pulsed_Doppler/Dave/Generated/I2C_MASTER\i2c_master.h ****  *     - Documentation of slave address formatting improved.
  56:C:/Users/Utente/Desktop/Tesi/Firmware_Software/DAVE project/S2GLP_Pulsed_Doppler/Dave/Generated/I2C_MASTER\i2c_master.h ****  * 2017-11-17:
  57:C:/Users/Utente/Desktop/Tesi/Firmware_Software/DAVE project/S2GLP_Pulsed_Doppler/Dave/Generated/I2C_MASTER\i2c_master.h ****  *     - Added tx_irqn and rx_irqn to I2C_MASTER_CONFIG_t
  58:C:/Users/Utente/Desktop/Tesi/Firmware_Software/DAVE project/S2GLP_Pulsed_Doppler/Dave/Generated/I2C_MASTER\i2c_master.h ****  * 2017-12-20:
  59:C:/Users/Utente/Desktop/Tesi/Firmware_Software/DAVE project/S2GLP_Pulsed_Doppler/Dave/Generated/I2C_MASTER\i2c_master.h ****  *     - Added I2C_MASTER_FlushTxFifo(), I2C_MASTER_FlushRxFifo(), I2C_MASTER_DisableOutputs(), I2C
  60:C:/Users/Utente/Desktop/Tesi/Firmware_Software/DAVE project/S2GLP_Pulsed_Doppler/Dave/Generated/I2C_MASTER\i2c_master.h ****  *
  61:C:/Users/Utente/Desktop/Tesi/Firmware_Software/DAVE project/S2GLP_Pulsed_Doppler/Dave/Generated/I2C_MASTER\i2c_master.h ****  * @endcond
  62:C:/Users/Utente/Desktop/Tesi/Firmware_Software/DAVE project/S2GLP_Pulsed_Doppler/Dave/Generated/I2C_MASTER\i2c_master.h ****  *
  63:C:/Users/Utente/Desktop/Tesi/Firmware_Software/DAVE project/S2GLP_Pulsed_Doppler/Dave/Generated/I2C_MASTER\i2c_master.h ****  */
  64:C:/Users/Utente/Desktop/Tesi/Firmware_Software/DAVE project/S2GLP_Pulsed_Doppler/Dave/Generated/I2C_MASTER\i2c_master.h **** 
  65:C:/Users/Utente/Desktop/Tesi/Firmware_Software/DAVE project/S2GLP_Pulsed_Doppler/Dave/Generated/I2C_MASTER\i2c_master.h **** #ifndef I2C_MASTER_H
  66:C:/Users/Utente/Desktop/Tesi/Firmware_Software/DAVE project/S2GLP_Pulsed_Doppler/Dave/Generated/I2C_MASTER\i2c_master.h **** #define I2C_MASTER_H
  67:C:/Users/Utente/Desktop/Tesi/Firmware_Software/DAVE project/S2GLP_Pulsed_Doppler/Dave/Generated/I2C_MASTER\i2c_master.h **** 
  68:C:/Users/Utente/Desktop/Tesi/Firmware_Software/DAVE project/S2GLP_Pulsed_Doppler/Dave/Generated/I2C_MASTER\i2c_master.h **** 
  69:C:/Users/Utente/Desktop/Tesi/Firmware_Software/DAVE project/S2GLP_Pulsed_Doppler/Dave/Generated/I2C_MASTER\i2c_master.h **** 
  70:C:/Users/Utente/Desktop/Tesi/Firmware_Software/DAVE project/S2GLP_Pulsed_Doppler/Dave/Generated/I2C_MASTER\i2c_master.h **** /**************************************************************************************************
  71:C:/Users/Utente/Desktop/Tesi/Firmware_Software/DAVE project/S2GLP_Pulsed_Doppler/Dave/Generated/I2C_MASTER\i2c_master.h ****  * HEADER FILES
  72:C:/Users/Utente/Desktop/Tesi/Firmware_Software/DAVE project/S2GLP_Pulsed_Doppler/Dave/Generated/I2C_MASTER\i2c_master.h ****  **************************************************************************************************
  73:C:/Users/Utente/Desktop/Tesi/Firmware_Software/DAVE project/S2GLP_Pulsed_Doppler/Dave/Generated/I2C_MASTER\i2c_master.h **** #include <xmc_gpio.h>
  74:C:/Users/Utente/Desktop/Tesi/Firmware_Software/DAVE project/S2GLP_Pulsed_Doppler/Dave/Generated/I2C_MASTER\i2c_master.h **** #include <xmc_i2c.h>
  75:C:/Users/Utente/Desktop/Tesi/Firmware_Software/DAVE project/S2GLP_Pulsed_Doppler/Dave/Generated/I2C_MASTER\i2c_master.h **** #include "i2c_master_conf.h"
  76:C:/Users/Utente/Desktop/Tesi/Firmware_Software/DAVE project/S2GLP_Pulsed_Doppler/Dave/Generated/I2C_MASTER\i2c_master.h **** 
  77:C:/Users/Utente/Desktop/Tesi/Firmware_Software/DAVE project/S2GLP_Pulsed_Doppler/Dave/Generated/I2C_MASTER\i2c_master.h **** #if(UC_FAMILY == XMC4)
  78:C:/Users/Utente/Desktop/Tesi/Firmware_Software/DAVE project/S2GLP_Pulsed_Doppler/Dave/Generated/I2C_MASTER\i2c_master.h **** #if ((I2C_MASTER_DMA_TX_ENABLED == 1) || (I2C_MASTER_DMA_RX_ENABLED == 1))
  79:C:/Users/Utente/Desktop/Tesi/Firmware_Software/DAVE project/S2GLP_Pulsed_Doppler/Dave/Generated/I2C_MASTER\i2c_master.h **** #include "GLOBAL_DMA/global_dma.h"
  80:C:/Users/Utente/Desktop/Tesi/Firmware_Software/DAVE project/S2GLP_Pulsed_Doppler/Dave/Generated/I2C_MASTER\i2c_master.h **** #endif
  81:C:/Users/Utente/Desktop/Tesi/Firmware_Software/DAVE project/S2GLP_Pulsed_Doppler/Dave/Generated/I2C_MASTER\i2c_master.h **** #endif
  82:C:/Users/Utente/Desktop/Tesi/Firmware_Software/DAVE project/S2GLP_Pulsed_Doppler/Dave/Generated/I2C_MASTER\i2c_master.h **** 
  83:C:/Users/Utente/Desktop/Tesi/Firmware_Software/DAVE project/S2GLP_Pulsed_Doppler/Dave/Generated/I2C_MASTER\i2c_master.h **** #include <DAVE_Common.h>
  84:C:/Users/Utente/Desktop/Tesi/Firmware_Software/DAVE project/S2GLP_Pulsed_Doppler/Dave/Generated/I2C_MASTER\i2c_master.h **** 
  85:C:/Users/Utente/Desktop/Tesi/Firmware_Software/DAVE project/S2GLP_Pulsed_Doppler/Dave/Generated/I2C_MASTER\i2c_master.h **** 
  86:C:/Users/Utente/Desktop/Tesi/Firmware_Software/DAVE project/S2GLP_Pulsed_Doppler/Dave/Generated/I2C_MASTER\i2c_master.h **** typedef void(*i2c_master_fptr_cbhandler)(void);
  87:C:/Users/Utente/Desktop/Tesi/Firmware_Software/DAVE project/S2GLP_Pulsed_Doppler/Dave/Generated/I2C_MASTER\i2c_master.h **** 
  88:C:/Users/Utente/Desktop/Tesi/Firmware_Software/DAVE project/S2GLP_Pulsed_Doppler/Dave/Generated/I2C_MASTER\i2c_master.h **** /**************************************************************************************************
  89:C:/Users/Utente/Desktop/Tesi/Firmware_Software/DAVE project/S2GLP_Pulsed_Doppler/Dave/Generated/I2C_MASTER\i2c_master.h ****  * MACROS
  90:C:/Users/Utente/Desktop/Tesi/Firmware_Software/DAVE project/S2GLP_Pulsed_Doppler/Dave/Generated/I2C_MASTER\i2c_master.h ****  **************************************************************************************************
  91:C:/Users/Utente/Desktop/Tesi/Firmware_Software/DAVE project/S2GLP_Pulsed_Doppler/Dave/Generated/I2C_MASTER\i2c_master.h **** #if (!((XMC_LIB_MAJOR_VERSION == 2U) && \
  92:C:/Users/Utente/Desktop/Tesi/Firmware_Software/DAVE project/S2GLP_Pulsed_Doppler/Dave/Generated/I2C_MASTER\i2c_master.h ****        (XMC_LIB_MINOR_VERSION >= 0U) && \
  93:C:/Users/Utente/Desktop/Tesi/Firmware_Software/DAVE project/S2GLP_Pulsed_Doppler/Dave/Generated/I2C_MASTER\i2c_master.h ****        (XMC_LIB_PATCH_VERSION >= 0U)))
  94:C:/Users/Utente/Desktop/Tesi/Firmware_Software/DAVE project/S2GLP_Pulsed_Doppler/Dave/Generated/I2C_MASTER\i2c_master.h **** #error "I2C_MASTER requires XMC Peripheral Library v2.0.0 or higher"
  95:C:/Users/Utente/Desktop/Tesi/Firmware_Software/DAVE project/S2GLP_Pulsed_Doppler/Dave/Generated/I2C_MASTER\i2c_master.h **** #endif
  96:C:/Users/Utente/Desktop/Tesi/Firmware_Software/DAVE project/S2GLP_Pulsed_Doppler/Dave/Generated/I2C_MASTER\i2c_master.h **** 
  97:C:/Users/Utente/Desktop/Tesi/Firmware_Software/DAVE project/S2GLP_Pulsed_Doppler/Dave/Generated/I2C_MASTER\i2c_master.h **** /**************************************************************************************************
  98:C:/Users/Utente/Desktop/Tesi/Firmware_Software/DAVE project/S2GLP_Pulsed_Doppler/Dave/Generated/I2C_MASTER\i2c_master.h ****  * ENUMS
  99:C:/Users/Utente/Desktop/Tesi/Firmware_Software/DAVE project/S2GLP_Pulsed_Doppler/Dave/Generated/I2C_MASTER\i2c_master.h ****  **************************************************************************************************
 100:C:/Users/Utente/Desktop/Tesi/Firmware_Software/DAVE project/S2GLP_Pulsed_Doppler/Dave/Generated/I2C_MASTER\i2c_master.h **** /**
 101:C:/Users/Utente/Desktop/Tesi/Firmware_Software/DAVE project/S2GLP_Pulsed_Doppler/Dave/Generated/I2C_MASTER\i2c_master.h ****  * @ingroup I2C_MASTER_enumerations
 102:C:/Users/Utente/Desktop/Tesi/Firmware_Software/DAVE project/S2GLP_Pulsed_Doppler/Dave/Generated/I2C_MASTER\i2c_master.h ****  * @{
 103:C:/Users/Utente/Desktop/Tesi/Firmware_Software/DAVE project/S2GLP_Pulsed_Doppler/Dave/Generated/I2C_MASTER\i2c_master.h ****  */
 104:C:/Users/Utente/Desktop/Tesi/Firmware_Software/DAVE project/S2GLP_Pulsed_Doppler/Dave/Generated/I2C_MASTER\i2c_master.h **** /**
 105:C:/Users/Utente/Desktop/Tesi/Firmware_Software/DAVE project/S2GLP_Pulsed_Doppler/Dave/Generated/I2C_MASTER\i2c_master.h ****  * Initialization status.
 106:C:/Users/Utente/Desktop/Tesi/Firmware_Software/DAVE project/S2GLP_Pulsed_Doppler/Dave/Generated/I2C_MASTER\i2c_master.h ****  */
 107:C:/Users/Utente/Desktop/Tesi/Firmware_Software/DAVE project/S2GLP_Pulsed_Doppler/Dave/Generated/I2C_MASTER\i2c_master.h **** typedef enum I2C_MASTER_STATUS
 108:C:/Users/Utente/Desktop/Tesi/Firmware_Software/DAVE project/S2GLP_Pulsed_Doppler/Dave/Generated/I2C_MASTER\i2c_master.h **** {
 109:C:/Users/Utente/Desktop/Tesi/Firmware_Software/DAVE project/S2GLP_Pulsed_Doppler/Dave/Generated/I2C_MASTER\i2c_master.h ****   I2C_MASTER_STATUS_SUCCESS = 0U,           /*!< I2C_MASTER SUCCESS */
 110:C:/Users/Utente/Desktop/Tesi/Firmware_Software/DAVE project/S2GLP_Pulsed_Doppler/Dave/Generated/I2C_MASTER\i2c_master.h ****   I2C_MASTER_STATUS_FAILURE = 1U,           /*!< I2C_MASTER FAILURE */
 111:C:/Users/Utente/Desktop/Tesi/Firmware_Software/DAVE project/S2GLP_Pulsed_Doppler/Dave/Generated/I2C_MASTER\i2c_master.h ****   I2C_MASTER_STATUS_BUSY = 2U,              /*!< I2C_MASTER BUSY */
 112:C:/Users/Utente/Desktop/Tesi/Firmware_Software/DAVE project/S2GLP_Pulsed_Doppler/Dave/Generated/I2C_MASTER\i2c_master.h ****   I2C_MASTER_STATUS_UNSUPPORTED_MODE = 3U   /*!< I2C_MASTER UNSUPPORTED MODE */
 113:C:/Users/Utente/Desktop/Tesi/Firmware_Software/DAVE project/S2GLP_Pulsed_Doppler/Dave/Generated/I2C_MASTER\i2c_master.h **** } I2C_MASTER_STATUS_t;
 114:C:/Users/Utente/Desktop/Tesi/Firmware_Software/DAVE project/S2GLP_Pulsed_Doppler/Dave/Generated/I2C_MASTER\i2c_master.h **** 
 115:C:/Users/Utente/Desktop/Tesi/Firmware_Software/DAVE project/S2GLP_Pulsed_Doppler/Dave/Generated/I2C_MASTER\i2c_master.h **** /**
 116:C:/Users/Utente/Desktop/Tesi/Firmware_Software/DAVE project/S2GLP_Pulsed_Doppler/Dave/Generated/I2C_MASTER\i2c_master.h ****  * Direction
 117:C:/Users/Utente/Desktop/Tesi/Firmware_Software/DAVE project/S2GLP_Pulsed_Doppler/Dave/Generated/I2C_MASTER\i2c_master.h ****  */
 118:C:/Users/Utente/Desktop/Tesi/Firmware_Software/DAVE project/S2GLP_Pulsed_Doppler/Dave/Generated/I2C_MASTER\i2c_master.h **** typedef enum I2C_MASTER_DIRECTION
 119:C:/Users/Utente/Desktop/Tesi/Firmware_Software/DAVE project/S2GLP_Pulsed_Doppler/Dave/Generated/I2C_MASTER\i2c_master.h **** {
 120:C:/Users/Utente/Desktop/Tesi/Firmware_Software/DAVE project/S2GLP_Pulsed_Doppler/Dave/Generated/I2C_MASTER\i2c_master.h ****   I2C_MASTER_DIRECTION_TRANSMIT = 0U,   /*!< Direction indicates transmit */
 121:C:/Users/Utente/Desktop/Tesi/Firmware_Software/DAVE project/S2GLP_Pulsed_Doppler/Dave/Generated/I2C_MASTER\i2c_master.h ****   I2C_MASTER_DIRECTION_RECEIVE = 1U     /*!< Direction indicates receive */
 122:C:/Users/Utente/Desktop/Tesi/Firmware_Software/DAVE project/S2GLP_Pulsed_Doppler/Dave/Generated/I2C_MASTER\i2c_master.h **** } I2C_MASTER_DIRECTION_t;
 123:C:/Users/Utente/Desktop/Tesi/Firmware_Software/DAVE project/S2GLP_Pulsed_Doppler/Dave/Generated/I2C_MASTER\i2c_master.h **** 
 124:C:/Users/Utente/Desktop/Tesi/Firmware_Software/DAVE project/S2GLP_Pulsed_Doppler/Dave/Generated/I2C_MASTER\i2c_master.h **** /**
 125:C:/Users/Utente/Desktop/Tesi/Firmware_Software/DAVE project/S2GLP_Pulsed_Doppler/Dave/Generated/I2C_MASTER\i2c_master.h ****  * @brief Enum used to identify the transfer type used for either transmit or receive function.
 126:C:/Users/Utente/Desktop/Tesi/Firmware_Software/DAVE project/S2GLP_Pulsed_Doppler/Dave/Generated/I2C_MASTER\i2c_master.h ****  */
 127:C:/Users/Utente/Desktop/Tesi/Firmware_Software/DAVE project/S2GLP_Pulsed_Doppler/Dave/Generated/I2C_MASTER\i2c_master.h **** typedef enum I2C_MASTER_TRANSFER_MODE
 128:C:/Users/Utente/Desktop/Tesi/Firmware_Software/DAVE project/S2GLP_Pulsed_Doppler/Dave/Generated/I2C_MASTER\i2c_master.h **** {
 129:C:/Users/Utente/Desktop/Tesi/Firmware_Software/DAVE project/S2GLP_Pulsed_Doppler/Dave/Generated/I2C_MASTER\i2c_master.h ****   I2C_MASTER_TRANSFER_MODE_INTERRUPT,  /**< Implement data transmit or receive using interrupts */
 130:C:/Users/Utente/Desktop/Tesi/Firmware_Software/DAVE project/S2GLP_Pulsed_Doppler/Dave/Generated/I2C_MASTER\i2c_master.h ****   I2C_MASTER_TRANSFER_MODE_DMA,        /**< Implement data transmit or receive using DMA */
 131:C:/Users/Utente/Desktop/Tesi/Firmware_Software/DAVE project/S2GLP_Pulsed_Doppler/Dave/Generated/I2C_MASTER\i2c_master.h ****   I2C_MASTER_TRANSFER_MODE_DIRECT      /**< This configuration exposes signals for external APP con
 132:C:/Users/Utente/Desktop/Tesi/Firmware_Software/DAVE project/S2GLP_Pulsed_Doppler/Dave/Generated/I2C_MASTER\i2c_master.h **** } I2C_MASTER_TRANSFER_MODE_t;
 133:C:/Users/Utente/Desktop/Tesi/Firmware_Software/DAVE project/S2GLP_Pulsed_Doppler/Dave/Generated/I2C_MASTER\i2c_master.h **** /**
 134:C:/Users/Utente/Desktop/Tesi/Firmware_Software/DAVE project/S2GLP_Pulsed_Doppler/Dave/Generated/I2C_MASTER\i2c_master.h ****  * @}
 135:C:/Users/Utente/Desktop/Tesi/Firmware_Software/DAVE project/S2GLP_Pulsed_Doppler/Dave/Generated/I2C_MASTER\i2c_master.h ****  */
 136:C:/Users/Utente/Desktop/Tesi/Firmware_Software/DAVE project/S2GLP_Pulsed_Doppler/Dave/Generated/I2C_MASTER\i2c_master.h **** /**************************************************************************************************
 137:C:/Users/Utente/Desktop/Tesi/Firmware_Software/DAVE project/S2GLP_Pulsed_Doppler/Dave/Generated/I2C_MASTER\i2c_master.h **** * DATA STRUCTURES
 138:C:/Users/Utente/Desktop/Tesi/Firmware_Software/DAVE project/S2GLP_Pulsed_Doppler/Dave/Generated/I2C_MASTER\i2c_master.h **** ***************************************************************************************************
 139:C:/Users/Utente/Desktop/Tesi/Firmware_Software/DAVE project/S2GLP_Pulsed_Doppler/Dave/Generated/I2C_MASTER\i2c_master.h **** 
 140:C:/Users/Utente/Desktop/Tesi/Firmware_Software/DAVE project/S2GLP_Pulsed_Doppler/Dave/Generated/I2C_MASTER\i2c_master.h **** /**
 141:C:/Users/Utente/Desktop/Tesi/Firmware_Software/DAVE project/S2GLP_Pulsed_Doppler/Dave/Generated/I2C_MASTER\i2c_master.h ****  * @ingroup I2C_MASTER_datastructures
 142:C:/Users/Utente/Desktop/Tesi/Firmware_Software/DAVE project/S2GLP_Pulsed_Doppler/Dave/Generated/I2C_MASTER\i2c_master.h ****  * @{
 143:C:/Users/Utente/Desktop/Tesi/Firmware_Software/DAVE project/S2GLP_Pulsed_Doppler/Dave/Generated/I2C_MASTER\i2c_master.h ****  */
 144:C:/Users/Utente/Desktop/Tesi/Firmware_Software/DAVE project/S2GLP_Pulsed_Doppler/Dave/Generated/I2C_MASTER\i2c_master.h **** /**
 145:C:/Users/Utente/Desktop/Tesi/Firmware_Software/DAVE project/S2GLP_Pulsed_Doppler/Dave/Generated/I2C_MASTER\i2c_master.h ****  * @brief Structure for DMA configuration.
 146:C:/Users/Utente/Desktop/Tesi/Firmware_Software/DAVE project/S2GLP_Pulsed_Doppler/Dave/Generated/I2C_MASTER\i2c_master.h ****  */
 147:C:/Users/Utente/Desktop/Tesi/Firmware_Software/DAVE project/S2GLP_Pulsed_Doppler/Dave/Generated/I2C_MASTER\i2c_master.h **** #if ((I2C_MASTER_DMA_TX_ENABLED == 1) || (I2C_MASTER_DMA_RX_ENABLED == 1))
 148:C:/Users/Utente/Desktop/Tesi/Firmware_Software/DAVE project/S2GLP_Pulsed_Doppler/Dave/Generated/I2C_MASTER\i2c_master.h **** typedef struct I2C_MASTER_DMA_CONFIG
 149:C:/Users/Utente/Desktop/Tesi/Firmware_Software/DAVE project/S2GLP_Pulsed_Doppler/Dave/Generated/I2C_MASTER\i2c_master.h **** {
 150:C:/Users/Utente/Desktop/Tesi/Firmware_Software/DAVE project/S2GLP_Pulsed_Doppler/Dave/Generated/I2C_MASTER\i2c_master.h ****   const XMC_DMA_CH_CONFIG_t * dma_ch_config;   /**< Pointer to the DMA channel configuration.*/
 151:C:/Users/Utente/Desktop/Tesi/Firmware_Software/DAVE project/S2GLP_Pulsed_Doppler/Dave/Generated/I2C_MASTER\i2c_master.h ****   GLOBAL_DMA_t * global_dma;                   /**< Global DMA handle */
 152:C:/Users/Utente/Desktop/Tesi/Firmware_Software/DAVE project/S2GLP_Pulsed_Doppler/Dave/Generated/I2C_MASTER\i2c_master.h ****   uint8_t dma_channel;                         /**< DMA channel number */
 153:C:/Users/Utente/Desktop/Tesi/Firmware_Software/DAVE project/S2GLP_Pulsed_Doppler/Dave/Generated/I2C_MASTER\i2c_master.h **** } I2C_MASTER_DMA_CONFIG_t;
 154:C:/Users/Utente/Desktop/Tesi/Firmware_Software/DAVE project/S2GLP_Pulsed_Doppler/Dave/Generated/I2C_MASTER\i2c_master.h **** #endif
 155:C:/Users/Utente/Desktop/Tesi/Firmware_Software/DAVE project/S2GLP_Pulsed_Doppler/Dave/Generated/I2C_MASTER\i2c_master.h **** /**
 156:C:/Users/Utente/Desktop/Tesi/Firmware_Software/DAVE project/S2GLP_Pulsed_Doppler/Dave/Generated/I2C_MASTER\i2c_master.h ****  * @brief Constant structure for holding the configuration parameters of I2C channel.
 157:C:/Users/Utente/Desktop/Tesi/Firmware_Software/DAVE project/S2GLP_Pulsed_Doppler/Dave/Generated/I2C_MASTER\i2c_master.h ****  */
 158:C:/Users/Utente/Desktop/Tesi/Firmware_Software/DAVE project/S2GLP_Pulsed_Doppler/Dave/Generated/I2C_MASTER\i2c_master.h **** typedef struct I2C_MASTER_CONFIG
 159:C:/Users/Utente/Desktop/Tesi/Firmware_Software/DAVE project/S2GLP_Pulsed_Doppler/Dave/Generated/I2C_MASTER\i2c_master.h **** {
 160:C:/Users/Utente/Desktop/Tesi/Firmware_Software/DAVE project/S2GLP_Pulsed_Doppler/Dave/Generated/I2C_MASTER\i2c_master.h ****    const XMC_I2C_CH_CONFIG_t *brg_config;             /*!< Basic I2C configuration from the GUI wit
 161:C:/Users/Utente/Desktop/Tesi/Firmware_Software/DAVE project/S2GLP_Pulsed_Doppler/Dave/Generated/I2C_MASTER\i2c_master.h **** #if (I2C_MASTER_DMA_TX_ENABLED == 1)
 162:C:/Users/Utente/Desktop/Tesi/Firmware_Software/DAVE project/S2GLP_Pulsed_Doppler/Dave/Generated/I2C_MASTER\i2c_master.h ****    const I2C_MASTER_DMA_CONFIG_t * const transmit_dma_config; /**< Pointer to the DMA channel confi
 163:C:/Users/Utente/Desktop/Tesi/Firmware_Software/DAVE project/S2GLP_Pulsed_Doppler/Dave/Generated/I2C_MASTER\i2c_master.h ****                                                                    data transmission.*/
 164:C:/Users/Utente/Desktop/Tesi/Firmware_Software/DAVE project/S2GLP_Pulsed_Doppler/Dave/Generated/I2C_MASTER\i2c_master.h **** #endif
 165:C:/Users/Utente/Desktop/Tesi/Firmware_Software/DAVE project/S2GLP_Pulsed_Doppler/Dave/Generated/I2C_MASTER\i2c_master.h **** #if (I2C_MASTER_DMA_RX_ENABLED == 1)
 166:C:/Users/Utente/Desktop/Tesi/Firmware_Software/DAVE project/S2GLP_Pulsed_Doppler/Dave/Generated/I2C_MASTER\i2c_master.h ****    const I2C_MASTER_DMA_CONFIG_t * const receive_dma_config;  /**< Pointer to the DMA channel confi
 167:C:/Users/Utente/Desktop/Tesi/Firmware_Software/DAVE project/S2GLP_Pulsed_Doppler/Dave/Generated/I2C_MASTER\i2c_master.h ****                                                                    data reception.*/
 168:C:/Users/Utente/Desktop/Tesi/Firmware_Software/DAVE project/S2GLP_Pulsed_Doppler/Dave/Generated/I2C_MASTER\i2c_master.h **** #endif
 169:C:/Users/Utente/Desktop/Tesi/Firmware_Software/DAVE project/S2GLP_Pulsed_Doppler/Dave/Generated/I2C_MASTER\i2c_master.h ****    i2c_master_fptr_cbhandler fptr_i2c_config;         /*!< Function pointer to configure the MUX va
 170:C:/Users/Utente/Desktop/Tesi/Firmware_Software/DAVE project/S2GLP_Pulsed_Doppler/Dave/Generated/I2C_MASTER\i2c_master.h ****    i2c_master_fptr_cbhandler fptr_i2c_enable_io;      /*!< Function pointer to enable SDA/SCL outpu
 171:C:/Users/Utente/Desktop/Tesi/Firmware_Software/DAVE project/S2GLP_Pulsed_Doppler/Dave/Generated/I2C_MASTER\i2c_master.h ****    i2c_master_fptr_cbhandler fptr_i2c_disable_io;     /*!< Function pointer to disable SDA/SCL outp
 172:C:/Users/Utente/Desktop/Tesi/Firmware_Software/DAVE project/S2GLP_Pulsed_Doppler/Dave/Generated/I2C_MASTER\i2c_master.h **** 
 173:C:/Users/Utente/Desktop/Tesi/Firmware_Software/DAVE project/S2GLP_Pulsed_Doppler/Dave/Generated/I2C_MASTER\i2c_master.h ****    i2c_master_fptr_cbhandler tx_cbhandler;            /*!< Function pointer to hold the callback fu
 174:C:/Users/Utente/Desktop/Tesi/Firmware_Software/DAVE project/S2GLP_Pulsed_Doppler/Dave/Generated/I2C_MASTER\i2c_master.h ****                                                            called when the transmission is complete
 175:C:/Users/Utente/Desktop/Tesi/Firmware_Software/DAVE project/S2GLP_Pulsed_Doppler/Dave/Generated/I2C_MASTER\i2c_master.h ****    i2c_master_fptr_cbhandler rx_cbhandler;            /*!< Function pointer to hold the callback fu
 176:C:/Users/Utente/Desktop/Tesi/Firmware_Software/DAVE project/S2GLP_Pulsed_Doppler/Dave/Generated/I2C_MASTER\i2c_master.h ****                                                            called when the reception is complete*/
 177:C:/Users/Utente/Desktop/Tesi/Firmware_Software/DAVE project/S2GLP_Pulsed_Doppler/Dave/Generated/I2C_MASTER\i2c_master.h ****    i2c_master_fptr_cbhandler nack_cbhandler;          /*!< Function pointer to hold the callback fu
 178:C:/Users/Utente/Desktop/Tesi/Firmware_Software/DAVE project/S2GLP_Pulsed_Doppler/Dave/Generated/I2C_MASTER\i2c_master.h ****                                                            called when nack is received*/
 179:C:/Users/Utente/Desktop/Tesi/Firmware_Software/DAVE project/S2GLP_Pulsed_Doppler/Dave/Generated/I2C_MASTER\i2c_master.h ****    i2c_master_fptr_cbhandler arbitration_cbhandler;   /*!< Function pointer to hold the callback fu
 180:C:/Users/Utente/Desktop/Tesi/Firmware_Software/DAVE project/S2GLP_Pulsed_Doppler/Dave/Generated/I2C_MASTER\i2c_master.h ****                                                            called when arbitration lost is occured*
 181:C:/Users/Utente/Desktop/Tesi/Firmware_Software/DAVE project/S2GLP_Pulsed_Doppler/Dave/Generated/I2C_MASTER\i2c_master.h ****    i2c_master_fptr_cbhandler error_cbhandler;         /*!< Function pointer to hold the callback fu
 182:C:/Users/Utente/Desktop/Tesi/Firmware_Software/DAVE project/S2GLP_Pulsed_Doppler/Dave/Generated/I2C_MASTER\i2c_master.h ****                                                            called when error is detected.*/
 183:C:/Users/Utente/Desktop/Tesi/Firmware_Software/DAVE project/S2GLP_Pulsed_Doppler/Dave/Generated/I2C_MASTER\i2c_master.h ****    I2C_MASTER_TRANSFER_MODE_t transmit_mode;          /**< Mode used for transmitting data. Data ca
 184:C:/Users/Utente/Desktop/Tesi/Firmware_Software/DAVE project/S2GLP_Pulsed_Doppler/Dave/Generated/I2C_MASTER\i2c_master.h ****                                                            interrupt, DMA or direct(using polling o
 185:C:/Users/Utente/Desktop/Tesi/Firmware_Software/DAVE project/S2GLP_Pulsed_Doppler/Dave/Generated/I2C_MASTER\i2c_master.h ****    I2C_MASTER_TRANSFER_MODE_t receive_mode;           /**< Mode used for receiving data. Data can b
 186:C:/Users/Utente/Desktop/Tesi/Firmware_Software/DAVE project/S2GLP_Pulsed_Doppler/Dave/Generated/I2C_MASTER\i2c_master.h ****                                                            interrupt, DMA or direct(using polling o
 187:C:/Users/Utente/Desktop/Tesi/Firmware_Software/DAVE project/S2GLP_Pulsed_Doppler/Dave/Generated/I2C_MASTER\i2c_master.h **** 
 188:C:/Users/Utente/Desktop/Tesi/Firmware_Software/DAVE project/S2GLP_Pulsed_Doppler/Dave/Generated/I2C_MASTER\i2c_master.h ****    XMC_USIC_CH_FIFO_SIZE_t txFIFO_size;               /*!< TxFIFO size configuration*/
 189:C:/Users/Utente/Desktop/Tesi/Firmware_Software/DAVE project/S2GLP_Pulsed_Doppler/Dave/Generated/I2C_MASTER\i2c_master.h ****    XMC_USIC_CH_FIFO_SIZE_t rxFIFO_size;               /*!< RxFIFO size configuration*/
 190:C:/Users/Utente/Desktop/Tesi/Firmware_Software/DAVE project/S2GLP_Pulsed_Doppler/Dave/Generated/I2C_MASTER\i2c_master.h **** 
 191:C:/Users/Utente/Desktop/Tesi/Firmware_Software/DAVE project/S2GLP_Pulsed_Doppler/Dave/Generated/I2C_MASTER\i2c_master.h ****    IRQn_Type tx_irqn;
 192:C:/Users/Utente/Desktop/Tesi/Firmware_Software/DAVE project/S2GLP_Pulsed_Doppler/Dave/Generated/I2C_MASTER\i2c_master.h ****    IRQn_Type rx_irqn; 
 193:C:/Users/Utente/Desktop/Tesi/Firmware_Software/DAVE project/S2GLP_Pulsed_Doppler/Dave/Generated/I2C_MASTER\i2c_master.h **** } I2C_MASTER_CONFIG_t;
 194:C:/Users/Utente/Desktop/Tesi/Firmware_Software/DAVE project/S2GLP_Pulsed_Doppler/Dave/Generated/I2C_MASTER\i2c_master.h **** 
 195:C:/Users/Utente/Desktop/Tesi/Firmware_Software/DAVE project/S2GLP_Pulsed_Doppler/Dave/Generated/I2C_MASTER\i2c_master.h **** /**
 196:C:/Users/Utente/Desktop/Tesi/Firmware_Software/DAVE project/S2GLP_Pulsed_Doppler/Dave/Generated/I2C_MASTER\i2c_master.h ****  * @brief Structure to hold the dynamic variables for the I2C_MASTER communication.
 197:C:/Users/Utente/Desktop/Tesi/Firmware_Software/DAVE project/S2GLP_Pulsed_Doppler/Dave/Generated/I2C_MASTER\i2c_master.h ****  */
 198:C:/Users/Utente/Desktop/Tesi/Firmware_Software/DAVE project/S2GLP_Pulsed_Doppler/Dave/Generated/I2C_MASTER\i2c_master.h **** typedef struct I2C_MASTER_RUNTIME
 199:C:/Users/Utente/Desktop/Tesi/Firmware_Software/DAVE project/S2GLP_Pulsed_Doppler/Dave/Generated/I2C_MASTER\i2c_master.h **** {
 200:C:/Users/Utente/Desktop/Tesi/Firmware_Software/DAVE project/S2GLP_Pulsed_Doppler/Dave/Generated/I2C_MASTER\i2c_master.h ****   uint8_t * tx_data;                     /*!< Pointer to the transmit data buffer*/
 201:C:/Users/Utente/Desktop/Tesi/Firmware_Software/DAVE project/S2GLP_Pulsed_Doppler/Dave/Generated/I2C_MASTER\i2c_master.h ****   uint8_t * rx_data;                     /*!< Pointer to the receive data buffer*/
 202:C:/Users/Utente/Desktop/Tesi/Firmware_Software/DAVE project/S2GLP_Pulsed_Doppler/Dave/Generated/I2C_MASTER\i2c_master.h ****   uint32_t tx_data_count;                /*!< Number of bytes of data to be transmitted*/
 203:C:/Users/Utente/Desktop/Tesi/Firmware_Software/DAVE project/S2GLP_Pulsed_Doppler/Dave/Generated/I2C_MASTER\i2c_master.h ****   volatile uint32_t tx_data_index;       /*!< Index to the byte to be transmitted next in the tx_da
 204:C:/Users/Utente/Desktop/Tesi/Firmware_Software/DAVE project/S2GLP_Pulsed_Doppler/Dave/Generated/I2C_MASTER\i2c_master.h ****   uint32_t rx_data_count;                /*!< Number of bytes of data to be received*/
 205:C:/Users/Utente/Desktop/Tesi/Firmware_Software/DAVE project/S2GLP_Pulsed_Doppler/Dave/Generated/I2C_MASTER\i2c_master.h **** #if (I2C_MASTER_DMA_RX_ENABLED == 1)
 206:C:/Users/Utente/Desktop/Tesi/Firmware_Software/DAVE project/S2GLP_Pulsed_Doppler/Dave/Generated/I2C_MASTER\i2c_master.h ****   uint32_t rx_dma_data_count;            /*!< Number of bytes of data to be received-DMA mode*/
 207:C:/Users/Utente/Desktop/Tesi/Firmware_Software/DAVE project/S2GLP_Pulsed_Doppler/Dave/Generated/I2C_MASTER\i2c_master.h ****   uint32_t rx_dma_data_index;            /*!< Index of bytes of data to be received-DMA mode*/
 208:C:/Users/Utente/Desktop/Tesi/Firmware_Software/DAVE project/S2GLP_Pulsed_Doppler/Dave/Generated/I2C_MASTER\i2c_master.h **** #endif
 209:C:/Users/Utente/Desktop/Tesi/Firmware_Software/DAVE project/S2GLP_Pulsed_Doppler/Dave/Generated/I2C_MASTER\i2c_master.h ****   volatile uint32_t rx_data_index;       /*!< Indicates the number of bytes currently available in 
 210:C:/Users/Utente/Desktop/Tesi/Firmware_Software/DAVE project/S2GLP_Pulsed_Doppler/Dave/Generated/I2C_MASTER\i2c_master.h ****   volatile uint32_t direction;           /*!< Indicates TRANSMIT/RECEIVE */
 211:C:/Users/Utente/Desktop/Tesi/Firmware_Software/DAVE project/S2GLP_Pulsed_Doppler/Dave/Generated/I2C_MASTER\i2c_master.h ****   uint32_t send_stop;                    /*!< Indicates to stop the I2C */
 212:C:/Users/Utente/Desktop/Tesi/Firmware_Software/DAVE project/S2GLP_Pulsed_Doppler/Dave/Generated/I2C_MASTER\i2c_master.h ****   uint32_t send_nack;                    /*!< Indicates to send nack */
 213:C:/Users/Utente/Desktop/Tesi/Firmware_Software/DAVE project/S2GLP_Pulsed_Doppler/Dave/Generated/I2C_MASTER\i2c_master.h ****   uint8_t tx_ack_sr;                         /*!< Service request number assigned to transmit inter
 214:C:/Users/Utente/Desktop/Tesi/Firmware_Software/DAVE project/S2GLP_Pulsed_Doppler/Dave/Generated/I2C_MASTER\i2c_master.h ****   uint8_t rx_sr;                         /*!< Service request number assigned to receive interrupts
 215:C:/Users/Utente/Desktop/Tesi/Firmware_Software/DAVE project/S2GLP_Pulsed_Doppler/Dave/Generated/I2C_MASTER\i2c_master.h ****   volatile bool tx_busy;                 /*!< Status flag to indicate busy when a transmission is a
 216:C:/Users/Utente/Desktop/Tesi/Firmware_Software/DAVE project/S2GLP_Pulsed_Doppler/Dave/Generated/I2C_MASTER\i2c_master.h ****   volatile bool rx_busy;                 /*!< Status flag to indicate busy when a reception is assi
 217:C:/Users/Utente/Desktop/Tesi/Firmware_Software/DAVE project/S2GLP_Pulsed_Doppler/Dave/Generated/I2C_MASTER\i2c_master.h ****   volatile bool bus_acquired;            /*!< flag to indicate whether bus is acquired or not */
 218:C:/Users/Utente/Desktop/Tesi/Firmware_Software/DAVE project/S2GLP_Pulsed_Doppler/Dave/Generated/I2C_MASTER\i2c_master.h **** } I2C_MASTER_RUNTIME_t;
 219:C:/Users/Utente/Desktop/Tesi/Firmware_Software/DAVE project/S2GLP_Pulsed_Doppler/Dave/Generated/I2C_MASTER\i2c_master.h **** 
 220:C:/Users/Utente/Desktop/Tesi/Firmware_Software/DAVE project/S2GLP_Pulsed_Doppler/Dave/Generated/I2C_MASTER\i2c_master.h **** 
 221:C:/Users/Utente/Desktop/Tesi/Firmware_Software/DAVE project/S2GLP_Pulsed_Doppler/Dave/Generated/I2C_MASTER\i2c_master.h **** /**
 222:C:/Users/Utente/Desktop/Tesi/Firmware_Software/DAVE project/S2GLP_Pulsed_Doppler/Dave/Generated/I2C_MASTER\i2c_master.h ****  * @brief Handler structure with pointers to dynamic and static parameters.
 223:C:/Users/Utente/Desktop/Tesi/Firmware_Software/DAVE project/S2GLP_Pulsed_Doppler/Dave/Generated/I2C_MASTER\i2c_master.h ****  */
 224:C:/Users/Utente/Desktop/Tesi/Firmware_Software/DAVE project/S2GLP_Pulsed_Doppler/Dave/Generated/I2C_MASTER\i2c_master.h **** typedef struct I2C_MASTER
 225:C:/Users/Utente/Desktop/Tesi/Firmware_Software/DAVE project/S2GLP_Pulsed_Doppler/Dave/Generated/I2C_MASTER\i2c_master.h **** {
 226:C:/Users/Utente/Desktop/Tesi/Firmware_Software/DAVE project/S2GLP_Pulsed_Doppler/Dave/Generated/I2C_MASTER\i2c_master.h ****   XMC_USIC_CH_t *channel;                    /*!< USIC channel*/
 227:C:/Users/Utente/Desktop/Tesi/Firmware_Software/DAVE project/S2GLP_Pulsed_Doppler/Dave/Generated/I2C_MASTER\i2c_master.h ****   const I2C_MASTER_CONFIG_t * const config;  /*!< I2C configuration structure pointer*/
 228:C:/Users/Utente/Desktop/Tesi/Firmware_Software/DAVE project/S2GLP_Pulsed_Doppler/Dave/Generated/I2C_MASTER\i2c_master.h ****   I2C_MASTER_RUNTIME_t * const runtime;      /*!< Pointer to the structure holding all variables,
 229:C:/Users/Utente/Desktop/Tesi/Firmware_Software/DAVE project/S2GLP_Pulsed_Doppler/Dave/Generated/I2C_MASTER\i2c_master.h ****    	                                               that can change at runtime*/
 230:C:/Users/Utente/Desktop/Tesi/Firmware_Software/DAVE project/S2GLP_Pulsed_Doppler/Dave/Generated/I2C_MASTER\i2c_master.h **** } I2C_MASTER_t;
 231:C:/Users/Utente/Desktop/Tesi/Firmware_Software/DAVE project/S2GLP_Pulsed_Doppler/Dave/Generated/I2C_MASTER\i2c_master.h **** 
 232:C:/Users/Utente/Desktop/Tesi/Firmware_Software/DAVE project/S2GLP_Pulsed_Doppler/Dave/Generated/I2C_MASTER\i2c_master.h **** /**
 233:C:/Users/Utente/Desktop/Tesi/Firmware_Software/DAVE project/S2GLP_Pulsed_Doppler/Dave/Generated/I2C_MASTER\i2c_master.h ****  * @}
 234:C:/Users/Utente/Desktop/Tesi/Firmware_Software/DAVE project/S2GLP_Pulsed_Doppler/Dave/Generated/I2C_MASTER\i2c_master.h ****  */
 235:C:/Users/Utente/Desktop/Tesi/Firmware_Software/DAVE project/S2GLP_Pulsed_Doppler/Dave/Generated/I2C_MASTER\i2c_master.h **** 
 236:C:/Users/Utente/Desktop/Tesi/Firmware_Software/DAVE project/S2GLP_Pulsed_Doppler/Dave/Generated/I2C_MASTER\i2c_master.h **** #ifdef __cplusplus
 237:C:/Users/Utente/Desktop/Tesi/Firmware_Software/DAVE project/S2GLP_Pulsed_Doppler/Dave/Generated/I2C_MASTER\i2c_master.h **** extern "C" {
 238:C:/Users/Utente/Desktop/Tesi/Firmware_Software/DAVE project/S2GLP_Pulsed_Doppler/Dave/Generated/I2C_MASTER\i2c_master.h **** #endif
 239:C:/Users/Utente/Desktop/Tesi/Firmware_Software/DAVE project/S2GLP_Pulsed_Doppler/Dave/Generated/I2C_MASTER\i2c_master.h **** 
 240:C:/Users/Utente/Desktop/Tesi/Firmware_Software/DAVE project/S2GLP_Pulsed_Doppler/Dave/Generated/I2C_MASTER\i2c_master.h **** 
 241:C:/Users/Utente/Desktop/Tesi/Firmware_Software/DAVE project/S2GLP_Pulsed_Doppler/Dave/Generated/I2C_MASTER\i2c_master.h **** /**
 242:C:/Users/Utente/Desktop/Tesi/Firmware_Software/DAVE project/S2GLP_Pulsed_Doppler/Dave/Generated/I2C_MASTER\i2c_master.h ****  * @ingroup I2C_MASTER_apidoc
 243:C:/Users/Utente/Desktop/Tesi/Firmware_Software/DAVE project/S2GLP_Pulsed_Doppler/Dave/Generated/I2C_MASTER\i2c_master.h ****  * @{
 244:C:/Users/Utente/Desktop/Tesi/Firmware_Software/DAVE project/S2GLP_Pulsed_Doppler/Dave/Generated/I2C_MASTER\i2c_master.h ****  */
 245:C:/Users/Utente/Desktop/Tesi/Firmware_Software/DAVE project/S2GLP_Pulsed_Doppler/Dave/Generated/I2C_MASTER\i2c_master.h **** 
 246:C:/Users/Utente/Desktop/Tesi/Firmware_Software/DAVE project/S2GLP_Pulsed_Doppler/Dave/Generated/I2C_MASTER\i2c_master.h **** /**************************************************************************************************
 247:C:/Users/Utente/Desktop/Tesi/Firmware_Software/DAVE project/S2GLP_Pulsed_Doppler/Dave/Generated/I2C_MASTER\i2c_master.h ****  * API PROTOTYPES
 248:C:/Users/Utente/Desktop/Tesi/Firmware_Software/DAVE project/S2GLP_Pulsed_Doppler/Dave/Generated/I2C_MASTER\i2c_master.h ****  **************************************************************************************************
 249:C:/Users/Utente/Desktop/Tesi/Firmware_Software/DAVE project/S2GLP_Pulsed_Doppler/Dave/Generated/I2C_MASTER\i2c_master.h **** /**
 250:C:/Users/Utente/Desktop/Tesi/Firmware_Software/DAVE project/S2GLP_Pulsed_Doppler/Dave/Generated/I2C_MASTER\i2c_master.h ****  * @brief Get I2C_MASTER APP version.
 251:C:/Users/Utente/Desktop/Tesi/Firmware_Software/DAVE project/S2GLP_Pulsed_Doppler/Dave/Generated/I2C_MASTER\i2c_master.h ****  * @return \a DAVE_APP_VERSION_t APP version information (major, minor and patch number)
 252:C:/Users/Utente/Desktop/Tesi/Firmware_Software/DAVE project/S2GLP_Pulsed_Doppler/Dave/Generated/I2C_MASTER\i2c_master.h ****  *
 253:C:/Users/Utente/Desktop/Tesi/Firmware_Software/DAVE project/S2GLP_Pulsed_Doppler/Dave/Generated/I2C_MASTER\i2c_master.h ****  * \par<b>Description: </b><br>
 254:C:/Users/Utente/Desktop/Tesi/Firmware_Software/DAVE project/S2GLP_Pulsed_Doppler/Dave/Generated/I2C_MASTER\i2c_master.h ****  * The function can be used to check application software compatibility with a
 255:C:/Users/Utente/Desktop/Tesi/Firmware_Software/DAVE project/S2GLP_Pulsed_Doppler/Dave/Generated/I2C_MASTER\i2c_master.h ****  * specific version of the APP.
 256:C:/Users/Utente/Desktop/Tesi/Firmware_Software/DAVE project/S2GLP_Pulsed_Doppler/Dave/Generated/I2C_MASTER\i2c_master.h ****  *
 257:C:/Users/Utente/Desktop/Tesi/Firmware_Software/DAVE project/S2GLP_Pulsed_Doppler/Dave/Generated/I2C_MASTER\i2c_master.h ****  * @code
 258:C:/Users/Utente/Desktop/Tesi/Firmware_Software/DAVE project/S2GLP_Pulsed_Doppler/Dave/Generated/I2C_MASTER\i2c_master.h ****  *  #include <DAVE.h>
 259:C:/Users/Utente/Desktop/Tesi/Firmware_Software/DAVE project/S2GLP_Pulsed_Doppler/Dave/Generated/I2C_MASTER\i2c_master.h ****  *
 260:C:/Users/Utente/Desktop/Tesi/Firmware_Software/DAVE project/S2GLP_Pulsed_Doppler/Dave/Generated/I2C_MASTER\i2c_master.h ****  *  int main(void)
 261:C:/Users/Utente/Desktop/Tesi/Firmware_Software/DAVE project/S2GLP_Pulsed_Doppler/Dave/Generated/I2C_MASTER\i2c_master.h ****  *  {
 262:C:/Users/Utente/Desktop/Tesi/Firmware_Software/DAVE project/S2GLP_Pulsed_Doppler/Dave/Generated/I2C_MASTER\i2c_master.h ****  *    DAVE_APP_VERSION_t version;
 263:C:/Users/Utente/Desktop/Tesi/Firmware_Software/DAVE project/S2GLP_Pulsed_Doppler/Dave/Generated/I2C_MASTER\i2c_master.h ****  *    DAVE_Init();
 264:C:/Users/Utente/Desktop/Tesi/Firmware_Software/DAVE project/S2GLP_Pulsed_Doppler/Dave/Generated/I2C_MASTER\i2c_master.h ****  *    version = I2C_MASTER_GetAppVersion();
 265:C:/Users/Utente/Desktop/Tesi/Firmware_Software/DAVE project/S2GLP_Pulsed_Doppler/Dave/Generated/I2C_MASTER\i2c_master.h ****  *    if(version.major != 4U)
 266:C:/Users/Utente/Desktop/Tesi/Firmware_Software/DAVE project/S2GLP_Pulsed_Doppler/Dave/Generated/I2C_MASTER\i2c_master.h ****  *    {
 267:C:/Users/Utente/Desktop/Tesi/Firmware_Software/DAVE project/S2GLP_Pulsed_Doppler/Dave/Generated/I2C_MASTER\i2c_master.h ****  *    }
 268:C:/Users/Utente/Desktop/Tesi/Firmware_Software/DAVE project/S2GLP_Pulsed_Doppler/Dave/Generated/I2C_MASTER\i2c_master.h ****  *    while(1)
 269:C:/Users/Utente/Desktop/Tesi/Firmware_Software/DAVE project/S2GLP_Pulsed_Doppler/Dave/Generated/I2C_MASTER\i2c_master.h ****  *    {}
 270:C:/Users/Utente/Desktop/Tesi/Firmware_Software/DAVE project/S2GLP_Pulsed_Doppler/Dave/Generated/I2C_MASTER\i2c_master.h ****  *    return 0;
 271:C:/Users/Utente/Desktop/Tesi/Firmware_Software/DAVE project/S2GLP_Pulsed_Doppler/Dave/Generated/I2C_MASTER\i2c_master.h ****  *  }
 272:C:/Users/Utente/Desktop/Tesi/Firmware_Software/DAVE project/S2GLP_Pulsed_Doppler/Dave/Generated/I2C_MASTER\i2c_master.h ****  * @endcode<BR> </p>
 273:C:/Users/Utente/Desktop/Tesi/Firmware_Software/DAVE project/S2GLP_Pulsed_Doppler/Dave/Generated/I2C_MASTER\i2c_master.h ****  */
 274:C:/Users/Utente/Desktop/Tesi/Firmware_Software/DAVE project/S2GLP_Pulsed_Doppler/Dave/Generated/I2C_MASTER\i2c_master.h **** DAVE_APP_VERSION_t I2C_MASTER_GetAppVersion(void);
 275:C:/Users/Utente/Desktop/Tesi/Firmware_Software/DAVE project/S2GLP_Pulsed_Doppler/Dave/Generated/I2C_MASTER\i2c_master.h **** /**
 276:C:/Users/Utente/Desktop/Tesi/Firmware_Software/DAVE project/S2GLP_Pulsed_Doppler/Dave/Generated/I2C_MASTER\i2c_master.h ****  * @brief This function initializes the I2C_MASTER APP based on user provided configuration.
 277:C:/Users/Utente/Desktop/Tesi/Firmware_Software/DAVE project/S2GLP_Pulsed_Doppler/Dave/Generated/I2C_MASTER\i2c_master.h ****  *
 278:C:/Users/Utente/Desktop/Tesi/Firmware_Software/DAVE project/S2GLP_Pulsed_Doppler/Dave/Generated/I2C_MASTER\i2c_master.h ****  * @return None
 279:C:/Users/Utente/Desktop/Tesi/Firmware_Software/DAVE project/S2GLP_Pulsed_Doppler/Dave/Generated/I2C_MASTER\i2c_master.h ****  *
 280:C:/Users/Utente/Desktop/Tesi/Firmware_Software/DAVE project/S2GLP_Pulsed_Doppler/Dave/Generated/I2C_MASTER\i2c_master.h ****  * \par<b>Description: </b><br>
 281:C:/Users/Utente/Desktop/Tesi/Firmware_Software/DAVE project/S2GLP_Pulsed_Doppler/Dave/Generated/I2C_MASTER\i2c_master.h ****  * I2C configurations like channel selection,baud rate setting,
 282:C:/Users/Utente/Desktop/Tesi/Firmware_Software/DAVE project/S2GLP_Pulsed_Doppler/Dave/Generated/I2C_MASTER\i2c_master.h ****  * FIFO configuration etc are done in this API.
 283:C:/Users/Utente/Desktop/Tesi/Firmware_Software/DAVE project/S2GLP_Pulsed_Doppler/Dave/Generated/I2C_MASTER\i2c_master.h ****  * Protocol specific interrupts can also be enabled using the I2C_MASTER_Init
 284:C:/Users/Utente/Desktop/Tesi/Firmware_Software/DAVE project/S2GLP_Pulsed_Doppler/Dave/Generated/I2C_MASTER\i2c_master.h ****  * function.
 285:C:/Users/Utente/Desktop/Tesi/Firmware_Software/DAVE project/S2GLP_Pulsed_Doppler/Dave/Generated/I2C_MASTER\i2c_master.h ****  *
 286:C:/Users/Utente/Desktop/Tesi/Firmware_Software/DAVE project/S2GLP_Pulsed_Doppler/Dave/Generated/I2C_MASTER\i2c_master.h ****  * Pre-requisite: Instantiate I2C_MASTER APP and generate code before using below code snippet.
 287:C:/Users/Utente/Desktop/Tesi/Firmware_Software/DAVE project/S2GLP_Pulsed_Doppler/Dave/Generated/I2C_MASTER\i2c_master.h ****  * @code
 288:C:/Users/Utente/Desktop/Tesi/Firmware_Software/DAVE project/S2GLP_Pulsed_Doppler/Dave/Generated/I2C_MASTER\i2c_master.h ****  *
 289:C:/Users/Utente/Desktop/Tesi/Firmware_Software/DAVE project/S2GLP_Pulsed_Doppler/Dave/Generated/I2C_MASTER\i2c_master.h ****  *  #include <DAVE.h>
 290:C:/Users/Utente/Desktop/Tesi/Firmware_Software/DAVE project/S2GLP_Pulsed_Doppler/Dave/Generated/I2C_MASTER\i2c_master.h ****  *  int main(void)
 291:C:/Users/Utente/Desktop/Tesi/Firmware_Software/DAVE project/S2GLP_Pulsed_Doppler/Dave/Generated/I2C_MASTER\i2c_master.h ****  *  {
 292:C:/Users/Utente/Desktop/Tesi/Firmware_Software/DAVE project/S2GLP_Pulsed_Doppler/Dave/Generated/I2C_MASTER\i2c_master.h ****  *   // Initializing the modules and the multiplexer
 293:C:/Users/Utente/Desktop/Tesi/Firmware_Software/DAVE project/S2GLP_Pulsed_Doppler/Dave/Generated/I2C_MASTER\i2c_master.h ****  *   DAVE_Init(); // I2C_MASTER_Init will be called from DAVE_Init()
 294:C:/Users/Utente/Desktop/Tesi/Firmware_Software/DAVE project/S2GLP_Pulsed_Doppler/Dave/Generated/I2C_MASTER\i2c_master.h ****  *   while(1)
 295:C:/Users/Utente/Desktop/Tesi/Firmware_Software/DAVE project/S2GLP_Pulsed_Doppler/Dave/Generated/I2C_MASTER\i2c_master.h ****  *   {}
 296:C:/Users/Utente/Desktop/Tesi/Firmware_Software/DAVE project/S2GLP_Pulsed_Doppler/Dave/Generated/I2C_MASTER\i2c_master.h ****  *   return 0;
 297:C:/Users/Utente/Desktop/Tesi/Firmware_Software/DAVE project/S2GLP_Pulsed_Doppler/Dave/Generated/I2C_MASTER\i2c_master.h ****  *  }
 298:C:/Users/Utente/Desktop/Tesi/Firmware_Software/DAVE project/S2GLP_Pulsed_Doppler/Dave/Generated/I2C_MASTER\i2c_master.h ****  * @endcode<BR> </p>
 299:C:/Users/Utente/Desktop/Tesi/Firmware_Software/DAVE project/S2GLP_Pulsed_Doppler/Dave/Generated/I2C_MASTER\i2c_master.h ****  *
 300:C:/Users/Utente/Desktop/Tesi/Firmware_Software/DAVE project/S2GLP_Pulsed_Doppler/Dave/Generated/I2C_MASTER\i2c_master.h ****  */
 301:C:/Users/Utente/Desktop/Tesi/Firmware_Software/DAVE project/S2GLP_Pulsed_Doppler/Dave/Generated/I2C_MASTER\i2c_master.h **** 
 302:C:/Users/Utente/Desktop/Tesi/Firmware_Software/DAVE project/S2GLP_Pulsed_Doppler/Dave/Generated/I2C_MASTER\i2c_master.h **** I2C_MASTER_STATUS_t I2C_MASTER_Init(const I2C_MASTER_t *const handle);
 303:C:/Users/Utente/Desktop/Tesi/Firmware_Software/DAVE project/S2GLP_Pulsed_Doppler/Dave/Generated/I2C_MASTER\i2c_master.h **** 
 304:C:/Users/Utente/Desktop/Tesi/Firmware_Software/DAVE project/S2GLP_Pulsed_Doppler/Dave/Generated/I2C_MASTER\i2c_master.h **** 
 305:C:/Users/Utente/Desktop/Tesi/Firmware_Software/DAVE project/S2GLP_Pulsed_Doppler/Dave/Generated/I2C_MASTER\i2c_master.h **** /**
 306:C:/Users/Utente/Desktop/Tesi/Firmware_Software/DAVE project/S2GLP_Pulsed_Doppler/Dave/Generated/I2C_MASTER\i2c_master.h ****  * @brief  Receives the data from I2C slave device.
 307:C:/Users/Utente/Desktop/Tesi/Firmware_Software/DAVE project/S2GLP_Pulsed_Doppler/Dave/Generated/I2C_MASTER\i2c_master.h ****  * @param  handle I2C device handle of type I2C_MASTER_t*
 308:C:/Users/Utente/Desktop/Tesi/Firmware_Software/DAVE project/S2GLP_Pulsed_Doppler/Dave/Generated/I2C_MASTER\i2c_master.h ****  * @param  send_start Flag to indicate that the start condition need to be send.
 309:C:/Users/Utente/Desktop/Tesi/Firmware_Software/DAVE project/S2GLP_Pulsed_Doppler/Dave/Generated/I2C_MASTER\i2c_master.h ****  * @param  address I2C slave device address.
 310:C:/Users/Utente/Desktop/Tesi/Firmware_Software/DAVE project/S2GLP_Pulsed_Doppler/Dave/Generated/I2C_MASTER\i2c_master.h ****  * @param  data buffer to receive data.
 311:C:/Users/Utente/Desktop/Tesi/Firmware_Software/DAVE project/S2GLP_Pulsed_Doppler/Dave/Generated/I2C_MASTER\i2c_master.h ****  * @param  count The number of bytes to be received from slave.
 312:C:/Users/Utente/Desktop/Tesi/Firmware_Software/DAVE project/S2GLP_Pulsed_Doppler/Dave/Generated/I2C_MASTER\i2c_master.h ****  * @param  send_stop The flag to indicate that the stop condition need to be send.
 313:C:/Users/Utente/Desktop/Tesi/Firmware_Software/DAVE project/S2GLP_Pulsed_Doppler/Dave/Generated/I2C_MASTER\i2c_master.h ****  * @param  send_nack The flag to indicate that the NACK condition need to be send for the last byte
 314:C:/Users/Utente/Desktop/Tesi/Firmware_Software/DAVE project/S2GLP_Pulsed_Doppler/Dave/Generated/I2C_MASTER\i2c_master.h ****  * @return @ref I2C_MASTER_STATUS_t Status.
 315:C:/Users/Utente/Desktop/Tesi/Firmware_Software/DAVE project/S2GLP_Pulsed_Doppler/Dave/Generated/I2C_MASTER\i2c_master.h ****  * \par<b>NOTE: </b><br>
 316:C:/Users/Utente/Desktop/Tesi/Firmware_Software/DAVE project/S2GLP_Pulsed_Doppler/Dave/Generated/I2C_MASTER\i2c_master.h ****  * I2C_MASTER_Receive API can be used in Interrupt and Direct modes.\n
 317:C:/Users/Utente/Desktop/Tesi/Firmware_Software/DAVE project/S2GLP_Pulsed_Doppler/Dave/Generated/I2C_MASTER\i2c_master.h ****  * Address(address) should reserve an additional bit at the LSB for read/write indication. For exam
 318:C:/Users/Utente/Desktop/Tesi/Firmware_Software/DAVE project/S2GLP_Pulsed_Doppler/Dave/Generated/I2C_MASTER\i2c_master.h ****  * be provided as 0x0a. If the address is 10-bit, only most significant bits with the 10-bit identi
 319:C:/Users/Utente/Desktop/Tesi/Firmware_Software/DAVE project/S2GLP_Pulsed_Doppler/Dave/Generated/I2C_MASTER\i2c_master.h ****  * For example, if the 10-bit address is 0x305, the address should be provided as 0xf6(prepend with
 320:C:/Users/Utente/Desktop/Tesi/Firmware_Software/DAVE project/S2GLP_Pulsed_Doppler/Dave/Generated/I2C_MASTER\i2c_master.h ****  * followed by 1-bit field for read/write).\n
 321:C:/Users/Utente/Desktop/Tesi/Firmware_Software/DAVE project/S2GLP_Pulsed_Doppler/Dave/Generated/I2C_MASTER\i2c_master.h ****  * Pre-requisite: Instantiate I2C_MASTER APP and generate code before using below code snippet.
 322:C:/Users/Utente/Desktop/Tesi/Firmware_Software/DAVE project/S2GLP_Pulsed_Doppler/Dave/Generated/I2C_MASTER\i2c_master.h ****  *
 323:C:/Users/Utente/Desktop/Tesi/Firmware_Software/DAVE project/S2GLP_Pulsed_Doppler/Dave/Generated/I2C_MASTER\i2c_master.h ****  * @code
 324:C:/Users/Utente/Desktop/Tesi/Firmware_Software/DAVE project/S2GLP_Pulsed_Doppler/Dave/Generated/I2C_MASTER\i2c_master.h ****  *
 325:C:/Users/Utente/Desktop/Tesi/Firmware_Software/DAVE project/S2GLP_Pulsed_Doppler/Dave/Generated/I2C_MASTER\i2c_master.h ****  *  #include <DAVE.h>
 326:C:/Users/Utente/Desktop/Tesi/Firmware_Software/DAVE project/S2GLP_Pulsed_Doppler/Dave/Generated/I2C_MASTER\i2c_master.h ****  *  #define SLAVE_ADDRESS 0xA0
 327:C:/Users/Utente/Desktop/Tesi/Firmware_Software/DAVE project/S2GLP_Pulsed_Doppler/Dave/Generated/I2C_MASTER\i2c_master.h ****  *  #define BYTES_TO_READ 10
 328:C:/Users/Utente/Desktop/Tesi/Firmware_Software/DAVE project/S2GLP_Pulsed_Doppler/Dave/Generated/I2C_MASTER\i2c_master.h ****  *  #define BYTES_TO_TRANSMIT 10
 329:C:/Users/Utente/Desktop/Tesi/Firmware_Software/DAVE project/S2GLP_Pulsed_Doppler/Dave/Generated/I2C_MASTER\i2c_master.h ****  *
 330:C:/Users/Utente/Desktop/Tesi/Firmware_Software/DAVE project/S2GLP_Pulsed_Doppler/Dave/Generated/I2C_MASTER\i2c_master.h ****  *  typedef enum PCA9502_REGADDR {
 331:C:/Users/Utente/Desktop/Tesi/Firmware_Software/DAVE project/S2GLP_Pulsed_Doppler/Dave/Generated/I2C_MASTER\i2c_master.h ****  *    IO_DIR    = 0xA << 3,
 332:C:/Users/Utente/Desktop/Tesi/Firmware_Software/DAVE project/S2GLP_Pulsed_Doppler/Dave/Generated/I2C_MASTER\i2c_master.h ****  *    IO_STATE  = 0xB << 3,
 333:C:/Users/Utente/Desktop/Tesi/Firmware_Software/DAVE project/S2GLP_Pulsed_Doppler/Dave/Generated/I2C_MASTER\i2c_master.h ****  *    IO_INTE   = 0xC << 3,
 334:C:/Users/Utente/Desktop/Tesi/Firmware_Software/DAVE project/S2GLP_Pulsed_Doppler/Dave/Generated/I2C_MASTER\i2c_master.h ****  *    IO_CTRL   = 0xE << 3
 335:C:/Users/Utente/Desktop/Tesi/Firmware_Software/DAVE project/S2GLP_Pulsed_Doppler/Dave/Generated/I2C_MASTER\i2c_master.h ****  *  } PCA9502_REGADDR_t;
 336:C:/Users/Utente/Desktop/Tesi/Firmware_Software/DAVE project/S2GLP_Pulsed_Doppler/Dave/Generated/I2C_MASTER\i2c_master.h **** 
 337:C:/Users/Utente/Desktop/Tesi/Firmware_Software/DAVE project/S2GLP_Pulsed_Doppler/Dave/Generated/I2C_MASTER\i2c_master.h ****  *  uint8_t mem_address[2];
 338:C:/Users/Utente/Desktop/Tesi/Firmware_Software/DAVE project/S2GLP_Pulsed_Doppler/Dave/Generated/I2C_MASTER\i2c_master.h ****  *  uint8_t data = 0x55;
 339:C:/Users/Utente/Desktop/Tesi/Firmware_Software/DAVE project/S2GLP_Pulsed_Doppler/Dave/Generated/I2C_MASTER\i2c_master.h ****  *  uint8_t rx_data;
 340:C:/Users/Utente/Desktop/Tesi/Firmware_Software/DAVE project/S2GLP_Pulsed_Doppler/Dave/Generated/I2C_MASTER\i2c_master.h ****  *
 341:C:/Users/Utente/Desktop/Tesi/Firmware_Software/DAVE project/S2GLP_Pulsed_Doppler/Dave/Generated/I2C_MASTER\i2c_master.h ****  *  int main(void)
 342:C:/Users/Utente/Desktop/Tesi/Firmware_Software/DAVE project/S2GLP_Pulsed_Doppler/Dave/Generated/I2C_MASTER\i2c_master.h ****  *  {
 343:C:/Users/Utente/Desktop/Tesi/Firmware_Software/DAVE project/S2GLP_Pulsed_Doppler/Dave/Generated/I2C_MASTER\i2c_master.h ****  *   DAVE_STATUS_t init_status;  
 344:C:/Users/Utente/Desktop/Tesi/Firmware_Software/DAVE project/S2GLP_Pulsed_Doppler/Dave/Generated/I2C_MASTER\i2c_master.h ****  *   init_status = DAVE_Init();
 345:C:/Users/Utente/Desktop/Tesi/Firmware_Software/DAVE project/S2GLP_Pulsed_Doppler/Dave/Generated/I2C_MASTER\i2c_master.h ****  *   if(init_status == DAVE_STATUS_SUCCESS)
 346:C:/Users/Utente/Desktop/Tesi/Firmware_Software/DAVE project/S2GLP_Pulsed_Doppler/Dave/Generated/I2C_MASTER\i2c_master.h ****  *   {
 347:C:/Users/Utente/Desktop/Tesi/Firmware_Software/DAVE project/S2GLP_Pulsed_Doppler/Dave/Generated/I2C_MASTER\i2c_master.h ****  *     mem_address[0] = IO_STATE;//memory which need to be read from slave
 348:C:/Users/Utente/Desktop/Tesi/Firmware_Software/DAVE project/S2GLP_Pulsed_Doppler/Dave/Generated/I2C_MASTER\i2c_master.h ****  *     //Write data to IO EXPANDER
 349:C:/Users/Utente/Desktop/Tesi/Firmware_Software/DAVE project/S2GLP_Pulsed_Doppler/Dave/Generated/I2C_MASTER\i2c_master.h ****  *     I2C_MASTER_Transmit(&I2C_MASTER_0,true,SLAVE_ADDRESS,mem_address,1,false);
 350:C:/Users/Utente/Desktop/Tesi/Firmware_Software/DAVE project/S2GLP_Pulsed_Doppler/Dave/Generated/I2C_MASTER\i2c_master.h ****  *     while(I2C_MASTER_IsTxBusy(&I2C_MASTER_0));
 351:C:/Users/Utente/Desktop/Tesi/Firmware_Software/DAVE project/S2GLP_Pulsed_Doppler/Dave/Generated/I2C_MASTER\i2c_master.h ****  *
 352:C:/Users/Utente/Desktop/Tesi/Firmware_Software/DAVE project/S2GLP_Pulsed_Doppler/Dave/Generated/I2C_MASTER\i2c_master.h ****  *     I2C_MASTER_Transmit(&I2C_MASTER_0,false,SLAVE_ADDRESS,&data,1,true);
 353:C:/Users/Utente/Desktop/Tesi/Firmware_Software/DAVE project/S2GLP_Pulsed_Doppler/Dave/Generated/I2C_MASTER\i2c_master.h ****  *     while(I2C_MASTER_IsTxBusy(&I2C_MASTER_0));
 354:C:/Users/Utente/Desktop/Tesi/Firmware_Software/DAVE project/S2GLP_Pulsed_Doppler/Dave/Generated/I2C_MASTER\i2c_master.h **** 
 355:C:/Users/Utente/Desktop/Tesi/Firmware_Software/DAVE project/S2GLP_Pulsed_Doppler/Dave/Generated/I2C_MASTER\i2c_master.h ****  *     //Read data from IO EXPANDER
 356:C:/Users/Utente/Desktop/Tesi/Firmware_Software/DAVE project/S2GLP_Pulsed_Doppler/Dave/Generated/I2C_MASTER\i2c_master.h ****  *     I2C_MASTER_Transmit(&I2C_MASTER_0,true,SLAVE_ADDRESS,mem_address,1,false);
 357:C:/Users/Utente/Desktop/Tesi/Firmware_Software/DAVE project/S2GLP_Pulsed_Doppler/Dave/Generated/I2C_MASTER\i2c_master.h ****  *     while(I2C_MASTER_IsTxBusy(&I2C_MASTER_0));
 358:C:/Users/Utente/Desktop/Tesi/Firmware_Software/DAVE project/S2GLP_Pulsed_Doppler/Dave/Generated/I2C_MASTER\i2c_master.h ****  *
 359:C:/Users/Utente/Desktop/Tesi/Firmware_Software/DAVE project/S2GLP_Pulsed_Doppler/Dave/Generated/I2C_MASTER\i2c_master.h ****  *     I2C_MASTER_Receive(&I2C_MASTER_0,true,SLAVE_ADDRESS,&rx_data,1,true,true);
 360:C:/Users/Utente/Desktop/Tesi/Firmware_Software/DAVE project/S2GLP_Pulsed_Doppler/Dave/Generated/I2C_MASTER\i2c_master.h ****  *     while(I2C_MASTER_IsRxBusy(&I2C_MASTER_0));
 361:C:/Users/Utente/Desktop/Tesi/Firmware_Software/DAVE project/S2GLP_Pulsed_Doppler/Dave/Generated/I2C_MASTER\i2c_master.h ****  *   }
 362:C:/Users/Utente/Desktop/Tesi/Firmware_Software/DAVE project/S2GLP_Pulsed_Doppler/Dave/Generated/I2C_MASTER\i2c_master.h ****  *   while(1)
 363:C:/Users/Utente/Desktop/Tesi/Firmware_Software/DAVE project/S2GLP_Pulsed_Doppler/Dave/Generated/I2C_MASTER\i2c_master.h ****  *   { }
 364:C:/Users/Utente/Desktop/Tesi/Firmware_Software/DAVE project/S2GLP_Pulsed_Doppler/Dave/Generated/I2C_MASTER\i2c_master.h ****  *  return 0;
 365:C:/Users/Utente/Desktop/Tesi/Firmware_Software/DAVE project/S2GLP_Pulsed_Doppler/Dave/Generated/I2C_MASTER\i2c_master.h ****  * }
 366:C:/Users/Utente/Desktop/Tesi/Firmware_Software/DAVE project/S2GLP_Pulsed_Doppler/Dave/Generated/I2C_MASTER\i2c_master.h ****  *
 367:C:/Users/Utente/Desktop/Tesi/Firmware_Software/DAVE project/S2GLP_Pulsed_Doppler/Dave/Generated/I2C_MASTER\i2c_master.h ****  * @endcode<BR> </p>
 368:C:/Users/Utente/Desktop/Tesi/Firmware_Software/DAVE project/S2GLP_Pulsed_Doppler/Dave/Generated/I2C_MASTER\i2c_master.h ****  *
 369:C:/Users/Utente/Desktop/Tesi/Firmware_Software/DAVE project/S2GLP_Pulsed_Doppler/Dave/Generated/I2C_MASTER\i2c_master.h ****  */
 370:C:/Users/Utente/Desktop/Tesi/Firmware_Software/DAVE project/S2GLP_Pulsed_Doppler/Dave/Generated/I2C_MASTER\i2c_master.h **** I2C_MASTER_STATUS_t I2C_MASTER_Receive(I2C_MASTER_t *handle, bool send_start, const uint32_t addres
 371:C:/Users/Utente/Desktop/Tesi/Firmware_Software/DAVE project/S2GLP_Pulsed_Doppler/Dave/Generated/I2C_MASTER\i2c_master.h ****                                        uint8_t * data, const uint32_t count, bool send_stop, bool s
 372:C:/Users/Utente/Desktop/Tesi/Firmware_Software/DAVE project/S2GLP_Pulsed_Doppler/Dave/Generated/I2C_MASTER\i2c_master.h **** 
 373:C:/Users/Utente/Desktop/Tesi/Firmware_Software/DAVE project/S2GLP_Pulsed_Doppler/Dave/Generated/I2C_MASTER\i2c_master.h **** /**
 374:C:/Users/Utente/Desktop/Tesi/Firmware_Software/DAVE project/S2GLP_Pulsed_Doppler/Dave/Generated/I2C_MASTER\i2c_master.h ****  * @brief Transmits data to I2C slave device.
 375:C:/Users/Utente/Desktop/Tesi/Firmware_Software/DAVE project/S2GLP_Pulsed_Doppler/Dave/Generated/I2C_MASTER\i2c_master.h ****  *
 376:C:/Users/Utente/Desktop/Tesi/Firmware_Software/DAVE project/S2GLP_Pulsed_Doppler/Dave/Generated/I2C_MASTER\i2c_master.h ****  * @param  handle I2C device handle of type I2C_MASTER_t*
 377:C:/Users/Utente/Desktop/Tesi/Firmware_Software/DAVE project/S2GLP_Pulsed_Doppler/Dave/Generated/I2C_MASTER\i2c_master.h ****  * @param  send_start The flag to indicate that the start condition need to be send.
 378:C:/Users/Utente/Desktop/Tesi/Firmware_Software/DAVE project/S2GLP_Pulsed_Doppler/Dave/Generated/I2C_MASTER\i2c_master.h ****  * @param  address I2C slave device address.
 379:C:/Users/Utente/Desktop/Tesi/Firmware_Software/DAVE project/S2GLP_Pulsed_Doppler/Dave/Generated/I2C_MASTER\i2c_master.h ****  * @param  data buffer containing the data to transmit.
 380:C:/Users/Utente/Desktop/Tesi/Firmware_Software/DAVE project/S2GLP_Pulsed_Doppler/Dave/Generated/I2C_MASTER\i2c_master.h ****  * @param  size The number of bytes to be send to slave.
 381:C:/Users/Utente/Desktop/Tesi/Firmware_Software/DAVE project/S2GLP_Pulsed_Doppler/Dave/Generated/I2C_MASTER\i2c_master.h ****  * @param  send_stop The flag to indicate that the stop condition need to be send.
 382:C:/Users/Utente/Desktop/Tesi/Firmware_Software/DAVE project/S2GLP_Pulsed_Doppler/Dave/Generated/I2C_MASTER\i2c_master.h ****  *
 383:C:/Users/Utente/Desktop/Tesi/Firmware_Software/DAVE project/S2GLP_Pulsed_Doppler/Dave/Generated/I2C_MASTER\i2c_master.h ****  * @return @ref I2C_MASTER_STATUS_t Status.
 384:C:/Users/Utente/Desktop/Tesi/Firmware_Software/DAVE project/S2GLP_Pulsed_Doppler/Dave/Generated/I2C_MASTER\i2c_master.h ****  * \par<b>NOTE: </b><br>
 385:C:/Users/Utente/Desktop/Tesi/Firmware_Software/DAVE project/S2GLP_Pulsed_Doppler/Dave/Generated/I2C_MASTER\i2c_master.h ****  * I2C_MASTER_Transmit API can be used in Interrupt and Direct modes.\n
 386:C:/Users/Utente/Desktop/Tesi/Firmware_Software/DAVE project/S2GLP_Pulsed_Doppler/Dave/Generated/I2C_MASTER\i2c_master.h ****  * Address(address) should reserve an additional bit at the LSB for read/write indication. For exam
 387:C:/Users/Utente/Desktop/Tesi/Firmware_Software/DAVE project/S2GLP_Pulsed_Doppler/Dave/Generated/I2C_MASTER\i2c_master.h ****  * be provided as 0x0a. If the address is 10-bit, only most significant bits with the 10-bit identi
 388:C:/Users/Utente/Desktop/Tesi/Firmware_Software/DAVE project/S2GLP_Pulsed_Doppler/Dave/Generated/I2C_MASTER\i2c_master.h ****  * For example, if the 10-bit address is 0x305, the address should be provided as 0xf6(prepend with
 389:C:/Users/Utente/Desktop/Tesi/Firmware_Software/DAVE project/S2GLP_Pulsed_Doppler/Dave/Generated/I2C_MASTER\i2c_master.h ****  * followed by 1-bit field for read/write). \n
 390:C:/Users/Utente/Desktop/Tesi/Firmware_Software/DAVE project/S2GLP_Pulsed_Doppler/Dave/Generated/I2C_MASTER\i2c_master.h ****  * Pre-requisite: Instantiate I2C_MASTER APP and generate code before using below code snippet.
 391:C:/Users/Utente/Desktop/Tesi/Firmware_Software/DAVE project/S2GLP_Pulsed_Doppler/Dave/Generated/I2C_MASTER\i2c_master.h ****  * 
 392:C:/Users/Utente/Desktop/Tesi/Firmware_Software/DAVE project/S2GLP_Pulsed_Doppler/Dave/Generated/I2C_MASTER\i2c_master.h ****  * @code
 393:C:/Users/Utente/Desktop/Tesi/Firmware_Software/DAVE project/S2GLP_Pulsed_Doppler/Dave/Generated/I2C_MASTER\i2c_master.h ****  *
 394:C:/Users/Utente/Desktop/Tesi/Firmware_Software/DAVE project/S2GLP_Pulsed_Doppler/Dave/Generated/I2C_MASTER\i2c_master.h ****  *  #include <DAVE.h>
 395:C:/Users/Utente/Desktop/Tesi/Firmware_Software/DAVE project/S2GLP_Pulsed_Doppler/Dave/Generated/I2C_MASTER\i2c_master.h ****  *  #define SLAVE_ADDRESS (0xA0)
 396:C:/Users/Utente/Desktop/Tesi/Firmware_Software/DAVE project/S2GLP_Pulsed_Doppler/Dave/Generated/I2C_MASTER\i2c_master.h ****  *  typedef enum PCA9502_REGADDR {
 397:C:/Users/Utente/Desktop/Tesi/Firmware_Software/DAVE project/S2GLP_Pulsed_Doppler/Dave/Generated/I2C_MASTER\i2c_master.h ****  *    IO_DIR    = 0xA << 3,
 398:C:/Users/Utente/Desktop/Tesi/Firmware_Software/DAVE project/S2GLP_Pulsed_Doppler/Dave/Generated/I2C_MASTER\i2c_master.h ****  *    IO_STATE  = 0xB << 3,
 399:C:/Users/Utente/Desktop/Tesi/Firmware_Software/DAVE project/S2GLP_Pulsed_Doppler/Dave/Generated/I2C_MASTER\i2c_master.h ****  *    IO_INTE   = 0xC << 3,
 400:C:/Users/Utente/Desktop/Tesi/Firmware_Software/DAVE project/S2GLP_Pulsed_Doppler/Dave/Generated/I2C_MASTER\i2c_master.h ****  *    IO_CTRL   = 0xE << 3
 401:C:/Users/Utente/Desktop/Tesi/Firmware_Software/DAVE project/S2GLP_Pulsed_Doppler/Dave/Generated/I2C_MASTER\i2c_master.h ****  *  } PCA9502_REGADDR_t;
 402:C:/Users/Utente/Desktop/Tesi/Firmware_Software/DAVE project/S2GLP_Pulsed_Doppler/Dave/Generated/I2C_MASTER\i2c_master.h ****  *
 403:C:/Users/Utente/Desktop/Tesi/Firmware_Software/DAVE project/S2GLP_Pulsed_Doppler/Dave/Generated/I2C_MASTER\i2c_master.h ****  *  uint8_t tx_buffer[64] = {0x01,0x02,0x03,0x04,0x05};
 404:C:/Users/Utente/Desktop/Tesi/Firmware_Software/DAVE project/S2GLP_Pulsed_Doppler/Dave/Generated/I2C_MASTER\i2c_master.h ****  *  uint8_t mem_address[2];
 405:C:/Users/Utente/Desktop/Tesi/Firmware_Software/DAVE project/S2GLP_Pulsed_Doppler/Dave/Generated/I2C_MASTER\i2c_master.h ****  *
 406:C:/Users/Utente/Desktop/Tesi/Firmware_Software/DAVE project/S2GLP_Pulsed_Doppler/Dave/Generated/I2C_MASTER\i2c_master.h ****  *  int main(void)
 407:C:/Users/Utente/Desktop/Tesi/Firmware_Software/DAVE project/S2GLP_Pulsed_Doppler/Dave/Generated/I2C_MASTER\i2c_master.h ****  *  {
 408:C:/Users/Utente/Desktop/Tesi/Firmware_Software/DAVE project/S2GLP_Pulsed_Doppler/Dave/Generated/I2C_MASTER\i2c_master.h ****  *    DAVE_STATUS_t init_status;
 409:C:/Users/Utente/Desktop/Tesi/Firmware_Software/DAVE project/S2GLP_Pulsed_Doppler/Dave/Generated/I2C_MASTER\i2c_master.h ****  *    init_status = DAVE_Init();
 410:C:/Users/Utente/Desktop/Tesi/Firmware_Software/DAVE project/S2GLP_Pulsed_Doppler/Dave/Generated/I2C_MASTER\i2c_master.h ****  *    if(init_status == DAVE_STATUS_SUCCESS)
 411:C:/Users/Utente/Desktop/Tesi/Firmware_Software/DAVE project/S2GLP_Pulsed_Doppler/Dave/Generated/I2C_MASTER\i2c_master.h ****  *    {
 412:C:/Users/Utente/Desktop/Tesi/Firmware_Software/DAVE project/S2GLP_Pulsed_Doppler/Dave/Generated/I2C_MASTER\i2c_master.h ****  *      mem_address[0] = IO_STATE;//memory which need to be read from slave
 413:C:/Users/Utente/Desktop/Tesi/Firmware_Software/DAVE project/S2GLP_Pulsed_Doppler/Dave/Generated/I2C_MASTER\i2c_master.h ****  *      //Write data to IO EXPANDER
 414:C:/Users/Utente/Desktop/Tesi/Firmware_Software/DAVE project/S2GLP_Pulsed_Doppler/Dave/Generated/I2C_MASTER\i2c_master.h ****  *      I2C_MASTER_Transmit(&I2C_MASTER_0,true,SLAVE_ADDRESS,mem_address,1,false);
 415:C:/Users/Utente/Desktop/Tesi/Firmware_Software/DAVE project/S2GLP_Pulsed_Doppler/Dave/Generated/I2C_MASTER\i2c_master.h ****  *      while(I2C_MASTER_IsTxBusy(&I2C_MASTER_0));
 416:C:/Users/Utente/Desktop/Tesi/Firmware_Software/DAVE project/S2GLP_Pulsed_Doppler/Dave/Generated/I2C_MASTER\i2c_master.h ****  *
 417:C:/Users/Utente/Desktop/Tesi/Firmware_Software/DAVE project/S2GLP_Pulsed_Doppler/Dave/Generated/I2C_MASTER\i2c_master.h ****  *      I2C_MASTER_Transmit(&I2C_MASTER_0,false,SLAVE_ADDRESS,tx_buffer,5,true);
 418:C:/Users/Utente/Desktop/Tesi/Firmware_Software/DAVE project/S2GLP_Pulsed_Doppler/Dave/Generated/I2C_MASTER\i2c_master.h ****  *      while(I2C_MASTER_IsTxBusy(&I2C_MASTER_0));
 419:C:/Users/Utente/Desktop/Tesi/Firmware_Software/DAVE project/S2GLP_Pulsed_Doppler/Dave/Generated/I2C_MASTER\i2c_master.h ****  *    }
 420:C:/Users/Utente/Desktop/Tesi/Firmware_Software/DAVE project/S2GLP_Pulsed_Doppler/Dave/Generated/I2C_MASTER\i2c_master.h ****  *    while(1)
 421:C:/Users/Utente/Desktop/Tesi/Firmware_Software/DAVE project/S2GLP_Pulsed_Doppler/Dave/Generated/I2C_MASTER\i2c_master.h ****  *    { }
 422:C:/Users/Utente/Desktop/Tesi/Firmware_Software/DAVE project/S2GLP_Pulsed_Doppler/Dave/Generated/I2C_MASTER\i2c_master.h **** 
 423:C:/Users/Utente/Desktop/Tesi/Firmware_Software/DAVE project/S2GLP_Pulsed_Doppler/Dave/Generated/I2C_MASTER\i2c_master.h ****  *   return 0;
 424:C:/Users/Utente/Desktop/Tesi/Firmware_Software/DAVE project/S2GLP_Pulsed_Doppler/Dave/Generated/I2C_MASTER\i2c_master.h ****  * }
 425:C:/Users/Utente/Desktop/Tesi/Firmware_Software/DAVE project/S2GLP_Pulsed_Doppler/Dave/Generated/I2C_MASTER\i2c_master.h ****  *
 426:C:/Users/Utente/Desktop/Tesi/Firmware_Software/DAVE project/S2GLP_Pulsed_Doppler/Dave/Generated/I2C_MASTER\i2c_master.h ****  * @endcode<BR> </p>
 427:C:/Users/Utente/Desktop/Tesi/Firmware_Software/DAVE project/S2GLP_Pulsed_Doppler/Dave/Generated/I2C_MASTER\i2c_master.h ****  *
 428:C:/Users/Utente/Desktop/Tesi/Firmware_Software/DAVE project/S2GLP_Pulsed_Doppler/Dave/Generated/I2C_MASTER\i2c_master.h ****  */
 429:C:/Users/Utente/Desktop/Tesi/Firmware_Software/DAVE project/S2GLP_Pulsed_Doppler/Dave/Generated/I2C_MASTER\i2c_master.h **** I2C_MASTER_STATUS_t I2C_MASTER_Transmit(I2C_MASTER_t *handle, bool send_start, const uint32_t addre
 430:C:/Users/Utente/Desktop/Tesi/Firmware_Software/DAVE project/S2GLP_Pulsed_Doppler/Dave/Generated/I2C_MASTER\i2c_master.h **** 		                                uint8_t *data, const uint32_t size, bool send_stop);
 431:C:/Users/Utente/Desktop/Tesi/Firmware_Software/DAVE project/S2GLP_Pulsed_Doppler/Dave/Generated/I2C_MASTER\i2c_master.h **** 
 432:C:/Users/Utente/Desktop/Tesi/Firmware_Software/DAVE project/S2GLP_Pulsed_Doppler/Dave/Generated/I2C_MASTER\i2c_master.h **** /**
 433:C:/Users/Utente/Desktop/Tesi/Firmware_Software/DAVE project/S2GLP_Pulsed_Doppler/Dave/Generated/I2C_MASTER\i2c_master.h ****  * @brief Get the I2C flag status.
 434:C:/Users/Utente/Desktop/Tesi/Firmware_Software/DAVE project/S2GLP_Pulsed_Doppler/Dave/Generated/I2C_MASTER\i2c_master.h ****  *
 435:C:/Users/Utente/Desktop/Tesi/Firmware_Software/DAVE project/S2GLP_Pulsed_Doppler/Dave/Generated/I2C_MASTER\i2c_master.h ****  * @param  handle I2C device handle of type I2C_MASTER_t*
 436:C:/Users/Utente/Desktop/Tesi/Firmware_Software/DAVE project/S2GLP_Pulsed_Doppler/Dave/Generated/I2C_MASTER\i2c_master.h ****  * @param  flagtype   single or multiple flags, whose status need to be checked.
 437:C:/Users/Utente/Desktop/Tesi/Firmware_Software/DAVE project/S2GLP_Pulsed_Doppler/Dave/Generated/I2C_MASTER\i2c_master.h ****  *			 	      bitwise OR operation on elements of enum XMC_I2C_CH_STATUS_FLAG_t can be used to selec
 438:C:/Users/Utente/Desktop/Tesi/Firmware_Software/DAVE project/S2GLP_Pulsed_Doppler/Dave/Generated/I2C_MASTER\i2c_master.h ****  *                    multiple flags.
 439:C:/Users/Utente/Desktop/Tesi/Firmware_Software/DAVE project/S2GLP_Pulsed_Doppler/Dave/Generated/I2C_MASTER\i2c_master.h ****  *
 440:C:/Users/Utente/Desktop/Tesi/Firmware_Software/DAVE project/S2GLP_Pulsed_Doppler/Dave/Generated/I2C_MASTER\i2c_master.h ****  * @return uint32_t Flag status.
 441:C:/Users/Utente/Desktop/Tesi/Firmware_Software/DAVE project/S2GLP_Pulsed_Doppler/Dave/Generated/I2C_MASTER\i2c_master.h ****  *
 442:C:/Users/Utente/Desktop/Tesi/Firmware_Software/DAVE project/S2GLP_Pulsed_Doppler/Dave/Generated/I2C_MASTER\i2c_master.h ****  * Pre-requisite: Instantiate I2C_MASTER APP and generate code before using below code snippet.
 443:C:/Users/Utente/Desktop/Tesi/Firmware_Software/DAVE project/S2GLP_Pulsed_Doppler/Dave/Generated/I2C_MASTER\i2c_master.h ****  *
 444:C:/Users/Utente/Desktop/Tesi/Firmware_Software/DAVE project/S2GLP_Pulsed_Doppler/Dave/Generated/I2C_MASTER\i2c_master.h ****  * @code
 445:C:/Users/Utente/Desktop/Tesi/Firmware_Software/DAVE project/S2GLP_Pulsed_Doppler/Dave/Generated/I2C_MASTER\i2c_master.h ****  *
 446:C:/Users/Utente/Desktop/Tesi/Firmware_Software/DAVE project/S2GLP_Pulsed_Doppler/Dave/Generated/I2C_MASTER\i2c_master.h ****  *  #include <DAVE.h>
 447:C:/Users/Utente/Desktop/Tesi/Firmware_Software/DAVE project/S2GLP_Pulsed_Doppler/Dave/Generated/I2C_MASTER\i2c_master.h ****  *
 448:C:/Users/Utente/Desktop/Tesi/Firmware_Software/DAVE project/S2GLP_Pulsed_Doppler/Dave/Generated/I2C_MASTER\i2c_master.h ****  *  #define SLAVE_ADDRESS (0xA0)
 449:C:/Users/Utente/Desktop/Tesi/Firmware_Software/DAVE project/S2GLP_Pulsed_Doppler/Dave/Generated/I2C_MASTER\i2c_master.h ****  *  int main(void)
 450:C:/Users/Utente/Desktop/Tesi/Firmware_Software/DAVE project/S2GLP_Pulsed_Doppler/Dave/Generated/I2C_MASTER\i2c_master.h ****  *  {
 451:C:/Users/Utente/Desktop/Tesi/Firmware_Software/DAVE project/S2GLP_Pulsed_Doppler/Dave/Generated/I2C_MASTER\i2c_master.h ****  *    DAVE_STATUS_t init_status;
 452:C:/Users/Utente/Desktop/Tesi/Firmware_Software/DAVE project/S2GLP_Pulsed_Doppler/Dave/Generated/I2C_MASTER\i2c_master.h ****  *    init_status = DAVE_Init();
 453:C:/Users/Utente/Desktop/Tesi/Firmware_Software/DAVE project/S2GLP_Pulsed_Doppler/Dave/Generated/I2C_MASTER\i2c_master.h ****  *    if(init_status == DAVE_STATUS_SUCCESS)
 454:C:/Users/Utente/Desktop/Tesi/Firmware_Software/DAVE project/S2GLP_Pulsed_Doppler/Dave/Generated/I2C_MASTER\i2c_master.h ****  *    {
 455:C:/Users/Utente/Desktop/Tesi/Firmware_Software/DAVE project/S2GLP_Pulsed_Doppler/Dave/Generated/I2C_MASTER\i2c_master.h ****  *      I2C_MASTER_SendStart(&I2C_MASTER_0, SLAVE_ADDRESS, XMC_I2C_CH_CMD_WRITE);
 456:C:/Users/Utente/Desktop/Tesi/Firmware_Software/DAVE project/S2GLP_Pulsed_Doppler/Dave/Generated/I2C_MASTER\i2c_master.h ****  *      while(I2C_MASTER_GetFlagStatus(&I2C_MASTER_0, XMC_I2C_CH_STATUS_FLAG_ACK_RECEIVED) == 0U)
 457:C:/Users/Utente/Desktop/Tesi/Firmware_Software/DAVE project/S2GLP_Pulsed_Doppler/Dave/Generated/I2C_MASTER\i2c_master.h ****  *      {
 458:C:/Users/Utente/Desktop/Tesi/Firmware_Software/DAVE project/S2GLP_Pulsed_Doppler/Dave/Generated/I2C_MASTER\i2c_master.h ****  *       // wait for ACK
 459:C:/Users/Utente/Desktop/Tesi/Firmware_Software/DAVE project/S2GLP_Pulsed_Doppler/Dave/Generated/I2C_MASTER\i2c_master.h ****  *      }
 460:C:/Users/Utente/Desktop/Tesi/Firmware_Software/DAVE project/S2GLP_Pulsed_Doppler/Dave/Generated/I2C_MASTER\i2c_master.h ****  *    }
 461:C:/Users/Utente/Desktop/Tesi/Firmware_Software/DAVE project/S2GLP_Pulsed_Doppler/Dave/Generated/I2C_MASTER\i2c_master.h ****  *    while(1)
 462:C:/Users/Utente/Desktop/Tesi/Firmware_Software/DAVE project/S2GLP_Pulsed_Doppler/Dave/Generated/I2C_MASTER\i2c_master.h ****  *    {}
 463:C:/Users/Utente/Desktop/Tesi/Firmware_Software/DAVE project/S2GLP_Pulsed_Doppler/Dave/Generated/I2C_MASTER\i2c_master.h ****  *
 464:C:/Users/Utente/Desktop/Tesi/Firmware_Software/DAVE project/S2GLP_Pulsed_Doppler/Dave/Generated/I2C_MASTER\i2c_master.h ****  *   return 0;
 465:C:/Users/Utente/Desktop/Tesi/Firmware_Software/DAVE project/S2GLP_Pulsed_Doppler/Dave/Generated/I2C_MASTER\i2c_master.h ****  *  }
 466:C:/Users/Utente/Desktop/Tesi/Firmware_Software/DAVE project/S2GLP_Pulsed_Doppler/Dave/Generated/I2C_MASTER\i2c_master.h ****  *
 467:C:/Users/Utente/Desktop/Tesi/Firmware_Software/DAVE project/S2GLP_Pulsed_Doppler/Dave/Generated/I2C_MASTER\i2c_master.h ****  * @endcode<BR> </p>
 468:C:/Users/Utente/Desktop/Tesi/Firmware_Software/DAVE project/S2GLP_Pulsed_Doppler/Dave/Generated/I2C_MASTER\i2c_master.h ****  *
 469:C:/Users/Utente/Desktop/Tesi/Firmware_Software/DAVE project/S2GLP_Pulsed_Doppler/Dave/Generated/I2C_MASTER\i2c_master.h ****  */
 470:C:/Users/Utente/Desktop/Tesi/Firmware_Software/DAVE project/S2GLP_Pulsed_Doppler/Dave/Generated/I2C_MASTER\i2c_master.h **** uint32_t I2C_MASTER_GetFlagStatus(const I2C_MASTER_t *handle, uint32_t flagtype);
 471:C:/Users/Utente/Desktop/Tesi/Firmware_Software/DAVE project/S2GLP_Pulsed_Doppler/Dave/Generated/I2C_MASTER\i2c_master.h **** 
 472:C:/Users/Utente/Desktop/Tesi/Firmware_Software/DAVE project/S2GLP_Pulsed_Doppler/Dave/Generated/I2C_MASTER\i2c_master.h **** /**
 473:C:/Users/Utente/Desktop/Tesi/Firmware_Software/DAVE project/S2GLP_Pulsed_Doppler/Dave/Generated/I2C_MASTER\i2c_master.h ****  * @brief Clear the I2C flag status.
 474:C:/Users/Utente/Desktop/Tesi/Firmware_Software/DAVE project/S2GLP_Pulsed_Doppler/Dave/Generated/I2C_MASTER\i2c_master.h ****  *
 475:C:/Users/Utente/Desktop/Tesi/Firmware_Software/DAVE project/S2GLP_Pulsed_Doppler/Dave/Generated/I2C_MASTER\i2c_master.h ****  * @param  handle I2C device handle of type I2C_MASTER_t*
 476:C:/Users/Utente/Desktop/Tesi/Firmware_Software/DAVE project/S2GLP_Pulsed_Doppler/Dave/Generated/I2C_MASTER\i2c_master.h ****  * @param  flagtype   single or multiple flags, whose status need to be checked.
 477:C:/Users/Utente/Desktop/Tesi/Firmware_Software/DAVE project/S2GLP_Pulsed_Doppler/Dave/Generated/I2C_MASTER\i2c_master.h ****  *                    The bitwise OR operation on elements of enum XMC_I2C_CH_STATUS_FLAG_t can be 
 478:C:/Users/Utente/Desktop/Tesi/Firmware_Software/DAVE project/S2GLP_Pulsed_Doppler/Dave/Generated/I2C_MASTER\i2c_master.h ****  *                    multiple flags.
 479:C:/Users/Utente/Desktop/Tesi/Firmware_Software/DAVE project/S2GLP_Pulsed_Doppler/Dave/Generated/I2C_MASTER\i2c_master.h ****  *
 480:C:/Users/Utente/Desktop/Tesi/Firmware_Software/DAVE project/S2GLP_Pulsed_Doppler/Dave/Generated/I2C_MASTER\i2c_master.h ****  * @return None <BR>
 481:C:/Users/Utente/Desktop/Tesi/Firmware_Software/DAVE project/S2GLP_Pulsed_Doppler/Dave/Generated/I2C_MASTER\i2c_master.h ****  * Pre-requisite: Instantiate I2C_MASTER APP and generate code before using below code snippet.
 482:C:/Users/Utente/Desktop/Tesi/Firmware_Software/DAVE project/S2GLP_Pulsed_Doppler/Dave/Generated/I2C_MASTER\i2c_master.h ****  * @code
 483:C:/Users/Utente/Desktop/Tesi/Firmware_Software/DAVE project/S2GLP_Pulsed_Doppler/Dave/Generated/I2C_MASTER\i2c_master.h ****  *
 484:C:/Users/Utente/Desktop/Tesi/Firmware_Software/DAVE project/S2GLP_Pulsed_Doppler/Dave/Generated/I2C_MASTER\i2c_master.h ****  *  #include <DAVE.h>
 485:C:/Users/Utente/Desktop/Tesi/Firmware_Software/DAVE project/S2GLP_Pulsed_Doppler/Dave/Generated/I2C_MASTER\i2c_master.h ****  *
 486:C:/Users/Utente/Desktop/Tesi/Firmware_Software/DAVE project/S2GLP_Pulsed_Doppler/Dave/Generated/I2C_MASTER\i2c_master.h ****  *  #define SLAVE_ADDRESS (0xA0)
 487:C:/Users/Utente/Desktop/Tesi/Firmware_Software/DAVE project/S2GLP_Pulsed_Doppler/Dave/Generated/I2C_MASTER\i2c_master.h ****  *  int main(void)
 488:C:/Users/Utente/Desktop/Tesi/Firmware_Software/DAVE project/S2GLP_Pulsed_Doppler/Dave/Generated/I2C_MASTER\i2c_master.h ****  *  {
 489:C:/Users/Utente/Desktop/Tesi/Firmware_Software/DAVE project/S2GLP_Pulsed_Doppler/Dave/Generated/I2C_MASTER\i2c_master.h ****  *    DAVE_STATUS_t init_status;
 490:C:/Users/Utente/Desktop/Tesi/Firmware_Software/DAVE project/S2GLP_Pulsed_Doppler/Dave/Generated/I2C_MASTER\i2c_master.h ****  *
 491:C:/Users/Utente/Desktop/Tesi/Firmware_Software/DAVE project/S2GLP_Pulsed_Doppler/Dave/Generated/I2C_MASTER\i2c_master.h ****  *    init_status = DAVE_Init();
 492:C:/Users/Utente/Desktop/Tesi/Firmware_Software/DAVE project/S2GLP_Pulsed_Doppler/Dave/Generated/I2C_MASTER\i2c_master.h ****  *    if(init_status == DAVE_STATUS_SUCCESS)
 493:C:/Users/Utente/Desktop/Tesi/Firmware_Software/DAVE project/S2GLP_Pulsed_Doppler/Dave/Generated/I2C_MASTER\i2c_master.h ****  *    {
 494:C:/Users/Utente/Desktop/Tesi/Firmware_Software/DAVE project/S2GLP_Pulsed_Doppler/Dave/Generated/I2C_MASTER\i2c_master.h ****  *      I2C_MASTER_SendStart(&I2C_MASTER_0, SLAVE_ADDRESS, XMC_I2C_CH_CMD_WRITE);
 495:C:/Users/Utente/Desktop/Tesi/Firmware_Software/DAVE project/S2GLP_Pulsed_Doppler/Dave/Generated/I2C_MASTER\i2c_master.h ****  *      while(I2C_MASTER_GetFlagStatus(&I2C_MASTER_0, XMC_I2C_CH_STATUS_FLAG_ACK_RECEIVED) == 0U)
 496:C:/Users/Utente/Desktop/Tesi/Firmware_Software/DAVE project/S2GLP_Pulsed_Doppler/Dave/Generated/I2C_MASTER\i2c_master.h ****  *      {
 497:C:/Users/Utente/Desktop/Tesi/Firmware_Software/DAVE project/S2GLP_Pulsed_Doppler/Dave/Generated/I2C_MASTER\i2c_master.h ****  *       // wait for ACK
 498:C:/Users/Utente/Desktop/Tesi/Firmware_Software/DAVE project/S2GLP_Pulsed_Doppler/Dave/Generated/I2C_MASTER\i2c_master.h ****  *      }
 499:C:/Users/Utente/Desktop/Tesi/Firmware_Software/DAVE project/S2GLP_Pulsed_Doppler/Dave/Generated/I2C_MASTER\i2c_master.h ****  *      I2C_MASTER_ClearFlag(&I2C_MASTER_0,XMC_I2C_CH_STATUS_FLAG_ACK_RECEIVED);
 500:C:/Users/Utente/Desktop/Tesi/Firmware_Software/DAVE project/S2GLP_Pulsed_Doppler/Dave/Generated/I2C_MASTER\i2c_master.h ****  *    }
 501:C:/Users/Utente/Desktop/Tesi/Firmware_Software/DAVE project/S2GLP_Pulsed_Doppler/Dave/Generated/I2C_MASTER\i2c_master.h ****  *    while(1)
 502:C:/Users/Utente/Desktop/Tesi/Firmware_Software/DAVE project/S2GLP_Pulsed_Doppler/Dave/Generated/I2C_MASTER\i2c_master.h ****  *    {}
 503:C:/Users/Utente/Desktop/Tesi/Firmware_Software/DAVE project/S2GLP_Pulsed_Doppler/Dave/Generated/I2C_MASTER\i2c_master.h ****  *
 504:C:/Users/Utente/Desktop/Tesi/Firmware_Software/DAVE project/S2GLP_Pulsed_Doppler/Dave/Generated/I2C_MASTER\i2c_master.h ****  *   return 0;
 505:C:/Users/Utente/Desktop/Tesi/Firmware_Software/DAVE project/S2GLP_Pulsed_Doppler/Dave/Generated/I2C_MASTER\i2c_master.h ****  * }
 506:C:/Users/Utente/Desktop/Tesi/Firmware_Software/DAVE project/S2GLP_Pulsed_Doppler/Dave/Generated/I2C_MASTER\i2c_master.h ****  * @endcode<BR> </p>
 507:C:/Users/Utente/Desktop/Tesi/Firmware_Software/DAVE project/S2GLP_Pulsed_Doppler/Dave/Generated/I2C_MASTER\i2c_master.h ****  *
 508:C:/Users/Utente/Desktop/Tesi/Firmware_Software/DAVE project/S2GLP_Pulsed_Doppler/Dave/Generated/I2C_MASTER\i2c_master.h ****  */
 509:C:/Users/Utente/Desktop/Tesi/Firmware_Software/DAVE project/S2GLP_Pulsed_Doppler/Dave/Generated/I2C_MASTER\i2c_master.h **** void I2C_MASTER_ClearFlag(const I2C_MASTER_t *handle, uint32_t flagtype);
 510:C:/Users/Utente/Desktop/Tesi/Firmware_Software/DAVE project/S2GLP_Pulsed_Doppler/Dave/Generated/I2C_MASTER\i2c_master.h **** 
 511:C:/Users/Utente/Desktop/Tesi/Firmware_Software/DAVE project/S2GLP_Pulsed_Doppler/Dave/Generated/I2C_MASTER\i2c_master.h **** /**
 512:C:/Users/Utente/Desktop/Tesi/Firmware_Software/DAVE project/S2GLP_Pulsed_Doppler/Dave/Generated/I2C_MASTER\i2c_master.h ****  * @brief Aborts the ongoing data transmission.
 513:C:/Users/Utente/Desktop/Tesi/Firmware_Software/DAVE project/S2GLP_Pulsed_Doppler/Dave/Generated/I2C_MASTER\i2c_master.h ****  * @param handle  I2C_MASTER APP handle pointer of type @ref I2C_MASTER_t
 514:C:/Users/Utente/Desktop/Tesi/Firmware_Software/DAVE project/S2GLP_Pulsed_Doppler/Dave/Generated/I2C_MASTER\i2c_master.h ****  * @return I2C_MASTER_STATUS_t status
 515:C:/Users/Utente/Desktop/Tesi/Firmware_Software/DAVE project/S2GLP_Pulsed_Doppler/Dave/Generated/I2C_MASTER\i2c_master.h ****  *
 516:C:/Users/Utente/Desktop/Tesi/Firmware_Software/DAVE project/S2GLP_Pulsed_Doppler/Dave/Generated/I2C_MASTER\i2c_master.h ****  * \par<b>Description:</b><br>
 517:C:/Users/Utente/Desktop/Tesi/Firmware_Software/DAVE project/S2GLP_Pulsed_Doppler/Dave/Generated/I2C_MASTER\i2c_master.h ****  * If there is a transmission in progress, it will be stopped. Once the transmission is stopped, 
 518:C:/Users/Utente/Desktop/Tesi/Firmware_Software/DAVE project/S2GLP_Pulsed_Doppler/Dave/Generated/I2C_MASTER\i2c_master.h ****  * user can start a new transmission without delay.
 519:C:/Users/Utente/Desktop/Tesi/Firmware_Software/DAVE project/S2GLP_Pulsed_Doppler/Dave/Generated/I2C_MASTER\i2c_master.h ****  *
 520:C:/Users/Utente/Desktop/Tesi/Firmware_Software/DAVE project/S2GLP_Pulsed_Doppler/Dave/Generated/I2C_MASTER\i2c_master.h ****  * Pre-requisite: Instantiate I2C_MASTER APP and generate code before using below code snippet.
 521:C:/Users/Utente/Desktop/Tesi/Firmware_Software/DAVE project/S2GLP_Pulsed_Doppler/Dave/Generated/I2C_MASTER\i2c_master.h ****  *
 522:C:/Users/Utente/Desktop/Tesi/Firmware_Software/DAVE project/S2GLP_Pulsed_Doppler/Dave/Generated/I2C_MASTER\i2c_master.h ****  *
 523:C:/Users/Utente/Desktop/Tesi/Firmware_Software/DAVE project/S2GLP_Pulsed_Doppler/Dave/Generated/I2C_MASTER\i2c_master.h ****  * Example Usage:
 524:C:/Users/Utente/Desktop/Tesi/Firmware_Software/DAVE project/S2GLP_Pulsed_Doppler/Dave/Generated/I2C_MASTER\i2c_master.h ****  * @code
 525:C:/Users/Utente/Desktop/Tesi/Firmware_Software/DAVE project/S2GLP_Pulsed_Doppler/Dave/Generated/I2C_MASTER\i2c_master.h ****  *
 526:C:/Users/Utente/Desktop/Tesi/Firmware_Software/DAVE project/S2GLP_Pulsed_Doppler/Dave/Generated/I2C_MASTER\i2c_master.h ****  *  #include <DAVE.h>         //Declarations from DAVE Code Generation (includes SFR declaration)
 527:C:/Users/Utente/Desktop/Tesi/Firmware_Software/DAVE project/S2GLP_Pulsed_Doppler/Dave/Generated/I2C_MASTER\i2c_master.h ****  *  #define SLAVE_ADDRESS 0xA0
 528:C:/Users/Utente/Desktop/Tesi/Firmware_Software/DAVE project/S2GLP_Pulsed_Doppler/Dave/Generated/I2C_MASTER\i2c_master.h ****  *  uint8_t tx_buf[50] = "ABCDEFGHIJKLMNOPQRSTUVWXYZ";
 529:C:/Users/Utente/Desktop/Tesi/Firmware_Software/DAVE project/S2GLP_Pulsed_Doppler/Dave/Generated/I2C_MASTER\i2c_master.h **** 
 530:C:/Users/Utente/Desktop/Tesi/Firmware_Software/DAVE project/S2GLP_Pulsed_Doppler/Dave/Generated/I2C_MASTER\i2c_master.h ****  *  int main(void)
 531:C:/Users/Utente/Desktop/Tesi/Firmware_Software/DAVE project/S2GLP_Pulsed_Doppler/Dave/Generated/I2C_MASTER\i2c_master.h ****  *  {
 532:C:/Users/Utente/Desktop/Tesi/Firmware_Software/DAVE project/S2GLP_Pulsed_Doppler/Dave/Generated/I2C_MASTER\i2c_master.h ****  *    DAVE_STATUS_t init_status;
 533:C:/Users/Utente/Desktop/Tesi/Firmware_Software/DAVE project/S2GLP_Pulsed_Doppler/Dave/Generated/I2C_MASTER\i2c_master.h ****  *    init_status = DAVE_Init();
 534:C:/Users/Utente/Desktop/Tesi/Firmware_Software/DAVE project/S2GLP_Pulsed_Doppler/Dave/Generated/I2C_MASTER\i2c_master.h ****  *    if(init_status == DAVE_STATUS_SUCCESS)
 535:C:/Users/Utente/Desktop/Tesi/Firmware_Software/DAVE project/S2GLP_Pulsed_Doppler/Dave/Generated/I2C_MASTER\i2c_master.h ****  *    {
 536:C:/Users/Utente/Desktop/Tesi/Firmware_Software/DAVE project/S2GLP_Pulsed_Doppler/Dave/Generated/I2C_MASTER\i2c_master.h ****  *      I2C_MASTER_Transmit(&I2C_MASTER_0, true, SLAVE_ADDRESS, &tx_buf[0], 16, true);
 537:C:/Users/Utente/Desktop/Tesi/Firmware_Software/DAVE project/S2GLP_Pulsed_Doppler/Dave/Generated/I2C_MASTER\i2c_master.h ****  *      I2C_MASTER_AbortTransmit(&I2C_MASTER_0);
 538:C:/Users/Utente/Desktop/Tesi/Firmware_Software/DAVE project/S2GLP_Pulsed_Doppler/Dave/Generated/I2C_MASTER\i2c_master.h ****  *      I2C_MASTER_SendStop(&I2C_MASTER_0);
 539:C:/Users/Utente/Desktop/Tesi/Firmware_Software/DAVE project/S2GLP_Pulsed_Doppler/Dave/Generated/I2C_MASTER\i2c_master.h ****  *      I2C_MASTER_Transmit(&I2C_MASTER_0, true, SLAVE_ADDRESS, &tx_buf[0], 16, true);
 540:C:/Users/Utente/Desktop/Tesi/Firmware_Software/DAVE project/S2GLP_Pulsed_Doppler/Dave/Generated/I2C_MASTER\i2c_master.h ****  *      while(I2C_MASTER_IsTxBusy(&I2C_MASTER_0));
 541:C:/Users/Utente/Desktop/Tesi/Firmware_Software/DAVE project/S2GLP_Pulsed_Doppler/Dave/Generated/I2C_MASTER\i2c_master.h ****  *    }
 542:C:/Users/Utente/Desktop/Tesi/Firmware_Software/DAVE project/S2GLP_Pulsed_Doppler/Dave/Generated/I2C_MASTER\i2c_master.h ****  *    while(1U)
 543:C:/Users/Utente/Desktop/Tesi/Firmware_Software/DAVE project/S2GLP_Pulsed_Doppler/Dave/Generated/I2C_MASTER\i2c_master.h ****  *    {
 544:C:/Users/Utente/Desktop/Tesi/Firmware_Software/DAVE project/S2GLP_Pulsed_Doppler/Dave/Generated/I2C_MASTER\i2c_master.h ****  *    }
 545:C:/Users/Utente/Desktop/Tesi/Firmware_Software/DAVE project/S2GLP_Pulsed_Doppler/Dave/Generated/I2C_MASTER\i2c_master.h ****  *
 546:C:/Users/Utente/Desktop/Tesi/Firmware_Software/DAVE project/S2GLP_Pulsed_Doppler/Dave/Generated/I2C_MASTER\i2c_master.h ****  *    return 1U;
 547:C:/Users/Utente/Desktop/Tesi/Firmware_Software/DAVE project/S2GLP_Pulsed_Doppler/Dave/Generated/I2C_MASTER\i2c_master.h ****  *  }
 548:C:/Users/Utente/Desktop/Tesi/Firmware_Software/DAVE project/S2GLP_Pulsed_Doppler/Dave/Generated/I2C_MASTER\i2c_master.h ****  *
 549:C:/Users/Utente/Desktop/Tesi/Firmware_Software/DAVE project/S2GLP_Pulsed_Doppler/Dave/Generated/I2C_MASTER\i2c_master.h ****  * @endcode
 550:C:/Users/Utente/Desktop/Tesi/Firmware_Software/DAVE project/S2GLP_Pulsed_Doppler/Dave/Generated/I2C_MASTER\i2c_master.h ****  *
 551:C:/Users/Utente/Desktop/Tesi/Firmware_Software/DAVE project/S2GLP_Pulsed_Doppler/Dave/Generated/I2C_MASTER\i2c_master.h ****  */
 552:C:/Users/Utente/Desktop/Tesi/Firmware_Software/DAVE project/S2GLP_Pulsed_Doppler/Dave/Generated/I2C_MASTER\i2c_master.h **** I2C_MASTER_STATUS_t I2C_MASTER_AbortTransmit(const I2C_MASTER_t *const handle);
 553:C:/Users/Utente/Desktop/Tesi/Firmware_Software/DAVE project/S2GLP_Pulsed_Doppler/Dave/Generated/I2C_MASTER\i2c_master.h **** 
 554:C:/Users/Utente/Desktop/Tesi/Firmware_Software/DAVE project/S2GLP_Pulsed_Doppler/Dave/Generated/I2C_MASTER\i2c_master.h **** /**
 555:C:/Users/Utente/Desktop/Tesi/Firmware_Software/DAVE project/S2GLP_Pulsed_Doppler/Dave/Generated/I2C_MASTER\i2c_master.h **** * @brief Stops the active data reception request.
 556:C:/Users/Utente/Desktop/Tesi/Firmware_Software/DAVE project/S2GLP_Pulsed_Doppler/Dave/Generated/I2C_MASTER\i2c_master.h ****  * @param handle I2C_MASTER APP handle pointer of type @ref I2C_MASTER_t
 557:C:/Users/Utente/Desktop/Tesi/Firmware_Software/DAVE project/S2GLP_Pulsed_Doppler/Dave/Generated/I2C_MASTER\i2c_master.h ****  * @return I2C_MASTER_STATUS_t status
 558:C:/Users/Utente/Desktop/Tesi/Firmware_Software/DAVE project/S2GLP_Pulsed_Doppler/Dave/Generated/I2C_MASTER\i2c_master.h ****  *
 559:C:/Users/Utente/Desktop/Tesi/Firmware_Software/DAVE project/S2GLP_Pulsed_Doppler/Dave/Generated/I2C_MASTER\i2c_master.h ****  * \par<b>Description:</b><br>
 560:C:/Users/Utente/Desktop/Tesi/Firmware_Software/DAVE project/S2GLP_Pulsed_Doppler/Dave/Generated/I2C_MASTER\i2c_master.h ****  * If a reception is in progress, it will be stopped. When a reception request
 561:C:/Users/Utente/Desktop/Tesi/Firmware_Software/DAVE project/S2GLP_Pulsed_Doppler/Dave/Generated/I2C_MASTER\i2c_master.h ****  * is active, user will not be able to place a new receive request till the active
 562:C:/Users/Utente/Desktop/Tesi/Firmware_Software/DAVE project/S2GLP_Pulsed_Doppler/Dave/Generated/I2C_MASTER\i2c_master.h ****  * reception is complete. This API can stop the progressing reception to make
 563:C:/Users/Utente/Desktop/Tesi/Firmware_Software/DAVE project/S2GLP_Pulsed_Doppler/Dave/Generated/I2C_MASTER\i2c_master.h ****  * a new receive request.
 564:C:/Users/Utente/Desktop/Tesi/Firmware_Software/DAVE project/S2GLP_Pulsed_Doppler/Dave/Generated/I2C_MASTER\i2c_master.h ****  *
 565:C:/Users/Utente/Desktop/Tesi/Firmware_Software/DAVE project/S2GLP_Pulsed_Doppler/Dave/Generated/I2C_MASTER\i2c_master.h ****  * Pre-requisite: Instantiate I2C_MASTER APP and generate code before using below code snippet.
 566:C:/Users/Utente/Desktop/Tesi/Firmware_Software/DAVE project/S2GLP_Pulsed_Doppler/Dave/Generated/I2C_MASTER\i2c_master.h ****  *
 567:C:/Users/Utente/Desktop/Tesi/Firmware_Software/DAVE project/S2GLP_Pulsed_Doppler/Dave/Generated/I2C_MASTER\i2c_master.h ****  * Example Usage:
 568:C:/Users/Utente/Desktop/Tesi/Firmware_Software/DAVE project/S2GLP_Pulsed_Doppler/Dave/Generated/I2C_MASTER\i2c_master.h ****  * @code
 569:C:/Users/Utente/Desktop/Tesi/Firmware_Software/DAVE project/S2GLP_Pulsed_Doppler/Dave/Generated/I2C_MASTER\i2c_master.h ****  *
 570:C:/Users/Utente/Desktop/Tesi/Firmware_Software/DAVE project/S2GLP_Pulsed_Doppler/Dave/Generated/I2C_MASTER\i2c_master.h ****  *  #include <DAVE.h>         //Declarations from DAVE Code Generation (includes SFR declaration)
 571:C:/Users/Utente/Desktop/Tesi/Firmware_Software/DAVE project/S2GLP_Pulsed_Doppler/Dave/Generated/I2C_MASTER\i2c_master.h ****  *  #define SLAVE_ADDRESS 0xA0
 572:C:/Users/Utente/Desktop/Tesi/Firmware_Software/DAVE project/S2GLP_Pulsed_Doppler/Dave/Generated/I2C_MASTER\i2c_master.h ****  *  int main(void)
 573:C:/Users/Utente/Desktop/Tesi/Firmware_Software/DAVE project/S2GLP_Pulsed_Doppler/Dave/Generated/I2C_MASTER\i2c_master.h ****  *  {
 574:C:/Users/Utente/Desktop/Tesi/Firmware_Software/DAVE project/S2GLP_Pulsed_Doppler/Dave/Generated/I2C_MASTER\i2c_master.h ****  *   uint8_t rx_buf[25];
 575:C:/Users/Utente/Desktop/Tesi/Firmware_Software/DAVE project/S2GLP_Pulsed_Doppler/Dave/Generated/I2C_MASTER\i2c_master.h ****  *   uint8_t tx_buf[2];
 576:C:/Users/Utente/Desktop/Tesi/Firmware_Software/DAVE project/S2GLP_Pulsed_Doppler/Dave/Generated/I2C_MASTER\i2c_master.h ****  *   DAVE_STATUS_t init_status;
 577:C:/Users/Utente/Desktop/Tesi/Firmware_Software/DAVE project/S2GLP_Pulsed_Doppler/Dave/Generated/I2C_MASTER\i2c_master.h ****  *   init_status = DAVE_Init();
 578:C:/Users/Utente/Desktop/Tesi/Firmware_Software/DAVE project/S2GLP_Pulsed_Doppler/Dave/Generated/I2C_MASTER\i2c_master.h ****  *   if(init_status == DAVE_STATUS_SUCCESS)
 579:C:/Users/Utente/Desktop/Tesi/Firmware_Software/DAVE project/S2GLP_Pulsed_Doppler/Dave/Generated/I2C_MASTER\i2c_master.h ****  *   {
 580:C:/Users/Utente/Desktop/Tesi/Firmware_Software/DAVE project/S2GLP_Pulsed_Doppler/Dave/Generated/I2C_MASTER\i2c_master.h ****  *     //send the address from which data to be transfered
 581:C:/Users/Utente/Desktop/Tesi/Firmware_Software/DAVE project/S2GLP_Pulsed_Doppler/Dave/Generated/I2C_MASTER\i2c_master.h ****  *     tx_buf[0] = 0;
 582:C:/Users/Utente/Desktop/Tesi/Firmware_Software/DAVE project/S2GLP_Pulsed_Doppler/Dave/Generated/I2C_MASTER\i2c_master.h ****  *     I2C_MASTER_Transmit(&I2C_MASTER_0, true, SLAVE_ADDRESS, &tx_buf[0], 1, false);
 583:C:/Users/Utente/Desktop/Tesi/Firmware_Software/DAVE project/S2GLP_Pulsed_Doppler/Dave/Generated/I2C_MASTER\i2c_master.h ****  *     while(I2C_MASTER_IsTxBusy(&I2C_MASTER_0));
 584:C:/Users/Utente/Desktop/Tesi/Firmware_Software/DAVE project/S2GLP_Pulsed_Doppler/Dave/Generated/I2C_MASTER\i2c_master.h ****  *     I2C_MASTER_Receive(&I2C_MASTER_0, true, SLAVE_ADDRESS, &rx_buf[0], 16, true, true);
 585:C:/Users/Utente/Desktop/Tesi/Firmware_Software/DAVE project/S2GLP_Pulsed_Doppler/Dave/Generated/I2C_MASTER\i2c_master.h ****  *     I2C_MASTER_AbortReceive(&I2C_MASTER_0);
 586:C:/Users/Utente/Desktop/Tesi/Firmware_Software/DAVE project/S2GLP_Pulsed_Doppler/Dave/Generated/I2C_MASTER\i2c_master.h ****  *     I2C_MASTER_SendStop(&I2C_MASTER_0);
 587:C:/Users/Utente/Desktop/Tesi/Firmware_Software/DAVE project/S2GLP_Pulsed_Doppler/Dave/Generated/I2C_MASTER\i2c_master.h ****  *     I2C_MASTER_Transmit(&I2C_MASTER_0, true, SLAVE_ADDRESS, &tx_buf[0], 1, false);
 588:C:/Users/Utente/Desktop/Tesi/Firmware_Software/DAVE project/S2GLP_Pulsed_Doppler/Dave/Generated/I2C_MASTER\i2c_master.h ****  *     while(I2C_MASTER_IsTxBusy(&I2C_MASTER_0));
 589:C:/Users/Utente/Desktop/Tesi/Firmware_Software/DAVE project/S2GLP_Pulsed_Doppler/Dave/Generated/I2C_MASTER\i2c_master.h ****  *     I2C_MASTER_Receive(&I2C_MASTER_0, true, SLAVE_ADDRESS, &rx_buf[0], 16, true, true);
 590:C:/Users/Utente/Desktop/Tesi/Firmware_Software/DAVE project/S2GLP_Pulsed_Doppler/Dave/Generated/I2C_MASTER\i2c_master.h ****  *     while(I2C_MASTER_IsRxBusy(&I2C_MASTER_0));
 591:C:/Users/Utente/Desktop/Tesi/Firmware_Software/DAVE project/S2GLP_Pulsed_Doppler/Dave/Generated/I2C_MASTER\i2c_master.h ****  *   }
 592:C:/Users/Utente/Desktop/Tesi/Firmware_Software/DAVE project/S2GLP_Pulsed_Doppler/Dave/Generated/I2C_MASTER\i2c_master.h ****  *   while(1U)
 593:C:/Users/Utente/Desktop/Tesi/Firmware_Software/DAVE project/S2GLP_Pulsed_Doppler/Dave/Generated/I2C_MASTER\i2c_master.h ****  *   {
 594:C:/Users/Utente/Desktop/Tesi/Firmware_Software/DAVE project/S2GLP_Pulsed_Doppler/Dave/Generated/I2C_MASTER\i2c_master.h ****  *   }
 595:C:/Users/Utente/Desktop/Tesi/Firmware_Software/DAVE project/S2GLP_Pulsed_Doppler/Dave/Generated/I2C_MASTER\i2c_master.h ****  *
 596:C:/Users/Utente/Desktop/Tesi/Firmware_Software/DAVE project/S2GLP_Pulsed_Doppler/Dave/Generated/I2C_MASTER\i2c_master.h ****  *   return 1U;
 597:C:/Users/Utente/Desktop/Tesi/Firmware_Software/DAVE project/S2GLP_Pulsed_Doppler/Dave/Generated/I2C_MASTER\i2c_master.h ****  * }
 598:C:/Users/Utente/Desktop/Tesi/Firmware_Software/DAVE project/S2GLP_Pulsed_Doppler/Dave/Generated/I2C_MASTER\i2c_master.h ****  *
 599:C:/Users/Utente/Desktop/Tesi/Firmware_Software/DAVE project/S2GLP_Pulsed_Doppler/Dave/Generated/I2C_MASTER\i2c_master.h ****  * @endcode
 600:C:/Users/Utente/Desktop/Tesi/Firmware_Software/DAVE project/S2GLP_Pulsed_Doppler/Dave/Generated/I2C_MASTER\i2c_master.h ****  *
 601:C:/Users/Utente/Desktop/Tesi/Firmware_Software/DAVE project/S2GLP_Pulsed_Doppler/Dave/Generated/I2C_MASTER\i2c_master.h ****  */
 602:C:/Users/Utente/Desktop/Tesi/Firmware_Software/DAVE project/S2GLP_Pulsed_Doppler/Dave/Generated/I2C_MASTER\i2c_master.h **** I2C_MASTER_STATUS_t I2C_MASTER_AbortReceive(const I2C_MASTER_t *const handle);
 603:C:/Users/Utente/Desktop/Tesi/Firmware_Software/DAVE project/S2GLP_Pulsed_Doppler/Dave/Generated/I2C_MASTER\i2c_master.h **** 
 604:C:/Users/Utente/Desktop/Tesi/Firmware_Software/DAVE project/S2GLP_Pulsed_Doppler/Dave/Generated/I2C_MASTER\i2c_master.h **** 
 605:C:/Users/Utente/Desktop/Tesi/Firmware_Software/DAVE project/S2GLP_Pulsed_Doppler/Dave/Generated/I2C_MASTER\i2c_master.h **** #if (I2C_MASTER_DMA_TX_ENABLED == 1U) || defined(DOXYGEN)
 606:C:/Users/Utente/Desktop/Tesi/Firmware_Software/DAVE project/S2GLP_Pulsed_Doppler/Dave/Generated/I2C_MASTER\i2c_master.h **** /**
 607:C:/Users/Utente/Desktop/Tesi/Firmware_Software/DAVE project/S2GLP_Pulsed_Doppler/Dave/Generated/I2C_MASTER\i2c_master.h ****  * @brief Registers a request for transmitting data over I2C channel using DMA.
 608:C:/Users/Utente/Desktop/Tesi/Firmware_Software/DAVE project/S2GLP_Pulsed_Doppler/Dave/Generated/I2C_MASTER\i2c_master.h ****  *
 609:C:/Users/Utente/Desktop/Tesi/Firmware_Software/DAVE project/S2GLP_Pulsed_Doppler/Dave/Generated/I2C_MASTER\i2c_master.h ****  * @param  handle  I2C_MASTER APP handle pointer of type @ref I2C_MASTER_t
 610:C:/Users/Utente/Desktop/Tesi/Firmware_Software/DAVE project/S2GLP_Pulsed_Doppler/Dave/Generated/I2C_MASTER\i2c_master.h ****  * @param  block_size size of the block
 611:C:/Users/Utente/Desktop/Tesi/Firmware_Software/DAVE project/S2GLP_Pulsed_Doppler/Dave/Generated/I2C_MASTER\i2c_master.h ****  * @param  addr    address\n
 612:C:/Users/Utente/Desktop/Tesi/Firmware_Software/DAVE project/S2GLP_Pulsed_Doppler/Dave/Generated/I2C_MASTER\i2c_master.h ****  * \b Range: minimum= 1, maximum= 4095.
 613:C:/Users/Utente/Desktop/Tesi/Firmware_Software/DAVE project/S2GLP_Pulsed_Doppler/Dave/Generated/I2C_MASTER\i2c_master.h ****  *
 614:C:/Users/Utente/Desktop/Tesi/Firmware_Software/DAVE project/S2GLP_Pulsed_Doppler/Dave/Generated/I2C_MASTER\i2c_master.h ****  * @return  I2C_MASTER_STATUS_t: Status of transmit request.\n
 615:C:/Users/Utente/Desktop/Tesi/Firmware_Software/DAVE project/S2GLP_Pulsed_Doppler/Dave/Generated/I2C_MASTER\i2c_master.h ****  *                        @ref I2C_MASTER_STATUS_SUCCESS if the request is accepted.\n
 616:C:/Users/Utente/Desktop/Tesi/Firmware_Software/DAVE project/S2GLP_Pulsed_Doppler/Dave/Generated/I2C_MASTER\i2c_master.h ****  *                        @ref I2C_MASTER_STATUS_BUSY if a transmission is in progress.\n
 617:C:/Users/Utente/Desktop/Tesi/Firmware_Software/DAVE project/S2GLP_Pulsed_Doppler/Dave/Generated/I2C_MASTER\i2c_master.h ****  *
 618:C:/Users/Utente/Desktop/Tesi/Firmware_Software/DAVE project/S2GLP_Pulsed_Doppler/Dave/Generated/I2C_MASTER\i2c_master.h ****  * <i>Imp Note:</i> Return value should be validated by user to ensure that the
 619:C:/Users/Utente/Desktop/Tesi/Firmware_Software/DAVE project/S2GLP_Pulsed_Doppler/Dave/Generated/I2C_MASTER\i2c_master.h ****  * request is registered.
 620:C:/Users/Utente/Desktop/Tesi/Firmware_Software/DAVE project/S2GLP_Pulsed_Doppler/Dave/Generated/I2C_MASTER\i2c_master.h ****  *
 621:C:/Users/Utente/Desktop/Tesi/Firmware_Software/DAVE project/S2GLP_Pulsed_Doppler/Dave/Generated/I2C_MASTER\i2c_master.h ****  * \par<b>Description:</b><br>
 622:C:/Users/Utente/Desktop/Tesi/Firmware_Software/DAVE project/S2GLP_Pulsed_Doppler/Dave/Generated/I2C_MASTER\i2c_master.h ****  * The data transmission is accomplished using DMA. User can configure a callback function in the A
 623:C:/Users/Utente/Desktop/Tesi/Firmware_Software/DAVE project/S2GLP_Pulsed_Doppler/Dave/Generated/I2C_MASTER\i2c_master.h ****  * When the data is fully transmitted, the callback function will be executed. The function uses AP
 624:C:/Users/Utente/Desktop/Tesi/Firmware_Software/DAVE project/S2GLP_Pulsed_Doppler/Dave/Generated/I2C_MASTER\i2c_master.h ****  * structure to store the status of transmission.
 625:C:/Users/Utente/Desktop/Tesi/Firmware_Software/DAVE project/S2GLP_Pulsed_Doppler/Dave/Generated/I2C_MASTER\i2c_master.h ****  * This function only registers a data transmission request, if there is no active transmission in 
 626:C:/Users/Utente/Desktop/Tesi/Firmware_Software/DAVE project/S2GLP_Pulsed_Doppler/Dave/Generated/I2C_MASTER\i2c_master.h ****  * Actual data transmission happens through DMA channel.
 627:C:/Users/Utente/Desktop/Tesi/Firmware_Software/DAVE project/S2GLP_Pulsed_Doppler/Dave/Generated/I2C_MASTER\i2c_master.h ****  * A maximum of 4095 bytes can be transmitted in one API call. This limit is because of the DMA sin
 628:C:/Users/Utente/Desktop/Tesi/Firmware_Software/DAVE project/S2GLP_Pulsed_Doppler/Dave/Generated/I2C_MASTER\i2c_master.h ****  * Callback function is executed when all the data bytes are transmitted.
 629:C:/Users/Utente/Desktop/Tesi/Firmware_Software/DAVE project/S2GLP_Pulsed_Doppler/Dave/Generated/I2C_MASTER\i2c_master.h ****  * If a callback function is not configured, user has to poll for the value of \a tx_busy flag of
 630:C:/Users/Utente/Desktop/Tesi/Firmware_Software/DAVE project/S2GLP_Pulsed_Doppler/Dave/Generated/I2C_MASTER\i2c_master.h ****  * the APP handle structure( \a handle->runtime->tx_busy ) to check for
 631:C:/Users/Utente/Desktop/Tesi/Firmware_Software/DAVE project/S2GLP_Pulsed_Doppler/Dave/Generated/I2C_MASTER\i2c_master.h ****  * the completion of data transmission.
 632:C:/Users/Utente/Desktop/Tesi/Firmware_Software/DAVE project/S2GLP_Pulsed_Doppler/Dave/Generated/I2C_MASTER\i2c_master.h ****  * If data more than the block size of 4095 have to be transmitted, user will have to transmit them
 633:C:/Users/Utente/Desktop/Tesi/Firmware_Software/DAVE project/S2GLP_Pulsed_Doppler/Dave/Generated/I2C_MASTER\i2c_master.h ****  * calls to this API.
 634:C:/Users/Utente/Desktop/Tesi/Firmware_Software/DAVE project/S2GLP_Pulsed_Doppler/Dave/Generated/I2C_MASTER\i2c_master.h ****  * \par<b>NOTE: </b><br>
 635:C:/Users/Utente/Desktop/Tesi/Firmware_Software/DAVE project/S2GLP_Pulsed_Doppler/Dave/Generated/I2C_MASTER\i2c_master.h ****  * I2C_MASTER_StartTransmitDMA API can be used in DMA mode.
 636:C:/Users/Utente/Desktop/Tesi/Firmware_Software/DAVE project/S2GLP_Pulsed_Doppler/Dave/Generated/I2C_MASTER\i2c_master.h ****  * Transmit should be configured as "DMA" mode in advanced settings tab. \n
 637:C:/Users/Utente/Desktop/Tesi/Firmware_Software/DAVE project/S2GLP_Pulsed_Doppler/Dave/Generated/I2C_MASTER\i2c_master.h ****  * Address(addr) should reserve an additional bit at the LSB for read/write indication. For example
 638:C:/Users/Utente/Desktop/Tesi/Firmware_Software/DAVE project/S2GLP_Pulsed_Doppler/Dave/Generated/I2C_MASTER\i2c_master.h ****  * be provided as 0x0a. If the address is 10-bit, only most significant bits with the 10-bit identi
 639:C:/Users/Utente/Desktop/Tesi/Firmware_Software/DAVE project/S2GLP_Pulsed_Doppler/Dave/Generated/I2C_MASTER\i2c_master.h ****  * For example, if the 10-bit address is 0x305, the address should be provided as 0xf6(prepend with
 640:C:/Users/Utente/Desktop/Tesi/Firmware_Software/DAVE project/S2GLP_Pulsed_Doppler/Dave/Generated/I2C_MASTER\i2c_master.h ****  * followed by 1-bit field for read/write).<br>
 641:C:/Users/Utente/Desktop/Tesi/Firmware_Software/DAVE project/S2GLP_Pulsed_Doppler/Dave/Generated/I2C_MASTER\i2c_master.h ****  * Example Usage:
 642:C:/Users/Utente/Desktop/Tesi/Firmware_Software/DAVE project/S2GLP_Pulsed_Doppler/Dave/Generated/I2C_MASTER\i2c_master.h ****  *
 643:C:/Users/Utente/Desktop/Tesi/Firmware_Software/DAVE project/S2GLP_Pulsed_Doppler/Dave/Generated/I2C_MASTER\i2c_master.h ****  * @code
 644:C:/Users/Utente/Desktop/Tesi/Firmware_Software/DAVE project/S2GLP_Pulsed_Doppler/Dave/Generated/I2C_MASTER\i2c_master.h ****  *
 645:C:/Users/Utente/Desktop/Tesi/Firmware_Software/DAVE project/S2GLP_Pulsed_Doppler/Dave/Generated/I2C_MASTER\i2c_master.h ****  *  #include <DAVE.h>         //Declarations from DAVE Code Generation (includes SFR declaration)
 646:C:/Users/Utente/Desktop/Tesi/Firmware_Software/DAVE project/S2GLP_Pulsed_Doppler/Dave/Generated/I2C_MASTER\i2c_master.h ****  *  #define SLAVE_ADDRESS 0xA0
 647:C:/Users/Utente/Desktop/Tesi/Firmware_Software/DAVE project/S2GLP_Pulsed_Doppler/Dave/Generated/I2C_MASTER\i2c_master.h ****  *  uint8_t Send_Data[] = "Infineon Technologies";
 648:C:/Users/Utente/Desktop/Tesi/Firmware_Software/DAVE project/S2GLP_Pulsed_Doppler/Dave/Generated/I2C_MASTER\i2c_master.h ****  *  int main(void)
 649:C:/Users/Utente/Desktop/Tesi/Firmware_Software/DAVE project/S2GLP_Pulsed_Doppler/Dave/Generated/I2C_MASTER\i2c_master.h ****  *  {
 650:C:/Users/Utente/Desktop/Tesi/Firmware_Software/DAVE project/S2GLP_Pulsed_Doppler/Dave/Generated/I2C_MASTER\i2c_master.h ****  *    DAVE_STATUS_t init_status;
 651:C:/Users/Utente/Desktop/Tesi/Firmware_Software/DAVE project/S2GLP_Pulsed_Doppler/Dave/Generated/I2C_MASTER\i2c_master.h ****  *
 652:C:/Users/Utente/Desktop/Tesi/Firmware_Software/DAVE project/S2GLP_Pulsed_Doppler/Dave/Generated/I2C_MASTER\i2c_master.h ****  *    init_status = DAVE_Init();
 653:C:/Users/Utente/Desktop/Tesi/Firmware_Software/DAVE project/S2GLP_Pulsed_Doppler/Dave/Generated/I2C_MASTER\i2c_master.h ****  *    if(init_status == DAVE_STATUS_SUCCESS)
 654:C:/Users/Utente/Desktop/Tesi/Firmware_Software/DAVE project/S2GLP_Pulsed_Doppler/Dave/Generated/I2C_MASTER\i2c_master.h ****  *    {
 655:C:/Users/Utente/Desktop/Tesi/Firmware_Software/DAVE project/S2GLP_Pulsed_Doppler/Dave/Generated/I2C_MASTER\i2c_master.h ****  *      I2C_MASTER_SendStart(&I2C_MASTER_0, SLAVE_ADDRESS, XMC_I2C_CH_CMD_WRITE);
 656:C:/Users/Utente/Desktop/Tesi/Firmware_Software/DAVE project/S2GLP_Pulsed_Doppler/Dave/Generated/I2C_MASTER\i2c_master.h ****  *	    while(I2C_MASTER_GetFlagStatus(&I2C_MASTER_0, XMC_I2C_CH_STATUS_FLAG_ACK_RECEIVED) == 0U)
 657:C:/Users/Utente/Desktop/Tesi/Firmware_Software/DAVE project/S2GLP_Pulsed_Doppler/Dave/Generated/I2C_MASTER\i2c_master.h ****  *	    {
 658:C:/Users/Utente/Desktop/Tesi/Firmware_Software/DAVE project/S2GLP_Pulsed_Doppler/Dave/Generated/I2C_MASTER\i2c_master.h ****  *	      // wait for ACK
 659:C:/Users/Utente/Desktop/Tesi/Firmware_Software/DAVE project/S2GLP_Pulsed_Doppler/Dave/Generated/I2C_MASTER\i2c_master.h ****  *	    }
 660:C:/Users/Utente/Desktop/Tesi/Firmware_Software/DAVE project/S2GLP_Pulsed_Doppler/Dave/Generated/I2C_MASTER\i2c_master.h ****  *      I2C_MASTER_ClearFlag(&I2C_MASTER_0,XMC_I2C_CH_STATUS_FLAG_ACK_RECEIVED);
 661:C:/Users/Utente/Desktop/Tesi/Firmware_Software/DAVE project/S2GLP_Pulsed_Doppler/Dave/Generated/I2C_MASTER\i2c_master.h ****  *      // write to address 0
 662:C:/Users/Utente/Desktop/Tesi/Firmware_Software/DAVE project/S2GLP_Pulsed_Doppler/Dave/Generated/I2C_MASTER\i2c_master.h ****  *      I2C_MASTER_TransmitByte(&I2C_MASTER_0, 0x00);
 663:C:/Users/Utente/Desktop/Tesi/Firmware_Software/DAVE project/S2GLP_Pulsed_Doppler/Dave/Generated/I2C_MASTER\i2c_master.h ****  *	    while(I2C_MASTER_GetFlagStatus(&I2C_MASTER_0, XMC_I2C_CH_STATUS_FLAG_ACK_RECEIVED) == 0U)
 664:C:/Users/Utente/Desktop/Tesi/Firmware_Software/DAVE project/S2GLP_Pulsed_Doppler/Dave/Generated/I2C_MASTER\i2c_master.h ****  *	    {
 665:C:/Users/Utente/Desktop/Tesi/Firmware_Software/DAVE project/S2GLP_Pulsed_Doppler/Dave/Generated/I2C_MASTER\i2c_master.h ****  *	      // wait for ACK
 666:C:/Users/Utente/Desktop/Tesi/Firmware_Software/DAVE project/S2GLP_Pulsed_Doppler/Dave/Generated/I2C_MASTER\i2c_master.h ****  *	    }
 667:C:/Users/Utente/Desktop/Tesi/Firmware_Software/DAVE project/S2GLP_Pulsed_Doppler/Dave/Generated/I2C_MASTER\i2c_master.h ****  *      I2C_MASTER_ClearFlag(&I2C_MASTER_0,XMC_I2C_CH_STATUS_FLAG_ACK_RECEIVED);
 668:C:/Users/Utente/Desktop/Tesi/Firmware_Software/DAVE project/S2GLP_Pulsed_Doppler/Dave/Generated/I2C_MASTER\i2c_master.h ****  *      // trigger the DMA
 669:C:/Users/Utente/Desktop/Tesi/Firmware_Software/DAVE project/S2GLP_Pulsed_Doppler/Dave/Generated/I2C_MASTER\i2c_master.h ****  *      I2C_MASTER_StartTransmitDMA(&I2C_MASTER_0, sizeof(Send_Data), Send_Data);
 670:C:/Users/Utente/Desktop/Tesi/Firmware_Software/DAVE project/S2GLP_Pulsed_Doppler/Dave/Generated/I2C_MASTER\i2c_master.h ****  *      while(I2C_MASTER_IsTxBusy(&I2C_MASTER_0));
 671:C:/Users/Utente/Desktop/Tesi/Firmware_Software/DAVE project/S2GLP_Pulsed_Doppler/Dave/Generated/I2C_MASTER\i2c_master.h ****  *    }
 672:C:/Users/Utente/Desktop/Tesi/Firmware_Software/DAVE project/S2GLP_Pulsed_Doppler/Dave/Generated/I2C_MASTER\i2c_master.h ****  *    else
 673:C:/Users/Utente/Desktop/Tesi/Firmware_Software/DAVE project/S2GLP_Pulsed_Doppler/Dave/Generated/I2C_MASTER\i2c_master.h ****  *    {
 674:C:/Users/Utente/Desktop/Tesi/Firmware_Software/DAVE project/S2GLP_Pulsed_Doppler/Dave/Generated/I2C_MASTER\i2c_master.h ****  *      XMC_DEBUG("main: Application initialization failed");
 675:C:/Users/Utente/Desktop/Tesi/Firmware_Software/DAVE project/S2GLP_Pulsed_Doppler/Dave/Generated/I2C_MASTER\i2c_master.h ****  *      while(1U)
 676:C:/Users/Utente/Desktop/Tesi/Firmware_Software/DAVE project/S2GLP_Pulsed_Doppler/Dave/Generated/I2C_MASTER\i2c_master.h ****  *      {
 677:C:/Users/Utente/Desktop/Tesi/Firmware_Software/DAVE project/S2GLP_Pulsed_Doppler/Dave/Generated/I2C_MASTER\i2c_master.h ****  *      }
 678:C:/Users/Utente/Desktop/Tesi/Firmware_Software/DAVE project/S2GLP_Pulsed_Doppler/Dave/Generated/I2C_MASTER\i2c_master.h ****  *    }
 679:C:/Users/Utente/Desktop/Tesi/Firmware_Software/DAVE project/S2GLP_Pulsed_Doppler/Dave/Generated/I2C_MASTER\i2c_master.h ****  *    return 1U;
 680:C:/Users/Utente/Desktop/Tesi/Firmware_Software/DAVE project/S2GLP_Pulsed_Doppler/Dave/Generated/I2C_MASTER\i2c_master.h ****  * }
 681:C:/Users/Utente/Desktop/Tesi/Firmware_Software/DAVE project/S2GLP_Pulsed_Doppler/Dave/Generated/I2C_MASTER\i2c_master.h ****  * @endcode
 682:C:/Users/Utente/Desktop/Tesi/Firmware_Software/DAVE project/S2GLP_Pulsed_Doppler/Dave/Generated/I2C_MASTER\i2c_master.h ****  *
 683:C:/Users/Utente/Desktop/Tesi/Firmware_Software/DAVE project/S2GLP_Pulsed_Doppler/Dave/Generated/I2C_MASTER\i2c_master.h ****  */
 684:C:/Users/Utente/Desktop/Tesi/Firmware_Software/DAVE project/S2GLP_Pulsed_Doppler/Dave/Generated/I2C_MASTER\i2c_master.h **** I2C_MASTER_STATUS_t I2C_MASTER_StartTransmitDMA(const I2C_MASTER_t *const handle, uint32_t block_si
 685:C:/Users/Utente/Desktop/Tesi/Firmware_Software/DAVE project/S2GLP_Pulsed_Doppler/Dave/Generated/I2C_MASTER\i2c_master.h **** #endif
 686:C:/Users/Utente/Desktop/Tesi/Firmware_Software/DAVE project/S2GLP_Pulsed_Doppler/Dave/Generated/I2C_MASTER\i2c_master.h **** 
 687:C:/Users/Utente/Desktop/Tesi/Firmware_Software/DAVE project/S2GLP_Pulsed_Doppler/Dave/Generated/I2C_MASTER\i2c_master.h **** #if (I2C_MASTER_DMA_RX_ENABLED == 1U) || defined(DOXYGEN)
 688:C:/Users/Utente/Desktop/Tesi/Firmware_Software/DAVE project/S2GLP_Pulsed_Doppler/Dave/Generated/I2C_MASTER\i2c_master.h **** /**
 689:C:/Users/Utente/Desktop/Tesi/Firmware_Software/DAVE project/S2GLP_Pulsed_Doppler/Dave/Generated/I2C_MASTER\i2c_master.h ****  * @brief Registers a request for receiving data over I2C_MASTER channel using DMA.
 690:C:/Users/Utente/Desktop/Tesi/Firmware_Software/DAVE project/S2GLP_Pulsed_Doppler/Dave/Generated/I2C_MASTER\i2c_master.h ****  *
 691:C:/Users/Utente/Desktop/Tesi/Firmware_Software/DAVE project/S2GLP_Pulsed_Doppler/Dave/Generated/I2C_MASTER\i2c_master.h ****  *
 692:C:/Users/Utente/Desktop/Tesi/Firmware_Software/DAVE project/S2GLP_Pulsed_Doppler/Dave/Generated/I2C_MASTER\i2c_master.h ****  * @param  handle  Pointer to I2C_MASTER_t handle structure
 693:C:/Users/Utente/Desktop/Tesi/Firmware_Software/DAVE project/S2GLP_Pulsed_Doppler/Dave/Generated/I2C_MASTER\i2c_master.h ****  * @param block_size  size of the block
 694:C:/Users/Utente/Desktop/Tesi/Firmware_Software/DAVE project/S2GLP_Pulsed_Doppler/Dave/Generated/I2C_MASTER\i2c_master.h ****  * @param  addr  address \n
 695:C:/Users/Utente/Desktop/Tesi/Firmware_Software/DAVE project/S2GLP_Pulsed_Doppler/Dave/Generated/I2C_MASTER\i2c_master.h ****  * \b Range: minimum= 1, maximum= 4095.
 696:C:/Users/Utente/Desktop/Tesi/Firmware_Software/DAVE project/S2GLP_Pulsed_Doppler/Dave/Generated/I2C_MASTER\i2c_master.h ****  *
 697:C:/Users/Utente/Desktop/Tesi/Firmware_Software/DAVE project/S2GLP_Pulsed_Doppler/Dave/Generated/I2C_MASTER\i2c_master.h ****  * @return  I2C_MASTER_STATUS_t: Status for receive request.\n
 698:C:/Users/Utente/Desktop/Tesi/Firmware_Software/DAVE project/S2GLP_Pulsed_Doppler/Dave/Generated/I2C_MASTER\i2c_master.h ****  *                        @ref I2C_MASTER_STATUS_SUCCESS if the request is accepted.\n
 699:C:/Users/Utente/Desktop/Tesi/Firmware_Software/DAVE project/S2GLP_Pulsed_Doppler/Dave/Generated/I2C_MASTER\i2c_master.h ****  *                        @ref I2C_MASTER_STATUS_BUSY if a reception is in progress.\n
 700:C:/Users/Utente/Desktop/Tesi/Firmware_Software/DAVE project/S2GLP_Pulsed_Doppler/Dave/Generated/I2C_MASTER\i2c_master.h ****  *
 701:C:/Users/Utente/Desktop/Tesi/Firmware_Software/DAVE project/S2GLP_Pulsed_Doppler/Dave/Generated/I2C_MASTER\i2c_master.h ****  * \par<b>Description:</b><br>
 702:C:/Users/Utente/Desktop/Tesi/Firmware_Software/DAVE project/S2GLP_Pulsed_Doppler/Dave/Generated/I2C_MASTER\i2c_master.h ****  * Data will be received asynchronously. When the requested number of data bytes are received, opti
 703:C:/Users/Utente/Desktop/Tesi/Firmware_Software/DAVE project/S2GLP_Pulsed_Doppler/Dave/Generated/I2C_MASTER\i2c_master.h ****  * configured callback function will be executed.
 704:C:/Users/Utente/Desktop/Tesi/Firmware_Software/DAVE project/S2GLP_Pulsed_Doppler/Dave/Generated/I2C_MASTER\i2c_master.h ****  * This function only registers a request to receive a number of data bytes from a USIC channel.
 705:C:/Users/Utente/Desktop/Tesi/Firmware_Software/DAVE project/S2GLP_Pulsed_Doppler/Dave/Generated/I2C_MASTER\i2c_master.h ****  * When all the requested number of data bytes are received, the configured callback function will 
 706:C:/Users/Utente/Desktop/Tesi/Firmware_Software/DAVE project/S2GLP_Pulsed_Doppler/Dave/Generated/I2C_MASTER\i2c_master.h ****  * If a callback function is not configured, the user has to poll for the value of the variable, \a
 707:C:/Users/Utente/Desktop/Tesi/Firmware_Software/DAVE project/S2GLP_Pulsed_Doppler/Dave/Generated/I2C_MASTER\i2c_master.h ****  * handle->runtime->rx_busy to be false. The value is updated to \a false when all the requested nu
 708:C:/Users/Utente/Desktop/Tesi/Firmware_Software/DAVE project/S2GLP_Pulsed_Doppler/Dave/Generated/I2C_MASTER\i2c_master.h ****  * are received.
 709:C:/Users/Utente/Desktop/Tesi/Firmware_Software/DAVE project/S2GLP_Pulsed_Doppler/Dave/Generated/I2C_MASTER\i2c_master.h ****  * A maximum of 4095 bytes can be received in one API call. This limit is because of the DMA single
 710:C:/Users/Utente/Desktop/Tesi/Firmware_Software/DAVE project/S2GLP_Pulsed_Doppler/Dave/Generated/I2C_MASTER\i2c_master.h ****  *
 711:C:/Users/Utente/Desktop/Tesi/Firmware_Software/DAVE project/S2GLP_Pulsed_Doppler/Dave/Generated/I2C_MASTER\i2c_master.h ****  * \par<b>NOTE: </b><br>: I2C_MASTER_StartReceiveDMA API can be used only in DMA mode
 712:C:/Users/Utente/Desktop/Tesi/Firmware_Software/DAVE project/S2GLP_Pulsed_Doppler/Dave/Generated/I2C_MASTER\i2c_master.h ****  * Receive should be configured as "DMA" mode in advanced settings tab \n
 713:C:/Users/Utente/Desktop/Tesi/Firmware_Software/DAVE project/S2GLP_Pulsed_Doppler/Dave/Generated/I2C_MASTER\i2c_master.h ****  * Address(addr) should reserve an additional bit at the LSB for read/write indication. For example
 714:C:/Users/Utente/Desktop/Tesi/Firmware_Software/DAVE project/S2GLP_Pulsed_Doppler/Dave/Generated/I2C_MASTER\i2c_master.h ****  * be provided as 0x0a. If the address is 10-bit, only most significant bits with the 10-bit identi
 715:C:/Users/Utente/Desktop/Tesi/Firmware_Software/DAVE project/S2GLP_Pulsed_Doppler/Dave/Generated/I2C_MASTER\i2c_master.h ****  * For example, if the 10-bit address is 0x305, the address should be provided as 0xf6(prepend with
 716:C:/Users/Utente/Desktop/Tesi/Firmware_Software/DAVE project/S2GLP_Pulsed_Doppler/Dave/Generated/I2C_MASTER\i2c_master.h ****  * followed by 1-bit field for read/write).<br>
 717:C:/Users/Utente/Desktop/Tesi/Firmware_Software/DAVE project/S2GLP_Pulsed_Doppler/Dave/Generated/I2C_MASTER\i2c_master.h ****  *
 718:C:/Users/Utente/Desktop/Tesi/Firmware_Software/DAVE project/S2GLP_Pulsed_Doppler/Dave/Generated/I2C_MASTER\i2c_master.h ****  * Example Usage:
 719:C:/Users/Utente/Desktop/Tesi/Firmware_Software/DAVE project/S2GLP_Pulsed_Doppler/Dave/Generated/I2C_MASTER\i2c_master.h ****  * @code
 720:C:/Users/Utente/Desktop/Tesi/Firmware_Software/DAVE project/S2GLP_Pulsed_Doppler/Dave/Generated/I2C_MASTER\i2c_master.h ****  *
 721:C:/Users/Utente/Desktop/Tesi/Firmware_Software/DAVE project/S2GLP_Pulsed_Doppler/Dave/Generated/I2C_MASTER\i2c_master.h ****  *  #include <DAVE.h>         //Declarations from DAVE Code Generation (includes SFR declaration)
 722:C:/Users/Utente/Desktop/Tesi/Firmware_Software/DAVE project/S2GLP_Pulsed_Doppler/Dave/Generated/I2C_MASTER\i2c_master.h ****  *  #define SLAVE_ADDRESS 0xA0
 723:C:/Users/Utente/Desktop/Tesi/Firmware_Software/DAVE project/S2GLP_Pulsed_Doppler/Dave/Generated/I2C_MASTER\i2c_master.h ****  *  //Pre condition:
 724:C:/Users/Utente/Desktop/Tesi/Firmware_Software/DAVE project/S2GLP_Pulsed_Doppler/Dave/Generated/I2C_MASTER\i2c_master.h ****  *  //Transmit mode and receive mode should be configured to "DMA" in advanced settings tab
 725:C:/Users/Utente/Desktop/Tesi/Firmware_Software/DAVE project/S2GLP_Pulsed_Doppler/Dave/Generated/I2C_MASTER\i2c_master.h ****  *
 726:C:/Users/Utente/Desktop/Tesi/Firmware_Software/DAVE project/S2GLP_Pulsed_Doppler/Dave/Generated/I2C_MASTER\i2c_master.h ****  *  uint8_t ReadData[256];
 727:C:/Users/Utente/Desktop/Tesi/Firmware_Software/DAVE project/S2GLP_Pulsed_Doppler/Dave/Generated/I2C_MASTER\i2c_master.h ****  *  int main(void)
 728:C:/Users/Utente/Desktop/Tesi/Firmware_Software/DAVE project/S2GLP_Pulsed_Doppler/Dave/Generated/I2C_MASTER\i2c_master.h ****  *  {
 729:C:/Users/Utente/Desktop/Tesi/Firmware_Software/DAVE project/S2GLP_Pulsed_Doppler/Dave/Generated/I2C_MASTER\i2c_master.h ****  *    DAVE_STATUS_t init_status;
 730:C:/Users/Utente/Desktop/Tesi/Firmware_Software/DAVE project/S2GLP_Pulsed_Doppler/Dave/Generated/I2C_MASTER\i2c_master.h ****  *
 731:C:/Users/Utente/Desktop/Tesi/Firmware_Software/DAVE project/S2GLP_Pulsed_Doppler/Dave/Generated/I2C_MASTER\i2c_master.h ****  *    init_status = DAVE_Init();
 732:C:/Users/Utente/Desktop/Tesi/Firmware_Software/DAVE project/S2GLP_Pulsed_Doppler/Dave/Generated/I2C_MASTER\i2c_master.h ****  *    if(init_status == DAVE_STATUS_SUCCESS)
 733:C:/Users/Utente/Desktop/Tesi/Firmware_Software/DAVE project/S2GLP_Pulsed_Doppler/Dave/Generated/I2C_MASTER\i2c_master.h ****  *    {
 734:C:/Users/Utente/Desktop/Tesi/Firmware_Software/DAVE project/S2GLP_Pulsed_Doppler/Dave/Generated/I2C_MASTER\i2c_master.h ****  *      I2C_MASTER_SendStart(&I2C_MASTER_0, SLAVE_ADDRESS, XMC_I2C_CH_CMD_WRITE);
 735:C:/Users/Utente/Desktop/Tesi/Firmware_Software/DAVE project/S2GLP_Pulsed_Doppler/Dave/Generated/I2C_MASTER\i2c_master.h ****  *	    while(I2C_MASTER_GetFlagStatus(&I2C_MASTER_0, XMC_I2C_CH_STATUS_FLAG_ACK_RECEIVED) == 0U)
 736:C:/Users/Utente/Desktop/Tesi/Firmware_Software/DAVE project/S2GLP_Pulsed_Doppler/Dave/Generated/I2C_MASTER\i2c_master.h ****  *	    {
 737:C:/Users/Utente/Desktop/Tesi/Firmware_Software/DAVE project/S2GLP_Pulsed_Doppler/Dave/Generated/I2C_MASTER\i2c_master.h ****  *	      // wait for ACK
 738:C:/Users/Utente/Desktop/Tesi/Firmware_Software/DAVE project/S2GLP_Pulsed_Doppler/Dave/Generated/I2C_MASTER\i2c_master.h ****  *	    }
 739:C:/Users/Utente/Desktop/Tesi/Firmware_Software/DAVE project/S2GLP_Pulsed_Doppler/Dave/Generated/I2C_MASTER\i2c_master.h ****  *      I2C_MASTER_ClearFlag(&I2C_MASTER_0,XMC_I2C_CH_STATUS_FLAG_ACK_RECEIVED);
 740:C:/Users/Utente/Desktop/Tesi/Firmware_Software/DAVE project/S2GLP_Pulsed_Doppler/Dave/Generated/I2C_MASTER\i2c_master.h ****  *      // write to address 0
 741:C:/Users/Utente/Desktop/Tesi/Firmware_Software/DAVE project/S2GLP_Pulsed_Doppler/Dave/Generated/I2C_MASTER\i2c_master.h ****  *      I2C_MASTER_TransmitByte(&I2C_MASTER_0, 0x00);
 742:C:/Users/Utente/Desktop/Tesi/Firmware_Software/DAVE project/S2GLP_Pulsed_Doppler/Dave/Generated/I2C_MASTER\i2c_master.h ****  *	    while(I2C_MASTER_GetFlagStatus(&I2C_MASTER_0, XMC_I2C_CH_STATUS_FLAG_ACK_RECEIVED) == 0U)
 743:C:/Users/Utente/Desktop/Tesi/Firmware_Software/DAVE project/S2GLP_Pulsed_Doppler/Dave/Generated/I2C_MASTER\i2c_master.h ****  *	    {
 744:C:/Users/Utente/Desktop/Tesi/Firmware_Software/DAVE project/S2GLP_Pulsed_Doppler/Dave/Generated/I2C_MASTER\i2c_master.h ****  *	      // wait for ACK
 745:C:/Users/Utente/Desktop/Tesi/Firmware_Software/DAVE project/S2GLP_Pulsed_Doppler/Dave/Generated/I2C_MASTER\i2c_master.h ****  *	    }
 746:C:/Users/Utente/Desktop/Tesi/Firmware_Software/DAVE project/S2GLP_Pulsed_Doppler/Dave/Generated/I2C_MASTER\i2c_master.h ****  *      I2C_MASTER_ClearFlag(&I2C_MASTER_0,XMC_I2C_CH_STATUS_FLAG_ACK_RECEIVED);
 747:C:/Users/Utente/Desktop/Tesi/Firmware_Software/DAVE project/S2GLP_Pulsed_Doppler/Dave/Generated/I2C_MASTER\i2c_master.h ****  *      I2C_MASTER_SendRepeatedStart(&I2C_MASTER_0, SLAVE_ADDRESS, XMC_I2C_CH_CMD_READ);
 748:C:/Users/Utente/Desktop/Tesi/Firmware_Software/DAVE project/S2GLP_Pulsed_Doppler/Dave/Generated/I2C_MASTER\i2c_master.h ****  *	    while(I2C_MASTER_GetFlagStatus(&I2C_MASTER_0, XMC_I2C_CH_STATUS_FLAG_ACK_RECEIVED) == 0U)
 749:C:/Users/Utente/Desktop/Tesi/Firmware_Software/DAVE project/S2GLP_Pulsed_Doppler/Dave/Generated/I2C_MASTER\i2c_master.h ****  *	    {
 750:C:/Users/Utente/Desktop/Tesi/Firmware_Software/DAVE project/S2GLP_Pulsed_Doppler/Dave/Generated/I2C_MASTER\i2c_master.h ****  *	      // wait for ACK
 751:C:/Users/Utente/Desktop/Tesi/Firmware_Software/DAVE project/S2GLP_Pulsed_Doppler/Dave/Generated/I2C_MASTER\i2c_master.h ****  *	    }
 752:C:/Users/Utente/Desktop/Tesi/Firmware_Software/DAVE project/S2GLP_Pulsed_Doppler/Dave/Generated/I2C_MASTER\i2c_master.h ****  *      I2C_MASTER_ClearFlag(&I2C_MASTER_0,XMC_I2C_CH_STATUS_FLAG_ACK_RECEIVED);
 753:C:/Users/Utente/Desktop/Tesi/Firmware_Software/DAVE project/S2GLP_Pulsed_Doppler/Dave/Generated/I2C_MASTER\i2c_master.h ****  
 754:C:/Users/Utente/Desktop/Tesi/Firmware_Software/DAVE project/S2GLP_Pulsed_Doppler/Dave/Generated/I2C_MASTER\i2c_master.h ****  *      I2C_MASTER_StartReceiveDMA(&I2C_MASTER_0, 200, ReadData);
 755:C:/Users/Utente/Desktop/Tesi/Firmware_Software/DAVE project/S2GLP_Pulsed_Doppler/Dave/Generated/I2C_MASTER\i2c_master.h ****  *      while(I2C_MASTER_IsRxBusy(&I2C_MASTER_0));
 756:C:/Users/Utente/Desktop/Tesi/Firmware_Software/DAVE project/S2GLP_Pulsed_Doppler/Dave/Generated/I2C_MASTER\i2c_master.h ****  *    }
 757:C:/Users/Utente/Desktop/Tesi/Firmware_Software/DAVE project/S2GLP_Pulsed_Doppler/Dave/Generated/I2C_MASTER\i2c_master.h ****  *    else
 758:C:/Users/Utente/Desktop/Tesi/Firmware_Software/DAVE project/S2GLP_Pulsed_Doppler/Dave/Generated/I2C_MASTER\i2c_master.h ****  *    {
 759:C:/Users/Utente/Desktop/Tesi/Firmware_Software/DAVE project/S2GLP_Pulsed_Doppler/Dave/Generated/I2C_MASTER\i2c_master.h ****  *      XMC_DEBUG("main: Application initialization failed");
 760:C:/Users/Utente/Desktop/Tesi/Firmware_Software/DAVE project/S2GLP_Pulsed_Doppler/Dave/Generated/I2C_MASTER\i2c_master.h ****  *      while(1U)
 761:C:/Users/Utente/Desktop/Tesi/Firmware_Software/DAVE project/S2GLP_Pulsed_Doppler/Dave/Generated/I2C_MASTER\i2c_master.h ****  *      {
 762:C:/Users/Utente/Desktop/Tesi/Firmware_Software/DAVE project/S2GLP_Pulsed_Doppler/Dave/Generated/I2C_MASTER\i2c_master.h ****  *      }
 763:C:/Users/Utente/Desktop/Tesi/Firmware_Software/DAVE project/S2GLP_Pulsed_Doppler/Dave/Generated/I2C_MASTER\i2c_master.h ****  *    }
 764:C:/Users/Utente/Desktop/Tesi/Firmware_Software/DAVE project/S2GLP_Pulsed_Doppler/Dave/Generated/I2C_MASTER\i2c_master.h ****  *    return 1U;
 765:C:/Users/Utente/Desktop/Tesi/Firmware_Software/DAVE project/S2GLP_Pulsed_Doppler/Dave/Generated/I2C_MASTER\i2c_master.h ****  *  }
 766:C:/Users/Utente/Desktop/Tesi/Firmware_Software/DAVE project/S2GLP_Pulsed_Doppler/Dave/Generated/I2C_MASTER\i2c_master.h ****  *  @endcode
 767:C:/Users/Utente/Desktop/Tesi/Firmware_Software/DAVE project/S2GLP_Pulsed_Doppler/Dave/Generated/I2C_MASTER\i2c_master.h ****  *
 768:C:/Users/Utente/Desktop/Tesi/Firmware_Software/DAVE project/S2GLP_Pulsed_Doppler/Dave/Generated/I2C_MASTER\i2c_master.h ****  */
 769:C:/Users/Utente/Desktop/Tesi/Firmware_Software/DAVE project/S2GLP_Pulsed_Doppler/Dave/Generated/I2C_MASTER\i2c_master.h **** I2C_MASTER_STATUS_t I2C_MASTER_StartReceiveDMA(const I2C_MASTER_t *const handle, uint32_t block_siz
 770:C:/Users/Utente/Desktop/Tesi/Firmware_Software/DAVE project/S2GLP_Pulsed_Doppler/Dave/Generated/I2C_MASTER\i2c_master.h **** #endif
 771:C:/Users/Utente/Desktop/Tesi/Firmware_Software/DAVE project/S2GLP_Pulsed_Doppler/Dave/Generated/I2C_MASTER\i2c_master.h **** 
 772:C:/Users/Utente/Desktop/Tesi/Firmware_Software/DAVE project/S2GLP_Pulsed_Doppler/Dave/Generated/I2C_MASTER\i2c_master.h **** #if (I2C_MASTER_INTERRUPT_TX_ENABLED == 1U)
 773:C:/Users/Utente/Desktop/Tesi/Firmware_Software/DAVE project/S2GLP_Pulsed_Doppler/Dave/Generated/I2C_MASTER\i2c_master.h **** /**
 774:C:/Users/Utente/Desktop/Tesi/Firmware_Software/DAVE project/S2GLP_Pulsed_Doppler/Dave/Generated/I2C_MASTER\i2c_master.h ****  * @brief Registers a request for transmitting data over I2C_MASTER channel.
 775:C:/Users/Utente/Desktop/Tesi/Firmware_Software/DAVE project/S2GLP_Pulsed_Doppler/Dave/Generated/I2C_MASTER\i2c_master.h ****  *
 776:C:/Users/Utente/Desktop/Tesi/Firmware_Software/DAVE project/S2GLP_Pulsed_Doppler/Dave/Generated/I2C_MASTER\i2c_master.h ****  * @param  handle  I2C_MASTER APP handle pointer of type @ref I2C_MASTER_t
 777:C:/Users/Utente/Desktop/Tesi/Firmware_Software/DAVE project/S2GLP_Pulsed_Doppler/Dave/Generated/I2C_MASTER\i2c_master.h ****  * @param  send_start flag to indicate the start condition
 778:C:/Users/Utente/Desktop/Tesi/Firmware_Software/DAVE project/S2GLP_Pulsed_Doppler/Dave/Generated/I2C_MASTER\i2c_master.h ****  * @param  address slave address
 779:C:/Users/Utente/Desktop/Tesi/Firmware_Software/DAVE project/S2GLP_Pulsed_Doppler/Dave/Generated/I2C_MASTER\i2c_master.h ****  * @param  data    pointer to buffer
 780:C:/Users/Utente/Desktop/Tesi/Firmware_Software/DAVE project/S2GLP_Pulsed_Doppler/Dave/Generated/I2C_MASTER\i2c_master.h ****  * @param  size    number of bytes
 781:C:/Users/Utente/Desktop/Tesi/Firmware_Software/DAVE project/S2GLP_Pulsed_Doppler/Dave/Generated/I2C_MASTER\i2c_master.h ****  * @param  send_stop flag to indicate the stop condition\n
 782:C:/Users/Utente/Desktop/Tesi/Firmware_Software/DAVE project/S2GLP_Pulsed_Doppler/Dave/Generated/I2C_MASTER\i2c_master.h ****  * \b Range: minimum= 1, maximum= maximum supported by uint32_t.
 783:C:/Users/Utente/Desktop/Tesi/Firmware_Software/DAVE project/S2GLP_Pulsed_Doppler/Dave/Generated/I2C_MASTER\i2c_master.h ****  *
 784:C:/Users/Utente/Desktop/Tesi/Firmware_Software/DAVE project/S2GLP_Pulsed_Doppler/Dave/Generated/I2C_MASTER\i2c_master.h ****  * @return  I2C_MASTER_STATUS_t: Status of transmit request.\n
 785:C:/Users/Utente/Desktop/Tesi/Firmware_Software/DAVE project/S2GLP_Pulsed_Doppler/Dave/Generated/I2C_MASTER\i2c_master.h ****  *                        @ref I2C_MASTER_STATUS_SUCCESS if the request is accepted.\n
 786:C:/Users/Utente/Desktop/Tesi/Firmware_Software/DAVE project/S2GLP_Pulsed_Doppler/Dave/Generated/I2C_MASTER\i2c_master.h ****  *                        @ref I2C_MASTER_STATUS_BUSY if a transmission is in progress.\n
 787:C:/Users/Utente/Desktop/Tesi/Firmware_Software/DAVE project/S2GLP_Pulsed_Doppler/Dave/Generated/I2C_MASTER\i2c_master.h ****  *
 788:C:/Users/Utente/Desktop/Tesi/Firmware_Software/DAVE project/S2GLP_Pulsed_Doppler/Dave/Generated/I2C_MASTER\i2c_master.h ****  * <i>Imp Note:</i> Return value should be validated by user to ensure that the
 789:C:/Users/Utente/Desktop/Tesi/Firmware_Software/DAVE project/S2GLP_Pulsed_Doppler/Dave/Generated/I2C_MASTER\i2c_master.h ****  * request is registered.
 790:C:/Users/Utente/Desktop/Tesi/Firmware_Software/DAVE project/S2GLP_Pulsed_Doppler/Dave/Generated/I2C_MASTER\i2c_master.h ****  *
 791:C:/Users/Utente/Desktop/Tesi/Firmware_Software/DAVE project/S2GLP_Pulsed_Doppler/Dave/Generated/I2C_MASTER\i2c_master.h ****  * \par<b>Description:</b><br>
 792:C:/Users/Utente/Desktop/Tesi/Firmware_Software/DAVE project/S2GLP_Pulsed_Doppler/Dave/Generated/I2C_MASTER\i2c_master.h ****  * The data transmission is accomplished using transmit interrupt. User can configure a callback fu
 793:C:/Users/Utente/Desktop/Tesi/Firmware_Software/DAVE project/S2GLP_Pulsed_Doppler/Dave/Generated/I2C_MASTER\i2c_master.h ****  * When the data is fully transmitted, the callback function will be executed. If transmit FIFO is 
 794:C:/Users/Utente/Desktop/Tesi/Firmware_Software/DAVE project/S2GLP_Pulsed_Doppler/Dave/Generated/I2C_MASTER\i2c_master.h ****  * the trigger limit is set to 1. So the transmit interrupt will be generated when all the data in 
 795:C:/Users/Utente/Desktop/Tesi/Firmware_Software/DAVE project/S2GLP_Pulsed_Doppler/Dave/Generated/I2C_MASTER\i2c_master.h ****  * from FIFO. The function uses APP handle's runtime structure to store the data pointer, count, da
 796:C:/Users/Utente/Desktop/Tesi/Firmware_Software/DAVE project/S2GLP_Pulsed_Doppler/Dave/Generated/I2C_MASTER\i2c_master.h ****  * status of transmission. This function only registers a data transmission request if there is no 
 797:C:/Users/Utente/Desktop/Tesi/Firmware_Software/DAVE project/S2GLP_Pulsed_Doppler/Dave/Generated/I2C_MASTER\i2c_master.h ****  * in progress.
 798:C:/Users/Utente/Desktop/Tesi/Firmware_Software/DAVE project/S2GLP_Pulsed_Doppler/Dave/Generated/I2C_MASTER\i2c_master.h ****  * Actual data transmission happens in the transmit interrupt service routine. A trigger is generat
 799:C:/Users/Utente/Desktop/Tesi/Firmware_Software/DAVE project/S2GLP_Pulsed_Doppler/Dave/Generated/I2C_MASTER\i2c_master.h ****  * interrupt to start loading the data. If transmit FIFO is configured, the data is filled into the
 800:C:/Users/Utente/Desktop/Tesi/Firmware_Software/DAVE project/S2GLP_Pulsed_Doppler/Dave/Generated/I2C_MASTER\i2c_master.h ****  * Transmit interrupt will be generated next time when the transmit FIFO is empty. At this point of
 801:C:/Users/Utente/Desktop/Tesi/Firmware_Software/DAVE project/S2GLP_Pulsed_Doppler/Dave/Generated/I2C_MASTER\i2c_master.h ****  * some more data to be transmitted, it is loaded to the FIFO again. When FIFO is not enabled, data
 802:C:/Users/Utente/Desktop/Tesi/Firmware_Software/DAVE project/S2GLP_Pulsed_Doppler/Dave/Generated/I2C_MASTER\i2c_master.h ****  * byte at a time. On transmission of each byte an interrupt is generated and the next byte is tran
 803:C:/Users/Utente/Desktop/Tesi/Firmware_Software/DAVE project/S2GLP_Pulsed_Doppler/Dave/Generated/I2C_MASTER\i2c_master.h ****  * interrupt service routine. Callback function is executed when all the data bytes are transmitted
 804:C:/Users/Utente/Desktop/Tesi/Firmware_Software/DAVE project/S2GLP_Pulsed_Doppler/Dave/Generated/I2C_MASTER\i2c_master.h ****  * If a callback function is not configured, user has to poll for the value of \a tx_busy flag of t
 805:C:/Users/Utente/Desktop/Tesi/Firmware_Software/DAVE project/S2GLP_Pulsed_Doppler/Dave/Generated/I2C_MASTER\i2c_master.h ****  * structure( \a handle->runtime->tx_busy ) to check for the completion of data transmission.<br>
 806:C:/Users/Utente/Desktop/Tesi/Firmware_Software/DAVE project/S2GLP_Pulsed_Doppler/Dave/Generated/I2C_MASTER\i2c_master.h ****  * \par<b>NOTE: </b><br>: I2C_MASTER_StartTransmitIRQ API can be used only in Interrupt mode.
 807:C:/Users/Utente/Desktop/Tesi/Firmware_Software/DAVE project/S2GLP_Pulsed_Doppler/Dave/Generated/I2C_MASTER\i2c_master.h ****  * Transmit should be configured as "Interrupt" mode in advanced settings tab.\n
 808:C:/Users/Utente/Desktop/Tesi/Firmware_Software/DAVE project/S2GLP_Pulsed_Doppler/Dave/Generated/I2C_MASTER\i2c_master.h ****  * Address(address) should reserve an additional bit at the LSB for read/write indication. For exam
 809:C:/Users/Utente/Desktop/Tesi/Firmware_Software/DAVE project/S2GLP_Pulsed_Doppler/Dave/Generated/I2C_MASTER\i2c_master.h ****  * be provided as 0x0a. If the address is 10-bit, only most significant bits with the 10-bit identi
 810:C:/Users/Utente/Desktop/Tesi/Firmware_Software/DAVE project/S2GLP_Pulsed_Doppler/Dave/Generated/I2C_MASTER\i2c_master.h ****  * For example, if the 10-bit address is 0x305, the address should be provided as 0xf6(prepend with
 811:C:/Users/Utente/Desktop/Tesi/Firmware_Software/DAVE project/S2GLP_Pulsed_Doppler/Dave/Generated/I2C_MASTER\i2c_master.h ****  * followed by 1-bit field for read/write).
 812:C:/Users/Utente/Desktop/Tesi/Firmware_Software/DAVE project/S2GLP_Pulsed_Doppler/Dave/Generated/I2C_MASTER\i2c_master.h ****  *
 813:C:/Users/Utente/Desktop/Tesi/Firmware_Software/DAVE project/S2GLP_Pulsed_Doppler/Dave/Generated/I2C_MASTER\i2c_master.h ****  * @code
 814:C:/Users/Utente/Desktop/Tesi/Firmware_Software/DAVE project/S2GLP_Pulsed_Doppler/Dave/Generated/I2C_MASTER\i2c_master.h ****  *
 815:C:/Users/Utente/Desktop/Tesi/Firmware_Software/DAVE project/S2GLP_Pulsed_Doppler/Dave/Generated/I2C_MASTER\i2c_master.h ****  *  #include <DAVE.h>
 816:C:/Users/Utente/Desktop/Tesi/Firmware_Software/DAVE project/S2GLP_Pulsed_Doppler/Dave/Generated/I2C_MASTER\i2c_master.h ****  *  #define SLAVE_ADDRESS 0xA0
 817:C:/Users/Utente/Desktop/Tesi/Firmware_Software/DAVE project/S2GLP_Pulsed_Doppler/Dave/Generated/I2C_MASTER\i2c_master.h ****  *  uint8_t tx_buffer[64] = {0x01,0x02,0x03,0x04,0x05};
 818:C:/Users/Utente/Desktop/Tesi/Firmware_Software/DAVE project/S2GLP_Pulsed_Doppler/Dave/Generated/I2C_MASTER\i2c_master.h ****  *  uint8_t mem_address[2];
 819:C:/Users/Utente/Desktop/Tesi/Firmware_Software/DAVE project/S2GLP_Pulsed_Doppler/Dave/Generated/I2C_MASTER\i2c_master.h ****  *
 820:C:/Users/Utente/Desktop/Tesi/Firmware_Software/DAVE project/S2GLP_Pulsed_Doppler/Dave/Generated/I2C_MASTER\i2c_master.h ****  *  int main(void)
 821:C:/Users/Utente/Desktop/Tesi/Firmware_Software/DAVE project/S2GLP_Pulsed_Doppler/Dave/Generated/I2C_MASTER\i2c_master.h ****  *  {
 822:C:/Users/Utente/Desktop/Tesi/Firmware_Software/DAVE project/S2GLP_Pulsed_Doppler/Dave/Generated/I2C_MASTER\i2c_master.h ****  *    DAVE_STATUS_t init_status;
 823:C:/Users/Utente/Desktop/Tesi/Firmware_Software/DAVE project/S2GLP_Pulsed_Doppler/Dave/Generated/I2C_MASTER\i2c_master.h ****  *    init_status = DAVE_Init();
 824:C:/Users/Utente/Desktop/Tesi/Firmware_Software/DAVE project/S2GLP_Pulsed_Doppler/Dave/Generated/I2C_MASTER\i2c_master.h ****  *    if(init_status == DAVE_STATUS_SUCCESS)
 825:C:/Users/Utente/Desktop/Tesi/Firmware_Software/DAVE project/S2GLP_Pulsed_Doppler/Dave/Generated/I2C_MASTER\i2c_master.h ****  *    {
 826:C:/Users/Utente/Desktop/Tesi/Firmware_Software/DAVE project/S2GLP_Pulsed_Doppler/Dave/Generated/I2C_MASTER\i2c_master.h ****  *      mem_address[0] = 0x00;//memory which need to be read from slave
 827:C:/Users/Utente/Desktop/Tesi/Firmware_Software/DAVE project/S2GLP_Pulsed_Doppler/Dave/Generated/I2C_MASTER\i2c_master.h ****  *      //Write data to IO EXPANDER
 828:C:/Users/Utente/Desktop/Tesi/Firmware_Software/DAVE project/S2GLP_Pulsed_Doppler/Dave/Generated/I2C_MASTER\i2c_master.h ****  *      I2C_MASTER_StartTransmitIRQ(&I2C_MASTER_0,true,SLAVE_ADDRESS,mem_address,1,false);
 829:C:/Users/Utente/Desktop/Tesi/Firmware_Software/DAVE project/S2GLP_Pulsed_Doppler/Dave/Generated/I2C_MASTER\i2c_master.h ****  *      while(I2C_MASTER_IsTxBusy(&I2C_MASTER_0));
 830:C:/Users/Utente/Desktop/Tesi/Firmware_Software/DAVE project/S2GLP_Pulsed_Doppler/Dave/Generated/I2C_MASTER\i2c_master.h ****  *
 831:C:/Users/Utente/Desktop/Tesi/Firmware_Software/DAVE project/S2GLP_Pulsed_Doppler/Dave/Generated/I2C_MASTER\i2c_master.h ****  *      I2C_MASTER_StartTransmitIRQ(&I2C_MASTER_0,false,SLAVE_ADDRESS,tx_buffer,64,true);
 832:C:/Users/Utente/Desktop/Tesi/Firmware_Software/DAVE project/S2GLP_Pulsed_Doppler/Dave/Generated/I2C_MASTER\i2c_master.h ****  *      while(I2C_MASTER_IsTxBusy(&I2C_MASTER_0));
 833:C:/Users/Utente/Desktop/Tesi/Firmware_Software/DAVE project/S2GLP_Pulsed_Doppler/Dave/Generated/I2C_MASTER\i2c_master.h ****  *    }
 834:C:/Users/Utente/Desktop/Tesi/Firmware_Software/DAVE project/S2GLP_Pulsed_Doppler/Dave/Generated/I2C_MASTER\i2c_master.h ****  *    while(1)
 835:C:/Users/Utente/Desktop/Tesi/Firmware_Software/DAVE project/S2GLP_Pulsed_Doppler/Dave/Generated/I2C_MASTER\i2c_master.h ****  *    { }
 836:C:/Users/Utente/Desktop/Tesi/Firmware_Software/DAVE project/S2GLP_Pulsed_Doppler/Dave/Generated/I2C_MASTER\i2c_master.h **** 
 837:C:/Users/Utente/Desktop/Tesi/Firmware_Software/DAVE project/S2GLP_Pulsed_Doppler/Dave/Generated/I2C_MASTER\i2c_master.h ****  *    return 0;
 838:C:/Users/Utente/Desktop/Tesi/Firmware_Software/DAVE project/S2GLP_Pulsed_Doppler/Dave/Generated/I2C_MASTER\i2c_master.h ****  *  }
 839:C:/Users/Utente/Desktop/Tesi/Firmware_Software/DAVE project/S2GLP_Pulsed_Doppler/Dave/Generated/I2C_MASTER\i2c_master.h ****  *
 840:C:/Users/Utente/Desktop/Tesi/Firmware_Software/DAVE project/S2GLP_Pulsed_Doppler/Dave/Generated/I2C_MASTER\i2c_master.h ****  * @endcode<BR> </p>
 841:C:/Users/Utente/Desktop/Tesi/Firmware_Software/DAVE project/S2GLP_Pulsed_Doppler/Dave/Generated/I2C_MASTER\i2c_master.h ****  *
 842:C:/Users/Utente/Desktop/Tesi/Firmware_Software/DAVE project/S2GLP_Pulsed_Doppler/Dave/Generated/I2C_MASTER\i2c_master.h ****  */
 843:C:/Users/Utente/Desktop/Tesi/Firmware_Software/DAVE project/S2GLP_Pulsed_Doppler/Dave/Generated/I2C_MASTER\i2c_master.h **** 
 844:C:/Users/Utente/Desktop/Tesi/Firmware_Software/DAVE project/S2GLP_Pulsed_Doppler/Dave/Generated/I2C_MASTER\i2c_master.h **** I2C_MASTER_STATUS_t I2C_MASTER_StartTransmitIRQ(I2C_MASTER_t *handle, bool send_start, const uint32
 845:C:/Users/Utente/Desktop/Tesi/Firmware_Software/DAVE project/S2GLP_Pulsed_Doppler/Dave/Generated/I2C_MASTER\i2c_master.h ****                                                 uint8_t *data, const uint32_t size, bool send_stop)
 846:C:/Users/Utente/Desktop/Tesi/Firmware_Software/DAVE project/S2GLP_Pulsed_Doppler/Dave/Generated/I2C_MASTER\i2c_master.h **** #endif
 847:C:/Users/Utente/Desktop/Tesi/Firmware_Software/DAVE project/S2GLP_Pulsed_Doppler/Dave/Generated/I2C_MASTER\i2c_master.h **** #if (I2C_MASTER_INTERRUPT_RX_ENABLED == 1U)
 848:C:/Users/Utente/Desktop/Tesi/Firmware_Software/DAVE project/S2GLP_Pulsed_Doppler/Dave/Generated/I2C_MASTER\i2c_master.h **** /**
 849:C:/Users/Utente/Desktop/Tesi/Firmware_Software/DAVE project/S2GLP_Pulsed_Doppler/Dave/Generated/I2C_MASTER\i2c_master.h ****  * @brief Registers a request for receiving data over I2C_MASTER channel.
 850:C:/Users/Utente/Desktop/Tesi/Firmware_Software/DAVE project/S2GLP_Pulsed_Doppler/Dave/Generated/I2C_MASTER\i2c_master.h ****  *
 851:C:/Users/Utente/Desktop/Tesi/Firmware_Software/DAVE project/S2GLP_Pulsed_Doppler/Dave/Generated/I2C_MASTER\i2c_master.h ****  *
 852:C:/Users/Utente/Desktop/Tesi/Firmware_Software/DAVE project/S2GLP_Pulsed_Doppler/Dave/Generated/I2C_MASTER\i2c_master.h ****  * @param  handle  Pointer to I2C_MASTER_t handle structure
 853:C:/Users/Utente/Desktop/Tesi/Firmware_Software/DAVE project/S2GLP_Pulsed_Doppler/Dave/Generated/I2C_MASTER\i2c_master.h ****  * @param  send_start flag to indicate the start condition
 854:C:/Users/Utente/Desktop/Tesi/Firmware_Software/DAVE project/S2GLP_Pulsed_Doppler/Dave/Generated/I2C_MASTER\i2c_master.h ****  * @param  address slave address
 855:C:/Users/Utente/Desktop/Tesi/Firmware_Software/DAVE project/S2GLP_Pulsed_Doppler/Dave/Generated/I2C_MASTER\i2c_master.h ****  * @param  data    pointer to buffer
 856:C:/Users/Utente/Desktop/Tesi/Firmware_Software/DAVE project/S2GLP_Pulsed_Doppler/Dave/Generated/I2C_MASTER\i2c_master.h ****  * @param  count    number of bytes
 857:C:/Users/Utente/Desktop/Tesi/Firmware_Software/DAVE project/S2GLP_Pulsed_Doppler/Dave/Generated/I2C_MASTER\i2c_master.h ****  * @param  send_stop flag to indicate the stop condition
 858:C:/Users/Utente/Desktop/Tesi/Firmware_Software/DAVE project/S2GLP_Pulsed_Doppler/Dave/Generated/I2C_MASTER\i2c_master.h ****  * @param  send_nack flag to indicate the nack condition\n
 859:C:/Users/Utente/Desktop/Tesi/Firmware_Software/DAVE project/S2GLP_Pulsed_Doppler/Dave/Generated/I2C_MASTER\i2c_master.h ****  * \b Range: minimum= 1, maximum= maximum value supported by type uint32_t.
 860:C:/Users/Utente/Desktop/Tesi/Firmware_Software/DAVE project/S2GLP_Pulsed_Doppler/Dave/Generated/I2C_MASTER\i2c_master.h ****  *
 861:C:/Users/Utente/Desktop/Tesi/Firmware_Software/DAVE project/S2GLP_Pulsed_Doppler/Dave/Generated/I2C_MASTER\i2c_master.h ****  * @return  I2C_MASTER_STATUS_t: Status for receive request.\n
 862:C:/Users/Utente/Desktop/Tesi/Firmware_Software/DAVE project/S2GLP_Pulsed_Doppler/Dave/Generated/I2C_MASTER\i2c_master.h ****  *                        @ref I2C_MASTER_STATUS_SUCCESS if the request is accepted.\n
 863:C:/Users/Utente/Desktop/Tesi/Firmware_Software/DAVE project/S2GLP_Pulsed_Doppler/Dave/Generated/I2C_MASTER\i2c_master.h ****  *                        @ref I2C_MASTER_STATUS_BUSY if a reception is in progress.\n
 864:C:/Users/Utente/Desktop/Tesi/Firmware_Software/DAVE project/S2GLP_Pulsed_Doppler/Dave/Generated/I2C_MASTER\i2c_master.h ****  *
 865:C:/Users/Utente/Desktop/Tesi/Firmware_Software/DAVE project/S2GLP_Pulsed_Doppler/Dave/Generated/I2C_MASTER\i2c_master.h ****  *
 866:C:/Users/Utente/Desktop/Tesi/Firmware_Software/DAVE project/S2GLP_Pulsed_Doppler/Dave/Generated/I2C_MASTER\i2c_master.h ****  * \par<b>Description:</b><br>
 867:C:/Users/Utente/Desktop/Tesi/Firmware_Software/DAVE project/S2GLP_Pulsed_Doppler/Dave/Generated/I2C_MASTER\i2c_master.h ****  * Data will be received asynchronously. When the requested number of data bytes are received, opti
 868:C:/Users/Utente/Desktop/Tesi/Firmware_Software/DAVE project/S2GLP_Pulsed_Doppler/Dave/Generated/I2C_MASTER\i2c_master.h ****  * configured callback function will be executed. Based on the UI configuration, either standard re
 869:C:/Users/Utente/Desktop/Tesi/Firmware_Software/DAVE project/S2GLP_Pulsed_Doppler/Dave/Generated/I2C_MASTER\i2c_master.h ****  * receive FIFO is used for data reception. An interrupt is configured for reading received data fr
 870:C:/Users/Utente/Desktop/Tesi/Firmware_Software/DAVE project/S2GLP_Pulsed_Doppler/Dave/Generated/I2C_MASTER\i2c_master.h ****  * function only registers a request to receive a number of data bytes from a USIC channel. If FIFO
 871:C:/Users/Utente/Desktop/Tesi/Firmware_Software/DAVE project/S2GLP_Pulsed_Doppler/Dave/Generated/I2C_MASTER\i2c_master.h ****  * reception, the FIFO limit is dynamically configured to optimally utilize the CPU load.  When all
 872:C:/Users/Utente/Desktop/Tesi/Firmware_Software/DAVE project/S2GLP_Pulsed_Doppler/Dave/Generated/I2C_MASTER\i2c_master.h ****  * of data bytes are received, the configured callback function will be executed. If a callback fun
 873:C:/Users/Utente/Desktop/Tesi/Firmware_Software/DAVE project/S2GLP_Pulsed_Doppler/Dave/Generated/I2C_MASTER\i2c_master.h ****  * configured, the user has to poll for the value of the variable, \a handle->runtime->rx_busy to b
 874:C:/Users/Utente/Desktop/Tesi/Firmware_Software/DAVE project/S2GLP_Pulsed_Doppler/Dave/Generated/I2C_MASTER\i2c_master.h ****  * is updated to \a false when all the requested number of data bytes are received.<br>
 875:C:/Users/Utente/Desktop/Tesi/Firmware_Software/DAVE project/S2GLP_Pulsed_Doppler/Dave/Generated/I2C_MASTER\i2c_master.h ****  * \par<b>NOTE: </b><br>: I2C_MASTER_StartReceiveIRQ API can be used only in Interrupt mode.
 876:C:/Users/Utente/Desktop/Tesi/Firmware_Software/DAVE project/S2GLP_Pulsed_Doppler/Dave/Generated/I2C_MASTER\i2c_master.h ****  * Receive should be configured as "Interrupt" mode in advanced settings tab.\n
 877:C:/Users/Utente/Desktop/Tesi/Firmware_Software/DAVE project/S2GLP_Pulsed_Doppler/Dave/Generated/I2C_MASTER\i2c_master.h ****  * Address(address) should reserve an additional bit at the LSB for read/write indication. For exam
 878:C:/Users/Utente/Desktop/Tesi/Firmware_Software/DAVE project/S2GLP_Pulsed_Doppler/Dave/Generated/I2C_MASTER\i2c_master.h ****  * be provided as 0x0a. If the address is 10-bit, only most significant bits with the 10-bit identi
 879:C:/Users/Utente/Desktop/Tesi/Firmware_Software/DAVE project/S2GLP_Pulsed_Doppler/Dave/Generated/I2C_MASTER\i2c_master.h ****  * For example, if the 10-bit address is 0x305, the address should be provided as 0xf6(prepend with
 880:C:/Users/Utente/Desktop/Tesi/Firmware_Software/DAVE project/S2GLP_Pulsed_Doppler/Dave/Generated/I2C_MASTER\i2c_master.h ****  * followed by 1-bit field for read/write).
 881:C:/Users/Utente/Desktop/Tesi/Firmware_Software/DAVE project/S2GLP_Pulsed_Doppler/Dave/Generated/I2C_MASTER\i2c_master.h ****  *
 882:C:/Users/Utente/Desktop/Tesi/Firmware_Software/DAVE project/S2GLP_Pulsed_Doppler/Dave/Generated/I2C_MASTER\i2c_master.h ****  * @code
 883:C:/Users/Utente/Desktop/Tesi/Firmware_Software/DAVE project/S2GLP_Pulsed_Doppler/Dave/Generated/I2C_MASTER\i2c_master.h ****  *
 884:C:/Users/Utente/Desktop/Tesi/Firmware_Software/DAVE project/S2GLP_Pulsed_Doppler/Dave/Generated/I2C_MASTER\i2c_master.h ****  *  #include <DAVE.h>
 885:C:/Users/Utente/Desktop/Tesi/Firmware_Software/DAVE project/S2GLP_Pulsed_Doppler/Dave/Generated/I2C_MASTER\i2c_master.h ****  *  #define SLAVE_ADDRESS 0xA0
 886:C:/Users/Utente/Desktop/Tesi/Firmware_Software/DAVE project/S2GLP_Pulsed_Doppler/Dave/Generated/I2C_MASTER\i2c_master.h ****  *  uint8_t rx_buffer[64];
 887:C:/Users/Utente/Desktop/Tesi/Firmware_Software/DAVE project/S2GLP_Pulsed_Doppler/Dave/Generated/I2C_MASTER\i2c_master.h ****  *  uint8_t mem_address[2];
 888:C:/Users/Utente/Desktop/Tesi/Firmware_Software/DAVE project/S2GLP_Pulsed_Doppler/Dave/Generated/I2C_MASTER\i2c_master.h ****  *
 889:C:/Users/Utente/Desktop/Tesi/Firmware_Software/DAVE project/S2GLP_Pulsed_Doppler/Dave/Generated/I2C_MASTER\i2c_master.h ****  *  int main(void)
 890:C:/Users/Utente/Desktop/Tesi/Firmware_Software/DAVE project/S2GLP_Pulsed_Doppler/Dave/Generated/I2C_MASTER\i2c_master.h ****  *  {
 891:C:/Users/Utente/Desktop/Tesi/Firmware_Software/DAVE project/S2GLP_Pulsed_Doppler/Dave/Generated/I2C_MASTER\i2c_master.h ****  *    DAVE_STATUS_t init_status;
 892:C:/Users/Utente/Desktop/Tesi/Firmware_Software/DAVE project/S2GLP_Pulsed_Doppler/Dave/Generated/I2C_MASTER\i2c_master.h ****  *    init_status = DAVE_Init();
 893:C:/Users/Utente/Desktop/Tesi/Firmware_Software/DAVE project/S2GLP_Pulsed_Doppler/Dave/Generated/I2C_MASTER\i2c_master.h ****  *    if(init_status == DAVE_STATUS_SUCCESS)
 894:C:/Users/Utente/Desktop/Tesi/Firmware_Software/DAVE project/S2GLP_Pulsed_Doppler/Dave/Generated/I2C_MASTER\i2c_master.h ****  *    {
 895:C:/Users/Utente/Desktop/Tesi/Firmware_Software/DAVE project/S2GLP_Pulsed_Doppler/Dave/Generated/I2C_MASTER\i2c_master.h ****  *      mem_address[0] = 0x00;//memory which need to be read from slave
 896:C:/Users/Utente/Desktop/Tesi/Firmware_Software/DAVE project/S2GLP_Pulsed_Doppler/Dave/Generated/I2C_MASTER\i2c_master.h ****  *     //Write data to IO EXPANDER
 897:C:/Users/Utente/Desktop/Tesi/Firmware_Software/DAVE project/S2GLP_Pulsed_Doppler/Dave/Generated/I2C_MASTER\i2c_master.h ****  *     I2C_MASTER_StartTransmitIRQ(&I2C_MASTER_0,true,SLAVE_ADDRESS,mem_address,1,false);
 898:C:/Users/Utente/Desktop/Tesi/Firmware_Software/DAVE project/S2GLP_Pulsed_Doppler/Dave/Generated/I2C_MASTER\i2c_master.h ****  *     while(I2C_MASTER_IsTxBusy(&I2C_MASTER_0));
 899:C:/Users/Utente/Desktop/Tesi/Firmware_Software/DAVE project/S2GLP_Pulsed_Doppler/Dave/Generated/I2C_MASTER\i2c_master.h ****  *
 900:C:/Users/Utente/Desktop/Tesi/Firmware_Software/DAVE project/S2GLP_Pulsed_Doppler/Dave/Generated/I2C_MASTER\i2c_master.h ****  *     I2C_MASTER_StartReceiveIRQ(&I2C_MASTER_0,true,SLAVE_ADDRESS,rx_buffer,64,true, true);
 901:C:/Users/Utente/Desktop/Tesi/Firmware_Software/DAVE project/S2GLP_Pulsed_Doppler/Dave/Generated/I2C_MASTER\i2c_master.h ****  *     while(I2C_MASTER_IsRxBusy(&I2C_MASTER_0));
 902:C:/Users/Utente/Desktop/Tesi/Firmware_Software/DAVE project/S2GLP_Pulsed_Doppler/Dave/Generated/I2C_MASTER\i2c_master.h ****  *    }
 903:C:/Users/Utente/Desktop/Tesi/Firmware_Software/DAVE project/S2GLP_Pulsed_Doppler/Dave/Generated/I2C_MASTER\i2c_master.h ****  *    while(1)
 904:C:/Users/Utente/Desktop/Tesi/Firmware_Software/DAVE project/S2GLP_Pulsed_Doppler/Dave/Generated/I2C_MASTER\i2c_master.h ****  *    { }
 905:C:/Users/Utente/Desktop/Tesi/Firmware_Software/DAVE project/S2GLP_Pulsed_Doppler/Dave/Generated/I2C_MASTER\i2c_master.h ****  *    return 0;
 906:C:/Users/Utente/Desktop/Tesi/Firmware_Software/DAVE project/S2GLP_Pulsed_Doppler/Dave/Generated/I2C_MASTER\i2c_master.h ****  *  }
 907:C:/Users/Utente/Desktop/Tesi/Firmware_Software/DAVE project/S2GLP_Pulsed_Doppler/Dave/Generated/I2C_MASTER\i2c_master.h ****  *
 908:C:/Users/Utente/Desktop/Tesi/Firmware_Software/DAVE project/S2GLP_Pulsed_Doppler/Dave/Generated/I2C_MASTER\i2c_master.h ****  * @endcode<BR> </p>
 909:C:/Users/Utente/Desktop/Tesi/Firmware_Software/DAVE project/S2GLP_Pulsed_Doppler/Dave/Generated/I2C_MASTER\i2c_master.h ****  *
 910:C:/Users/Utente/Desktop/Tesi/Firmware_Software/DAVE project/S2GLP_Pulsed_Doppler/Dave/Generated/I2C_MASTER\i2c_master.h ****  */
 911:C:/Users/Utente/Desktop/Tesi/Firmware_Software/DAVE project/S2GLP_Pulsed_Doppler/Dave/Generated/I2C_MASTER\i2c_master.h ****  I2C_MASTER_STATUS_t I2C_MASTER_StartReceiveIRQ(I2C_MASTER_t *handle, bool send_start, const uint32
 912:C:/Users/Utente/Desktop/Tesi/Firmware_Software/DAVE project/S2GLP_Pulsed_Doppler/Dave/Generated/I2C_MASTER\i2c_master.h ****                                                uint8_t * data, const uint32_t count, bool send_stop
 913:C:/Users/Utente/Desktop/Tesi/Firmware_Software/DAVE project/S2GLP_Pulsed_Doppler/Dave/Generated/I2C_MASTER\i2c_master.h **** #endif
 914:C:/Users/Utente/Desktop/Tesi/Firmware_Software/DAVE project/S2GLP_Pulsed_Doppler/Dave/Generated/I2C_MASTER\i2c_master.h **** 
 915:C:/Users/Utente/Desktop/Tesi/Firmware_Software/DAVE project/S2GLP_Pulsed_Doppler/Dave/Generated/I2C_MASTER\i2c_master.h **** 
 916:C:/Users/Utente/Desktop/Tesi/Firmware_Software/DAVE project/S2GLP_Pulsed_Doppler/Dave/Generated/I2C_MASTER\i2c_master.h **** /**
 917:C:/Users/Utente/Desktop/Tesi/Firmware_Software/DAVE project/S2GLP_Pulsed_Doppler/Dave/Generated/I2C_MASTER\i2c_master.h ****  * @brief Gets the transmit FIFO event flags.
 918:C:/Users/Utente/Desktop/Tesi/Firmware_Software/DAVE project/S2GLP_Pulsed_Doppler/Dave/Generated/I2C_MASTER\i2c_master.h ****  *
 919:C:/Users/Utente/Desktop/Tesi/Firmware_Software/DAVE project/S2GLP_Pulsed_Doppler/Dave/Generated/I2C_MASTER\i2c_master.h ****  * @param  handle I2C_MASTER APP handle pointer of type @ref I2C_MASTER_t
 920:C:/Users/Utente/Desktop/Tesi/Firmware_Software/DAVE project/S2GLP_Pulsed_Doppler/Dave/Generated/I2C_MASTER\i2c_master.h ****  *
 921:C:/Users/Utente/Desktop/Tesi/Firmware_Software/DAVE project/S2GLP_Pulsed_Doppler/Dave/Generated/I2C_MASTER\i2c_master.h ****  * @return uint32_t: Status of the STBI and TBERI bits in TRBSR register in
 922:C:/Users/Utente/Desktop/Tesi/Firmware_Software/DAVE project/S2GLP_Pulsed_Doppler/Dave/Generated/I2C_MASTER\i2c_master.h ****  *                      their bit positions.\n
 923:C:/Users/Utente/Desktop/Tesi/Firmware_Software/DAVE project/S2GLP_Pulsed_Doppler/Dave/Generated/I2C_MASTER\i2c_master.h ****  *                      \b Range: Use type @ref XMC_USIC_CH_TXFIFO_EVENT_t for the bitmask of event
 924:C:/Users/Utente/Desktop/Tesi/Firmware_Software/DAVE project/S2GLP_Pulsed_Doppler/Dave/Generated/I2C_MASTER\i2c_master.h ****  *
 925:C:/Users/Utente/Desktop/Tesi/Firmware_Software/DAVE project/S2GLP_Pulsed_Doppler/Dave/Generated/I2C_MASTER\i2c_master.h ****  * \par<b>Description:</b><br>
 926:C:/Users/Utente/Desktop/Tesi/Firmware_Software/DAVE project/S2GLP_Pulsed_Doppler/Dave/Generated/I2C_MASTER\i2c_master.h ****  * Function reads the value of TRBSR register. It masks the standard transmit buffer interrupt flag
 927:C:/Users/Utente/Desktop/Tesi/Firmware_Software/DAVE project/S2GLP_Pulsed_Doppler/Dave/Generated/I2C_MASTER\i2c_master.h ****  * buffer error flag before providing the value.
 928:C:/Users/Utente/Desktop/Tesi/Firmware_Software/DAVE project/S2GLP_Pulsed_Doppler/Dave/Generated/I2C_MASTER\i2c_master.h ****  * User has to mask the bits of interest before checking the status.
 929:C:/Users/Utente/Desktop/Tesi/Firmware_Software/DAVE project/S2GLP_Pulsed_Doppler/Dave/Generated/I2C_MASTER\i2c_master.h ****  * \par<b>NOTE: </b><br>: Enable transmit fifo in Advanced settings tab. <br>
 930:C:/Users/Utente/Desktop/Tesi/Firmware_Software/DAVE project/S2GLP_Pulsed_Doppler/Dave/Generated/I2C_MASTER\i2c_master.h ****  * Example Usage:
 931:C:/Users/Utente/Desktop/Tesi/Firmware_Software/DAVE project/S2GLP_Pulsed_Doppler/Dave/Generated/I2C_MASTER\i2c_master.h ****  *
 932:C:/Users/Utente/Desktop/Tesi/Firmware_Software/DAVE project/S2GLP_Pulsed_Doppler/Dave/Generated/I2C_MASTER\i2c_master.h ****  * @code
 933:C:/Users/Utente/Desktop/Tesi/Firmware_Software/DAVE project/S2GLP_Pulsed_Doppler/Dave/Generated/I2C_MASTER\i2c_master.h ****  *
 934:C:/Users/Utente/Desktop/Tesi/Firmware_Software/DAVE project/S2GLP_Pulsed_Doppler/Dave/Generated/I2C_MASTER\i2c_master.h ****  *  #include <DAVE.h>         //Declarations from DAVE Code Generation (includes SFR declaration)
 935:C:/Users/Utente/Desktop/Tesi/Firmware_Software/DAVE project/S2GLP_Pulsed_Doppler/Dave/Generated/I2C_MASTER\i2c_master.h ****  *  #define SLAVE_ADDRESS 0xA0
 936:C:/Users/Utente/Desktop/Tesi/Firmware_Software/DAVE project/S2GLP_Pulsed_Doppler/Dave/Generated/I2C_MASTER\i2c_master.h ****  *  uint8_t mem_address[2];
 937:C:/Users/Utente/Desktop/Tesi/Firmware_Software/DAVE project/S2GLP_Pulsed_Doppler/Dave/Generated/I2C_MASTER\i2c_master.h ****  *  int main(void)
 938:C:/Users/Utente/Desktop/Tesi/Firmware_Software/DAVE project/S2GLP_Pulsed_Doppler/Dave/Generated/I2C_MASTER\i2c_master.h ****  *  {
 939:C:/Users/Utente/Desktop/Tesi/Firmware_Software/DAVE project/S2GLP_Pulsed_Doppler/Dave/Generated/I2C_MASTER\i2c_master.h ****  *    DAVE_STATUS_t init_status;
 940:C:/Users/Utente/Desktop/Tesi/Firmware_Software/DAVE project/S2GLP_Pulsed_Doppler/Dave/Generated/I2C_MASTER\i2c_master.h ****  *    init_status = DAVE_Init();
 941:C:/Users/Utente/Desktop/Tesi/Firmware_Software/DAVE project/S2GLP_Pulsed_Doppler/Dave/Generated/I2C_MASTER\i2c_master.h ****  *    if(init_status == DAVE_STATUS_SUCCESS)
 942:C:/Users/Utente/Desktop/Tesi/Firmware_Software/DAVE project/S2GLP_Pulsed_Doppler/Dave/Generated/I2C_MASTER\i2c_master.h ****  *    {
 943:C:/Users/Utente/Desktop/Tesi/Firmware_Software/DAVE project/S2GLP_Pulsed_Doppler/Dave/Generated/I2C_MASTER\i2c_master.h ****  *      mem_address[0] = 0x00;//memory which need to be read from slave
 944:C:/Users/Utente/Desktop/Tesi/Firmware_Software/DAVE project/S2GLP_Pulsed_Doppler/Dave/Generated/I2C_MASTER\i2c_master.h ****  *      //Configure transmit fifo trigger limit as 10
 945:C:/Users/Utente/Desktop/Tesi/Firmware_Software/DAVE project/S2GLP_Pulsed_Doppler/Dave/Generated/I2C_MASTER\i2c_master.h ****  *      I2C_MASTER_SetTXFIFOTriggerLimit(&I2C_MASTER_0, 16, 10);
 946:C:/Users/Utente/Desktop/Tesi/Firmware_Software/DAVE project/S2GLP_Pulsed_Doppler/Dave/Generated/I2C_MASTER\i2c_master.h ****  *      I2C_MASTER_StartTransmitIRQ(&I2C_MASTER_0,true,SLAVE_ADDRESS,mem_address,1,false);
 947:C:/Users/Utente/Desktop/Tesi/Firmware_Software/DAVE project/S2GLP_Pulsed_Doppler/Dave/Generated/I2C_MASTER\i2c_master.h ****  *      while(I2C_MASTER_IsTxBusy(&I2C_MASTER_0));
 948:C:/Users/Utente/Desktop/Tesi/Firmware_Software/DAVE project/S2GLP_Pulsed_Doppler/Dave/Generated/I2C_MASTER\i2c_master.h ****  *      I2C_MASTER_StartTransmitIRQ(&I2C_MASTER_0,true,SLAVE_ADDRESS,mem_address,16,false);
 949:C:/Users/Utente/Desktop/Tesi/Firmware_Software/DAVE project/S2GLP_Pulsed_Doppler/Dave/Generated/I2C_MASTER\i2c_master.h ****  *      //Wait for FIFO transmit standard buffer interrupt to fill it again with remaining data
 950:C:/Users/Utente/Desktop/Tesi/Firmware_Software/DAVE project/S2GLP_Pulsed_Doppler/Dave/Generated/I2C_MASTER\i2c_master.h ****  *      while((I2C_MASTER_GetTXFIFOStatus(&I2C_MASTER_0) & XMC_USIC_CH_TXFIFO_EVENT_STANDARD) == 0)
 951:C:/Users/Utente/Desktop/Tesi/Firmware_Software/DAVE project/S2GLP_Pulsed_Doppler/Dave/Generated/I2C_MASTER\i2c_master.h ****  *      I2C_MASTER_ClearTXFIFOStatus(&I2C_MASTER_0, XMC_USIC_CH_TXFIFO_EVENT_STANDARD);
 952:C:/Users/Utente/Desktop/Tesi/Firmware_Software/DAVE project/S2GLP_Pulsed_Doppler/Dave/Generated/I2C_MASTER\i2c_master.h ****  *      I2C_MASTER_StartTransmitIRQ(&I2C_MASTER_0,true,SLAVE_ADDRESS,mem_address,6,false);
 953:C:/Users/Utente/Desktop/Tesi/Firmware_Software/DAVE project/S2GLP_Pulsed_Doppler/Dave/Generated/I2C_MASTER\i2c_master.h ****  *    }
 954:C:/Users/Utente/Desktop/Tesi/Firmware_Software/DAVE project/S2GLP_Pulsed_Doppler/Dave/Generated/I2C_MASTER\i2c_master.h ****  *    else
 955:C:/Users/Utente/Desktop/Tesi/Firmware_Software/DAVE project/S2GLP_Pulsed_Doppler/Dave/Generated/I2C_MASTER\i2c_master.h ****  *    {
 956:C:/Users/Utente/Desktop/Tesi/Firmware_Software/DAVE project/S2GLP_Pulsed_Doppler/Dave/Generated/I2C_MASTER\i2c_master.h ****  *      XMC_DEBUG("main: Application initialization failed");
 957:C:/Users/Utente/Desktop/Tesi/Firmware_Software/DAVE project/S2GLP_Pulsed_Doppler/Dave/Generated/I2C_MASTER\i2c_master.h ****  *      while(1U)
 958:C:/Users/Utente/Desktop/Tesi/Firmware_Software/DAVE project/S2GLP_Pulsed_Doppler/Dave/Generated/I2C_MASTER\i2c_master.h ****  *      {
 959:C:/Users/Utente/Desktop/Tesi/Firmware_Software/DAVE project/S2GLP_Pulsed_Doppler/Dave/Generated/I2C_MASTER\i2c_master.h ****  *      }
 960:C:/Users/Utente/Desktop/Tesi/Firmware_Software/DAVE project/S2GLP_Pulsed_Doppler/Dave/Generated/I2C_MASTER\i2c_master.h ****  *    }
 961:C:/Users/Utente/Desktop/Tesi/Firmware_Software/DAVE project/S2GLP_Pulsed_Doppler/Dave/Generated/I2C_MASTER\i2c_master.h ****  *    return 1U;
 962:C:/Users/Utente/Desktop/Tesi/Firmware_Software/DAVE project/S2GLP_Pulsed_Doppler/Dave/Generated/I2C_MASTER\i2c_master.h ****  *  }
 963:C:/Users/Utente/Desktop/Tesi/Firmware_Software/DAVE project/S2GLP_Pulsed_Doppler/Dave/Generated/I2C_MASTER\i2c_master.h ****  * @endcode
 964:C:/Users/Utente/Desktop/Tesi/Firmware_Software/DAVE project/S2GLP_Pulsed_Doppler/Dave/Generated/I2C_MASTER\i2c_master.h ****  *
 965:C:/Users/Utente/Desktop/Tesi/Firmware_Software/DAVE project/S2GLP_Pulsed_Doppler/Dave/Generated/I2C_MASTER\i2c_master.h ****  */
 966:C:/Users/Utente/Desktop/Tesi/Firmware_Software/DAVE project/S2GLP_Pulsed_Doppler/Dave/Generated/I2C_MASTER\i2c_master.h **** __STATIC_INLINE uint32_t I2C_MASTER_GetTXFIFOStatus(const I2C_MASTER_t* const handle)
 967:C:/Users/Utente/Desktop/Tesi/Firmware_Software/DAVE project/S2GLP_Pulsed_Doppler/Dave/Generated/I2C_MASTER\i2c_master.h **** {
 968:C:/Users/Utente/Desktop/Tesi/Firmware_Software/DAVE project/S2GLP_Pulsed_Doppler/Dave/Generated/I2C_MASTER\i2c_master.h ****   XMC_ASSERT("I2C_MASTER_GetTXFIFOStatus: invalid handle", (handle != NULL))
 969:C:/Users/Utente/Desktop/Tesi/Firmware_Software/DAVE project/S2GLP_Pulsed_Doppler/Dave/Generated/I2C_MASTER\i2c_master.h ****   return XMC_USIC_CH_TXFIFO_GetEvent(handle->channel);
 970:C:/Users/Utente/Desktop/Tesi/Firmware_Software/DAVE project/S2GLP_Pulsed_Doppler/Dave/Generated/I2C_MASTER\i2c_master.h **** }
 971:C:/Users/Utente/Desktop/Tesi/Firmware_Software/DAVE project/S2GLP_Pulsed_Doppler/Dave/Generated/I2C_MASTER\i2c_master.h **** 
 972:C:/Users/Utente/Desktop/Tesi/Firmware_Software/DAVE project/S2GLP_Pulsed_Doppler/Dave/Generated/I2C_MASTER\i2c_master.h **** /**
 973:C:/Users/Utente/Desktop/Tesi/Firmware_Software/DAVE project/S2GLP_Pulsed_Doppler/Dave/Generated/I2C_MASTER\i2c_master.h ****  * @brief Configures trigger limit for the transmit FIFO.
 974:C:/Users/Utente/Desktop/Tesi/Firmware_Software/DAVE project/S2GLP_Pulsed_Doppler/Dave/Generated/I2C_MASTER\i2c_master.h ****  *
 975:C:/Users/Utente/Desktop/Tesi/Firmware_Software/DAVE project/S2GLP_Pulsed_Doppler/Dave/Generated/I2C_MASTER\i2c_master.h ****  * @param  handle I2C_MASTER APP handle pointer of type @ref I2C_MASTER_t
 976:C:/Users/Utente/Desktop/Tesi/Firmware_Software/DAVE project/S2GLP_Pulsed_Doppler/Dave/Generated/I2C_MASTER\i2c_master.h ****  * @param  size   FIFO size
 977:C:/Users/Utente/Desktop/Tesi/Firmware_Software/DAVE project/S2GLP_Pulsed_Doppler/Dave/Generated/I2C_MASTER\i2c_master.h ****  * @param  limit Value of transmit FIFO filling level, transition below which the interrupt should 
 978:C:/Users/Utente/Desktop/Tesi/Firmware_Software/DAVE project/S2GLP_Pulsed_Doppler/Dave/Generated/I2C_MASTER\i2c_master.h ****  *               \bRange: 0 to transmit FIFO size.\n
 979:C:/Users/Utente/Desktop/Tesi/Firmware_Software/DAVE project/S2GLP_Pulsed_Doppler/Dave/Generated/I2C_MASTER\i2c_master.h ****  *               e.g, If transmit FIFO size is 16, and limit is configured as 8, FIFO standard tran
 980:C:/Users/Utente/Desktop/Tesi/Firmware_Software/DAVE project/S2GLP_Pulsed_Doppler/Dave/Generated/I2C_MASTER\i2c_master.h ****  *               will be generated when the FIFO filling level drops from 8 to 7.\n
 981:C:/Users/Utente/Desktop/Tesi/Firmware_Software/DAVE project/S2GLP_Pulsed_Doppler/Dave/Generated/I2C_MASTER\i2c_master.h ****  *
 982:C:/Users/Utente/Desktop/Tesi/Firmware_Software/DAVE project/S2GLP_Pulsed_Doppler/Dave/Generated/I2C_MASTER\i2c_master.h ****  * @return None\n
 983:C:/Users/Utente/Desktop/Tesi/Firmware_Software/DAVE project/S2GLP_Pulsed_Doppler/Dave/Generated/I2C_MASTER\i2c_master.h ****  *
 984:C:/Users/Utente/Desktop/Tesi/Firmware_Software/DAVE project/S2GLP_Pulsed_Doppler/Dave/Generated/I2C_MASTER\i2c_master.h ****  * \par<b>Description:</b><br>
 985:C:/Users/Utente/Desktop/Tesi/Firmware_Software/DAVE project/S2GLP_Pulsed_Doppler/Dave/Generated/I2C_MASTER\i2c_master.h ****  * Transmit FIFO trigger limit is configured by setting its value in the TBCTR register.
 986:C:/Users/Utente/Desktop/Tesi/Firmware_Software/DAVE project/S2GLP_Pulsed_Doppler/Dave/Generated/I2C_MASTER\i2c_master.h ****  * Transmit FIFO is configured to generate interrupt when the FIFO filling level drops
 987:C:/Users/Utente/Desktop/Tesi/Firmware_Software/DAVE project/S2GLP_Pulsed_Doppler/Dave/Generated/I2C_MASTER\i2c_master.h ****  * below the trigger limit.
 988:C:/Users/Utente/Desktop/Tesi/Firmware_Software/DAVE project/S2GLP_Pulsed_Doppler/Dave/Generated/I2C_MASTER\i2c_master.h ****  *
 989:C:/Users/Utente/Desktop/Tesi/Firmware_Software/DAVE project/S2GLP_Pulsed_Doppler/Dave/Generated/I2C_MASTER\i2c_master.h ****  * Example Usage:
 990:C:/Users/Utente/Desktop/Tesi/Firmware_Software/DAVE project/S2GLP_Pulsed_Doppler/Dave/Generated/I2C_MASTER\i2c_master.h ****  * @code
 991:C:/Users/Utente/Desktop/Tesi/Firmware_Software/DAVE project/S2GLP_Pulsed_Doppler/Dave/Generated/I2C_MASTER\i2c_master.h ****  *
 992:C:/Users/Utente/Desktop/Tesi/Firmware_Software/DAVE project/S2GLP_Pulsed_Doppler/Dave/Generated/I2C_MASTER\i2c_master.h ****  *  #include <DAVE.h>         //Declarations from DAVE Code Generation (includes SFR declaration)
 993:C:/Users/Utente/Desktop/Tesi/Firmware_Software/DAVE project/S2GLP_Pulsed_Doppler/Dave/Generated/I2C_MASTER\i2c_master.h ****  *
 994:C:/Users/Utente/Desktop/Tesi/Firmware_Software/DAVE project/S2GLP_Pulsed_Doppler/Dave/Generated/I2C_MASTER\i2c_master.h ****  *  #define SLAVE_ADDRESS 0xA0
 995:C:/Users/Utente/Desktop/Tesi/Firmware_Software/DAVE project/S2GLP_Pulsed_Doppler/Dave/Generated/I2C_MASTER\i2c_master.h ****  *  uint8_t Send_Data[] = "Infineon Technologies";
 996:C:/Users/Utente/Desktop/Tesi/Firmware_Software/DAVE project/S2GLP_Pulsed_Doppler/Dave/Generated/I2C_MASTER\i2c_master.h ****  *  int main(void)
 997:C:/Users/Utente/Desktop/Tesi/Firmware_Software/DAVE project/S2GLP_Pulsed_Doppler/Dave/Generated/I2C_MASTER\i2c_master.h ****  *  {
 998:C:/Users/Utente/Desktop/Tesi/Firmware_Software/DAVE project/S2GLP_Pulsed_Doppler/Dave/Generated/I2C_MASTER\i2c_master.h ****  *    DAVE_STATUS_t init_status;
 999:C:/Users/Utente/Desktop/Tesi/Firmware_Software/DAVE project/S2GLP_Pulsed_Doppler/Dave/Generated/I2C_MASTER\i2c_master.h ****  *
1000:C:/Users/Utente/Desktop/Tesi/Firmware_Software/DAVE project/S2GLP_Pulsed_Doppler/Dave/Generated/I2C_MASTER\i2c_master.h ****  *    init_status = DAVE_Init();
1001:C:/Users/Utente/Desktop/Tesi/Firmware_Software/DAVE project/S2GLP_Pulsed_Doppler/Dave/Generated/I2C_MASTER\i2c_master.h ****  *    if(init_status == DAVE_STATUS_SUCCESS)
1002:C:/Users/Utente/Desktop/Tesi/Firmware_Software/DAVE project/S2GLP_Pulsed_Doppler/Dave/Generated/I2C_MASTER\i2c_master.h ****  *    {
1003:C:/Users/Utente/Desktop/Tesi/Firmware_Software/DAVE project/S2GLP_Pulsed_Doppler/Dave/Generated/I2C_MASTER\i2c_master.h ****  *      //Configure transmit fifo trigger limit, draining level as 10
1004:C:/Users/Utente/Desktop/Tesi/Firmware_Software/DAVE project/S2GLP_Pulsed_Doppler/Dave/Generated/I2C_MASTER\i2c_master.h ****  *      I2C_MASTER_SetTXFIFOTriggerLimit(&I2C_MASTER_0, 16, 10);
1005:C:/Users/Utente/Desktop/Tesi/Firmware_Software/DAVE project/S2GLP_Pulsed_Doppler/Dave/Generated/I2C_MASTER\i2c_master.h ****  *      // Execution will happen two times in the interrupt handler as the limit is set to 10
1006:C:/Users/Utente/Desktop/Tesi/Firmware_Software/DAVE project/S2GLP_Pulsed_Doppler/Dave/Generated/I2C_MASTER\i2c_master.h ****  *      I2C_MASTER_Transmit(&I2C_MASTER_0, true, SLAVE_ADDRESS, Send_Data, 16, true);
1007:C:/Users/Utente/Desktop/Tesi/Firmware_Software/DAVE project/S2GLP_Pulsed_Doppler/Dave/Generated/I2C_MASTER\i2c_master.h ****  *      while(I2C_MASTER_IsTxBusy(&I2C_MASTER_0));
1008:C:/Users/Utente/Desktop/Tesi/Firmware_Software/DAVE project/S2GLP_Pulsed_Doppler/Dave/Generated/I2C_MASTER\i2c_master.h ****  *    }
1009:C:/Users/Utente/Desktop/Tesi/Firmware_Software/DAVE project/S2GLP_Pulsed_Doppler/Dave/Generated/I2C_MASTER\i2c_master.h ****  *    else
1010:C:/Users/Utente/Desktop/Tesi/Firmware_Software/DAVE project/S2GLP_Pulsed_Doppler/Dave/Generated/I2C_MASTER\i2c_master.h ****  *    {
1011:C:/Users/Utente/Desktop/Tesi/Firmware_Software/DAVE project/S2GLP_Pulsed_Doppler/Dave/Generated/I2C_MASTER\i2c_master.h ****  *      XMC_DEBUG("main: Application initialization failed");
1012:C:/Users/Utente/Desktop/Tesi/Firmware_Software/DAVE project/S2GLP_Pulsed_Doppler/Dave/Generated/I2C_MASTER\i2c_master.h ****  *      while(1U)
1013:C:/Users/Utente/Desktop/Tesi/Firmware_Software/DAVE project/S2GLP_Pulsed_Doppler/Dave/Generated/I2C_MASTER\i2c_master.h ****  *      {
1014:C:/Users/Utente/Desktop/Tesi/Firmware_Software/DAVE project/S2GLP_Pulsed_Doppler/Dave/Generated/I2C_MASTER\i2c_master.h ****  *      }
1015:C:/Users/Utente/Desktop/Tesi/Firmware_Software/DAVE project/S2GLP_Pulsed_Doppler/Dave/Generated/I2C_MASTER\i2c_master.h ****  *    }
1016:C:/Users/Utente/Desktop/Tesi/Firmware_Software/DAVE project/S2GLP_Pulsed_Doppler/Dave/Generated/I2C_MASTER\i2c_master.h ****  *    return 1U;
1017:C:/Users/Utente/Desktop/Tesi/Firmware_Software/DAVE project/S2GLP_Pulsed_Doppler/Dave/Generated/I2C_MASTER\i2c_master.h ****  *  }
1018:C:/Users/Utente/Desktop/Tesi/Firmware_Software/DAVE project/S2GLP_Pulsed_Doppler/Dave/Generated/I2C_MASTER\i2c_master.h ****  *
1019:C:/Users/Utente/Desktop/Tesi/Firmware_Software/DAVE project/S2GLP_Pulsed_Doppler/Dave/Generated/I2C_MASTER\i2c_master.h ****  * @endcode
1020:C:/Users/Utente/Desktop/Tesi/Firmware_Software/DAVE project/S2GLP_Pulsed_Doppler/Dave/Generated/I2C_MASTER\i2c_master.h ****  */
1021:C:/Users/Utente/Desktop/Tesi/Firmware_Software/DAVE project/S2GLP_Pulsed_Doppler/Dave/Generated/I2C_MASTER\i2c_master.h **** __STATIC_INLINE void I2C_MASTER_SetTXFIFOTriggerLimit(I2C_MASTER_t * const handle, const uint32_t s
1022:C:/Users/Utente/Desktop/Tesi/Firmware_Software/DAVE project/S2GLP_Pulsed_Doppler/Dave/Generated/I2C_MASTER\i2c_master.h **** 		                                              const uint32_t limit)
1023:C:/Users/Utente/Desktop/Tesi/Firmware_Software/DAVE project/S2GLP_Pulsed_Doppler/Dave/Generated/I2C_MASTER\i2c_master.h **** {
1024:C:/Users/Utente/Desktop/Tesi/Firmware_Software/DAVE project/S2GLP_Pulsed_Doppler/Dave/Generated/I2C_MASTER\i2c_master.h ****   XMC_ASSERT("I2C_MASTER_SetTXFIFOTriggerLimit: invalid handle", (handle != NULL))
1025:C:/Users/Utente/Desktop/Tesi/Firmware_Software/DAVE project/S2GLP_Pulsed_Doppler/Dave/Generated/I2C_MASTER\i2c_master.h ****   XMC_USIC_CH_TXFIFO_SetSizeTriggerLimit(handle->channel, (XMC_USIC_CH_FIFO_SIZE_t)size, limit);
1026:C:/Users/Utente/Desktop/Tesi/Firmware_Software/DAVE project/S2GLP_Pulsed_Doppler/Dave/Generated/I2C_MASTER\i2c_master.h **** }
1027:C:/Users/Utente/Desktop/Tesi/Firmware_Software/DAVE project/S2GLP_Pulsed_Doppler/Dave/Generated/I2C_MASTER\i2c_master.h **** /**
1028:C:/Users/Utente/Desktop/Tesi/Firmware_Software/DAVE project/S2GLP_Pulsed_Doppler/Dave/Generated/I2C_MASTER\i2c_master.h ****  * @brief Configures trigger limit for the receive FIFO.
1029:C:/Users/Utente/Desktop/Tesi/Firmware_Software/DAVE project/S2GLP_Pulsed_Doppler/Dave/Generated/I2C_MASTER\i2c_master.h ****  *
1030:C:/Users/Utente/Desktop/Tesi/Firmware_Software/DAVE project/S2GLP_Pulsed_Doppler/Dave/Generated/I2C_MASTER\i2c_master.h ****  * @param  handle I2C_MASTER APP handle pointer of type @ref I2C_MASTER_t
1031:C:/Users/Utente/Desktop/Tesi/Firmware_Software/DAVE project/S2GLP_Pulsed_Doppler/Dave/Generated/I2C_MASTER\i2c_master.h ****  * @param  size   FIFO size
1032:C:/Users/Utente/Desktop/Tesi/Firmware_Software/DAVE project/S2GLP_Pulsed_Doppler/Dave/Generated/I2C_MASTER\i2c_master.h ****  * @param  limit Value of receive FIFO filling level, transition above which the interrupt should b
1033:C:/Users/Utente/Desktop/Tesi/Firmware_Software/DAVE project/S2GLP_Pulsed_Doppler/Dave/Generated/I2C_MASTER\i2c_master.h ****  *               \bRange: 0 to receive FIFO size.\n
1034:C:/Users/Utente/Desktop/Tesi/Firmware_Software/DAVE project/S2GLP_Pulsed_Doppler/Dave/Generated/I2C_MASTER\i2c_master.h ****  *               e.g, If receive FIFO size is 16, and limit is configured as 8, FIFO receive buffer
1035:C:/Users/Utente/Desktop/Tesi/Firmware_Software/DAVE project/S2GLP_Pulsed_Doppler/Dave/Generated/I2C_MASTER\i2c_master.h ****  *               will be generated when the FIFO filling level rises from 8 to 9.\n
1036:C:/Users/Utente/Desktop/Tesi/Firmware_Software/DAVE project/S2GLP_Pulsed_Doppler/Dave/Generated/I2C_MASTER\i2c_master.h ****  *
1037:C:/Users/Utente/Desktop/Tesi/Firmware_Software/DAVE project/S2GLP_Pulsed_Doppler/Dave/Generated/I2C_MASTER\i2c_master.h ****  * @return None\n
1038:C:/Users/Utente/Desktop/Tesi/Firmware_Software/DAVE project/S2GLP_Pulsed_Doppler/Dave/Generated/I2C_MASTER\i2c_master.h ****  *
1039:C:/Users/Utente/Desktop/Tesi/Firmware_Software/DAVE project/S2GLP_Pulsed_Doppler/Dave/Generated/I2C_MASTER\i2c_master.h ****  * \par<b>Description:</b><br>
1040:C:/Users/Utente/Desktop/Tesi/Firmware_Software/DAVE project/S2GLP_Pulsed_Doppler/Dave/Generated/I2C_MASTER\i2c_master.h ****  * Receive FIFO trigger limit is configured by setting its value in the RBCTR register.
1041:C:/Users/Utente/Desktop/Tesi/Firmware_Software/DAVE project/S2GLP_Pulsed_Doppler/Dave/Generated/I2C_MASTER\i2c_master.h ****  * Receive FIFO is configured to generate interrupt when the FIFO filling level rises
1042:C:/Users/Utente/Desktop/Tesi/Firmware_Software/DAVE project/S2GLP_Pulsed_Doppler/Dave/Generated/I2C_MASTER\i2c_master.h ****  * above the trigger limit.
1043:C:/Users/Utente/Desktop/Tesi/Firmware_Software/DAVE project/S2GLP_Pulsed_Doppler/Dave/Generated/I2C_MASTER\i2c_master.h ****  *
1044:C:/Users/Utente/Desktop/Tesi/Firmware_Software/DAVE project/S2GLP_Pulsed_Doppler/Dave/Generated/I2C_MASTER\i2c_master.h ****  * Example Usage:
1045:C:/Users/Utente/Desktop/Tesi/Firmware_Software/DAVE project/S2GLP_Pulsed_Doppler/Dave/Generated/I2C_MASTER\i2c_master.h ****  * @code
1046:C:/Users/Utente/Desktop/Tesi/Firmware_Software/DAVE project/S2GLP_Pulsed_Doppler/Dave/Generated/I2C_MASTER\i2c_master.h ****  *
1047:C:/Users/Utente/Desktop/Tesi/Firmware_Software/DAVE project/S2GLP_Pulsed_Doppler/Dave/Generated/I2C_MASTER\i2c_master.h ****  *  #include <DAVE.h>         //Declarations from DAVE Code Generation (includes SFR declaration)
1048:C:/Users/Utente/Desktop/Tesi/Firmware_Software/DAVE project/S2GLP_Pulsed_Doppler/Dave/Generated/I2C_MASTER\i2c_master.h ****  *
1049:C:/Users/Utente/Desktop/Tesi/Firmware_Software/DAVE project/S2GLP_Pulsed_Doppler/Dave/Generated/I2C_MASTER\i2c_master.h ****  *  #define SLAVE_ADDRESS 0xA0
1050:C:/Users/Utente/Desktop/Tesi/Firmware_Software/DAVE project/S2GLP_Pulsed_Doppler/Dave/Generated/I2C_MASTER\i2c_master.h ****  *
1051:C:/Users/Utente/Desktop/Tesi/Firmware_Software/DAVE project/S2GLP_Pulsed_Doppler/Dave/Generated/I2C_MASTER\i2c_master.h ****  *  uint8_t Rx_Data[256];
1052:C:/Users/Utente/Desktop/Tesi/Firmware_Software/DAVE project/S2GLP_Pulsed_Doppler/Dave/Generated/I2C_MASTER\i2c_master.h ****  *  int main(void)
1053:C:/Users/Utente/Desktop/Tesi/Firmware_Software/DAVE project/S2GLP_Pulsed_Doppler/Dave/Generated/I2C_MASTER\i2c_master.h ****  *  {
1054:C:/Users/Utente/Desktop/Tesi/Firmware_Software/DAVE project/S2GLP_Pulsed_Doppler/Dave/Generated/I2C_MASTER\i2c_master.h ****  *    DAVE_STATUS_t init_status;
1055:C:/Users/Utente/Desktop/Tesi/Firmware_Software/DAVE project/S2GLP_Pulsed_Doppler/Dave/Generated/I2C_MASTER\i2c_master.h ****  *
1056:C:/Users/Utente/Desktop/Tesi/Firmware_Software/DAVE project/S2GLP_Pulsed_Doppler/Dave/Generated/I2C_MASTER\i2c_master.h ****  *    init_status = DAVE_Init();
1057:C:/Users/Utente/Desktop/Tesi/Firmware_Software/DAVE project/S2GLP_Pulsed_Doppler/Dave/Generated/I2C_MASTER\i2c_master.h ****  *    if(init_status == DAVE_STATUS_SUCCESS)
1058:C:/Users/Utente/Desktop/Tesi/Firmware_Software/DAVE project/S2GLP_Pulsed_Doppler/Dave/Generated/I2C_MASTER\i2c_master.h ****  *    {
1059:C:/Users/Utente/Desktop/Tesi/Firmware_Software/DAVE project/S2GLP_Pulsed_Doppler/Dave/Generated/I2C_MASTER\i2c_master.h ****  *      //Configure receive fifo trigger limit to filling level as 10
1060:C:/Users/Utente/Desktop/Tesi/Firmware_Software/DAVE project/S2GLP_Pulsed_Doppler/Dave/Generated/I2C_MASTER\i2c_master.h ****  *      I2C_MASTER_SetRXFIFOTriggerLimit(&I2C_MASTER_0, 16, 10);
1061:C:/Users/Utente/Desktop/Tesi/Firmware_Software/DAVE project/S2GLP_Pulsed_Doppler/Dave/Generated/I2C_MASTER\i2c_master.h ****  *      // Execution will happen two times in the receive interrupt handler as the limit is set to 
1062:C:/Users/Utente/Desktop/Tesi/Firmware_Software/DAVE project/S2GLP_Pulsed_Doppler/Dave/Generated/I2C_MASTER\i2c_master.h ****  *      I2C_MASTER_Receive(&I2C_MASTER_0, true, SLAVE_ADDRESS, Rx_Data, 16, true, true);
1063:C:/Users/Utente/Desktop/Tesi/Firmware_Software/DAVE project/S2GLP_Pulsed_Doppler/Dave/Generated/I2C_MASTER\i2c_master.h ****  *      while(I2C_MASTER_IsRxBusy(&I2C_MASTER_0));
1064:C:/Users/Utente/Desktop/Tesi/Firmware_Software/DAVE project/S2GLP_Pulsed_Doppler/Dave/Generated/I2C_MASTER\i2c_master.h ****  *    }
1065:C:/Users/Utente/Desktop/Tesi/Firmware_Software/DAVE project/S2GLP_Pulsed_Doppler/Dave/Generated/I2C_MASTER\i2c_master.h ****  *    else
1066:C:/Users/Utente/Desktop/Tesi/Firmware_Software/DAVE project/S2GLP_Pulsed_Doppler/Dave/Generated/I2C_MASTER\i2c_master.h ****  *    {
1067:C:/Users/Utente/Desktop/Tesi/Firmware_Software/DAVE project/S2GLP_Pulsed_Doppler/Dave/Generated/I2C_MASTER\i2c_master.h ****  *      XMC_DEBUG("main: Application initialization failed");
1068:C:/Users/Utente/Desktop/Tesi/Firmware_Software/DAVE project/S2GLP_Pulsed_Doppler/Dave/Generated/I2C_MASTER\i2c_master.h ****  *      while(1U)
1069:C:/Users/Utente/Desktop/Tesi/Firmware_Software/DAVE project/S2GLP_Pulsed_Doppler/Dave/Generated/I2C_MASTER\i2c_master.h ****  *      {
1070:C:/Users/Utente/Desktop/Tesi/Firmware_Software/DAVE project/S2GLP_Pulsed_Doppler/Dave/Generated/I2C_MASTER\i2c_master.h ****  *      }
1071:C:/Users/Utente/Desktop/Tesi/Firmware_Software/DAVE project/S2GLP_Pulsed_Doppler/Dave/Generated/I2C_MASTER\i2c_master.h ****  *    }
1072:C:/Users/Utente/Desktop/Tesi/Firmware_Software/DAVE project/S2GLP_Pulsed_Doppler/Dave/Generated/I2C_MASTER\i2c_master.h ****  *    return 1U;
1073:C:/Users/Utente/Desktop/Tesi/Firmware_Software/DAVE project/S2GLP_Pulsed_Doppler/Dave/Generated/I2C_MASTER\i2c_master.h ****  *  }
1074:C:/Users/Utente/Desktop/Tesi/Firmware_Software/DAVE project/S2GLP_Pulsed_Doppler/Dave/Generated/I2C_MASTER\i2c_master.h ****  *
1075:C:/Users/Utente/Desktop/Tesi/Firmware_Software/DAVE project/S2GLP_Pulsed_Doppler/Dave/Generated/I2C_MASTER\i2c_master.h ****  * @endcode
1076:C:/Users/Utente/Desktop/Tesi/Firmware_Software/DAVE project/S2GLP_Pulsed_Doppler/Dave/Generated/I2C_MASTER\i2c_master.h ****  */
1077:C:/Users/Utente/Desktop/Tesi/Firmware_Software/DAVE project/S2GLP_Pulsed_Doppler/Dave/Generated/I2C_MASTER\i2c_master.h **** __STATIC_INLINE void I2C_MASTER_SetRXFIFOTriggerLimit(I2C_MASTER_t * const handle, const uint32_t s
1078:C:/Users/Utente/Desktop/Tesi/Firmware_Software/DAVE project/S2GLP_Pulsed_Doppler/Dave/Generated/I2C_MASTER\i2c_master.h **** 		                                              const uint32_t limit)
1079:C:/Users/Utente/Desktop/Tesi/Firmware_Software/DAVE project/S2GLP_Pulsed_Doppler/Dave/Generated/I2C_MASTER\i2c_master.h **** {
1080:C:/Users/Utente/Desktop/Tesi/Firmware_Software/DAVE project/S2GLP_Pulsed_Doppler/Dave/Generated/I2C_MASTER\i2c_master.h ****   XMC_ASSERT("I2C_MASTER_SetRXFIFOTriggerLimit: invalid handle", (handle != NULL))
1081:C:/Users/Utente/Desktop/Tesi/Firmware_Software/DAVE project/S2GLP_Pulsed_Doppler/Dave/Generated/I2C_MASTER\i2c_master.h ****   XMC_USIC_CH_RXFIFO_SetSizeTriggerLimit(handle->channel, (XMC_USIC_CH_FIFO_SIZE_t)size, limit);
1082:C:/Users/Utente/Desktop/Tesi/Firmware_Software/DAVE project/S2GLP_Pulsed_Doppler/Dave/Generated/I2C_MASTER\i2c_master.h **** }
1083:C:/Users/Utente/Desktop/Tesi/Firmware_Software/DAVE project/S2GLP_Pulsed_Doppler/Dave/Generated/I2C_MASTER\i2c_master.h **** 
1084:C:/Users/Utente/Desktop/Tesi/Firmware_Software/DAVE project/S2GLP_Pulsed_Doppler/Dave/Generated/I2C_MASTER\i2c_master.h **** /**
1085:C:/Users/Utente/Desktop/Tesi/Firmware_Software/DAVE project/S2GLP_Pulsed_Doppler/Dave/Generated/I2C_MASTER\i2c_master.h ****  * @brief Checks if the transmit FIFO is full.
1086:C:/Users/Utente/Desktop/Tesi/Firmware_Software/DAVE project/S2GLP_Pulsed_Doppler/Dave/Generated/I2C_MASTER\i2c_master.h ****  *
1087:C:/Users/Utente/Desktop/Tesi/Firmware_Software/DAVE project/S2GLP_Pulsed_Doppler/Dave/Generated/I2C_MASTER\i2c_master.h ****  * @param  handle I2C_MASTER APP handle pointer of type @ref I2C_MASTER_t
1088:C:/Users/Utente/Desktop/Tesi/Firmware_Software/DAVE project/S2GLP_Pulsed_Doppler/Dave/Generated/I2C_MASTER\i2c_master.h ****  *
1089:C:/Users/Utente/Desktop/Tesi/Firmware_Software/DAVE project/S2GLP_Pulsed_Doppler/Dave/Generated/I2C_MASTER\i2c_master.h ****  * @return bool Status of transmit FIFO filling level.
1090:C:/Users/Utente/Desktop/Tesi/Firmware_Software/DAVE project/S2GLP_Pulsed_Doppler/Dave/Generated/I2C_MASTER\i2c_master.h ****  *              \bRange: \atrue- if transmit FIFO is full.<br>
1091:C:/Users/Utente/Desktop/Tesi/Firmware_Software/DAVE project/S2GLP_Pulsed_Doppler/Dave/Generated/I2C_MASTER\i2c_master.h ****  *                       \afalse- if transmit FIFO is not full.<br>
1092:C:/Users/Utente/Desktop/Tesi/Firmware_Software/DAVE project/S2GLP_Pulsed_Doppler/Dave/Generated/I2C_MASTER\i2c_master.h ****  * \par<b>Description:</b><br>
1093:C:/Users/Utente/Desktop/Tesi/Firmware_Software/DAVE project/S2GLP_Pulsed_Doppler/Dave/Generated/I2C_MASTER\i2c_master.h ****  * Checks the status using the register TRBSR. Can be used while filling
1094:C:/Users/Utente/Desktop/Tesi/Firmware_Software/DAVE project/S2GLP_Pulsed_Doppler/Dave/Generated/I2C_MASTER\i2c_master.h ****  * data to the transmit FIFO.
1095:C:/Users/Utente/Desktop/Tesi/Firmware_Software/DAVE project/S2GLP_Pulsed_Doppler/Dave/Generated/I2C_MASTER\i2c_master.h ****  * \par<b>NOTE: </b><br>: Transmit should be "Direct" mode in advanced settings tab.<br>
1096:C:/Users/Utente/Desktop/Tesi/Firmware_Software/DAVE project/S2GLP_Pulsed_Doppler/Dave/Generated/I2C_MASTER\i2c_master.h ****  * Example Usage:
1097:C:/Users/Utente/Desktop/Tesi/Firmware_Software/DAVE project/S2GLP_Pulsed_Doppler/Dave/Generated/I2C_MASTER\i2c_master.h ****  *
1098:C:/Users/Utente/Desktop/Tesi/Firmware_Software/DAVE project/S2GLP_Pulsed_Doppler/Dave/Generated/I2C_MASTER\i2c_master.h ****  * @code
1099:C:/Users/Utente/Desktop/Tesi/Firmware_Software/DAVE project/S2GLP_Pulsed_Doppler/Dave/Generated/I2C_MASTER\i2c_master.h ****  *
1100:C:/Users/Utente/Desktop/Tesi/Firmware_Software/DAVE project/S2GLP_Pulsed_Doppler/Dave/Generated/I2C_MASTER\i2c_master.h ****  *  #include <DAVE.h>                 //Declarations from DAVE Code Generation (includes SFR declar
1101:C:/Users/Utente/Desktop/Tesi/Firmware_Software/DAVE project/S2GLP_Pulsed_Doppler/Dave/Generated/I2C_MASTER\i2c_master.h ****  *  #define SLAVE_ADDRESS 0xA0
1102:C:/Users/Utente/Desktop/Tesi/Firmware_Software/DAVE project/S2GLP_Pulsed_Doppler/Dave/Generated/I2C_MASTER\i2c_master.h **** 
1103:C:/Users/Utente/Desktop/Tesi/Firmware_Software/DAVE project/S2GLP_Pulsed_Doppler/Dave/Generated/I2C_MASTER\i2c_master.h ****  *
1104:C:/Users/Utente/Desktop/Tesi/Firmware_Software/DAVE project/S2GLP_Pulsed_Doppler/Dave/Generated/I2C_MASTER\i2c_master.h ****  *  uint8_t send_data[] = "Infineon Technologies";
1105:C:/Users/Utente/Desktop/Tesi/Firmware_Software/DAVE project/S2GLP_Pulsed_Doppler/Dave/Generated/I2C_MASTER\i2c_master.h ****  *  int main(void)
1106:C:/Users/Utente/Desktop/Tesi/Firmware_Software/DAVE project/S2GLP_Pulsed_Doppler/Dave/Generated/I2C_MASTER\i2c_master.h ****  *  {
1107:C:/Users/Utente/Desktop/Tesi/Firmware_Software/DAVE project/S2GLP_Pulsed_Doppler/Dave/Generated/I2C_MASTER\i2c_master.h ****  *    DAVE_STATUS_t status;
1108:C:/Users/Utente/Desktop/Tesi/Firmware_Software/DAVE project/S2GLP_Pulsed_Doppler/Dave/Generated/I2C_MASTER\i2c_master.h ****  *    status = DAVE_Init();           // Initialization of DAVE APPs
1109:C:/Users/Utente/Desktop/Tesi/Firmware_Software/DAVE project/S2GLP_Pulsed_Doppler/Dave/Generated/I2C_MASTER\i2c_master.h ****  *
1110:C:/Users/Utente/Desktop/Tesi/Firmware_Software/DAVE project/S2GLP_Pulsed_Doppler/Dave/Generated/I2C_MASTER\i2c_master.h ****  *    if(status == DAVE_STATUS_FAILURE)
1111:C:/Users/Utente/Desktop/Tesi/Firmware_Software/DAVE project/S2GLP_Pulsed_Doppler/Dave/Generated/I2C_MASTER\i2c_master.h ****  *    {
1112:C:/Users/Utente/Desktop/Tesi/Firmware_Software/DAVE project/S2GLP_Pulsed_Doppler/Dave/Generated/I2C_MASTER\i2c_master.h ****  *      XMC_DEBUG("DAVE APPs initialization failed\n");
1113:C:/Users/Utente/Desktop/Tesi/Firmware_Software/DAVE project/S2GLP_Pulsed_Doppler/Dave/Generated/I2C_MASTER\i2c_master.h ****  *
1114:C:/Users/Utente/Desktop/Tesi/Firmware_Software/DAVE project/S2GLP_Pulsed_Doppler/Dave/Generated/I2C_MASTER\i2c_master.h ****  *      while(1U)
1115:C:/Users/Utente/Desktop/Tesi/Firmware_Software/DAVE project/S2GLP_Pulsed_Doppler/Dave/Generated/I2C_MASTER\i2c_master.h ****  *      {
1116:C:/Users/Utente/Desktop/Tesi/Firmware_Software/DAVE project/S2GLP_Pulsed_Doppler/Dave/Generated/I2C_MASTER\i2c_master.h ****  *      }
1117:C:/Users/Utente/Desktop/Tesi/Firmware_Software/DAVE project/S2GLP_Pulsed_Doppler/Dave/Generated/I2C_MASTER\i2c_master.h ****  *  }
1118:C:/Users/Utente/Desktop/Tesi/Firmware_Software/DAVE project/S2GLP_Pulsed_Doppler/Dave/Generated/I2C_MASTER\i2c_master.h ****  *  I2C_MASTER_Transmit(&I2C_MASTER_0, true, SLAVE_ADDRESS, &send_data[0], 10, false);
1119:C:/Users/Utente/Desktop/Tesi/Firmware_Software/DAVE project/S2GLP_Pulsed_Doppler/Dave/Generated/I2C_MASTER\i2c_master.h ****  *  //Wait when Tx FIFO is full
1120:C:/Users/Utente/Desktop/Tesi/Firmware_Software/DAVE project/S2GLP_Pulsed_Doppler/Dave/Generated/I2C_MASTER\i2c_master.h ****  *  while(!I2C_MASTER_IsTXFIFOFull(&I2C_MASTER_0))
1121:C:/Users/Utente/Desktop/Tesi/Firmware_Software/DAVE project/S2GLP_Pulsed_Doppler/Dave/Generated/I2C_MASTER\i2c_master.h ****  *  {
1122:C:/Users/Utente/Desktop/Tesi/Firmware_Software/DAVE project/S2GLP_Pulsed_Doppler/Dave/Generated/I2C_MASTER\i2c_master.h ****  *    I2C_MASTER_Transmit(&I2C_MASTER_0, false, SLAVE_ADDRESS, &send_data[0], 10, false);
1123:C:/Users/Utente/Desktop/Tesi/Firmware_Software/DAVE project/S2GLP_Pulsed_Doppler/Dave/Generated/I2C_MASTER\i2c_master.h ****  *  }
1124:C:/Users/Utente/Desktop/Tesi/Firmware_Software/DAVE project/S2GLP_Pulsed_Doppler/Dave/Generated/I2C_MASTER\i2c_master.h ****  *  while(1U)
1125:C:/Users/Utente/Desktop/Tesi/Firmware_Software/DAVE project/S2GLP_Pulsed_Doppler/Dave/Generated/I2C_MASTER\i2c_master.h ****  *  {
1126:C:/Users/Utente/Desktop/Tesi/Firmware_Software/DAVE project/S2GLP_Pulsed_Doppler/Dave/Generated/I2C_MASTER\i2c_master.h ****  *  }
1127:C:/Users/Utente/Desktop/Tesi/Firmware_Software/DAVE project/S2GLP_Pulsed_Doppler/Dave/Generated/I2C_MASTER\i2c_master.h ****  * }
1128:C:/Users/Utente/Desktop/Tesi/Firmware_Software/DAVE project/S2GLP_Pulsed_Doppler/Dave/Generated/I2C_MASTER\i2c_master.h ****  * @endcode
1129:C:/Users/Utente/Desktop/Tesi/Firmware_Software/DAVE project/S2GLP_Pulsed_Doppler/Dave/Generated/I2C_MASTER\i2c_master.h ****  */
1130:C:/Users/Utente/Desktop/Tesi/Firmware_Software/DAVE project/S2GLP_Pulsed_Doppler/Dave/Generated/I2C_MASTER\i2c_master.h **** __STATIC_INLINE bool I2C_MASTER_IsTXFIFOFull(const I2C_MASTER_t* const handle)
1131:C:/Users/Utente/Desktop/Tesi/Firmware_Software/DAVE project/S2GLP_Pulsed_Doppler/Dave/Generated/I2C_MASTER\i2c_master.h **** {
1132:C:/Users/Utente/Desktop/Tesi/Firmware_Software/DAVE project/S2GLP_Pulsed_Doppler/Dave/Generated/I2C_MASTER\i2c_master.h ****   XMC_ASSERT("I2C_MASTER_IsTXFIFOFull: invalid handle", (handle != NULL))
1133:C:/Users/Utente/Desktop/Tesi/Firmware_Software/DAVE project/S2GLP_Pulsed_Doppler/Dave/Generated/I2C_MASTER\i2c_master.h ****   return XMC_USIC_CH_TXFIFO_IsFull(handle->channel);
1134:C:/Users/Utente/Desktop/Tesi/Firmware_Software/DAVE project/S2GLP_Pulsed_Doppler/Dave/Generated/I2C_MASTER\i2c_master.h **** }
1135:C:/Users/Utente/Desktop/Tesi/Firmware_Software/DAVE project/S2GLP_Pulsed_Doppler/Dave/Generated/I2C_MASTER\i2c_master.h **** 
1136:C:/Users/Utente/Desktop/Tesi/Firmware_Software/DAVE project/S2GLP_Pulsed_Doppler/Dave/Generated/I2C_MASTER\i2c_master.h **** /**
1137:C:/Users/Utente/Desktop/Tesi/Firmware_Software/DAVE project/S2GLP_Pulsed_Doppler/Dave/Generated/I2C_MASTER\i2c_master.h ****  * @brief Checks if the receive FIFO is empty.
1138:C:/Users/Utente/Desktop/Tesi/Firmware_Software/DAVE project/S2GLP_Pulsed_Doppler/Dave/Generated/I2C_MASTER\i2c_master.h ****  *
1139:C:/Users/Utente/Desktop/Tesi/Firmware_Software/DAVE project/S2GLP_Pulsed_Doppler/Dave/Generated/I2C_MASTER\i2c_master.h ****  * @param  handle I2C_MASTER APP handle pointer of type @ref I2C_MASTER_t
1140:C:/Users/Utente/Desktop/Tesi/Firmware_Software/DAVE project/S2GLP_Pulsed_Doppler/Dave/Generated/I2C_MASTER\i2c_master.h ****  *
1141:C:/Users/Utente/Desktop/Tesi/Firmware_Software/DAVE project/S2GLP_Pulsed_Doppler/Dave/Generated/I2C_MASTER\i2c_master.h ****  * @return bool Status of receive FIFO filling level.
1142:C:/Users/Utente/Desktop/Tesi/Firmware_Software/DAVE project/S2GLP_Pulsed_Doppler/Dave/Generated/I2C_MASTER\i2c_master.h ****  *              \bRange: \atrue- if receive FIFO is empty.<br>
1143:C:/Users/Utente/Desktop/Tesi/Firmware_Software/DAVE project/S2GLP_Pulsed_Doppler/Dave/Generated/I2C_MASTER\i2c_master.h ****  *                       \afalse- if receive FIFO still has data.<br>
1144:C:/Users/Utente/Desktop/Tesi/Firmware_Software/DAVE project/S2GLP_Pulsed_Doppler/Dave/Generated/I2C_MASTER\i2c_master.h ****  * \par<b>Description:</b><br>
1145:C:/Users/Utente/Desktop/Tesi/Firmware_Software/DAVE project/S2GLP_Pulsed_Doppler/Dave/Generated/I2C_MASTER\i2c_master.h ****  * Checks the status using the register TRBSR. Can be used while reading data from the receive FIFO
1146:C:/Users/Utente/Desktop/Tesi/Firmware_Software/DAVE project/S2GLP_Pulsed_Doppler/Dave/Generated/I2C_MASTER\i2c_master.h ****  *
1147:C:/Users/Utente/Desktop/Tesi/Firmware_Software/DAVE project/S2GLP_Pulsed_Doppler/Dave/Generated/I2C_MASTER\i2c_master.h ****  * Example Usage:
1148:C:/Users/Utente/Desktop/Tesi/Firmware_Software/DAVE project/S2GLP_Pulsed_Doppler/Dave/Generated/I2C_MASTER\i2c_master.h ****  * @code
1149:C:/Users/Utente/Desktop/Tesi/Firmware_Software/DAVE project/S2GLP_Pulsed_Doppler/Dave/Generated/I2C_MASTER\i2c_master.h ****  *
1150:C:/Users/Utente/Desktop/Tesi/Firmware_Software/DAVE project/S2GLP_Pulsed_Doppler/Dave/Generated/I2C_MASTER\i2c_master.h ****  *  #include <DAVE.h>                 //Declarations from DAVE Code Generation (includes SFR declar
1151:C:/Users/Utente/Desktop/Tesi/Firmware_Software/DAVE project/S2GLP_Pulsed_Doppler/Dave/Generated/I2C_MASTER\i2c_master.h ****  *  #define SLAVE_ADDRESS (0xA0)
1152:C:/Users/Utente/Desktop/Tesi/Firmware_Software/DAVE project/S2GLP_Pulsed_Doppler/Dave/Generated/I2C_MASTER\i2c_master.h ****  *  int main(void)
1153:C:/Users/Utente/Desktop/Tesi/Firmware_Software/DAVE project/S2GLP_Pulsed_Doppler/Dave/Generated/I2C_MASTER\i2c_master.h ****  *  {
1154:C:/Users/Utente/Desktop/Tesi/Firmware_Software/DAVE project/S2GLP_Pulsed_Doppler/Dave/Generated/I2C_MASTER\i2c_master.h ****  *    DAVE_STATUS_t init_status;
1155:C:/Users/Utente/Desktop/Tesi/Firmware_Software/DAVE project/S2GLP_Pulsed_Doppler/Dave/Generated/I2C_MASTER\i2c_master.h ****  *    uint8_t rec_data[64];
1156:C:/Users/Utente/Desktop/Tesi/Firmware_Software/DAVE project/S2GLP_Pulsed_Doppler/Dave/Generated/I2C_MASTER\i2c_master.h ****  *    uint8_t index = 0, loc_index = 0;
1157:C:/Users/Utente/Desktop/Tesi/Firmware_Software/DAVE project/S2GLP_Pulsed_Doppler/Dave/Generated/I2C_MASTER\i2c_master.h ****  *    init_status = DAVE_Init();
1158:C:/Users/Utente/Desktop/Tesi/Firmware_Software/DAVE project/S2GLP_Pulsed_Doppler/Dave/Generated/I2C_MASTER\i2c_master.h ****  *    if(init_status == DAVE_STATUS_SUCCESS)
1159:C:/Users/Utente/Desktop/Tesi/Firmware_Software/DAVE project/S2GLP_Pulsed_Doppler/Dave/Generated/I2C_MASTER\i2c_master.h ****  *    {
1160:C:/Users/Utente/Desktop/Tesi/Firmware_Software/DAVE project/S2GLP_Pulsed_Doppler/Dave/Generated/I2C_MASTER\i2c_master.h ****  *      I2C_MASTER_SendStart(&I2C_MASTER_0, SLAVE_ADDRESS, XMC_I2C_CH_CMD_WRITE);
1161:C:/Users/Utente/Desktop/Tesi/Firmware_Software/DAVE project/S2GLP_Pulsed_Doppler/Dave/Generated/I2C_MASTER\i2c_master.h ****  *      while(I2C_MASTER_GetFlagStatus(&I2C_MASTER_0, XMC_I2C_CH_STATUS_FLAG_ACK_RECEIVED) == 0U)
1162:C:/Users/Utente/Desktop/Tesi/Firmware_Software/DAVE project/S2GLP_Pulsed_Doppler/Dave/Generated/I2C_MASTER\i2c_master.h ****  *      {
1163:C:/Users/Utente/Desktop/Tesi/Firmware_Software/DAVE project/S2GLP_Pulsed_Doppler/Dave/Generated/I2C_MASTER\i2c_master.h ****  *       // wait for ACK
1164:C:/Users/Utente/Desktop/Tesi/Firmware_Software/DAVE project/S2GLP_Pulsed_Doppler/Dave/Generated/I2C_MASTER\i2c_master.h ****  *      }
1165:C:/Users/Utente/Desktop/Tesi/Firmware_Software/DAVE project/S2GLP_Pulsed_Doppler/Dave/Generated/I2C_MASTER\i2c_master.h ****  *      I2C_MASTER_ClearFlag(&I2C_MASTER_0,XMC_I2C_CH_STATUS_FLAG_ACK_RECEIVED);
1166:C:/Users/Utente/Desktop/Tesi/Firmware_Software/DAVE project/S2GLP_Pulsed_Doppler/Dave/Generated/I2C_MASTER\i2c_master.h ****  *      // write to address 0
1167:C:/Users/Utente/Desktop/Tesi/Firmware_Software/DAVE project/S2GLP_Pulsed_Doppler/Dave/Generated/I2C_MASTER\i2c_master.h ****  *      I2C_MASTER_TransmitByte(&I2C_MASTER_0, 0x00);
1168:C:/Users/Utente/Desktop/Tesi/Firmware_Software/DAVE project/S2GLP_Pulsed_Doppler/Dave/Generated/I2C_MASTER\i2c_master.h ****  *      while(I2C_MASTER_GetFlagStatus(&I2C_MASTER_0, XMC_I2C_CH_STATUS_FLAG_ACK_RECEIVED) == 0U)
1169:C:/Users/Utente/Desktop/Tesi/Firmware_Software/DAVE project/S2GLP_Pulsed_Doppler/Dave/Generated/I2C_MASTER\i2c_master.h ****  *      {
1170:C:/Users/Utente/Desktop/Tesi/Firmware_Software/DAVE project/S2GLP_Pulsed_Doppler/Dave/Generated/I2C_MASTER\i2c_master.h ****  *       // wait for ACK
1171:C:/Users/Utente/Desktop/Tesi/Firmware_Software/DAVE project/S2GLP_Pulsed_Doppler/Dave/Generated/I2C_MASTER\i2c_master.h ****  *      }
1172:C:/Users/Utente/Desktop/Tesi/Firmware_Software/DAVE project/S2GLP_Pulsed_Doppler/Dave/Generated/I2C_MASTER\i2c_master.h ****  *      I2C_MASTER_ClearFlag(&I2C_MASTER_0,XMC_I2C_CH_STATUS_FLAG_ACK_RECEIVED);
1173:C:/Users/Utente/Desktop/Tesi/Firmware_Software/DAVE project/S2GLP_Pulsed_Doppler/Dave/Generated/I2C_MASTER\i2c_master.h ****  *      I2C_MASTER_SendRepeatedStart(&I2C_MASTER_0, SLAVE_ADDRESS, XMC_I2C_CH_CMD_READ);
1174:C:/Users/Utente/Desktop/Tesi/Firmware_Software/DAVE project/S2GLP_Pulsed_Doppler/Dave/Generated/I2C_MASTER\i2c_master.h ****  *      while(I2C_MASTER_GetFlagStatus(&I2C_MASTER_0, XMC_I2C_CH_STATUS_FLAG_ACK_RECEIVED) == 0U)
1175:C:/Users/Utente/Desktop/Tesi/Firmware_Software/DAVE project/S2GLP_Pulsed_Doppler/Dave/Generated/I2C_MASTER\i2c_master.h ****  *      {
1176:C:/Users/Utente/Desktop/Tesi/Firmware_Software/DAVE project/S2GLP_Pulsed_Doppler/Dave/Generated/I2C_MASTER\i2c_master.h ****  *       // wait for ACK
1177:C:/Users/Utente/Desktop/Tesi/Firmware_Software/DAVE project/S2GLP_Pulsed_Doppler/Dave/Generated/I2C_MASTER\i2c_master.h ****  *      }
1178:C:/Users/Utente/Desktop/Tesi/Firmware_Software/DAVE project/S2GLP_Pulsed_Doppler/Dave/Generated/I2C_MASTER\i2c_master.h ****  *      I2C_MASTER_ClearFlag(&I2C_MASTER_0,XMC_I2C_CH_STATUS_FLAG_ACK_RECEIVED);
1179:C:/Users/Utente/Desktop/Tesi/Firmware_Software/DAVE project/S2GLP_Pulsed_Doppler/Dave/Generated/I2C_MASTER\i2c_master.h ****  *      while(index < 16)
1180:C:/Users/Utente/Desktop/Tesi/Firmware_Software/DAVE project/S2GLP_Pulsed_Doppler/Dave/Generated/I2C_MASTER\i2c_master.h ****  *      {
1181:C:/Users/Utente/Desktop/Tesi/Firmware_Software/DAVE project/S2GLP_Pulsed_Doppler/Dave/Generated/I2C_MASTER\i2c_master.h ****  *        I2C_MASTER_ReceiveACK(&I2C_MASTER_0);
1182:C:/Users/Utente/Desktop/Tesi/Firmware_Software/DAVE project/S2GLP_Pulsed_Doppler/Dave/Generated/I2C_MASTER\i2c_master.h ****  *        index++;
1183:C:/Users/Utente/Desktop/Tesi/Firmware_Software/DAVE project/S2GLP_Pulsed_Doppler/Dave/Generated/I2C_MASTER\i2c_master.h ****  *      }
1184:C:/Users/Utente/Desktop/Tesi/Firmware_Software/DAVE project/S2GLP_Pulsed_Doppler/Dave/Generated/I2C_MASTER\i2c_master.h ****  *      //Wait when Rx FIFO is empty
1185:C:/Users/Utente/Desktop/Tesi/Firmware_Software/DAVE project/S2GLP_Pulsed_Doppler/Dave/Generated/I2C_MASTER\i2c_master.h ****  *      while(!I2C_MASTER_IsRXFIFOEmpty(&I2C_MASTER_0))
1186:C:/Users/Utente/Desktop/Tesi/Firmware_Software/DAVE project/S2GLP_Pulsed_Doppler/Dave/Generated/I2C_MASTER\i2c_master.h ****  *      {
1187:C:/Users/Utente/Desktop/Tesi/Firmware_Software/DAVE project/S2GLP_Pulsed_Doppler/Dave/Generated/I2C_MASTER\i2c_master.h ****  *        rec_data[loc_index++] = I2C_MASTER_GetReceivedByte(&I2C_MASTER_0);
1188:C:/Users/Utente/Desktop/Tesi/Firmware_Software/DAVE project/S2GLP_Pulsed_Doppler/Dave/Generated/I2C_MASTER\i2c_master.h ****  *      }
1189:C:/Users/Utente/Desktop/Tesi/Firmware_Software/DAVE project/S2GLP_Pulsed_Doppler/Dave/Generated/I2C_MASTER\i2c_master.h ****  *    }
1190:C:/Users/Utente/Desktop/Tesi/Firmware_Software/DAVE project/S2GLP_Pulsed_Doppler/Dave/Generated/I2C_MASTER\i2c_master.h ****  *   while(1U)
1191:C:/Users/Utente/Desktop/Tesi/Firmware_Software/DAVE project/S2GLP_Pulsed_Doppler/Dave/Generated/I2C_MASTER\i2c_master.h ****  *   {
1192:C:/Users/Utente/Desktop/Tesi/Firmware_Software/DAVE project/S2GLP_Pulsed_Doppler/Dave/Generated/I2C_MASTER\i2c_master.h ****  *   }
1193:C:/Users/Utente/Desktop/Tesi/Firmware_Software/DAVE project/S2GLP_Pulsed_Doppler/Dave/Generated/I2C_MASTER\i2c_master.h ****  *  }
1194:C:/Users/Utente/Desktop/Tesi/Firmware_Software/DAVE project/S2GLP_Pulsed_Doppler/Dave/Generated/I2C_MASTER\i2c_master.h ****  * @endcode
1195:C:/Users/Utente/Desktop/Tesi/Firmware_Software/DAVE project/S2GLP_Pulsed_Doppler/Dave/Generated/I2C_MASTER\i2c_master.h ****  */
1196:C:/Users/Utente/Desktop/Tesi/Firmware_Software/DAVE project/S2GLP_Pulsed_Doppler/Dave/Generated/I2C_MASTER\i2c_master.h **** __STATIC_INLINE bool I2C_MASTER_IsRXFIFOEmpty(const I2C_MASTER_t* const handle)
1197:C:/Users/Utente/Desktop/Tesi/Firmware_Software/DAVE project/S2GLP_Pulsed_Doppler/Dave/Generated/I2C_MASTER\i2c_master.h **** {
1198:C:/Users/Utente/Desktop/Tesi/Firmware_Software/DAVE project/S2GLP_Pulsed_Doppler/Dave/Generated/I2C_MASTER\i2c_master.h ****   XMC_ASSERT("I2C_MASTER_IsRXFIFOEmpty: invalid handle", (handle != NULL))
1199:C:/Users/Utente/Desktop/Tesi/Firmware_Software/DAVE project/S2GLP_Pulsed_Doppler/Dave/Generated/I2C_MASTER\i2c_master.h ****   return XMC_USIC_CH_RXFIFO_IsEmpty(handle->channel);
1200:C:/Users/Utente/Desktop/Tesi/Firmware_Software/DAVE project/S2GLP_Pulsed_Doppler/Dave/Generated/I2C_MASTER\i2c_master.h **** }
1201:C:/Users/Utente/Desktop/Tesi/Firmware_Software/DAVE project/S2GLP_Pulsed_Doppler/Dave/Generated/I2C_MASTER\i2c_master.h **** 
1202:C:/Users/Utente/Desktop/Tesi/Firmware_Software/DAVE project/S2GLP_Pulsed_Doppler/Dave/Generated/I2C_MASTER\i2c_master.h **** /**
1203:C:/Users/Utente/Desktop/Tesi/Firmware_Software/DAVE project/S2GLP_Pulsed_Doppler/Dave/Generated/I2C_MASTER\i2c_master.h ****  * @brief Gets the status of event flags related to receive FIFO.
1204:C:/Users/Utente/Desktop/Tesi/Firmware_Software/DAVE project/S2GLP_Pulsed_Doppler/Dave/Generated/I2C_MASTER\i2c_master.h ****  *
1205:C:/Users/Utente/Desktop/Tesi/Firmware_Software/DAVE project/S2GLP_Pulsed_Doppler/Dave/Generated/I2C_MASTER\i2c_master.h ****  *
1206:C:/Users/Utente/Desktop/Tesi/Firmware_Software/DAVE project/S2GLP_Pulsed_Doppler/Dave/Generated/I2C_MASTER\i2c_master.h ****  * @param  handle I2C_MASTER APP handle pointer of type @ref I2C_MASTER_t
1207:C:/Users/Utente/Desktop/Tesi/Firmware_Software/DAVE project/S2GLP_Pulsed_Doppler/Dave/Generated/I2C_MASTER\i2c_master.h ****  *
1208:C:/Users/Utente/Desktop/Tesi/Firmware_Software/DAVE project/S2GLP_Pulsed_Doppler/Dave/Generated/I2C_MASTER\i2c_master.h ****  * @return uint32_t: Status of standard receive buffer event, alternative receive buffer event and 
1209:C:/Users/Utente/Desktop/Tesi/Firmware_Software/DAVE project/S2GLP_Pulsed_Doppler/Dave/Generated/I2C_MASTER\i2c_master.h ****  * error event in their bit positions in TRBSR register.\n
1210:C:/Users/Utente/Desktop/Tesi/Firmware_Software/DAVE project/S2GLP_Pulsed_Doppler/Dave/Generated/I2C_MASTER\i2c_master.h ****  * \b Range: Use type @ref XMC_USIC_CH_RXFIFO_EVENT_t for event bitmasks. Multiple events' status c
1211:C:/Users/Utente/Desktop/Tesi/Firmware_Software/DAVE project/S2GLP_Pulsed_Doppler/Dave/Generated/I2C_MASTER\i2c_master.h ****  * comparison using \a OR operation.
1212:C:/Users/Utente/Desktop/Tesi/Firmware_Software/DAVE project/S2GLP_Pulsed_Doppler/Dave/Generated/I2C_MASTER\i2c_master.h ****  *
1213:C:/Users/Utente/Desktop/Tesi/Firmware_Software/DAVE project/S2GLP_Pulsed_Doppler/Dave/Generated/I2C_MASTER\i2c_master.h ****  * \par<b>Description:</b><br>
1214:C:/Users/Utente/Desktop/Tesi/Firmware_Software/DAVE project/S2GLP_Pulsed_Doppler/Dave/Generated/I2C_MASTER\i2c_master.h ****  * It provides the status of standard receive buffer event, alternative receive buffer event and re
1215:C:/Users/Utente/Desktop/Tesi/Firmware_Software/DAVE project/S2GLP_Pulsed_Doppler/Dave/Generated/I2C_MASTER\i2c_master.h ****  * event.
1216:C:/Users/Utente/Desktop/Tesi/Firmware_Software/DAVE project/S2GLP_Pulsed_Doppler/Dave/Generated/I2C_MASTER\i2c_master.h ****  * Function masks the TRBSR register with the bitmask of SRBI, ARBI and RBERI flags. User has to ma
1217:C:/Users/Utente/Desktop/Tesi/Firmware_Software/DAVE project/S2GLP_Pulsed_Doppler/Dave/Generated/I2C_MASTER\i2c_master.h ****  * interest before checking the status.
1218:C:/Users/Utente/Desktop/Tesi/Firmware_Software/DAVE project/S2GLP_Pulsed_Doppler/Dave/Generated/I2C_MASTER\i2c_master.h ****  *
1219:C:/Users/Utente/Desktop/Tesi/Firmware_Software/DAVE project/S2GLP_Pulsed_Doppler/Dave/Generated/I2C_MASTER\i2c_master.h ****  * Example Usage:
1220:C:/Users/Utente/Desktop/Tesi/Firmware_Software/DAVE project/S2GLP_Pulsed_Doppler/Dave/Generated/I2C_MASTER\i2c_master.h ****  * @code
1221:C:/Users/Utente/Desktop/Tesi/Firmware_Software/DAVE project/S2GLP_Pulsed_Doppler/Dave/Generated/I2C_MASTER\i2c_master.h ****  *
1222:C:/Users/Utente/Desktop/Tesi/Firmware_Software/DAVE project/S2GLP_Pulsed_Doppler/Dave/Generated/I2C_MASTER\i2c_master.h ****  *   #include <DAVE.h>         //Declarations from DAVE Code Generation (includes SFR declaration)
1223:C:/Users/Utente/Desktop/Tesi/Firmware_Software/DAVE project/S2GLP_Pulsed_Doppler/Dave/Generated/I2C_MASTER\i2c_master.h ****  *   #define SLAVE_ADDRESS 0xA0
1224:C:/Users/Utente/Desktop/Tesi/Firmware_Software/DAVE project/S2GLP_Pulsed_Doppler/Dave/Generated/I2C_MASTER\i2c_master.h ****  *   uint8_t mem_address[2];
1225:C:/Users/Utente/Desktop/Tesi/Firmware_Software/DAVE project/S2GLP_Pulsed_Doppler/Dave/Generated/I2C_MASTER\i2c_master.h ****  *   int main(void)
1226:C:/Users/Utente/Desktop/Tesi/Firmware_Software/DAVE project/S2GLP_Pulsed_Doppler/Dave/Generated/I2C_MASTER\i2c_master.h ****  *   {
1227:C:/Users/Utente/Desktop/Tesi/Firmware_Software/DAVE project/S2GLP_Pulsed_Doppler/Dave/Generated/I2C_MASTER\i2c_master.h ****  *     DAVE_STATUS_t init_status;
1228:C:/Users/Utente/Desktop/Tesi/Firmware_Software/DAVE project/S2GLP_Pulsed_Doppler/Dave/Generated/I2C_MASTER\i2c_master.h ****  *
1229:C:/Users/Utente/Desktop/Tesi/Firmware_Software/DAVE project/S2GLP_Pulsed_Doppler/Dave/Generated/I2C_MASTER\i2c_master.h ****  *     init_status = DAVE_Init();
1230:C:/Users/Utente/Desktop/Tesi/Firmware_Software/DAVE project/S2GLP_Pulsed_Doppler/Dave/Generated/I2C_MASTER\i2c_master.h ****  *     if(init_status == DAVE_STATUS_SUCCESS)
1231:C:/Users/Utente/Desktop/Tesi/Firmware_Software/DAVE project/S2GLP_Pulsed_Doppler/Dave/Generated/I2C_MASTER\i2c_master.h ****  *     {
1232:C:/Users/Utente/Desktop/Tesi/Firmware_Software/DAVE project/S2GLP_Pulsed_Doppler/Dave/Generated/I2C_MASTER\i2c_master.h ****  *       mem_address[0] = 0x00;//memory which need to be read from slave
1233:C:/Users/Utente/Desktop/Tesi/Firmware_Software/DAVE project/S2GLP_Pulsed_Doppler/Dave/Generated/I2C_MASTER\i2c_master.h ****  *       //Configure receive fifo trigger limit as 10
1234:C:/Users/Utente/Desktop/Tesi/Firmware_Software/DAVE project/S2GLP_Pulsed_Doppler/Dave/Generated/I2C_MASTER\i2c_master.h ****  *       I2C_MASTER_SetRXFIFOTriggerLimit(&I2C_MASTER_0, 16, 10);
1235:C:/Users/Utente/Desktop/Tesi/Firmware_Software/DAVE project/S2GLP_Pulsed_Doppler/Dave/Generated/I2C_MASTER\i2c_master.h ****  *       I2C_MASTER_StartTransmitIRQ(&I2C_MASTER_0,true,SLAVE_ADDRESS,mem_address,1,false);
1236:C:/Users/Utente/Desktop/Tesi/Firmware_Software/DAVE project/S2GLP_Pulsed_Doppler/Dave/Generated/I2C_MASTER\i2c_master.h ****  *       while(I2C_MASTER_IsTxBusy(&I2C_MASTER_0));
1237:C:/Users/Utente/Desktop/Tesi/Firmware_Software/DAVE project/S2GLP_Pulsed_Doppler/Dave/Generated/I2C_MASTER\i2c_master.h ****  *       I2C_MASTER_StartReceiveIRQ(&I2C_MASTER_0,true,SLAVE_ADDRESS,mem_address,16,true, true);
1238:C:/Users/Utente/Desktop/Tesi/Firmware_Software/DAVE project/S2GLP_Pulsed_Doppler/Dave/Generated/I2C_MASTER\i2c_master.h ****  *       //Wait for FIFO transmit standard buffer interrupt to fill it again with remaining data
1239:C:/Users/Utente/Desktop/Tesi/Firmware_Software/DAVE project/S2GLP_Pulsed_Doppler/Dave/Generated/I2C_MASTER\i2c_master.h ****  *       while((I2C_MASTER_GetRXFIFOStatus(&I2C_MASTER_0) & XMC_USIC_CH_RXFIFO_EVENT_STANDARD) == 0
1240:C:/Users/Utente/Desktop/Tesi/Firmware_Software/DAVE project/S2GLP_Pulsed_Doppler/Dave/Generated/I2C_MASTER\i2c_master.h ****  *       I2C_MASTER_ClearRXFIFOStatus(&I2C_MASTER_0, XMC_USIC_CH_RXFIFO_EVENT_STANDARD);
1241:C:/Users/Utente/Desktop/Tesi/Firmware_Software/DAVE project/S2GLP_Pulsed_Doppler/Dave/Generated/I2C_MASTER\i2c_master.h ****  *       I2C_MASTER_StartReceiveIRQ(&I2C_MASTER_0,true,SLAVE_ADDRESS,mem_address,6,false, false);
1242:C:/Users/Utente/Desktop/Tesi/Firmware_Software/DAVE project/S2GLP_Pulsed_Doppler/Dave/Generated/I2C_MASTER\i2c_master.h ****  *     }
1243:C:/Users/Utente/Desktop/Tesi/Firmware_Software/DAVE project/S2GLP_Pulsed_Doppler/Dave/Generated/I2C_MASTER\i2c_master.h ****  *     else
1244:C:/Users/Utente/Desktop/Tesi/Firmware_Software/DAVE project/S2GLP_Pulsed_Doppler/Dave/Generated/I2C_MASTER\i2c_master.h ****  *     {
1245:C:/Users/Utente/Desktop/Tesi/Firmware_Software/DAVE project/S2GLP_Pulsed_Doppler/Dave/Generated/I2C_MASTER\i2c_master.h ****  *      XMC_DEBUG("main: Application initialization failed");
1246:C:/Users/Utente/Desktop/Tesi/Firmware_Software/DAVE project/S2GLP_Pulsed_Doppler/Dave/Generated/I2C_MASTER\i2c_master.h ****  *      while(1U)
1247:C:/Users/Utente/Desktop/Tesi/Firmware_Software/DAVE project/S2GLP_Pulsed_Doppler/Dave/Generated/I2C_MASTER\i2c_master.h ****  *      {
1248:C:/Users/Utente/Desktop/Tesi/Firmware_Software/DAVE project/S2GLP_Pulsed_Doppler/Dave/Generated/I2C_MASTER\i2c_master.h ****  *      }
1249:C:/Users/Utente/Desktop/Tesi/Firmware_Software/DAVE project/S2GLP_Pulsed_Doppler/Dave/Generated/I2C_MASTER\i2c_master.h ****  *     }
1250:C:/Users/Utente/Desktop/Tesi/Firmware_Software/DAVE project/S2GLP_Pulsed_Doppler/Dave/Generated/I2C_MASTER\i2c_master.h ****  *      return 1U;
1251:C:/Users/Utente/Desktop/Tesi/Firmware_Software/DAVE project/S2GLP_Pulsed_Doppler/Dave/Generated/I2C_MASTER\i2c_master.h ****  *   }
1252:C:/Users/Utente/Desktop/Tesi/Firmware_Software/DAVE project/S2GLP_Pulsed_Doppler/Dave/Generated/I2C_MASTER\i2c_master.h ****  * @endcode
1253:C:/Users/Utente/Desktop/Tesi/Firmware_Software/DAVE project/S2GLP_Pulsed_Doppler/Dave/Generated/I2C_MASTER\i2c_master.h ****  *
1254:C:/Users/Utente/Desktop/Tesi/Firmware_Software/DAVE project/S2GLP_Pulsed_Doppler/Dave/Generated/I2C_MASTER\i2c_master.h ****  */
1255:C:/Users/Utente/Desktop/Tesi/Firmware_Software/DAVE project/S2GLP_Pulsed_Doppler/Dave/Generated/I2C_MASTER\i2c_master.h **** __STATIC_INLINE uint32_t I2C_MASTER_GetRXFIFOStatus(const I2C_MASTER_t* const handle)
1256:C:/Users/Utente/Desktop/Tesi/Firmware_Software/DAVE project/S2GLP_Pulsed_Doppler/Dave/Generated/I2C_MASTER\i2c_master.h **** {
1257:C:/Users/Utente/Desktop/Tesi/Firmware_Software/DAVE project/S2GLP_Pulsed_Doppler/Dave/Generated/I2C_MASTER\i2c_master.h ****   XMC_ASSERT("I2C_MASTER_GetRXFIFOStatus: invalid handle", (handle != NULL))
1258:C:/Users/Utente/Desktop/Tesi/Firmware_Software/DAVE project/S2GLP_Pulsed_Doppler/Dave/Generated/I2C_MASTER\i2c_master.h ****   return XMC_USIC_CH_RXFIFO_GetEvent(handle->channel);
1259:C:/Users/Utente/Desktop/Tesi/Firmware_Software/DAVE project/S2GLP_Pulsed_Doppler/Dave/Generated/I2C_MASTER\i2c_master.h **** }
1260:C:/Users/Utente/Desktop/Tesi/Firmware_Software/DAVE project/S2GLP_Pulsed_Doppler/Dave/Generated/I2C_MASTER\i2c_master.h **** 
1261:C:/Users/Utente/Desktop/Tesi/Firmware_Software/DAVE project/S2GLP_Pulsed_Doppler/Dave/Generated/I2C_MASTER\i2c_master.h **** /**
1262:C:/Users/Utente/Desktop/Tesi/Firmware_Software/DAVE project/S2GLP_Pulsed_Doppler/Dave/Generated/I2C_MASTER\i2c_master.h ****  * @brief Function clears the specified FIFO event flag related to
1263:C:/Users/Utente/Desktop/Tesi/Firmware_Software/DAVE project/S2GLP_Pulsed_Doppler/Dave/Generated/I2C_MASTER\i2c_master.h ****  * transmit FIFO.
1264:C:/Users/Utente/Desktop/Tesi/Firmware_Software/DAVE project/S2GLP_Pulsed_Doppler/Dave/Generated/I2C_MASTER\i2c_master.h ****  *
1265:C:/Users/Utente/Desktop/Tesi/Firmware_Software/DAVE project/S2GLP_Pulsed_Doppler/Dave/Generated/I2C_MASTER\i2c_master.h ****  *
1266:C:/Users/Utente/Desktop/Tesi/Firmware_Software/DAVE project/S2GLP_Pulsed_Doppler/Dave/Generated/I2C_MASTER\i2c_master.h ****  * @param  handle I2C_MASTER APP handle pointer of type @ref I2C_MASTER_t
1267:C:/Users/Utente/Desktop/Tesi/Firmware_Software/DAVE project/S2GLP_Pulsed_Doppler/Dave/Generated/I2C_MASTER\i2c_master.h ****  * @param  flag Value with event bits at their bit positions in TRBSR register to be cleared.\n
1268:C:/Users/Utente/Desktop/Tesi/Firmware_Software/DAVE project/S2GLP_Pulsed_Doppler/Dave/Generated/I2C_MASTER\i2c_master.h ****  *             \b Range: Use type @ref XMC_USIC_CH_TXFIFO_EVENT_t. Multiple events can be combined 
1269:C:/Users/Utente/Desktop/Tesi/Firmware_Software/DAVE project/S2GLP_Pulsed_Doppler/Dave/Generated/I2C_MASTER\i2c_master.h ****  *             \a OR operation.
1270:C:/Users/Utente/Desktop/Tesi/Firmware_Software/DAVE project/S2GLP_Pulsed_Doppler/Dave/Generated/I2C_MASTER\i2c_master.h ****  *
1271:C:/Users/Utente/Desktop/Tesi/Firmware_Software/DAVE project/S2GLP_Pulsed_Doppler/Dave/Generated/I2C_MASTER\i2c_master.h ****  * @return    None
1272:C:/Users/Utente/Desktop/Tesi/Firmware_Software/DAVE project/S2GLP_Pulsed_Doppler/Dave/Generated/I2C_MASTER\i2c_master.h ****  *
1273:C:/Users/Utente/Desktop/Tesi/Firmware_Software/DAVE project/S2GLP_Pulsed_Doppler/Dave/Generated/I2C_MASTER\i2c_master.h ****  * \par<b>Description:</b><br>
1274:C:/Users/Utente/Desktop/Tesi/Firmware_Software/DAVE project/S2GLP_Pulsed_Doppler/Dave/Generated/I2C_MASTER\i2c_master.h ****  * Function clears a status bit in TRBSR register using the TRBSCR register. But the function does 
1275:C:/Users/Utente/Desktop/Tesi/Firmware_Software/DAVE project/S2GLP_Pulsed_Doppler/Dave/Generated/I2C_MASTER\i2c_master.h ****  * value with the bit positions restricted to transmit FIFO status bits. User should ensure that th
1276:C:/Users/Utente/Desktop/Tesi/Firmware_Software/DAVE project/S2GLP_Pulsed_Doppler/Dave/Generated/I2C_MASTER\i2c_master.h ****  * appropriately masked.
1277:C:/Users/Utente/Desktop/Tesi/Firmware_Software/DAVE project/S2GLP_Pulsed_Doppler/Dave/Generated/I2C_MASTER\i2c_master.h ****  *
1278:C:/Users/Utente/Desktop/Tesi/Firmware_Software/DAVE project/S2GLP_Pulsed_Doppler/Dave/Generated/I2C_MASTER\i2c_master.h ****  * Example Usage:
1279:C:/Users/Utente/Desktop/Tesi/Firmware_Software/DAVE project/S2GLP_Pulsed_Doppler/Dave/Generated/I2C_MASTER\i2c_master.h ****  * @code
1280:C:/Users/Utente/Desktop/Tesi/Firmware_Software/DAVE project/S2GLP_Pulsed_Doppler/Dave/Generated/I2C_MASTER\i2c_master.h ****  *
1281:C:/Users/Utente/Desktop/Tesi/Firmware_Software/DAVE project/S2GLP_Pulsed_Doppler/Dave/Generated/I2C_MASTER\i2c_master.h ****  *  #include <DAVE.h>         //Declarations from DAVE Code Generation (includes SFR declaration)
1282:C:/Users/Utente/Desktop/Tesi/Firmware_Software/DAVE project/S2GLP_Pulsed_Doppler/Dave/Generated/I2C_MASTER\i2c_master.h ****  *  #define SLAVE_ADDRESS 0xA0
1283:C:/Users/Utente/Desktop/Tesi/Firmware_Software/DAVE project/S2GLP_Pulsed_Doppler/Dave/Generated/I2C_MASTER\i2c_master.h ****  *  uint8_t mem_address[2];
1284:C:/Users/Utente/Desktop/Tesi/Firmware_Software/DAVE project/S2GLP_Pulsed_Doppler/Dave/Generated/I2C_MASTER\i2c_master.h ****  *  int main(void)
1285:C:/Users/Utente/Desktop/Tesi/Firmware_Software/DAVE project/S2GLP_Pulsed_Doppler/Dave/Generated/I2C_MASTER\i2c_master.h ****  *  {
1286:C:/Users/Utente/Desktop/Tesi/Firmware_Software/DAVE project/S2GLP_Pulsed_Doppler/Dave/Generated/I2C_MASTER\i2c_master.h ****  *    DAVE_STATUS_t init_status;
1287:C:/Users/Utente/Desktop/Tesi/Firmware_Software/DAVE project/S2GLP_Pulsed_Doppler/Dave/Generated/I2C_MASTER\i2c_master.h ****  *
1288:C:/Users/Utente/Desktop/Tesi/Firmware_Software/DAVE project/S2GLP_Pulsed_Doppler/Dave/Generated/I2C_MASTER\i2c_master.h ****  *    init_status = DAVE_Init();
1289:C:/Users/Utente/Desktop/Tesi/Firmware_Software/DAVE project/S2GLP_Pulsed_Doppler/Dave/Generated/I2C_MASTER\i2c_master.h ****  *    if(init_status == DAVE_STATUS_SUCCESS)
1290:C:/Users/Utente/Desktop/Tesi/Firmware_Software/DAVE project/S2GLP_Pulsed_Doppler/Dave/Generated/I2C_MASTER\i2c_master.h ****  *    {
1291:C:/Users/Utente/Desktop/Tesi/Firmware_Software/DAVE project/S2GLP_Pulsed_Doppler/Dave/Generated/I2C_MASTER\i2c_master.h ****  *      mem_address[0] = 0x00; //memory which need to be read from slave
1292:C:/Users/Utente/Desktop/Tesi/Firmware_Software/DAVE project/S2GLP_Pulsed_Doppler/Dave/Generated/I2C_MASTER\i2c_master.h ****  *      //Configure transmit fifo trigger limit as 10
1293:C:/Users/Utente/Desktop/Tesi/Firmware_Software/DAVE project/S2GLP_Pulsed_Doppler/Dave/Generated/I2C_MASTER\i2c_master.h ****  *      I2C_MASTER_SetTXFIFOTriggerLimit(&I2C_MASTER_0, 16, 10);
1294:C:/Users/Utente/Desktop/Tesi/Firmware_Software/DAVE project/S2GLP_Pulsed_Doppler/Dave/Generated/I2C_MASTER\i2c_master.h ****  *      I2C_MASTER_StartTransmitIRQ(&I2C_MASTER_0,true,SLAVE_ADDRESS,mem_address,1,false);
1295:C:/Users/Utente/Desktop/Tesi/Firmware_Software/DAVE project/S2GLP_Pulsed_Doppler/Dave/Generated/I2C_MASTER\i2c_master.h ****  *      while(I2C_MASTER_IsTxBusy(&I2C_MASTER_0));
1296:C:/Users/Utente/Desktop/Tesi/Firmware_Software/DAVE project/S2GLP_Pulsed_Doppler/Dave/Generated/I2C_MASTER\i2c_master.h ****  *      I2C_MASTER_StartTransmitIRQ(&I2C_MASTER_0,true,SLAVE_ADDRESS,mem_address,16,false);
1297:C:/Users/Utente/Desktop/Tesi/Firmware_Software/DAVE project/S2GLP_Pulsed_Doppler/Dave/Generated/I2C_MASTER\i2c_master.h ****  *      //Wait for FIFO transmit standard buffer interrupt to fill it again with remaining data
1298:C:/Users/Utente/Desktop/Tesi/Firmware_Software/DAVE project/S2GLP_Pulsed_Doppler/Dave/Generated/I2C_MASTER\i2c_master.h ****  *      while((I2C_MASTER_GetTXFIFOStatus(&I2C_MASTER_0) & XMC_USIC_CH_TXFIFO_EVENT_STANDARD) == 0)
1299:C:/Users/Utente/Desktop/Tesi/Firmware_Software/DAVE project/S2GLP_Pulsed_Doppler/Dave/Generated/I2C_MASTER\i2c_master.h ****  *      I2C_MASTER_ClearTXFIFOStatus(&I2C_MASTER_0, XMC_USIC_CH_TXFIFO_EVENT_STANDARD);
1300:C:/Users/Utente/Desktop/Tesi/Firmware_Software/DAVE project/S2GLP_Pulsed_Doppler/Dave/Generated/I2C_MASTER\i2c_master.h ****  *      I2C_MASTER_StartTransmitIRQ(&I2C_MASTER_0,true,SLAVE_ADDRESS,mem_address,6,false);
1301:C:/Users/Utente/Desktop/Tesi/Firmware_Software/DAVE project/S2GLP_Pulsed_Doppler/Dave/Generated/I2C_MASTER\i2c_master.h ****  *    }
1302:C:/Users/Utente/Desktop/Tesi/Firmware_Software/DAVE project/S2GLP_Pulsed_Doppler/Dave/Generated/I2C_MASTER\i2c_master.h ****  *    else
1303:C:/Users/Utente/Desktop/Tesi/Firmware_Software/DAVE project/S2GLP_Pulsed_Doppler/Dave/Generated/I2C_MASTER\i2c_master.h ****  *    {
1304:C:/Users/Utente/Desktop/Tesi/Firmware_Software/DAVE project/S2GLP_Pulsed_Doppler/Dave/Generated/I2C_MASTER\i2c_master.h ****  *      XMC_DEBUG("main: Application initialization failed");
1305:C:/Users/Utente/Desktop/Tesi/Firmware_Software/DAVE project/S2GLP_Pulsed_Doppler/Dave/Generated/I2C_MASTER\i2c_master.h ****  *      while(1U)
1306:C:/Users/Utente/Desktop/Tesi/Firmware_Software/DAVE project/S2GLP_Pulsed_Doppler/Dave/Generated/I2C_MASTER\i2c_master.h ****  *      {
1307:C:/Users/Utente/Desktop/Tesi/Firmware_Software/DAVE project/S2GLP_Pulsed_Doppler/Dave/Generated/I2C_MASTER\i2c_master.h ****  *      }
1308:C:/Users/Utente/Desktop/Tesi/Firmware_Software/DAVE project/S2GLP_Pulsed_Doppler/Dave/Generated/I2C_MASTER\i2c_master.h ****  *    }
1309:C:/Users/Utente/Desktop/Tesi/Firmware_Software/DAVE project/S2GLP_Pulsed_Doppler/Dave/Generated/I2C_MASTER\i2c_master.h ****  *    return 1U;
1310:C:/Users/Utente/Desktop/Tesi/Firmware_Software/DAVE project/S2GLP_Pulsed_Doppler/Dave/Generated/I2C_MASTER\i2c_master.h ****  *  }
1311:C:/Users/Utente/Desktop/Tesi/Firmware_Software/DAVE project/S2GLP_Pulsed_Doppler/Dave/Generated/I2C_MASTER\i2c_master.h ****  * @endcode
1312:C:/Users/Utente/Desktop/Tesi/Firmware_Software/DAVE project/S2GLP_Pulsed_Doppler/Dave/Generated/I2C_MASTER\i2c_master.h ****  *
1313:C:/Users/Utente/Desktop/Tesi/Firmware_Software/DAVE project/S2GLP_Pulsed_Doppler/Dave/Generated/I2C_MASTER\i2c_master.h ****  */
1314:C:/Users/Utente/Desktop/Tesi/Firmware_Software/DAVE project/S2GLP_Pulsed_Doppler/Dave/Generated/I2C_MASTER\i2c_master.h **** __STATIC_INLINE void I2C_MASTER_ClearTXFIFOStatus(const I2C_MASTER_t* const handle, const uint32_t 
1315:C:/Users/Utente/Desktop/Tesi/Firmware_Software/DAVE project/S2GLP_Pulsed_Doppler/Dave/Generated/I2C_MASTER\i2c_master.h **** {
1316:C:/Users/Utente/Desktop/Tesi/Firmware_Software/DAVE project/S2GLP_Pulsed_Doppler/Dave/Generated/I2C_MASTER\i2c_master.h ****   XMC_ASSERT("I2C_MASTER_ClearTXFIFOStatus: invalid handle", (handle != NULL))
1317:C:/Users/Utente/Desktop/Tesi/Firmware_Software/DAVE project/S2GLP_Pulsed_Doppler/Dave/Generated/I2C_MASTER\i2c_master.h ****   XMC_USIC_CH_TXFIFO_ClearEvent(handle->channel, flag);
1318:C:/Users/Utente/Desktop/Tesi/Firmware_Software/DAVE project/S2GLP_Pulsed_Doppler/Dave/Generated/I2C_MASTER\i2c_master.h **** }
1319:C:/Users/Utente/Desktop/Tesi/Firmware_Software/DAVE project/S2GLP_Pulsed_Doppler/Dave/Generated/I2C_MASTER\i2c_master.h **** 
1320:C:/Users/Utente/Desktop/Tesi/Firmware_Software/DAVE project/S2GLP_Pulsed_Doppler/Dave/Generated/I2C_MASTER\i2c_master.h **** /**
1321:C:/Users/Utente/Desktop/Tesi/Firmware_Software/DAVE project/S2GLP_Pulsed_Doppler/Dave/Generated/I2C_MASTER\i2c_master.h ****  * @brief Function clears the specified FIFO event flag related to receive FIFO. It should be used 
1322:C:/Users/Utente/Desktop/Tesi/Firmware_Software/DAVE project/S2GLP_Pulsed_Doppler/Dave/Generated/I2C_MASTER\i2c_master.h ****  * of standard receive buffer interrupt, alternative receive buffer interrupt and receive buffer er
1323:C:/Users/Utente/Desktop/Tesi/Firmware_Software/DAVE project/S2GLP_Pulsed_Doppler/Dave/Generated/I2C_MASTER\i2c_master.h ****  *
1324:C:/Users/Utente/Desktop/Tesi/Firmware_Software/DAVE project/S2GLP_Pulsed_Doppler/Dave/Generated/I2C_MASTER\i2c_master.h ****  *
1325:C:/Users/Utente/Desktop/Tesi/Firmware_Software/DAVE project/S2GLP_Pulsed_Doppler/Dave/Generated/I2C_MASTER\i2c_master.h ****  * @param  handle I2C_MASTER APP handle pointer of type @ref I2C_MASTER_t
1326:C:/Users/Utente/Desktop/Tesi/Firmware_Software/DAVE project/S2GLP_Pulsed_Doppler/Dave/Generated/I2C_MASTER\i2c_master.h ****  * @param  flag Value with event bits at the bit positions in TRBSR register to be cleared.\n
1327:C:/Users/Utente/Desktop/Tesi/Firmware_Software/DAVE project/S2GLP_Pulsed_Doppler/Dave/Generated/I2C_MASTER\i2c_master.h ****  *             \b Range: Use type @ref XMC_USIC_CH_RXFIFO_EVENT_t for providing events.
1328:C:/Users/Utente/Desktop/Tesi/Firmware_Software/DAVE project/S2GLP_Pulsed_Doppler/Dave/Generated/I2C_MASTER\i2c_master.h ****  *             Multiple events can be input by using \a OR operation.
1329:C:/Users/Utente/Desktop/Tesi/Firmware_Software/DAVE project/S2GLP_Pulsed_Doppler/Dave/Generated/I2C_MASTER\i2c_master.h ****  *
1330:C:/Users/Utente/Desktop/Tesi/Firmware_Software/DAVE project/S2GLP_Pulsed_Doppler/Dave/Generated/I2C_MASTER\i2c_master.h ****  * @return    None
1331:C:/Users/Utente/Desktop/Tesi/Firmware_Software/DAVE project/S2GLP_Pulsed_Doppler/Dave/Generated/I2C_MASTER\i2c_master.h ****  *
1332:C:/Users/Utente/Desktop/Tesi/Firmware_Software/DAVE project/S2GLP_Pulsed_Doppler/Dave/Generated/I2C_MASTER\i2c_master.h ****  * \par<b>Description:</b><br>
1333:C:/Users/Utente/Desktop/Tesi/Firmware_Software/DAVE project/S2GLP_Pulsed_Doppler/Dave/Generated/I2C_MASTER\i2c_master.h ****  * Function clears a status bit in TRBSR using the TRBSCR register.
1334:C:/Users/Utente/Desktop/Tesi/Firmware_Software/DAVE project/S2GLP_Pulsed_Doppler/Dave/Generated/I2C_MASTER\i2c_master.h ****  * The function does not mask the input value to clear only receive buffer
1335:C:/Users/Utente/Desktop/Tesi/Firmware_Software/DAVE project/S2GLP_Pulsed_Doppler/Dave/Generated/I2C_MASTER\i2c_master.h ****  * events. So user should appropriately mask the input value before calling
1336:C:/Users/Utente/Desktop/Tesi/Firmware_Software/DAVE project/S2GLP_Pulsed_Doppler/Dave/Generated/I2C_MASTER\i2c_master.h ****  * the function.
1337:C:/Users/Utente/Desktop/Tesi/Firmware_Software/DAVE project/S2GLP_Pulsed_Doppler/Dave/Generated/I2C_MASTER\i2c_master.h ****  *
1338:C:/Users/Utente/Desktop/Tesi/Firmware_Software/DAVE project/S2GLP_Pulsed_Doppler/Dave/Generated/I2C_MASTER\i2c_master.h ****  * Example Usage:
1339:C:/Users/Utente/Desktop/Tesi/Firmware_Software/DAVE project/S2GLP_Pulsed_Doppler/Dave/Generated/I2C_MASTER\i2c_master.h ****  * @code
1340:C:/Users/Utente/Desktop/Tesi/Firmware_Software/DAVE project/S2GLP_Pulsed_Doppler/Dave/Generated/I2C_MASTER\i2c_master.h ****  *
1341:C:/Users/Utente/Desktop/Tesi/Firmware_Software/DAVE project/S2GLP_Pulsed_Doppler/Dave/Generated/I2C_MASTER\i2c_master.h ****  *  #include <DAVE.h>         //Declarations from DAVE Code Generation (includes SFR declaration)
1342:C:/Users/Utente/Desktop/Tesi/Firmware_Software/DAVE project/S2GLP_Pulsed_Doppler/Dave/Generated/I2C_MASTER\i2c_master.h ****  *  #define SLAVE_ADDRESS 0xA0
1343:C:/Users/Utente/Desktop/Tesi/Firmware_Software/DAVE project/S2GLP_Pulsed_Doppler/Dave/Generated/I2C_MASTER\i2c_master.h ****  *  uint8_t mem_address[2];
1344:C:/Users/Utente/Desktop/Tesi/Firmware_Software/DAVE project/S2GLP_Pulsed_Doppler/Dave/Generated/I2C_MASTER\i2c_master.h ****  *  int main(void)
