   1              	 .syntax unified
   2              	 .cpu cortex-m4
   3              	 .eabi_attribute 27,3
   4              	 .fpu fpv4-sp-d16
   5              	 .eabi_attribute 20,1
   6              	 .eabi_attribute 21,1
   7              	 .eabi_attribute 23,3
   8              	 .eabi_attribute 24,1
   9              	 .eabi_attribute 25,1
  10              	 .eabi_attribute 26,1
  11              	 .eabi_attribute 30,2
  12              	 .eabi_attribute 34,1
  13              	 .eabi_attribute 18,4
  14              	 .thumb
  15              	 .file "timer.c"
  16              	 .text
  17              	.Ltext0:
  18              	 .cfi_sections .debug_frame
  19              	 .section .text.TIMER_GetAppVersion,"ax",%progbits
  20              	 .align 2
  21              	 .global TIMER_GetAppVersion
  22              	 .thumb
  23              	 .thumb_func
  25              	TIMER_GetAppVersion:
  26              	.LFB205:
  27              	 .file 1 "../Dave/Generated/TIMER/timer.c"
   1:../Dave/Generated/TIMER/timer.c **** /**
   2:../Dave/Generated/TIMER/timer.c ****  * @file timer.h
   3:../Dave/Generated/TIMER/timer.c ****  * @date 2015-12-18
   4:../Dave/Generated/TIMER/timer.c ****  *
   5:../Dave/Generated/TIMER/timer.c ****  * NOTE:
   6:../Dave/Generated/TIMER/timer.c ****  * This file is generated by DAVE. Any manual modification done to this file will be lost when the 
   7:../Dave/Generated/TIMER/timer.c ****  *
   8:../Dave/Generated/TIMER/timer.c ****  * @cond
   9:../Dave/Generated/TIMER/timer.c ****  **************************************************************************************************
  10:../Dave/Generated/TIMER/timer.c ****  * TIMER v4.1.10 - Configures the properties of CCU4 or CCU8 peripheral as a timer.
  11:../Dave/Generated/TIMER/timer.c ****  *
  12:../Dave/Generated/TIMER/timer.c ****  * Copyright (c) 2015-2016, Infineon Technologies AG
  13:../Dave/Generated/TIMER/timer.c ****  * All rights reserved.
  14:../Dave/Generated/TIMER/timer.c ****  *
  15:../Dave/Generated/TIMER/timer.c ****  * Redistribution and use in source and binary forms, with or without modification,are permitted pr
  16:../Dave/Generated/TIMER/timer.c ****  * following conditions are met:
  17:../Dave/Generated/TIMER/timer.c ****  *
  18:../Dave/Generated/TIMER/timer.c ****  *   Redistributions of source code must retain the above copyright notice, this list of conditions
  19:../Dave/Generated/TIMER/timer.c ****  *   disclaimer.
  20:../Dave/Generated/TIMER/timer.c ****  *
  21:../Dave/Generated/TIMER/timer.c ****  *   Redistributions in binary form must reproduce the above copyright notice, this list of conditi
  22:../Dave/Generated/TIMER/timer.c ****  *   following disclaimer in the documentation and/or other materials provided with the distributio
  23:../Dave/Generated/TIMER/timer.c ****  *
  24:../Dave/Generated/TIMER/timer.c ****  *   Neither the name of the copyright holders nor the names of its contributors may be used to end
  25:../Dave/Generated/TIMER/timer.c ****  *   products derived from this software without specific prior written permission.
  26:../Dave/Generated/TIMER/timer.c ****  *
  27:../Dave/Generated/TIMER/timer.c ****  * THIS SOFTWARE IS PROVIDED BY THE COPYRIGHT HOLDERS AND CONTRIBUTORS "AS IS" AND ANY EXPRESS OR I
  28:../Dave/Generated/TIMER/timer.c ****  * INCLUDING, BUT NOT LIMITED TO, THE IMPLIED WARRANTIES OF MERCHANTABILITY AND FITNESS FOR A PARTI
  29:../Dave/Generated/TIMER/timer.c ****  * DISCLAIMED. IN NO EVENT SHALL THE COPYRIGHT HOLDER OR CONTRIBUTORS BE LIABLE  FOR ANY DIRECT, IN
  30:../Dave/Generated/TIMER/timer.c ****  * SPECIAL, EXEMPLARY, OR CONSEQUENTIAL DAMAGES (INCLUDING, BUT NOT LIMITED TO, PROCUREMENT OF SUBS
  31:../Dave/Generated/TIMER/timer.c ****  * SERVICES; LOSS OF USE, DATA, OR PROFITS; OR BUSINESS INTERRUPTION) HOWEVER CAUSED AND ON ANY THE
  32:../Dave/Generated/TIMER/timer.c ****  * WHETHER IN CONTRACT, STRICT LIABILITY,OR TORT (INCLUDING NEGLIGENCE OR OTHERWISE) ARISING IN ANY
  33:../Dave/Generated/TIMER/timer.c ****  * USE OF THIS SOFTWARE, EVEN IF ADVISED OF THE POSSIBILITY OF SUCH DAMAGE.
  34:../Dave/Generated/TIMER/timer.c ****  *
  35:../Dave/Generated/TIMER/timer.c ****  * To improve the quality of the software, users are encouraged to share modifications, enhancement
  36:../Dave/Generated/TIMER/timer.c ****  * with Infineon Technologies AG (dave@infineon.com).
  37:../Dave/Generated/TIMER/timer.c ****  **************************************************************************************************
  38:../Dave/Generated/TIMER/timer.c ****  *
  39:../Dave/Generated/TIMER/timer.c ****  * Change History
  40:../Dave/Generated/TIMER/timer.c ****  * --------------
  41:../Dave/Generated/TIMER/timer.c ****  *
  42:../Dave/Generated/TIMER/timer.c ****  * 2015-02-16:
  43:../Dave/Generated/TIMER/timer.c ****  *     - Initial version<br>
  44:../Dave/Generated/TIMER/timer.c ****  *
  45:../Dave/Generated/TIMER/timer.c ****  * 2015-05-08:
  46:../Dave/Generated/TIMER/timer.c ****  *     - "initialized" flag is updated in local init before starting the timer<br>
  47:../Dave/Generated/TIMER/timer.c ****  *     - TIMER_GetTime() and TIMER_Clear() are added.<br>
  48:../Dave/Generated/TIMER/timer.c ****  *     - Timer clear is removed from TIMER_Stop() API<br>
  49:../Dave/Generated/TIMER/timer.c ****  *     - Additional condition check for timer state is added in TIMER_SetTimeInterval() API<br>
  50:../Dave/Generated/TIMER/timer.c ****  *     - TIMER_CCU4_lShadowTransfer(), TIMER_CCU8_lShadowTransfer() are updated to use the mask fro
  51:../Dave/Generated/TIMER/timer.c ****  *
  52:../Dave/Generated/TIMER/timer.c ****  * 2015-05-22:
  53:../Dave/Generated/TIMER/timer.c ****  *     -  API name changed
  54:../Dave/Generated/TIMER/timer.c ****  *          a. TIMER_AcknowledgeInterrupt() --> TIMER_ClearEvent()<br>
  55:../Dave/Generated/TIMER/timer.c ****  *
  56:../Dave/Generated/TIMER/timer.c ****  * @endcond
  57:../Dave/Generated/TIMER/timer.c ****  *
  58:../Dave/Generated/TIMER/timer.c ****  */
  59:../Dave/Generated/TIMER/timer.c **** 
  60:../Dave/Generated/TIMER/timer.c **** /**************************************************************************************************
  61:../Dave/Generated/TIMER/timer.c ****  * HEADER FILES
  62:../Dave/Generated/TIMER/timer.c ****  **************************************************************************************************
  63:../Dave/Generated/TIMER/timer.c **** #include "timer.h"
  64:../Dave/Generated/TIMER/timer.c **** 
  65:../Dave/Generated/TIMER/timer.c **** /**************************************************************************************************
  66:../Dave/Generated/TIMER/timer.c ****  * MACROS
  67:../Dave/Generated/TIMER/timer.c ****  **************************************************************************************************
  68:../Dave/Generated/TIMER/timer.c **** #define TIMER_CMP_100_DUTY             ((uint16_t)0) /* Compare value for 100% duty cycle */
  69:../Dave/Generated/TIMER/timer.c **** #define TIMER_RESOLUTION_SEC_TO_MICRO  (100000000U)  /* Convert the resolution from sec to usec, by
  70:../Dave/Generated/TIMER/timer.c ****                                                       scale factor */
  71:../Dave/Generated/TIMER/timer.c **** #define TIMER_PRESCALER_MAX            (15U)      /* Maximum prescaler values allowed */
  72:../Dave/Generated/TIMER/timer.c **** #define TIMER_PERIOD_16BIT_MAX         (0xFFFFU)  /* Maximum period value */
  73:../Dave/Generated/TIMER/timer.c **** #define TIMER_PERIOD_MIN               (0x1U)     /* Minimum period value */
  74:../Dave/Generated/TIMER/timer.c **** #define TIMER_CLK_SCALE_FACTOR         (32U)      /* Scale factor used during calculation of the "T
  75:../Dave/Generated/TIMER/timer.c **** 
  76:../Dave/Generated/TIMER/timer.c **** /**************************************************************************************************
  77:../Dave/Generated/TIMER/timer.c ****  * LOCAL DATA
  78:../Dave/Generated/TIMER/timer.c ****  **************************************************************************************************
  79:../Dave/Generated/TIMER/timer.c **** 
  80:../Dave/Generated/TIMER/timer.c **** /**************************************************************************************************
  81:../Dave/Generated/TIMER/timer.c ****  * LOCAL ROUTINES
  82:../Dave/Generated/TIMER/timer.c ****  **************************************************************************************************
  83:../Dave/Generated/TIMER/timer.c **** #ifdef TIMER_CCU4_USED
  84:../Dave/Generated/TIMER/timer.c **** TIMER_STATUS_t TIMER_CCU4_lInit(TIMER_t* const handle_ptr);
  85:../Dave/Generated/TIMER/timer.c **** void TIMER_CCU4_lShadowTransfer(TIMER_t* const handle_ptr);
  86:../Dave/Generated/TIMER/timer.c **** #endif
  87:../Dave/Generated/TIMER/timer.c **** 
  88:../Dave/Generated/TIMER/timer.c **** #ifdef TIMER_CCU8_USED
  89:../Dave/Generated/TIMER/timer.c **** TIMER_STATUS_t TIMER_CCU8_lInit(TIMER_t* const handle_ptr);
  90:../Dave/Generated/TIMER/timer.c **** void TIMER_CCU8_lShadowTransfer(TIMER_t* const handle_ptr);
  91:../Dave/Generated/TIMER/timer.c **** #endif
  92:../Dave/Generated/TIMER/timer.c **** 
  93:../Dave/Generated/TIMER/timer.c ****  /*************************************************************************************************
  94:../Dave/Generated/TIMER/timer.c ****  * API IMPLEMENTATION
  95:../Dave/Generated/TIMER/timer.c ****  **************************************************************************************************
  96:../Dave/Generated/TIMER/timer.c ****  /* Returns the version of the TIMER APP.
  97:../Dave/Generated/TIMER/timer.c ****  */
  98:../Dave/Generated/TIMER/timer.c **** DAVE_APP_VERSION_t TIMER_GetAppVersion(void)
  99:../Dave/Generated/TIMER/timer.c **** {
  28              	 .loc 1 99 0
  29              	 .cfi_startproc
  30              	 
  31              	 
  32              	 
  33              	.LVL0:
 100:../Dave/Generated/TIMER/timer.c ****   DAVE_APP_VERSION_t version;
 101:../Dave/Generated/TIMER/timer.c **** 
 102:../Dave/Generated/TIMER/timer.c ****   version.major = TIMER_MAJOR_VERSION;
 103:../Dave/Generated/TIMER/timer.c ****   version.minor = TIMER_MINOR_VERSION;
 104:../Dave/Generated/TIMER/timer.c ****   version.patch = TIMER_PATCH_VERSION;
 105:../Dave/Generated/TIMER/timer.c **** 
 106:../Dave/Generated/TIMER/timer.c ****   return version;
  34              	 .loc 1 106 0
  35 0000 0423     	 movs r3,#4
  36 0002 0020     	 movs r0,#0
  37 0004 63F30700 	 bfi r0,r3,#0,#8
  38 0008 0123     	 movs r3,#1
  39 000a 63F30F20 	 bfi r0,r3,#8,#8
  40 000e 0A23     	 movs r3,#10
  41 0010 63F31740 	 bfi r0,r3,#16,#8
  99:../Dave/Generated/TIMER/timer.c ****   DAVE_APP_VERSION_t version;
  42              	 .loc 1 99 0
  43 0014 82B0     	 sub sp,sp,#8
  44              	.LCFI0:
  45              	 .cfi_def_cfa_offset 8
 107:../Dave/Generated/TIMER/timer.c **** }
  46              	 .loc 1 107 0
  47 0016 02B0     	 add sp,sp,#8
  48              	.LCFI1:
  49              	 .cfi_def_cfa_offset 0
  50              	 
  51 0018 7047     	 bx lr
  52              	 .cfi_endproc
  53              	.LFE205:
  55 001a 00BF     	 .section .text.TIMER_Init,"ax",%progbits
  56              	 .align 2
  57              	 .global TIMER_Init
  58              	 .thumb
  59              	 .thumb_func
  61              	TIMER_Init:
  62              	.LFB206:
 108:../Dave/Generated/TIMER/timer.c **** 
 109:../Dave/Generated/TIMER/timer.c **** /*
 110:../Dave/Generated/TIMER/timer.c ****  * This function initializes a TIMER APP based on user configuration.
 111:../Dave/Generated/TIMER/timer.c ****  *
 112:../Dave/Generated/TIMER/timer.c ****  */
 113:../Dave/Generated/TIMER/timer.c **** TIMER_STATUS_t TIMER_Init(TIMER_t* const handle_ptr)
 114:../Dave/Generated/TIMER/timer.c **** {
  63              	 .loc 1 114 0
  64              	 .cfi_startproc
  65              	 
  66              	 
  67              	.LVL1:
  68 0000 F8B5     	 push {r3,r4,r5,r6,r7,lr}
  69              	.LCFI2:
  70              	 .cfi_def_cfa_offset 24
  71              	 .cfi_offset 3,-24
  72              	 .cfi_offset 4,-20
  73              	 .cfi_offset 5,-16
  74              	 .cfi_offset 6,-12
  75              	 .cfi_offset 7,-8
  76              	 .cfi_offset 14,-4
 115:../Dave/Generated/TIMER/timer.c ****   TIMER_STATUS_t status;
 116:../Dave/Generated/TIMER/timer.c **** 
 117:../Dave/Generated/TIMER/timer.c ****   XMC_ASSERT("TIMER_Init:handle_ptr NULL" , (handle_ptr != NULL));
 118:../Dave/Generated/TIMER/timer.c **** 
 119:../Dave/Generated/TIMER/timer.c ****   status = TIMER_STATUS_SUCCESS;
 120:../Dave/Generated/TIMER/timer.c ****   /* Check for APP instance is initialized or not */
 121:../Dave/Generated/TIMER/timer.c ****   if (false == handle_ptr->initialized)
  77              	 .loc 1 121 0
  78 0002 90F82630 	 ldrb r3,[r0,#38]
  79 0006 002B     	 cmp r3,#0
  80 0008 2FD1     	 bne .L6
 122:../Dave/Generated/TIMER/timer.c ****   {
 123:../Dave/Generated/TIMER/timer.c **** #ifdef TIMER_CCU4_USED
 124:../Dave/Generated/TIMER/timer.c ****     if (TIMER_MODULE_CCU4 == handle_ptr->timer_module)
  81              	 .loc 1 124 0
  82 000a 90F82160 	 ldrb r6,[r0,#33]
  83 000e 16B1     	 cbz r6,.L14
 119:../Dave/Generated/TIMER/timer.c ****   /* Check for APP instance is initialized or not */
  84              	 .loc 1 119 0
  85 0010 1D46     	 mov r5,r3
  86              	.LVL2:
  87              	.L4:
 125:../Dave/Generated/TIMER/timer.c ****     {
 126:../Dave/Generated/TIMER/timer.c ****       /* Configure CCU4 timer for the required time tick settings */
 127:../Dave/Generated/TIMER/timer.c ****       status = TIMER_CCU4_lInit(handle_ptr);
 128:../Dave/Generated/TIMER/timer.c ****     }
 129:../Dave/Generated/TIMER/timer.c **** #endif
 130:../Dave/Generated/TIMER/timer.c **** 
 131:../Dave/Generated/TIMER/timer.c **** #ifdef TIMER_CCU8_USED
 132:../Dave/Generated/TIMER/timer.c ****     if (TIMER_MODULE_CCU8 == handle_ptr->timer_module)
 133:../Dave/Generated/TIMER/timer.c ****     {
 134:../Dave/Generated/TIMER/timer.c ****       /* Configure CCU8 timer for the required time tick settings */
 135:../Dave/Generated/TIMER/timer.c ****       status = TIMER_CCU8_lInit(handle_ptr);
 136:../Dave/Generated/TIMER/timer.c ****     }
 137:../Dave/Generated/TIMER/timer.c **** #endif
 138:../Dave/Generated/TIMER/timer.c ****   }
 139:../Dave/Generated/TIMER/timer.c **** 
 140:../Dave/Generated/TIMER/timer.c ****   return (status);
 141:../Dave/Generated/TIMER/timer.c **** }
  88              	 .loc 1 141 0
  89 0012 2846     	 mov r0,r5
  90 0014 F8BD     	 pop {r3,r4,r5,r6,r7,pc}
  91              	.LVL3:
  92              	.L14:
  93 0016 0446     	 mov r4,r0
  94              	.LBB70:
  95              	.LBB71:
 142:../Dave/Generated/TIMER/timer.c **** 
 143:../Dave/Generated/TIMER/timer.c **** /*
 144:../Dave/Generated/TIMER/timer.c ****  * This function starts the timer to generate the events for the specified time_interval value
 145:../Dave/Generated/TIMER/timer.c ****  */
 146:../Dave/Generated/TIMER/timer.c **** TIMER_STATUS_t TIMER_Start(TIMER_t  *const handle_ptr)
 147:../Dave/Generated/TIMER/timer.c **** {
 148:../Dave/Generated/TIMER/timer.c ****   TIMER_STATUS_t status;
 149:../Dave/Generated/TIMER/timer.c **** 
 150:../Dave/Generated/TIMER/timer.c ****   XMC_ASSERT("TIMER_Start:handle_ptr NULL" , (handle_ptr != NULL));
 151:../Dave/Generated/TIMER/timer.c **** 
 152:../Dave/Generated/TIMER/timer.c ****   /* Check for APP instance is initialized or not */
 153:../Dave/Generated/TIMER/timer.c ****   if (true == handle_ptr->initialized)
 154:../Dave/Generated/TIMER/timer.c ****   {
 155:../Dave/Generated/TIMER/timer.c **** #ifdef TIMER_CCU4_USED
 156:../Dave/Generated/TIMER/timer.c ****     if (TIMER_MODULE_CCU4 == handle_ptr->timer_module)
 157:../Dave/Generated/TIMER/timer.c ****     {
 158:../Dave/Generated/TIMER/timer.c ****       /* Start the timer manually */
 159:../Dave/Generated/TIMER/timer.c ****       XMC_CCU4_SLICE_StartTimer(handle_ptr->ccu4_slice_ptr);
 160:../Dave/Generated/TIMER/timer.c ****     }
 161:../Dave/Generated/TIMER/timer.c **** #endif
 162:../Dave/Generated/TIMER/timer.c **** 
 163:../Dave/Generated/TIMER/timer.c **** #ifdef TIMER_CCU8_USED
 164:../Dave/Generated/TIMER/timer.c ****     if (TIMER_MODULE_CCU8 == handle_ptr->timer_module)
 165:../Dave/Generated/TIMER/timer.c ****        {
 166:../Dave/Generated/TIMER/timer.c ****       /* Start the timer manually */
 167:../Dave/Generated/TIMER/timer.c ****       XMC_CCU8_SLICE_StartTimer(handle_ptr->ccu8_slice_ptr);
 168:../Dave/Generated/TIMER/timer.c ****        }
 169:../Dave/Generated/TIMER/timer.c **** #endif
 170:../Dave/Generated/TIMER/timer.c ****     status = TIMER_STATUS_SUCCESS;
 171:../Dave/Generated/TIMER/timer.c ****   }
 172:../Dave/Generated/TIMER/timer.c ****   else
 173:../Dave/Generated/TIMER/timer.c ****   {
 174:../Dave/Generated/TIMER/timer.c ****     status = TIMER_STATUS_FAILURE;
 175:../Dave/Generated/TIMER/timer.c ****   }
 176:../Dave/Generated/TIMER/timer.c **** 
 177:../Dave/Generated/TIMER/timer.c ****   return (status);
 178:../Dave/Generated/TIMER/timer.c **** }
 179:../Dave/Generated/TIMER/timer.c **** 
 180:../Dave/Generated/TIMER/timer.c **** /*
 181:../Dave/Generated/TIMER/timer.c ****  * This function stops and clears the timer
 182:../Dave/Generated/TIMER/timer.c ****  */
 183:../Dave/Generated/TIMER/timer.c **** TIMER_STATUS_t TIMER_Stop(TIMER_t  *const handle_ptr)
 184:../Dave/Generated/TIMER/timer.c **** {
 185:../Dave/Generated/TIMER/timer.c ****   TIMER_STATUS_t status;
 186:../Dave/Generated/TIMER/timer.c **** 
 187:../Dave/Generated/TIMER/timer.c ****   XMC_ASSERT("TIMER_Stop:handle_ptr NULL" , (handle_ptr != NULL));
 188:../Dave/Generated/TIMER/timer.c **** 
 189:../Dave/Generated/TIMER/timer.c ****   /* Check whether timer is initialized and in running state */
 190:../Dave/Generated/TIMER/timer.c ****   if ((TIMER_GetTimerStatus(handle_ptr)) && (true == handle_ptr->initialized))
 191:../Dave/Generated/TIMER/timer.c ****   {
 192:../Dave/Generated/TIMER/timer.c **** #ifdef TIMER_CCU4_USED
 193:../Dave/Generated/TIMER/timer.c ****     if (TIMER_MODULE_CCU4 == handle_ptr->timer_module)
 194:../Dave/Generated/TIMER/timer.c ****     {
 195:../Dave/Generated/TIMER/timer.c ****       /* Stops the timer */
 196:../Dave/Generated/TIMER/timer.c ****       XMC_CCU4_SLICE_StopTimer(handle_ptr->ccu4_slice_ptr);
 197:../Dave/Generated/TIMER/timer.c ****     }
 198:../Dave/Generated/TIMER/timer.c **** #endif
 199:../Dave/Generated/TIMER/timer.c **** 
 200:../Dave/Generated/TIMER/timer.c **** #ifdef TIMER_CCU8_USED
 201:../Dave/Generated/TIMER/timer.c ****     if (TIMER_MODULE_CCU8 == handle_ptr->timer_module)
 202:../Dave/Generated/TIMER/timer.c ****        {
 203:../Dave/Generated/TIMER/timer.c ****       /* Stops the timer */
 204:../Dave/Generated/TIMER/timer.c ****       XMC_CCU8_SLICE_StopTimer(handle_ptr->ccu8_slice_ptr);
 205:../Dave/Generated/TIMER/timer.c ****        }
 206:../Dave/Generated/TIMER/timer.c **** #endif
 207:../Dave/Generated/TIMER/timer.c ****     status = TIMER_STATUS_SUCCESS;
 208:../Dave/Generated/TIMER/timer.c ****   }
 209:../Dave/Generated/TIMER/timer.c ****   else
 210:../Dave/Generated/TIMER/timer.c ****   {
 211:../Dave/Generated/TIMER/timer.c ****     status = TIMER_STATUS_FAILURE;
 212:../Dave/Generated/TIMER/timer.c ****   }
 213:../Dave/Generated/TIMER/timer.c **** 
 214:../Dave/Generated/TIMER/timer.c ****   return (status);
 215:../Dave/Generated/TIMER/timer.c **** }
 216:../Dave/Generated/TIMER/timer.c **** 
 217:../Dave/Generated/TIMER/timer.c **** /*
 218:../Dave/Generated/TIMER/timer.c ****  * This function returns the status of the timer
 219:../Dave/Generated/TIMER/timer.c ****  */
 220:../Dave/Generated/TIMER/timer.c **** bool TIMER_GetTimerStatus(TIMER_t  *const handle_ptr)
 221:../Dave/Generated/TIMER/timer.c **** {
 222:../Dave/Generated/TIMER/timer.c ****   bool status;
 223:../Dave/Generated/TIMER/timer.c **** 
 224:../Dave/Generated/TIMER/timer.c ****   XMC_ASSERT("TIMER_GetTimerStatus:handle_ptr NULL" , (handle_ptr != NULL));
 225:../Dave/Generated/TIMER/timer.c **** 
 226:../Dave/Generated/TIMER/timer.c ****   status = false;
 227:../Dave/Generated/TIMER/timer.c **** 
 228:../Dave/Generated/TIMER/timer.c **** #ifdef TIMER_CCU4_USED
 229:../Dave/Generated/TIMER/timer.c ****   if (TIMER_MODULE_CCU4 == handle_ptr->timer_module)
 230:../Dave/Generated/TIMER/timer.c ****   {
 231:../Dave/Generated/TIMER/timer.c ****     /* Returns the current status of the timer */
 232:../Dave/Generated/TIMER/timer.c ****     status = XMC_CCU4_SLICE_IsTimerRunning(handle_ptr->ccu4_slice_ptr);
 233:../Dave/Generated/TIMER/timer.c ****   }
 234:../Dave/Generated/TIMER/timer.c **** #endif
 235:../Dave/Generated/TIMER/timer.c **** 
 236:../Dave/Generated/TIMER/timer.c **** #ifdef TIMER_CCU8_USED
 237:../Dave/Generated/TIMER/timer.c ****   if (TIMER_MODULE_CCU8 == handle_ptr->timer_module)
 238:../Dave/Generated/TIMER/timer.c ****   {
 239:../Dave/Generated/TIMER/timer.c ****     /* Returns the current status of the timer */
 240:../Dave/Generated/TIMER/timer.c ****     status = XMC_CCU8_SLICE_IsTimerRunning(handle_ptr->ccu8_slice_ptr);
 241:../Dave/Generated/TIMER/timer.c ****   }
 242:../Dave/Generated/TIMER/timer.c **** #endif
 243:../Dave/Generated/TIMER/timer.c **** 
 244:../Dave/Generated/TIMER/timer.c ****   return (status);
 245:../Dave/Generated/TIMER/timer.c **** }
 246:../Dave/Generated/TIMER/timer.c **** 
 247:../Dave/Generated/TIMER/timer.c **** /*
 248:../Dave/Generated/TIMER/timer.c ****  * This function changes the PWM period which in turn changes the time tick interval value by check
 249:../Dave/Generated/TIMER/timer.c ****  * the given time tick value is within supported range.
 250:../Dave/Generated/TIMER/timer.c ****  */
 251:../Dave/Generated/TIMER/timer.c **** TIMER_STATUS_t TIMER_SetTimeInterval(TIMER_t  *const handle_ptr, uint32_t time_interval)
 252:../Dave/Generated/TIMER/timer.c **** {
 253:../Dave/Generated/TIMER/timer.c ****   TIMER_STATUS_t status;
 254:../Dave/Generated/TIMER/timer.c ****   uint32_t lfrequency;
 255:../Dave/Generated/TIMER/timer.c ****   uint32_t lprescaler;
 256:../Dave/Generated/TIMER/timer.c **** 
 257:../Dave/Generated/TIMER/timer.c ****   XMC_ASSERT("TIMER_SetTimeInterval:handle_ptr NULL" , (handle_ptr != NULL));
 258:../Dave/Generated/TIMER/timer.c **** 
 259:../Dave/Generated/TIMER/timer.c ****   status = TIMER_STATUS_FAILURE;
 260:../Dave/Generated/TIMER/timer.c **** 
 261:../Dave/Generated/TIMER/timer.c ****   if (false == TIMER_GetTimerStatus(handle_ptr))
 262:../Dave/Generated/TIMER/timer.c ****   {
 263:../Dave/Generated/TIMER/timer.c ****     /* check for time_interval range */
 264:../Dave/Generated/TIMER/timer.c ****     if ((time_interval >= handle_ptr->timer_min_value_us) && (time_interval <= handle_ptr->timer_ma
 265:../Dave/Generated/TIMER/timer.c ****     {
 266:../Dave/Generated/TIMER/timer.c ****       /* Initialize the prescaler */
 267:../Dave/Generated/TIMER/timer.c ****       lprescaler = 0U;
 268:../Dave/Generated/TIMER/timer.c ****       while (time_interval > (handle_ptr->timer_max_value_us >> (TIMER_PRESCALER_MAX - lprescaler))
 269:../Dave/Generated/TIMER/timer.c ****       {
 270:../Dave/Generated/TIMER/timer.c ****         lprescaler++;
 271:../Dave/Generated/TIMER/timer.c ****       }
 272:../Dave/Generated/TIMER/timer.c **** #ifdef TIMER_CCU4_USED
 273:../Dave/Generated/TIMER/timer.c ****       if (TIMER_MODULE_CCU4 == handle_ptr->timer_module)
 274:../Dave/Generated/TIMER/timer.c ****       {
 275:../Dave/Generated/TIMER/timer.c ****         lfrequency = handle_ptr->global_ccu4_handler->module_frequency;
 276:../Dave/Generated/TIMER/timer.c ****         handle_ptr->ccu4_slice_config_ptr->prescaler_initval = lprescaler;
 277:../Dave/Generated/TIMER/timer.c ****         /* Calculate the period register for the required time_interval value */
 278:../Dave/Generated/TIMER/timer.c ****         handle_ptr->period_value = (uint16_t)((((uint64_t)time_interval * lfrequency) >> \
 279:../Dave/Generated/TIMER/timer.c ****                                                handle_ptr->ccu4_slice_config_ptr->prescaler_initval
 280:../Dave/Generated/TIMER/timer.c ****                                               TIMER_RESOLUTION_SEC_TO_MICRO);
 281:../Dave/Generated/TIMER/timer.c ****         /* Actual timer period values is Period_reg_val+1U */
 282:../Dave/Generated/TIMER/timer.c ****         if (handle_ptr->period_value > TIMER_PERIOD_MIN)
 283:../Dave/Generated/TIMER/timer.c ****         {
 284:../Dave/Generated/TIMER/timer.c ****           (handle_ptr->period_value)--;
 285:../Dave/Generated/TIMER/timer.c ****         }
 286:../Dave/Generated/TIMER/timer.c ****         /* Update the prescaler */
 287:../Dave/Generated/TIMER/timer.c ****         XMC_CCU4_SLICE_SetPrescaler(handle_ptr->ccu4_slice_ptr, handle_ptr->ccu4_slice_config_ptr->
 288:../Dave/Generated/TIMER/timer.c ****         /* update period, compare and prescaler values */
 289:../Dave/Generated/TIMER/timer.c ****         TIMER_CCU4_lShadowTransfer(handle_ptr);
 290:../Dave/Generated/TIMER/timer.c ****         /* Update the status */
 291:../Dave/Generated/TIMER/timer.c ****         status = TIMER_STATUS_SUCCESS;
 292:../Dave/Generated/TIMER/timer.c ****       }
 293:../Dave/Generated/TIMER/timer.c **** #endif
 294:../Dave/Generated/TIMER/timer.c **** 
 295:../Dave/Generated/TIMER/timer.c **** #ifdef TIMER_CCU8_USED
 296:../Dave/Generated/TIMER/timer.c ****       if (TIMER_MODULE_CCU8 == handle_ptr->timer_module)
 297:../Dave/Generated/TIMER/timer.c ****       {
 298:../Dave/Generated/TIMER/timer.c ****         handle_ptr->ccu8_slice_config_ptr->prescaler_initval = lprescaler;
 299:../Dave/Generated/TIMER/timer.c ****         lfrequency = handle_ptr->global_ccu8_handler->module_frequency;
 300:../Dave/Generated/TIMER/timer.c ****         /* Calculate the period register for the required time_interval value */
 301:../Dave/Generated/TIMER/timer.c ****         handle_ptr->period_value = (uint16_t)((((uint64_t)time_interval * lfrequency) >> \
 302:../Dave/Generated/TIMER/timer.c ****                                                handle_ptr->ccu8_slice_config_ptr->prescaler_initval
 303:../Dave/Generated/TIMER/timer.c ****                                               TIMER_RESOLUTION_SEC_TO_MICRO);
 304:../Dave/Generated/TIMER/timer.c ****         /* Actual timer period values is Period_reg_val+1U */
 305:../Dave/Generated/TIMER/timer.c ****         if (handle_ptr->period_value > TIMER_PERIOD_MIN)
 306:../Dave/Generated/TIMER/timer.c ****         {
 307:../Dave/Generated/TIMER/timer.c ****           (handle_ptr->period_value)--;
 308:../Dave/Generated/TIMER/timer.c ****         }
 309:../Dave/Generated/TIMER/timer.c ****         /* Update the prescaler */
 310:../Dave/Generated/TIMER/timer.c ****         XMC_CCU8_SLICE_SetPrescaler(handle_ptr->ccu8_slice_ptr, handle_ptr->ccu8_slice_config_ptr->
 311:../Dave/Generated/TIMER/timer.c ****         /* update period, compare and prescaler values */
 312:../Dave/Generated/TIMER/timer.c ****         TIMER_CCU8_lShadowTransfer(handle_ptr);
 313:../Dave/Generated/TIMER/timer.c ****         /* Update the status */
 314:../Dave/Generated/TIMER/timer.c ****         status = TIMER_STATUS_SUCCESS;
 315:../Dave/Generated/TIMER/timer.c ****       }
 316:../Dave/Generated/TIMER/timer.c **** #endif
 317:../Dave/Generated/TIMER/timer.c ****     }
 318:../Dave/Generated/TIMER/timer.c ****   }
 319:../Dave/Generated/TIMER/timer.c ****   return (status);
 320:../Dave/Generated/TIMER/timer.c **** }
 321:../Dave/Generated/TIMER/timer.c **** 
 322:../Dave/Generated/TIMER/timer.c **** /*
 323:../Dave/Generated/TIMER/timer.c ****  * This function reads the timer event(period match interrupt) status of the given timer
 324:../Dave/Generated/TIMER/timer.c ****  */
 325:../Dave/Generated/TIMER/timer.c **** bool TIMER_GetInterruptStatus(TIMER_t * const handle_ptr)
 326:../Dave/Generated/TIMER/timer.c **** {
 327:../Dave/Generated/TIMER/timer.c ****   bool status;
 328:../Dave/Generated/TIMER/timer.c ****   XMC_ASSERT("TIMER_GetInterruptStatus:handle_ptr NULL" , (handle_ptr != NULL));
 329:../Dave/Generated/TIMER/timer.c ****   status = false;
 330:../Dave/Generated/TIMER/timer.c **** #ifdef TIMER_CCU4_USED
 331:../Dave/Generated/TIMER/timer.c ****   if (TIMER_MODULE_CCU4 == handle_ptr->timer_module)
 332:../Dave/Generated/TIMER/timer.c ****   {
 333:../Dave/Generated/TIMER/timer.c ****     /* Reads the interrupt status */
 334:../Dave/Generated/TIMER/timer.c ****     status = XMC_CCU4_SLICE_GetEvent(handle_ptr->ccu4_slice_ptr, XMC_CCU4_SLICE_IRQ_ID_PERIOD_MATCH
 335:../Dave/Generated/TIMER/timer.c ****   }
 336:../Dave/Generated/TIMER/timer.c **** #endif
 337:../Dave/Generated/TIMER/timer.c **** 
 338:../Dave/Generated/TIMER/timer.c **** #ifdef TIMER_CCU8_USED
 339:../Dave/Generated/TIMER/timer.c ****   if (TIMER_MODULE_CCU8 == handle_ptr->timer_module)
 340:../Dave/Generated/TIMER/timer.c ****   {
 341:../Dave/Generated/TIMER/timer.c ****     /* Reads the interrupt status */
 342:../Dave/Generated/TIMER/timer.c ****     status = XMC_CCU8_SLICE_GetEvent(handle_ptr->ccu8_slice_ptr, XMC_CCU8_SLICE_IRQ_ID_PERIOD_MATCH
 343:../Dave/Generated/TIMER/timer.c ****   }
 344:../Dave/Generated/TIMER/timer.c **** #endif
 345:../Dave/Generated/TIMER/timer.c ****   return (status);
 346:../Dave/Generated/TIMER/timer.c **** }
 347:../Dave/Generated/TIMER/timer.c **** 
 348:../Dave/Generated/TIMER/timer.c **** /*
 349:../Dave/Generated/TIMER/timer.c ****  * This function clears the period match interrupt status of the given timer.
 350:../Dave/Generated/TIMER/timer.c ****  */
 351:../Dave/Generated/TIMER/timer.c **** void TIMER_ClearEvent(TIMER_t *const handle_ptr)
 352:../Dave/Generated/TIMER/timer.c **** {
 353:../Dave/Generated/TIMER/timer.c ****   XMC_ASSERT("TIME_CCU_AcknowledgeInterrupt:handle_ptr NULL" , (handle_ptr != NULL));
 354:../Dave/Generated/TIMER/timer.c **** 
 355:../Dave/Generated/TIMER/timer.c **** #ifdef TIMER_CCU4_USED
 356:../Dave/Generated/TIMER/timer.c ****   if (TIMER_MODULE_CCU4 == handle_ptr->timer_module)
 357:../Dave/Generated/TIMER/timer.c ****   {
 358:../Dave/Generated/TIMER/timer.c ****     /* clears the timer event(period match interrupt) */
 359:../Dave/Generated/TIMER/timer.c ****     XMC_CCU4_SLICE_ClearEvent(handle_ptr->ccu4_slice_ptr, XMC_CCU4_SLICE_IRQ_ID_PERIOD_MATCH);
 360:../Dave/Generated/TIMER/timer.c ****   }
 361:../Dave/Generated/TIMER/timer.c **** #endif
 362:../Dave/Generated/TIMER/timer.c **** 
 363:../Dave/Generated/TIMER/timer.c **** #ifdef TIMER_CCU8_USED
 364:../Dave/Generated/TIMER/timer.c ****   if (TIMER_MODULE_CCU8 == handle_ptr->timer_module)
 365:../Dave/Generated/TIMER/timer.c ****   {
 366:../Dave/Generated/TIMER/timer.c ****     /* clears the timer event(period match interrupt) */
 367:../Dave/Generated/TIMER/timer.c ****     XMC_CCU8_SLICE_ClearEvent(handle_ptr->ccu8_slice_ptr, XMC_CCU8_SLICE_IRQ_ID_PERIOD_MATCH);
 368:../Dave/Generated/TIMER/timer.c ****   }
 369:../Dave/Generated/TIMER/timer.c **** #endif
 370:../Dave/Generated/TIMER/timer.c **** }
 371:../Dave/Generated/TIMER/timer.c **** 
 372:../Dave/Generated/TIMER/timer.c **** /*
 373:../Dave/Generated/TIMER/timer.c ****  * This function returns the current time value
 374:../Dave/Generated/TIMER/timer.c ****  */
 375:../Dave/Generated/TIMER/timer.c **** uint32_t TIMER_GetTime(TIMER_t *const handle_ptr)
 376:../Dave/Generated/TIMER/timer.c **** {
 377:../Dave/Generated/TIMER/timer.c ****   uint32_t ltimer_val;
 378:../Dave/Generated/TIMER/timer.c ****   uint32_t lprescaler;
 379:../Dave/Generated/TIMER/timer.c ****   uint32_t ltime_val;
 380:../Dave/Generated/TIMER/timer.c **** 
 381:../Dave/Generated/TIMER/timer.c ****   XMC_ASSERT("TIMER_GetTimerStatus:handle_ptr NULL" , (handle_ptr != NULL));
 382:../Dave/Generated/TIMER/timer.c ****   ltime_val = 0U;
 383:../Dave/Generated/TIMER/timer.c **** 
 384:../Dave/Generated/TIMER/timer.c **** #ifdef TIMER_CCU4_USED
 385:../Dave/Generated/TIMER/timer.c ****   if (TIMER_MODULE_CCU4 == handle_ptr->timer_module)
 386:../Dave/Generated/TIMER/timer.c ****   {
 387:../Dave/Generated/TIMER/timer.c ****     /* Added one to according to the edge aligned mode */
 388:../Dave/Generated/TIMER/timer.c ****     ltimer_val = (uint32_t)XMC_CCU4_SLICE_GetTimerValue(handle_ptr->ccu4_slice_ptr) + 1U;
 389:../Dave/Generated/TIMER/timer.c ****     lprescaler = handle_ptr->ccu4_slice_config_ptr->prescaler_initval;
 390:../Dave/Generated/TIMER/timer.c **** 
 391:../Dave/Generated/TIMER/timer.c ****     /* calculate the time value in micro seconds and scaled with 100 */
 392:../Dave/Generated/TIMER/timer.c ****     ltime_val = (uint32_t)((uint64_t)((uint64_t)ltimer_val * (uint64_t)TIMER_CLK_CONST_SCALED) >> \
 393:../Dave/Generated/TIMER/timer.c ****                            (TIMER_CLK_SCALE_FACTOR - lprescaler));
 394:../Dave/Generated/TIMER/timer.c ****   }
 395:../Dave/Generated/TIMER/timer.c **** #endif
 396:../Dave/Generated/TIMER/timer.c **** 
 397:../Dave/Generated/TIMER/timer.c **** #ifdef TIMER_CCU8_USED
 398:../Dave/Generated/TIMER/timer.c ****   if (TIMER_MODULE_CCU8 == handle_ptr->timer_module)
 399:../Dave/Generated/TIMER/timer.c ****   {
 400:../Dave/Generated/TIMER/timer.c ****     /* Added one to according to the edge aligned mode */
 401:../Dave/Generated/TIMER/timer.c ****     ltimer_val = (uint32_t)XMC_CCU8_SLICE_GetTimerValue(handle_ptr->ccu8_slice_ptr) + 1U;
 402:../Dave/Generated/TIMER/timer.c ****     lprescaler = handle_ptr->ccu8_slice_config_ptr->prescaler_initval;
 403:../Dave/Generated/TIMER/timer.c **** 
 404:../Dave/Generated/TIMER/timer.c ****     /* calculate the time value in micro seconds and scaled with 100 */
 405:../Dave/Generated/TIMER/timer.c ****     ltime_val = (uint32_t)((uint64_t)((uint64_t)ltimer_val * (uint64_t)TIMER_CLK_CONST_SCALED) >> \
 406:../Dave/Generated/TIMER/timer.c ****                            (TIMER_CLK_SCALE_FACTOR - lprescaler));
 407:../Dave/Generated/TIMER/timer.c ****   }
 408:../Dave/Generated/TIMER/timer.c **** #endif
 409:../Dave/Generated/TIMER/timer.c **** 
 410:../Dave/Generated/TIMER/timer.c ****   return ltime_val;
 411:../Dave/Generated/TIMER/timer.c **** }
 412:../Dave/Generated/TIMER/timer.c **** 
 413:../Dave/Generated/TIMER/timer.c **** /*
 414:../Dave/Generated/TIMER/timer.c ****  * Clear the timer
 415:../Dave/Generated/TIMER/timer.c ****  */
 416:../Dave/Generated/TIMER/timer.c **** TIMER_STATUS_t TIMER_Clear(TIMER_t *const handle_ptr)
 417:../Dave/Generated/TIMER/timer.c **** {
 418:../Dave/Generated/TIMER/timer.c ****   TIMER_STATUS_t status;
 419:../Dave/Generated/TIMER/timer.c **** 
 420:../Dave/Generated/TIMER/timer.c ****   XMC_ASSERT("TIMER_Clear:handle_ptr NULL" , (handle_ptr != NULL));
 421:../Dave/Generated/TIMER/timer.c **** 
 422:../Dave/Generated/TIMER/timer.c ****   /* Check for APP instance is initialized or not */
 423:../Dave/Generated/TIMER/timer.c ****   if (true == handle_ptr->initialized)
 424:../Dave/Generated/TIMER/timer.c ****   {
 425:../Dave/Generated/TIMER/timer.c **** #ifdef TIMER_CCU4_USED
 426:../Dave/Generated/TIMER/timer.c ****     if (TIMER_MODULE_CCU4 == handle_ptr->timer_module)
 427:../Dave/Generated/TIMER/timer.c ****     {
 428:../Dave/Generated/TIMER/timer.c ****       /* Clear the timer register */
 429:../Dave/Generated/TIMER/timer.c ****       XMC_CCU4_SLICE_ClearTimer(handle_ptr->ccu4_slice_ptr);
 430:../Dave/Generated/TIMER/timer.c ****     }
 431:../Dave/Generated/TIMER/timer.c **** #endif
 432:../Dave/Generated/TIMER/timer.c **** 
 433:../Dave/Generated/TIMER/timer.c **** #ifdef TIMER_CCU8_USED
 434:../Dave/Generated/TIMER/timer.c ****     if (TIMER_MODULE_CCU8 == handle_ptr->timer_module)
 435:../Dave/Generated/TIMER/timer.c ****     {
 436:../Dave/Generated/TIMER/timer.c ****       /* Clear the timer register */
 437:../Dave/Generated/TIMER/timer.c ****       XMC_CCU8_SLICE_ClearTimer(handle_ptr->ccu8_slice_ptr);
 438:../Dave/Generated/TIMER/timer.c ****     }
 439:../Dave/Generated/TIMER/timer.c **** #endif
 440:../Dave/Generated/TIMER/timer.c ****     status = TIMER_STATUS_SUCCESS;
 441:../Dave/Generated/TIMER/timer.c ****   }
 442:../Dave/Generated/TIMER/timer.c ****   else
 443:../Dave/Generated/TIMER/timer.c ****   {
 444:../Dave/Generated/TIMER/timer.c ****     status = TIMER_STATUS_FAILURE;
 445:../Dave/Generated/TIMER/timer.c ****   }
 446:../Dave/Generated/TIMER/timer.c **** 
 447:../Dave/Generated/TIMER/timer.c ****   return (status);
 448:../Dave/Generated/TIMER/timer.c **** }
 449:../Dave/Generated/TIMER/timer.c **** 
 450:../Dave/Generated/TIMER/timer.c **** /******************************************** PRIVATE FUNCTION DEFINITIONS ************************
 451:../Dave/Generated/TIMER/timer.c **** #ifdef TIMER_CCU4_USED
 452:../Dave/Generated/TIMER/timer.c **** /*
 453:../Dave/Generated/TIMER/timer.c ****  * This function configures timer ccu4 timer with required time tick value
 454:../Dave/Generated/TIMER/timer.c ****  */
 455:../Dave/Generated/TIMER/timer.c **** TIMER_STATUS_t TIMER_CCU4_lInit(TIMER_t* const handle_ptr)
 456:../Dave/Generated/TIMER/timer.c **** {
 457:../Dave/Generated/TIMER/timer.c ****   TIMER_STATUS_t status;
 458:../Dave/Generated/TIMER/timer.c ****   /* Initialize the global registers */
 459:../Dave/Generated/TIMER/timer.c ****   status = (TIMER_STATUS_t)GLOBAL_CCU4_Init(handle_ptr->global_ccu4_handler);
  96              	 .loc 1 459 0
  97 0018 0069     	 ldr r0,[r0,#16]
  98              	.LVL4:
  99 001a FFF7FEFF 	 bl GLOBAL_CCU4_Init
 100              	.LVL5:
 460:../Dave/Generated/TIMER/timer.c **** 
 461:../Dave/Generated/TIMER/timer.c ****   /* Enable the clock for selected timer */
 462:../Dave/Generated/TIMER/timer.c ****   XMC_CCU4_EnableClock(handle_ptr->global_ccu4_handler->module_ptr, handle_ptr->ccu4_slice_number);
 101              	 .loc 1 462 0
 102 001e 2369     	 ldr r3,[r4,#16]
 103              	.LBB72:
 104              	.LBB73:
 105              	 .file 2 "C:/Users/Utente/Desktop/Tesi/Firmware_Software/DAVE project/S2GLP_Pulsed_Doppler/Libraries/XMCLib/inc/xmc_ccu4.h"
   1:C:/Users/Utente/Desktop/Tesi/Firmware_Software/DAVE project/S2GLP_Pulsed_Doppler/Libraries/XMCLib/inc\xmc_ccu4.h **** /**
   2:C:/Users/Utente/Desktop/Tesi/Firmware_Software/DAVE project/S2GLP_Pulsed_Doppler/Libraries/XMCLib/inc\xmc_ccu4.h ****  * @file xmc_ccu4.h
   3:C:/Users/Utente/Desktop/Tesi/Firmware_Software/DAVE project/S2GLP_Pulsed_Doppler/Libraries/XMCLib/inc\xmc_ccu4.h ****  * @date 2017-04-27
   4:C:/Users/Utente/Desktop/Tesi/Firmware_Software/DAVE project/S2GLP_Pulsed_Doppler/Libraries/XMCLib/inc\xmc_ccu4.h ****  *
   5:C:/Users/Utente/Desktop/Tesi/Firmware_Software/DAVE project/S2GLP_Pulsed_Doppler/Libraries/XMCLib/inc\xmc_ccu4.h ****  * @cond
   6:C:/Users/Utente/Desktop/Tesi/Firmware_Software/DAVE project/S2GLP_Pulsed_Doppler/Libraries/XMCLib/inc\xmc_ccu4.h ****  **************************************************************************************************
   7:C:/Users/Utente/Desktop/Tesi/Firmware_Software/DAVE project/S2GLP_Pulsed_Doppler/Libraries/XMCLib/inc\xmc_ccu4.h ****  * XMClib v2.1.16 - XMC Peripheral Driver Library 
   8:C:/Users/Utente/Desktop/Tesi/Firmware_Software/DAVE project/S2GLP_Pulsed_Doppler/Libraries/XMCLib/inc\xmc_ccu4.h ****  *
   9:C:/Users/Utente/Desktop/Tesi/Firmware_Software/DAVE project/S2GLP_Pulsed_Doppler/Libraries/XMCLib/inc\xmc_ccu4.h ****  * Copyright (c) 2015-2017, Infineon Technologies AG
  10:C:/Users/Utente/Desktop/Tesi/Firmware_Software/DAVE project/S2GLP_Pulsed_Doppler/Libraries/XMCLib/inc\xmc_ccu4.h ****  * All rights reserved.                        
  11:C:/Users/Utente/Desktop/Tesi/Firmware_Software/DAVE project/S2GLP_Pulsed_Doppler/Libraries/XMCLib/inc\xmc_ccu4.h ****  *                                             
  12:C:/Users/Utente/Desktop/Tesi/Firmware_Software/DAVE project/S2GLP_Pulsed_Doppler/Libraries/XMCLib/inc\xmc_ccu4.h ****  * Redistribution and use in source and binary forms, with or without modification,are permitted pr
  13:C:/Users/Utente/Desktop/Tesi/Firmware_Software/DAVE project/S2GLP_Pulsed_Doppler/Libraries/XMCLib/inc\xmc_ccu4.h ****  * following conditions are met:   
  14:C:/Users/Utente/Desktop/Tesi/Firmware_Software/DAVE project/S2GLP_Pulsed_Doppler/Libraries/XMCLib/inc\xmc_ccu4.h ****  *                                                                              
  15:C:/Users/Utente/Desktop/Tesi/Firmware_Software/DAVE project/S2GLP_Pulsed_Doppler/Libraries/XMCLib/inc\xmc_ccu4.h ****  * Redistributions of source code must retain the above copyright notice, this list of conditions a
  16:C:/Users/Utente/Desktop/Tesi/Firmware_Software/DAVE project/S2GLP_Pulsed_Doppler/Libraries/XMCLib/inc\xmc_ccu4.h ****  * disclaimer.                        
  17:C:/Users/Utente/Desktop/Tesi/Firmware_Software/DAVE project/S2GLP_Pulsed_Doppler/Libraries/XMCLib/inc\xmc_ccu4.h ****  * 
  18:C:/Users/Utente/Desktop/Tesi/Firmware_Software/DAVE project/S2GLP_Pulsed_Doppler/Libraries/XMCLib/inc\xmc_ccu4.h ****  * Redistributions in binary form must reproduce the above copyright notice, this list of condition
  19:C:/Users/Utente/Desktop/Tesi/Firmware_Software/DAVE project/S2GLP_Pulsed_Doppler/Libraries/XMCLib/inc\xmc_ccu4.h ****  * disclaimer in the documentation and/or other materials provided with the distribution.          
  20:C:/Users/Utente/Desktop/Tesi/Firmware_Software/DAVE project/S2GLP_Pulsed_Doppler/Libraries/XMCLib/inc\xmc_ccu4.h ****  * 
  21:C:/Users/Utente/Desktop/Tesi/Firmware_Software/DAVE project/S2GLP_Pulsed_Doppler/Libraries/XMCLib/inc\xmc_ccu4.h ****  * Neither the name of the copyright holders nor the names of its contributors may be used to endor
  22:C:/Users/Utente/Desktop/Tesi/Firmware_Software/DAVE project/S2GLP_Pulsed_Doppler/Libraries/XMCLib/inc\xmc_ccu4.h ****  * products derived from this software without specific prior written permission.                  
  23:C:/Users/Utente/Desktop/Tesi/Firmware_Software/DAVE project/S2GLP_Pulsed_Doppler/Libraries/XMCLib/inc\xmc_ccu4.h ****  *                                                                              
  24:C:/Users/Utente/Desktop/Tesi/Firmware_Software/DAVE project/S2GLP_Pulsed_Doppler/Libraries/XMCLib/inc\xmc_ccu4.h ****  * THIS SOFTWARE IS PROVIDED BY THE COPYRIGHT HOLDERS AND CONTRIBUTORS "AS IS" AND ANY EXPRESS OR I
  25:C:/Users/Utente/Desktop/Tesi/Firmware_Software/DAVE project/S2GLP_Pulsed_Doppler/Libraries/XMCLib/inc\xmc_ccu4.h ****  * INCLUDING, BUT NOT LIMITED TO, THE IMPLIED WARRANTIES OF MERCHANTABILITY AND FITNESS FOR A PARTI
  26:C:/Users/Utente/Desktop/Tesi/Firmware_Software/DAVE project/S2GLP_Pulsed_Doppler/Libraries/XMCLib/inc\xmc_ccu4.h ****  * DISCLAIMED. IN NO EVENT SHALL THE COPYRIGHT HOLDER OR CONTRIBUTORS BE LIABLE  FOR ANY DIRECT, IN
  27:C:/Users/Utente/Desktop/Tesi/Firmware_Software/DAVE project/S2GLP_Pulsed_Doppler/Libraries/XMCLib/inc\xmc_ccu4.h ****  * SPECIAL, EXEMPLARY, OR CONSEQUENTIAL DAMAGES (INCLUDING, BUT NOT LIMITED TO, PROCUREMENT OF SUBS
  28:C:/Users/Utente/Desktop/Tesi/Firmware_Software/DAVE project/S2GLP_Pulsed_Doppler/Libraries/XMCLib/inc\xmc_ccu4.h ****  * SERVICES; LOSS OF USE, DATA, OR PROFITS; OR BUSINESS INTERRUPTION) HOWEVER CAUSED AND ON ANY THE
  29:C:/Users/Utente/Desktop/Tesi/Firmware_Software/DAVE project/S2GLP_Pulsed_Doppler/Libraries/XMCLib/inc\xmc_ccu4.h ****  * WHETHER IN CONTRACT, STRICT LIABILITY,OR TORT (INCLUDING NEGLIGENCE OR OTHERWISE) ARISING IN ANY
  30:C:/Users/Utente/Desktop/Tesi/Firmware_Software/DAVE project/S2GLP_Pulsed_Doppler/Libraries/XMCLib/inc\xmc_ccu4.h ****  * OF THIS SOFTWARE, EVEN IF ADVISED OF THE POSSIBILITY OF SUCH DAMAGE.                            
  31:C:/Users/Utente/Desktop/Tesi/Firmware_Software/DAVE project/S2GLP_Pulsed_Doppler/Libraries/XMCLib/inc\xmc_ccu4.h ****  *                                                                              
  32:C:/Users/Utente/Desktop/Tesi/Firmware_Software/DAVE project/S2GLP_Pulsed_Doppler/Libraries/XMCLib/inc\xmc_ccu4.h ****  * To improve the quality of the software, users are encouraged to share modifications, enhancement
  33:C:/Users/Utente/Desktop/Tesi/Firmware_Software/DAVE project/S2GLP_Pulsed_Doppler/Libraries/XMCLib/inc\xmc_ccu4.h ****  * Infineon Technologies AG dave@infineon.com).                                                    
  34:C:/Users/Utente/Desktop/Tesi/Firmware_Software/DAVE project/S2GLP_Pulsed_Doppler/Libraries/XMCLib/inc\xmc_ccu4.h ****  **************************************************************************************************
  35:C:/Users/Utente/Desktop/Tesi/Firmware_Software/DAVE project/S2GLP_Pulsed_Doppler/Libraries/XMCLib/inc\xmc_ccu4.h ****  *
  36:C:/Users/Utente/Desktop/Tesi/Firmware_Software/DAVE project/S2GLP_Pulsed_Doppler/Libraries/XMCLib/inc\xmc_ccu4.h ****  * Change History
  37:C:/Users/Utente/Desktop/Tesi/Firmware_Software/DAVE project/S2GLP_Pulsed_Doppler/Libraries/XMCLib/inc\xmc_ccu4.h ****  * --------------
  38:C:/Users/Utente/Desktop/Tesi/Firmware_Software/DAVE project/S2GLP_Pulsed_Doppler/Libraries/XMCLib/inc\xmc_ccu4.h ****  *
  39:C:/Users/Utente/Desktop/Tesi/Firmware_Software/DAVE project/S2GLP_Pulsed_Doppler/Libraries/XMCLib/inc\xmc_ccu4.h ****  * 2015-02-20:
  40:C:/Users/Utente/Desktop/Tesi/Firmware_Software/DAVE project/S2GLP_Pulsed_Doppler/Libraries/XMCLib/inc\xmc_ccu4.h ****  *     - Initial <br>
  41:C:/Users/Utente/Desktop/Tesi/Firmware_Software/DAVE project/S2GLP_Pulsed_Doppler/Libraries/XMCLib/inc\xmc_ccu4.h ****  *     - Documentation updates <br>
  42:C:/Users/Utente/Desktop/Tesi/Firmware_Software/DAVE project/S2GLP_Pulsed_Doppler/Libraries/XMCLib/inc\xmc_ccu4.h ****  *
  43:C:/Users/Utente/Desktop/Tesi/Firmware_Software/DAVE project/S2GLP_Pulsed_Doppler/Libraries/XMCLib/inc\xmc_ccu4.h ****  * 2015-06-20:
  44:C:/Users/Utente/Desktop/Tesi/Firmware_Software/DAVE project/S2GLP_Pulsed_Doppler/Libraries/XMCLib/inc\xmc_ccu4.h ****  *     - Removed version macros and declaration of GetDriverVersion API <br>
  45:C:/Users/Utente/Desktop/Tesi/Firmware_Software/DAVE project/S2GLP_Pulsed_Doppler/Libraries/XMCLib/inc\xmc_ccu4.h ****  *
  46:C:/Users/Utente/Desktop/Tesi/Firmware_Software/DAVE project/S2GLP_Pulsed_Doppler/Libraries/XMCLib/inc\xmc_ccu4.h ****  * 2015-07-22:
  47:C:/Users/Utente/Desktop/Tesi/Firmware_Software/DAVE project/S2GLP_Pulsed_Doppler/Libraries/XMCLib/inc\xmc_ccu4.h ****  *     - XMC_CCU4_SLICE_ConfigureStatusBitOverrideEvent() is updated to support XMC14 device. <br>
  48:C:/Users/Utente/Desktop/Tesi/Firmware_Software/DAVE project/S2GLP_Pulsed_Doppler/Libraries/XMCLib/inc\xmc_ccu4.h ****  *
  49:C:/Users/Utente/Desktop/Tesi/Firmware_Software/DAVE project/S2GLP_Pulsed_Doppler/Libraries/XMCLib/inc\xmc_ccu4.h ****  * 2015-08-17:
  50:C:/Users/Utente/Desktop/Tesi/Firmware_Software/DAVE project/S2GLP_Pulsed_Doppler/Libraries/XMCLib/inc\xmc_ccu4.h ****  *     - XMC_CCU4_SLICE_PRESCALER_t enum is added to set the prescaler divider. <br>
  51:C:/Users/Utente/Desktop/Tesi/Firmware_Software/DAVE project/S2GLP_Pulsed_Doppler/Libraries/XMCLib/inc\xmc_ccu4.h ****  *     - XMC_CCU4_SLICE_SHADOW_TRANSFER_MODE_t enum item names are updated according to the guideli
  52:C:/Users/Utente/Desktop/Tesi/Firmware_Software/DAVE project/S2GLP_Pulsed_Doppler/Libraries/XMCLib/inc\xmc_ccu4.h ****  *     - XMC_CCU4_EnableShadowTransfer() API is made as inline, to improve the speed. <br>
  53:C:/Users/Utente/Desktop/Tesi/Firmware_Software/DAVE project/S2GLP_Pulsed_Doppler/Libraries/XMCLib/inc\xmc_ccu4.h ****  *
  54:C:/Users/Utente/Desktop/Tesi/Firmware_Software/DAVE project/S2GLP_Pulsed_Doppler/Libraries/XMCLib/inc\xmc_ccu4.h ****  * 2015-09-29:
  55:C:/Users/Utente/Desktop/Tesi/Firmware_Software/DAVE project/S2GLP_Pulsed_Doppler/Libraries/XMCLib/inc\xmc_ccu4.h ****  *     - In XMC_CCU4_SLICE_EVENT_LEVEL_SENSITIVITY_t, two more enum items are added to support exte
  56:C:/Users/Utente/Desktop/Tesi/Firmware_Software/DAVE project/S2GLP_Pulsed_Doppler/Libraries/XMCLib/inc\xmc_ccu4.h ****  *       settings.
  57:C:/Users/Utente/Desktop/Tesi/Firmware_Software/DAVE project/S2GLP_Pulsed_Doppler/Libraries/XMCLib/inc\xmc_ccu4.h ****  *
  58:C:/Users/Utente/Desktop/Tesi/Firmware_Software/DAVE project/S2GLP_Pulsed_Doppler/Libraries/XMCLib/inc\xmc_ccu4.h ****  * 2015-10-07:
  59:C:/Users/Utente/Desktop/Tesi/Firmware_Software/DAVE project/S2GLP_Pulsed_Doppler/Libraries/XMCLib/inc\xmc_ccu4.h ****  *     - XMC_CCU4_SLICE_GetEvent() is made as inline.
  60:C:/Users/Utente/Desktop/Tesi/Firmware_Software/DAVE project/S2GLP_Pulsed_Doppler/Libraries/XMCLib/inc\xmc_ccu4.h ****  *     - XMC_CCU4_SLICE_MULTI_IRQ_ID_t is added to support the XMC_CCU4_SLICE_EnableMultipleEvents(
  61:C:/Users/Utente/Desktop/Tesi/Firmware_Software/DAVE project/S2GLP_Pulsed_Doppler/Libraries/XMCLib/inc\xmc_ccu4.h ****  *       XMC_CCU4_SLICE_DisableMultipleEvents() APIs.
  62:C:/Users/Utente/Desktop/Tesi/Firmware_Software/DAVE project/S2GLP_Pulsed_Doppler/Libraries/XMCLib/inc\xmc_ccu4.h ****  *     - DOC updates for the newly added APIs.
  63:C:/Users/Utente/Desktop/Tesi/Firmware_Software/DAVE project/S2GLP_Pulsed_Doppler/Libraries/XMCLib/inc\xmc_ccu4.h ****  *
  64:C:/Users/Utente/Desktop/Tesi/Firmware_Software/DAVE project/S2GLP_Pulsed_Doppler/Libraries/XMCLib/inc\xmc_ccu4.h ****  * 2016-03-09:
  65:C:/Users/Utente/Desktop/Tesi/Firmware_Software/DAVE project/S2GLP_Pulsed_Doppler/Libraries/XMCLib/inc\xmc_ccu4.h ****  *     - Optimization of write only registers 
  66:C:/Users/Utente/Desktop/Tesi/Firmware_Software/DAVE project/S2GLP_Pulsed_Doppler/Libraries/XMCLib/inc\xmc_ccu4.h ****  *
  67:C:/Users/Utente/Desktop/Tesi/Firmware_Software/DAVE project/S2GLP_Pulsed_Doppler/Libraries/XMCLib/inc\xmc_ccu4.h ****  * 2016-05-20:
  68:C:/Users/Utente/Desktop/Tesi/Firmware_Software/DAVE project/S2GLP_Pulsed_Doppler/Libraries/XMCLib/inc\xmc_ccu4.h ****  *     - Added XMC_CCU4_SLICE_StopClearTimer()
  69:C:/Users/Utente/Desktop/Tesi/Firmware_Software/DAVE project/S2GLP_Pulsed_Doppler/Libraries/XMCLib/inc\xmc_ccu4.h ****  *     - Changed implementation of XMC_CCU4_SLICE_StopTimer() and XMC_CCU4_SLICE_ClearTimer() to av
  70:C:/Users/Utente/Desktop/Tesi/Firmware_Software/DAVE project/S2GLP_Pulsed_Doppler/Libraries/XMCLib/inc\xmc_ccu4.h ****  *
  71:C:/Users/Utente/Desktop/Tesi/Firmware_Software/DAVE project/S2GLP_Pulsed_Doppler/Libraries/XMCLib/inc\xmc_ccu4.h ****  * 2017-04-27:
  72:C:/Users/Utente/Desktop/Tesi/Firmware_Software/DAVE project/S2GLP_Pulsed_Doppler/Libraries/XMCLib/inc\xmc_ccu4.h ****  *     - XMC_CCU4_SLICE_SetPrescaler() changed div_val parameter to type XMC_CCU4_SLICE_PRESCALER_t
  73:C:/Users/Utente/Desktop/Tesi/Firmware_Software/DAVE project/S2GLP_Pulsed_Doppler/Libraries/XMCLib/inc\xmc_ccu4.h ****  * 
  74:C:/Users/Utente/Desktop/Tesi/Firmware_Software/DAVE project/S2GLP_Pulsed_Doppler/Libraries/XMCLib/inc\xmc_ccu4.h ****  * @endcond
  75:C:/Users/Utente/Desktop/Tesi/Firmware_Software/DAVE project/S2GLP_Pulsed_Doppler/Libraries/XMCLib/inc\xmc_ccu4.h ****  */
  76:C:/Users/Utente/Desktop/Tesi/Firmware_Software/DAVE project/S2GLP_Pulsed_Doppler/Libraries/XMCLib/inc\xmc_ccu4.h **** 
  77:C:/Users/Utente/Desktop/Tesi/Firmware_Software/DAVE project/S2GLP_Pulsed_Doppler/Libraries/XMCLib/inc\xmc_ccu4.h **** #ifndef XMC_CCU4_H
  78:C:/Users/Utente/Desktop/Tesi/Firmware_Software/DAVE project/S2GLP_Pulsed_Doppler/Libraries/XMCLib/inc\xmc_ccu4.h **** #define XMC_CCU4_H
  79:C:/Users/Utente/Desktop/Tesi/Firmware_Software/DAVE project/S2GLP_Pulsed_Doppler/Libraries/XMCLib/inc\xmc_ccu4.h ****  
  80:C:/Users/Utente/Desktop/Tesi/Firmware_Software/DAVE project/S2GLP_Pulsed_Doppler/Libraries/XMCLib/inc\xmc_ccu4.h **** /**************************************************************************************************
  81:C:/Users/Utente/Desktop/Tesi/Firmware_Software/DAVE project/S2GLP_Pulsed_Doppler/Libraries/XMCLib/inc\xmc_ccu4.h ****  * HEADER FILES
  82:C:/Users/Utente/Desktop/Tesi/Firmware_Software/DAVE project/S2GLP_Pulsed_Doppler/Libraries/XMCLib/inc\xmc_ccu4.h ****  **************************************************************************************************
  83:C:/Users/Utente/Desktop/Tesi/Firmware_Software/DAVE project/S2GLP_Pulsed_Doppler/Libraries/XMCLib/inc\xmc_ccu4.h **** #include "xmc_common.h"
  84:C:/Users/Utente/Desktop/Tesi/Firmware_Software/DAVE project/S2GLP_Pulsed_Doppler/Libraries/XMCLib/inc\xmc_ccu4.h **** #if defined(CCU40)
  85:C:/Users/Utente/Desktop/Tesi/Firmware_Software/DAVE project/S2GLP_Pulsed_Doppler/Libraries/XMCLib/inc\xmc_ccu4.h **** 
  86:C:/Users/Utente/Desktop/Tesi/Firmware_Software/DAVE project/S2GLP_Pulsed_Doppler/Libraries/XMCLib/inc\xmc_ccu4.h **** #if UC_FAMILY == XMC1
  87:C:/Users/Utente/Desktop/Tesi/Firmware_Software/DAVE project/S2GLP_Pulsed_Doppler/Libraries/XMCLib/inc\xmc_ccu4.h ****  #include "xmc1_ccu4_map.h"
  88:C:/Users/Utente/Desktop/Tesi/Firmware_Software/DAVE project/S2GLP_Pulsed_Doppler/Libraries/XMCLib/inc\xmc_ccu4.h **** #endif
  89:C:/Users/Utente/Desktop/Tesi/Firmware_Software/DAVE project/S2GLP_Pulsed_Doppler/Libraries/XMCLib/inc\xmc_ccu4.h **** 
  90:C:/Users/Utente/Desktop/Tesi/Firmware_Software/DAVE project/S2GLP_Pulsed_Doppler/Libraries/XMCLib/inc\xmc_ccu4.h **** #if UC_FAMILY == XMC4
  91:C:/Users/Utente/Desktop/Tesi/Firmware_Software/DAVE project/S2GLP_Pulsed_Doppler/Libraries/XMCLib/inc\xmc_ccu4.h ****  #include "xmc4_ccu4_map.h"
  92:C:/Users/Utente/Desktop/Tesi/Firmware_Software/DAVE project/S2GLP_Pulsed_Doppler/Libraries/XMCLib/inc\xmc_ccu4.h **** #endif
  93:C:/Users/Utente/Desktop/Tesi/Firmware_Software/DAVE project/S2GLP_Pulsed_Doppler/Libraries/XMCLib/inc\xmc_ccu4.h **** 
  94:C:/Users/Utente/Desktop/Tesi/Firmware_Software/DAVE project/S2GLP_Pulsed_Doppler/Libraries/XMCLib/inc\xmc_ccu4.h **** /**
  95:C:/Users/Utente/Desktop/Tesi/Firmware_Software/DAVE project/S2GLP_Pulsed_Doppler/Libraries/XMCLib/inc\xmc_ccu4.h ****  * @addtogroup XMClib XMC Peripheral Library
  96:C:/Users/Utente/Desktop/Tesi/Firmware_Software/DAVE project/S2GLP_Pulsed_Doppler/Libraries/XMCLib/inc\xmc_ccu4.h ****  * @{
  97:C:/Users/Utente/Desktop/Tesi/Firmware_Software/DAVE project/S2GLP_Pulsed_Doppler/Libraries/XMCLib/inc\xmc_ccu4.h ****  */
  98:C:/Users/Utente/Desktop/Tesi/Firmware_Software/DAVE project/S2GLP_Pulsed_Doppler/Libraries/XMCLib/inc\xmc_ccu4.h ****  
  99:C:/Users/Utente/Desktop/Tesi/Firmware_Software/DAVE project/S2GLP_Pulsed_Doppler/Libraries/XMCLib/inc\xmc_ccu4.h **** /**
 100:C:/Users/Utente/Desktop/Tesi/Firmware_Software/DAVE project/S2GLP_Pulsed_Doppler/Libraries/XMCLib/inc\xmc_ccu4.h ****  * @addtogroup CCU4
 101:C:/Users/Utente/Desktop/Tesi/Firmware_Software/DAVE project/S2GLP_Pulsed_Doppler/Libraries/XMCLib/inc\xmc_ccu4.h ****  * @brief Capture Compare Unit 4 (CCU4) low level driver for XMC family of microcontrollers<br>
 102:C:/Users/Utente/Desktop/Tesi/Firmware_Software/DAVE project/S2GLP_Pulsed_Doppler/Libraries/XMCLib/inc\xmc_ccu4.h ****  *
 103:C:/Users/Utente/Desktop/Tesi/Firmware_Software/DAVE project/S2GLP_Pulsed_Doppler/Libraries/XMCLib/inc\xmc_ccu4.h ****  * The CCU4 peripheral is a major component for systems that need general purpose timers for signal
 104:C:/Users/Utente/Desktop/Tesi/Firmware_Software/DAVE project/S2GLP_Pulsed_Doppler/Libraries/XMCLib/inc\xmc_ccu4.h ****  * monitoring/conditioning and Pulse Width Modulation (PWM) signal generation. Power electronic con
 105:C:/Users/Utente/Desktop/Tesi/Firmware_Software/DAVE project/S2GLP_Pulsed_Doppler/Libraries/XMCLib/inc\xmc_ccu4.h ****  * switched mode power supplies or interruptible power supplies, can easily be implemented with the
 106:C:/Users/Utente/Desktop/Tesi/Firmware_Software/DAVE project/S2GLP_Pulsed_Doppler/Libraries/XMCLib/inc\xmc_ccu4.h ****  * CCU4 peripheral.\n
 107:C:/Users/Utente/Desktop/Tesi/Firmware_Software/DAVE project/S2GLP_Pulsed_Doppler/Libraries/XMCLib/inc\xmc_ccu4.h ****  * Each CCU4 module is comprised of four identical 16 bit Capture/Compare Timer slices, CC4y (where
 108:C:/Users/Utente/Desktop/Tesi/Firmware_Software/DAVE project/S2GLP_Pulsed_Doppler/Libraries/XMCLib/inc\xmc_ccu4.h ****  * timer slice can work in compare mode or in capture mode.
 109:C:/Users/Utente/Desktop/Tesi/Firmware_Software/DAVE project/S2GLP_Pulsed_Doppler/Libraries/XMCLib/inc\xmc_ccu4.h ****  *
 110:C:/Users/Utente/Desktop/Tesi/Firmware_Software/DAVE project/S2GLP_Pulsed_Doppler/Libraries/XMCLib/inc\xmc_ccu4.h ****  * APIs provided in this file cover the following functional blocks of CCU4:\n
 111:C:/Users/Utente/Desktop/Tesi/Firmware_Software/DAVE project/S2GLP_Pulsed_Doppler/Libraries/XMCLib/inc\xmc_ccu4.h ****  * -- Timer configuration, Capture configuration, Function/Event configuration, Interrupt configura
 112:C:/Users/Utente/Desktop/Tesi/Firmware_Software/DAVE project/S2GLP_Pulsed_Doppler/Libraries/XMCLib/inc\xmc_ccu4.h ****  * \par Note:
 113:C:/Users/Utente/Desktop/Tesi/Firmware_Software/DAVE project/S2GLP_Pulsed_Doppler/Libraries/XMCLib/inc\xmc_ccu4.h ****  * 1. SLICE (APIs prefixed with e.g. XMC_CCU4_SLICE_)
 114:C:/Users/Utente/Desktop/Tesi/Firmware_Software/DAVE project/S2GLP_Pulsed_Doppler/Libraries/XMCLib/inc\xmc_ccu4.h ****  * 2. Module (APIs are not having any prefix e.g. XMC_CCU4_)
 115:C:/Users/Utente/Desktop/Tesi/Firmware_Software/DAVE project/S2GLP_Pulsed_Doppler/Libraries/XMCLib/inc\xmc_ccu4.h ****  *
 116:C:/Users/Utente/Desktop/Tesi/Firmware_Software/DAVE project/S2GLP_Pulsed_Doppler/Libraries/XMCLib/inc\xmc_ccu4.h ****  * \par Timer(Compare mode) configuration:
 117:C:/Users/Utente/Desktop/Tesi/Firmware_Software/DAVE project/S2GLP_Pulsed_Doppler/Libraries/XMCLib/inc\xmc_ccu4.h ****  * This section of the LLD provides the configuration structure XMC_CCU4_SLICE_COMPARE_CONFIG_t and
 118:C:/Users/Utente/Desktop/Tesi/Firmware_Software/DAVE project/S2GLP_Pulsed_Doppler/Libraries/XMCLib/inc\xmc_ccu4.h ****  * function XMC_CCU4_SLICE_CompareInit().
 119:C:/Users/Utente/Desktop/Tesi/Firmware_Software/DAVE project/S2GLP_Pulsed_Doppler/Libraries/XMCLib/inc\xmc_ccu4.h ****  *
 120:C:/Users/Utente/Desktop/Tesi/Firmware_Software/DAVE project/S2GLP_Pulsed_Doppler/Libraries/XMCLib/inc\xmc_ccu4.h ****  * It can be used to:
 121:C:/Users/Utente/Desktop/Tesi/Firmware_Software/DAVE project/S2GLP_Pulsed_Doppler/Libraries/XMCLib/inc\xmc_ccu4.h ****  * -# Start and Stop the timer. (XMC_CCU4_SLICE_StartTimer(), XMC_CCU4_SLICE_StopTimer())
 122:C:/Users/Utente/Desktop/Tesi/Firmware_Software/DAVE project/S2GLP_Pulsed_Doppler/Libraries/XMCLib/inc\xmc_ccu4.h ****  * -# Update the period, compare, Dither, Prescaler  and Passive values. (XMC_CCU4_SLICE_SetTimerPe
 123:C:/Users/Utente/Desktop/Tesi/Firmware_Software/DAVE project/S2GLP_Pulsed_Doppler/Libraries/XMCLib/inc\xmc_ccu4.h ****  *    XMC_CCU4_SLICE_SetTimerCompareMatch(), XMC_CCU4_SLICE_SetPrescaler(), XMC_CCU4_SLICE_SetDithe
 124:C:/Users/Utente/Desktop/Tesi/Firmware_Software/DAVE project/S2GLP_Pulsed_Doppler/Libraries/XMCLib/inc\xmc_ccu4.h ****  *    XMC_CCU4_SLICE_SetPassiveLevel())
 125:C:/Users/Utente/Desktop/Tesi/Firmware_Software/DAVE project/S2GLP_Pulsed_Doppler/Libraries/XMCLib/inc\xmc_ccu4.h ****  * -# Enable the slices to support multichannel mode. (XMC_CCU4_SLICE_EnableMultiChannelMode())
 126:C:/Users/Utente/Desktop/Tesi/Firmware_Software/DAVE project/S2GLP_Pulsed_Doppler/Libraries/XMCLib/inc\xmc_ccu4.h ****  * 
 127:C:/Users/Utente/Desktop/Tesi/Firmware_Software/DAVE project/S2GLP_Pulsed_Doppler/Libraries/XMCLib/inc\xmc_ccu4.h ****  * \par Capture configuration:
 128:C:/Users/Utente/Desktop/Tesi/Firmware_Software/DAVE project/S2GLP_Pulsed_Doppler/Libraries/XMCLib/inc\xmc_ccu4.h ****  * This section of the LLD provides the configuration structure XMC_CCU4_SLICE_CAPTURE_CONFIG_t and
 129:C:/Users/Utente/Desktop/Tesi/Firmware_Software/DAVE project/S2GLP_Pulsed_Doppler/Libraries/XMCLib/inc\xmc_ccu4.h ****  * function XMC_CCU4_SLICE_CaptureInit().
 130:C:/Users/Utente/Desktop/Tesi/Firmware_Software/DAVE project/S2GLP_Pulsed_Doppler/Libraries/XMCLib/inc\xmc_ccu4.h ****  *
 131:C:/Users/Utente/Desktop/Tesi/Firmware_Software/DAVE project/S2GLP_Pulsed_Doppler/Libraries/XMCLib/inc\xmc_ccu4.h ****  * It can be used to:
 132:C:/Users/Utente/Desktop/Tesi/Firmware_Software/DAVE project/S2GLP_Pulsed_Doppler/Libraries/XMCLib/inc\xmc_ccu4.h ****  * -# Configure the capture functionality. (XMC_CCU4_SLICE_Capture0Config(), XMC_CCU4_SLICE_Capture
 133:C:/Users/Utente/Desktop/Tesi/Firmware_Software/DAVE project/S2GLP_Pulsed_Doppler/Libraries/XMCLib/inc\xmc_ccu4.h ****  * -# Read the captured values along with the status, which indicate the value is latest or not.
 134:C:/Users/Utente/Desktop/Tesi/Firmware_Software/DAVE project/S2GLP_Pulsed_Doppler/Libraries/XMCLib/inc\xmc_ccu4.h ****  *    (XMC_CCU4_SLICE_GetCaptureRegisterValue())
 135:C:/Users/Utente/Desktop/Tesi/Firmware_Software/DAVE project/S2GLP_Pulsed_Doppler/Libraries/XMCLib/inc\xmc_ccu4.h ****  * 
 136:C:/Users/Utente/Desktop/Tesi/Firmware_Software/DAVE project/S2GLP_Pulsed_Doppler/Libraries/XMCLib/inc\xmc_ccu4.h ****  * \par Function/Event configuration:
 137:C:/Users/Utente/Desktop/Tesi/Firmware_Software/DAVE project/S2GLP_Pulsed_Doppler/Libraries/XMCLib/inc\xmc_ccu4.h ****  * This section of the LLD provides the configuration structure XMC_CCU4_SLICE_EVENT_CONFIG_t.\n
 138:C:/Users/Utente/Desktop/Tesi/Firmware_Software/DAVE project/S2GLP_Pulsed_Doppler/Libraries/XMCLib/inc\xmc_ccu4.h ****  * 
 139:C:/Users/Utente/Desktop/Tesi/Firmware_Software/DAVE project/S2GLP_Pulsed_Doppler/Libraries/XMCLib/inc\xmc_ccu4.h ****  * It can be used to:
 140:C:/Users/Utente/Desktop/Tesi/Firmware_Software/DAVE project/S2GLP_Pulsed_Doppler/Libraries/XMCLib/inc\xmc_ccu4.h ****  * -# Enable and Disable the events. (XMC_CCU4_SLICE_EnableEvent(), XMC_CCU4_SLICE_DisableEvent())
 141:C:/Users/Utente/Desktop/Tesi/Firmware_Software/DAVE project/S2GLP_Pulsed_Doppler/Libraries/XMCLib/inc\xmc_ccu4.h ****  * -# Configure to start and stop the timer on external events.(XMC_CCU4_SLICE_StartConfig(), XMC_C
 142:C:/Users/Utente/Desktop/Tesi/Firmware_Software/DAVE project/S2GLP_Pulsed_Doppler/Libraries/XMCLib/inc\xmc_ccu4.h ****  * -# Modulation, external load and Gating of the timer output.(XMC_CCU4_SLICE_ModulationConfig(), 
 143:C:/Users/Utente/Desktop/Tesi/Firmware_Software/DAVE project/S2GLP_Pulsed_Doppler/Libraries/XMCLib/inc\xmc_ccu4.h ****  *    XMC_CCU4_SLICE_LoadConfig(), XMC_CCU4_SLICE_GateConfig())
 144:C:/Users/Utente/Desktop/Tesi/Firmware_Software/DAVE project/S2GLP_Pulsed_Doppler/Libraries/XMCLib/inc\xmc_ccu4.h ****  * -# Control the count direction of the timer based on the external event. (XMC_CCU4_SLICE_Directi
 145:C:/Users/Utente/Desktop/Tesi/Firmware_Software/DAVE project/S2GLP_Pulsed_Doppler/Libraries/XMCLib/inc\xmc_ccu4.h ****  * -# Count the external events.(XMC_CCU4_SLICE_CountConfig())
 146:C:/Users/Utente/Desktop/Tesi/Firmware_Software/DAVE project/S2GLP_Pulsed_Doppler/Libraries/XMCLib/inc\xmc_ccu4.h ****  * -# External Trap. Which can be used as protective feature.(XMC_CCU4_SLICE_EnableTrap(), XMC_CCU4
 147:C:/Users/Utente/Desktop/Tesi/Firmware_Software/DAVE project/S2GLP_Pulsed_Doppler/Libraries/XMCLib/inc\xmc_ccu4.h ****  *    XMC_CCU4_SLICE_TrapConfig())
 148:C:/Users/Utente/Desktop/Tesi/Firmware_Software/DAVE project/S2GLP_Pulsed_Doppler/Libraries/XMCLib/inc\xmc_ccu4.h ****  *
 149:C:/Users/Utente/Desktop/Tesi/Firmware_Software/DAVE project/S2GLP_Pulsed_Doppler/Libraries/XMCLib/inc\xmc_ccu4.h ****  * \par Interrupt configuration:
 150:C:/Users/Utente/Desktop/Tesi/Firmware_Software/DAVE project/S2GLP_Pulsed_Doppler/Libraries/XMCLib/inc\xmc_ccu4.h ****  * This section of the LLD provides the function to configure the interrupt node to each event (XMC
 151:C:/Users/Utente/Desktop/Tesi/Firmware_Software/DAVE project/S2GLP_Pulsed_Doppler/Libraries/XMCLib/inc\xmc_ccu4.h ****  * @{
 152:C:/Users/Utente/Desktop/Tesi/Firmware_Software/DAVE project/S2GLP_Pulsed_Doppler/Libraries/XMCLib/inc\xmc_ccu4.h ****  */
 153:C:/Users/Utente/Desktop/Tesi/Firmware_Software/DAVE project/S2GLP_Pulsed_Doppler/Libraries/XMCLib/inc\xmc_ccu4.h ****  
 154:C:/Users/Utente/Desktop/Tesi/Firmware_Software/DAVE project/S2GLP_Pulsed_Doppler/Libraries/XMCLib/inc\xmc_ccu4.h **** /**************************************************************************************************
 155:C:/Users/Utente/Desktop/Tesi/Firmware_Software/DAVE project/S2GLP_Pulsed_Doppler/Libraries/XMCLib/inc\xmc_ccu4.h ****  * MACROS
 156:C:/Users/Utente/Desktop/Tesi/Firmware_Software/DAVE project/S2GLP_Pulsed_Doppler/Libraries/XMCLib/inc\xmc_ccu4.h ****  **************************************************************************************************
 157:C:/Users/Utente/Desktop/Tesi/Firmware_Software/DAVE project/S2GLP_Pulsed_Doppler/Libraries/XMCLib/inc\xmc_ccu4.h **** /* Macro to check if the interrupt enum passed is valid */
 158:C:/Users/Utente/Desktop/Tesi/Firmware_Software/DAVE project/S2GLP_Pulsed_Doppler/Libraries/XMCLib/inc\xmc_ccu4.h **** #define XMC_CCU4_SLICE_CHECK_INTERRUPT(interrupt) \
 159:C:/Users/Utente/Desktop/Tesi/Firmware_Software/DAVE project/S2GLP_Pulsed_Doppler/Libraries/XMCLib/inc\xmc_ccu4.h ****     ((interrupt == XMC_CCU4_SLICE_IRQ_ID_PERIOD_MATCH)           || \
 160:C:/Users/Utente/Desktop/Tesi/Firmware_Software/DAVE project/S2GLP_Pulsed_Doppler/Libraries/XMCLib/inc\xmc_ccu4.h ****      (interrupt == XMC_CCU4_SLICE_IRQ_ID_ONE_MATCH)              || \
 161:C:/Users/Utente/Desktop/Tesi/Firmware_Software/DAVE project/S2GLP_Pulsed_Doppler/Libraries/XMCLib/inc\xmc_ccu4.h ****      (interrupt == XMC_CCU4_SLICE_IRQ_ID_COMPARE_MATCH_UP)  || \
 162:C:/Users/Utente/Desktop/Tesi/Firmware_Software/DAVE project/S2GLP_Pulsed_Doppler/Libraries/XMCLib/inc\xmc_ccu4.h ****      (interrupt == XMC_CCU4_SLICE_IRQ_ID_COMPARE_MATCH_DOWN)|| \
 163:C:/Users/Utente/Desktop/Tesi/Firmware_Software/DAVE project/S2GLP_Pulsed_Doppler/Libraries/XMCLib/inc\xmc_ccu4.h ****      (interrupt == XMC_CCU4_SLICE_IRQ_ID_EVENT0)                 || \
 164:C:/Users/Utente/Desktop/Tesi/Firmware_Software/DAVE project/S2GLP_Pulsed_Doppler/Libraries/XMCLib/inc\xmc_ccu4.h ****      (interrupt == XMC_CCU4_SLICE_IRQ_ID_EVENT1)                 || \
 165:C:/Users/Utente/Desktop/Tesi/Firmware_Software/DAVE project/S2GLP_Pulsed_Doppler/Libraries/XMCLib/inc\xmc_ccu4.h ****      (interrupt == XMC_CCU4_SLICE_IRQ_ID_EVENT2)                 || \
 166:C:/Users/Utente/Desktop/Tesi/Firmware_Software/DAVE project/S2GLP_Pulsed_Doppler/Libraries/XMCLib/inc\xmc_ccu4.h ****      (interrupt == XMC_CCU4_SLICE_IRQ_ID_TRAP))
 167:C:/Users/Utente/Desktop/Tesi/Firmware_Software/DAVE project/S2GLP_Pulsed_Doppler/Libraries/XMCLib/inc\xmc_ccu4.h **** 
 168:C:/Users/Utente/Desktop/Tesi/Firmware_Software/DAVE project/S2GLP_Pulsed_Doppler/Libraries/XMCLib/inc\xmc_ccu4.h **** /**************************************************************************************************
 169:C:/Users/Utente/Desktop/Tesi/Firmware_Software/DAVE project/S2GLP_Pulsed_Doppler/Libraries/XMCLib/inc\xmc_ccu4.h ****  * ENUMS
 170:C:/Users/Utente/Desktop/Tesi/Firmware_Software/DAVE project/S2GLP_Pulsed_Doppler/Libraries/XMCLib/inc\xmc_ccu4.h ****  **************************************************************************************************
 171:C:/Users/Utente/Desktop/Tesi/Firmware_Software/DAVE project/S2GLP_Pulsed_Doppler/Libraries/XMCLib/inc\xmc_ccu4.h **** 
 172:C:/Users/Utente/Desktop/Tesi/Firmware_Software/DAVE project/S2GLP_Pulsed_Doppler/Libraries/XMCLib/inc\xmc_ccu4.h **** /**
 173:C:/Users/Utente/Desktop/Tesi/Firmware_Software/DAVE project/S2GLP_Pulsed_Doppler/Libraries/XMCLib/inc\xmc_ccu4.h ****  * Typedef for CCU4 Global data structure
 174:C:/Users/Utente/Desktop/Tesi/Firmware_Software/DAVE project/S2GLP_Pulsed_Doppler/Libraries/XMCLib/inc\xmc_ccu4.h ****  */
 175:C:/Users/Utente/Desktop/Tesi/Firmware_Software/DAVE project/S2GLP_Pulsed_Doppler/Libraries/XMCLib/inc\xmc_ccu4.h **** typedef CCU4_GLOBAL_TypeDef XMC_CCU4_MODULE_t;
 176:C:/Users/Utente/Desktop/Tesi/Firmware_Software/DAVE project/S2GLP_Pulsed_Doppler/Libraries/XMCLib/inc\xmc_ccu4.h **** 
 177:C:/Users/Utente/Desktop/Tesi/Firmware_Software/DAVE project/S2GLP_Pulsed_Doppler/Libraries/XMCLib/inc\xmc_ccu4.h **** /**
 178:C:/Users/Utente/Desktop/Tesi/Firmware_Software/DAVE project/S2GLP_Pulsed_Doppler/Libraries/XMCLib/inc\xmc_ccu4.h ****  * Typedef for CCU4 Slice data structure
 179:C:/Users/Utente/Desktop/Tesi/Firmware_Software/DAVE project/S2GLP_Pulsed_Doppler/Libraries/XMCLib/inc\xmc_ccu4.h ****  */
 180:C:/Users/Utente/Desktop/Tesi/Firmware_Software/DAVE project/S2GLP_Pulsed_Doppler/Libraries/XMCLib/inc\xmc_ccu4.h **** typedef CCU4_CC4_TypeDef XMC_CCU4_SLICE_t;
 181:C:/Users/Utente/Desktop/Tesi/Firmware_Software/DAVE project/S2GLP_Pulsed_Doppler/Libraries/XMCLib/inc\xmc_ccu4.h **** 
 182:C:/Users/Utente/Desktop/Tesi/Firmware_Software/DAVE project/S2GLP_Pulsed_Doppler/Libraries/XMCLib/inc\xmc_ccu4.h **** /**
 183:C:/Users/Utente/Desktop/Tesi/Firmware_Software/DAVE project/S2GLP_Pulsed_Doppler/Libraries/XMCLib/inc\xmc_ccu4.h ****  *  Return Value of an API
 184:C:/Users/Utente/Desktop/Tesi/Firmware_Software/DAVE project/S2GLP_Pulsed_Doppler/Libraries/XMCLib/inc\xmc_ccu4.h ****  */ 
 185:C:/Users/Utente/Desktop/Tesi/Firmware_Software/DAVE project/S2GLP_Pulsed_Doppler/Libraries/XMCLib/inc\xmc_ccu4.h **** typedef enum XMC_CCU4_STATUS
 186:C:/Users/Utente/Desktop/Tesi/Firmware_Software/DAVE project/S2GLP_Pulsed_Doppler/Libraries/XMCLib/inc\xmc_ccu4.h **** {
 187:C:/Users/Utente/Desktop/Tesi/Firmware_Software/DAVE project/S2GLP_Pulsed_Doppler/Libraries/XMCLib/inc\xmc_ccu4.h ****   XMC_CCU4_STATUS_OK      = 0U, /**< API fulfils request */
 188:C:/Users/Utente/Desktop/Tesi/Firmware_Software/DAVE project/S2GLP_Pulsed_Doppler/Libraries/XMCLib/inc\xmc_ccu4.h ****   XMC_CCU4_STATUS_ERROR       , /**< API cannot fulfil the request */
 189:C:/Users/Utente/Desktop/Tesi/Firmware_Software/DAVE project/S2GLP_Pulsed_Doppler/Libraries/XMCLib/inc\xmc_ccu4.h ****   XMC_CCU4_STATUS_RUNNING     , /**< The timer slice is currently running */
 190:C:/Users/Utente/Desktop/Tesi/Firmware_Software/DAVE project/S2GLP_Pulsed_Doppler/Libraries/XMCLib/inc\xmc_ccu4.h ****   XMC_CCU4_STATUS_IDLE          /**< The timer slice is currently idle */
 191:C:/Users/Utente/Desktop/Tesi/Firmware_Software/DAVE project/S2GLP_Pulsed_Doppler/Libraries/XMCLib/inc\xmc_ccu4.h **** } XMC_CCU4_STATUS_t;
 192:C:/Users/Utente/Desktop/Tesi/Firmware_Software/DAVE project/S2GLP_Pulsed_Doppler/Libraries/XMCLib/inc\xmc_ccu4.h **** 
 193:C:/Users/Utente/Desktop/Tesi/Firmware_Software/DAVE project/S2GLP_Pulsed_Doppler/Libraries/XMCLib/inc\xmc_ccu4.h **** /**
 194:C:/Users/Utente/Desktop/Tesi/Firmware_Software/DAVE project/S2GLP_Pulsed_Doppler/Libraries/XMCLib/inc\xmc_ccu4.h ****  *  CCU4 module clock
 195:C:/Users/Utente/Desktop/Tesi/Firmware_Software/DAVE project/S2GLP_Pulsed_Doppler/Libraries/XMCLib/inc\xmc_ccu4.h ****  */ 
 196:C:/Users/Utente/Desktop/Tesi/Firmware_Software/DAVE project/S2GLP_Pulsed_Doppler/Libraries/XMCLib/inc\xmc_ccu4.h **** typedef enum XMC_CCU4_CLOCK
 197:C:/Users/Utente/Desktop/Tesi/Firmware_Software/DAVE project/S2GLP_Pulsed_Doppler/Libraries/XMCLib/inc\xmc_ccu4.h **** {
 198:C:/Users/Utente/Desktop/Tesi/Firmware_Software/DAVE project/S2GLP_Pulsed_Doppler/Libraries/XMCLib/inc\xmc_ccu4.h ****   XMC_CCU4_CLOCK_SCU        = 0U, /**< Select the fCCU as the clock */
 199:C:/Users/Utente/Desktop/Tesi/Firmware_Software/DAVE project/S2GLP_Pulsed_Doppler/Libraries/XMCLib/inc\xmc_ccu4.h ****   XMC_CCU4_CLOCK_EXTERNAL_A     , /**< External clock-A */
 200:C:/Users/Utente/Desktop/Tesi/Firmware_Software/DAVE project/S2GLP_Pulsed_Doppler/Libraries/XMCLib/inc\xmc_ccu4.h ****   XMC_CCU4_CLOCK_EXTERNAL_B     , /**< External clock-B */
 201:C:/Users/Utente/Desktop/Tesi/Firmware_Software/DAVE project/S2GLP_Pulsed_Doppler/Libraries/XMCLib/inc\xmc_ccu4.h ****   XMC_CCU4_CLOCK_EXTERNAL_C       /**< External clock-C */
 202:C:/Users/Utente/Desktop/Tesi/Firmware_Software/DAVE project/S2GLP_Pulsed_Doppler/Libraries/XMCLib/inc\xmc_ccu4.h **** } XMC_CCU4_CLOCK_t;
 203:C:/Users/Utente/Desktop/Tesi/Firmware_Software/DAVE project/S2GLP_Pulsed_Doppler/Libraries/XMCLib/inc\xmc_ccu4.h **** 
 204:C:/Users/Utente/Desktop/Tesi/Firmware_Software/DAVE project/S2GLP_Pulsed_Doppler/Libraries/XMCLib/inc\xmc_ccu4.h **** /**
 205:C:/Users/Utente/Desktop/Tesi/Firmware_Software/DAVE project/S2GLP_Pulsed_Doppler/Libraries/XMCLib/inc\xmc_ccu4.h ****  * CCU4 set the shadow transfer type for multichannel mode
 206:C:/Users/Utente/Desktop/Tesi/Firmware_Software/DAVE project/S2GLP_Pulsed_Doppler/Libraries/XMCLib/inc\xmc_ccu4.h ****  */
 207:C:/Users/Utente/Desktop/Tesi/Firmware_Software/DAVE project/S2GLP_Pulsed_Doppler/Libraries/XMCLib/inc\xmc_ccu4.h **** typedef enum XMC_CCU4_MULTI_CHANNEL_SHADOW_TRANSFER
 208:C:/Users/Utente/Desktop/Tesi/Firmware_Software/DAVE project/S2GLP_Pulsed_Doppler/Libraries/XMCLib/inc\xmc_ccu4.h **** {
 209:C:/Users/Utente/Desktop/Tesi/Firmware_Software/DAVE project/S2GLP_Pulsed_Doppler/Libraries/XMCLib/inc\xmc_ccu4.h ****   XMC_CCU4_MULTI_CHANNEL_SHADOW_TRANSFER_SW_SLICE0       = (uint32_t)0x4000000, /**< Shadow transfe
 210:C:/Users/Utente/Desktop/Tesi/Firmware_Software/DAVE project/S2GLP_Pulsed_Doppler/Libraries/XMCLib/inc\xmc_ccu4.h ****                                                                                      only for slice
 211:C:/Users/Utente/Desktop/Tesi/Firmware_Software/DAVE project/S2GLP_Pulsed_Doppler/Libraries/XMCLib/inc\xmc_ccu4.h ****   XMC_CCU4_MULTI_CHANNEL_SHADOW_TRANSFER_SW_MCSS_SLICE0  = (uint32_t)0x4000400, /**< Shadow transfe
 212:C:/Users/Utente/Desktop/Tesi/Firmware_Software/DAVE project/S2GLP_Pulsed_Doppler/Libraries/XMCLib/inc\xmc_ccu4.h ****                                                                                      and hardware f
 213:C:/Users/Utente/Desktop/Tesi/Firmware_Software/DAVE project/S2GLP_Pulsed_Doppler/Libraries/XMCLib/inc\xmc_ccu4.h ****   XMC_CCU4_MULTI_CHANNEL_SHADOW_TRANSFER_SW_SLICE1       = (uint32_t)0x8000000, /**< Shadow transfe
 214:C:/Users/Utente/Desktop/Tesi/Firmware_Software/DAVE project/S2GLP_Pulsed_Doppler/Libraries/XMCLib/inc\xmc_ccu4.h ****                                                                                      only for slice
 215:C:/Users/Utente/Desktop/Tesi/Firmware_Software/DAVE project/S2GLP_Pulsed_Doppler/Libraries/XMCLib/inc\xmc_ccu4.h ****   XMC_CCU4_MULTI_CHANNEL_SHADOW_TRANSFER_SW_MCSS_SLICE1  = (uint32_t)0x8000800, /**< Shadow transfe
 216:C:/Users/Utente/Desktop/Tesi/Firmware_Software/DAVE project/S2GLP_Pulsed_Doppler/Libraries/XMCLib/inc\xmc_ccu4.h ****                                                                                      and hardware f
 217:C:/Users/Utente/Desktop/Tesi/Firmware_Software/DAVE project/S2GLP_Pulsed_Doppler/Libraries/XMCLib/inc\xmc_ccu4.h ****   XMC_CCU4_MULTI_CHANNEL_SHADOW_TRANSFER_SW_SLICE2       = (uint32_t)0x10000000, /**< Shadow transf
 218:C:/Users/Utente/Desktop/Tesi/Firmware_Software/DAVE project/S2GLP_Pulsed_Doppler/Libraries/XMCLib/inc\xmc_ccu4.h ****                                                                                       only for slic
 219:C:/Users/Utente/Desktop/Tesi/Firmware_Software/DAVE project/S2GLP_Pulsed_Doppler/Libraries/XMCLib/inc\xmc_ccu4.h ****   XMC_CCU4_MULTI_CHANNEL_SHADOW_TRANSFER_SW_MCSS_SLICE2  = (uint32_t)0x10001000, /**< Shadow transf
 220:C:/Users/Utente/Desktop/Tesi/Firmware_Software/DAVE project/S2GLP_Pulsed_Doppler/Libraries/XMCLib/inc\xmc_ccu4.h ****                                                                                       and hardware 
 221:C:/Users/Utente/Desktop/Tesi/Firmware_Software/DAVE project/S2GLP_Pulsed_Doppler/Libraries/XMCLib/inc\xmc_ccu4.h ****   XMC_CCU4_MULTI_CHANNEL_SHADOW_TRANSFER_SW_SLICE3       = (uint32_t)0x20000000, /**< Shadow transf
 222:C:/Users/Utente/Desktop/Tesi/Firmware_Software/DAVE project/S2GLP_Pulsed_Doppler/Libraries/XMCLib/inc\xmc_ccu4.h ****                                                                                       only for slic
 223:C:/Users/Utente/Desktop/Tesi/Firmware_Software/DAVE project/S2GLP_Pulsed_Doppler/Libraries/XMCLib/inc\xmc_ccu4.h ****   XMC_CCU4_MULTI_CHANNEL_SHADOW_TRANSFER_SW_MCSS_SLICE3  = (uint32_t)0x20002000  /**< Shadow transf
 224:C:/Users/Utente/Desktop/Tesi/Firmware_Software/DAVE project/S2GLP_Pulsed_Doppler/Libraries/XMCLib/inc\xmc_ccu4.h ****                                                                                       and hardware 
 225:C:/Users/Utente/Desktop/Tesi/Firmware_Software/DAVE project/S2GLP_Pulsed_Doppler/Libraries/XMCLib/inc\xmc_ccu4.h **** } XMC_CCU4_MULTI_CHANNEL_SHADOW_TRANSFER_t;
 226:C:/Users/Utente/Desktop/Tesi/Firmware_Software/DAVE project/S2GLP_Pulsed_Doppler/Libraries/XMCLib/inc\xmc_ccu4.h **** 
 227:C:/Users/Utente/Desktop/Tesi/Firmware_Software/DAVE project/S2GLP_Pulsed_Doppler/Libraries/XMCLib/inc\xmc_ccu4.h **** /**
 228:C:/Users/Utente/Desktop/Tesi/Firmware_Software/DAVE project/S2GLP_Pulsed_Doppler/Libraries/XMCLib/inc\xmc_ccu4.h ****  *  Operational modes of CCU4 slice
 229:C:/Users/Utente/Desktop/Tesi/Firmware_Software/DAVE project/S2GLP_Pulsed_Doppler/Libraries/XMCLib/inc\xmc_ccu4.h ****  */ 
 230:C:/Users/Utente/Desktop/Tesi/Firmware_Software/DAVE project/S2GLP_Pulsed_Doppler/Libraries/XMCLib/inc\xmc_ccu4.h **** typedef enum XMC_CCU4_SLICE_MODE
 231:C:/Users/Utente/Desktop/Tesi/Firmware_Software/DAVE project/S2GLP_Pulsed_Doppler/Libraries/XMCLib/inc\xmc_ccu4.h **** {
 232:C:/Users/Utente/Desktop/Tesi/Firmware_Software/DAVE project/S2GLP_Pulsed_Doppler/Libraries/XMCLib/inc\xmc_ccu4.h ****   XMC_CCU4_SLICE_MODE_COMPARE  = 0U, /**< slice(CC4y) operates in Compare Mode */
 233:C:/Users/Utente/Desktop/Tesi/Firmware_Software/DAVE project/S2GLP_Pulsed_Doppler/Libraries/XMCLib/inc\xmc_ccu4.h ****   XMC_CCU4_SLICE_MODE_CAPTURE        /**< slice(CC4y) operates in Capture Mode */
 234:C:/Users/Utente/Desktop/Tesi/Firmware_Software/DAVE project/S2GLP_Pulsed_Doppler/Libraries/XMCLib/inc\xmc_ccu4.h **** } XMC_CCU4_SLICE_MODE_t;
 235:C:/Users/Utente/Desktop/Tesi/Firmware_Software/DAVE project/S2GLP_Pulsed_Doppler/Libraries/XMCLib/inc\xmc_ccu4.h **** 
 236:C:/Users/Utente/Desktop/Tesi/Firmware_Software/DAVE project/S2GLP_Pulsed_Doppler/Libraries/XMCLib/inc\xmc_ccu4.h **** /**
 237:C:/Users/Utente/Desktop/Tesi/Firmware_Software/DAVE project/S2GLP_Pulsed_Doppler/Libraries/XMCLib/inc\xmc_ccu4.h ****  *  Timer counting modes for the slice
 238:C:/Users/Utente/Desktop/Tesi/Firmware_Software/DAVE project/S2GLP_Pulsed_Doppler/Libraries/XMCLib/inc\xmc_ccu4.h ****  */ 
 239:C:/Users/Utente/Desktop/Tesi/Firmware_Software/DAVE project/S2GLP_Pulsed_Doppler/Libraries/XMCLib/inc\xmc_ccu4.h **** typedef enum XMC_CCU4_SLICE_TIMER_COUNT_MODE
 240:C:/Users/Utente/Desktop/Tesi/Firmware_Software/DAVE project/S2GLP_Pulsed_Doppler/Libraries/XMCLib/inc\xmc_ccu4.h **** {
 241:C:/Users/Utente/Desktop/Tesi/Firmware_Software/DAVE project/S2GLP_Pulsed_Doppler/Libraries/XMCLib/inc\xmc_ccu4.h ****   XMC_CCU4_SLICE_TIMER_COUNT_MODE_EA  = 0U, /**< Edge Aligned Mode */
 242:C:/Users/Utente/Desktop/Tesi/Firmware_Software/DAVE project/S2GLP_Pulsed_Doppler/Libraries/XMCLib/inc\xmc_ccu4.h ****   XMC_CCU4_SLICE_TIMER_COUNT_MODE_CA        /**< Center Aligned Mode */
 243:C:/Users/Utente/Desktop/Tesi/Firmware_Software/DAVE project/S2GLP_Pulsed_Doppler/Libraries/XMCLib/inc\xmc_ccu4.h **** } XMC_CCU4_SLICE_TIMER_COUNT_MODE_t;
 244:C:/Users/Utente/Desktop/Tesi/Firmware_Software/DAVE project/S2GLP_Pulsed_Doppler/Libraries/XMCLib/inc\xmc_ccu4.h **** 
 245:C:/Users/Utente/Desktop/Tesi/Firmware_Software/DAVE project/S2GLP_Pulsed_Doppler/Libraries/XMCLib/inc\xmc_ccu4.h **** /**
 246:C:/Users/Utente/Desktop/Tesi/Firmware_Software/DAVE project/S2GLP_Pulsed_Doppler/Libraries/XMCLib/inc\xmc_ccu4.h ****  *  Timer repetition mode for the slice
 247:C:/Users/Utente/Desktop/Tesi/Firmware_Software/DAVE project/S2GLP_Pulsed_Doppler/Libraries/XMCLib/inc\xmc_ccu4.h ****  */ 
 248:C:/Users/Utente/Desktop/Tesi/Firmware_Software/DAVE project/S2GLP_Pulsed_Doppler/Libraries/XMCLib/inc\xmc_ccu4.h **** typedef enum XMC_CCU4_SLICE_TIMER_REPEAT_MODE
 249:C:/Users/Utente/Desktop/Tesi/Firmware_Software/DAVE project/S2GLP_Pulsed_Doppler/Libraries/XMCLib/inc\xmc_ccu4.h **** {
 250:C:/Users/Utente/Desktop/Tesi/Firmware_Software/DAVE project/S2GLP_Pulsed_Doppler/Libraries/XMCLib/inc\xmc_ccu4.h ****   XMC_CCU4_SLICE_TIMER_REPEAT_MODE_REPEAT = 0U,  /**< Repetitive mode: continuous mode of operation
 251:C:/Users/Utente/Desktop/Tesi/Firmware_Software/DAVE project/S2GLP_Pulsed_Doppler/Libraries/XMCLib/inc\xmc_ccu4.h ****   XMC_CCU4_SLICE_TIMER_REPEAT_MODE_SINGLE        /**< Single shot mode: Once a Period match/One mat
 252:C:/Users/Utente/Desktop/Tesi/Firmware_Software/DAVE project/S2GLP_Pulsed_Doppler/Libraries/XMCLib/inc\xmc_ccu4.h ****                                                       occurs timer goes to idle state */
 253:C:/Users/Utente/Desktop/Tesi/Firmware_Software/DAVE project/S2GLP_Pulsed_Doppler/Libraries/XMCLib/inc\xmc_ccu4.h **** } XMC_CCU4_SLICE_TIMER_REPEAT_MODE_t;
 254:C:/Users/Utente/Desktop/Tesi/Firmware_Software/DAVE project/S2GLP_Pulsed_Doppler/Libraries/XMCLib/inc\xmc_ccu4.h **** 
 255:C:/Users/Utente/Desktop/Tesi/Firmware_Software/DAVE project/S2GLP_Pulsed_Doppler/Libraries/XMCLib/inc\xmc_ccu4.h **** /**
 256:C:/Users/Utente/Desktop/Tesi/Firmware_Software/DAVE project/S2GLP_Pulsed_Doppler/Libraries/XMCLib/inc\xmc_ccu4.h ****  * Timer counting direction for the CCU4 slice
 257:C:/Users/Utente/Desktop/Tesi/Firmware_Software/DAVE project/S2GLP_Pulsed_Doppler/Libraries/XMCLib/inc\xmc_ccu4.h ****  */ 
 258:C:/Users/Utente/Desktop/Tesi/Firmware_Software/DAVE project/S2GLP_Pulsed_Doppler/Libraries/XMCLib/inc\xmc_ccu4.h **** typedef enum XMC_CCU4_SLICE_TIMER_COUNT_DIR
 259:C:/Users/Utente/Desktop/Tesi/Firmware_Software/DAVE project/S2GLP_Pulsed_Doppler/Libraries/XMCLib/inc\xmc_ccu4.h **** {
 260:C:/Users/Utente/Desktop/Tesi/Firmware_Software/DAVE project/S2GLP_Pulsed_Doppler/Libraries/XMCLib/inc\xmc_ccu4.h ****   XMC_CCU4_SLICE_TIMER_COUNT_DIR_UP   = 0U, /**< Counting up */
 261:C:/Users/Utente/Desktop/Tesi/Firmware_Software/DAVE project/S2GLP_Pulsed_Doppler/Libraries/XMCLib/inc\xmc_ccu4.h ****   XMC_CCU4_SLICE_TIMER_COUNT_DIR_DOWN       /**< Counting down */
 262:C:/Users/Utente/Desktop/Tesi/Firmware_Software/DAVE project/S2GLP_Pulsed_Doppler/Libraries/XMCLib/inc\xmc_ccu4.h **** } XMC_CCU4_SLICE_TIMER_COUNT_DIR_t;
 263:C:/Users/Utente/Desktop/Tesi/Firmware_Software/DAVE project/S2GLP_Pulsed_Doppler/Libraries/XMCLib/inc\xmc_ccu4.h **** 
 264:C:/Users/Utente/Desktop/Tesi/Firmware_Software/DAVE project/S2GLP_Pulsed_Doppler/Libraries/XMCLib/inc\xmc_ccu4.h **** /**
 265:C:/Users/Utente/Desktop/Tesi/Firmware_Software/DAVE project/S2GLP_Pulsed_Doppler/Libraries/XMCLib/inc\xmc_ccu4.h ****  *  Capture mode register sets
 266:C:/Users/Utente/Desktop/Tesi/Firmware_Software/DAVE project/S2GLP_Pulsed_Doppler/Libraries/XMCLib/inc\xmc_ccu4.h ****  */ 
 267:C:/Users/Utente/Desktop/Tesi/Firmware_Software/DAVE project/S2GLP_Pulsed_Doppler/Libraries/XMCLib/inc\xmc_ccu4.h **** typedef enum XMC_CCU4_SLICE_CAP_REG_SET
 268:C:/Users/Utente/Desktop/Tesi/Firmware_Software/DAVE project/S2GLP_Pulsed_Doppler/Libraries/XMCLib/inc\xmc_ccu4.h **** {
 269:C:/Users/Utente/Desktop/Tesi/Firmware_Software/DAVE project/S2GLP_Pulsed_Doppler/Libraries/XMCLib/inc\xmc_ccu4.h ****   XMC_CCU4_SLICE_CAP_REG_SET_LOW  = 0U, /**< Capture register-0, Capture register-1 used */
 270:C:/Users/Utente/Desktop/Tesi/Firmware_Software/DAVE project/S2GLP_Pulsed_Doppler/Libraries/XMCLib/inc\xmc_ccu4.h ****   XMC_CCU4_SLICE_CAP_REG_SET_HIGH       /**< Capture register-2, Capture register-3 used */
 271:C:/Users/Utente/Desktop/Tesi/Firmware_Software/DAVE project/S2GLP_Pulsed_Doppler/Libraries/XMCLib/inc\xmc_ccu4.h **** } XMC_CCU4_SLICE_CAP_REG_SET_t;
 272:C:/Users/Utente/Desktop/Tesi/Firmware_Software/DAVE project/S2GLP_Pulsed_Doppler/Libraries/XMCLib/inc\xmc_ccu4.h **** 
 273:C:/Users/Utente/Desktop/Tesi/Firmware_Software/DAVE project/S2GLP_Pulsed_Doppler/Libraries/XMCLib/inc\xmc_ccu4.h **** /**
 274:C:/Users/Utente/Desktop/Tesi/Firmware_Software/DAVE project/S2GLP_Pulsed_Doppler/Libraries/XMCLib/inc\xmc_ccu4.h ****  *  Prescaler mode
 275:C:/Users/Utente/Desktop/Tesi/Firmware_Software/DAVE project/S2GLP_Pulsed_Doppler/Libraries/XMCLib/inc\xmc_ccu4.h ****  */ 
 276:C:/Users/Utente/Desktop/Tesi/Firmware_Software/DAVE project/S2GLP_Pulsed_Doppler/Libraries/XMCLib/inc\xmc_ccu4.h **** typedef enum XMC_CCU4_SLICE_PRESCALER_MODE
 277:C:/Users/Utente/Desktop/Tesi/Firmware_Software/DAVE project/S2GLP_Pulsed_Doppler/Libraries/XMCLib/inc\xmc_ccu4.h **** {
 278:C:/Users/Utente/Desktop/Tesi/Firmware_Software/DAVE project/S2GLP_Pulsed_Doppler/Libraries/XMCLib/inc\xmc_ccu4.h ****   XMC_CCU4_SLICE_PRESCALER_MODE_NORMAL = 0U, /**< Fixed division of module clock */
 279:C:/Users/Utente/Desktop/Tesi/Firmware_Software/DAVE project/S2GLP_Pulsed_Doppler/Libraries/XMCLib/inc\xmc_ccu4.h ****   XMC_CCU4_SLICE_PRESCALER_MODE_FLOAT        /**< Floating divider. */
 280:C:/Users/Utente/Desktop/Tesi/Firmware_Software/DAVE project/S2GLP_Pulsed_Doppler/Libraries/XMCLib/inc\xmc_ccu4.h **** } XMC_CCU4_SLICE_PRESCALER_MODE_t;
 281:C:/Users/Utente/Desktop/Tesi/Firmware_Software/DAVE project/S2GLP_Pulsed_Doppler/Libraries/XMCLib/inc\xmc_ccu4.h **** 
 282:C:/Users/Utente/Desktop/Tesi/Firmware_Software/DAVE project/S2GLP_Pulsed_Doppler/Libraries/XMCLib/inc\xmc_ccu4.h **** /**
 283:C:/Users/Utente/Desktop/Tesi/Firmware_Software/DAVE project/S2GLP_Pulsed_Doppler/Libraries/XMCLib/inc\xmc_ccu4.h ****  *  Timer output passive level
 284:C:/Users/Utente/Desktop/Tesi/Firmware_Software/DAVE project/S2GLP_Pulsed_Doppler/Libraries/XMCLib/inc\xmc_ccu4.h ****  */ 
 285:C:/Users/Utente/Desktop/Tesi/Firmware_Software/DAVE project/S2GLP_Pulsed_Doppler/Libraries/XMCLib/inc\xmc_ccu4.h **** typedef enum XMC_CCU4_SLICE_OUTPUT_PASSIVE_LEVEL
 286:C:/Users/Utente/Desktop/Tesi/Firmware_Software/DAVE project/S2GLP_Pulsed_Doppler/Libraries/XMCLib/inc\xmc_ccu4.h **** {
 287:C:/Users/Utente/Desktop/Tesi/Firmware_Software/DAVE project/S2GLP_Pulsed_Doppler/Libraries/XMCLib/inc\xmc_ccu4.h ****   XMC_CCU4_SLICE_OUTPUT_PASSIVE_LEVEL_LOW  = 0U, /**< Passive level = Low */
 288:C:/Users/Utente/Desktop/Tesi/Firmware_Software/DAVE project/S2GLP_Pulsed_Doppler/Libraries/XMCLib/inc\xmc_ccu4.h ****   XMC_CCU4_SLICE_OUTPUT_PASSIVE_LEVEL_HIGH       /**< Passive level = High */
 289:C:/Users/Utente/Desktop/Tesi/Firmware_Software/DAVE project/S2GLP_Pulsed_Doppler/Libraries/XMCLib/inc\xmc_ccu4.h **** } XMC_CCU4_SLICE_OUTPUT_PASSIVE_LEVEL_t;
 290:C:/Users/Utente/Desktop/Tesi/Firmware_Software/DAVE project/S2GLP_Pulsed_Doppler/Libraries/XMCLib/inc\xmc_ccu4.h **** 
 291:C:/Users/Utente/Desktop/Tesi/Firmware_Software/DAVE project/S2GLP_Pulsed_Doppler/Libraries/XMCLib/inc\xmc_ccu4.h **** /**
 292:C:/Users/Utente/Desktop/Tesi/Firmware_Software/DAVE project/S2GLP_Pulsed_Doppler/Libraries/XMCLib/inc\xmc_ccu4.h ****  * Timer clock Divider
 293:C:/Users/Utente/Desktop/Tesi/Firmware_Software/DAVE project/S2GLP_Pulsed_Doppler/Libraries/XMCLib/inc\xmc_ccu4.h ****  */
 294:C:/Users/Utente/Desktop/Tesi/Firmware_Software/DAVE project/S2GLP_Pulsed_Doppler/Libraries/XMCLib/inc\xmc_ccu4.h **** typedef enum XMC_CCU4_SLICE_PRESCALER
 295:C:/Users/Utente/Desktop/Tesi/Firmware_Software/DAVE project/S2GLP_Pulsed_Doppler/Libraries/XMCLib/inc\xmc_ccu4.h **** {
 296:C:/Users/Utente/Desktop/Tesi/Firmware_Software/DAVE project/S2GLP_Pulsed_Doppler/Libraries/XMCLib/inc\xmc_ccu4.h ****   XMC_CCU4_SLICE_PRESCALER_1  = 0U, /**< Slice Clock = fccu4 */
 297:C:/Users/Utente/Desktop/Tesi/Firmware_Software/DAVE project/S2GLP_Pulsed_Doppler/Libraries/XMCLib/inc\xmc_ccu4.h ****   XMC_CCU4_SLICE_PRESCALER_2      , /**< Slice Clock = fccu4/2 */
 298:C:/Users/Utente/Desktop/Tesi/Firmware_Software/DAVE project/S2GLP_Pulsed_Doppler/Libraries/XMCLib/inc\xmc_ccu4.h ****   XMC_CCU4_SLICE_PRESCALER_4      , /**< Slice Clock = fccu4/4 */
 299:C:/Users/Utente/Desktop/Tesi/Firmware_Software/DAVE project/S2GLP_Pulsed_Doppler/Libraries/XMCLib/inc\xmc_ccu4.h ****   XMC_CCU4_SLICE_PRESCALER_8      , /**< Slice Clock = fccu4/8 */
 300:C:/Users/Utente/Desktop/Tesi/Firmware_Software/DAVE project/S2GLP_Pulsed_Doppler/Libraries/XMCLib/inc\xmc_ccu4.h ****   XMC_CCU4_SLICE_PRESCALER_16     , /**< Slice Clock = fccu4/16 */
 301:C:/Users/Utente/Desktop/Tesi/Firmware_Software/DAVE project/S2GLP_Pulsed_Doppler/Libraries/XMCLib/inc\xmc_ccu4.h ****   XMC_CCU4_SLICE_PRESCALER_32     , /**< Slice Clock = fccu4/32 */
 302:C:/Users/Utente/Desktop/Tesi/Firmware_Software/DAVE project/S2GLP_Pulsed_Doppler/Libraries/XMCLib/inc\xmc_ccu4.h ****   XMC_CCU4_SLICE_PRESCALER_64     , /**< Slice Clock = fccu4/64 */
 303:C:/Users/Utente/Desktop/Tesi/Firmware_Software/DAVE project/S2GLP_Pulsed_Doppler/Libraries/XMCLib/inc\xmc_ccu4.h ****   XMC_CCU4_SLICE_PRESCALER_128    , /**< Slice Clock = fccu4/128 */
 304:C:/Users/Utente/Desktop/Tesi/Firmware_Software/DAVE project/S2GLP_Pulsed_Doppler/Libraries/XMCLib/inc\xmc_ccu4.h ****   XMC_CCU4_SLICE_PRESCALER_256    , /**< Slice Clock = fccu4/256 */
 305:C:/Users/Utente/Desktop/Tesi/Firmware_Software/DAVE project/S2GLP_Pulsed_Doppler/Libraries/XMCLib/inc\xmc_ccu4.h ****   XMC_CCU4_SLICE_PRESCALER_512    , /**< Slice Clock = fccu4/512 */
 306:C:/Users/Utente/Desktop/Tesi/Firmware_Software/DAVE project/S2GLP_Pulsed_Doppler/Libraries/XMCLib/inc\xmc_ccu4.h ****   XMC_CCU4_SLICE_PRESCALER_1024   , /**< Slice Clock = fccu4/1024 */
 307:C:/Users/Utente/Desktop/Tesi/Firmware_Software/DAVE project/S2GLP_Pulsed_Doppler/Libraries/XMCLib/inc\xmc_ccu4.h ****   XMC_CCU4_SLICE_PRESCALER_2048   , /**< Slice Clock = fccu4/2048 */
 308:C:/Users/Utente/Desktop/Tesi/Firmware_Software/DAVE project/S2GLP_Pulsed_Doppler/Libraries/XMCLib/inc\xmc_ccu4.h ****   XMC_CCU4_SLICE_PRESCALER_4096   , /**< Slice Clock = fccu4/4096 */
 309:C:/Users/Utente/Desktop/Tesi/Firmware_Software/DAVE project/S2GLP_Pulsed_Doppler/Libraries/XMCLib/inc\xmc_ccu4.h ****   XMC_CCU4_SLICE_PRESCALER_8192   , /**< Slice Clock = fccu4/8192 */
 310:C:/Users/Utente/Desktop/Tesi/Firmware_Software/DAVE project/S2GLP_Pulsed_Doppler/Libraries/XMCLib/inc\xmc_ccu4.h ****   XMC_CCU4_SLICE_PRESCALER_16384  , /**< Slice Clock = fccu4/16384 */
 311:C:/Users/Utente/Desktop/Tesi/Firmware_Software/DAVE project/S2GLP_Pulsed_Doppler/Libraries/XMCLib/inc\xmc_ccu4.h ****   XMC_CCU4_SLICE_PRESCALER_32768    /**< Slice Clock = fccu4/32768 */
 312:C:/Users/Utente/Desktop/Tesi/Firmware_Software/DAVE project/S2GLP_Pulsed_Doppler/Libraries/XMCLib/inc\xmc_ccu4.h **** } XMC_CCU4_SLICE_PRESCALER_t;
 313:C:/Users/Utente/Desktop/Tesi/Firmware_Software/DAVE project/S2GLP_Pulsed_Doppler/Libraries/XMCLib/inc\xmc_ccu4.h **** 
 314:C:/Users/Utente/Desktop/Tesi/Firmware_Software/DAVE project/S2GLP_Pulsed_Doppler/Libraries/XMCLib/inc\xmc_ccu4.h **** /**
 315:C:/Users/Utente/Desktop/Tesi/Firmware_Software/DAVE project/S2GLP_Pulsed_Doppler/Libraries/XMCLib/inc\xmc_ccu4.h ****  *  External Function list
 316:C:/Users/Utente/Desktop/Tesi/Firmware_Software/DAVE project/S2GLP_Pulsed_Doppler/Libraries/XMCLib/inc\xmc_ccu4.h ****  */ 
 317:C:/Users/Utente/Desktop/Tesi/Firmware_Software/DAVE project/S2GLP_Pulsed_Doppler/Libraries/XMCLib/inc\xmc_ccu4.h **** typedef enum XMC_CCU4_SLICE_FUNCTION
 318:C:/Users/Utente/Desktop/Tesi/Firmware_Software/DAVE project/S2GLP_Pulsed_Doppler/Libraries/XMCLib/inc\xmc_ccu4.h **** {
 319:C:/Users/Utente/Desktop/Tesi/Firmware_Software/DAVE project/S2GLP_Pulsed_Doppler/Libraries/XMCLib/inc\xmc_ccu4.h ****   XMC_CCU4_SLICE_FUNCTION_START           = 0U, /**< Start function */
 320:C:/Users/Utente/Desktop/Tesi/Firmware_Software/DAVE project/S2GLP_Pulsed_Doppler/Libraries/XMCLib/inc\xmc_ccu4.h ****   XMC_CCU4_SLICE_FUNCTION_STOP                , /**< Stop function */
 321:C:/Users/Utente/Desktop/Tesi/Firmware_Software/DAVE project/S2GLP_Pulsed_Doppler/Libraries/XMCLib/inc\xmc_ccu4.h ****   XMC_CCU4_SLICE_FUNCTION_CAPTURE_EVENT0      , /**< Capture Event-0 function, CCycapt0 signal is u
 322:C:/Users/Utente/Desktop/Tesi/Firmware_Software/DAVE project/S2GLP_Pulsed_Doppler/Libraries/XMCLib/inc\xmc_ccu4.h ****                                                      generation */
 323:C:/Users/Utente/Desktop/Tesi/Firmware_Software/DAVE project/S2GLP_Pulsed_Doppler/Libraries/XMCLib/inc\xmc_ccu4.h ****   XMC_CCU4_SLICE_FUNCTION_CAPTURE_EVENT1      , /**< Capture Event-1 function, CCycapt1 signal is u
 324:C:/Users/Utente/Desktop/Tesi/Firmware_Software/DAVE project/S2GLP_Pulsed_Doppler/Libraries/XMCLib/inc\xmc_ccu4.h ****                                                      generation */
 325:C:/Users/Utente/Desktop/Tesi/Firmware_Software/DAVE project/S2GLP_Pulsed_Doppler/Libraries/XMCLib/inc\xmc_ccu4.h ****   XMC_CCU4_SLICE_FUNCTION_GATING              , /**< Gating function */
 326:C:/Users/Utente/Desktop/Tesi/Firmware_Software/DAVE project/S2GLP_Pulsed_Doppler/Libraries/XMCLib/inc\xmc_ccu4.h ****   XMC_CCU4_SLICE_FUNCTION_DIRECTION           , /**< Direction function */
 327:C:/Users/Utente/Desktop/Tesi/Firmware_Software/DAVE project/S2GLP_Pulsed_Doppler/Libraries/XMCLib/inc\xmc_ccu4.h ****   XMC_CCU4_SLICE_FUNCTION_LOAD                , /**< Load function */
 328:C:/Users/Utente/Desktop/Tesi/Firmware_Software/DAVE project/S2GLP_Pulsed_Doppler/Libraries/XMCLib/inc\xmc_ccu4.h ****   XMC_CCU4_SLICE_FUNCTION_COUNT               , /**< Counting function */
 329:C:/Users/Utente/Desktop/Tesi/Firmware_Software/DAVE project/S2GLP_Pulsed_Doppler/Libraries/XMCLib/inc\xmc_ccu4.h ****   XMC_CCU4_SLICE_FUNCTION_OVERRIDE            , /**< Override function */
 330:C:/Users/Utente/Desktop/Tesi/Firmware_Software/DAVE project/S2GLP_Pulsed_Doppler/Libraries/XMCLib/inc\xmc_ccu4.h ****   XMC_CCU4_SLICE_FUNCTION_MODULATION          , /**< Modulation function */
 331:C:/Users/Utente/Desktop/Tesi/Firmware_Software/DAVE project/S2GLP_Pulsed_Doppler/Libraries/XMCLib/inc\xmc_ccu4.h ****   XMC_CCU4_SLICE_FUNCTION_TRAP                  /**< Trap function */
 332:C:/Users/Utente/Desktop/Tesi/Firmware_Software/DAVE project/S2GLP_Pulsed_Doppler/Libraries/XMCLib/inc\xmc_ccu4.h **** } XMC_CCU4_SLICE_FUNCTION_t;
 333:C:/Users/Utente/Desktop/Tesi/Firmware_Software/DAVE project/S2GLP_Pulsed_Doppler/Libraries/XMCLib/inc\xmc_ccu4.h **** 
 334:C:/Users/Utente/Desktop/Tesi/Firmware_Software/DAVE project/S2GLP_Pulsed_Doppler/Libraries/XMCLib/inc\xmc_ccu4.h **** /**
 335:C:/Users/Utente/Desktop/Tesi/Firmware_Software/DAVE project/S2GLP_Pulsed_Doppler/Libraries/XMCLib/inc\xmc_ccu4.h ****  *  External Event list
 336:C:/Users/Utente/Desktop/Tesi/Firmware_Software/DAVE project/S2GLP_Pulsed_Doppler/Libraries/XMCLib/inc\xmc_ccu4.h ****  */ 
 337:C:/Users/Utente/Desktop/Tesi/Firmware_Software/DAVE project/S2GLP_Pulsed_Doppler/Libraries/XMCLib/inc\xmc_ccu4.h **** typedef enum XMC_CCU4_SLICE_EVENT
 338:C:/Users/Utente/Desktop/Tesi/Firmware_Software/DAVE project/S2GLP_Pulsed_Doppler/Libraries/XMCLib/inc\xmc_ccu4.h **** {
 339:C:/Users/Utente/Desktop/Tesi/Firmware_Software/DAVE project/S2GLP_Pulsed_Doppler/Libraries/XMCLib/inc\xmc_ccu4.h ****   XMC_CCU4_SLICE_EVENT_NONE  = 0U, /**< None */
 340:C:/Users/Utente/Desktop/Tesi/Firmware_Software/DAVE project/S2GLP_Pulsed_Doppler/Libraries/XMCLib/inc\xmc_ccu4.h ****   XMC_CCU4_SLICE_EVENT_0         , /**< Event-0 */
 341:C:/Users/Utente/Desktop/Tesi/Firmware_Software/DAVE project/S2GLP_Pulsed_Doppler/Libraries/XMCLib/inc\xmc_ccu4.h ****   XMC_CCU4_SLICE_EVENT_1         , /**< Event-1 */
 342:C:/Users/Utente/Desktop/Tesi/Firmware_Software/DAVE project/S2GLP_Pulsed_Doppler/Libraries/XMCLib/inc\xmc_ccu4.h ****   XMC_CCU4_SLICE_EVENT_2           /**< Event-2 */
 343:C:/Users/Utente/Desktop/Tesi/Firmware_Software/DAVE project/S2GLP_Pulsed_Doppler/Libraries/XMCLib/inc\xmc_ccu4.h **** } XMC_CCU4_SLICE_EVENT_t;
 344:C:/Users/Utente/Desktop/Tesi/Firmware_Software/DAVE project/S2GLP_Pulsed_Doppler/Libraries/XMCLib/inc\xmc_ccu4.h **** 
 345:C:/Users/Utente/Desktop/Tesi/Firmware_Software/DAVE project/S2GLP_Pulsed_Doppler/Libraries/XMCLib/inc\xmc_ccu4.h **** /**
 346:C:/Users/Utente/Desktop/Tesi/Firmware_Software/DAVE project/S2GLP_Pulsed_Doppler/Libraries/XMCLib/inc\xmc_ccu4.h ****  *  External Event trigger criteria  - Edge sensitivity
 347:C:/Users/Utente/Desktop/Tesi/Firmware_Software/DAVE project/S2GLP_Pulsed_Doppler/Libraries/XMCLib/inc\xmc_ccu4.h ****  */ 
 348:C:/Users/Utente/Desktop/Tesi/Firmware_Software/DAVE project/S2GLP_Pulsed_Doppler/Libraries/XMCLib/inc\xmc_ccu4.h **** typedef enum XMC_CCU4_SLICE_EVENT_EDGE_SENSITIVITY
 349:C:/Users/Utente/Desktop/Tesi/Firmware_Software/DAVE project/S2GLP_Pulsed_Doppler/Libraries/XMCLib/inc\xmc_ccu4.h **** {
 350:C:/Users/Utente/Desktop/Tesi/Firmware_Software/DAVE project/S2GLP_Pulsed_Doppler/Libraries/XMCLib/inc\xmc_ccu4.h ****   XMC_CCU4_SLICE_EVENT_EDGE_SENSITIVITY_NONE         = 0U, /**< None */
 351:C:/Users/Utente/Desktop/Tesi/Firmware_Software/DAVE project/S2GLP_Pulsed_Doppler/Libraries/XMCLib/inc\xmc_ccu4.h ****   XMC_CCU4_SLICE_EVENT_EDGE_SENSITIVITY_RISING_EDGE      , /**< Rising Edge of the input signal gen
 352:C:/Users/Utente/Desktop/Tesi/Firmware_Software/DAVE project/S2GLP_Pulsed_Doppler/Libraries/XMCLib/inc\xmc_ccu4.h ****   XMC_CCU4_SLICE_EVENT_EDGE_SENSITIVITY_FALLING_EDGE     , /**< Falling Edge of the input signal ge
 353:C:/Users/Utente/Desktop/Tesi/Firmware_Software/DAVE project/S2GLP_Pulsed_Doppler/Libraries/XMCLib/inc\xmc_ccu4.h ****                                                                 trigger */
 354:C:/Users/Utente/Desktop/Tesi/Firmware_Software/DAVE project/S2GLP_Pulsed_Doppler/Libraries/XMCLib/inc\xmc_ccu4.h ****   XMC_CCU4_SLICE_EVENT_EDGE_SENSITIVITY_DUAL_EDGE          /**< Both Rising and Falling edges cause
 355:C:/Users/Utente/Desktop/Tesi/Firmware_Software/DAVE project/S2GLP_Pulsed_Doppler/Libraries/XMCLib/inc\xmc_ccu4.h **** } XMC_CCU4_SLICE_EVENT_EDGE_SENSITIVITY_t;
 356:C:/Users/Utente/Desktop/Tesi/Firmware_Software/DAVE project/S2GLP_Pulsed_Doppler/Libraries/XMCLib/inc\xmc_ccu4.h **** 
 357:C:/Users/Utente/Desktop/Tesi/Firmware_Software/DAVE project/S2GLP_Pulsed_Doppler/Libraries/XMCLib/inc\xmc_ccu4.h **** /**
 358:C:/Users/Utente/Desktop/Tesi/Firmware_Software/DAVE project/S2GLP_Pulsed_Doppler/Libraries/XMCLib/inc\xmc_ccu4.h ****  *  External Event trigger criteria  - Level sensitivity
 359:C:/Users/Utente/Desktop/Tesi/Firmware_Software/DAVE project/S2GLP_Pulsed_Doppler/Libraries/XMCLib/inc\xmc_ccu4.h ****  */ 
 360:C:/Users/Utente/Desktop/Tesi/Firmware_Software/DAVE project/S2GLP_Pulsed_Doppler/Libraries/XMCLib/inc\xmc_ccu4.h **** typedef enum XMC_CCU4_SLICE_EVENT_LEVEL_SENSITIVITY
 361:C:/Users/Utente/Desktop/Tesi/Firmware_Software/DAVE project/S2GLP_Pulsed_Doppler/Libraries/XMCLib/inc\xmc_ccu4.h **** {
 362:C:/Users/Utente/Desktop/Tesi/Firmware_Software/DAVE project/S2GLP_Pulsed_Doppler/Libraries/XMCLib/inc\xmc_ccu4.h ****   XMC_CCU4_SLICE_EVENT_LEVEL_SENSITIVITY_ACTIVE_HIGH = 0U, /**< Level sensitive functions react to 
 363:C:/Users/Utente/Desktop/Tesi/Firmware_Software/DAVE project/S2GLP_Pulsed_Doppler/Libraries/XMCLib/inc\xmc_ccu4.h ****   XMC_CCU4_SLICE_EVENT_LEVEL_SENSITIVITY_ACTIVE_LOW  = 1U, /**< Level sensitive functions react to 
 364:C:/Users/Utente/Desktop/Tesi/Firmware_Software/DAVE project/S2GLP_Pulsed_Doppler/Libraries/XMCLib/inc\xmc_ccu4.h ****   /* Below enum items can be utilised specific to the functionality */
 365:C:/Users/Utente/Desktop/Tesi/Firmware_Software/DAVE project/S2GLP_Pulsed_Doppler/Libraries/XMCLib/inc\xmc_ccu4.h ****   XMC_CCU4_SLICE_EVENT_LEVEL_SENSITIVITY_COUNT_UP_ON_LOW = 0U, /**< Timer counts up, during Low sta
 366:C:/Users/Utente/Desktop/Tesi/Firmware_Software/DAVE project/S2GLP_Pulsed_Doppler/Libraries/XMCLib/inc\xmc_ccu4.h ****   XMC_CCU4_SLICE_EVENT_LEVEL_SENSITIVITY_COUNT_UP_ON_HIGH = 1U /**< Timer counts up, during High st
 367:C:/Users/Utente/Desktop/Tesi/Firmware_Software/DAVE project/S2GLP_Pulsed_Doppler/Libraries/XMCLib/inc\xmc_ccu4.h **** } XMC_CCU4_SLICE_EVENT_LEVEL_SENSITIVITY_t;
 368:C:/Users/Utente/Desktop/Tesi/Firmware_Software/DAVE project/S2GLP_Pulsed_Doppler/Libraries/XMCLib/inc\xmc_ccu4.h **** 
 369:C:/Users/Utente/Desktop/Tesi/Firmware_Software/DAVE project/S2GLP_Pulsed_Doppler/Libraries/XMCLib/inc\xmc_ccu4.h **** /**
 370:C:/Users/Utente/Desktop/Tesi/Firmware_Software/DAVE project/S2GLP_Pulsed_Doppler/Libraries/XMCLib/inc\xmc_ccu4.h ****  *  Low pass filter Configuration. The External Event input should be stable for a selected number 
 371:C:/Users/Utente/Desktop/Tesi/Firmware_Software/DAVE project/S2GLP_Pulsed_Doppler/Libraries/XMCLib/inc\xmc_ccu4.h ****  */ 
 372:C:/Users/Utente/Desktop/Tesi/Firmware_Software/DAVE project/S2GLP_Pulsed_Doppler/Libraries/XMCLib/inc\xmc_ccu4.h **** typedef enum XMC_CCU4_SLICE_EVENT_FILTER
 373:C:/Users/Utente/Desktop/Tesi/Firmware_Software/DAVE project/S2GLP_Pulsed_Doppler/Libraries/XMCLib/inc\xmc_ccu4.h **** {
 374:C:/Users/Utente/Desktop/Tesi/Firmware_Software/DAVE project/S2GLP_Pulsed_Doppler/Libraries/XMCLib/inc\xmc_ccu4.h ****   XMC_CCU4_SLICE_EVENT_FILTER_DISABLED  = 0U, /**< No Low Pass Filter */
 375:C:/Users/Utente/Desktop/Tesi/Firmware_Software/DAVE project/S2GLP_Pulsed_Doppler/Libraries/XMCLib/inc\xmc_ccu4.h ****   XMC_CCU4_SLICE_EVENT_FILTER_3_CYCLES      , /**< 3 clock cycles */
 376:C:/Users/Utente/Desktop/Tesi/Firmware_Software/DAVE project/S2GLP_Pulsed_Doppler/Libraries/XMCLib/inc\xmc_ccu4.h ****   XMC_CCU4_SLICE_EVENT_FILTER_5_CYCLES      , /**< 5 clock cycles */
 377:C:/Users/Utente/Desktop/Tesi/Firmware_Software/DAVE project/S2GLP_Pulsed_Doppler/Libraries/XMCLib/inc\xmc_ccu4.h ****   XMC_CCU4_SLICE_EVENT_FILTER_7_CYCLES        /**< 7 clock cycles */
 378:C:/Users/Utente/Desktop/Tesi/Firmware_Software/DAVE project/S2GLP_Pulsed_Doppler/Libraries/XMCLib/inc\xmc_ccu4.h **** } XMC_CCU4_SLICE_EVENT_FILTER_t;
 379:C:/Users/Utente/Desktop/Tesi/Firmware_Software/DAVE project/S2GLP_Pulsed_Doppler/Libraries/XMCLib/inc\xmc_ccu4.h **** 
 380:C:/Users/Utente/Desktop/Tesi/Firmware_Software/DAVE project/S2GLP_Pulsed_Doppler/Libraries/XMCLib/inc\xmc_ccu4.h **** /**
 381:C:/Users/Utente/Desktop/Tesi/Firmware_Software/DAVE project/S2GLP_Pulsed_Doppler/Libraries/XMCLib/inc\xmc_ccu4.h ****  *  External Event Input list. This list depicts the possible input connections to the CCU4 slice.
 382:C:/Users/Utente/Desktop/Tesi/Firmware_Software/DAVE project/S2GLP_Pulsed_Doppler/Libraries/XMCLib/inc\xmc_ccu4.h ****  *  Interconnects are specific to each device.
 383:C:/Users/Utente/Desktop/Tesi/Firmware_Software/DAVE project/S2GLP_Pulsed_Doppler/Libraries/XMCLib/inc\xmc_ccu4.h ****  */ 
 384:C:/Users/Utente/Desktop/Tesi/Firmware_Software/DAVE project/S2GLP_Pulsed_Doppler/Libraries/XMCLib/inc\xmc_ccu4.h **** typedef uint8_t XMC_CCU4_SLICE_INPUT_t;
 385:C:/Users/Utente/Desktop/Tesi/Firmware_Software/DAVE project/S2GLP_Pulsed_Doppler/Libraries/XMCLib/inc\xmc_ccu4.h **** 
 386:C:/Users/Utente/Desktop/Tesi/Firmware_Software/DAVE project/S2GLP_Pulsed_Doppler/Libraries/XMCLib/inc\xmc_ccu4.h **** /**
 387:C:/Users/Utente/Desktop/Tesi/Firmware_Software/DAVE project/S2GLP_Pulsed_Doppler/Libraries/XMCLib/inc\xmc_ccu4.h ****  * Actions that can be performed upon detection of an external Timer STOP event
 388:C:/Users/Utente/Desktop/Tesi/Firmware_Software/DAVE project/S2GLP_Pulsed_Doppler/Libraries/XMCLib/inc\xmc_ccu4.h ****  */ 
 389:C:/Users/Utente/Desktop/Tesi/Firmware_Software/DAVE project/S2GLP_Pulsed_Doppler/Libraries/XMCLib/inc\xmc_ccu4.h **** typedef enum XMC_CCU4_SLICE_END_MODE
 390:C:/Users/Utente/Desktop/Tesi/Firmware_Software/DAVE project/S2GLP_Pulsed_Doppler/Libraries/XMCLib/inc\xmc_ccu4.h **** {
 391:C:/Users/Utente/Desktop/Tesi/Firmware_Software/DAVE project/S2GLP_Pulsed_Doppler/Libraries/XMCLib/inc\xmc_ccu4.h ****   XMC_CCU4_SLICE_END_MODE_TIMER_STOP       = 0U, /**< Stops the timer, without clearing TIMER regis
 392:C:/Users/Utente/Desktop/Tesi/Firmware_Software/DAVE project/S2GLP_Pulsed_Doppler/Libraries/XMCLib/inc\xmc_ccu4.h ****   XMC_CCU4_SLICE_END_MODE_TIMER_CLEAR          , /**< Without stopping timer, clears the TIMER regi
 393:C:/Users/Utente/Desktop/Tesi/Firmware_Software/DAVE project/S2GLP_Pulsed_Doppler/Libraries/XMCLib/inc\xmc_ccu4.h ****   XMC_CCU4_SLICE_END_MODE_TIMER_STOP_CLEAR       /**< Stops the timer and clears the TIMER register
 394:C:/Users/Utente/Desktop/Tesi/Firmware_Software/DAVE project/S2GLP_Pulsed_Doppler/Libraries/XMCLib/inc\xmc_ccu4.h **** } XMC_CCU4_SLICE_END_MODE_t;
 395:C:/Users/Utente/Desktop/Tesi/Firmware_Software/DAVE project/S2GLP_Pulsed_Doppler/Libraries/XMCLib/inc\xmc_ccu4.h **** 
 396:C:/Users/Utente/Desktop/Tesi/Firmware_Software/DAVE project/S2GLP_Pulsed_Doppler/Libraries/XMCLib/inc\xmc_ccu4.h **** /**
 397:C:/Users/Utente/Desktop/Tesi/Firmware_Software/DAVE project/S2GLP_Pulsed_Doppler/Libraries/XMCLib/inc\xmc_ccu4.h ****  *  Actions that can be performed upon detection of an external Timer START event
 398:C:/Users/Utente/Desktop/Tesi/Firmware_Software/DAVE project/S2GLP_Pulsed_Doppler/Libraries/XMCLib/inc\xmc_ccu4.h ****  */ 
 399:C:/Users/Utente/Desktop/Tesi/Firmware_Software/DAVE project/S2GLP_Pulsed_Doppler/Libraries/XMCLib/inc\xmc_ccu4.h **** typedef enum XMC_CCU4_SLICE_START_MODE
 400:C:/Users/Utente/Desktop/Tesi/Firmware_Software/DAVE project/S2GLP_Pulsed_Doppler/Libraries/XMCLib/inc\xmc_ccu4.h **** {
 401:C:/Users/Utente/Desktop/Tesi/Firmware_Software/DAVE project/S2GLP_Pulsed_Doppler/Libraries/XMCLib/inc\xmc_ccu4.h ****   XMC_CCU4_SLICE_START_MODE_TIMER_START       = 0U, /**< Start the timer from the current count of 
 402:C:/Users/Utente/Desktop/Tesi/Firmware_Software/DAVE project/S2GLP_Pulsed_Doppler/Libraries/XMCLib/inc\xmc_ccu4.h ****   XMC_CCU4_SLICE_START_MODE_TIMER_START_CLEAR       /**< Clears the TIMER register and start the ti
 403:C:/Users/Utente/Desktop/Tesi/Firmware_Software/DAVE project/S2GLP_Pulsed_Doppler/Libraries/XMCLib/inc\xmc_ccu4.h **** } XMC_CCU4_SLICE_START_MODE_t;
 404:C:/Users/Utente/Desktop/Tesi/Firmware_Software/DAVE project/S2GLP_Pulsed_Doppler/Libraries/XMCLib/inc\xmc_ccu4.h **** 
 405:C:/Users/Utente/Desktop/Tesi/Firmware_Software/DAVE project/S2GLP_Pulsed_Doppler/Libraries/XMCLib/inc\xmc_ccu4.h **** /**
 406:C:/Users/Utente/Desktop/Tesi/Firmware_Software/DAVE project/S2GLP_Pulsed_Doppler/Libraries/XMCLib/inc\xmc_ccu4.h ****  *  Modulation of timer output signals
 407:C:/Users/Utente/Desktop/Tesi/Firmware_Software/DAVE project/S2GLP_Pulsed_Doppler/Libraries/XMCLib/inc\xmc_ccu4.h ****  */ 
 408:C:/Users/Utente/Desktop/Tesi/Firmware_Software/DAVE project/S2GLP_Pulsed_Doppler/Libraries/XMCLib/inc\xmc_ccu4.h **** typedef enum XMC_CCU4_SLICE_MODULATION_MODE
 409:C:/Users/Utente/Desktop/Tesi/Firmware_Software/DAVE project/S2GLP_Pulsed_Doppler/Libraries/XMCLib/inc\xmc_ccu4.h **** {
 410:C:/Users/Utente/Desktop/Tesi/Firmware_Software/DAVE project/S2GLP_Pulsed_Doppler/Libraries/XMCLib/inc\xmc_ccu4.h ****   XMC_CCU4_SLICE_MODULATION_MODE_CLEAR_ST_OUT  = 0U, /**< Clear ST and OUT signals */
 411:C:/Users/Utente/Desktop/Tesi/Firmware_Software/DAVE project/S2GLP_Pulsed_Doppler/Libraries/XMCLib/inc\xmc_ccu4.h ****   XMC_CCU4_SLICE_MODULATION_MODE_CLEAR_OUT           /**< Clear only the OUT signal */
 412:C:/Users/Utente/Desktop/Tesi/Firmware_Software/DAVE project/S2GLP_Pulsed_Doppler/Libraries/XMCLib/inc\xmc_ccu4.h **** } XMC_CCU4_SLICE_MODULATION_MODE_t;
 413:C:/Users/Utente/Desktop/Tesi/Firmware_Software/DAVE project/S2GLP_Pulsed_Doppler/Libraries/XMCLib/inc\xmc_ccu4.h **** 
 414:C:/Users/Utente/Desktop/Tesi/Firmware_Software/DAVE project/S2GLP_Pulsed_Doppler/Libraries/XMCLib/inc\xmc_ccu4.h **** /**
 415:C:/Users/Utente/Desktop/Tesi/Firmware_Software/DAVE project/S2GLP_Pulsed_Doppler/Libraries/XMCLib/inc\xmc_ccu4.h ****  *  Trap exit mode
 416:C:/Users/Utente/Desktop/Tesi/Firmware_Software/DAVE project/S2GLP_Pulsed_Doppler/Libraries/XMCLib/inc\xmc_ccu4.h ****  */ 
 417:C:/Users/Utente/Desktop/Tesi/Firmware_Software/DAVE project/S2GLP_Pulsed_Doppler/Libraries/XMCLib/inc\xmc_ccu4.h **** typedef enum XMC_CCU4_SLICE_TRAP_EXIT_MODE
 418:C:/Users/Utente/Desktop/Tesi/Firmware_Software/DAVE project/S2GLP_Pulsed_Doppler/Libraries/XMCLib/inc\xmc_ccu4.h **** {
 419:C:/Users/Utente/Desktop/Tesi/Firmware_Software/DAVE project/S2GLP_Pulsed_Doppler/Libraries/XMCLib/inc\xmc_ccu4.h ****   XMC_CCU4_SLICE_TRAP_EXIT_MODE_AUTOMATIC = 0U, /**< Clear trap state as soon as the trap signal is
 420:C:/Users/Utente/Desktop/Tesi/Firmware_Software/DAVE project/S2GLP_Pulsed_Doppler/Libraries/XMCLib/inc\xmc_ccu4.h ****   XMC_CCU4_SLICE_TRAP_EXIT_MODE_SW              /**< Clear only when acknowledged by software */
 421:C:/Users/Utente/Desktop/Tesi/Firmware_Software/DAVE project/S2GLP_Pulsed_Doppler/Libraries/XMCLib/inc\xmc_ccu4.h **** } XMC_CCU4_SLICE_TRAP_EXIT_MODE_t;
 422:C:/Users/Utente/Desktop/Tesi/Firmware_Software/DAVE project/S2GLP_Pulsed_Doppler/Libraries/XMCLib/inc\xmc_ccu4.h **** 
 423:C:/Users/Utente/Desktop/Tesi/Firmware_Software/DAVE project/S2GLP_Pulsed_Doppler/Libraries/XMCLib/inc\xmc_ccu4.h **** /**
 424:C:/Users/Utente/Desktop/Tesi/Firmware_Software/DAVE project/S2GLP_Pulsed_Doppler/Libraries/XMCLib/inc\xmc_ccu4.h ****  *  Timer clear on capture
 425:C:/Users/Utente/Desktop/Tesi/Firmware_Software/DAVE project/S2GLP_Pulsed_Doppler/Libraries/XMCLib/inc\xmc_ccu4.h ****  */ 
 426:C:/Users/Utente/Desktop/Tesi/Firmware_Software/DAVE project/S2GLP_Pulsed_Doppler/Libraries/XMCLib/inc\xmc_ccu4.h **** typedef enum XMC_CCU4_SLICE_TIMER_CLEAR_MODE
 427:C:/Users/Utente/Desktop/Tesi/Firmware_Software/DAVE project/S2GLP_Pulsed_Doppler/Libraries/XMCLib/inc\xmc_ccu4.h **** {
 428:C:/Users/Utente/Desktop/Tesi/Firmware_Software/DAVE project/S2GLP_Pulsed_Doppler/Libraries/XMCLib/inc\xmc_ccu4.h ****   XMC_CCU4_SLICE_TIMER_CLEAR_MODE_NEVER    = 0U, /**< Never clear the timer on any capture event */
 429:C:/Users/Utente/Desktop/Tesi/Firmware_Software/DAVE project/S2GLP_Pulsed_Doppler/Libraries/XMCLib/inc\xmc_ccu4.h ****   XMC_CCU4_SLICE_TIMER_CLEAR_MODE_CAP_HIGH     , /**< Clear only when timer value has been captured
 430:C:/Users/Utente/Desktop/Tesi/Firmware_Software/DAVE project/S2GLP_Pulsed_Doppler/Libraries/XMCLib/inc\xmc_ccu4.h ****   XMC_CCU4_SLICE_TIMER_CLEAR_MODE_CAP_LOW      , /**< Clear only when timer value has been captured
 431:C:/Users/Utente/Desktop/Tesi/Firmware_Software/DAVE project/S2GLP_Pulsed_Doppler/Libraries/XMCLib/inc\xmc_ccu4.h ****   XMC_CCU4_SLICE_TIMER_CLEAR_MODE_ALWAYS         /**< Always clear the timer upon detection of any 
 432:C:/Users/Utente/Desktop/Tesi/Firmware_Software/DAVE project/S2GLP_Pulsed_Doppler/Libraries/XMCLib/inc\xmc_ccu4.h **** } XMC_CCU4_SLICE_TIMER_CLEAR_MODE_t;
 433:C:/Users/Utente/Desktop/Tesi/Firmware_Software/DAVE project/S2GLP_Pulsed_Doppler/Libraries/XMCLib/inc\xmc_ccu4.h **** 
 434:C:/Users/Utente/Desktop/Tesi/Firmware_Software/DAVE project/S2GLP_Pulsed_Doppler/Libraries/XMCLib/inc\xmc_ccu4.h **** /**
 435:C:/Users/Utente/Desktop/Tesi/Firmware_Software/DAVE project/S2GLP_Pulsed_Doppler/Libraries/XMCLib/inc\xmc_ccu4.h ****  *  Multi Channel Shadow transfer request configuration options
 436:C:/Users/Utente/Desktop/Tesi/Firmware_Software/DAVE project/S2GLP_Pulsed_Doppler/Libraries/XMCLib/inc\xmc_ccu4.h ****  */ 
 437:C:/Users/Utente/Desktop/Tesi/Firmware_Software/DAVE project/S2GLP_Pulsed_Doppler/Libraries/XMCLib/inc\xmc_ccu4.h **** typedef enum XMC_CCU4_SLICE_MCMS_ACTION
 438:C:/Users/Utente/Desktop/Tesi/Firmware_Software/DAVE project/S2GLP_Pulsed_Doppler/Libraries/XMCLib/inc\xmc_ccu4.h **** {
 439:C:/Users/Utente/Desktop/Tesi/Firmware_Software/DAVE project/S2GLP_Pulsed_Doppler/Libraries/XMCLib/inc\xmc_ccu4.h ****   XMC_CCU4_SLICE_MCMS_ACTION_TRANSFER_PR_CR          = 0U, /**< Transfer Compare and Period Shadow 
 440:C:/Users/Utente/Desktop/Tesi/Firmware_Software/DAVE project/S2GLP_Pulsed_Doppler/Libraries/XMCLib/inc\xmc_ccu4.h ****                                                                 the actual registers upon MCS xfer 
 441:C:/Users/Utente/Desktop/Tesi/Firmware_Software/DAVE project/S2GLP_Pulsed_Doppler/Libraries/XMCLib/inc\xmc_ccu4.h ****   XMC_CCU4_SLICE_MCMS_ACTION_TRANSFER_PR_CR_PCMP     = 1U, /**< Transfer Compare, Period and Presca
 442:C:/Users/Utente/Desktop/Tesi/Firmware_Software/DAVE project/S2GLP_Pulsed_Doppler/Libraries/XMCLib/inc\xmc_ccu4.h ****                                                                 register values to the actual regis
 443:C:/Users/Utente/Desktop/Tesi/Firmware_Software/DAVE project/S2GLP_Pulsed_Doppler/Libraries/XMCLib/inc\xmc_ccu4.h ****                                                                 request */
 444:C:/Users/Utente/Desktop/Tesi/Firmware_Software/DAVE project/S2GLP_Pulsed_Doppler/Libraries/XMCLib/inc\xmc_ccu4.h ****   XMC_CCU4_SLICE_MCMS_ACTION_TRANSFER_PR_CR_PCMP_DIT = 3U  /**< Transfer Compare, Period ,Prescaler
 445:C:/Users/Utente/Desktop/Tesi/Firmware_Software/DAVE project/S2GLP_Pulsed_Doppler/Libraries/XMCLib/inc\xmc_ccu4.h ****                                                                 Compare register values to the actu
 446:C:/Users/Utente/Desktop/Tesi/Firmware_Software/DAVE project/S2GLP_Pulsed_Doppler/Libraries/XMCLib/inc\xmc_ccu4.h ****                                                                 MCS xfer request */
 447:C:/Users/Utente/Desktop/Tesi/Firmware_Software/DAVE project/S2GLP_Pulsed_Doppler/Libraries/XMCLib/inc\xmc_ccu4.h **** } XMC_CCU4_SLICE_MCMS_ACTION_t;
 448:C:/Users/Utente/Desktop/Tesi/Firmware_Software/DAVE project/S2GLP_Pulsed_Doppler/Libraries/XMCLib/inc\xmc_ccu4.h **** 
 449:C:/Users/Utente/Desktop/Tesi/Firmware_Software/DAVE project/S2GLP_Pulsed_Doppler/Libraries/XMCLib/inc\xmc_ccu4.h **** /**
 450:C:/Users/Utente/Desktop/Tesi/Firmware_Software/DAVE project/S2GLP_Pulsed_Doppler/Libraries/XMCLib/inc\xmc_ccu4.h ****  * Available Interrupt Event Ids
 451:C:/Users/Utente/Desktop/Tesi/Firmware_Software/DAVE project/S2GLP_Pulsed_Doppler/Libraries/XMCLib/inc\xmc_ccu4.h ****  */ 
 452:C:/Users/Utente/Desktop/Tesi/Firmware_Software/DAVE project/S2GLP_Pulsed_Doppler/Libraries/XMCLib/inc\xmc_ccu4.h **** typedef enum XMC_CCU4_SLICE_IRQ_ID
 453:C:/Users/Utente/Desktop/Tesi/Firmware_Software/DAVE project/S2GLP_Pulsed_Doppler/Libraries/XMCLib/inc\xmc_ccu4.h **** {
 454:C:/Users/Utente/Desktop/Tesi/Firmware_Software/DAVE project/S2GLP_Pulsed_Doppler/Libraries/XMCLib/inc\xmc_ccu4.h ****   XMC_CCU4_SLICE_IRQ_ID_PERIOD_MATCH       = 0U , /**< Period match counting up */
 455:C:/Users/Utente/Desktop/Tesi/Firmware_Software/DAVE project/S2GLP_Pulsed_Doppler/Libraries/XMCLib/inc\xmc_ccu4.h ****   XMC_CCU4_SLICE_IRQ_ID_ONE_MATCH          = 1U , /**< Period match -> One match counting down */
 456:C:/Users/Utente/Desktop/Tesi/Firmware_Software/DAVE project/S2GLP_Pulsed_Doppler/Libraries/XMCLib/inc\xmc_ccu4.h ****   XMC_CCU4_SLICE_IRQ_ID_COMPARE_MATCH_UP   = 2U , /**< Compare match counting up */
 457:C:/Users/Utente/Desktop/Tesi/Firmware_Software/DAVE project/S2GLP_Pulsed_Doppler/Libraries/XMCLib/inc\xmc_ccu4.h ****   XMC_CCU4_SLICE_IRQ_ID_COMPARE_MATCH_DOWN = 3U , /**< Compare match counting down */
 458:C:/Users/Utente/Desktop/Tesi/Firmware_Software/DAVE project/S2GLP_Pulsed_Doppler/Libraries/XMCLib/inc\xmc_ccu4.h ****   XMC_CCU4_SLICE_IRQ_ID_EVENT0             = 8U , /**< Event-0 occurrence */
 459:C:/Users/Utente/Desktop/Tesi/Firmware_Software/DAVE project/S2GLP_Pulsed_Doppler/Libraries/XMCLib/inc\xmc_ccu4.h ****   XMC_CCU4_SLICE_IRQ_ID_EVENT1             = 9U , /**< Event-1 occurrence */
 460:C:/Users/Utente/Desktop/Tesi/Firmware_Software/DAVE project/S2GLP_Pulsed_Doppler/Libraries/XMCLib/inc\xmc_ccu4.h ****   XMC_CCU4_SLICE_IRQ_ID_EVENT2             = 10U, /**< Event-2 occurrence */
 461:C:/Users/Utente/Desktop/Tesi/Firmware_Software/DAVE project/S2GLP_Pulsed_Doppler/Libraries/XMCLib/inc\xmc_ccu4.h ****   XMC_CCU4_SLICE_IRQ_ID_TRAP               = 11U  /**< Trap occurrence */
 462:C:/Users/Utente/Desktop/Tesi/Firmware_Software/DAVE project/S2GLP_Pulsed_Doppler/Libraries/XMCLib/inc\xmc_ccu4.h **** } XMC_CCU4_SLICE_IRQ_ID_t;
 463:C:/Users/Utente/Desktop/Tesi/Firmware_Software/DAVE project/S2GLP_Pulsed_Doppler/Libraries/XMCLib/inc\xmc_ccu4.h **** 
 464:C:/Users/Utente/Desktop/Tesi/Firmware_Software/DAVE project/S2GLP_Pulsed_Doppler/Libraries/XMCLib/inc\xmc_ccu4.h **** /**
 465:C:/Users/Utente/Desktop/Tesi/Firmware_Software/DAVE project/S2GLP_Pulsed_Doppler/Libraries/XMCLib/inc\xmc_ccu4.h ****  * Available Interrupt Event Ids, which is added to support multi event APIs
 466:C:/Users/Utente/Desktop/Tesi/Firmware_Software/DAVE project/S2GLP_Pulsed_Doppler/Libraries/XMCLib/inc\xmc_ccu4.h ****  */
 467:C:/Users/Utente/Desktop/Tesi/Firmware_Software/DAVE project/S2GLP_Pulsed_Doppler/Libraries/XMCLib/inc\xmc_ccu4.h **** typedef enum XMC_CCU4_SLICE_MULTI_IRQ_ID
 468:C:/Users/Utente/Desktop/Tesi/Firmware_Software/DAVE project/S2GLP_Pulsed_Doppler/Libraries/XMCLib/inc\xmc_ccu4.h **** {
 469:C:/Users/Utente/Desktop/Tesi/Firmware_Software/DAVE project/S2GLP_Pulsed_Doppler/Libraries/XMCLib/inc\xmc_ccu4.h ****   XMC_CCU4_SLICE_MULTI_IRQ_ID_PERIOD_MATCH       = 0x1U,   /**< Period match counting up */
 470:C:/Users/Utente/Desktop/Tesi/Firmware_Software/DAVE project/S2GLP_Pulsed_Doppler/Libraries/XMCLib/inc\xmc_ccu4.h ****   XMC_CCU4_SLICE_MULTI_IRQ_ID_ONE_MATCH          = 0x2U,   /**< Period match -> One match counting 
 471:C:/Users/Utente/Desktop/Tesi/Firmware_Software/DAVE project/S2GLP_Pulsed_Doppler/Libraries/XMCLib/inc\xmc_ccu4.h ****   XMC_CCU4_SLICE_MULTI_IRQ_ID_COMPARE_MATCH_UP   = 0x4U,   /**< Compare match counting up */
 472:C:/Users/Utente/Desktop/Tesi/Firmware_Software/DAVE project/S2GLP_Pulsed_Doppler/Libraries/XMCLib/inc\xmc_ccu4.h ****   XMC_CCU4_SLICE_MULTI_IRQ_ID_COMPARE_MATCH_DOWN = 0x8U,   /**< Compare match counting down */
 473:C:/Users/Utente/Desktop/Tesi/Firmware_Software/DAVE project/S2GLP_Pulsed_Doppler/Libraries/XMCLib/inc\xmc_ccu4.h ****   XMC_CCU4_SLICE_MULTI_IRQ_ID_EVENT0             = 0x100U, /**< Event-0 occurrence */
 474:C:/Users/Utente/Desktop/Tesi/Firmware_Software/DAVE project/S2GLP_Pulsed_Doppler/Libraries/XMCLib/inc\xmc_ccu4.h ****   XMC_CCU4_SLICE_MULTI_IRQ_ID_EVENT1             = 0x200U, /**< Event-1 occurrence */
 475:C:/Users/Utente/Desktop/Tesi/Firmware_Software/DAVE project/S2GLP_Pulsed_Doppler/Libraries/XMCLib/inc\xmc_ccu4.h ****   XMC_CCU4_SLICE_MULTI_IRQ_ID_EVENT2             = 0x400U, /**< Event-2 occurrence */
 476:C:/Users/Utente/Desktop/Tesi/Firmware_Software/DAVE project/S2GLP_Pulsed_Doppler/Libraries/XMCLib/inc\xmc_ccu4.h **** } XMC_CCU4_SLICE_MULTI_IRQ_ID_t;
 477:C:/Users/Utente/Desktop/Tesi/Firmware_Software/DAVE project/S2GLP_Pulsed_Doppler/Libraries/XMCLib/inc\xmc_ccu4.h **** 
 478:C:/Users/Utente/Desktop/Tesi/Firmware_Software/DAVE project/S2GLP_Pulsed_Doppler/Libraries/XMCLib/inc\xmc_ccu4.h **** /**
 479:C:/Users/Utente/Desktop/Tesi/Firmware_Software/DAVE project/S2GLP_Pulsed_Doppler/Libraries/XMCLib/inc\xmc_ccu4.h ****  * Service Request Lines for CCU4. Event are mapped to these SR lines and these are used to generat
 480:C:/Users/Utente/Desktop/Tesi/Firmware_Software/DAVE project/S2GLP_Pulsed_Doppler/Libraries/XMCLib/inc\xmc_ccu4.h ****  */ 
 481:C:/Users/Utente/Desktop/Tesi/Firmware_Software/DAVE project/S2GLP_Pulsed_Doppler/Libraries/XMCLib/inc\xmc_ccu4.h **** typedef enum XMC_CCU4_SLICE_SR_ID
 482:C:/Users/Utente/Desktop/Tesi/Firmware_Software/DAVE project/S2GLP_Pulsed_Doppler/Libraries/XMCLib/inc\xmc_ccu4.h **** {
 483:C:/Users/Utente/Desktop/Tesi/Firmware_Software/DAVE project/S2GLP_Pulsed_Doppler/Libraries/XMCLib/inc\xmc_ccu4.h ****   XMC_CCU4_SLICE_SR_ID_0    = 0U, /**< Service Request Line-0 selected  */
 484:C:/Users/Utente/Desktop/Tesi/Firmware_Software/DAVE project/S2GLP_Pulsed_Doppler/Libraries/XMCLib/inc\xmc_ccu4.h ****   XMC_CCU4_SLICE_SR_ID_1        , /**< Service Request Line-1 selected  */
 485:C:/Users/Utente/Desktop/Tesi/Firmware_Software/DAVE project/S2GLP_Pulsed_Doppler/Libraries/XMCLib/inc\xmc_ccu4.h ****   XMC_CCU4_SLICE_SR_ID_2        , /**< Service Request Line-2 selected  */
 486:C:/Users/Utente/Desktop/Tesi/Firmware_Software/DAVE project/S2GLP_Pulsed_Doppler/Libraries/XMCLib/inc\xmc_ccu4.h ****   XMC_CCU4_SLICE_SR_ID_3          /**< Service Request Line-3 selected  */
 487:C:/Users/Utente/Desktop/Tesi/Firmware_Software/DAVE project/S2GLP_Pulsed_Doppler/Libraries/XMCLib/inc\xmc_ccu4.h **** } XMC_CCU4_SLICE_SR_ID_t;
 488:C:/Users/Utente/Desktop/Tesi/Firmware_Software/DAVE project/S2GLP_Pulsed_Doppler/Libraries/XMCLib/inc\xmc_ccu4.h **** 
 489:C:/Users/Utente/Desktop/Tesi/Firmware_Software/DAVE project/S2GLP_Pulsed_Doppler/Libraries/XMCLib/inc\xmc_ccu4.h **** /**
 490:C:/Users/Utente/Desktop/Tesi/Firmware_Software/DAVE project/S2GLP_Pulsed_Doppler/Libraries/XMCLib/inc\xmc_ccu4.h ****  *  Slice shadow transfer options.
 491:C:/Users/Utente/Desktop/Tesi/Firmware_Software/DAVE project/S2GLP_Pulsed_Doppler/Libraries/XMCLib/inc\xmc_ccu4.h ****  */
 492:C:/Users/Utente/Desktop/Tesi/Firmware_Software/DAVE project/S2GLP_Pulsed_Doppler/Libraries/XMCLib/inc\xmc_ccu4.h **** typedef enum XMC_CCU4_SHADOW_TRANSFER
 493:C:/Users/Utente/Desktop/Tesi/Firmware_Software/DAVE project/S2GLP_Pulsed_Doppler/Libraries/XMCLib/inc\xmc_ccu4.h **** {
 494:C:/Users/Utente/Desktop/Tesi/Firmware_Software/DAVE project/S2GLP_Pulsed_Doppler/Libraries/XMCLib/inc\xmc_ccu4.h ****   XMC_CCU4_SHADOW_TRANSFER_SLICE_0            = CCU4_GCSS_S0SE_Msk, /**< Transfer Period, Compare a
 495:C:/Users/Utente/Desktop/Tesi/Firmware_Software/DAVE project/S2GLP_Pulsed_Doppler/Libraries/XMCLib/inc\xmc_ccu4.h ****                                                                           shadow register values to
 496:C:/Users/Utente/Desktop/Tesi/Firmware_Software/DAVE project/S2GLP_Pulsed_Doppler/Libraries/XMCLib/inc\xmc_ccu4.h ****                                                                           SLICE-0 */
 497:C:/Users/Utente/Desktop/Tesi/Firmware_Software/DAVE project/S2GLP_Pulsed_Doppler/Libraries/XMCLib/inc\xmc_ccu4.h ****   XMC_CCU4_SHADOW_TRANSFER_DITHER_SLICE_0     = CCU4_GCSS_S0DSE_Msk, /**< Transfer Dither compare s
 498:C:/Users/Utente/Desktop/Tesi/Firmware_Software/DAVE project/S2GLP_Pulsed_Doppler/Libraries/XMCLib/inc\xmc_ccu4.h ****                                                                           to actual register for SL
 499:C:/Users/Utente/Desktop/Tesi/Firmware_Software/DAVE project/S2GLP_Pulsed_Doppler/Libraries/XMCLib/inc\xmc_ccu4.h ****   XMC_CCU4_SHADOW_TRANSFER_PRESCALER_SLICE_0  = CCU4_GCSS_S0PSE_Msk, /**< Transfer Prescaler shadow
 500:C:/Users/Utente/Desktop/Tesi/Firmware_Software/DAVE project/S2GLP_Pulsed_Doppler/Libraries/XMCLib/inc\xmc_ccu4.h ****                                                                           actual register for SLICE
 501:C:/Users/Utente/Desktop/Tesi/Firmware_Software/DAVE project/S2GLP_Pulsed_Doppler/Libraries/XMCLib/inc\xmc_ccu4.h ****   XMC_CCU4_SHADOW_TRANSFER_SLICE_1            = CCU4_GCSS_S1SE_Msk, /**< Transfer Period, Compare a
 502:C:/Users/Utente/Desktop/Tesi/Firmware_Software/DAVE project/S2GLP_Pulsed_Doppler/Libraries/XMCLib/inc\xmc_ccu4.h ****                                                                           shadow register values to
 503:C:/Users/Utente/Desktop/Tesi/Firmware_Software/DAVE project/S2GLP_Pulsed_Doppler/Libraries/XMCLib/inc\xmc_ccu4.h ****                                                                           SLICE-1 */
 504:C:/Users/Utente/Desktop/Tesi/Firmware_Software/DAVE project/S2GLP_Pulsed_Doppler/Libraries/XMCLib/inc\xmc_ccu4.h ****   XMC_CCU4_SHADOW_TRANSFER_DITHER_SLICE_1     = CCU4_GCSS_S1DSE_Msk, /**< Transfer Dither compare s
 505:C:/Users/Utente/Desktop/Tesi/Firmware_Software/DAVE project/S2GLP_Pulsed_Doppler/Libraries/XMCLib/inc\xmc_ccu4.h ****                                                                           to actual registers for S
 506:C:/Users/Utente/Desktop/Tesi/Firmware_Software/DAVE project/S2GLP_Pulsed_Doppler/Libraries/XMCLib/inc\xmc_ccu4.h ****   XMC_CCU4_SHADOW_TRANSFER_PRESCALER_SLICE_1  = CCU4_GCSS_S1PSE_Msk, /**< Transfer Prescaler shadow
 507:C:/Users/Utente/Desktop/Tesi/Firmware_Software/DAVE project/S2GLP_Pulsed_Doppler/Libraries/XMCLib/inc\xmc_ccu4.h ****                                                                           actual register for SLICE
 508:C:/Users/Utente/Desktop/Tesi/Firmware_Software/DAVE project/S2GLP_Pulsed_Doppler/Libraries/XMCLib/inc\xmc_ccu4.h ****   XMC_CCU4_SHADOW_TRANSFER_SLICE_2            = CCU4_GCSS_S2SE_Msk, /**< Transfer Period, Compare a
 509:C:/Users/Utente/Desktop/Tesi/Firmware_Software/DAVE project/S2GLP_Pulsed_Doppler/Libraries/XMCLib/inc\xmc_ccu4.h ****                                                                           shadow register values to
 510:C:/Users/Utente/Desktop/Tesi/Firmware_Software/DAVE project/S2GLP_Pulsed_Doppler/Libraries/XMCLib/inc\xmc_ccu4.h ****                                                                           SLICE-2 */
 511:C:/Users/Utente/Desktop/Tesi/Firmware_Software/DAVE project/S2GLP_Pulsed_Doppler/Libraries/XMCLib/inc\xmc_ccu4.h ****   XMC_CCU4_SHADOW_TRANSFER_DITHER_SLICE_2     = CCU4_GCSS_S2DSE_Msk, /**< Transfer Dither compare s
 512:C:/Users/Utente/Desktop/Tesi/Firmware_Software/DAVE project/S2GLP_Pulsed_Doppler/Libraries/XMCLib/inc\xmc_ccu4.h ****                                                                           to actual register for SL
 513:C:/Users/Utente/Desktop/Tesi/Firmware_Software/DAVE project/S2GLP_Pulsed_Doppler/Libraries/XMCLib/inc\xmc_ccu4.h ****   XMC_CCU4_SHADOW_TRANSFER_PRESCALER_SLICE_2  = CCU4_GCSS_S2PSE_Msk, /**< Transfer Prescaler shadow
 514:C:/Users/Utente/Desktop/Tesi/Firmware_Software/DAVE project/S2GLP_Pulsed_Doppler/Libraries/XMCLib/inc\xmc_ccu4.h ****                                                                           actual register for SLICE
 515:C:/Users/Utente/Desktop/Tesi/Firmware_Software/DAVE project/S2GLP_Pulsed_Doppler/Libraries/XMCLib/inc\xmc_ccu4.h ****   XMC_CCU4_SHADOW_TRANSFER_SLICE_3            = CCU4_GCSS_S3SE_Msk, /**< Transfer Period, Compare a
 516:C:/Users/Utente/Desktop/Tesi/Firmware_Software/DAVE project/S2GLP_Pulsed_Doppler/Libraries/XMCLib/inc\xmc_ccu4.h ****                                                                           shadow register values to
 517:C:/Users/Utente/Desktop/Tesi/Firmware_Software/DAVE project/S2GLP_Pulsed_Doppler/Libraries/XMCLib/inc\xmc_ccu4.h ****                                                                           SLICE-3 */
 518:C:/Users/Utente/Desktop/Tesi/Firmware_Software/DAVE project/S2GLP_Pulsed_Doppler/Libraries/XMCLib/inc\xmc_ccu4.h ****   XMC_CCU4_SHADOW_TRANSFER_DITHER_SLICE_3     = CCU4_GCSS_S3DSE_Msk, /**< Transfer Dither compare s
 519:C:/Users/Utente/Desktop/Tesi/Firmware_Software/DAVE project/S2GLP_Pulsed_Doppler/Libraries/XMCLib/inc\xmc_ccu4.h ****                                                                           to actual register for SL
 520:C:/Users/Utente/Desktop/Tesi/Firmware_Software/DAVE project/S2GLP_Pulsed_Doppler/Libraries/XMCLib/inc\xmc_ccu4.h ****   XMC_CCU4_SHADOW_TRANSFER_PRESCALER_SLICE_3  = CCU4_GCSS_S3PSE_Msk  /**< Transfer Prescaler shadow
 521:C:/Users/Utente/Desktop/Tesi/Firmware_Software/DAVE project/S2GLP_Pulsed_Doppler/Libraries/XMCLib/inc\xmc_ccu4.h ****                                                                           actual register for SLICE
 522:C:/Users/Utente/Desktop/Tesi/Firmware_Software/DAVE project/S2GLP_Pulsed_Doppler/Libraries/XMCLib/inc\xmc_ccu4.h **** } XMC_CCU4_SHADOW_TRANSFER_t;
 523:C:/Users/Utente/Desktop/Tesi/Firmware_Software/DAVE project/S2GLP_Pulsed_Doppler/Libraries/XMCLib/inc\xmc_ccu4.h **** 
 524:C:/Users/Utente/Desktop/Tesi/Firmware_Software/DAVE project/S2GLP_Pulsed_Doppler/Libraries/XMCLib/inc\xmc_ccu4.h **** #if defined(CCU4V3) || defined(DOXYGEN)/* Defined for XMC1400 devices only */
 525:C:/Users/Utente/Desktop/Tesi/Firmware_Software/DAVE project/S2GLP_Pulsed_Doppler/Libraries/XMCLib/inc\xmc_ccu4.h **** /**
 526:C:/Users/Utente/Desktop/Tesi/Firmware_Software/DAVE project/S2GLP_Pulsed_Doppler/Libraries/XMCLib/inc\xmc_ccu4.h ****  *  Slice shadow transfer mode options.
 527:C:/Users/Utente/Desktop/Tesi/Firmware_Software/DAVE project/S2GLP_Pulsed_Doppler/Libraries/XMCLib/inc\xmc_ccu4.h ****  * @note Only available for XMC1400 series
 528:C:/Users/Utente/Desktop/Tesi/Firmware_Software/DAVE project/S2GLP_Pulsed_Doppler/Libraries/XMCLib/inc\xmc_ccu4.h ****  */
 529:C:/Users/Utente/Desktop/Tesi/Firmware_Software/DAVE project/S2GLP_Pulsed_Doppler/Libraries/XMCLib/inc\xmc_ccu4.h **** typedef enum XMC_CCU4_SLICE_SHADOW_TRANSFER_MODE
 530:C:/Users/Utente/Desktop/Tesi/Firmware_Software/DAVE project/S2GLP_Pulsed_Doppler/Libraries/XMCLib/inc\xmc_ccu4.h **** {
 531:C:/Users/Utente/Desktop/Tesi/Firmware_Software/DAVE project/S2GLP_Pulsed_Doppler/Libraries/XMCLib/inc\xmc_ccu4.h ****   XMC_CCU4_SLICE_SHADOW_TRANSFER_MODE_IN_PERIOD_MATCH_AND_ONE_MATCH = 0U,  /**< Shadow transfer is 
 532:C:/Users/Utente/Desktop/Tesi/Firmware_Software/DAVE project/S2GLP_Pulsed_Doppler/Libraries/XMCLib/inc\xmc_ccu4.h ****                                                                                 One match. */
 533:C:/Users/Utente/Desktop/Tesi/Firmware_Software/DAVE project/S2GLP_Pulsed_Doppler/Libraries/XMCLib/inc\xmc_ccu4.h ****   XMC_CCU4_SLICE_SHADOW_TRANSFER_MODE_ONLY_IN_PERIOD_MATCH = 1U,  /**< Shadow transfer is done only
 534:C:/Users/Utente/Desktop/Tesi/Firmware_Software/DAVE project/S2GLP_Pulsed_Doppler/Libraries/XMCLib/inc\xmc_ccu4.h ****   XMC_CCU4_SLICE_SHADOW_TRANSFER_MODE_ONLY_IN_ONE_MATCH = 2U  /**< Shadow transfer is done only in 
 535:C:/Users/Utente/Desktop/Tesi/Firmware_Software/DAVE project/S2GLP_Pulsed_Doppler/Libraries/XMCLib/inc\xmc_ccu4.h **** } XMC_CCU4_SLICE_SHADOW_TRANSFER_MODE_t; 
 536:C:/Users/Utente/Desktop/Tesi/Firmware_Software/DAVE project/S2GLP_Pulsed_Doppler/Libraries/XMCLib/inc\xmc_ccu4.h ****   
 537:C:/Users/Utente/Desktop/Tesi/Firmware_Software/DAVE project/S2GLP_Pulsed_Doppler/Libraries/XMCLib/inc\xmc_ccu4.h ****   
 538:C:/Users/Utente/Desktop/Tesi/Firmware_Software/DAVE project/S2GLP_Pulsed_Doppler/Libraries/XMCLib/inc\xmc_ccu4.h **** /**
 539:C:/Users/Utente/Desktop/Tesi/Firmware_Software/DAVE project/S2GLP_Pulsed_Doppler/Libraries/XMCLib/inc\xmc_ccu4.h ****  *  Immediate write into configuration register
 540:C:/Users/Utente/Desktop/Tesi/Firmware_Software/DAVE project/S2GLP_Pulsed_Doppler/Libraries/XMCLib/inc\xmc_ccu4.h ****  *  @note Only available for XMC1400 series
 541:C:/Users/Utente/Desktop/Tesi/Firmware_Software/DAVE project/S2GLP_Pulsed_Doppler/Libraries/XMCLib/inc\xmc_ccu4.h ****  */
 542:C:/Users/Utente/Desktop/Tesi/Firmware_Software/DAVE project/S2GLP_Pulsed_Doppler/Libraries/XMCLib/inc\xmc_ccu4.h **** typedef enum XMC_CCU4_SLICE_WRITE_INTO
 543:C:/Users/Utente/Desktop/Tesi/Firmware_Software/DAVE project/S2GLP_Pulsed_Doppler/Libraries/XMCLib/inc\xmc_ccu4.h **** {
 544:C:/Users/Utente/Desktop/Tesi/Firmware_Software/DAVE project/S2GLP_Pulsed_Doppler/Libraries/XMCLib/inc\xmc_ccu4.h ****   XMC_CCU4_SLICE_WRITE_INTO_PERIOD_CONFIGURATION = CCU4_CC4_STC_IRPC_Msk,                  /**< Imm
 545:C:/Users/Utente/Desktop/Tesi/Firmware_Software/DAVE project/S2GLP_Pulsed_Doppler/Libraries/XMCLib/inc\xmc_ccu4.h ****                                                                                                 Wri
 546:C:/Users/Utente/Desktop/Tesi/Firmware_Software/DAVE project/S2GLP_Pulsed_Doppler/Libraries/XMCLib/inc\xmc_ccu4.h ****                                                                                                 Con
 547:C:/Users/Utente/Desktop/Tesi/Firmware_Software/DAVE project/S2GLP_Pulsed_Doppler/Libraries/XMCLib/inc\xmc_ccu4.h ****   XMC_CCU4_SLICE_WRITE_INTO_COMPARE_CONFIGURATION = CCU4_CC4_STC_IRCC_Msk,                 /**< Imm
 548:C:/Users/Utente/Desktop/Tesi/Firmware_Software/DAVE project/S2GLP_Pulsed_Doppler/Libraries/XMCLib/inc\xmc_ccu4.h ****                                                                                                 Wri
 549:C:/Users/Utente/Desktop/Tesi/Firmware_Software/DAVE project/S2GLP_Pulsed_Doppler/Libraries/XMCLib/inc\xmc_ccu4.h ****                                                                                                 Con
 550:C:/Users/Utente/Desktop/Tesi/Firmware_Software/DAVE project/S2GLP_Pulsed_Doppler/Libraries/XMCLib/inc\xmc_ccu4.h ****   XMC_CCU4_SLICE_WRITE_INTO_PASSIVE_LEVEL_CONFIGURATION = CCU4_CC4_STC_IRLC_Msk,           /**< Imm
 551:C:/Users/Utente/Desktop/Tesi/Firmware_Software/DAVE project/S2GLP_Pulsed_Doppler/Libraries/XMCLib/inc\xmc_ccu4.h ****                                                                                                 Wri
 552:C:/Users/Utente/Desktop/Tesi/Firmware_Software/DAVE project/S2GLP_Pulsed_Doppler/Libraries/XMCLib/inc\xmc_ccu4.h **** 	                                                                                            Config
 553:C:/Users/Utente/Desktop/Tesi/Firmware_Software/DAVE project/S2GLP_Pulsed_Doppler/Libraries/XMCLib/inc\xmc_ccu4.h ****   XMC_CCU4_SLICE_WRITE_INTO_DITHER_VALUE_CONFIGURATION = CCU4_CC4_STC_IRDC_Msk,            /**< Imm
 554:C:/Users/Utente/Desktop/Tesi/Firmware_Software/DAVE project/S2GLP_Pulsed_Doppler/Libraries/XMCLib/inc\xmc_ccu4.h ****                                                                                                 Wri
 555:C:/Users/Utente/Desktop/Tesi/Firmware_Software/DAVE project/S2GLP_Pulsed_Doppler/Libraries/XMCLib/inc\xmc_ccu4.h **** 	                                                                                            Config
 556:C:/Users/Utente/Desktop/Tesi/Firmware_Software/DAVE project/S2GLP_Pulsed_Doppler/Libraries/XMCLib/inc\xmc_ccu4.h ****   XMC_CCU4_SLICE_WRITE_INTO_FLOATING_PRESCALER_VALUE_CONFIGURATION = CCU4_CC4_STC_IRFC_Msk /**< Imm
 557:C:/Users/Utente/Desktop/Tesi/Firmware_Software/DAVE project/S2GLP_Pulsed_Doppler/Libraries/XMCLib/inc\xmc_ccu4.h ****                                                                                                 Wri
 558:C:/Users/Utente/Desktop/Tesi/Firmware_Software/DAVE project/S2GLP_Pulsed_Doppler/Libraries/XMCLib/inc\xmc_ccu4.h ****                                                                                                 Val
 559:C:/Users/Utente/Desktop/Tesi/Firmware_Software/DAVE project/S2GLP_Pulsed_Doppler/Libraries/XMCLib/inc\xmc_ccu4.h **** } XMC_CCU4_SLICE_WRITE_INTO_t;
 560:C:/Users/Utente/Desktop/Tesi/Firmware_Software/DAVE project/S2GLP_Pulsed_Doppler/Libraries/XMCLib/inc\xmc_ccu4.h **** 
 561:C:/Users/Utente/Desktop/Tesi/Firmware_Software/DAVE project/S2GLP_Pulsed_Doppler/Libraries/XMCLib/inc\xmc_ccu4.h **** 
 562:C:/Users/Utente/Desktop/Tesi/Firmware_Software/DAVE project/S2GLP_Pulsed_Doppler/Libraries/XMCLib/inc\xmc_ccu4.h **** /**
 563:C:/Users/Utente/Desktop/Tesi/Firmware_Software/DAVE project/S2GLP_Pulsed_Doppler/Libraries/XMCLib/inc\xmc_ccu4.h ****  *  Automatic Shadow Transfer request when writing into shadow register
 564:C:/Users/Utente/Desktop/Tesi/Firmware_Software/DAVE project/S2GLP_Pulsed_Doppler/Libraries/XMCLib/inc\xmc_ccu4.h ****  *  @note Only available for XMC1400 series
 565:C:/Users/Utente/Desktop/Tesi/Firmware_Software/DAVE project/S2GLP_Pulsed_Doppler/Libraries/XMCLib/inc\xmc_ccu4.h ****  */
 566:C:/Users/Utente/Desktop/Tesi/Firmware_Software/DAVE project/S2GLP_Pulsed_Doppler/Libraries/XMCLib/inc\xmc_ccu4.h **** typedef enum XMC_CCU4_SLICE_AUTOMAIC_SHADOW_TRANSFER_WRITE_INTO
 567:C:/Users/Utente/Desktop/Tesi/Firmware_Software/DAVE project/S2GLP_Pulsed_Doppler/Libraries/XMCLib/inc\xmc_ccu4.h **** {
 568:C:/Users/Utente/Desktop/Tesi/Firmware_Software/DAVE project/S2GLP_Pulsed_Doppler/Libraries/XMCLib/inc\xmc_ccu4.h ****   XMC_CCU4_SLICE_AUTOMAIC_SHADOW_TRANSFER_WRITE_INTO_PERIOD_SHADOW = CCU4_CC4_STC_ASPC_Msk,        
 569:C:/Users/Utente/Desktop/Tesi/Firmware_Software/DAVE project/S2GLP_Pulsed_Doppler/Libraries/XMCLib/inc\xmc_ccu4.h **** 	                                                                                                  
 570:C:/Users/Utente/Desktop/Tesi/Firmware_Software/DAVE project/S2GLP_Pulsed_Doppler/Libraries/XMCLib/inc\xmc_ccu4.h ****                                                                                                    
 571:C:/Users/Utente/Desktop/Tesi/Firmware_Software/DAVE project/S2GLP_Pulsed_Doppler/Libraries/XMCLib/inc\xmc_ccu4.h ****                                                                                                    
 572:C:/Users/Utente/Desktop/Tesi/Firmware_Software/DAVE project/S2GLP_Pulsed_Doppler/Libraries/XMCLib/inc\xmc_ccu4.h ****   XMC_CCU4_SLICE_AUTOMAIC_SHADOW_TRANSFER_WRITE_INTO_COMPARE_SHADOW = CCU4_CC4_STC_ASCC_Msk,       
 573:C:/Users/Utente/Desktop/Tesi/Firmware_Software/DAVE project/S2GLP_Pulsed_Doppler/Libraries/XMCLib/inc\xmc_ccu4.h **** 	                                                                                                  
 574:C:/Users/Utente/Desktop/Tesi/Firmware_Software/DAVE project/S2GLP_Pulsed_Doppler/Libraries/XMCLib/inc\xmc_ccu4.h **** 	                                                                                                  
 575:C:/Users/Utente/Desktop/Tesi/Firmware_Software/DAVE project/S2GLP_Pulsed_Doppler/Libraries/XMCLib/inc\xmc_ccu4.h **** 	                                                                                                  
 576:C:/Users/Utente/Desktop/Tesi/Firmware_Software/DAVE project/S2GLP_Pulsed_Doppler/Libraries/XMCLib/inc\xmc_ccu4.h ****   XMC_CCU4_SLICE_AUTOMAIC_SHADOW_TRANSFER_WRITE_INTO_PASSIVE_LEVEL = CCU4_CC4_STC_ASLC_Msk,        
 577:C:/Users/Utente/Desktop/Tesi/Firmware_Software/DAVE project/S2GLP_Pulsed_Doppler/Libraries/XMCLib/inc\xmc_ccu4.h **** 	                                                                                                  
 578:C:/Users/Utente/Desktop/Tesi/Firmware_Software/DAVE project/S2GLP_Pulsed_Doppler/Libraries/XMCLib/inc\xmc_ccu4.h ****                                                                                                    
 579:C:/Users/Utente/Desktop/Tesi/Firmware_Software/DAVE project/S2GLP_Pulsed_Doppler/Libraries/XMCLib/inc\xmc_ccu4.h ****   XMC_CCU4_SLICE_AUTOMAIC_SHADOW_TRANSFER_WRITE_INTO_DITHER_SHADOW = CCU4_CC4_STC_ASDC_Msk,        
 580:C:/Users/Utente/Desktop/Tesi/Firmware_Software/DAVE project/S2GLP_Pulsed_Doppler/Libraries/XMCLib/inc\xmc_ccu4.h ****                                                                                                    
 581:C:/Users/Utente/Desktop/Tesi/Firmware_Software/DAVE project/S2GLP_Pulsed_Doppler/Libraries/XMCLib/inc\xmc_ccu4.h ****                                                                                                    
 582:C:/Users/Utente/Desktop/Tesi/Firmware_Software/DAVE project/S2GLP_Pulsed_Doppler/Libraries/XMCLib/inc\xmc_ccu4.h ****   XMC_CCU4_SLICE_AUTOMAIC_SHADOW_TRANSFER_WRITE_INTO_FLOATING_PRESCALER_SHADOW = CCU4_CC4_STC_ASFC_
 583:C:/Users/Utente/Desktop/Tesi/Firmware_Software/DAVE project/S2GLP_Pulsed_Doppler/Libraries/XMCLib/inc\xmc_ccu4.h **** 	                                                                                                  
 584:C:/Users/Utente/Desktop/Tesi/Firmware_Software/DAVE project/S2GLP_Pulsed_Doppler/Libraries/XMCLib/inc\xmc_ccu4.h ****                                                                                                    
 585:C:/Users/Utente/Desktop/Tesi/Firmware_Software/DAVE project/S2GLP_Pulsed_Doppler/Libraries/XMCLib/inc\xmc_ccu4.h ****                                                                                                    
 586:C:/Users/Utente/Desktop/Tesi/Firmware_Software/DAVE project/S2GLP_Pulsed_Doppler/Libraries/XMCLib/inc\xmc_ccu4.h **** 
 587:C:/Users/Utente/Desktop/Tesi/Firmware_Software/DAVE project/S2GLP_Pulsed_Doppler/Libraries/XMCLib/inc\xmc_ccu4.h **** } XMC_CCU4_SLICE_AUTOMAIC_SHADOW_TRANSFER_WRITE_INTO_t;
 588:C:/Users/Utente/Desktop/Tesi/Firmware_Software/DAVE project/S2GLP_Pulsed_Doppler/Libraries/XMCLib/inc\xmc_ccu4.h **** #endif
 589:C:/Users/Utente/Desktop/Tesi/Firmware_Software/DAVE project/S2GLP_Pulsed_Doppler/Libraries/XMCLib/inc\xmc_ccu4.h **** /**
 590:C:/Users/Utente/Desktop/Tesi/Firmware_Software/DAVE project/S2GLP_Pulsed_Doppler/Libraries/XMCLib/inc\xmc_ccu4.h ****  *  Used to create Mask needed for Multi-channel Shadow transfer enable/disable
 591:C:/Users/Utente/Desktop/Tesi/Firmware_Software/DAVE project/S2GLP_Pulsed_Doppler/Libraries/XMCLib/inc\xmc_ccu4.h ****  */
 592:C:/Users/Utente/Desktop/Tesi/Firmware_Software/DAVE project/S2GLP_Pulsed_Doppler/Libraries/XMCLib/inc\xmc_ccu4.h **** typedef enum XMC_CCU4_SLICE_MASK
 593:C:/Users/Utente/Desktop/Tesi/Firmware_Software/DAVE project/S2GLP_Pulsed_Doppler/Libraries/XMCLib/inc\xmc_ccu4.h **** {
 594:C:/Users/Utente/Desktop/Tesi/Firmware_Software/DAVE project/S2GLP_Pulsed_Doppler/Libraries/XMCLib/inc\xmc_ccu4.h ****   XMC_CCU4_SLICE_MASK_SLICE_0  = 1U , /**< SLICE-0 */
 595:C:/Users/Utente/Desktop/Tesi/Firmware_Software/DAVE project/S2GLP_Pulsed_Doppler/Libraries/XMCLib/inc\xmc_ccu4.h ****   XMC_CCU4_SLICE_MASK_SLICE_1  = 2U , /**< SLICE-1 */
 596:C:/Users/Utente/Desktop/Tesi/Firmware_Software/DAVE project/S2GLP_Pulsed_Doppler/Libraries/XMCLib/inc\xmc_ccu4.h ****   XMC_CCU4_SLICE_MASK_SLICE_2  = 4U , /**< SLICE-2 */
 597:C:/Users/Utente/Desktop/Tesi/Firmware_Software/DAVE project/S2GLP_Pulsed_Doppler/Libraries/XMCLib/inc\xmc_ccu4.h ****   XMC_CCU4_SLICE_MASK_SLICE_3  = 8U   /**< SLICE-3 */
 598:C:/Users/Utente/Desktop/Tesi/Firmware_Software/DAVE project/S2GLP_Pulsed_Doppler/Libraries/XMCLib/inc\xmc_ccu4.h **** } XMC_CCU4_SLICE_MASK_t;
 599:C:/Users/Utente/Desktop/Tesi/Firmware_Software/DAVE project/S2GLP_Pulsed_Doppler/Libraries/XMCLib/inc\xmc_ccu4.h **** 
 600:C:/Users/Utente/Desktop/Tesi/Firmware_Software/DAVE project/S2GLP_Pulsed_Doppler/Libraries/XMCLib/inc\xmc_ccu4.h **** 
 601:C:/Users/Utente/Desktop/Tesi/Firmware_Software/DAVE project/S2GLP_Pulsed_Doppler/Libraries/XMCLib/inc\xmc_ccu4.h **** /**************************************************************************************************
 602:C:/Users/Utente/Desktop/Tesi/Firmware_Software/DAVE project/S2GLP_Pulsed_Doppler/Libraries/XMCLib/inc\xmc_ccu4.h ****  * DATA STRUCTURES
 603:C:/Users/Utente/Desktop/Tesi/Firmware_Software/DAVE project/S2GLP_Pulsed_Doppler/Libraries/XMCLib/inc\xmc_ccu4.h ****  **************************************************************************************************
 604:C:/Users/Utente/Desktop/Tesi/Firmware_Software/DAVE project/S2GLP_Pulsed_Doppler/Libraries/XMCLib/inc\xmc_ccu4.h **** 
 605:C:/Users/Utente/Desktop/Tesi/Firmware_Software/DAVE project/S2GLP_Pulsed_Doppler/Libraries/XMCLib/inc\xmc_ccu4.h **** /**
 606:C:/Users/Utente/Desktop/Tesi/Firmware_Software/DAVE project/S2GLP_Pulsed_Doppler/Libraries/XMCLib/inc\xmc_ccu4.h ****  *  Configuration data structure of an External Event(Event-0/1/2).
 607:C:/Users/Utente/Desktop/Tesi/Firmware_Software/DAVE project/S2GLP_Pulsed_Doppler/Libraries/XMCLib/inc\xmc_ccu4.h ****  *  Needed to configure the various aspects of an External Event.
 608:C:/Users/Utente/Desktop/Tesi/Firmware_Software/DAVE project/S2GLP_Pulsed_Doppler/Libraries/XMCLib/inc\xmc_ccu4.h ****  *  This structure will not connect the external event with an external function.
 609:C:/Users/Utente/Desktop/Tesi/Firmware_Software/DAVE project/S2GLP_Pulsed_Doppler/Libraries/XMCLib/inc\xmc_ccu4.h ****  */ 
 610:C:/Users/Utente/Desktop/Tesi/Firmware_Software/DAVE project/S2GLP_Pulsed_Doppler/Libraries/XMCLib/inc\xmc_ccu4.h **** typedef struct XMC_CCU4_SLICE_EVENT_CONFIG
 611:C:/Users/Utente/Desktop/Tesi/Firmware_Software/DAVE project/S2GLP_Pulsed_Doppler/Libraries/XMCLib/inc\xmc_ccu4.h **** {
 612:C:/Users/Utente/Desktop/Tesi/Firmware_Software/DAVE project/S2GLP_Pulsed_Doppler/Libraries/XMCLib/inc\xmc_ccu4.h ****   XMC_CCU4_SLICE_INPUT_t                   mapped_input; /**< Required input signal for the Event *
 613:C:/Users/Utente/Desktop/Tesi/Firmware_Software/DAVE project/S2GLP_Pulsed_Doppler/Libraries/XMCLib/inc\xmc_ccu4.h ****   XMC_CCU4_SLICE_EVENT_EDGE_SENSITIVITY_t  edge;         /**< Select the event edge of the input si
 614:C:/Users/Utente/Desktop/Tesi/Firmware_Software/DAVE project/S2GLP_Pulsed_Doppler/Libraries/XMCLib/inc\xmc_ccu4.h ****                                                               This is needed for an edge sensitive 
 615:C:/Users/Utente/Desktop/Tesi/Firmware_Software/DAVE project/S2GLP_Pulsed_Doppler/Libraries/XMCLib/inc\xmc_ccu4.h ****   XMC_CCU4_SLICE_EVENT_LEVEL_SENSITIVITY_t level;        /**< Select the event level of the input s
 616:C:/Users/Utente/Desktop/Tesi/Firmware_Software/DAVE project/S2GLP_Pulsed_Doppler/Libraries/XMCLib/inc\xmc_ccu4.h ****                                                               This is needed for an level sensitive
 617:C:/Users/Utente/Desktop/Tesi/Firmware_Software/DAVE project/S2GLP_Pulsed_Doppler/Libraries/XMCLib/inc\xmc_ccu4.h ****   XMC_CCU4_SLICE_EVENT_FILTER_t            duration;     /**< Low Pass filter duration in terms of 
 618:C:/Users/Utente/Desktop/Tesi/Firmware_Software/DAVE project/S2GLP_Pulsed_Doppler/Libraries/XMCLib/inc\xmc_ccu4.h **** } XMC_CCU4_SLICE_EVENT_CONFIG_t;
 619:C:/Users/Utente/Desktop/Tesi/Firmware_Software/DAVE project/S2GLP_Pulsed_Doppler/Libraries/XMCLib/inc\xmc_ccu4.h **** 
 620:C:/Users/Utente/Desktop/Tesi/Firmware_Software/DAVE project/S2GLP_Pulsed_Doppler/Libraries/XMCLib/inc\xmc_ccu4.h **** /*Anonymous structure/union guard start*/
 621:C:/Users/Utente/Desktop/Tesi/Firmware_Software/DAVE project/S2GLP_Pulsed_Doppler/Libraries/XMCLib/inc\xmc_ccu4.h **** #if defined(__CC_ARM)
 622:C:/Users/Utente/Desktop/Tesi/Firmware_Software/DAVE project/S2GLP_Pulsed_Doppler/Libraries/XMCLib/inc\xmc_ccu4.h ****   #pragma push
 623:C:/Users/Utente/Desktop/Tesi/Firmware_Software/DAVE project/S2GLP_Pulsed_Doppler/Libraries/XMCLib/inc\xmc_ccu4.h ****   #pragma anon_unions
 624:C:/Users/Utente/Desktop/Tesi/Firmware_Software/DAVE project/S2GLP_Pulsed_Doppler/Libraries/XMCLib/inc\xmc_ccu4.h **** #elif defined(__TASKING__)
 625:C:/Users/Utente/Desktop/Tesi/Firmware_Software/DAVE project/S2GLP_Pulsed_Doppler/Libraries/XMCLib/inc\xmc_ccu4.h ****   #pragma warning 586
 626:C:/Users/Utente/Desktop/Tesi/Firmware_Software/DAVE project/S2GLP_Pulsed_Doppler/Libraries/XMCLib/inc\xmc_ccu4.h **** #endif
 627:C:/Users/Utente/Desktop/Tesi/Firmware_Software/DAVE project/S2GLP_Pulsed_Doppler/Libraries/XMCLib/inc\xmc_ccu4.h **** 
 628:C:/Users/Utente/Desktop/Tesi/Firmware_Software/DAVE project/S2GLP_Pulsed_Doppler/Libraries/XMCLib/inc\xmc_ccu4.h **** /**
 629:C:/Users/Utente/Desktop/Tesi/Firmware_Software/DAVE project/S2GLP_Pulsed_Doppler/Libraries/XMCLib/inc\xmc_ccu4.h ****  *  Configuration data structure for CCU4 slice. Specifically configures the CCU4 slice to compare 
 630:C:/Users/Utente/Desktop/Tesi/Firmware_Software/DAVE project/S2GLP_Pulsed_Doppler/Libraries/XMCLib/inc\xmc_ccu4.h ****  *  This excludes event and function configuration.
 631:C:/Users/Utente/Desktop/Tesi/Firmware_Software/DAVE project/S2GLP_Pulsed_Doppler/Libraries/XMCLib/inc\xmc_ccu4.h ****  */ 
 632:C:/Users/Utente/Desktop/Tesi/Firmware_Software/DAVE project/S2GLP_Pulsed_Doppler/Libraries/XMCLib/inc\xmc_ccu4.h **** typedef struct XMC_CCU4_SLICE_COMPARE_CONFIG
 633:C:/Users/Utente/Desktop/Tesi/Firmware_Software/DAVE project/S2GLP_Pulsed_Doppler/Libraries/XMCLib/inc\xmc_ccu4.h **** {
 634:C:/Users/Utente/Desktop/Tesi/Firmware_Software/DAVE project/S2GLP_Pulsed_Doppler/Libraries/XMCLib/inc\xmc_ccu4.h ****   union
 635:C:/Users/Utente/Desktop/Tesi/Firmware_Software/DAVE project/S2GLP_Pulsed_Doppler/Libraries/XMCLib/inc\xmc_ccu4.h ****   {
 636:C:/Users/Utente/Desktop/Tesi/Firmware_Software/DAVE project/S2GLP_Pulsed_Doppler/Libraries/XMCLib/inc\xmc_ccu4.h ****     struct
 637:C:/Users/Utente/Desktop/Tesi/Firmware_Software/DAVE project/S2GLP_Pulsed_Doppler/Libraries/XMCLib/inc\xmc_ccu4.h ****     {
 638:C:/Users/Utente/Desktop/Tesi/Firmware_Software/DAVE project/S2GLP_Pulsed_Doppler/Libraries/XMCLib/inc\xmc_ccu4.h ****       uint32_t timer_mode : 1;         /**< Edge aligned or Centre Aligned.
 639:C:/Users/Utente/Desktop/Tesi/Firmware_Software/DAVE project/S2GLP_Pulsed_Doppler/Libraries/XMCLib/inc\xmc_ccu4.h ****                                              Accepts enum ::XMC_CCU4_SLICE_TIMER_COUNT_MODE_t */
 640:C:/Users/Utente/Desktop/Tesi/Firmware_Software/DAVE project/S2GLP_Pulsed_Doppler/Libraries/XMCLib/inc\xmc_ccu4.h ****       uint32_t monoshot : 1;           /**< Single shot or Continuous mode .
 641:C:/Users/Utente/Desktop/Tesi/Firmware_Software/DAVE project/S2GLP_Pulsed_Doppler/Libraries/XMCLib/inc\xmc_ccu4.h ****                                              Accepts enum :: XMC_CCU4_SLICE_TIMER_REPEAT_MODE_t*/
 642:C:/Users/Utente/Desktop/Tesi/Firmware_Software/DAVE project/S2GLP_Pulsed_Doppler/Libraries/XMCLib/inc\xmc_ccu4.h ****       uint32_t shadow_xfer_clear : 1;  /**< Should PR and CR shadow xfer happen when timer is clear
 643:C:/Users/Utente/Desktop/Tesi/Firmware_Software/DAVE project/S2GLP_Pulsed_Doppler/Libraries/XMCLib/inc\xmc_ccu4.h ****       uint32_t : 10;
 644:C:/Users/Utente/Desktop/Tesi/Firmware_Software/DAVE project/S2GLP_Pulsed_Doppler/Libraries/XMCLib/inc\xmc_ccu4.h ****       uint32_t dither_timer_period: 1; /**< Can the period of the timer dither? */
 645:C:/Users/Utente/Desktop/Tesi/Firmware_Software/DAVE project/S2GLP_Pulsed_Doppler/Libraries/XMCLib/inc\xmc_ccu4.h ****       uint32_t dither_duty_cycle : 1;  /**< Can the compare match of the timer dither? */
 646:C:/Users/Utente/Desktop/Tesi/Firmware_Software/DAVE project/S2GLP_Pulsed_Doppler/Libraries/XMCLib/inc\xmc_ccu4.h ****       uint32_t : 1;
 647:C:/Users/Utente/Desktop/Tesi/Firmware_Software/DAVE project/S2GLP_Pulsed_Doppler/Libraries/XMCLib/inc\xmc_ccu4.h ****       uint32_t prescaler_mode: 1;      /**< Normal or floating prescaler mode.
 648:C:/Users/Utente/Desktop/Tesi/Firmware_Software/DAVE project/S2GLP_Pulsed_Doppler/Libraries/XMCLib/inc\xmc_ccu4.h ****                                              Accepts enum :: XMC_CCU4_SLICE_PRESCALER_MODE_t*/
 649:C:/Users/Utente/Desktop/Tesi/Firmware_Software/DAVE project/S2GLP_Pulsed_Doppler/Libraries/XMCLib/inc\xmc_ccu4.h ****       uint32_t : 8;
 650:C:/Users/Utente/Desktop/Tesi/Firmware_Software/DAVE project/S2GLP_Pulsed_Doppler/Libraries/XMCLib/inc\xmc_ccu4.h ****       uint32_t mcm_enable : 1;         /**< Multi-Channel mode enable? */
 651:C:/Users/Utente/Desktop/Tesi/Firmware_Software/DAVE project/S2GLP_Pulsed_Doppler/Libraries/XMCLib/inc\xmc_ccu4.h ****       uint32_t : 6;
 652:C:/Users/Utente/Desktop/Tesi/Firmware_Software/DAVE project/S2GLP_Pulsed_Doppler/Libraries/XMCLib/inc\xmc_ccu4.h ****     };
 653:C:/Users/Utente/Desktop/Tesi/Firmware_Software/DAVE project/S2GLP_Pulsed_Doppler/Libraries/XMCLib/inc\xmc_ccu4.h ****     uint32_t tc;
 654:C:/Users/Utente/Desktop/Tesi/Firmware_Software/DAVE project/S2GLP_Pulsed_Doppler/Libraries/XMCLib/inc\xmc_ccu4.h ****   };
 655:C:/Users/Utente/Desktop/Tesi/Firmware_Software/DAVE project/S2GLP_Pulsed_Doppler/Libraries/XMCLib/inc\xmc_ccu4.h ****   uint32_t prescaler_initval : 4;      /**< Initial prescaler divider value 
 656:C:/Users/Utente/Desktop/Tesi/Firmware_Software/DAVE project/S2GLP_Pulsed_Doppler/Libraries/XMCLib/inc\xmc_ccu4.h ****                                             Accepts enum :: XMC_CCU4_SLICE_PRESCALER_t */
 657:C:/Users/Utente/Desktop/Tesi/Firmware_Software/DAVE project/S2GLP_Pulsed_Doppler/Libraries/XMCLib/inc\xmc_ccu4.h ****   uint32_t float_limit : 4;            /**< The max value which the prescaler divider can increment
 658:C:/Users/Utente/Desktop/Tesi/Firmware_Software/DAVE project/S2GLP_Pulsed_Doppler/Libraries/XMCLib/inc\xmc_ccu4.h ****   uint32_t dither_limit : 4;           /**< The value that determines the spreading of dithering */
 659:C:/Users/Utente/Desktop/Tesi/Firmware_Software/DAVE project/S2GLP_Pulsed_Doppler/Libraries/XMCLib/inc\xmc_ccu4.h ****   uint32_t passive_level : 1;          /**< Configuration of ST and OUT passive levels.
 660:C:/Users/Utente/Desktop/Tesi/Firmware_Software/DAVE project/S2GLP_Pulsed_Doppler/Libraries/XMCLib/inc\xmc_ccu4.h ****                                              Accepts enum :: XMC_CCU4_SLICE_OUTPUT_PASSIVE_LEVEL_t*
 661:C:/Users/Utente/Desktop/Tesi/Firmware_Software/DAVE project/S2GLP_Pulsed_Doppler/Libraries/XMCLib/inc\xmc_ccu4.h ****   uint32_t timer_concatenation : 1;    /**< Enables the concatenation of the timer if true.*/
 662:C:/Users/Utente/Desktop/Tesi/Firmware_Software/DAVE project/S2GLP_Pulsed_Doppler/Libraries/XMCLib/inc\xmc_ccu4.h **** } XMC_CCU4_SLICE_COMPARE_CONFIG_t;
 663:C:/Users/Utente/Desktop/Tesi/Firmware_Software/DAVE project/S2GLP_Pulsed_Doppler/Libraries/XMCLib/inc\xmc_ccu4.h **** 
 664:C:/Users/Utente/Desktop/Tesi/Firmware_Software/DAVE project/S2GLP_Pulsed_Doppler/Libraries/XMCLib/inc\xmc_ccu4.h **** /**
 665:C:/Users/Utente/Desktop/Tesi/Firmware_Software/DAVE project/S2GLP_Pulsed_Doppler/Libraries/XMCLib/inc\xmc_ccu4.h ****  *  Configuration data structure for CCU4 slice. Specifically configures the CCU4 slice to capture 
 666:C:/Users/Utente/Desktop/Tesi/Firmware_Software/DAVE project/S2GLP_Pulsed_Doppler/Libraries/XMCLib/inc\xmc_ccu4.h ****  *  This excludes event and function configuration.
 667:C:/Users/Utente/Desktop/Tesi/Firmware_Software/DAVE project/S2GLP_Pulsed_Doppler/Libraries/XMCLib/inc\xmc_ccu4.h ****  */ 
 668:C:/Users/Utente/Desktop/Tesi/Firmware_Software/DAVE project/S2GLP_Pulsed_Doppler/Libraries/XMCLib/inc\xmc_ccu4.h **** typedef struct XMC_CCU4_SLICE_CAPTURE_CONFIG
 669:C:/Users/Utente/Desktop/Tesi/Firmware_Software/DAVE project/S2GLP_Pulsed_Doppler/Libraries/XMCLib/inc\xmc_ccu4.h **** {
 670:C:/Users/Utente/Desktop/Tesi/Firmware_Software/DAVE project/S2GLP_Pulsed_Doppler/Libraries/XMCLib/inc\xmc_ccu4.h ****   union
 671:C:/Users/Utente/Desktop/Tesi/Firmware_Software/DAVE project/S2GLP_Pulsed_Doppler/Libraries/XMCLib/inc\xmc_ccu4.h ****   {
 672:C:/Users/Utente/Desktop/Tesi/Firmware_Software/DAVE project/S2GLP_Pulsed_Doppler/Libraries/XMCLib/inc\xmc_ccu4.h ****     struct
 673:C:/Users/Utente/Desktop/Tesi/Firmware_Software/DAVE project/S2GLP_Pulsed_Doppler/Libraries/XMCLib/inc\xmc_ccu4.h ****     {
 674:C:/Users/Utente/Desktop/Tesi/Firmware_Software/DAVE project/S2GLP_Pulsed_Doppler/Libraries/XMCLib/inc\xmc_ccu4.h ****       uint32_t : 4;
 675:C:/Users/Utente/Desktop/Tesi/Firmware_Software/DAVE project/S2GLP_Pulsed_Doppler/Libraries/XMCLib/inc\xmc_ccu4.h ****       uint32_t fifo_enable : 1;      /**< Should the capture registers be setup as a FIFO?(Extended
 676:C:/Users/Utente/Desktop/Tesi/Firmware_Software/DAVE project/S2GLP_Pulsed_Doppler/Libraries/XMCLib/inc\xmc_ccu4.h ****       uint32_t timer_clear_mode : 2; /**< How should the timer register be cleared upon detection o
 677:C:/Users/Utente/Desktop/Tesi/Firmware_Software/DAVE project/S2GLP_Pulsed_Doppler/Libraries/XMCLib/inc\xmc_ccu4.h ****                                           Accepts enum ::XMC_CCU4_SLICE_TIMER_CLEAR_MODE_t*/
 678:C:/Users/Utente/Desktop/Tesi/Firmware_Software/DAVE project/S2GLP_Pulsed_Doppler/Libraries/XMCLib/inc\xmc_ccu4.h ****       uint32_t : 4;
 679:C:/Users/Utente/Desktop/Tesi/Firmware_Software/DAVE project/S2GLP_Pulsed_Doppler/Libraries/XMCLib/inc\xmc_ccu4.h ****       uint32_t same_event : 1;       /**< Should the capture event for C1V/C0V and C3V/C2V be same 
 680:C:/Users/Utente/Desktop/Tesi/Firmware_Software/DAVE project/S2GLP_Pulsed_Doppler/Libraries/XMCLib/inc\xmc_ccu4.h ****       uint32_t ignore_full_flag : 1; /**< Should updates to capture registers follow full flag rule
 681:C:/Users/Utente/Desktop/Tesi/Firmware_Software/DAVE project/S2GLP_Pulsed_Doppler/Libraries/XMCLib/inc\xmc_ccu4.h ****       uint32_t : 3;
 682:C:/Users/Utente/Desktop/Tesi/Firmware_Software/DAVE project/S2GLP_Pulsed_Doppler/Libraries/XMCLib/inc\xmc_ccu4.h ****       uint32_t prescaler_mode: 1;    /**< Normal or floating prescaler Accepts enum :: XMC_CCU4_SLI
 683:C:/Users/Utente/Desktop/Tesi/Firmware_Software/DAVE project/S2GLP_Pulsed_Doppler/Libraries/XMCLib/inc\xmc_ccu4.h ****       uint32_t : 15;
 684:C:/Users/Utente/Desktop/Tesi/Firmware_Software/DAVE project/S2GLP_Pulsed_Doppler/Libraries/XMCLib/inc\xmc_ccu4.h ****     };
 685:C:/Users/Utente/Desktop/Tesi/Firmware_Software/DAVE project/S2GLP_Pulsed_Doppler/Libraries/XMCLib/inc\xmc_ccu4.h ****     uint32_t tc;
 686:C:/Users/Utente/Desktop/Tesi/Firmware_Software/DAVE project/S2GLP_Pulsed_Doppler/Libraries/XMCLib/inc\xmc_ccu4.h ****   };
 687:C:/Users/Utente/Desktop/Tesi/Firmware_Software/DAVE project/S2GLP_Pulsed_Doppler/Libraries/XMCLib/inc\xmc_ccu4.h ****   uint32_t prescaler_initval : 4;    /**< Prescaler divider value */
 688:C:/Users/Utente/Desktop/Tesi/Firmware_Software/DAVE project/S2GLP_Pulsed_Doppler/Libraries/XMCLib/inc\xmc_ccu4.h ****   uint32_t float_limit : 4;          /**< The max value which the prescaler divider can increment t
 689:C:/Users/Utente/Desktop/Tesi/Firmware_Software/DAVE project/S2GLP_Pulsed_Doppler/Libraries/XMCLib/inc\xmc_ccu4.h ****   uint32_t timer_concatenation : 1;  /**< Enables the concatenation of the timer */
 690:C:/Users/Utente/Desktop/Tesi/Firmware_Software/DAVE project/S2GLP_Pulsed_Doppler/Libraries/XMCLib/inc\xmc_ccu4.h **** } XMC_CCU4_SLICE_CAPTURE_CONFIG_t;
 691:C:/Users/Utente/Desktop/Tesi/Firmware_Software/DAVE project/S2GLP_Pulsed_Doppler/Libraries/XMCLib/inc\xmc_ccu4.h **** /*Anonymous structure/union guard end*/
 692:C:/Users/Utente/Desktop/Tesi/Firmware_Software/DAVE project/S2GLP_Pulsed_Doppler/Libraries/XMCLib/inc\xmc_ccu4.h **** #if defined(__CC_ARM)
 693:C:/Users/Utente/Desktop/Tesi/Firmware_Software/DAVE project/S2GLP_Pulsed_Doppler/Libraries/XMCLib/inc\xmc_ccu4.h ****   #pragma pop
 694:C:/Users/Utente/Desktop/Tesi/Firmware_Software/DAVE project/S2GLP_Pulsed_Doppler/Libraries/XMCLib/inc\xmc_ccu4.h **** #elif defined(__TASKING__)
 695:C:/Users/Utente/Desktop/Tesi/Firmware_Software/DAVE project/S2GLP_Pulsed_Doppler/Libraries/XMCLib/inc\xmc_ccu4.h ****   #pragma warning restore
 696:C:/Users/Utente/Desktop/Tesi/Firmware_Software/DAVE project/S2GLP_Pulsed_Doppler/Libraries/XMCLib/inc\xmc_ccu4.h **** #endif
 697:C:/Users/Utente/Desktop/Tesi/Firmware_Software/DAVE project/S2GLP_Pulsed_Doppler/Libraries/XMCLib/inc\xmc_ccu4.h **** /**************************************************************************************************
 698:C:/Users/Utente/Desktop/Tesi/Firmware_Software/DAVE project/S2GLP_Pulsed_Doppler/Libraries/XMCLib/inc\xmc_ccu4.h ****  * API Prototypes
 699:C:/Users/Utente/Desktop/Tesi/Firmware_Software/DAVE project/S2GLP_Pulsed_Doppler/Libraries/XMCLib/inc\xmc_ccu4.h ****  **************************************************************************************************
 700:C:/Users/Utente/Desktop/Tesi/Firmware_Software/DAVE project/S2GLP_Pulsed_Doppler/Libraries/XMCLib/inc\xmc_ccu4.h **** 
 701:C:/Users/Utente/Desktop/Tesi/Firmware_Software/DAVE project/S2GLP_Pulsed_Doppler/Libraries/XMCLib/inc\xmc_ccu4.h **** #ifdef __cplusplus
 702:C:/Users/Utente/Desktop/Tesi/Firmware_Software/DAVE project/S2GLP_Pulsed_Doppler/Libraries/XMCLib/inc\xmc_ccu4.h **** extern "C" {
 703:C:/Users/Utente/Desktop/Tesi/Firmware_Software/DAVE project/S2GLP_Pulsed_Doppler/Libraries/XMCLib/inc\xmc_ccu4.h **** #endif
 704:C:/Users/Utente/Desktop/Tesi/Firmware_Software/DAVE project/S2GLP_Pulsed_Doppler/Libraries/XMCLib/inc\xmc_ccu4.h **** 
 705:C:/Users/Utente/Desktop/Tesi/Firmware_Software/DAVE project/S2GLP_Pulsed_Doppler/Libraries/XMCLib/inc\xmc_ccu4.h **** __STATIC_INLINE bool XMC_CCU4_IsValidModule(const XMC_CCU4_MODULE_t *const module)
 706:C:/Users/Utente/Desktop/Tesi/Firmware_Software/DAVE project/S2GLP_Pulsed_Doppler/Libraries/XMCLib/inc\xmc_ccu4.h **** {
 707:C:/Users/Utente/Desktop/Tesi/Firmware_Software/DAVE project/S2GLP_Pulsed_Doppler/Libraries/XMCLib/inc\xmc_ccu4.h ****   bool tmp = false;
 708:C:/Users/Utente/Desktop/Tesi/Firmware_Software/DAVE project/S2GLP_Pulsed_Doppler/Libraries/XMCLib/inc\xmc_ccu4.h ****   
 709:C:/Users/Utente/Desktop/Tesi/Firmware_Software/DAVE project/S2GLP_Pulsed_Doppler/Libraries/XMCLib/inc\xmc_ccu4.h ****   tmp = (module == CCU40);
 710:C:/Users/Utente/Desktop/Tesi/Firmware_Software/DAVE project/S2GLP_Pulsed_Doppler/Libraries/XMCLib/inc\xmc_ccu4.h ****   
 711:C:/Users/Utente/Desktop/Tesi/Firmware_Software/DAVE project/S2GLP_Pulsed_Doppler/Libraries/XMCLib/inc\xmc_ccu4.h **** #if defined(CCU41) 
 712:C:/Users/Utente/Desktop/Tesi/Firmware_Software/DAVE project/S2GLP_Pulsed_Doppler/Libraries/XMCLib/inc\xmc_ccu4.h ****   tmp = tmp || (module == CCU41);
 713:C:/Users/Utente/Desktop/Tesi/Firmware_Software/DAVE project/S2GLP_Pulsed_Doppler/Libraries/XMCLib/inc\xmc_ccu4.h **** #endif
 714:C:/Users/Utente/Desktop/Tesi/Firmware_Software/DAVE project/S2GLP_Pulsed_Doppler/Libraries/XMCLib/inc\xmc_ccu4.h **** 
 715:C:/Users/Utente/Desktop/Tesi/Firmware_Software/DAVE project/S2GLP_Pulsed_Doppler/Libraries/XMCLib/inc\xmc_ccu4.h **** #if defined(CCU42)
 716:C:/Users/Utente/Desktop/Tesi/Firmware_Software/DAVE project/S2GLP_Pulsed_Doppler/Libraries/XMCLib/inc\xmc_ccu4.h ****   tmp = tmp || (module == CCU42);
 717:C:/Users/Utente/Desktop/Tesi/Firmware_Software/DAVE project/S2GLP_Pulsed_Doppler/Libraries/XMCLib/inc\xmc_ccu4.h **** #endif
 718:C:/Users/Utente/Desktop/Tesi/Firmware_Software/DAVE project/S2GLP_Pulsed_Doppler/Libraries/XMCLib/inc\xmc_ccu4.h **** 
 719:C:/Users/Utente/Desktop/Tesi/Firmware_Software/DAVE project/S2GLP_Pulsed_Doppler/Libraries/XMCLib/inc\xmc_ccu4.h **** #if defined(CCU43)
 720:C:/Users/Utente/Desktop/Tesi/Firmware_Software/DAVE project/S2GLP_Pulsed_Doppler/Libraries/XMCLib/inc\xmc_ccu4.h ****   tmp = tmp || (module == CCU43);
 721:C:/Users/Utente/Desktop/Tesi/Firmware_Software/DAVE project/S2GLP_Pulsed_Doppler/Libraries/XMCLib/inc\xmc_ccu4.h **** #endif
 722:C:/Users/Utente/Desktop/Tesi/Firmware_Software/DAVE project/S2GLP_Pulsed_Doppler/Libraries/XMCLib/inc\xmc_ccu4.h ****   
 723:C:/Users/Utente/Desktop/Tesi/Firmware_Software/DAVE project/S2GLP_Pulsed_Doppler/Libraries/XMCLib/inc\xmc_ccu4.h ****   return tmp;  
 724:C:/Users/Utente/Desktop/Tesi/Firmware_Software/DAVE project/S2GLP_Pulsed_Doppler/Libraries/XMCLib/inc\xmc_ccu4.h **** } 
 725:C:/Users/Utente/Desktop/Tesi/Firmware_Software/DAVE project/S2GLP_Pulsed_Doppler/Libraries/XMCLib/inc\xmc_ccu4.h **** 
 726:C:/Users/Utente/Desktop/Tesi/Firmware_Software/DAVE project/S2GLP_Pulsed_Doppler/Libraries/XMCLib/inc\xmc_ccu4.h **** __STATIC_INLINE bool XMC_CCU4_IsValidSlice(const XMC_CCU4_SLICE_t *const slice)
 727:C:/Users/Utente/Desktop/Tesi/Firmware_Software/DAVE project/S2GLP_Pulsed_Doppler/Libraries/XMCLib/inc\xmc_ccu4.h **** {
 728:C:/Users/Utente/Desktop/Tesi/Firmware_Software/DAVE project/S2GLP_Pulsed_Doppler/Libraries/XMCLib/inc\xmc_ccu4.h ****   bool tmp = false;
 729:C:/Users/Utente/Desktop/Tesi/Firmware_Software/DAVE project/S2GLP_Pulsed_Doppler/Libraries/XMCLib/inc\xmc_ccu4.h ****   
 730:C:/Users/Utente/Desktop/Tesi/Firmware_Software/DAVE project/S2GLP_Pulsed_Doppler/Libraries/XMCLib/inc\xmc_ccu4.h ****   tmp = (slice == CCU40_CC40);
 731:C:/Users/Utente/Desktop/Tesi/Firmware_Software/DAVE project/S2GLP_Pulsed_Doppler/Libraries/XMCLib/inc\xmc_ccu4.h **** #if defined(CCU40_CC41)  
 732:C:/Users/Utente/Desktop/Tesi/Firmware_Software/DAVE project/S2GLP_Pulsed_Doppler/Libraries/XMCLib/inc\xmc_ccu4.h ****   tmp = tmp || (slice == CCU40_CC41);
 733:C:/Users/Utente/Desktop/Tesi/Firmware_Software/DAVE project/S2GLP_Pulsed_Doppler/Libraries/XMCLib/inc\xmc_ccu4.h **** #endif
 734:C:/Users/Utente/Desktop/Tesi/Firmware_Software/DAVE project/S2GLP_Pulsed_Doppler/Libraries/XMCLib/inc\xmc_ccu4.h **** #if defined(CCU40_CC42)  
 735:C:/Users/Utente/Desktop/Tesi/Firmware_Software/DAVE project/S2GLP_Pulsed_Doppler/Libraries/XMCLib/inc\xmc_ccu4.h ****   tmp = tmp || (slice == CCU40_CC42);
 736:C:/Users/Utente/Desktop/Tesi/Firmware_Software/DAVE project/S2GLP_Pulsed_Doppler/Libraries/XMCLib/inc\xmc_ccu4.h **** #endif
 737:C:/Users/Utente/Desktop/Tesi/Firmware_Software/DAVE project/S2GLP_Pulsed_Doppler/Libraries/XMCLib/inc\xmc_ccu4.h **** #if defined(CCU40_CC43)  
 738:C:/Users/Utente/Desktop/Tesi/Firmware_Software/DAVE project/S2GLP_Pulsed_Doppler/Libraries/XMCLib/inc\xmc_ccu4.h ****   tmp = tmp || (slice == CCU40_CC43);
 739:C:/Users/Utente/Desktop/Tesi/Firmware_Software/DAVE project/S2GLP_Pulsed_Doppler/Libraries/XMCLib/inc\xmc_ccu4.h **** #endif
 740:C:/Users/Utente/Desktop/Tesi/Firmware_Software/DAVE project/S2GLP_Pulsed_Doppler/Libraries/XMCLib/inc\xmc_ccu4.h **** #if defined(CCU41)  
 741:C:/Users/Utente/Desktop/Tesi/Firmware_Software/DAVE project/S2GLP_Pulsed_Doppler/Libraries/XMCLib/inc\xmc_ccu4.h ****   tmp = tmp || (slice == CCU41_CC40);
 742:C:/Users/Utente/Desktop/Tesi/Firmware_Software/DAVE project/S2GLP_Pulsed_Doppler/Libraries/XMCLib/inc\xmc_ccu4.h **** #if defined(CCU41_CC41)  
 743:C:/Users/Utente/Desktop/Tesi/Firmware_Software/DAVE project/S2GLP_Pulsed_Doppler/Libraries/XMCLib/inc\xmc_ccu4.h ****   tmp = tmp || (slice == CCU41_CC41);
 744:C:/Users/Utente/Desktop/Tesi/Firmware_Software/DAVE project/S2GLP_Pulsed_Doppler/Libraries/XMCLib/inc\xmc_ccu4.h **** #endif
 745:C:/Users/Utente/Desktop/Tesi/Firmware_Software/DAVE project/S2GLP_Pulsed_Doppler/Libraries/XMCLib/inc\xmc_ccu4.h **** #if defined(CCU41_CC42)  
 746:C:/Users/Utente/Desktop/Tesi/Firmware_Software/DAVE project/S2GLP_Pulsed_Doppler/Libraries/XMCLib/inc\xmc_ccu4.h ****   tmp = tmp || (slice == CCU41_CC42);
 747:C:/Users/Utente/Desktop/Tesi/Firmware_Software/DAVE project/S2GLP_Pulsed_Doppler/Libraries/XMCLib/inc\xmc_ccu4.h **** #endif
 748:C:/Users/Utente/Desktop/Tesi/Firmware_Software/DAVE project/S2GLP_Pulsed_Doppler/Libraries/XMCLib/inc\xmc_ccu4.h **** #if defined(CCU41_CC43)  
 749:C:/Users/Utente/Desktop/Tesi/Firmware_Software/DAVE project/S2GLP_Pulsed_Doppler/Libraries/XMCLib/inc\xmc_ccu4.h ****   tmp = tmp || (slice == CCU41_CC43);
 750:C:/Users/Utente/Desktop/Tesi/Firmware_Software/DAVE project/S2GLP_Pulsed_Doppler/Libraries/XMCLib/inc\xmc_ccu4.h **** #endif
 751:C:/Users/Utente/Desktop/Tesi/Firmware_Software/DAVE project/S2GLP_Pulsed_Doppler/Libraries/XMCLib/inc\xmc_ccu4.h **** #endif 
 752:C:/Users/Utente/Desktop/Tesi/Firmware_Software/DAVE project/S2GLP_Pulsed_Doppler/Libraries/XMCLib/inc\xmc_ccu4.h **** #if defined(CCU42)  
 753:C:/Users/Utente/Desktop/Tesi/Firmware_Software/DAVE project/S2GLP_Pulsed_Doppler/Libraries/XMCLib/inc\xmc_ccu4.h ****   tmp = tmp || (slice == CCU42_CC40);
 754:C:/Users/Utente/Desktop/Tesi/Firmware_Software/DAVE project/S2GLP_Pulsed_Doppler/Libraries/XMCLib/inc\xmc_ccu4.h **** #if defined(CCU42_CC41)  
 755:C:/Users/Utente/Desktop/Tesi/Firmware_Software/DAVE project/S2GLP_Pulsed_Doppler/Libraries/XMCLib/inc\xmc_ccu4.h ****   tmp = tmp || (slice == CCU42_CC41);
 756:C:/Users/Utente/Desktop/Tesi/Firmware_Software/DAVE project/S2GLP_Pulsed_Doppler/Libraries/XMCLib/inc\xmc_ccu4.h **** #endif
 757:C:/Users/Utente/Desktop/Tesi/Firmware_Software/DAVE project/S2GLP_Pulsed_Doppler/Libraries/XMCLib/inc\xmc_ccu4.h **** #if defined(CCU42_CC42)  
 758:C:/Users/Utente/Desktop/Tesi/Firmware_Software/DAVE project/S2GLP_Pulsed_Doppler/Libraries/XMCLib/inc\xmc_ccu4.h ****   tmp = tmp || (slice == CCU42_CC42);
 759:C:/Users/Utente/Desktop/Tesi/Firmware_Software/DAVE project/S2GLP_Pulsed_Doppler/Libraries/XMCLib/inc\xmc_ccu4.h **** #endif
 760:C:/Users/Utente/Desktop/Tesi/Firmware_Software/DAVE project/S2GLP_Pulsed_Doppler/Libraries/XMCLib/inc\xmc_ccu4.h **** #if defined(CCU42_CC43)  
 761:C:/Users/Utente/Desktop/Tesi/Firmware_Software/DAVE project/S2GLP_Pulsed_Doppler/Libraries/XMCLib/inc\xmc_ccu4.h ****   tmp = tmp || (slice == CCU42_CC43);
 762:C:/Users/Utente/Desktop/Tesi/Firmware_Software/DAVE project/S2GLP_Pulsed_Doppler/Libraries/XMCLib/inc\xmc_ccu4.h **** #endif
 763:C:/Users/Utente/Desktop/Tesi/Firmware_Software/DAVE project/S2GLP_Pulsed_Doppler/Libraries/XMCLib/inc\xmc_ccu4.h **** #endif
 764:C:/Users/Utente/Desktop/Tesi/Firmware_Software/DAVE project/S2GLP_Pulsed_Doppler/Libraries/XMCLib/inc\xmc_ccu4.h **** #if defined(CCU43)  
 765:C:/Users/Utente/Desktop/Tesi/Firmware_Software/DAVE project/S2GLP_Pulsed_Doppler/Libraries/XMCLib/inc\xmc_ccu4.h ****   tmp = tmp || (slice == CCU43_CC40);
 766:C:/Users/Utente/Desktop/Tesi/Firmware_Software/DAVE project/S2GLP_Pulsed_Doppler/Libraries/XMCLib/inc\xmc_ccu4.h **** #if defined(CCU43_CC41)  
 767:C:/Users/Utente/Desktop/Tesi/Firmware_Software/DAVE project/S2GLP_Pulsed_Doppler/Libraries/XMCLib/inc\xmc_ccu4.h ****   tmp = tmp || (slice == CCU43_CC41);
 768:C:/Users/Utente/Desktop/Tesi/Firmware_Software/DAVE project/S2GLP_Pulsed_Doppler/Libraries/XMCLib/inc\xmc_ccu4.h **** #endif
 769:C:/Users/Utente/Desktop/Tesi/Firmware_Software/DAVE project/S2GLP_Pulsed_Doppler/Libraries/XMCLib/inc\xmc_ccu4.h **** #if defined(CCU43_CC42)  
 770:C:/Users/Utente/Desktop/Tesi/Firmware_Software/DAVE project/S2GLP_Pulsed_Doppler/Libraries/XMCLib/inc\xmc_ccu4.h ****   tmp = tmp || (slice == CCU43_CC42);
 771:C:/Users/Utente/Desktop/Tesi/Firmware_Software/DAVE project/S2GLP_Pulsed_Doppler/Libraries/XMCLib/inc\xmc_ccu4.h **** #endif
 772:C:/Users/Utente/Desktop/Tesi/Firmware_Software/DAVE project/S2GLP_Pulsed_Doppler/Libraries/XMCLib/inc\xmc_ccu4.h **** #if defined(CCU43_CC43)  
 773:C:/Users/Utente/Desktop/Tesi/Firmware_Software/DAVE project/S2GLP_Pulsed_Doppler/Libraries/XMCLib/inc\xmc_ccu4.h ****   tmp = tmp || (slice == CCU43_CC43);
 774:C:/Users/Utente/Desktop/Tesi/Firmware_Software/DAVE project/S2GLP_Pulsed_Doppler/Libraries/XMCLib/inc\xmc_ccu4.h **** #endif
 775:C:/Users/Utente/Desktop/Tesi/Firmware_Software/DAVE project/S2GLP_Pulsed_Doppler/Libraries/XMCLib/inc\xmc_ccu4.h **** #endif 
 776:C:/Users/Utente/Desktop/Tesi/Firmware_Software/DAVE project/S2GLP_Pulsed_Doppler/Libraries/XMCLib/inc\xmc_ccu4.h ****   
 777:C:/Users/Utente/Desktop/Tesi/Firmware_Software/DAVE project/S2GLP_Pulsed_Doppler/Libraries/XMCLib/inc\xmc_ccu4.h ****   return tmp;  
 778:C:/Users/Utente/Desktop/Tesi/Firmware_Software/DAVE project/S2GLP_Pulsed_Doppler/Libraries/XMCLib/inc\xmc_ccu4.h **** } 
 779:C:/Users/Utente/Desktop/Tesi/Firmware_Software/DAVE project/S2GLP_Pulsed_Doppler/Libraries/XMCLib/inc\xmc_ccu4.h **** 
 780:C:/Users/Utente/Desktop/Tesi/Firmware_Software/DAVE project/S2GLP_Pulsed_Doppler/Libraries/XMCLib/inc\xmc_ccu4.h **** /**
 781:C:/Users/Utente/Desktop/Tesi/Firmware_Software/DAVE project/S2GLP_Pulsed_Doppler/Libraries/XMCLib/inc\xmc_ccu4.h ****  * @param module Constant pointer to CCU4 module
 782:C:/Users/Utente/Desktop/Tesi/Firmware_Software/DAVE project/S2GLP_Pulsed_Doppler/Libraries/XMCLib/inc\xmc_ccu4.h ****  * @param mcs_action multi-channel shadow transfer request configuration
 783:C:/Users/Utente/Desktop/Tesi/Firmware_Software/DAVE project/S2GLP_Pulsed_Doppler/Libraries/XMCLib/inc\xmc_ccu4.h ****  * @return <BR>
 784:C:/Users/Utente/Desktop/Tesi/Firmware_Software/DAVE project/S2GLP_Pulsed_Doppler/Libraries/XMCLib/inc\xmc_ccu4.h ****  *    None<BR>
 785:C:/Users/Utente/Desktop/Tesi/Firmware_Software/DAVE project/S2GLP_Pulsed_Doppler/Libraries/XMCLib/inc\xmc_ccu4.h ****  *
 786:C:/Users/Utente/Desktop/Tesi/Firmware_Software/DAVE project/S2GLP_Pulsed_Doppler/Libraries/XMCLib/inc\xmc_ccu4.h ****  * \par<b>Description:</b><br>
 787:C:/Users/Utente/Desktop/Tesi/Firmware_Software/DAVE project/S2GLP_Pulsed_Doppler/Libraries/XMCLib/inc\xmc_ccu4.h ****  *  Initialization of global register GCTRL.<br>\n
 788:C:/Users/Utente/Desktop/Tesi/Firmware_Software/DAVE project/S2GLP_Pulsed_Doppler/Libraries/XMCLib/inc\xmc_ccu4.h ****  *  As part of module initialization, behaviour of the module upon detection
 789:C:/Users/Utente/Desktop/Tesi/Firmware_Software/DAVE project/S2GLP_Pulsed_Doppler/Libraries/XMCLib/inc\xmc_ccu4.h ****  *  Multi-Channel Mode trigger is configured. Will also invoke the XMC_CCU4_EnableModule().
 790:C:/Users/Utente/Desktop/Tesi/Firmware_Software/DAVE project/S2GLP_Pulsed_Doppler/Libraries/XMCLib/inc\xmc_ccu4.h ****  *  The API call would bring up the required CCU4 module and also initialize the module for
 791:C:/Users/Utente/Desktop/Tesi/Firmware_Software/DAVE project/S2GLP_Pulsed_Doppler/Libraries/XMCLib/inc\xmc_ccu4.h ****  *  the required multi-channel shadow transfer.
 792:C:/Users/Utente/Desktop/Tesi/Firmware_Software/DAVE project/S2GLP_Pulsed_Doppler/Libraries/XMCLib/inc\xmc_ccu4.h ****  *
 793:C:/Users/Utente/Desktop/Tesi/Firmware_Software/DAVE project/S2GLP_Pulsed_Doppler/Libraries/XMCLib/inc\xmc_ccu4.h ****  * \par<b>Related APIs:</b><br>
 794:C:/Users/Utente/Desktop/Tesi/Firmware_Software/DAVE project/S2GLP_Pulsed_Doppler/Libraries/XMCLib/inc\xmc_ccu4.h ****  * XMC_CCU4_SLICE_CompareInit()<BR> XMC_CCU4_SLICE_CaptureInit().
 795:C:/Users/Utente/Desktop/Tesi/Firmware_Software/DAVE project/S2GLP_Pulsed_Doppler/Libraries/XMCLib/inc\xmc_ccu4.h ****  */
 796:C:/Users/Utente/Desktop/Tesi/Firmware_Software/DAVE project/S2GLP_Pulsed_Doppler/Libraries/XMCLib/inc\xmc_ccu4.h **** void XMC_CCU4_Init(XMC_CCU4_MODULE_t *const module, const XMC_CCU4_SLICE_MCMS_ACTION_t mcs_action);
 797:C:/Users/Utente/Desktop/Tesi/Firmware_Software/DAVE project/S2GLP_Pulsed_Doppler/Libraries/XMCLib/inc\xmc_ccu4.h **** 
 798:C:/Users/Utente/Desktop/Tesi/Firmware_Software/DAVE project/S2GLP_Pulsed_Doppler/Libraries/XMCLib/inc\xmc_ccu4.h **** /**
 799:C:/Users/Utente/Desktop/Tesi/Firmware_Software/DAVE project/S2GLP_Pulsed_Doppler/Libraries/XMCLib/inc\xmc_ccu4.h ****  * @param module Constant pointer to CCU4 module
 800:C:/Users/Utente/Desktop/Tesi/Firmware_Software/DAVE project/S2GLP_Pulsed_Doppler/Libraries/XMCLib/inc\xmc_ccu4.h ****  * @param clock Choice of input clock to the module
 801:C:/Users/Utente/Desktop/Tesi/Firmware_Software/DAVE project/S2GLP_Pulsed_Doppler/Libraries/XMCLib/inc\xmc_ccu4.h ****  * @return <BR>
 802:C:/Users/Utente/Desktop/Tesi/Firmware_Software/DAVE project/S2GLP_Pulsed_Doppler/Libraries/XMCLib/inc\xmc_ccu4.h ****  *    None<BR>
 803:C:/Users/Utente/Desktop/Tesi/Firmware_Software/DAVE project/S2GLP_Pulsed_Doppler/Libraries/XMCLib/inc\xmc_ccu4.h ****  *
 804:C:/Users/Utente/Desktop/Tesi/Firmware_Software/DAVE project/S2GLP_Pulsed_Doppler/Libraries/XMCLib/inc\xmc_ccu4.h ****  * \par<b>Description:</b><br>
 805:C:/Users/Utente/Desktop/Tesi/Firmware_Software/DAVE project/S2GLP_Pulsed_Doppler/Libraries/XMCLib/inc\xmc_ccu4.h ****  *  Selects the Module Clock by configuring GCTRL.PCIS bits.<BR>\n
 806:C:/Users/Utente/Desktop/Tesi/Firmware_Software/DAVE project/S2GLP_Pulsed_Doppler/Libraries/XMCLib/inc\xmc_ccu4.h ****  *  There are 3 potential clock sources. This API helps to select the required clock source.
 807:C:/Users/Utente/Desktop/Tesi/Firmware_Software/DAVE project/S2GLP_Pulsed_Doppler/Libraries/XMCLib/inc\xmc_ccu4.h ****  *  Call to this API is valid after the XMC_CCU4_Init().
 808:C:/Users/Utente/Desktop/Tesi/Firmware_Software/DAVE project/S2GLP_Pulsed_Doppler/Libraries/XMCLib/inc\xmc_ccu4.h ****  *
 809:C:/Users/Utente/Desktop/Tesi/Firmware_Software/DAVE project/S2GLP_Pulsed_Doppler/Libraries/XMCLib/inc\xmc_ccu4.h ****  * \par<b>Related APIs:</b><br>
 810:C:/Users/Utente/Desktop/Tesi/Firmware_Software/DAVE project/S2GLP_Pulsed_Doppler/Libraries/XMCLib/inc\xmc_ccu4.h ****  * None.<BR>
 811:C:/Users/Utente/Desktop/Tesi/Firmware_Software/DAVE project/S2GLP_Pulsed_Doppler/Libraries/XMCLib/inc\xmc_ccu4.h ****  */
 812:C:/Users/Utente/Desktop/Tesi/Firmware_Software/DAVE project/S2GLP_Pulsed_Doppler/Libraries/XMCLib/inc\xmc_ccu4.h **** void XMC_CCU4_SetModuleClock(XMC_CCU4_MODULE_t *const module, const XMC_CCU4_CLOCK_t clock);
 813:C:/Users/Utente/Desktop/Tesi/Firmware_Software/DAVE project/S2GLP_Pulsed_Doppler/Libraries/XMCLib/inc\xmc_ccu4.h **** 
 814:C:/Users/Utente/Desktop/Tesi/Firmware_Software/DAVE project/S2GLP_Pulsed_Doppler/Libraries/XMCLib/inc\xmc_ccu4.h **** /**
 815:C:/Users/Utente/Desktop/Tesi/Firmware_Software/DAVE project/S2GLP_Pulsed_Doppler/Libraries/XMCLib/inc\xmc_ccu4.h ****  * @param module Constant pointer to CCU4 module
 816:C:/Users/Utente/Desktop/Tesi/Firmware_Software/DAVE project/S2GLP_Pulsed_Doppler/Libraries/XMCLib/inc\xmc_ccu4.h ****  * @return <BR>
 817:C:/Users/Utente/Desktop/Tesi/Firmware_Software/DAVE project/S2GLP_Pulsed_Doppler/Libraries/XMCLib/inc\xmc_ccu4.h ****  *    None<BR>
 818:C:/Users/Utente/Desktop/Tesi/Firmware_Software/DAVE project/S2GLP_Pulsed_Doppler/Libraries/XMCLib/inc\xmc_ccu4.h ****  *
 819:C:/Users/Utente/Desktop/Tesi/Firmware_Software/DAVE project/S2GLP_Pulsed_Doppler/Libraries/XMCLib/inc\xmc_ccu4.h ****  * \par<b>Description:</b><br>
 820:C:/Users/Utente/Desktop/Tesi/Firmware_Software/DAVE project/S2GLP_Pulsed_Doppler/Libraries/XMCLib/inc\xmc_ccu4.h ****  * Enables the CCU4 module and brings it to active state.<BR>\n
 821:C:/Users/Utente/Desktop/Tesi/Firmware_Software/DAVE project/S2GLP_Pulsed_Doppler/Libraries/XMCLib/inc\xmc_ccu4.h ****  * Also disables the gating of the clock signal (if applicable depending on the device being select
 822:C:/Users/Utente/Desktop/Tesi/Firmware_Software/DAVE project/S2GLP_Pulsed_Doppler/Libraries/XMCLib/inc\xmc_ccu4.h ****  * Invoke this API before any operations are done on the CCU4 module. Invoked from  XMC_CCU4_Init()
 823:C:/Users/Utente/Desktop/Tesi/Firmware_Software/DAVE project/S2GLP_Pulsed_Doppler/Libraries/XMCLib/inc\xmc_ccu4.h ****  *
 824:C:/Users/Utente/Desktop/Tesi/Firmware_Software/DAVE project/S2GLP_Pulsed_Doppler/Libraries/XMCLib/inc\xmc_ccu4.h ****  * \par<b>Related APIs:</b><br>
 825:C:/Users/Utente/Desktop/Tesi/Firmware_Software/DAVE project/S2GLP_Pulsed_Doppler/Libraries/XMCLib/inc\xmc_ccu4.h ****  * XMC_CCU4_SetModuleClock()<BR> XMC_CCU4_DisableModule()<BR> XMC_CCU4_StartPrescaler().
 826:C:/Users/Utente/Desktop/Tesi/Firmware_Software/DAVE project/S2GLP_Pulsed_Doppler/Libraries/XMCLib/inc\xmc_ccu4.h ****  */
 827:C:/Users/Utente/Desktop/Tesi/Firmware_Software/DAVE project/S2GLP_Pulsed_Doppler/Libraries/XMCLib/inc\xmc_ccu4.h **** void XMC_CCU4_EnableModule(XMC_CCU4_MODULE_t *const module);
 828:C:/Users/Utente/Desktop/Tesi/Firmware_Software/DAVE project/S2GLP_Pulsed_Doppler/Libraries/XMCLib/inc\xmc_ccu4.h **** 
 829:C:/Users/Utente/Desktop/Tesi/Firmware_Software/DAVE project/S2GLP_Pulsed_Doppler/Libraries/XMCLib/inc\xmc_ccu4.h **** /**
 830:C:/Users/Utente/Desktop/Tesi/Firmware_Software/DAVE project/S2GLP_Pulsed_Doppler/Libraries/XMCLib/inc\xmc_ccu4.h ****  * @param module Constant pointer to CCU4 module
 831:C:/Users/Utente/Desktop/Tesi/Firmware_Software/DAVE project/S2GLP_Pulsed_Doppler/Libraries/XMCLib/inc\xmc_ccu4.h ****  * @return <BR>
 832:C:/Users/Utente/Desktop/Tesi/Firmware_Software/DAVE project/S2GLP_Pulsed_Doppler/Libraries/XMCLib/inc\xmc_ccu4.h ****  *    None<BR>
 833:C:/Users/Utente/Desktop/Tesi/Firmware_Software/DAVE project/S2GLP_Pulsed_Doppler/Libraries/XMCLib/inc\xmc_ccu4.h ****  *
 834:C:/Users/Utente/Desktop/Tesi/Firmware_Software/DAVE project/S2GLP_Pulsed_Doppler/Libraries/XMCLib/inc\xmc_ccu4.h ****  * \par<b>Description:</b><br>
 835:C:/Users/Utente/Desktop/Tesi/Firmware_Software/DAVE project/S2GLP_Pulsed_Doppler/Libraries/XMCLib/inc\xmc_ccu4.h ****  * Brings the CCU4 module to reset state and enables gating of the clock signal(if applicable depen
 836:C:/Users/Utente/Desktop/Tesi/Firmware_Software/DAVE project/S2GLP_Pulsed_Doppler/Libraries/XMCLib/inc\xmc_ccu4.h ****  * on the device being selected).<BR>\n
 837:C:/Users/Utente/Desktop/Tesi/Firmware_Software/DAVE project/S2GLP_Pulsed_Doppler/Libraries/XMCLib/inc\xmc_ccu4.h ****  * Invoke this API when a CCU4 module needs to be disabled completely.
 838:C:/Users/Utente/Desktop/Tesi/Firmware_Software/DAVE project/S2GLP_Pulsed_Doppler/Libraries/XMCLib/inc\xmc_ccu4.h ****  * Any operation on the CCU4 module will have no effect after this API is called.
 839:C:/Users/Utente/Desktop/Tesi/Firmware_Software/DAVE project/S2GLP_Pulsed_Doppler/Libraries/XMCLib/inc\xmc_ccu4.h ****  *
 840:C:/Users/Utente/Desktop/Tesi/Firmware_Software/DAVE project/S2GLP_Pulsed_Doppler/Libraries/XMCLib/inc\xmc_ccu4.h ****  * \par<b>Related APIs:</b><br>
 841:C:/Users/Utente/Desktop/Tesi/Firmware_Software/DAVE project/S2GLP_Pulsed_Doppler/Libraries/XMCLib/inc\xmc_ccu4.h ****  * XMC_CCU4_EnableModule()<BR> XMC_CCU4_DisableModule().
 842:C:/Users/Utente/Desktop/Tesi/Firmware_Software/DAVE project/S2GLP_Pulsed_Doppler/Libraries/XMCLib/inc\xmc_ccu4.h ****  */
 843:C:/Users/Utente/Desktop/Tesi/Firmware_Software/DAVE project/S2GLP_Pulsed_Doppler/Libraries/XMCLib/inc\xmc_ccu4.h **** void XMC_CCU4_DisableModule(XMC_CCU4_MODULE_t *const module);
 844:C:/Users/Utente/Desktop/Tesi/Firmware_Software/DAVE project/S2GLP_Pulsed_Doppler/Libraries/XMCLib/inc\xmc_ccu4.h **** 
 845:C:/Users/Utente/Desktop/Tesi/Firmware_Software/DAVE project/S2GLP_Pulsed_Doppler/Libraries/XMCLib/inc\xmc_ccu4.h **** /**
 846:C:/Users/Utente/Desktop/Tesi/Firmware_Software/DAVE project/S2GLP_Pulsed_Doppler/Libraries/XMCLib/inc\xmc_ccu4.h ****  * @param module Constant pointer to CCU4 module
 847:C:/Users/Utente/Desktop/Tesi/Firmware_Software/DAVE project/S2GLP_Pulsed_Doppler/Libraries/XMCLib/inc\xmc_ccu4.h ****  * @return <BR>
 848:C:/Users/Utente/Desktop/Tesi/Firmware_Software/DAVE project/S2GLP_Pulsed_Doppler/Libraries/XMCLib/inc\xmc_ccu4.h ****  *    None<BR>
 849:C:/Users/Utente/Desktop/Tesi/Firmware_Software/DAVE project/S2GLP_Pulsed_Doppler/Libraries/XMCLib/inc\xmc_ccu4.h ****  *
 850:C:/Users/Utente/Desktop/Tesi/Firmware_Software/DAVE project/S2GLP_Pulsed_Doppler/Libraries/XMCLib/inc\xmc_ccu4.h ****  * \par<b>Description:</b><br>
 851:C:/Users/Utente/Desktop/Tesi/Firmware_Software/DAVE project/S2GLP_Pulsed_Doppler/Libraries/XMCLib/inc\xmc_ccu4.h ****  *  Starts the prescaler and restores clocks to the timer slices, by setting GIDLC.SPRB bit.<BR>\n
 852:C:/Users/Utente/Desktop/Tesi/Firmware_Software/DAVE project/S2GLP_Pulsed_Doppler/Libraries/XMCLib/inc\xmc_ccu4.h ****  *  Once the input to the prescaler has been chosen and the prescaler divider of all slices program
 853:C:/Users/Utente/Desktop/Tesi/Firmware_Software/DAVE project/S2GLP_Pulsed_Doppler/Libraries/XMCLib/inc\xmc_ccu4.h ****  *  the prescaler itself may be started. Invoke this  API after XMC_CCU4_Init()
 854:C:/Users/Utente/Desktop/Tesi/Firmware_Software/DAVE project/S2GLP_Pulsed_Doppler/Libraries/XMCLib/inc\xmc_ccu4.h ****  *  (Mandatory to fully initialize the module).Directly accessed register is GIDLC.
 855:C:/Users/Utente/Desktop/Tesi/Firmware_Software/DAVE project/S2GLP_Pulsed_Doppler/Libraries/XMCLib/inc\xmc_ccu4.h ****  *
 856:C:/Users/Utente/Desktop/Tesi/Firmware_Software/DAVE project/S2GLP_Pulsed_Doppler/Libraries/XMCLib/inc\xmc_ccu4.h ****  * \par<b>Related APIs:</b><br>
 857:C:/Users/Utente/Desktop/Tesi/Firmware_Software/DAVE project/S2GLP_Pulsed_Doppler/Libraries/XMCLib/inc\xmc_ccu4.h ****  * XMC_CCU4_Init()<BR> XMC_CCU4_EnableClock()<BR> XMC_CCU4_DisableClock()<BR> XMC_CCU4_StartPrescal
 858:C:/Users/Utente/Desktop/Tesi/Firmware_Software/DAVE project/S2GLP_Pulsed_Doppler/Libraries/XMCLib/inc\xmc_ccu4.h ****  * XMC_CCU4_StopPrescaler().
 859:C:/Users/Utente/Desktop/Tesi/Firmware_Software/DAVE project/S2GLP_Pulsed_Doppler/Libraries/XMCLib/inc\xmc_ccu4.h ****  */
 860:C:/Users/Utente/Desktop/Tesi/Firmware_Software/DAVE project/S2GLP_Pulsed_Doppler/Libraries/XMCLib/inc\xmc_ccu4.h **** __STATIC_INLINE void XMC_CCU4_StartPrescaler(XMC_CCU4_MODULE_t *const module)
 861:C:/Users/Utente/Desktop/Tesi/Firmware_Software/DAVE project/S2GLP_Pulsed_Doppler/Libraries/XMCLib/inc\xmc_ccu4.h **** {
 862:C:/Users/Utente/Desktop/Tesi/Firmware_Software/DAVE project/S2GLP_Pulsed_Doppler/Libraries/XMCLib/inc\xmc_ccu4.h ****   XMC_ASSERT("XMC_CCU4_StartPrescaler:Invalid Module Pointer", XMC_CCU4_IsValidModule(module));
 863:C:/Users/Utente/Desktop/Tesi/Firmware_Software/DAVE project/S2GLP_Pulsed_Doppler/Libraries/XMCLib/inc\xmc_ccu4.h ****   module->GIDLC |= (uint32_t) CCU4_GIDLC_SPRB_Msk;
 864:C:/Users/Utente/Desktop/Tesi/Firmware_Software/DAVE project/S2GLP_Pulsed_Doppler/Libraries/XMCLib/inc\xmc_ccu4.h **** }
 865:C:/Users/Utente/Desktop/Tesi/Firmware_Software/DAVE project/S2GLP_Pulsed_Doppler/Libraries/XMCLib/inc\xmc_ccu4.h **** 
 866:C:/Users/Utente/Desktop/Tesi/Firmware_Software/DAVE project/S2GLP_Pulsed_Doppler/Libraries/XMCLib/inc\xmc_ccu4.h **** /**
 867:C:/Users/Utente/Desktop/Tesi/Firmware_Software/DAVE project/S2GLP_Pulsed_Doppler/Libraries/XMCLib/inc\xmc_ccu4.h ****  * @param module Constant pointer to CCU4 module
 868:C:/Users/Utente/Desktop/Tesi/Firmware_Software/DAVE project/S2GLP_Pulsed_Doppler/Libraries/XMCLib/inc\xmc_ccu4.h ****  * @return <BR>
 869:C:/Users/Utente/Desktop/Tesi/Firmware_Software/DAVE project/S2GLP_Pulsed_Doppler/Libraries/XMCLib/inc\xmc_ccu4.h ****  *    None<BR>
 870:C:/Users/Utente/Desktop/Tesi/Firmware_Software/DAVE project/S2GLP_Pulsed_Doppler/Libraries/XMCLib/inc\xmc_ccu4.h ****  *
 871:C:/Users/Utente/Desktop/Tesi/Firmware_Software/DAVE project/S2GLP_Pulsed_Doppler/Libraries/XMCLib/inc\xmc_ccu4.h ****  * \par<b>Description:</b><br>
 872:C:/Users/Utente/Desktop/Tesi/Firmware_Software/DAVE project/S2GLP_Pulsed_Doppler/Libraries/XMCLib/inc\xmc_ccu4.h ****  * Stops the prescaler and blocks clocks to the timer slices, by setting GIDLS.CPRB bit.<BR>\n
 873:C:/Users/Utente/Desktop/Tesi/Firmware_Software/DAVE project/S2GLP_Pulsed_Doppler/Libraries/XMCLib/inc\xmc_ccu4.h ****  * Opposite of the StartPrescaler routine.
 874:C:/Users/Utente/Desktop/Tesi/Firmware_Software/DAVE project/S2GLP_Pulsed_Doppler/Libraries/XMCLib/inc\xmc_ccu4.h ****  * Clears the run bit of the prescaler. Ensures that the module clock is not supplied to
 875:C:/Users/Utente/Desktop/Tesi/Firmware_Software/DAVE project/S2GLP_Pulsed_Doppler/Libraries/XMCLib/inc\xmc_ccu4.h ****  * the slices of the module.Registers directly accessed is GIDLS.
 876:C:/Users/Utente/Desktop/Tesi/Firmware_Software/DAVE project/S2GLP_Pulsed_Doppler/Libraries/XMCLib/inc\xmc_ccu4.h ****  *
 877:C:/Users/Utente/Desktop/Tesi/Firmware_Software/DAVE project/S2GLP_Pulsed_Doppler/Libraries/XMCLib/inc\xmc_ccu4.h ****  * \par<b>Related APIs:</b><br>
 878:C:/Users/Utente/Desktop/Tesi/Firmware_Software/DAVE project/S2GLP_Pulsed_Doppler/Libraries/XMCLib/inc\xmc_ccu4.h ****  * XMC_CCU4_EnableClock()<BR> XMC_CCU4_DisableClock()<BR> XMC_CCU4_StartPrescaler()<BR> XMC_CCU4_St
 879:C:/Users/Utente/Desktop/Tesi/Firmware_Software/DAVE project/S2GLP_Pulsed_Doppler/Libraries/XMCLib/inc\xmc_ccu4.h ****  */
 880:C:/Users/Utente/Desktop/Tesi/Firmware_Software/DAVE project/S2GLP_Pulsed_Doppler/Libraries/XMCLib/inc\xmc_ccu4.h **** __STATIC_INLINE void XMC_CCU4_StopPrescaler(XMC_CCU4_MODULE_t *const module)
 881:C:/Users/Utente/Desktop/Tesi/Firmware_Software/DAVE project/S2GLP_Pulsed_Doppler/Libraries/XMCLib/inc\xmc_ccu4.h **** {
 882:C:/Users/Utente/Desktop/Tesi/Firmware_Software/DAVE project/S2GLP_Pulsed_Doppler/Libraries/XMCLib/inc\xmc_ccu4.h ****   XMC_ASSERT("XMC_CCU4_StopPrescaler:Invalid Module Pointer", XMC_CCU4_IsValidModule(module));
 883:C:/Users/Utente/Desktop/Tesi/Firmware_Software/DAVE project/S2GLP_Pulsed_Doppler/Libraries/XMCLib/inc\xmc_ccu4.h ****   module->GIDLS |= (uint32_t) CCU4_GIDLS_CPRB_Msk;
 884:C:/Users/Utente/Desktop/Tesi/Firmware_Software/DAVE project/S2GLP_Pulsed_Doppler/Libraries/XMCLib/inc\xmc_ccu4.h **** }
 885:C:/Users/Utente/Desktop/Tesi/Firmware_Software/DAVE project/S2GLP_Pulsed_Doppler/Libraries/XMCLib/inc\xmc_ccu4.h **** 
 886:C:/Users/Utente/Desktop/Tesi/Firmware_Software/DAVE project/S2GLP_Pulsed_Doppler/Libraries/XMCLib/inc\xmc_ccu4.h **** /**
 887:C:/Users/Utente/Desktop/Tesi/Firmware_Software/DAVE project/S2GLP_Pulsed_Doppler/Libraries/XMCLib/inc\xmc_ccu4.h ****  * @param module Constant pointer to CCU4 module
 888:C:/Users/Utente/Desktop/Tesi/Firmware_Software/DAVE project/S2GLP_Pulsed_Doppler/Libraries/XMCLib/inc\xmc_ccu4.h ****  * @return <BR>
 889:C:/Users/Utente/Desktop/Tesi/Firmware_Software/DAVE project/S2GLP_Pulsed_Doppler/Libraries/XMCLib/inc\xmc_ccu4.h ****  *    None<BR>
 890:C:/Users/Utente/Desktop/Tesi/Firmware_Software/DAVE project/S2GLP_Pulsed_Doppler/Libraries/XMCLib/inc\xmc_ccu4.h ****  *
 891:C:/Users/Utente/Desktop/Tesi/Firmware_Software/DAVE project/S2GLP_Pulsed_Doppler/Libraries/XMCLib/inc\xmc_ccu4.h ****  * \par<b>Description:</b><br>
 892:C:/Users/Utente/Desktop/Tesi/Firmware_Software/DAVE project/S2GLP_Pulsed_Doppler/Libraries/XMCLib/inc\xmc_ccu4.h ****  * Returns the state of the prescaler, by reading GSTAT.PRB bit.<BR>\n
 893:C:/Users/Utente/Desktop/Tesi/Firmware_Software/DAVE project/S2GLP_Pulsed_Doppler/Libraries/XMCLib/inc\xmc_ccu4.h ****  * This will return true if the prescaler is running. If clock is being supplied to the slices of t
 894:C:/Users/Utente/Desktop/Tesi/Firmware_Software/DAVE project/S2GLP_Pulsed_Doppler/Libraries/XMCLib/inc\xmc_ccu4.h ****  * module then returns as true.
 895:C:/Users/Utente/Desktop/Tesi/Firmware_Software/DAVE project/S2GLP_Pulsed_Doppler/Libraries/XMCLib/inc\xmc_ccu4.h ****  *
 896:C:/Users/Utente/Desktop/Tesi/Firmware_Software/DAVE project/S2GLP_Pulsed_Doppler/Libraries/XMCLib/inc\xmc_ccu4.h ****  * \par<b>Related APIs:</b><br>
 897:C:/Users/Utente/Desktop/Tesi/Firmware_Software/DAVE project/S2GLP_Pulsed_Doppler/Libraries/XMCLib/inc\xmc_ccu4.h ****  * XMC_CCU4_StartPrescaler()<BR> XMC_CCU4_StopPrescaler()<BR> XMC_CCU4_EnableClock()<BR> XMC_CCU4_D
 898:C:/Users/Utente/Desktop/Tesi/Firmware_Software/DAVE project/S2GLP_Pulsed_Doppler/Libraries/XMCLib/inc\xmc_ccu4.h ****  */
 899:C:/Users/Utente/Desktop/Tesi/Firmware_Software/DAVE project/S2GLP_Pulsed_Doppler/Libraries/XMCLib/inc\xmc_ccu4.h **** __STATIC_INLINE bool XMC_CCU4_IsPrescalerRunning(XMC_CCU4_MODULE_t *const module)
 900:C:/Users/Utente/Desktop/Tesi/Firmware_Software/DAVE project/S2GLP_Pulsed_Doppler/Libraries/XMCLib/inc\xmc_ccu4.h **** {
 901:C:/Users/Utente/Desktop/Tesi/Firmware_Software/DAVE project/S2GLP_Pulsed_Doppler/Libraries/XMCLib/inc\xmc_ccu4.h ****   XMC_ASSERT("XMC_CCU4_IsPrescalerRunning:Invalid Module Pointer", XMC_CCU4_IsValidModule(module));
 902:C:/Users/Utente/Desktop/Tesi/Firmware_Software/DAVE project/S2GLP_Pulsed_Doppler/Libraries/XMCLib/inc\xmc_ccu4.h ****   return((bool)((module->GSTAT & (uint32_t) CCU4_GSTAT_PRB_Msk) == (uint32_t)CCU4_GSTAT_PRB_Msk));
 903:C:/Users/Utente/Desktop/Tesi/Firmware_Software/DAVE project/S2GLP_Pulsed_Doppler/Libraries/XMCLib/inc\xmc_ccu4.h **** }
 904:C:/Users/Utente/Desktop/Tesi/Firmware_Software/DAVE project/S2GLP_Pulsed_Doppler/Libraries/XMCLib/inc\xmc_ccu4.h **** 
 905:C:/Users/Utente/Desktop/Tesi/Firmware_Software/DAVE project/S2GLP_Pulsed_Doppler/Libraries/XMCLib/inc\xmc_ccu4.h **** /**
 906:C:/Users/Utente/Desktop/Tesi/Firmware_Software/DAVE project/S2GLP_Pulsed_Doppler/Libraries/XMCLib/inc\xmc_ccu4.h ****  * @param module Constant pointer to CCU4 module
 907:C:/Users/Utente/Desktop/Tesi/Firmware_Software/DAVE project/S2GLP_Pulsed_Doppler/Libraries/XMCLib/inc\xmc_ccu4.h ****  * @param clock_mask Slices whose clocks are to be enabled simultaneously.
 908:C:/Users/Utente/Desktop/Tesi/Firmware_Software/DAVE project/S2GLP_Pulsed_Doppler/Libraries/XMCLib/inc\xmc_ccu4.h ****  *                   Bit location 0/1/2/3 represents slice-0/1/2/3 respectively.
 909:C:/Users/Utente/Desktop/Tesi/Firmware_Software/DAVE project/S2GLP_Pulsed_Doppler/Libraries/XMCLib/inc\xmc_ccu4.h ****  *                   Range: [0x1 to 0xF]
 910:C:/Users/Utente/Desktop/Tesi/Firmware_Software/DAVE project/S2GLP_Pulsed_Doppler/Libraries/XMCLib/inc\xmc_ccu4.h ****  * @return <BR>
 911:C:/Users/Utente/Desktop/Tesi/Firmware_Software/DAVE project/S2GLP_Pulsed_Doppler/Libraries/XMCLib/inc\xmc_ccu4.h ****  *    None<BR>
 912:C:/Users/Utente/Desktop/Tesi/Firmware_Software/DAVE project/S2GLP_Pulsed_Doppler/Libraries/XMCLib/inc\xmc_ccu4.h ****  *
 913:C:/Users/Utente/Desktop/Tesi/Firmware_Software/DAVE project/S2GLP_Pulsed_Doppler/Libraries/XMCLib/inc\xmc_ccu4.h ****  * \par<b>Description:</b><br>
 914:C:/Users/Utente/Desktop/Tesi/Firmware_Software/DAVE project/S2GLP_Pulsed_Doppler/Libraries/XMCLib/inc\xmc_ccu4.h ****  * Enables clocks of multiple slices at a time, by configuring GIDLC.CS0I, GIDLC.CS1I, GIDLC.CS2I, 
 915:C:/Users/Utente/Desktop/Tesi/Firmware_Software/DAVE project/S2GLP_Pulsed_Doppler/Libraries/XMCLib/inc\xmc_ccu4.h ****  * GIDLC.CS3I bits.\n\n
 916:C:/Users/Utente/Desktop/Tesi/Firmware_Software/DAVE project/S2GLP_Pulsed_Doppler/Libraries/XMCLib/inc\xmc_ccu4.h ****  * Takes an input clock_mask, which determines the slices that would receive the clock. Bring them 
 917:C:/Users/Utente/Desktop/Tesi/Firmware_Software/DAVE project/S2GLP_Pulsed_Doppler/Libraries/XMCLib/inc\xmc_ccu4.h ****  * of the idle state simultaneously.
 918:C:/Users/Utente/Desktop/Tesi/Firmware_Software/DAVE project/S2GLP_Pulsed_Doppler/Libraries/XMCLib/inc\xmc_ccu4.h ****  *
 919:C:/Users/Utente/Desktop/Tesi/Firmware_Software/DAVE project/S2GLP_Pulsed_Doppler/Libraries/XMCLib/inc\xmc_ccu4.h ****  * \par<b>Related APIs:</b><br>
 920:C:/Users/Utente/Desktop/Tesi/Firmware_Software/DAVE project/S2GLP_Pulsed_Doppler/Libraries/XMCLib/inc\xmc_ccu4.h ****  * XMC_CCU4_EnableClock()<BR> XMC_CCU4_DisableClock().
 921:C:/Users/Utente/Desktop/Tesi/Firmware_Software/DAVE project/S2GLP_Pulsed_Doppler/Libraries/XMCLib/inc\xmc_ccu4.h ****  */
 922:C:/Users/Utente/Desktop/Tesi/Firmware_Software/DAVE project/S2GLP_Pulsed_Doppler/Libraries/XMCLib/inc\xmc_ccu4.h **** __STATIC_INLINE void XMC_CCU4_EnableMultipleClocks(XMC_CCU4_MODULE_t *const module, const uint8_t c
 923:C:/Users/Utente/Desktop/Tesi/Firmware_Software/DAVE project/S2GLP_Pulsed_Doppler/Libraries/XMCLib/inc\xmc_ccu4.h **** {
 924:C:/Users/Utente/Desktop/Tesi/Firmware_Software/DAVE project/S2GLP_Pulsed_Doppler/Libraries/XMCLib/inc\xmc_ccu4.h ****   XMC_ASSERT("XMC_CCU4_EnableMultipleClocks:Invalid Module Pointer", XMC_CCU4_IsValidModule(module)
 925:C:/Users/Utente/Desktop/Tesi/Firmware_Software/DAVE project/S2GLP_Pulsed_Doppler/Libraries/XMCLib/inc\xmc_ccu4.h ****   XMC_ASSERT("XMC_CCU4_EnableMultipleClocks:Wrong clock mask", (clock_mask < 16U));
 926:C:/Users/Utente/Desktop/Tesi/Firmware_Software/DAVE project/S2GLP_Pulsed_Doppler/Libraries/XMCLib/inc\xmc_ccu4.h ****   
 927:C:/Users/Utente/Desktop/Tesi/Firmware_Software/DAVE project/S2GLP_Pulsed_Doppler/Libraries/XMCLib/inc\xmc_ccu4.h ****   module->GIDLC |= (uint32_t) clock_mask;
 928:C:/Users/Utente/Desktop/Tesi/Firmware_Software/DAVE project/S2GLP_Pulsed_Doppler/Libraries/XMCLib/inc\xmc_ccu4.h **** }
 929:C:/Users/Utente/Desktop/Tesi/Firmware_Software/DAVE project/S2GLP_Pulsed_Doppler/Libraries/XMCLib/inc\xmc_ccu4.h **** 
 930:C:/Users/Utente/Desktop/Tesi/Firmware_Software/DAVE project/S2GLP_Pulsed_Doppler/Libraries/XMCLib/inc\xmc_ccu4.h **** /**
 931:C:/Users/Utente/Desktop/Tesi/Firmware_Software/DAVE project/S2GLP_Pulsed_Doppler/Libraries/XMCLib/inc\xmc_ccu4.h ****  * @param module Constant pointer to CCU4 module
 932:C:/Users/Utente/Desktop/Tesi/Firmware_Software/DAVE project/S2GLP_Pulsed_Doppler/Libraries/XMCLib/inc\xmc_ccu4.h ****  * @param slice_number Slice for which the clock should be Enabled.
 933:C:/Users/Utente/Desktop/Tesi/Firmware_Software/DAVE project/S2GLP_Pulsed_Doppler/Libraries/XMCLib/inc\xmc_ccu4.h ****  *                   Range: [0x0 to 0x3]
 934:C:/Users/Utente/Desktop/Tesi/Firmware_Software/DAVE project/S2GLP_Pulsed_Doppler/Libraries/XMCLib/inc\xmc_ccu4.h ****  * @return <BR>
 935:C:/Users/Utente/Desktop/Tesi/Firmware_Software/DAVE project/S2GLP_Pulsed_Doppler/Libraries/XMCLib/inc\xmc_ccu4.h ****  *    None<BR>
 936:C:/Users/Utente/Desktop/Tesi/Firmware_Software/DAVE project/S2GLP_Pulsed_Doppler/Libraries/XMCLib/inc\xmc_ccu4.h ****  *
 937:C:/Users/Utente/Desktop/Tesi/Firmware_Software/DAVE project/S2GLP_Pulsed_Doppler/Libraries/XMCLib/inc\xmc_ccu4.h ****  * \par<b>Description:</b><br>
 938:C:/Users/Utente/Desktop/Tesi/Firmware_Software/DAVE project/S2GLP_Pulsed_Doppler/Libraries/XMCLib/inc\xmc_ccu4.h ****  *  Enables the slice timer clock, by configuring GIDLC.CS0I, GIDLC.CS1I, GIDLC.CS2I, 
 939:C:/Users/Utente/Desktop/Tesi/Firmware_Software/DAVE project/S2GLP_Pulsed_Doppler/Libraries/XMCLib/inc\xmc_ccu4.h ****  *  GIDLC.CS3I bits according to the selected \a slice_number.\n\n
 940:C:/Users/Utente/Desktop/Tesi/Firmware_Software/DAVE project/S2GLP_Pulsed_Doppler/Libraries/XMCLib/inc\xmc_ccu4.h ****  *  It is possible to enable/disable clock at slice level. This uses the \b slice_number to indicat
 941:C:/Users/Utente/Desktop/Tesi/Firmware_Software/DAVE project/S2GLP_Pulsed_Doppler/Libraries/XMCLib/inc\xmc_ccu4.h ****  *  slice whose clock needs to be enabled.
 942:C:/Users/Utente/Desktop/Tesi/Firmware_Software/DAVE project/S2GLP_Pulsed_Doppler/Libraries/XMCLib/inc\xmc_ccu4.h ****  *
 943:C:/Users/Utente/Desktop/Tesi/Firmware_Software/DAVE project/S2GLP_Pulsed_Doppler/Libraries/XMCLib/inc\xmc_ccu4.h ****  * \par<b>Related APIs:</b><br>
 944:C:/Users/Utente/Desktop/Tesi/Firmware_Software/DAVE project/S2GLP_Pulsed_Doppler/Libraries/XMCLib/inc\xmc_ccu4.h ****  * XMC_CCU4_DisableClock()<BR> XMC_CCU4_EnableMultipleClocks()<BR> XMC_CCU4_StartPrescaler()<BR> XM
 945:C:/Users/Utente/Desktop/Tesi/Firmware_Software/DAVE project/S2GLP_Pulsed_Doppler/Libraries/XMCLib/inc\xmc_ccu4.h ****  */
 946:C:/Users/Utente/Desktop/Tesi/Firmware_Software/DAVE project/S2GLP_Pulsed_Doppler/Libraries/XMCLib/inc\xmc_ccu4.h **** __STATIC_INLINE void XMC_CCU4_EnableClock(XMC_CCU4_MODULE_t *const module, const uint8_t slice_numb
 947:C:/Users/Utente/Desktop/Tesi/Firmware_Software/DAVE project/S2GLP_Pulsed_Doppler/Libraries/XMCLib/inc\xmc_ccu4.h **** {
 948:C:/Users/Utente/Desktop/Tesi/Firmware_Software/DAVE project/S2GLP_Pulsed_Doppler/Libraries/XMCLib/inc\xmc_ccu4.h ****   XMC_ASSERT("XMC_CCU4_EnableClock:Invalid Module Pointer", XMC_CCU4_IsValidModule(module));
 949:C:/Users/Utente/Desktop/Tesi/Firmware_Software/DAVE project/S2GLP_Pulsed_Doppler/Libraries/XMCLib/inc\xmc_ccu4.h ****   XMC_ASSERT("XMC_CCU4_EnableClock:Invalid Slice Number", (slice_number < 4U));
 950:C:/Users/Utente/Desktop/Tesi/Firmware_Software/DAVE project/S2GLP_Pulsed_Doppler/Libraries/XMCLib/inc\xmc_ccu4.h **** 
 951:C:/Users/Utente/Desktop/Tesi/Firmware_Software/DAVE project/S2GLP_Pulsed_Doppler/Libraries/XMCLib/inc\xmc_ccu4.h ****   module->GIDLC |= ((uint32_t) 1) << slice_number;
 106              	 .loc 2 951 0
 107 0020 94F818E0 	 ldrb lr,[r4,#24]
 108              	.LBE73:
 109              	.LBE72:
 110              	 .loc 1 462 0
 111 0024 9F68     	 ldr r7,[r3,#8]
 463:../Dave/Generated/TIMER/timer.c ****   /* Configure the timer with required settings */
 464:../Dave/Generated/TIMER/timer.c ****   XMC_CCU4_SLICE_CompareInit(handle_ptr->ccu4_slice_ptr, handle_ptr->ccu4_slice_config_ptr);
 112              	 .loc 1 464 0
 113 0026 E169     	 ldr r1,[r4,#28]
 114              	.LBB76:
 115              	.LBB74:
 116              	 .loc 2 951 0
 117 0028 FA68     	 ldr r2,[r7,#12]
 118 002a 0123     	 movs r3,#1
 119 002c 03FA0EF3 	 lsl r3,r3,lr
 120 0030 1343     	 orrs r3,r3,r2
 121              	.LBE74:
 122              	.LBE76:
 459:../Dave/Generated/TIMER/timer.c **** 
 123              	 .loc 1 459 0
 124 0032 0546     	 mov r5,r0
 125              	.LVL6:
 126              	 .loc 1 464 0
 127 0034 6069     	 ldr r0,[r4,#20]
 128              	.LBB77:
 129              	.LBB75:
 130              	 .loc 2 951 0
 131 0036 FB60     	 str r3,[r7,#12]
 132              	.LVL7:
 133              	.LBE75:
 134              	.LBE77:
 135              	 .loc 1 464 0
 136 0038 FFF7FEFF 	 bl XMC_CCU4_SLICE_CompareInit
 137              	.LVL8:
 138              	.LBB78:
 139              	.LBB79:
 465:../Dave/Generated/TIMER/timer.c ****   /* programs the timer period and compare register according to time interval value and do the sha
 466:../Dave/Generated/TIMER/timer.c ****   TIMER_CCU4_lShadowTransfer(handle_ptr);
 467:../Dave/Generated/TIMER/timer.c **** 
 468:../Dave/Generated/TIMER/timer.c **** #ifdef  TIMER_INTERRUPT
 469:../Dave/Generated/TIMER/timer.c ****   if (true == handle_ptr->period_match_enable)
 470:../Dave/Generated/TIMER/timer.c ****   {
 471:../Dave/Generated/TIMER/timer.c ****     /* Binds a period match event to an NVIC node  */
 472:../Dave/Generated/TIMER/timer.c ****     XMC_CCU4_SLICE_SetInterruptNode(handle_ptr->ccu4_slice_ptr, XMC_CCU4_SLICE_IRQ_ID_PERIOD_MATCH,
 473:../Dave/Generated/TIMER/timer.c ****                                     handle_ptr->ccu4_period_match_node);
 474:../Dave/Generated/TIMER/timer.c ****     /* Enables a timer(period match) event  */
 475:../Dave/Generated/TIMER/timer.c ****     XMC_CCU4_SLICE_EnableEvent(handle_ptr->ccu4_slice_ptr, XMC_CCU4_SLICE_IRQ_ID_PERIOD_MATCH);
 476:../Dave/Generated/TIMER/timer.c ****   }
 477:../Dave/Generated/TIMER/timer.c **** #endif
 478:../Dave/Generated/TIMER/timer.c ****   /* Clears the timer register */
 479:../Dave/Generated/TIMER/timer.c ****   XMC_CCU4_SLICE_ClearTimer(handle_ptr->ccu4_slice_ptr);
 480:../Dave/Generated/TIMER/timer.c **** 
 481:../Dave/Generated/TIMER/timer.c ****   /* update the initialization flag as true for particular instance*/
 482:../Dave/Generated/TIMER/timer.c ****   handle_ptr->initialized = true;
 483:../Dave/Generated/TIMER/timer.c **** 
 484:../Dave/Generated/TIMER/timer.c ****   /* Check whether the start of the timer is enabled during initialization or not */
 485:../Dave/Generated/TIMER/timer.c ****   if (handle_ptr->start_control == true)
 486:../Dave/Generated/TIMER/timer.c ****   {
 487:../Dave/Generated/TIMER/timer.c ****     /* Start the timer */
 488:../Dave/Generated/TIMER/timer.c ****     XMC_CCU4_SLICE_StartTimer(handle_ptr->ccu4_slice_ptr);
 489:../Dave/Generated/TIMER/timer.c ****   }
 490:../Dave/Generated/TIMER/timer.c **** 
 491:../Dave/Generated/TIMER/timer.c ****   return (status);
 492:../Dave/Generated/TIMER/timer.c **** }
 493:../Dave/Generated/TIMER/timer.c **** 
 494:../Dave/Generated/TIMER/timer.c **** /*
 495:../Dave/Generated/TIMER/timer.c ****  * This function configures timer period and compare values and triggers the shadow transfer operat
 496:../Dave/Generated/TIMER/timer.c ****  */
 497:../Dave/Generated/TIMER/timer.c **** void TIMER_CCU4_lShadowTransfer(TIMER_t* const handle_ptr)
 498:../Dave/Generated/TIMER/timer.c **** {
 499:../Dave/Generated/TIMER/timer.c ****   /* programs the timer period register according to time interval value */
 500:../Dave/Generated/TIMER/timer.c ****   XMC_CCU4_SLICE_SetTimerPeriodMatch(handle_ptr->ccu4_slice_ptr, handle_ptr->period_value);
 501:../Dave/Generated/TIMER/timer.c ****   /* programs the timer compare register for 50% duty cycle */
 502:../Dave/Generated/TIMER/timer.c ****   XMC_CCU4_SLICE_SetTimerCompareMatch(handle_ptr->ccu4_slice_ptr, TIMER_CMP_100_DUTY);
 503:../Dave/Generated/TIMER/timer.c ****   /* Transfers value from shadow timer registers to actual timer registers */
 504:../Dave/Generated/TIMER/timer.c ****   XMC_CCU4_EnableShadowTransfer(handle_ptr->global_ccu4_handler->module_ptr, handle_ptr->shadow_mas
 140              	 .loc 1 504 0
 141 003c 2369     	 ldr r3,[r4,#16]
 500:../Dave/Generated/TIMER/timer.c ****   /* programs the timer compare register for 50% duty cycle */
 142              	 .loc 1 500 0
 143 003e 6069     	 ldr r0,[r4,#20]
 144              	.LVL9:
 145              	 .loc 1 504 0
 146 0040 9A68     	 ldr r2,[r3,#8]
 147              	.LBE79:
 148              	.LBE78:
 469:../Dave/Generated/TIMER/timer.c ****   {
 149              	 .loc 1 469 0
 150 0042 94F82530 	 ldrb r3,[r4,#37]
 151              	.LBB89:
 152              	.LBB88:
 153              	.LBB80:
 154              	.LBB81:
 952:C:/Users/Utente/Desktop/Tesi/Firmware_Software/DAVE project/S2GLP_Pulsed_Doppler/Libraries/XMCLib/inc\xmc_ccu4.h **** }
 953:C:/Users/Utente/Desktop/Tesi/Firmware_Software/DAVE project/S2GLP_Pulsed_Doppler/Libraries/XMCLib/inc\xmc_ccu4.h **** 
 954:C:/Users/Utente/Desktop/Tesi/Firmware_Software/DAVE project/S2GLP_Pulsed_Doppler/Libraries/XMCLib/inc\xmc_ccu4.h **** /**
 955:C:/Users/Utente/Desktop/Tesi/Firmware_Software/DAVE project/S2GLP_Pulsed_Doppler/Libraries/XMCLib/inc\xmc_ccu4.h ****  * @param module Constant pointer to CCU4 module
 956:C:/Users/Utente/Desktop/Tesi/Firmware_Software/DAVE project/S2GLP_Pulsed_Doppler/Libraries/XMCLib/inc\xmc_ccu4.h ****  * @param slice_number Slice for which the clock should be disabled.
 957:C:/Users/Utente/Desktop/Tesi/Firmware_Software/DAVE project/S2GLP_Pulsed_Doppler/Libraries/XMCLib/inc\xmc_ccu4.h ****  *                   Range: [0x0 to 0x3]
 958:C:/Users/Utente/Desktop/Tesi/Firmware_Software/DAVE project/S2GLP_Pulsed_Doppler/Libraries/XMCLib/inc\xmc_ccu4.h ****  * @return <BR>
 959:C:/Users/Utente/Desktop/Tesi/Firmware_Software/DAVE project/S2GLP_Pulsed_Doppler/Libraries/XMCLib/inc\xmc_ccu4.h ****  *    None<BR>
 960:C:/Users/Utente/Desktop/Tesi/Firmware_Software/DAVE project/S2GLP_Pulsed_Doppler/Libraries/XMCLib/inc\xmc_ccu4.h ****  * 
 961:C:/Users/Utente/Desktop/Tesi/Firmware_Software/DAVE project/S2GLP_Pulsed_Doppler/Libraries/XMCLib/inc\xmc_ccu4.h ****  * \par<b>Description:</b><br>
 962:C:/Users/Utente/Desktop/Tesi/Firmware_Software/DAVE project/S2GLP_Pulsed_Doppler/Libraries/XMCLib/inc\xmc_ccu4.h ****  * Disables the slice timer clock, by configuring GIDLS.SS0I, GIDLS.SSS1I, GIDLS.SSS2I, 
 963:C:/Users/Utente/Desktop/Tesi/Firmware_Software/DAVE project/S2GLP_Pulsed_Doppler/Libraries/XMCLib/inc\xmc_ccu4.h ****  * GIDLS.SSS3I bits according to the selected \a slice_number .\n\n
 964:C:/Users/Utente/Desktop/Tesi/Firmware_Software/DAVE project/S2GLP_Pulsed_Doppler/Libraries/XMCLib/inc\xmc_ccu4.h ****  * It is possible to disable clock at slice level using the module pointer.
 965:C:/Users/Utente/Desktop/Tesi/Firmware_Software/DAVE project/S2GLP_Pulsed_Doppler/Libraries/XMCLib/inc\xmc_ccu4.h ****  * \b slice_number is used to disable the clock to a given slice of the module.
 966:C:/Users/Utente/Desktop/Tesi/Firmware_Software/DAVE project/S2GLP_Pulsed_Doppler/Libraries/XMCLib/inc\xmc_ccu4.h ****  * Directly accessed Register is GIDLS.
 967:C:/Users/Utente/Desktop/Tesi/Firmware_Software/DAVE project/S2GLP_Pulsed_Doppler/Libraries/XMCLib/inc\xmc_ccu4.h ****  *
 968:C:/Users/Utente/Desktop/Tesi/Firmware_Software/DAVE project/S2GLP_Pulsed_Doppler/Libraries/XMCLib/inc\xmc_ccu4.h ****  * \par<b>Related APIs:</b><br>
 969:C:/Users/Utente/Desktop/Tesi/Firmware_Software/DAVE project/S2GLP_Pulsed_Doppler/Libraries/XMCLib/inc\xmc_ccu4.h ****  * XMC_CCU4_EnableClock()<BR> XMC_CCU4_EnableMultipleClocks()<BR> XMC_CCU4_StartPrescaler()<BR> XMC
 970:C:/Users/Utente/Desktop/Tesi/Firmware_Software/DAVE project/S2GLP_Pulsed_Doppler/Libraries/XMCLib/inc\xmc_ccu4.h ****  */
 971:C:/Users/Utente/Desktop/Tesi/Firmware_Software/DAVE project/S2GLP_Pulsed_Doppler/Libraries/XMCLib/inc\xmc_ccu4.h **** __STATIC_INLINE void XMC_CCU4_DisableClock(XMC_CCU4_MODULE_t *const module, const uint8_t slice_num
 972:C:/Users/Utente/Desktop/Tesi/Firmware_Software/DAVE project/S2GLP_Pulsed_Doppler/Libraries/XMCLib/inc\xmc_ccu4.h **** {
 973:C:/Users/Utente/Desktop/Tesi/Firmware_Software/DAVE project/S2GLP_Pulsed_Doppler/Libraries/XMCLib/inc\xmc_ccu4.h ****   XMC_ASSERT("XMC_CCU4_DisableClock:Invalid Module Pointer", XMC_CCU4_IsValidModule(module));
 974:C:/Users/Utente/Desktop/Tesi/Firmware_Software/DAVE project/S2GLP_Pulsed_Doppler/Libraries/XMCLib/inc\xmc_ccu4.h ****   XMC_ASSERT("XMC_CCU4_DisableClock:Invalid Slice Number", (slice_number < 4U));
 975:C:/Users/Utente/Desktop/Tesi/Firmware_Software/DAVE project/S2GLP_Pulsed_Doppler/Libraries/XMCLib/inc\xmc_ccu4.h **** 
 976:C:/Users/Utente/Desktop/Tesi/Firmware_Software/DAVE project/S2GLP_Pulsed_Doppler/Libraries/XMCLib/inc\xmc_ccu4.h ****   module->GIDLS |= ((uint32_t) 1) << slice_number;
 977:C:/Users/Utente/Desktop/Tesi/Firmware_Software/DAVE project/S2GLP_Pulsed_Doppler/Libraries/XMCLib/inc\xmc_ccu4.h **** }
 978:C:/Users/Utente/Desktop/Tesi/Firmware_Software/DAVE project/S2GLP_Pulsed_Doppler/Libraries/XMCLib/inc\xmc_ccu4.h **** 
 979:C:/Users/Utente/Desktop/Tesi/Firmware_Software/DAVE project/S2GLP_Pulsed_Doppler/Libraries/XMCLib/inc\xmc_ccu4.h **** /**
 980:C:/Users/Utente/Desktop/Tesi/Firmware_Software/DAVE project/S2GLP_Pulsed_Doppler/Libraries/XMCLib/inc\xmc_ccu4.h ****  * @param slice Constant pointer to CC4 Slice
 981:C:/Users/Utente/Desktop/Tesi/Firmware_Software/DAVE project/S2GLP_Pulsed_Doppler/Libraries/XMCLib/inc\xmc_ccu4.h ****  * @param compare_init Pointer to slice configuration structure
 982:C:/Users/Utente/Desktop/Tesi/Firmware_Software/DAVE project/S2GLP_Pulsed_Doppler/Libraries/XMCLib/inc\xmc_ccu4.h ****  * @return <BR>
 983:C:/Users/Utente/Desktop/Tesi/Firmware_Software/DAVE project/S2GLP_Pulsed_Doppler/Libraries/XMCLib/inc\xmc_ccu4.h ****  *    None<BR>
 984:C:/Users/Utente/Desktop/Tesi/Firmware_Software/DAVE project/S2GLP_Pulsed_Doppler/Libraries/XMCLib/inc\xmc_ccu4.h ****  *
 985:C:/Users/Utente/Desktop/Tesi/Firmware_Software/DAVE project/S2GLP_Pulsed_Doppler/Libraries/XMCLib/inc\xmc_ccu4.h ****  * \par<b>Description:</b><br>
 986:C:/Users/Utente/Desktop/Tesi/Firmware_Software/DAVE project/S2GLP_Pulsed_Doppler/Libraries/XMCLib/inc\xmc_ccu4.h ****  * Initialization of a CC4 slice to compare mode, by configuring CC4yTC, CC4yCMC, CC4yPSC, CC4yDITH
 987:C:/Users/Utente/Desktop/Tesi/Firmware_Software/DAVE project/S2GLP_Pulsed_Doppler/Libraries/XMCLib/inc\xmc_ccu4.h ****  * CC4yFPCS, CC4yCHC registers.\n\n 
 988:C:/Users/Utente/Desktop/Tesi/Firmware_Software/DAVE project/S2GLP_Pulsed_Doppler/Libraries/XMCLib/inc\xmc_ccu4.h ****  * CC4 slice is configured with Timer configurations in this routine.
 989:C:/Users/Utente/Desktop/Tesi/Firmware_Software/DAVE project/S2GLP_Pulsed_Doppler/Libraries/XMCLib/inc\xmc_ccu4.h ****  * After initialization user has to explicitly enable the shadow transfer for the required values b
 990:C:/Users/Utente/Desktop/Tesi/Firmware_Software/DAVE project/S2GLP_Pulsed_Doppler/Libraries/XMCLib/inc\xmc_ccu4.h ****  * XMC_CCU4_EnableShadowTransfer() with appropriate mask.
 991:C:/Users/Utente/Desktop/Tesi/Firmware_Software/DAVE project/S2GLP_Pulsed_Doppler/Libraries/XMCLib/inc\xmc_ccu4.h ****  *
 992:C:/Users/Utente/Desktop/Tesi/Firmware_Software/DAVE project/S2GLP_Pulsed_Doppler/Libraries/XMCLib/inc\xmc_ccu4.h ****  * \par<b>Related APIs:</b><br>
 993:C:/Users/Utente/Desktop/Tesi/Firmware_Software/DAVE project/S2GLP_Pulsed_Doppler/Libraries/XMCLib/inc\xmc_ccu4.h ****  * None.
 994:C:/Users/Utente/Desktop/Tesi/Firmware_Software/DAVE project/S2GLP_Pulsed_Doppler/Libraries/XMCLib/inc\xmc_ccu4.h ****  */
 995:C:/Users/Utente/Desktop/Tesi/Firmware_Software/DAVE project/S2GLP_Pulsed_Doppler/Libraries/XMCLib/inc\xmc_ccu4.h **** void XMC_CCU4_SLICE_CompareInit(XMC_CCU4_SLICE_t *const slice,
 996:C:/Users/Utente/Desktop/Tesi/Firmware_Software/DAVE project/S2GLP_Pulsed_Doppler/Libraries/XMCLib/inc\xmc_ccu4.h ****                                 const XMC_CCU4_SLICE_COMPARE_CONFIG_t *const compare_init);
 997:C:/Users/Utente/Desktop/Tesi/Firmware_Software/DAVE project/S2GLP_Pulsed_Doppler/Libraries/XMCLib/inc\xmc_ccu4.h **** 
 998:C:/Users/Utente/Desktop/Tesi/Firmware_Software/DAVE project/S2GLP_Pulsed_Doppler/Libraries/XMCLib/inc\xmc_ccu4.h **** /**
 999:C:/Users/Utente/Desktop/Tesi/Firmware_Software/DAVE project/S2GLP_Pulsed_Doppler/Libraries/XMCLib/inc\xmc_ccu4.h ****  * @param slice Constant pointer to CC4 Slice
1000:C:/Users/Utente/Desktop/Tesi/Firmware_Software/DAVE project/S2GLP_Pulsed_Doppler/Libraries/XMCLib/inc\xmc_ccu4.h ****  * @param capture_init Pointer to slice configuration structure
1001:C:/Users/Utente/Desktop/Tesi/Firmware_Software/DAVE project/S2GLP_Pulsed_Doppler/Libraries/XMCLib/inc\xmc_ccu4.h ****  * @return <BR>
1002:C:/Users/Utente/Desktop/Tesi/Firmware_Software/DAVE project/S2GLP_Pulsed_Doppler/Libraries/XMCLib/inc\xmc_ccu4.h ****  *    None<BR>
1003:C:/Users/Utente/Desktop/Tesi/Firmware_Software/DAVE project/S2GLP_Pulsed_Doppler/Libraries/XMCLib/inc\xmc_ccu4.h ****  *
1004:C:/Users/Utente/Desktop/Tesi/Firmware_Software/DAVE project/S2GLP_Pulsed_Doppler/Libraries/XMCLib/inc\xmc_ccu4.h ****  * \par<b>Description:</b><br>
1005:C:/Users/Utente/Desktop/Tesi/Firmware_Software/DAVE project/S2GLP_Pulsed_Doppler/Libraries/XMCLib/inc\xmc_ccu4.h ****  * Initialization of a CC4 slice to capture mode, by configuring CC4yTC, CC4yCMC, CC4yPSC,CC4yFPCS 
1006:C:/Users/Utente/Desktop/Tesi/Firmware_Software/DAVE project/S2GLP_Pulsed_Doppler/Libraries/XMCLib/inc\xmc_ccu4.h ****  * CC4 slice is configured with Capture configurations in  this routine.After initialization user h
1007:C:/Users/Utente/Desktop/Tesi/Firmware_Software/DAVE project/S2GLP_Pulsed_Doppler/Libraries/XMCLib/inc\xmc_ccu4.h ****  * enable the shadow transfer for the required  values by calling XMC_CCU4_EnableShadowTransfer()
1008:C:/Users/Utente/Desktop/Tesi/Firmware_Software/DAVE project/S2GLP_Pulsed_Doppler/Libraries/XMCLib/inc\xmc_ccu4.h ****  * with appropriate mask.
1009:C:/Users/Utente/Desktop/Tesi/Firmware_Software/DAVE project/S2GLP_Pulsed_Doppler/Libraries/XMCLib/inc\xmc_ccu4.h ****  *
1010:C:/Users/Utente/Desktop/Tesi/Firmware_Software/DAVE project/S2GLP_Pulsed_Doppler/Libraries/XMCLib/inc\xmc_ccu4.h ****  * \par<b>Related APIs:</b><br>
1011:C:/Users/Utente/Desktop/Tesi/Firmware_Software/DAVE project/S2GLP_Pulsed_Doppler/Libraries/XMCLib/inc\xmc_ccu4.h ****  * XMC_CCU4_SLICE_Capture0Config()<BR> XMC_CCU4_SLICE_Capture1Config().
1012:C:/Users/Utente/Desktop/Tesi/Firmware_Software/DAVE project/S2GLP_Pulsed_Doppler/Libraries/XMCLib/inc\xmc_ccu4.h ****  */
1013:C:/Users/Utente/Desktop/Tesi/Firmware_Software/DAVE project/S2GLP_Pulsed_Doppler/Libraries/XMCLib/inc\xmc_ccu4.h **** void XMC_CCU4_SLICE_CaptureInit(XMC_CCU4_SLICE_t *const slice,
1014:C:/Users/Utente/Desktop/Tesi/Firmware_Software/DAVE project/S2GLP_Pulsed_Doppler/Libraries/XMCLib/inc\xmc_ccu4.h ****                                 const XMC_CCU4_SLICE_CAPTURE_CONFIG_t *const capture_init);
1015:C:/Users/Utente/Desktop/Tesi/Firmware_Software/DAVE project/S2GLP_Pulsed_Doppler/Libraries/XMCLib/inc\xmc_ccu4.h **** 
1016:C:/Users/Utente/Desktop/Tesi/Firmware_Software/DAVE project/S2GLP_Pulsed_Doppler/Libraries/XMCLib/inc\xmc_ccu4.h **** 
1017:C:/Users/Utente/Desktop/Tesi/Firmware_Software/DAVE project/S2GLP_Pulsed_Doppler/Libraries/XMCLib/inc\xmc_ccu4.h **** /**
1018:C:/Users/Utente/Desktop/Tesi/Firmware_Software/DAVE project/S2GLP_Pulsed_Doppler/Libraries/XMCLib/inc\xmc_ccu4.h ****  * @param slice Constant pointer to CC4 Slice
1019:C:/Users/Utente/Desktop/Tesi/Firmware_Software/DAVE project/S2GLP_Pulsed_Doppler/Libraries/XMCLib/inc\xmc_ccu4.h ****  * @param event Map an External event to the External Start Function
1020:C:/Users/Utente/Desktop/Tesi/Firmware_Software/DAVE project/S2GLP_Pulsed_Doppler/Libraries/XMCLib/inc\xmc_ccu4.h ****  * @param start_mode Behavior of slice when the start function is activated
1021:C:/Users/Utente/Desktop/Tesi/Firmware_Software/DAVE project/S2GLP_Pulsed_Doppler/Libraries/XMCLib/inc\xmc_ccu4.h ****  * @return <BR>
1022:C:/Users/Utente/Desktop/Tesi/Firmware_Software/DAVE project/S2GLP_Pulsed_Doppler/Libraries/XMCLib/inc\xmc_ccu4.h ****  *    None<BR>
1023:C:/Users/Utente/Desktop/Tesi/Firmware_Software/DAVE project/S2GLP_Pulsed_Doppler/Libraries/XMCLib/inc\xmc_ccu4.h ****  *
1024:C:/Users/Utente/Desktop/Tesi/Firmware_Software/DAVE project/S2GLP_Pulsed_Doppler/Libraries/XMCLib/inc\xmc_ccu4.h ****  * \par<b>Description:</b><br>
1025:C:/Users/Utente/Desktop/Tesi/Firmware_Software/DAVE project/S2GLP_Pulsed_Doppler/Libraries/XMCLib/inc\xmc_ccu4.h ****  *  Configures the Start Function of the slice, by configuring CC4yCMC.ENDS and CC4yTC.ENDM bits.\n
1026:C:/Users/Utente/Desktop/Tesi/Firmware_Software/DAVE project/S2GLP_Pulsed_Doppler/Libraries/XMCLib/inc\xmc_ccu4.h ****  *  Start function is mapped with one of the 3 events. An external signal can control when a CC4 ti
1027:C:/Users/Utente/Desktop/Tesi/Firmware_Software/DAVE project/S2GLP_Pulsed_Doppler/Libraries/XMCLib/inc\xmc_ccu4.h ****  *  Additionally, the behaviour of the slice upon activation of the start function is configured as
1028:C:/Users/Utente/Desktop/Tesi/Firmware_Software/DAVE project/S2GLP_Pulsed_Doppler/Libraries/XMCLib/inc\xmc_ccu4.h ****  *
1029:C:/Users/Utente/Desktop/Tesi/Firmware_Software/DAVE project/S2GLP_Pulsed_Doppler/Libraries/XMCLib/inc\xmc_ccu4.h ****  * \par<b>Related APIs:</b><br>
1030:C:/Users/Utente/Desktop/Tesi/Firmware_Software/DAVE project/S2GLP_Pulsed_Doppler/Libraries/XMCLib/inc\xmc_ccu4.h ****  * XMC_CCU4_SLICE_StopConfig()<BR> XMC_CCU4_SLICE_ConfigureEvent()<BR> XMC_CCU4_SLICE_SetInput().
1031:C:/Users/Utente/Desktop/Tesi/Firmware_Software/DAVE project/S2GLP_Pulsed_Doppler/Libraries/XMCLib/inc\xmc_ccu4.h ****  */
1032:C:/Users/Utente/Desktop/Tesi/Firmware_Software/DAVE project/S2GLP_Pulsed_Doppler/Libraries/XMCLib/inc\xmc_ccu4.h **** void XMC_CCU4_SLICE_StartConfig(XMC_CCU4_SLICE_t *const slice,
1033:C:/Users/Utente/Desktop/Tesi/Firmware_Software/DAVE project/S2GLP_Pulsed_Doppler/Libraries/XMCLib/inc\xmc_ccu4.h ****                                 const XMC_CCU4_SLICE_EVENT_t event,
1034:C:/Users/Utente/Desktop/Tesi/Firmware_Software/DAVE project/S2GLP_Pulsed_Doppler/Libraries/XMCLib/inc\xmc_ccu4.h ****                                 const XMC_CCU4_SLICE_START_MODE_t start_mode);
1035:C:/Users/Utente/Desktop/Tesi/Firmware_Software/DAVE project/S2GLP_Pulsed_Doppler/Libraries/XMCLib/inc\xmc_ccu4.h **** 
1036:C:/Users/Utente/Desktop/Tesi/Firmware_Software/DAVE project/S2GLP_Pulsed_Doppler/Libraries/XMCLib/inc\xmc_ccu4.h **** /**
1037:C:/Users/Utente/Desktop/Tesi/Firmware_Software/DAVE project/S2GLP_Pulsed_Doppler/Libraries/XMCLib/inc\xmc_ccu4.h ****  * @param slice Constant pointer to CC4 Slice
1038:C:/Users/Utente/Desktop/Tesi/Firmware_Software/DAVE project/S2GLP_Pulsed_Doppler/Libraries/XMCLib/inc\xmc_ccu4.h ****  * @param event Map an External event to the External Stop Function
1039:C:/Users/Utente/Desktop/Tesi/Firmware_Software/DAVE project/S2GLP_Pulsed_Doppler/Libraries/XMCLib/inc\xmc_ccu4.h ****  * @param end_mode Behavior of slice when the stop function is activated
1040:C:/Users/Utente/Desktop/Tesi/Firmware_Software/DAVE project/S2GLP_Pulsed_Doppler/Libraries/XMCLib/inc\xmc_ccu4.h ****  * @return <BR>
1041:C:/Users/Utente/Desktop/Tesi/Firmware_Software/DAVE project/S2GLP_Pulsed_Doppler/Libraries/XMCLib/inc\xmc_ccu4.h ****  *    None<BR>
1042:C:/Users/Utente/Desktop/Tesi/Firmware_Software/DAVE project/S2GLP_Pulsed_Doppler/Libraries/XMCLib/inc\xmc_ccu4.h ****  *
1043:C:/Users/Utente/Desktop/Tesi/Firmware_Software/DAVE project/S2GLP_Pulsed_Doppler/Libraries/XMCLib/inc\xmc_ccu4.h ****  * \par<b>Description:</b><br>
1044:C:/Users/Utente/Desktop/Tesi/Firmware_Software/DAVE project/S2GLP_Pulsed_Doppler/Libraries/XMCLib/inc\xmc_ccu4.h ****  * Configures the Stop function for the slice, by configuring CC4yCMC.STRTS and CC4yTC.STRM bits.\n
1045:C:/Users/Utente/Desktop/Tesi/Firmware_Software/DAVE project/S2GLP_Pulsed_Doppler/Libraries/XMCLib/inc\xmc_ccu4.h ****  * Stop function is mapped with one of the 3 events. An external signal can control when a CCU4 tim
1046:C:/Users/Utente/Desktop/Tesi/Firmware_Software/DAVE project/S2GLP_Pulsed_Doppler/Libraries/XMCLib/inc\xmc_ccu4.h ****  * Additionally, the behaviour of the slice upon activation of the stop function is configured as w
1047:C:/Users/Utente/Desktop/Tesi/Firmware_Software/DAVE project/S2GLP_Pulsed_Doppler/Libraries/XMCLib/inc\xmc_ccu4.h ****  *
1048:C:/Users/Utente/Desktop/Tesi/Firmware_Software/DAVE project/S2GLP_Pulsed_Doppler/Libraries/XMCLib/inc\xmc_ccu4.h ****  * \par<b>Related APIs:</b><br>
1049:C:/Users/Utente/Desktop/Tesi/Firmware_Software/DAVE project/S2GLP_Pulsed_Doppler/Libraries/XMCLib/inc\xmc_ccu4.h ****  * XMC_CCU4_SLICE_StartConfig()<BR> XMC_CCU4_SLICE_ConfigureEvent()<BR> XMC_CCU4_SLICE_SetInput().
1050:C:/Users/Utente/Desktop/Tesi/Firmware_Software/DAVE project/S2GLP_Pulsed_Doppler/Libraries/XMCLib/inc\xmc_ccu4.h ****  */
1051:C:/Users/Utente/Desktop/Tesi/Firmware_Software/DAVE project/S2GLP_Pulsed_Doppler/Libraries/XMCLib/inc\xmc_ccu4.h **** void XMC_CCU4_SLICE_StopConfig(XMC_CCU4_SLICE_t *const slice,
1052:C:/Users/Utente/Desktop/Tesi/Firmware_Software/DAVE project/S2GLP_Pulsed_Doppler/Libraries/XMCLib/inc\xmc_ccu4.h ****                                const XMC_CCU4_SLICE_EVENT_t event,
1053:C:/Users/Utente/Desktop/Tesi/Firmware_Software/DAVE project/S2GLP_Pulsed_Doppler/Libraries/XMCLib/inc\xmc_ccu4.h ****                                const XMC_CCU4_SLICE_END_MODE_t end_mode);
1054:C:/Users/Utente/Desktop/Tesi/Firmware_Software/DAVE project/S2GLP_Pulsed_Doppler/Libraries/XMCLib/inc\xmc_ccu4.h **** 
1055:C:/Users/Utente/Desktop/Tesi/Firmware_Software/DAVE project/S2GLP_Pulsed_Doppler/Libraries/XMCLib/inc\xmc_ccu4.h **** /**
1056:C:/Users/Utente/Desktop/Tesi/Firmware_Software/DAVE project/S2GLP_Pulsed_Doppler/Libraries/XMCLib/inc\xmc_ccu4.h ****  * @param slice Constant pointer to CC4 Slice
1057:C:/Users/Utente/Desktop/Tesi/Firmware_Software/DAVE project/S2GLP_Pulsed_Doppler/Libraries/XMCLib/inc\xmc_ccu4.h ****  * @param event Map an External event to the External load Function
1058:C:/Users/Utente/Desktop/Tesi/Firmware_Software/DAVE project/S2GLP_Pulsed_Doppler/Libraries/XMCLib/inc\xmc_ccu4.h ****  * @return <BR>
1059:C:/Users/Utente/Desktop/Tesi/Firmware_Software/DAVE project/S2GLP_Pulsed_Doppler/Libraries/XMCLib/inc\xmc_ccu4.h ****  *    None<BR>
1060:C:/Users/Utente/Desktop/Tesi/Firmware_Software/DAVE project/S2GLP_Pulsed_Doppler/Libraries/XMCLib/inc\xmc_ccu4.h ****  *
1061:C:/Users/Utente/Desktop/Tesi/Firmware_Software/DAVE project/S2GLP_Pulsed_Doppler/Libraries/XMCLib/inc\xmc_ccu4.h ****  * \par<b>Description:</b><br>
1062:C:/Users/Utente/Desktop/Tesi/Firmware_Software/DAVE project/S2GLP_Pulsed_Doppler/Libraries/XMCLib/inc\xmc_ccu4.h ****  *  Configures the Load Function for the slice, by configuring CC4yCMC.LDS bit.\n\n
1063:C:/Users/Utente/Desktop/Tesi/Firmware_Software/DAVE project/S2GLP_Pulsed_Doppler/Libraries/XMCLib/inc\xmc_ccu4.h ****  *  Load function is mapped with one of the 3 events. Up on occurrence of the event,\n
1064:C:/Users/Utente/Desktop/Tesi/Firmware_Software/DAVE project/S2GLP_Pulsed_Doppler/Libraries/XMCLib/inc\xmc_ccu4.h ****  *  if CC4yTCST.CDIR set to 0,CC4yTIMER register is reloaded with the value from compare register\n
1065:C:/Users/Utente/Desktop/Tesi/Firmware_Software/DAVE project/S2GLP_Pulsed_Doppler/Libraries/XMCLib/inc\xmc_ccu4.h ****  *  if CC4yTCST.CDIR set to 1,CC4yTIMER register is reloaded with the value from period register\n
1066:C:/Users/Utente/Desktop/Tesi/Firmware_Software/DAVE project/S2GLP_Pulsed_Doppler/Libraries/XMCLib/inc\xmc_ccu4.h ****  *
1067:C:/Users/Utente/Desktop/Tesi/Firmware_Software/DAVE project/S2GLP_Pulsed_Doppler/Libraries/XMCLib/inc\xmc_ccu4.h ****  * \par<b>Related APIs:</b><br>
1068:C:/Users/Utente/Desktop/Tesi/Firmware_Software/DAVE project/S2GLP_Pulsed_Doppler/Libraries/XMCLib/inc\xmc_ccu4.h ****  *  XMC_CCU4_SLICE_ConfigureEvent()<BR> XMC_CCU4_SLICE_SetInput().
1069:C:/Users/Utente/Desktop/Tesi/Firmware_Software/DAVE project/S2GLP_Pulsed_Doppler/Libraries/XMCLib/inc\xmc_ccu4.h ****  */
1070:C:/Users/Utente/Desktop/Tesi/Firmware_Software/DAVE project/S2GLP_Pulsed_Doppler/Libraries/XMCLib/inc\xmc_ccu4.h **** void XMC_CCU4_SLICE_LoadConfig(XMC_CCU4_SLICE_t *const slice, const XMC_CCU4_SLICE_EVENT_t event);
1071:C:/Users/Utente/Desktop/Tesi/Firmware_Software/DAVE project/S2GLP_Pulsed_Doppler/Libraries/XMCLib/inc\xmc_ccu4.h **** 
1072:C:/Users/Utente/Desktop/Tesi/Firmware_Software/DAVE project/S2GLP_Pulsed_Doppler/Libraries/XMCLib/inc\xmc_ccu4.h **** 
1073:C:/Users/Utente/Desktop/Tesi/Firmware_Software/DAVE project/S2GLP_Pulsed_Doppler/Libraries/XMCLib/inc\xmc_ccu4.h **** /**
1074:C:/Users/Utente/Desktop/Tesi/Firmware_Software/DAVE project/S2GLP_Pulsed_Doppler/Libraries/XMCLib/inc\xmc_ccu4.h ****  * @param slice Constant pointer to CC4 Slice
1075:C:/Users/Utente/Desktop/Tesi/Firmware_Software/DAVE project/S2GLP_Pulsed_Doppler/Libraries/XMCLib/inc\xmc_ccu4.h ****  * @param event Map an External event to the External Modulation Function
1076:C:/Users/Utente/Desktop/Tesi/Firmware_Software/DAVE project/S2GLP_Pulsed_Doppler/Libraries/XMCLib/inc\xmc_ccu4.h ****  * @param mod_mode Desired Modulation mode
1077:C:/Users/Utente/Desktop/Tesi/Firmware_Software/DAVE project/S2GLP_Pulsed_Doppler/Libraries/XMCLib/inc\xmc_ccu4.h ****  * @param synch_with_pwm Option to synchronize modulation with PWM start
1078:C:/Users/Utente/Desktop/Tesi/Firmware_Software/DAVE project/S2GLP_Pulsed_Doppler/Libraries/XMCLib/inc\xmc_ccu4.h ****  *                       Pass \b true if the modulation needs to be synchronized with PWM signal.
1079:C:/Users/Utente/Desktop/Tesi/Firmware_Software/DAVE project/S2GLP_Pulsed_Doppler/Libraries/XMCLib/inc\xmc_ccu4.h ****  * @return <BR>
1080:C:/Users/Utente/Desktop/Tesi/Firmware_Software/DAVE project/S2GLP_Pulsed_Doppler/Libraries/XMCLib/inc\xmc_ccu4.h ****  *    None<BR>
1081:C:/Users/Utente/Desktop/Tesi/Firmware_Software/DAVE project/S2GLP_Pulsed_Doppler/Libraries/XMCLib/inc\xmc_ccu4.h ****  * 
1082:C:/Users/Utente/Desktop/Tesi/Firmware_Software/DAVE project/S2GLP_Pulsed_Doppler/Libraries/XMCLib/inc\xmc_ccu4.h ****  * \par<b>Description:</b><br>
1083:C:/Users/Utente/Desktop/Tesi/Firmware_Software/DAVE project/S2GLP_Pulsed_Doppler/Libraries/XMCLib/inc\xmc_ccu4.h ****  * Configures the Output Modulation Function of the slice, by configuring CCeyCMC.MOS, CC4yTC.EMT a
1084:C:/Users/Utente/Desktop/Tesi/Firmware_Software/DAVE project/S2GLP_Pulsed_Doppler/Libraries/XMCLib/inc\xmc_ccu4.h ****  * CC4yTC.EMS bits.\n\n
1085:C:/Users/Utente/Desktop/Tesi/Firmware_Software/DAVE project/S2GLP_Pulsed_Doppler/Libraries/XMCLib/inc\xmc_ccu4.h ****  * Modulation function is mapped with one of the 3 events. The output signal of the CCU can
1086:C:/Users/Utente/Desktop/Tesi/Firmware_Software/DAVE project/S2GLP_Pulsed_Doppler/Libraries/XMCLib/inc\xmc_ccu4.h ****  * be modulated according to a external input.  Additionally, the behaviour of the slice upon activ
1087:C:/Users/Utente/Desktop/Tesi/Firmware_Software/DAVE project/S2GLP_Pulsed_Doppler/Libraries/XMCLib/inc\xmc_ccu4.h ****  * of the modulation function is configured as well.
1088:C:/Users/Utente/Desktop/Tesi/Firmware_Software/DAVE project/S2GLP_Pulsed_Doppler/Libraries/XMCLib/inc\xmc_ccu4.h ****  *
1089:C:/Users/Utente/Desktop/Tesi/Firmware_Software/DAVE project/S2GLP_Pulsed_Doppler/Libraries/XMCLib/inc\xmc_ccu4.h ****  * \par<b>Related APIs:</b><br>
1090:C:/Users/Utente/Desktop/Tesi/Firmware_Software/DAVE project/S2GLP_Pulsed_Doppler/Libraries/XMCLib/inc\xmc_ccu4.h ****  *  XMC_CCU4_SLICE_ConfigureEvent()<BR> XMC_CCU4_SLICE_SetInput().
1091:C:/Users/Utente/Desktop/Tesi/Firmware_Software/DAVE project/S2GLP_Pulsed_Doppler/Libraries/XMCLib/inc\xmc_ccu4.h ****  */
1092:C:/Users/Utente/Desktop/Tesi/Firmware_Software/DAVE project/S2GLP_Pulsed_Doppler/Libraries/XMCLib/inc\xmc_ccu4.h **** void XMC_CCU4_SLICE_ModulationConfig(XMC_CCU4_SLICE_t *const slice,
1093:C:/Users/Utente/Desktop/Tesi/Firmware_Software/DAVE project/S2GLP_Pulsed_Doppler/Libraries/XMCLib/inc\xmc_ccu4.h ****                                      const XMC_CCU4_SLICE_EVENT_t event,
1094:C:/Users/Utente/Desktop/Tesi/Firmware_Software/DAVE project/S2GLP_Pulsed_Doppler/Libraries/XMCLib/inc\xmc_ccu4.h ****                                      const XMC_CCU4_SLICE_MODULATION_MODE_t mod_mode,
1095:C:/Users/Utente/Desktop/Tesi/Firmware_Software/DAVE project/S2GLP_Pulsed_Doppler/Libraries/XMCLib/inc\xmc_ccu4.h ****                                      const bool synch_with_pwm);
1096:C:/Users/Utente/Desktop/Tesi/Firmware_Software/DAVE project/S2GLP_Pulsed_Doppler/Libraries/XMCLib/inc\xmc_ccu4.h **** 
1097:C:/Users/Utente/Desktop/Tesi/Firmware_Software/DAVE project/S2GLP_Pulsed_Doppler/Libraries/XMCLib/inc\xmc_ccu4.h **** /**
1098:C:/Users/Utente/Desktop/Tesi/Firmware_Software/DAVE project/S2GLP_Pulsed_Doppler/Libraries/XMCLib/inc\xmc_ccu4.h ****  * @param slice Constant pointer to CC4 Slice
1099:C:/Users/Utente/Desktop/Tesi/Firmware_Software/DAVE project/S2GLP_Pulsed_Doppler/Libraries/XMCLib/inc\xmc_ccu4.h ****  * @param event Map an External event to the External Count Function
1100:C:/Users/Utente/Desktop/Tesi/Firmware_Software/DAVE project/S2GLP_Pulsed_Doppler/Libraries/XMCLib/inc\xmc_ccu4.h ****  * @return <BR>
1101:C:/Users/Utente/Desktop/Tesi/Firmware_Software/DAVE project/S2GLP_Pulsed_Doppler/Libraries/XMCLib/inc\xmc_ccu4.h ****  *    None<BR>
1102:C:/Users/Utente/Desktop/Tesi/Firmware_Software/DAVE project/S2GLP_Pulsed_Doppler/Libraries/XMCLib/inc\xmc_ccu4.h ****  * 
1103:C:/Users/Utente/Desktop/Tesi/Firmware_Software/DAVE project/S2GLP_Pulsed_Doppler/Libraries/XMCLib/inc\xmc_ccu4.h ****  * \par<b>Description:</b><br>
1104:C:/Users/Utente/Desktop/Tesi/Firmware_Software/DAVE project/S2GLP_Pulsed_Doppler/Libraries/XMCLib/inc\xmc_ccu4.h ****  * Configures the Count Function of the slice, by configuring CC4yCMC.CNTS bit.\n\n
1105:C:/Users/Utente/Desktop/Tesi/Firmware_Software/DAVE project/S2GLP_Pulsed_Doppler/Libraries/XMCLib/inc\xmc_ccu4.h ****  * Count function is mapped with one of the 3 events. CCU4 slice can take an external
1106:C:/Users/Utente/Desktop/Tesi/Firmware_Software/DAVE project/S2GLP_Pulsed_Doppler/Libraries/XMCLib/inc\xmc_ccu4.h ****  * signal to act as the counting event. The CCU4 slice would count the
1107:C:/Users/Utente/Desktop/Tesi/Firmware_Software/DAVE project/S2GLP_Pulsed_Doppler/Libraries/XMCLib/inc\xmc_ccu4.h ****  * edges present on the \b event selected.
1108:C:/Users/Utente/Desktop/Tesi/Firmware_Software/DAVE project/S2GLP_Pulsed_Doppler/Libraries/XMCLib/inc\xmc_ccu4.h ****  *
1109:C:/Users/Utente/Desktop/Tesi/Firmware_Software/DAVE project/S2GLP_Pulsed_Doppler/Libraries/XMCLib/inc\xmc_ccu4.h ****  * \par<b>Related APIs:</b><br>
1110:C:/Users/Utente/Desktop/Tesi/Firmware_Software/DAVE project/S2GLP_Pulsed_Doppler/Libraries/XMCLib/inc\xmc_ccu4.h ****  *  XMC_CCU4_SLICE_ConfigureEvent()<BR> XMC_CCU4_SLICE_SetInput().
1111:C:/Users/Utente/Desktop/Tesi/Firmware_Software/DAVE project/S2GLP_Pulsed_Doppler/Libraries/XMCLib/inc\xmc_ccu4.h ****  */
1112:C:/Users/Utente/Desktop/Tesi/Firmware_Software/DAVE project/S2GLP_Pulsed_Doppler/Libraries/XMCLib/inc\xmc_ccu4.h **** void XMC_CCU4_SLICE_CountConfig(XMC_CCU4_SLICE_t *const slice, const XMC_CCU4_SLICE_EVENT_t event);
1113:C:/Users/Utente/Desktop/Tesi/Firmware_Software/DAVE project/S2GLP_Pulsed_Doppler/Libraries/XMCLib/inc\xmc_ccu4.h **** 
1114:C:/Users/Utente/Desktop/Tesi/Firmware_Software/DAVE project/S2GLP_Pulsed_Doppler/Libraries/XMCLib/inc\xmc_ccu4.h **** /**
1115:C:/Users/Utente/Desktop/Tesi/Firmware_Software/DAVE project/S2GLP_Pulsed_Doppler/Libraries/XMCLib/inc\xmc_ccu4.h ****  * @param slice Constant pointer to CC4 Slice
1116:C:/Users/Utente/Desktop/Tesi/Firmware_Software/DAVE project/S2GLP_Pulsed_Doppler/Libraries/XMCLib/inc\xmc_ccu4.h ****  * @param event  Map an External event to the External Gating Function
1117:C:/Users/Utente/Desktop/Tesi/Firmware_Software/DAVE project/S2GLP_Pulsed_Doppler/Libraries/XMCLib/inc\xmc_ccu4.h ****  * @return <BR>
1118:C:/Users/Utente/Desktop/Tesi/Firmware_Software/DAVE project/S2GLP_Pulsed_Doppler/Libraries/XMCLib/inc\xmc_ccu4.h ****  *    None<BR>
1119:C:/Users/Utente/Desktop/Tesi/Firmware_Software/DAVE project/S2GLP_Pulsed_Doppler/Libraries/XMCLib/inc\xmc_ccu4.h ****  * 
1120:C:/Users/Utente/Desktop/Tesi/Firmware_Software/DAVE project/S2GLP_Pulsed_Doppler/Libraries/XMCLib/inc\xmc_ccu4.h ****  * \par<b>Description:</b><br>
1121:C:/Users/Utente/Desktop/Tesi/Firmware_Software/DAVE project/S2GLP_Pulsed_Doppler/Libraries/XMCLib/inc\xmc_ccu4.h ****  * Configures the Gating Function of the slice, by configuring CC4yCMC.GATES bit.\n\n
1122:C:/Users/Utente/Desktop/Tesi/Firmware_Software/DAVE project/S2GLP_Pulsed_Doppler/Libraries/XMCLib/inc\xmc_ccu4.h ****  * Gating function is mapped with one of the 3 events.  A CCU4 slice can use an input signal that w
1123:C:/Users/Utente/Desktop/Tesi/Firmware_Software/DAVE project/S2GLP_Pulsed_Doppler/Libraries/XMCLib/inc\xmc_ccu4.h ****  * operate as counter gating. If the configured Active level is detected the counter will gate all 
1124:C:/Users/Utente/Desktop/Tesi/Firmware_Software/DAVE project/S2GLP_Pulsed_Doppler/Libraries/XMCLib/inc\xmc_ccu4.h ****  *
1125:C:/Users/Utente/Desktop/Tesi/Firmware_Software/DAVE project/S2GLP_Pulsed_Doppler/Libraries/XMCLib/inc\xmc_ccu4.h ****  * \par<b>Related APIs:</b><br>
1126:C:/Users/Utente/Desktop/Tesi/Firmware_Software/DAVE project/S2GLP_Pulsed_Doppler/Libraries/XMCLib/inc\xmc_ccu4.h ****  *  XMC_CCU4_SLICE_ConfigureEvent()<BR> XMC_CCU4_SLICE_SetInput().
1127:C:/Users/Utente/Desktop/Tesi/Firmware_Software/DAVE project/S2GLP_Pulsed_Doppler/Libraries/XMCLib/inc\xmc_ccu4.h ****  */
1128:C:/Users/Utente/Desktop/Tesi/Firmware_Software/DAVE project/S2GLP_Pulsed_Doppler/Libraries/XMCLib/inc\xmc_ccu4.h **** void XMC_CCU4_SLICE_GateConfig(XMC_CCU4_SLICE_t *const slice, const XMC_CCU4_SLICE_EVENT_t event);
1129:C:/Users/Utente/Desktop/Tesi/Firmware_Software/DAVE project/S2GLP_Pulsed_Doppler/Libraries/XMCLib/inc\xmc_ccu4.h **** 
1130:C:/Users/Utente/Desktop/Tesi/Firmware_Software/DAVE project/S2GLP_Pulsed_Doppler/Libraries/XMCLib/inc\xmc_ccu4.h **** /**
1131:C:/Users/Utente/Desktop/Tesi/Firmware_Software/DAVE project/S2GLP_Pulsed_Doppler/Libraries/XMCLib/inc\xmc_ccu4.h ****  * @param slice Constant pointer to CC4 Slice
1132:C:/Users/Utente/Desktop/Tesi/Firmware_Software/DAVE project/S2GLP_Pulsed_Doppler/Libraries/XMCLib/inc\xmc_ccu4.h ****  * @param event Map an External event to the Capture-0 Function
1133:C:/Users/Utente/Desktop/Tesi/Firmware_Software/DAVE project/S2GLP_Pulsed_Doppler/Libraries/XMCLib/inc\xmc_ccu4.h ****  * @return <BR>
1134:C:/Users/Utente/Desktop/Tesi/Firmware_Software/DAVE project/S2GLP_Pulsed_Doppler/Libraries/XMCLib/inc\xmc_ccu4.h ****  *    None<BR>
1135:C:/Users/Utente/Desktop/Tesi/Firmware_Software/DAVE project/S2GLP_Pulsed_Doppler/Libraries/XMCLib/inc\xmc_ccu4.h ****  * 
1136:C:/Users/Utente/Desktop/Tesi/Firmware_Software/DAVE project/S2GLP_Pulsed_Doppler/Libraries/XMCLib/inc\xmc_ccu4.h ****  * \par<b>Description:</b><br>
1137:C:/Users/Utente/Desktop/Tesi/Firmware_Software/DAVE project/S2GLP_Pulsed_Doppler/Libraries/XMCLib/inc\xmc_ccu4.h ****  * Configures the Capture-0 Function of the slice, by configuring CC4yCMC.CAP0S bit.\n\n
1138:C:/Users/Utente/Desktop/Tesi/Firmware_Software/DAVE project/S2GLP_Pulsed_Doppler/Libraries/XMCLib/inc\xmc_ccu4.h ****  * Capture function is mapped with one of the 3 events.  A CCU4 slice can be configured into captur
1139:C:/Users/Utente/Desktop/Tesi/Firmware_Software/DAVE project/S2GLP_Pulsed_Doppler/Libraries/XMCLib/inc\xmc_ccu4.h ****  * with the selected \b event. In this mode the CCU4 will capture the timer value into CC4yC0V and 
1140:C:/Users/Utente/Desktop/Tesi/Firmware_Software/DAVE project/S2GLP_Pulsed_Doppler/Libraries/XMCLib/inc\xmc_ccu4.h ****  *
1141:C:/Users/Utente/Desktop/Tesi/Firmware_Software/DAVE project/S2GLP_Pulsed_Doppler/Libraries/XMCLib/inc\xmc_ccu4.h ****  * \par<b>Related APIs:</b><br>
1142:C:/Users/Utente/Desktop/Tesi/Firmware_Software/DAVE project/S2GLP_Pulsed_Doppler/Libraries/XMCLib/inc\xmc_ccu4.h ****  *  XMC_CCU4_SLICE_ConfigureEvent()<BR> XMC_CCU4_SLICE_SetInput().
1143:C:/Users/Utente/Desktop/Tesi/Firmware_Software/DAVE project/S2GLP_Pulsed_Doppler/Libraries/XMCLib/inc\xmc_ccu4.h ****  */
1144:C:/Users/Utente/Desktop/Tesi/Firmware_Software/DAVE project/S2GLP_Pulsed_Doppler/Libraries/XMCLib/inc\xmc_ccu4.h **** void XMC_CCU4_SLICE_Capture0Config(XMC_CCU4_SLICE_t *const slice, const XMC_CCU4_SLICE_EVENT_t even
1145:C:/Users/Utente/Desktop/Tesi/Firmware_Software/DAVE project/S2GLP_Pulsed_Doppler/Libraries/XMCLib/inc\xmc_ccu4.h **** 
1146:C:/Users/Utente/Desktop/Tesi/Firmware_Software/DAVE project/S2GLP_Pulsed_Doppler/Libraries/XMCLib/inc\xmc_ccu4.h **** /**
1147:C:/Users/Utente/Desktop/Tesi/Firmware_Software/DAVE project/S2GLP_Pulsed_Doppler/Libraries/XMCLib/inc\xmc_ccu4.h ****  * @param slice Constant pointer to CC4 Slice
1148:C:/Users/Utente/Desktop/Tesi/Firmware_Software/DAVE project/S2GLP_Pulsed_Doppler/Libraries/XMCLib/inc\xmc_ccu4.h ****  * @param event Map an External event to the Capture-1 Function
1149:C:/Users/Utente/Desktop/Tesi/Firmware_Software/DAVE project/S2GLP_Pulsed_Doppler/Libraries/XMCLib/inc\xmc_ccu4.h ****  * @return <BR>
1150:C:/Users/Utente/Desktop/Tesi/Firmware_Software/DAVE project/S2GLP_Pulsed_Doppler/Libraries/XMCLib/inc\xmc_ccu4.h ****  *    None<BR>
1151:C:/Users/Utente/Desktop/Tesi/Firmware_Software/DAVE project/S2GLP_Pulsed_Doppler/Libraries/XMCLib/inc\xmc_ccu4.h ****  * 
1152:C:/Users/Utente/Desktop/Tesi/Firmware_Software/DAVE project/S2GLP_Pulsed_Doppler/Libraries/XMCLib/inc\xmc_ccu4.h ****  * \par<b>Description:</b><br>
1153:C:/Users/Utente/Desktop/Tesi/Firmware_Software/DAVE project/S2GLP_Pulsed_Doppler/Libraries/XMCLib/inc\xmc_ccu4.h ****  * Configures the Capture-1 Function of the slice, by configuring CC4yCMC.CAP1S bit.\n\n
1154:C:/Users/Utente/Desktop/Tesi/Firmware_Software/DAVE project/S2GLP_Pulsed_Doppler/Libraries/XMCLib/inc\xmc_ccu4.h ****  * Capture function is mapped with one of the 3 events. A CCU4 slice can be configured into capture
1155:C:/Users/Utente/Desktop/Tesi/Firmware_Software/DAVE project/S2GLP_Pulsed_Doppler/Libraries/XMCLib/inc\xmc_ccu4.h ****  * mode with the selected \b event. In this mode the CCU4 will capture the timer value into CC4yC2V
1156:C:/Users/Utente/Desktop/Tesi/Firmware_Software/DAVE project/S2GLP_Pulsed_Doppler/Libraries/XMCLib/inc\xmc_ccu4.h ****  *
1157:C:/Users/Utente/Desktop/Tesi/Firmware_Software/DAVE project/S2GLP_Pulsed_Doppler/Libraries/XMCLib/inc\xmc_ccu4.h ****  * \par<b>Related APIs:</b><br>
1158:C:/Users/Utente/Desktop/Tesi/Firmware_Software/DAVE project/S2GLP_Pulsed_Doppler/Libraries/XMCLib/inc\xmc_ccu4.h ****  *  XMC_CCU4_SLICE_ConfigureEvent()<BR> XMC_CCU4_SLICE_SetInput().
1159:C:/Users/Utente/Desktop/Tesi/Firmware_Software/DAVE project/S2GLP_Pulsed_Doppler/Libraries/XMCLib/inc\xmc_ccu4.h ****  */
1160:C:/Users/Utente/Desktop/Tesi/Firmware_Software/DAVE project/S2GLP_Pulsed_Doppler/Libraries/XMCLib/inc\xmc_ccu4.h **** void XMC_CCU4_SLICE_Capture1Config(XMC_CCU4_SLICE_t *const slice, const XMC_CCU4_SLICE_EVENT_t even
1161:C:/Users/Utente/Desktop/Tesi/Firmware_Software/DAVE project/S2GLP_Pulsed_Doppler/Libraries/XMCLib/inc\xmc_ccu4.h **** 
1162:C:/Users/Utente/Desktop/Tesi/Firmware_Software/DAVE project/S2GLP_Pulsed_Doppler/Libraries/XMCLib/inc\xmc_ccu4.h **** /**
1163:C:/Users/Utente/Desktop/Tesi/Firmware_Software/DAVE project/S2GLP_Pulsed_Doppler/Libraries/XMCLib/inc\xmc_ccu4.h ****  * @param slice Constant pointer to CC4 Slice
1164:C:/Users/Utente/Desktop/Tesi/Firmware_Software/DAVE project/S2GLP_Pulsed_Doppler/Libraries/XMCLib/inc\xmc_ccu4.h ****  * @return <BR>
1165:C:/Users/Utente/Desktop/Tesi/Firmware_Software/DAVE project/S2GLP_Pulsed_Doppler/Libraries/XMCLib/inc\xmc_ccu4.h ****  *    bool would return true if the extended capture read back mode is enabled<BR>
1166:C:/Users/Utente/Desktop/Tesi/Firmware_Software/DAVE project/S2GLP_Pulsed_Doppler/Libraries/XMCLib/inc\xmc_ccu4.h ****  *
1167:C:/Users/Utente/Desktop/Tesi/Firmware_Software/DAVE project/S2GLP_Pulsed_Doppler/Libraries/XMCLib/inc\xmc_ccu4.h ****  * \par<b>Description:</b><br>
1168:C:/Users/Utente/Desktop/Tesi/Firmware_Software/DAVE project/S2GLP_Pulsed_Doppler/Libraries/XMCLib/inc\xmc_ccu4.h ****  * Checks if Extended capture mode read is enabled for particular slice or not, by reading CC4yTC.E
1169:C:/Users/Utente/Desktop/Tesi/Firmware_Software/DAVE project/S2GLP_Pulsed_Doppler/Libraries/XMCLib/inc\xmc_ccu4.h ****  * In this mode the there is only one associated read address for all the capture registers.
1170:C:/Users/Utente/Desktop/Tesi/Firmware_Software/DAVE project/S2GLP_Pulsed_Doppler/Libraries/XMCLib/inc\xmc_ccu4.h ****  * Individual capture registers can still be accessed in this mode.
1171:C:/Users/Utente/Desktop/Tesi/Firmware_Software/DAVE project/S2GLP_Pulsed_Doppler/Libraries/XMCLib/inc\xmc_ccu4.h ****  *
1172:C:/Users/Utente/Desktop/Tesi/Firmware_Software/DAVE project/S2GLP_Pulsed_Doppler/Libraries/XMCLib/inc\xmc_ccu4.h ****  * \par<b>Related APIs:</b><br>
1173:C:/Users/Utente/Desktop/Tesi/Firmware_Software/DAVE project/S2GLP_Pulsed_Doppler/Libraries/XMCLib/inc\xmc_ccu4.h ****  *  XMC_CCU4_GetCapturedValueFromFifo().
1174:C:/Users/Utente/Desktop/Tesi/Firmware_Software/DAVE project/S2GLP_Pulsed_Doppler/Libraries/XMCLib/inc\xmc_ccu4.h ****  */
1175:C:/Users/Utente/Desktop/Tesi/Firmware_Software/DAVE project/S2GLP_Pulsed_Doppler/Libraries/XMCLib/inc\xmc_ccu4.h **** __STATIC_INLINE bool XMC_CCU4_SLICE_IsExtendedCapReadEnabled(const XMC_CCU4_SLICE_t *const slice)
1176:C:/Users/Utente/Desktop/Tesi/Firmware_Software/DAVE project/S2GLP_Pulsed_Doppler/Libraries/XMCLib/inc\xmc_ccu4.h **** {
1177:C:/Users/Utente/Desktop/Tesi/Firmware_Software/DAVE project/S2GLP_Pulsed_Doppler/Libraries/XMCLib/inc\xmc_ccu4.h ****   XMC_ASSERT("XMC_CCU4_SLICE_IsExtendedCapReadEnabled:Invalid Module Pointer", XMC_CCU4_IsValidSlic
1178:C:/Users/Utente/Desktop/Tesi/Firmware_Software/DAVE project/S2GLP_Pulsed_Doppler/Libraries/XMCLib/inc\xmc_ccu4.h ****   return((bool)((slice->TC & (uint32_t) CCU4_CC4_TC_ECM_Msk) == (uint32_t)CCU4_CC4_TC_ECM_Msk));
1179:C:/Users/Utente/Desktop/Tesi/Firmware_Software/DAVE project/S2GLP_Pulsed_Doppler/Libraries/XMCLib/inc\xmc_ccu4.h **** }
1180:C:/Users/Utente/Desktop/Tesi/Firmware_Software/DAVE project/S2GLP_Pulsed_Doppler/Libraries/XMCLib/inc\xmc_ccu4.h **** 
1181:C:/Users/Utente/Desktop/Tesi/Firmware_Software/DAVE project/S2GLP_Pulsed_Doppler/Libraries/XMCLib/inc\xmc_ccu4.h **** #if defined(CCU4V1) /* Defined for XMC4500, XMC4400, XMC4200, XMC4100 devices only */
1182:C:/Users/Utente/Desktop/Tesi/Firmware_Software/DAVE project/S2GLP_Pulsed_Doppler/Libraries/XMCLib/inc\xmc_ccu4.h **** /**
1183:C:/Users/Utente/Desktop/Tesi/Firmware_Software/DAVE project/S2GLP_Pulsed_Doppler/Libraries/XMCLib/inc\xmc_ccu4.h ****  * @param module Constant pointer to CCU4 module
1184:C:/Users/Utente/Desktop/Tesi/Firmware_Software/DAVE project/S2GLP_Pulsed_Doppler/Libraries/XMCLib/inc\xmc_ccu4.h ****  * @param slice_number to check whether read value belongs to required slice or not
1185:C:/Users/Utente/Desktop/Tesi/Firmware_Software/DAVE project/S2GLP_Pulsed_Doppler/Libraries/XMCLib/inc\xmc_ccu4.h ****  * @return <BR>
1186:C:/Users/Utente/Desktop/Tesi/Firmware_Software/DAVE project/S2GLP_Pulsed_Doppler/Libraries/XMCLib/inc\xmc_ccu4.h ****  *   int32_t   Returns -1 if the FIFO value being retrieved is not from the \b slice_number.
1187:C:/Users/Utente/Desktop/Tesi/Firmware_Software/DAVE project/S2GLP_Pulsed_Doppler/Libraries/XMCLib/inc\xmc_ccu4.h ****  *             Returns the value captured in the \b slice_number, if captured value is from the cor
1188:C:/Users/Utente/Desktop/Tesi/Firmware_Software/DAVE project/S2GLP_Pulsed_Doppler/Libraries/XMCLib/inc\xmc_ccu4.h ****  *                     Range: [0x0 to 0xFFFF]
1189:C:/Users/Utente/Desktop/Tesi/Firmware_Software/DAVE project/S2GLP_Pulsed_Doppler/Libraries/XMCLib/inc\xmc_ccu4.h ****  *
1190:C:/Users/Utente/Desktop/Tesi/Firmware_Software/DAVE project/S2GLP_Pulsed_Doppler/Libraries/XMCLib/inc\xmc_ccu4.h ****  * \par<b>Description:</b><br>
1191:C:/Users/Utente/Desktop/Tesi/Firmware_Software/DAVE project/S2GLP_Pulsed_Doppler/Libraries/XMCLib/inc\xmc_ccu4.h ****  * Read captured value from FIFO(ECRD register).\n\n
1192:C:/Users/Utente/Desktop/Tesi/Firmware_Software/DAVE project/S2GLP_Pulsed_Doppler/Libraries/XMCLib/inc\xmc_ccu4.h ****  * This is applicable only in the Capture mode of operation. The signal whose timing characteristic
1193:C:/Users/Utente/Desktop/Tesi/Firmware_Software/DAVE project/S2GLP_Pulsed_Doppler/Libraries/XMCLib/inc\xmc_ccu4.h ****  * must be mapped to an event which in turn must be mapped to the capture function. Based on the ca
1194:C:/Users/Utente/Desktop/Tesi/Firmware_Software/DAVE project/S2GLP_Pulsed_Doppler/Libraries/XMCLib/inc\xmc_ccu4.h ****  * instant timer values are captured into capture registers. Timing characteristics of the input si
1195:C:/Users/Utente/Desktop/Tesi/Firmware_Software/DAVE project/S2GLP_Pulsed_Doppler/Libraries/XMCLib/inc\xmc_ccu4.h ****  * derived/inferred from the captured values.
1196:C:/Users/Utente/Desktop/Tesi/Firmware_Software/DAVE project/S2GLP_Pulsed_Doppler/Libraries/XMCLib/inc\xmc_ccu4.h ****  *
1197:C:/Users/Utente/Desktop/Tesi/Firmware_Software/DAVE project/S2GLP_Pulsed_Doppler/Libraries/XMCLib/inc\xmc_ccu4.h ****  * \par<b>Related APIs:</b><br>
1198:C:/Users/Utente/Desktop/Tesi/Firmware_Software/DAVE project/S2GLP_Pulsed_Doppler/Libraries/XMCLib/inc\xmc_ccu4.h ****  *  XMC_CCU4_SLICE_IsExtendedCapReadEnabled().
1199:C:/Users/Utente/Desktop/Tesi/Firmware_Software/DAVE project/S2GLP_Pulsed_Doppler/Libraries/XMCLib/inc\xmc_ccu4.h ****  *  @note Only available for XMC4500, XMC4400, XMC4200 and XMC4100 series 
1200:C:/Users/Utente/Desktop/Tesi/Firmware_Software/DAVE project/S2GLP_Pulsed_Doppler/Libraries/XMCLib/inc\xmc_ccu4.h ****  */
1201:C:/Users/Utente/Desktop/Tesi/Firmware_Software/DAVE project/S2GLP_Pulsed_Doppler/Libraries/XMCLib/inc\xmc_ccu4.h **** int32_t XMC_CCU4_GetCapturedValueFromFifo(const XMC_CCU4_MODULE_t *const module, const uint8_t slic
1202:C:/Users/Utente/Desktop/Tesi/Firmware_Software/DAVE project/S2GLP_Pulsed_Doppler/Libraries/XMCLib/inc\xmc_ccu4.h **** #else
1203:C:/Users/Utente/Desktop/Tesi/Firmware_Software/DAVE project/S2GLP_Pulsed_Doppler/Libraries/XMCLib/inc\xmc_ccu4.h **** /**
1204:C:/Users/Utente/Desktop/Tesi/Firmware_Software/DAVE project/S2GLP_Pulsed_Doppler/Libraries/XMCLib/inc\xmc_ccu4.h ****  * @param slice Constant pointer to CC4 Slice
1205:C:/Users/Utente/Desktop/Tesi/Firmware_Software/DAVE project/S2GLP_Pulsed_Doppler/Libraries/XMCLib/inc\xmc_ccu4.h ****  * @param set The capture register set from which the captured value is to be retrieved
1206:C:/Users/Utente/Desktop/Tesi/Firmware_Software/DAVE project/S2GLP_Pulsed_Doppler/Libraries/XMCLib/inc\xmc_ccu4.h ****  * @return <BR>
1207:C:/Users/Utente/Desktop/Tesi/Firmware_Software/DAVE project/S2GLP_Pulsed_Doppler/Libraries/XMCLib/inc\xmc_ccu4.h ****  *    uint32_t Returns the value captured in the \b slice_number
1208:C:/Users/Utente/Desktop/Tesi/Firmware_Software/DAVE project/S2GLP_Pulsed_Doppler/Libraries/XMCLib/inc\xmc_ccu4.h ****  *             Range: [0x0 to 0xFFFF]
1209:C:/Users/Utente/Desktop/Tesi/Firmware_Software/DAVE project/S2GLP_Pulsed_Doppler/Libraries/XMCLib/inc\xmc_ccu4.h ****  *
1210:C:/Users/Utente/Desktop/Tesi/Firmware_Software/DAVE project/S2GLP_Pulsed_Doppler/Libraries/XMCLib/inc\xmc_ccu4.h ****  * \par<b>Description:</b><br>
1211:C:/Users/Utente/Desktop/Tesi/Firmware_Software/DAVE project/S2GLP_Pulsed_Doppler/Libraries/XMCLib/inc\xmc_ccu4.h ****  * Read captured value from FIFO(CC4yECRD0 and CC4yECRD1).\n\n
1212:C:/Users/Utente/Desktop/Tesi/Firmware_Software/DAVE project/S2GLP_Pulsed_Doppler/Libraries/XMCLib/inc\xmc_ccu4.h ****  * This is applicable only in the Capture mode of operation. The signal whose timing characteristic
1213:C:/Users/Utente/Desktop/Tesi/Firmware_Software/DAVE project/S2GLP_Pulsed_Doppler/Libraries/XMCLib/inc\xmc_ccu4.h ****  * must be mapped to an event which in turn must be mapped to the capture function. Based on the ca
1214:C:/Users/Utente/Desktop/Tesi/Firmware_Software/DAVE project/S2GLP_Pulsed_Doppler/Libraries/XMCLib/inc\xmc_ccu4.h ****  * instant timer values are captured into capture registers. Timing characteristics of the input si
1215:C:/Users/Utente/Desktop/Tesi/Firmware_Software/DAVE project/S2GLP_Pulsed_Doppler/Libraries/XMCLib/inc\xmc_ccu4.h ****  * derived/inferred from the captured values.
1216:C:/Users/Utente/Desktop/Tesi/Firmware_Software/DAVE project/S2GLP_Pulsed_Doppler/Libraries/XMCLib/inc\xmc_ccu4.h ****  *
1217:C:/Users/Utente/Desktop/Tesi/Firmware_Software/DAVE project/S2GLP_Pulsed_Doppler/Libraries/XMCLib/inc\xmc_ccu4.h ****  * \par<b>Related APIs:</b><br>
1218:C:/Users/Utente/Desktop/Tesi/Firmware_Software/DAVE project/S2GLP_Pulsed_Doppler/Libraries/XMCLib/inc\xmc_ccu4.h ****  *  XMC_CCU4_SLICE_IsExtendedCapReadEnabled().
1219:C:/Users/Utente/Desktop/Tesi/Firmware_Software/DAVE project/S2GLP_Pulsed_Doppler/Libraries/XMCLib/inc\xmc_ccu4.h ****  * @note Defined for XMC4800, XMC4700, XMC4500, XMC4400, XMC4200, XMC4100 devices only. For other d
1220:C:/Users/Utente/Desktop/Tesi/Firmware_Software/DAVE project/S2GLP_Pulsed_Doppler/Libraries/XMCLib/inc\xmc_ccu4.h ****  */
1221:C:/Users/Utente/Desktop/Tesi/Firmware_Software/DAVE project/S2GLP_Pulsed_Doppler/Libraries/XMCLib/inc\xmc_ccu4.h **** uint32_t XMC_CCU4_SLICE_GetCapturedValueFromFifo(const XMC_CCU4_SLICE_t *const slice,
1222:C:/Users/Utente/Desktop/Tesi/Firmware_Software/DAVE project/S2GLP_Pulsed_Doppler/Libraries/XMCLib/inc\xmc_ccu4.h **** 		                                             const XMC_CCU4_SLICE_CAP_REG_SET_t set);
1223:C:/Users/Utente/Desktop/Tesi/Firmware_Software/DAVE project/S2GLP_Pulsed_Doppler/Libraries/XMCLib/inc\xmc_ccu4.h **** #endif
1224:C:/Users/Utente/Desktop/Tesi/Firmware_Software/DAVE project/S2GLP_Pulsed_Doppler/Libraries/XMCLib/inc\xmc_ccu4.h **** 
1225:C:/Users/Utente/Desktop/Tesi/Firmware_Software/DAVE project/S2GLP_Pulsed_Doppler/Libraries/XMCLib/inc\xmc_ccu4.h **** /**
1226:C:/Users/Utente/Desktop/Tesi/Firmware_Software/DAVE project/S2GLP_Pulsed_Doppler/Libraries/XMCLib/inc\xmc_ccu4.h ****  * @param slice Constant pointer to CC4 Slice
