   1              	 .syntax unified
   2              	 .cpu cortex-m4
   3              	 .eabi_attribute 27,3
   4              	 .fpu fpv4-sp-d16
   5              	 .eabi_attribute 20,1
   6              	 .eabi_attribute 21,1
   7              	 .eabi_attribute 23,3
   8              	 .eabi_attribute 24,1
   9              	 .eabi_attribute 25,1
  10              	 .eabi_attribute 26,1
  11              	 .eabi_attribute 30,2
  12              	 .eabi_attribute 34,1
  13              	 .eabi_attribute 18,4
  14              	 .thumb
  15              	 .file "arm_cos_q31.c"
  16              	 .text
  17              	.Ltext0:
  18              	 .cfi_sections .debug_frame
  19              	 .section .text.arm_cos_q31,"ax",%progbits
  20              	 .align 2
  21              	 .global arm_cos_q31
  22              	 .thumb
  23              	 .thumb_func
  25              	arm_cos_q31:
  26              	.LFB135:
  27              	 .file 1 "../Dave/Generated/CMSIS_DSP/FastMathFunctions/arm_cos_q31.c"
   1:../Dave/Generated/CMSIS_DSP/FastMathFunctions/arm_cos_q31.c **** /* ----------------------------------------------------------------------
   2:../Dave/Generated/CMSIS_DSP/FastMathFunctions/arm_cos_q31.c ****  * Project:      CMSIS DSP Library
   3:../Dave/Generated/CMSIS_DSP/FastMathFunctions/arm_cos_q31.c ****  * Title:        arm_cos_q31.c
   4:../Dave/Generated/CMSIS_DSP/FastMathFunctions/arm_cos_q31.c ****  * Description:  Fast cosine calculation for Q31 values
   5:../Dave/Generated/CMSIS_DSP/FastMathFunctions/arm_cos_q31.c ****  *
   6:../Dave/Generated/CMSIS_DSP/FastMathFunctions/arm_cos_q31.c ****  * $Date:        27. January 2017
   7:../Dave/Generated/CMSIS_DSP/FastMathFunctions/arm_cos_q31.c ****  * $Revision:    V.1.5.1
   8:../Dave/Generated/CMSIS_DSP/FastMathFunctions/arm_cos_q31.c ****  *
   9:../Dave/Generated/CMSIS_DSP/FastMathFunctions/arm_cos_q31.c ****  * Target Processor: Cortex-M cores
  10:../Dave/Generated/CMSIS_DSP/FastMathFunctions/arm_cos_q31.c ****  * -------------------------------------------------------------------- */
  11:../Dave/Generated/CMSIS_DSP/FastMathFunctions/arm_cos_q31.c **** /*
  12:../Dave/Generated/CMSIS_DSP/FastMathFunctions/arm_cos_q31.c ****  * Copyright (C) 2010-2017 ARM Limited or its affiliates. All rights reserved.
  13:../Dave/Generated/CMSIS_DSP/FastMathFunctions/arm_cos_q31.c ****  *
  14:../Dave/Generated/CMSIS_DSP/FastMathFunctions/arm_cos_q31.c ****  * SPDX-License-Identifier: Apache-2.0
  15:../Dave/Generated/CMSIS_DSP/FastMathFunctions/arm_cos_q31.c ****  *
  16:../Dave/Generated/CMSIS_DSP/FastMathFunctions/arm_cos_q31.c ****  * Licensed under the Apache License, Version 2.0 (the License); you may
  17:../Dave/Generated/CMSIS_DSP/FastMathFunctions/arm_cos_q31.c ****  * not use this file except in compliance with the License.
  18:../Dave/Generated/CMSIS_DSP/FastMathFunctions/arm_cos_q31.c ****  * You may obtain a copy of the License at
  19:../Dave/Generated/CMSIS_DSP/FastMathFunctions/arm_cos_q31.c ****  *
  20:../Dave/Generated/CMSIS_DSP/FastMathFunctions/arm_cos_q31.c ****  * www.apache.org/licenses/LICENSE-2.0
  21:../Dave/Generated/CMSIS_DSP/FastMathFunctions/arm_cos_q31.c ****  *
  22:../Dave/Generated/CMSIS_DSP/FastMathFunctions/arm_cos_q31.c ****  * Unless required by applicable law or agreed to in writing, software
  23:../Dave/Generated/CMSIS_DSP/FastMathFunctions/arm_cos_q31.c ****  * distributed under the License is distributed on an AS IS BASIS, WITHOUT
  24:../Dave/Generated/CMSIS_DSP/FastMathFunctions/arm_cos_q31.c ****  * WARRANTIES OR CONDITIONS OF ANY KIND, either express or implied.
  25:../Dave/Generated/CMSIS_DSP/FastMathFunctions/arm_cos_q31.c ****  * See the License for the specific language governing permissions and
  26:../Dave/Generated/CMSIS_DSP/FastMathFunctions/arm_cos_q31.c ****  * limitations under the License.
  27:../Dave/Generated/CMSIS_DSP/FastMathFunctions/arm_cos_q31.c ****  */
  28:../Dave/Generated/CMSIS_DSP/FastMathFunctions/arm_cos_q31.c **** 
  29:../Dave/Generated/CMSIS_DSP/FastMathFunctions/arm_cos_q31.c **** #include "CMSIS_DSP/cmsis_dsp.h"
  30:../Dave/Generated/CMSIS_DSP/FastMathFunctions/arm_cos_q31.c **** #include "CMSIS_DSP/arm_common_tables.h"
  31:../Dave/Generated/CMSIS_DSP/FastMathFunctions/arm_cos_q31.c **** 
  32:../Dave/Generated/CMSIS_DSP/FastMathFunctions/arm_cos_q31.c **** /**
  33:../Dave/Generated/CMSIS_DSP/FastMathFunctions/arm_cos_q31.c ****  * @ingroup groupFastMath
  34:../Dave/Generated/CMSIS_DSP/FastMathFunctions/arm_cos_q31.c ****  */
  35:../Dave/Generated/CMSIS_DSP/FastMathFunctions/arm_cos_q31.c **** 
  36:../Dave/Generated/CMSIS_DSP/FastMathFunctions/arm_cos_q31.c ****  /**
  37:../Dave/Generated/CMSIS_DSP/FastMathFunctions/arm_cos_q31.c ****  * @addtogroup cos
  38:../Dave/Generated/CMSIS_DSP/FastMathFunctions/arm_cos_q31.c ****  * @{
  39:../Dave/Generated/CMSIS_DSP/FastMathFunctions/arm_cos_q31.c ****  */
  40:../Dave/Generated/CMSIS_DSP/FastMathFunctions/arm_cos_q31.c **** 
  41:../Dave/Generated/CMSIS_DSP/FastMathFunctions/arm_cos_q31.c **** /**
  42:../Dave/Generated/CMSIS_DSP/FastMathFunctions/arm_cos_q31.c ****  * @brief Fast approximation to the trigonometric cosine function for Q31 data.
  43:../Dave/Generated/CMSIS_DSP/FastMathFunctions/arm_cos_q31.c ****  * @param[in] x Scaled input value in radians.
  44:../Dave/Generated/CMSIS_DSP/FastMathFunctions/arm_cos_q31.c ****  * @return  cos(x).
  45:../Dave/Generated/CMSIS_DSP/FastMathFunctions/arm_cos_q31.c ****  *
  46:../Dave/Generated/CMSIS_DSP/FastMathFunctions/arm_cos_q31.c ****  * The Q31 input value is in the range [0 +0.9999] and is mapped to a radian
  47:../Dave/Generated/CMSIS_DSP/FastMathFunctions/arm_cos_q31.c ****  * value in the range [0 2*pi).
  48:../Dave/Generated/CMSIS_DSP/FastMathFunctions/arm_cos_q31.c ****  */
  49:../Dave/Generated/CMSIS_DSP/FastMathFunctions/arm_cos_q31.c **** 
  50:../Dave/Generated/CMSIS_DSP/FastMathFunctions/arm_cos_q31.c **** q31_t arm_cos_q31(
  51:../Dave/Generated/CMSIS_DSP/FastMathFunctions/arm_cos_q31.c ****   q31_t x)
  52:../Dave/Generated/CMSIS_DSP/FastMathFunctions/arm_cos_q31.c **** {
  28              	 .loc 1 52 0
  29              	 .cfi_startproc
  30              	 
  31              	 
  32              	 
  33              	.LVL0:
  53:../Dave/Generated/CMSIS_DSP/FastMathFunctions/arm_cos_q31.c ****   q31_t cosVal;                                  /* Temporary variables for input, output */
  54:../Dave/Generated/CMSIS_DSP/FastMathFunctions/arm_cos_q31.c ****   int32_t index;                                 /* Index variables */
  55:../Dave/Generated/CMSIS_DSP/FastMathFunctions/arm_cos_q31.c ****   q31_t a, b;                                    /* Four nearest output values */
  56:../Dave/Generated/CMSIS_DSP/FastMathFunctions/arm_cos_q31.c ****   q31_t fract;                                   /* Temporary values for fractional values */
  57:../Dave/Generated/CMSIS_DSP/FastMathFunctions/arm_cos_q31.c **** 
  58:../Dave/Generated/CMSIS_DSP/FastMathFunctions/arm_cos_q31.c ****   /* add 0.25 (pi/2) to read sine table */
  59:../Dave/Generated/CMSIS_DSP/FastMathFunctions/arm_cos_q31.c ****   x = (uint32_t)x + 0x20000000;
  60:../Dave/Generated/CMSIS_DSP/FastMathFunctions/arm_cos_q31.c ****   if (x < 0)
  34              	 .loc 1 60 0
  35 0000 10F10053 	 adds r3,r0,#536870912
  36              	.LVL1:
  61:../Dave/Generated/CMSIS_DSP/FastMathFunctions/arm_cos_q31.c ****   {   /* convert negative numbers to corresponding positive ones */
  62:../Dave/Generated/CMSIS_DSP/FastMathFunctions/arm_cos_q31.c ****       x = (uint32_t)x + 0x80000000;
  37              	 .loc 1 62 0
  38 0004 48BF     	 it mi
  39 0006 00F12043 	 addmi r3,r0,#-1610612736
  40              	.LVL2:
  52:../Dave/Generated/CMSIS_DSP/FastMathFunctions/arm_cos_q31.c ****   q31_t cosVal;                                  /* Temporary variables for input, output */
  41              	 .loc 1 52 0
  42 000a 2DE9F003 	 push {r4,r5,r6,r7,r8,r9}
  43              	.LCFI0:
  44              	 .cfi_def_cfa_offset 24
  45              	 .cfi_offset 4,-24
  46              	 .cfi_offset 5,-20
  47              	 .cfi_offset 6,-16
  48              	 .cfi_offset 7,-12
  49              	 .cfi_offset 8,-8
  50              	 .cfi_offset 9,-4
  63:../Dave/Generated/CMSIS_DSP/FastMathFunctions/arm_cos_q31.c ****   }
  64:../Dave/Generated/CMSIS_DSP/FastMathFunctions/arm_cos_q31.c **** 
  65:../Dave/Generated/CMSIS_DSP/FastMathFunctions/arm_cos_q31.c ****   /* Calculate the nearest index */
  66:../Dave/Generated/CMSIS_DSP/FastMathFunctions/arm_cos_q31.c ****   index = (uint32_t)x >> FAST_MATH_Q31_SHIFT;
  51              	 .loc 1 66 0
  52 000e 9A0D     	 lsrs r2,r3,#22
  53              	.LVL3:
  67:../Dave/Generated/CMSIS_DSP/FastMathFunctions/arm_cos_q31.c **** 
  68:../Dave/Generated/CMSIS_DSP/FastMathFunctions/arm_cos_q31.c ****   /* Calculation of fractional value */
  69:../Dave/Generated/CMSIS_DSP/FastMathFunctions/arm_cos_q31.c ****   fract = (x - (index << FAST_MATH_Q31_SHIFT)) << 9;
  70:../Dave/Generated/CMSIS_DSP/FastMathFunctions/arm_cos_q31.c **** 
  71:../Dave/Generated/CMSIS_DSP/FastMathFunctions/arm_cos_q31.c ****   /* Read two nearest values of input value from the sin table */
  72:../Dave/Generated/CMSIS_DSP/FastMathFunctions/arm_cos_q31.c ****   a = sinTable_q31[index];
  73:../Dave/Generated/CMSIS_DSP/FastMathFunctions/arm_cos_q31.c ****   b = sinTable_q31[index+1];
  54              	 .loc 1 73 0
  55 0010 0B4F     	 ldr r7,.L4
  69:../Dave/Generated/CMSIS_DSP/FastMathFunctions/arm_cos_q31.c **** 
  56              	 .loc 1 69 0
  57 0012 A3EB8253 	 sub r3,r3,r2,lsl#22
  58              	.LVL4:
  74:../Dave/Generated/CMSIS_DSP/FastMathFunctions/arm_cos_q31.c **** 
  75:../Dave/Generated/CMSIS_DSP/FastMathFunctions/arm_cos_q31.c ****   /* Linear interpolation process */
  76:../Dave/Generated/CMSIS_DSP/FastMathFunctions/arm_cos_q31.c ****   cosVal = (q63_t)(0x80000000-fract)*a >> 32;
  59              	 .loc 1 76 0
  60 0016 57F82240 	 ldr r4,[r7,r2,lsl#2]
  69:../Dave/Generated/CMSIS_DSP/FastMathFunctions/arm_cos_q31.c **** 
  61              	 .loc 1 69 0
  62 001a 5B02     	 lsls r3,r3,#9
  63              	.LVL5:
  73:../Dave/Generated/CMSIS_DSP/FastMathFunctions/arm_cos_q31.c **** 
  64              	 .loc 1 73 0
  65 001c 0132     	 adds r2,r2,#1
  66              	.LVL6:
  67              	 .loc 1 76 0
  68 001e C3F10046 	 rsb r6,r3,#-2147483648
  69 0022 A6FB0489 	 umull r8,r9,r6,r4
  70 0026 E517     	 asrs r5,r4,#31
  73:../Dave/Generated/CMSIS_DSP/FastMathFunctions/arm_cos_q31.c **** 
  71              	 .loc 1 73 0
  72 0028 57F82220 	 ldr r2,[r7,r2,lsl#2]
  73              	.LVL7:
  77:../Dave/Generated/CMSIS_DSP/FastMathFunctions/arm_cos_q31.c ****   cosVal = (q31_t)((((q63_t)cosVal << 32) + ((q63_t)fract*b)) >> 32);
  74              	 .loc 1 77 0
  75 002c 06FB0591 	 mla r1,r6,r5,r9
  76 0030 0020     	 movs r0,#0
  77              	.LVL8:
  78 0032 C2FB0301 	 smlal r0,r1,r2,r3
  78:../Dave/Generated/CMSIS_DSP/FastMathFunctions/arm_cos_q31.c **** 
  79:../Dave/Generated/CMSIS_DSP/FastMathFunctions/arm_cos_q31.c ****   return cosVal << 1;
  80:../Dave/Generated/CMSIS_DSP/FastMathFunctions/arm_cos_q31.c **** }
  79              	 .loc 1 80 0
  80 0036 4800     	 lsls r0,r1,#1
  81 0038 BDE8F003 	 pop {r4,r5,r6,r7,r8,r9}
  82              	.LCFI1:
  83              	 .cfi_restore 9
  84              	 .cfi_restore 8
  85              	 .cfi_restore 7
  86              	 .cfi_restore 6
  87              	 .cfi_restore 5
  88              	 .cfi_restore 4
  89              	 .cfi_def_cfa_offset 0
  90 003c 7047     	 bx lr
  91              	.L5:
  92 003e 00BF     	 .align 2
  93              	.L4:
  94 0040 00000000 	 .word sinTable_q31
  95              	 .cfi_endproc
  96              	.LFE135:
  98              	 .text
  99              	.Letext0:
 100              	 .file 2 "c:\\infineon\\tools\\dave ide\\4.5.0.202105191637\\eclipse\\arm-gcc-49\\arm-none-eabi\\include\\machine\\_default_types.h"
 101              	 .file 3 "c:\\infineon\\tools\\dave ide\\4.5.0.202105191637\\eclipse\\arm-gcc-49\\arm-none-eabi\\include\\stdint.h"
 102              	 .file 4 "C:/Users/Utente/Desktop/Tesi/Firmware_Software/DAVE project/S2GLP_Pulsed_Doppler/Dave/Generated/CMSIS_DSP/arm_math.h"
 103              	 .file 5 "C:/Users/Utente/Desktop/Tesi/Firmware_Software/DAVE project/S2GLP_Pulsed_Doppler/Dave/Generated/CMSIS_DSP/arm_common_tables.h"