   1              	 .syntax unified
   2              	 .cpu cortex-m4
   3              	 .eabi_attribute 27,3
   4              	 .fpu fpv4-sp-d16
   5              	 .eabi_attribute 20,1
   6              	 .eabi_attribute 21,1
   7              	 .eabi_attribute 23,3
   8              	 .eabi_attribute 24,1
   9              	 .eabi_attribute 25,1
  10              	 .eabi_attribute 26,1
  11              	 .eabi_attribute 30,2
  12              	 .eabi_attribute 34,1
  13              	 .eabi_attribute 18,4
  14              	 .thumb
  15              	 .file "doppler_test.c"
  16              	 .text
  17              	.Ltext0:
  18              	 .cfi_sections .debug_frame
  19              	 .section .text.generate_random_data,"ax",%progbits
  20              	 .align 2
  21              	 .global generate_random_data
  22              	 .thumb
  23              	 .thumb_func
  25              	generate_random_data:
  26              	.LFB529:
  27              	 .file 1 "../Tests/doppler_test.c"
   1:../Tests/doppler_test.c **** 
   2:../Tests/doppler_test.c **** #include <stdio.h>
   3:../Tests/doppler_test.c **** #include <stdlib.h>
   4:../Tests/doppler_test.c **** #include <math.h>
   5:../Tests/doppler_test.c **** #include <string.h>
   6:../Tests/doppler_test.c **** #include <time.h>
   7:../Tests/doppler_test.c **** #include "doppler.h"
   8:../Tests/doppler_test.c **** 
   9:../Tests/doppler_test.c **** #define TEST_NUM_SAMPLES 256
  10:../Tests/doppler_test.c **** #define TEST_ADC_FREQ 1000 // Frequenza di campionamento in Hz
  11:../Tests/doppler_test.c **** #define FILE_NAME "test_data.txt"
  12:../Tests/doppler_test.c **** 
  13:../Tests/doppler_test.c **** // Funzione per generare dati randomici
  14:../Tests/doppler_test.c **** void generate_random_data(float *i_data, float *q_data, int num_samples) {
  28              	 .loc 1 14 0
  29              	 .cfi_startproc
  30              	 
  31              	 
  32              	.LVL0:
  33 0000 F8B5     	 push {r3,r4,r5,r6,r7,lr}
  34              	.LCFI0:
  35              	 .cfi_def_cfa_offset 24
  36              	 .cfi_offset 3,-24
  37              	 .cfi_offset 4,-20
  38              	 .cfi_offset 5,-16
  39              	 .cfi_offset 6,-12
  40              	 .cfi_offset 7,-8
  41              	 .cfi_offset 14,-4
  42 0002 0646     	 mov r6,r0
  43 0004 2DED048B 	 fstmfdd sp!,{d8,d9}
  44              	.LCFI1:
  45              	 .cfi_def_cfa_offset 40
  46              	 .cfi_offset 80,-40
  47              	 .cfi_offset 81,-36
  48              	 .cfi_offset 82,-32
  49              	 .cfi_offset 83,-28
  15:../Tests/doppler_test.c ****     srand(time(NULL)); // Imposta il seed per la generazione casuale
  50              	 .loc 1 15 0
  51 0008 0020     	 movs r0,#0
  52              	.LVL1:
  14:../Tests/doppler_test.c ****     srand(time(NULL)); // Imposta il seed per la generazione casuale
  53              	 .loc 1 14 0
  54 000a 1746     	 mov r7,r2
  55 000c 0D46     	 mov r5,r1
  56              	 .loc 1 15 0
  57 000e FFF7FEFF 	 bl time
  58              	.LVL2:
  59 0012 FFF7FEFF 	 bl srand
  60              	.LVL3:
  61              	.LBB7:
  16:../Tests/doppler_test.c ****     for (int i = 0; i < num_samples; i++) {
  62              	 .loc 1 16 0
  63 0016 002F     	 cmp r7,#0
  64 0018 25DD     	 ble .L1
  17:../Tests/doppler_test.c ****         i_data[i] = ((float)rand() / RAND_MAX) * 2.0f - 1.0f; // Dato randomico tra -1.0 e 1.0
  65              	 .loc 1 17 0
  66 001a 9FED149A 	 flds s18,.L8
  16:../Tests/doppler_test.c ****     for (int i = 0; i < num_samples; i++) {
  67              	 .loc 1 16 0
  68 001e 0024     	 movs r4,#0
  69              	 .loc 1 17 0
  70 0020 F0EE008A 	 fconsts s17,#0
  71 0024 BFEE008A 	 fconsts s16,#240
  72              	.LVL4:
  73              	.L3:
  74              	 .loc 1 17 0 is_stmt 0 discriminator 3
  75 0028 FFF7FEFF 	 bl rand
  76              	.LVL5:
  77 002c 07EE900A 	 fmsr s15,r0
  78 0030 F8EEE77A 	 fsitos s15,s15
  79 0034 B0EE487A 	 fcpys s14,s16
  80 0038 67EE897A 	 fmuls s15,s15,s18
  16:../Tests/doppler_test.c ****     for (int i = 0; i < num_samples; i++) {
  81              	 .loc 1 16 0 is_stmt 1 discriminator 3
  82 003c 0134     	 adds r4,r4,#1
  83              	.LVL6:
  84              	 .loc 1 17 0 discriminator 3
  85 003e A7EEA87A 	 vfma.f32 s14,s15,s17
  86 0042 A6EC017A 	 fstmias r6!,{s14}
  18:../Tests/doppler_test.c ****         q_data[i] = ((float)rand() / RAND_MAX) * 2.0f - 1.0f;
  87              	 .loc 1 18 0 discriminator 3
  88 0046 FFF7FEFF 	 bl rand
  89              	.LVL7:
  90 004a 07EE900A 	 fmsr s15,r0
  91 004e F8EEE77A 	 fsitos s15,s15
  92 0052 B0EE487A 	 fcpys s14,s16
  93 0056 67EE897A 	 fmuls s15,s15,s18
  16:../Tests/doppler_test.c ****     for (int i = 0; i < num_samples; i++) {
  94              	 .loc 1 16 0 discriminator 3
  95 005a BC42     	 cmp r4,r7
  96              	 .loc 1 18 0 discriminator 3
  97 005c A7EEA87A 	 vfma.f32 s14,s15,s17
  98 0060 A5EC017A 	 fstmias r5!,{s14}
  16:../Tests/doppler_test.c ****     for (int i = 0; i < num_samples; i++) {
  99              	 .loc 1 16 0 discriminator 3
 100 0064 E0D1     	 bne .L3
 101              	.LVL8:
 102              	.L1:
 103              	.LBE7:
  19:../Tests/doppler_test.c ****     }
  20:../Tests/doppler_test.c **** }
 104              	 .loc 1 20 0
 105 0066 BDEC048B 	 fldmfdd sp!,{d8-d9}
 106              	.LCFI2:
 107              	 .cfi_restore 82
 108              	 .cfi_restore 83
 109              	 .cfi_restore 80
 110              	 .cfi_restore 81
 111              	 .cfi_def_cfa_offset 24
 112 006a F8BD     	 pop {r3,r4,r5,r6,r7,pc}
 113              	.LVL9:
 114              	.L9:
 115              	 .align 2
 116              	.L8:
 117 006c 00000030 	 .word 805306368
 118              	 .cfi_endproc
 119              	.LFE529:
 121              	 .global __aeabi_f2d
 122              	 .section .text.write_data_to_file,"ax",%progbits
 123              	 .align 2
 124              	 .global write_data_to_file
 125              	 .thumb
 126              	 .thumb_func
 128              	write_data_to_file:
 129              	.LFB530:
  21:../Tests/doppler_test.c **** 
  22:../Tests/doppler_test.c **** // Funzione per scrivere i dati su un file
  23:../Tests/doppler_test.c **** void write_data_to_file(const char *filename, float *i_data, float *q_data, int num_samples) {
 130              	 .loc 1 23 0
 131              	 .cfi_startproc
 132              	 
 133              	 
 134              	.LVL10:
 135 0000 2DE9F04F 	 push {r4,r5,r6,r7,r8,r9,r10,fp,lr}
 136              	.LCFI3:
 137              	 .cfi_def_cfa_offset 36
 138              	 .cfi_offset 4,-36
 139              	 .cfi_offset 5,-32
 140              	 .cfi_offset 6,-28
 141              	 .cfi_offset 7,-24
 142              	 .cfi_offset 8,-20
 143              	 .cfi_offset 9,-16
 144              	 .cfi_offset 10,-12
 145              	 .cfi_offset 11,-8
 146              	 .cfi_offset 14,-4
 147 0004 85B0     	 sub sp,sp,#20
 148              	.LCFI4:
 149              	 .cfi_def_cfa_offset 56
 150              	 .loc 1 23 0
 151 0006 8B46     	 mov fp,r1
  24:../Tests/doppler_test.c ****     FILE *file = fopen(filename, "w");
 152              	 .loc 1 24 0
 153 0008 1949     	 ldr r1,.L17
 154              	.LVL11:
  23:../Tests/doppler_test.c ****     FILE *file = fopen(filename, "w");
 155              	 .loc 1 23 0
 156 000a 0390     	 str r0,[sp,#12]
 157 000c 1546     	 mov r5,r2
 158 000e 9946     	 mov r9,r3
 159              	 .loc 1 24 0
 160 0010 FFF7FEFF 	 bl fopen
 161              	.LVL12:
  25:../Tests/doppler_test.c ****     if (file == NULL) {
 162              	 .loc 1 25 0
 163 0014 8046     	 mov r8,r0
 164 0016 20B3     	 cbz r0,.L11
 165              	.LVL13:
 166              	.LBB12:
  26:../Tests/doppler_test.c ****         printf("Errore nell'aprire il file!\n");
  27:../Tests/doppler_test.c ****         exit(1);
  28:../Tests/doppler_test.c ****     }
  29:../Tests/doppler_test.c **** 
  30:../Tests/doppler_test.c ****     for (int i = 0; i < num_samples; i++) {
 167              	 .loc 1 30 0 discriminator 1
 168 0018 B9F1000F 	 cmp r9,#0
 169 001c C8BF     	 it gt
 170 001e 0024     	 movgt r4,#0
 171 0020 15DD     	 ble .L14
 172              	.LVL14:
 173              	.L13:
  31:../Tests/doppler_test.c ****         fprintf(file, "%f %f\n", i_data[i], q_data[i]); // Scrive i dati I e Q nel file
 174              	 .loc 1 31 0 discriminator 3
 175 0022 5BF8040B 	 ldr r0,[fp],#4
 176 0026 55F804AB 	 ldr r10,[r5],#4
 177 002a FFF7FEFF 	 bl __aeabi_f2d
 178              	.LVL15:
 179 002e 0646     	 mov r6,r0
 180 0030 5046     	 mov r0,r10
 181 0032 0F46     	 mov r7,r1
 182 0034 FFF7FEFF 	 bl __aeabi_f2d
 183              	.LVL16:
  30:../Tests/doppler_test.c ****         fprintf(file, "%f %f\n", i_data[i], q_data[i]); // Scrive i dati I e Q nel file
 184              	 .loc 1 30 0 discriminator 3
 185 0038 0134     	 adds r4,r4,#1
 186              	.LVL17:
 187              	 .loc 1 31 0 discriminator 3
 188 003a CDE90001 	 strd r0,[sp]
 189 003e 3246     	 mov r2,r6
 190 0040 3B46     	 mov r3,r7
 191 0042 4046     	 mov r0,r8
 192 0044 0B49     	 ldr r1,.L17+4
 193 0046 FFF7FEFF 	 bl fprintf
 194              	.LVL18:
  30:../Tests/doppler_test.c ****         fprintf(file, "%f %f\n", i_data[i], q_data[i]); // Scrive i dati I e Q nel file
 195              	 .loc 1 30 0 discriminator 3
 196 004a 4C45     	 cmp r4,r9
 197 004c E9D1     	 bne .L13
 198              	.LVL19:
 199              	.L14:
 200              	.LBE12:
  32:../Tests/doppler_test.c ****     }
  33:../Tests/doppler_test.c **** 
  34:../Tests/doppler_test.c ****     fclose(file);
 201              	 .loc 1 34 0
 202 004e 4046     	 mov r0,r8
 203 0050 FFF7FEFF 	 bl fclose
 204              	.LVL20:
  35:../Tests/doppler_test.c ****     printf("Dati scritti nel file %s\n", filename);
 205              	 .loc 1 35 0
 206 0054 0399     	 ldr r1,[sp,#12]
 207 0056 0848     	 ldr r0,.L17+8
  36:../Tests/doppler_test.c **** }
 208              	 .loc 1 36 0
 209 0058 05B0     	 add sp,sp,#20
 210              	.LCFI5:
 211              	 .cfi_remember_state
 212              	 .cfi_def_cfa_offset 36
 213              	 
 214 005a BDE8F04F 	 pop {r4,r5,r6,r7,r8,r9,r10,fp,lr}
 215              	.LCFI6:
 216              	 .cfi_restore 14
 217              	 .cfi_restore 11
 218              	 .cfi_restore 10
 219              	 .cfi_restore 9
 220              	 .cfi_restore 8
 221              	 .cfi_restore 7
 222              	 .cfi_restore 6
 223              	 .cfi_restore 5
 224              	 .cfi_restore 4
 225              	 .cfi_def_cfa_offset 0
 226              	.LVL21:
  35:../Tests/doppler_test.c ****     printf("Dati scritti nel file %s\n", filename);
 227              	 .loc 1 35 0
 228 005e FFF7FEBF 	 b printf
 229              	.LVL22:
 230              	.L11:
 231              	.LCFI7:
 232              	 .cfi_restore_state
 233              	.LBB13:
 234              	.LBB14:
  26:../Tests/doppler_test.c ****         exit(1);
 235              	 .loc 1 26 0
 236 0062 0648     	 ldr r0,.L17+12
 237              	.LVL23:
 238 0064 FFF7FEFF 	 bl puts
 239              	.LVL24:
  27:../Tests/doppler_test.c ****     }
 240              	 .loc 1 27 0
 241 0068 0120     	 movs r0,#1
 242 006a FFF7FEFF 	 bl exit
 243              	.LVL25:
 244              	.L18:
 245 006e 00BF     	 .align 2
 246              	.L17:
 247 0070 00000000 	 .word .LC0
 248 0074 3C000000 	 .word .LC3
 249 0078 04000000 	 .word .LC1
 250 007c 20000000 	 .word .LC2
 251              	.LBE14:
 252              	.LBE13:
 253              	 .cfi_endproc
 254              	.LFE530:
 256              	 .section .text.read_data_from_file,"ax",%progbits
 257              	 .align 2
 258              	 .global read_data_from_file
 259              	 .thumb
 260              	 .thumb_func
 262              	read_data_from_file:
 263              	.LFB531:
  37:../Tests/doppler_test.c **** 
  38:../Tests/doppler_test.c **** // Funzione per leggere i dati da un file
  39:../Tests/doppler_test.c **** void read_data_from_file(const char *filename, float *i_data, float *q_data, int num_samples) {
 264              	 .loc 1 39 0
 265              	 .cfi_startproc
 266              	 
 267              	 
 268              	.LVL26:
 269 0000 2DE9F843 	 push {r3,r4,r5,r6,r7,r8,r9,lr}
 270              	.LCFI8:
 271              	 .cfi_def_cfa_offset 32
 272              	 .cfi_offset 3,-32
 273              	 .cfi_offset 4,-28
 274              	 .cfi_offset 5,-24
 275              	 .cfi_offset 6,-20
 276              	 .cfi_offset 7,-16
 277              	 .cfi_offset 8,-12
 278              	 .cfi_offset 9,-8
 279              	 .cfi_offset 14,-4
 280              	 .loc 1 39 0
 281 0004 0D46     	 mov r5,r1
  40:../Tests/doppler_test.c ****     FILE *file = fopen(filename, "r");
 282              	 .loc 1 40 0
 283 0006 1449     	 ldr r1,.L26
 284              	.LVL27:
  39:../Tests/doppler_test.c ****     FILE *file = fopen(filename, "r");
 285              	 .loc 1 39 0
 286 0008 1446     	 mov r4,r2
 287 000a 9846     	 mov r8,r3
 288 000c 8146     	 mov r9,r0
 289              	 .loc 1 40 0
 290 000e FFF7FEFF 	 bl fopen
 291              	.LVL28:
  41:../Tests/doppler_test.c ****     if (file == NULL) {
 292              	 .loc 1 41 0
 293 0012 0746     	 mov r7,r0
 294 0014 D0B1     	 cbz r0,.L20
 295              	.LVL29:
 296              	.LBB19:
  42:../Tests/doppler_test.c ****         printf("Errore nell'aprire il file per la lettura!\n");
  43:../Tests/doppler_test.c ****         exit(1);
  44:../Tests/doppler_test.c ****     }
  45:../Tests/doppler_test.c **** 
  46:../Tests/doppler_test.c ****     for (int i = 0; i < num_samples; i++) {
 297              	 .loc 1 46 0 discriminator 1
 298 0016 B8F1000F 	 cmp r8,#0
 299 001a C8BF     	 it gt
 300 001c 0026     	 movgt r6,#0
 301 001e 0CDD     	 ble .L23
 302              	.LVL30:
 303              	.L22:
  47:../Tests/doppler_test.c ****         fscanf(file, "%f %f", &i_data[i], &q_data[i]); // Legge i dati I e Q dal file
 304              	 .loc 1 47 0 discriminator 3
 305 0020 2A46     	 mov r2,r5
 306 0022 2346     	 mov r3,r4
  46:../Tests/doppler_test.c ****         fscanf(file, "%f %f", &i_data[i], &q_data[i]); // Legge i dati I e Q dal file
 307              	 .loc 1 46 0 discriminator 3
 308 0024 0136     	 adds r6,r6,#1
 309              	.LVL31:
 310              	 .loc 1 47 0 discriminator 3
 311 0026 3846     	 mov r0,r7
 312 0028 0C49     	 ldr r1,.L26+4
 313 002a FFF7FEFF 	 bl fscanf
 314              	.LVL32:
  46:../Tests/doppler_test.c ****         fscanf(file, "%f %f", &i_data[i], &q_data[i]); // Legge i dati I e Q dal file
 315              	 .loc 1 46 0 discriminator 3
 316 002e 4645     	 cmp r6,r8
 317 0030 05F10405 	 add r5,r5,#4
 318 0034 04F10404 	 add r4,r4,#4
 319 0038 F2D1     	 bne .L22
 320              	.LVL33:
 321              	.L23:
 322              	.LBE19:
  48:../Tests/doppler_test.c ****     }
  49:../Tests/doppler_test.c **** 
  50:../Tests/doppler_test.c ****     fclose(file);
 323              	 .loc 1 50 0
 324 003a 3846     	 mov r0,r7
 325 003c FFF7FEFF 	 bl fclose
 326              	.LVL34:
  51:../Tests/doppler_test.c ****     printf("Dati letti dal file %s\n", filename);
 327              	 .loc 1 51 0
 328 0040 4946     	 mov r1,r9
 329 0042 0748     	 ldr r0,.L26+8
  52:../Tests/doppler_test.c **** }
 330              	 .loc 1 52 0
 331 0044 BDE8F843 	 pop {r3,r4,r5,r6,r7,r8,r9,lr}
 332              	.LCFI9:
 333              	 .cfi_remember_state
 334              	 .cfi_restore 14
 335              	 .cfi_restore 9
 336              	 .cfi_restore 8
 337              	 .cfi_restore 7
 338              	 .cfi_restore 6
 339              	 .cfi_restore 5
 340              	 .cfi_restore 4
 341              	 .cfi_restore 3
 342              	 .cfi_def_cfa_offset 0
 343              	.LVL35:
  51:../Tests/doppler_test.c ****     printf("Dati letti dal file %s\n", filename);
 344              	 .loc 1 51 0
 345 0048 FFF7FEBF 	 b printf
 346              	.LVL36:
 347              	.L20:
 348              	.LCFI10:
 349              	 .cfi_restore_state
 350              	.LBB20:
 351              	.LBB21:
  42:../Tests/doppler_test.c ****         exit(1);
 352              	 .loc 1 42 0
 353 004c 0548     	 ldr r0,.L26+12
 354              	.LVL37:
 355 004e FFF7FEFF 	 bl puts
 356              	.LVL38:
  43:../Tests/doppler_test.c ****     }
 357              	 .loc 1 43 0
 358 0052 0120     	 movs r0,#1
 359 0054 FFF7FEFF 	 bl exit
 360              	.LVL39:
 361              	.L27:
 362              	 .align 2
 363              	.L26:
 364 0058 44000000 	 .word .LC4
 365 005c 8C000000 	 .word .LC7
 366 0060 48000000 	 .word .LC5
 367 0064 60000000 	 .word .LC6
 368              	.LBE21:
 369              	.LBE20:
 370              	 .cfi_endproc
 371              	.LFE531:
 373              	 .section .text.test_doppler_algorithm,"ax",%progbits
 374              	 .align 2
 375              	 .global test_doppler_algorithm
 376              	 .thumb
 377              	 .thumb_func
 379              	test_doppler_algorithm:
 380              	.LFB532:
  53:../Tests/doppler_test.c **** 
  54:../Tests/doppler_test.c **** // Funzione di test
  55:../Tests/doppler_test.c **** void test_doppler_algorithm() {
 381              	 .loc 1 55 0
 382              	 .cfi_startproc
 383              	 
 384              	 
 385 0000 2DE9F047 	 push {r4,r5,r6,r7,r8,r9,r10,lr}
 386              	.LCFI11:
 387              	 .cfi_def_cfa_offset 32
 388              	 .cfi_offset 4,-32
 389              	 .cfi_offset 5,-28
 390              	 .cfi_offset 6,-24
 391              	 .cfi_offset 7,-20
 392              	 .cfi_offset 8,-16
 393              	 .cfi_offset 9,-12
 394              	 .cfi_offset 10,-8
 395              	 .cfi_offset 14,-4
 396 0004 2DED048B 	 fstmfdd sp!,{d8,d9}
 397              	.LCFI12:
 398              	 .cfi_def_cfa_offset 48
 399              	 .cfi_offset 80,-48
 400              	 .cfi_offset 81,-44
 401              	 .cfi_offset 82,-40
 402              	 .cfi_offset 83,-36
 403              	.LBB37:
 404              	.LBB38:
  15:../Tests/doppler_test.c ****     for (int i = 0; i < num_samples; i++) {
 405              	 .loc 1 15 0
 406 0008 0020     	 movs r0,#0
 407              	.LBE38:
 408              	.LBE37:
 409              	 .loc 1 55 0
 410 000a ADF5865D 	 sub sp,sp,#4288
 411              	.LCFI13:
 412              	 .cfi_def_cfa_offset 4336
 413              	.LVL40:
 414              	.LBB42:
 415              	.LBB41:
  15:../Tests/doppler_test.c ****     for (int i = 0; i < num_samples; i++) {
 416              	 .loc 1 15 0
 417 000e FFF7FEFF 	 bl time
 418              	.LVL41:
 419 0012 FFF7FEFF 	 bl srand
 420              	.LVL42:
 421 0016 0DF59864 	 add r4,sp,#1216
 422              	.LVL43:
 423 001a 30AD     	 add r5,sp,#192
 424              	.LVL44:
 425              	.LBB39:
  17:../Tests/doppler_test.c ****         q_data[i] = ((float)rand() / RAND_MAX) * 2.0f - 1.0f;
 426              	 .loc 1 17 0
 427 001c 9FED7B9A 	 flds s18,.L40
 428              	.LBE39:
  15:../Tests/doppler_test.c ****     for (int i = 0; i < num_samples; i++) {
 429              	 .loc 1 15 0
 430 0020 2E46     	 mov r6,r5
 431 0022 A146     	 mov r9,r4
 432 0024 2746     	 mov r7,r4
 433              	.LBB40:
  17:../Tests/doppler_test.c ****         q_data[i] = ((float)rand() / RAND_MAX) * 2.0f - 1.0f;
 434              	 .loc 1 17 0
 435 0026 F0EE008A 	 fconsts s17,#0
 436 002a BFEE008A 	 fconsts s16,#240
 437              	.LVL45:
 438              	.L29:
 439 002e FFF7FEFF 	 bl rand
 440              	.LVL46:
 441 0032 07EE900A 	 fmsr s15,r0
 442 0036 F8EEE77A 	 fsitos s15,s15
 443 003a B0EE487A 	 fcpys s14,s16
 444 003e 67EE897A 	 fmuls s15,s15,s18
 445 0042 A7EEA87A 	 vfma.f32 s14,s15,s17
 446 0046 A6EC017A 	 fstmias r6!,{s14}
  18:../Tests/doppler_test.c ****     }
 447              	 .loc 1 18 0
 448 004a FFF7FEFF 	 bl rand
 449              	.LVL47:
 450 004e 07EE900A 	 fmsr s15,r0
 451 0052 F8EEE77A 	 fsitos s15,s15
 452 0056 B0EE487A 	 fcpys s14,s16
 453 005a 67EE897A 	 fmuls s15,s15,s18
  16:../Tests/doppler_test.c ****         i_data[i] = ((float)rand() / RAND_MAX) * 2.0f - 1.0f; // Dato randomico tra -1.0 e 1.0
 454              	 .loc 1 16 0
 455 005e A642     	 cmp r6,r4
  18:../Tests/doppler_test.c ****     }
 456              	 .loc 1 18 0
 457 0060 A7EEA87A 	 vfma.f32 s14,s15,s17
 458 0064 A7EC017A 	 fstmias r7!,{s14}
  16:../Tests/doppler_test.c ****         i_data[i] = ((float)rand() / RAND_MAX) * 2.0f - 1.0f; // Dato randomico tra -1.0 e 1.0
 459              	 .loc 1 16 0
 460 0068 E1D1     	 bne .L29
 461              	.LVL48:
 462              	.LBE40:
 463              	.LBE41:
 464              	.LBE42:
 465              	.LBB43:
 466              	.LBB44:
  24:../Tests/doppler_test.c ****     if (file == NULL) {
 467              	 .loc 1 24 0
 468 006a 6948     	 ldr r0,.L40+4
 469 006c 6949     	 ldr r1,.L40+8
 470 006e FFF7FEFF 	 bl fopen
 471              	.LVL49:
  25:../Tests/doppler_test.c ****         printf("Errore nell'aprire il file!\n");
 472              	 .loc 1 25 0
 473 0072 8246     	 mov r10,r0
 474 0074 0028     	 cmp r0,#0
 475 0076 00F0BD80 	 beq .L38
 476              	.LVL50:
 477              	.L33:
 478              	.LBB45:
  31:../Tests/doppler_test.c ****     }
 479              	 .loc 1 31 0
 480 007a 55F8040B 	 ldr r0,[r5],#4
 481 007e 54F8048B 	 ldr r8,[r4],#4
 482 0082 FFF7FEFF 	 bl __aeabi_f2d
 483              	.LVL51:
 484 0086 0646     	 mov r6,r0
 485 0088 4046     	 mov r0,r8
 486 008a 0F46     	 mov r7,r1
 487 008c FFF7FEFF 	 bl __aeabi_f2d
 488              	.LVL52:
 489 0090 3246     	 mov r2,r6
 490 0092 CDE90001 	 strd r0,[sp]
 491 0096 3B46     	 mov r3,r7
 492 0098 5046     	 mov r0,r10
 493 009a 5F49     	 ldr r1,.L40+12
 494 009c FFF7FEFF 	 bl fprintf
 495              	.LVL53:
  30:../Tests/doppler_test.c ****         fprintf(file, "%f %f\n", i_data[i], q_data[i]); // Scrive i dati I e Q nel file
 496              	 .loc 1 30 0
 497 00a0 4D45     	 cmp r5,r9
 498 00a2 EAD1     	 bne .L33
 499              	.LBE45:
  34:../Tests/doppler_test.c ****     printf("Dati scritti nel file %s\n", filename);
 500              	 .loc 1 34 0
 501 00a4 5046     	 mov r0,r10
 502 00a6 FFF7FEFF 	 bl fclose
 503              	.LVL54:
  35:../Tests/doppler_test.c **** }
 504              	 .loc 1 35 0
 505 00aa 5949     	 ldr r1,.L40+4
 506 00ac 5B48     	 ldr r0,.L40+16
 507 00ae FFF7FEFF 	 bl printf
 508              	.LVL55:
 509              	.LBE44:
 510              	.LBE43:
 511              	.LBB49:
 512              	.LBB50:
  40:../Tests/doppler_test.c ****     if (file == NULL) {
 513              	 .loc 1 40 0
 514 00b2 5748     	 ldr r0,.L40+4
 515 00b4 5A49     	 ldr r1,.L40+20
 516 00b6 FFF7FEFF 	 bl fopen
 517              	.LVL56:
  41:../Tests/doppler_test.c ****         printf("Errore nell'aprire il file per la lettura!\n");
 518              	 .loc 1 41 0
 519 00ba 0024     	 movs r4,#0
 520 00bc 0546     	 mov r5,r0
 521 00be 0028     	 cmp r0,#0
 522 00c0 00F09E80 	 beq .L39
 523              	.LVL57:
 524              	.L31:
 525              	.LBB51:
  47:../Tests/doppler_test.c ****     }
 526              	 .loc 1 47 0
 527 00c4 0DF50C63 	 add r3,sp,#2240
 528              	.LVL58:
 529 00c8 1A19     	 adds r2,r3,r4
 530 00ca 0DF54C63 	 add r3,sp,#3264
 531              	.LVL59:
 532 00ce 2344     	 add r3,r3,r4
 533              	.LVL60:
 534 00d0 2846     	 mov r0,r5
 535 00d2 5449     	 ldr r1,.L40+24
 536 00d4 0434     	 adds r4,r4,#4
 537 00d6 FFF7FEFF 	 bl fscanf
 538              	.LVL61:
  46:../Tests/doppler_test.c ****         fscanf(file, "%f %f", &i_data[i], &q_data[i]); // Legge i dati I e Q dal file
 539              	 .loc 1 46 0
 540 00da B4F5806F 	 cmp r4,#1024
 541 00de F1D1     	 bne .L31
 542              	.LBE51:
  50:../Tests/doppler_test.c ****     printf("Dati letti dal file %s\n", filename);
 543              	 .loc 1 50 0
 544 00e0 2846     	 mov r0,r5
 545 00e2 FFF7FEFF 	 bl fclose
 546              	.LVL62:
  51:../Tests/doppler_test.c **** }
 547              	 .loc 1 51 0
 548 00e6 4A49     	 ldr r1,.L40+4
 549 00e8 4F48     	 ldr r0,.L40+28
 550              	.LBE50:
 551              	.LBE49:
  56:../Tests/doppler_test.c ****     // Buffer dei dati simulati
  57:../Tests/doppler_test.c ****     float raw_data_i[TEST_NUM_SAMPLES];
  58:../Tests/doppler_test.c ****     float raw_data_q[TEST_NUM_SAMPLES];
  59:../Tests/doppler_test.c **** 
  60:../Tests/doppler_test.c ****     // Genera dati randomici
  61:../Tests/doppler_test.c ****     generate_random_data(raw_data_i, raw_data_q, TEST_NUM_SAMPLES);
  62:../Tests/doppler_test.c **** 
  63:../Tests/doppler_test.c ****     // Scrive i dati generati su un file
  64:../Tests/doppler_test.c ****     write_data_to_file(FILE_NAME, raw_data_i, raw_data_q, TEST_NUM_SAMPLES);
  65:../Tests/doppler_test.c **** 
  66:../Tests/doppler_test.c ****     // Inizializza buffer vuoti per leggere i dati dal file
  67:../Tests/doppler_test.c ****     float file_data_i[TEST_NUM_SAMPLES];
  68:../Tests/doppler_test.c ****     float file_data_q[TEST_NUM_SAMPLES];
  69:../Tests/doppler_test.c **** 
  70:../Tests/doppler_test.c ****     // Legge i dati dal file
  71:../Tests/doppler_test.c ****     read_data_from_file(FILE_NAME, file_data_i, file_data_q, TEST_NUM_SAMPLES);
  72:../Tests/doppler_test.c **** 
  73:../Tests/doppler_test.c ****     // Struct
  74:../Tests/doppler_test.c ****     algo_settings_t algo_settings = {
 552              	 .loc 1 74 0
 553 00ea 504F     	 ldr r7,.L40+32
 554 00ec 504D     	 ldr r5,.L40+36
 555              	.LVL63:
 556              	.LBB56:
 557              	.LBB54:
  51:../Tests/doppler_test.c **** }
 558              	 .loc 1 51 0
 559 00ee FFF7FEFF 	 bl printf
 560              	.LVL64:
 561              	.LBE54:
 562              	.LBE56:
 563              	 .loc 1 74 0
 564 00f2 1AAB     	 add r3,sp,#104
 565 00f4 0024     	 movs r4,#0
 566 00f6 43F8044B 	 str r4,[r3],#4
 567 00fa 43F8044B 	 str r4,[r3],#4
 568 00fe 43F8044B 	 str r4,[r3],#4
 569 0102 43F8044B 	 str r4,[r3],#4
 570 0106 43F8044B 	 str r4,[r3],#4
 571 010a 15AE     	 add r6,sp,#84
  75:../Tests/doppler_test.c ****         .min_speed_kmph = 1.0f,  // Velocità minima in km/h
  76:../Tests/doppler_test.c ****         .max_speed_kmph = 10.0f, // Velocità massima in km/h
  77:../Tests/doppler_test.c ****         .speed_detection_threshold = 0.5f,
  78:../Tests/doppler_test.c ****         .motion_detection_threshold = 0.2f,
  79:../Tests/doppler_test.c ****         .use_high_gain_doppler = 1
  80:../Tests/doppler_test.c ****     };
  81:../Tests/doppler_test.c **** 
  82:../Tests/doppler_test.c ****     device_settings_t dev_settings = {
 572              	 .loc 1 82 0
 573 010c 0DF18008 	 add r8,sp,#128
  74:../Tests/doppler_test.c ****         .min_speed_kmph = 1.0f,  // Velocità minima in km/h
 574              	 .loc 1 74 0
 575 0110 4FF07C5C 	 mov ip,#1056964608
 576 0114 4FF07E5E 	 mov lr,#1065353216
 577 0118 1C60     	 str r4,[r3]
 578              	 .loc 1 82 0
 579 011a 2146     	 mov r1,r4
  74:../Tests/doppler_test.c ****         .min_speed_kmph = 1.0f,  // Velocità minima in km/h
 580              	 .loc 1 74 0
 581 011c 0123     	 movs r3,#1
 582              	 .loc 1 82 0
 583 011e 4046     	 mov r0,r8
 584 0120 4022     	 movs r2,#64
  74:../Tests/doppler_test.c ****         .min_speed_kmph = 1.0f,  // Velocità minima in km/h
 585              	 .loc 1 74 0
 586 0122 C6F808C0 	 str ip,[r6,#8]
 587 0126 C6F80CE0 	 str lr,[r6,#12]
 588 012a 3761     	 str r7,[r6,#16]
 589 012c 7362     	 str r3,[r6,#36]
 590 012e B562     	 str r5,[r6,#40]
 591 0130 1594     	 str r4,[sp,#84]
 592 0132 1694     	 str r4,[sp,#88]
 593              	 .loc 1 82 0
 594 0134 FFF7FEFF 	 bl memset
 595              	.LVL65:
  83:../Tests/doppler_test.c ****         .adc_sampling_freq_Hz = TEST_ADC_FREQ
  84:../Tests/doppler_test.c ****     };
  85:../Tests/doppler_test.c **** 
  86:../Tests/doppler_test.c ****     algo_result_t algo_result;
  87:../Tests/doppler_test.c ****     memset(&algo_result, 0, sizeof(algo_result)); // Inizializza la struttura del risultato
  88:../Tests/doppler_test.c **** 
  89:../Tests/doppler_test.c ****     // Configurazione della finestra FFT
  90:../Tests/doppler_test.c ****     FFT_Window_Struct_t fft_window = {
 596              	 .loc 1 90 0
 597 0138 08AA     	 add r2,sp,#32
 598 013a 1346     	 mov r3,r2
  87:../Tests/doppler_test.c **** 
 599              	 .loc 1 87 0
 600 013c 10AD     	 add r5,sp,#64
 601              	 .loc 1 90 0
 602 013e 43F8044B 	 str r4,[r3],#4
 603 0142 0433     	 adds r3,r3,#4
  87:../Tests/doppler_test.c **** 
 604              	 .loc 1 87 0
 605 0144 0D94     	 str r4,[sp,#52]
 606 0146 0E94     	 str r4,[sp,#56]
 607 0148 0F94     	 str r4,[sp,#60]
 608 014a 45F8044B 	 str r4,[r5],#4
 609              	 .loc 1 90 0
 610 014e 43F8044B 	 str r4,[r3],#4
  87:../Tests/doppler_test.c **** 
 611              	 .loc 1 87 0
 612 0152 0435     	 adds r5,r5,#4
 613              	 .loc 1 90 0
 614 0154 43F8044B 	 str r4,[r3],#4
  87:../Tests/doppler_test.c **** 
 615              	 .loc 1 87 0
 616 0158 1194     	 str r4,[sp,#68]
 617 015a 45F8044B 	 str r4,[r5],#4
 618              	 .loc 1 90 0
 619 015e 1C60     	 str r4,[r3]
  91:../Tests/doppler_test.c ****         .fft_size = TEST_NUM_SAMPLES
  92:../Tests/doppler_test.c ****     };
  93:../Tests/doppler_test.c **** 
  94:../Tests/doppler_test.c ****     // Esegui il calcolo del doppler sui dati letti dal file
  95:../Tests/doppler_test.c ****     doppler_calc_speed(fft_window, file_data_i, file_data_q, TEST_NUM_SAMPLES, &algo_settings, &dev
 620              	 .loc 1 95 0
 621 0160 0DF50C63 	 add r3,sp,#2240
 622              	.LVL66:
  87:../Tests/doppler_test.c **** 
 623              	 .loc 1 87 0
 624 0164 45F8044B 	 str r4,[r5],#4
 625              	 .loc 1 95 0
 626 0168 0193     	 str r3,[sp,#4]
 627 016a 0DF54C63 	 add r3,sp,#3264
 628              	.LVL67:
 629 016e 0293     	 str r3,[sp,#8]
  90:../Tests/doppler_test.c ****         .fft_size = TEST_NUM_SAMPLES
 630              	 .loc 1 90 0
 631 0170 4FF48071 	 mov r1,#256
 632              	 .loc 1 95 0
 633 0174 0C9B     	 ldr r3,[sp,#48]
 634              	.LVL68:
 635 0176 0496     	 str r6,[sp,#16]
  87:../Tests/doppler_test.c **** 
 636              	 .loc 1 87 0
 637 0178 0DAF     	 add r7,sp,#52
 638              	 .loc 1 95 0
 639 017a CDF81480 	 str r8,[sp,#20]
 640 017e 0093     	 str r3,[sp]
 641 0180 0391     	 str r1,[sp,#12]
  90:../Tests/doppler_test.c ****         .fft_size = TEST_NUM_SAMPLES
 642              	 .loc 1 90 0
 643 0182 0994     	 str r4,[sp,#36]
 644 0184 ADF82210 	 strh r1,[sp,#34]
  82:../Tests/doppler_test.c ****         .adc_sampling_freq_Hz = TEST_ADC_FREQ
 645              	 .loc 1 82 0
 646 0188 4FF47A76 	 mov r6,#1000
 647              	 .loc 1 95 0
 648 018c 0FCA     	 ldmia r2,{r0,r1,r2,r3}
 649 018e 0697     	 str r7,[sp,#24]
  82:../Tests/doppler_test.c ****         .adc_sampling_freq_Hz = TEST_ADC_FREQ
 650              	 .loc 1 82 0
 651 0190 C8F81460 	 str r6,[r8,#20]
  87:../Tests/doppler_test.c **** 
 652              	 .loc 1 87 0
 653 0194 2C60     	 str r4,[r5]
 654              	 .loc 1 95 0
 655 0196 FFF7FEFF 	 bl doppler_calc_speed
 656              	.LVL69:
  96:../Tests/doppler_test.c **** 
  97:../Tests/doppler_test.c ****     // Verifica dei risultati
  98:../Tests/doppler_test.c ****     printf("Risultati dell'algoritmo Doppler:\n");
 657              	 .loc 1 98 0
 658 019a 2648     	 ldr r0,.L40+40
 659 019c FFF7FEFF 	 bl puts
 660              	.LVL70:
  99:../Tests/doppler_test.c ****     printf("Frequenza Doppler rilevata (Hz): %f\n", algo_result.doppler_frequency_hz);
 661              	 .loc 1 99 0
 662 01a0 3869     	 ldr r0,[r7,#16]
 663 01a2 FFF7FEFF 	 bl __aeabi_f2d
 664              	.LVL71:
 665 01a6 0246     	 mov r2,r0
 666 01a8 0B46     	 mov r3,r1
 667 01aa 2348     	 ldr r0,.L40+44
 668 01ac FFF7FEFF 	 bl printf
 669              	.LVL72:
 100:../Tests/doppler_test.c ****     printf("Velocità rilevata (km/h): %f\n", algo_result.velocity_kmph);
 670              	 .loc 1 100 0
 671 01b0 0D98     	 ldr r0,[sp,#52]
 672 01b2 FFF7FEFF 	 bl __aeabi_f2d
 673              	.LVL73:
 674 01b6 0246     	 mov r2,r0
 675 01b8 0B46     	 mov r3,r1
 676 01ba 2048     	 ldr r0,.L40+48
 677 01bc FFF7FEFF 	 bl printf
 678              	.LVL74:
 101:../Tests/doppler_test.c ****     printf("Livello del segnale: %f\n", algo_result.level);
 679              	 .loc 1 101 0
 680 01c0 7868     	 ldr r0,[r7,#4]
 681 01c2 FFF7FEFF 	 bl __aeabi_f2d
 682              	.LVL75:
 683 01c6 0246     	 mov r2,r0
 684 01c8 0B46     	 mov r3,r1
 685 01ca 1D48     	 ldr r0,.L40+52
 686 01cc FFF7FEFF 	 bl printf
 687              	.LVL76:
 102:../Tests/doppler_test.c ****     printf("Target in avvicinamento: %d\n", algo_result.target_approaching);
 688              	 .loc 1 102 0
 689 01d0 797A     	 ldrb r1,[r7,#9]
 690 01d2 1C48     	 ldr r0,.L40+56
 691 01d4 FFF7FEFF 	 bl printf
 692              	.LVL77:
 103:../Tests/doppler_test.c ****     printf("Target in allontanamento: %d\n", algo_result.target_departing);
 693              	 .loc 1 103 0
 694 01d8 397A     	 ldrb r1,[r7,#8]
 695 01da 1B48     	 ldr r0,.L40+60
 696 01dc FFF7FEFF 	 bl printf
 697              	.LVL78:
 104:../Tests/doppler_test.c ****     printf("Rilevato movimento: %d\n", algo_result.motion_detected);
 698              	 .loc 1 104 0
 699 01e0 B97A     	 ldrb r1,[r7,#10]
 700 01e2 1A48     	 ldr r0,.L40+64
 701 01e4 FFF7FEFF 	 bl printf
 702              	.LVL79:
 105:../Tests/doppler_test.c **** }
 703              	 .loc 1 105 0
 704 01e8 0DF5865D 	 add sp,sp,#4288
 705              	.LCFI14:
 706              	 .cfi_remember_state
 707              	 .cfi_def_cfa_offset 48
 708              	 
 709 01ec BDEC048B 	 fldmfdd sp!,{d8-d9}
 710              	.LCFI15:
 711              	 .cfi_restore 82
 712              	 .cfi_restore 83
 713              	 .cfi_restore 80
 714              	 .cfi_restore 81
 715              	 .cfi_def_cfa_offset 32
 716 01f0 BDE8F087 	 pop {r4,r5,r6,r7,r8,r9,r10,pc}
 717              	.LVL80:
 718              	.L38:
 719              	.LCFI16:
 720              	 .cfi_restore_state
 721              	.LBB57:
 722              	.LBB48:
 723              	.LBB46:
 724              	.LBB47:
  26:../Tests/doppler_test.c ****         exit(1);
 725              	 .loc 1 26 0
 726 01f4 1648     	 ldr r0,.L40+68
 727              	.LVL81:
 728 01f6 FFF7FEFF 	 bl puts
 729              	.LVL82:
  27:../Tests/doppler_test.c ****     }
 730              	 .loc 1 27 0
 731 01fa 0120     	 movs r0,#1
 732 01fc FFF7FEFF 	 bl exit
 733              	.LVL83:
 734              	.L39:
 735              	.LBE47:
 736              	.LBE46:
 737              	.LBE48:
 738              	.LBE57:
 739              	.LBB58:
 740              	.LBB55:
 741              	.LBB52:
 742              	.LBB53:
  42:../Tests/doppler_test.c ****         exit(1);
 743              	 .loc 1 42 0
 744 0200 1448     	 ldr r0,.L40+72
 745              	.LVL84:
 746 0202 FFF7FEFF 	 bl puts
 747              	.LVL85:
  43:../Tests/doppler_test.c ****     }
 748              	 .loc 1 43 0
 749 0206 0120     	 movs r0,#1
 750 0208 FFF7FEFF 	 bl exit
 751              	.LVL86:
 752              	.L41:
 753              	 .align 2
 754              	.L40:
 755 020c 00000030 	 .word 805306368
 756 0210 94000000 	 .word .LC8
 757 0214 00000000 	 .word .LC0
 758 0218 3C000000 	 .word .LC3
 759 021c 04000000 	 .word .LC1
 760 0220 44000000 	 .word .LC4
 761 0224 8C000000 	 .word .LC7
 762 0228 48000000 	 .word .LC5
 763 022c 00002041 	 .word 1092616192
 764 0230 CDCC4C3E 	 .word 1045220557
 765 0234 A4000000 	 .word .LC9
 766 0238 C8000000 	 .word .LC10
 767 023c F0000000 	 .word .LC11
 768 0240 10010000 	 .word .LC12
 769 0244 2C010000 	 .word .LC13
 770 0248 4C010000 	 .word .LC14
 771 024c 6C010000 	 .word .LC15
 772 0250 20000000 	 .word .LC2
 773 0254 60000000 	 .word .LC6
 774              	.LBE53:
 775              	.LBE52:
 776              	.LBE55:
 777              	.LBE58:
 778              	 .cfi_endproc
 779              	.LFE532:
 781              	 .section .rodata.str1.4,"aMS",%progbits,1
 782              	 .align 2
 783              	.LC0:
 784 0000 7700     	 .ascii "w\000"
 785 0002 0000     	 .space 2
 786              	.LC1:
 787 0004 44617469 	 .ascii "Dati scritti nel file %s\012\000"
 787      20736372 
 787      69747469 
 787      206E656C 
 787      2066696C 
 788 001e 0000     	 .space 2
 789              	.LC2:
 790 0020 4572726F 	 .ascii "Errore nell'aprire il file!\000"
 790      7265206E 
 790      656C6C27 
 790      61707269 
 790      72652069 
 791              	.LC3:
 792 003c 25662025 	 .ascii "%f %f\012\000"
 792      660A00
 793 0043 00       	 .space 1
 794              	.LC4:
 795 0044 7200     	 .ascii "r\000"
 796 0046 0000     	 .space 2
 797              	.LC5:
 798 0048 44617469 	 .ascii "Dati letti dal file %s\012\000"
 798      206C6574 
 798      74692064 
 798      616C2066 
 798      696C6520 
 799              	.LC6:
 800 0060 4572726F 	 .ascii "Errore nell'aprire il file per la lettura!\000"
 800      7265206E 
 800      656C6C27 
 800      61707269 
 800      72652069 
 801 008b 00       	 .space 1
 802              	.LC7:
 803 008c 25662025 	 .ascii "%f %f\000"
 803      6600
 804 0092 0000     	 .space 2
 805              	.LC8:
 806 0094 74657374 	 .ascii "test_data.txt\000"
 806      5F646174 
 806      612E7478 
 806      7400
 807 00a2 0000     	 .space 2
 808              	.LC9:
 809 00a4 52697375 	 .ascii "Risultati dell'algoritmo Doppler:\000"
 809      6C746174 
 809      69206465 
 809      6C6C2761 
 809      6C676F72 
 810 00c6 0000     	 .space 2
 811              	.LC10:
 812 00c8 46726571 	 .ascii "Frequenza Doppler rilevata (Hz): %f\012\000"
 812      75656E7A 
 812      6120446F 
 812      70706C65 
 812      72207269 
 813 00ed 000000   	 .space 3
 814              	.LC11:
 815 00f0 56656C6F 	 .ascii "Velocit\303\240 rilevata (km/h): %f\012\000"
 815      636974C3 
 815      A0207269 
 815      6C657661 
 815      74612028 
 816 010f 00       	 .space 1
 817              	.LC12:
 818 0110 4C697665 	 .ascii "Livello del segnale: %f\012\000"
 818      6C6C6F20 
 818      64656C20 
 818      7365676E 
 818      616C653A 
 819 0129 000000   	 .space 3
 820              	.LC13:
 821 012c 54617267 	 .ascii "Target in avvicinamento: %d\012\000"
 821      65742069 
 821      6E206176 
 821      76696369 
 821      6E616D65 
 822 0149 000000   	 .space 3
 823              	.LC14:
 824 014c 54617267 	 .ascii "Target in allontanamento: %d\012\000"
 824      65742069 
 824      6E20616C 
 824      6C6F6E74 
 824      616E616D 
 825 016a 0000     	 .space 2
 826              	.LC15:
 827 016c 52696C65 	 .ascii "Rilevato movimento: %d\012\000"
 827      7661746F 
 827      206D6F76 
 827      696D656E 
 827      746F3A20 
 828              	 .text
 829              	.Letext0:
 830              	 .file 2 "c:\\infineon\\tools\\dave ide\\4.5.0.202105191637\\eclipse\\arm-gcc-49\\arm-none-eabi\\include\\machine\\_default_types.h"
 831              	 .file 3 "c:\\infineon\\tools\\dave ide\\4.5.0.202105191637\\eclipse\\arm-gcc-49\\arm-none-eabi\\include\\sys\\lock.h"
 832              	 .file 4 "c:\\infineon\\tools\\dave ide\\4.5.0.202105191637\\eclipse\\arm-gcc-49\\arm-none-eabi\\include\\sys\\_types.h"
 833              	 .file 5 "c:\\infineon\\tools\\dave ide\\4.5.0.202105191637\\eclipse\\arm-gcc-49\\lib\\gcc\\arm-none-eabi\\4.9.3\\include\\stddef.h"
 834              	 .file 6 "c:\\infineon\\tools\\dave ide\\4.5.0.202105191637\\eclipse\\arm-gcc-49\\arm-none-eabi\\include\\sys\\reent.h"
 835              	 .file 7 "c:\\infineon\\tools\\dave ide\\4.5.0.202105191637\\eclipse\\arm-gcc-49\\arm-none-eabi\\include\\sys\\types.h"
 836              	 .file 8 "c:\\infineon\\tools\\dave ide\\4.5.0.202105191637\\eclipse\\arm-gcc-49\\arm-none-eabi\\include\\stdio.h"
 837              	 .file 9 "c:\\infineon\\tools\\dave ide\\4.5.0.202105191637\\eclipse\\arm-gcc-49\\arm-none-eabi\\include\\stdint.h"
 838              	 .file 10 "C:/Users/Utente/Desktop/Tesi/Firmware_Software/DAVE project/S2GLP_Pulsed_Doppler/Store/inc/datastore.h"
 839              	 .file 11 "C:/Users/Utente/Desktop/Tesi/Firmware_Software/DAVE project/S2GLP_Pulsed_Doppler/Libraries/CMSIS/Infineon/XMC4700_series/Include/XMC4700.h"
 840              	 .file 12 "C:/Users/Utente/Desktop/Tesi/Firmware_Software/DAVE project/S2GLP_Pulsed_Doppler/Libraries/XMCLib/inc/xmc_vadc.h"
 841              	 .file 13 "C:/Users/Utente/Desktop/Tesi/Firmware_Software/DAVE project/S2GLP_Pulsed_Doppler/Dave/Generated/CMSIS_DSP/arm_math.h"
 842              	 .file 14 "C:/Users/Utente/Desktop/Tesi/Firmware_Software/DAVE project/S2GLP_Pulsed_Doppler/Libraries/XMCLib/inc/xmc_usbd_regs.h"
 843              	 .file 15 "C:/Users/Utente/Desktop/Tesi/Firmware_Software/DAVE project/S2GLP_Pulsed_Doppler/Libraries/XMCLib/inc/xmc_usbd.h"
 844              	 .file 16 "C:/Users/Utente/Desktop/Tesi/Firmware_Software/DAVE project/S2GLP_Pulsed_Doppler/Dave/Generated/USBD/usbd.h"
 845              	 .file 17 "C:/Users/Utente/Desktop/Tesi/Firmware_Software/DAVE project/S2GLP_Pulsed_Doppler/DSP_LIB/inc/dsp_lib.h"
 846              	 .file 18 "C:/Users/Utente/Desktop/Tesi/Firmware_Software/DAVE project/S2GLP_Pulsed_Doppler/Libraries/CMSIS/Include/core_cm4.h"
 847              	 .file 19 "C:/Users/Utente/Desktop/Tesi/Firmware_Software/DAVE project/S2GLP_Pulsed_Doppler/Libraries/CMSIS/Infineon/XMC4700_series/Include/system_XMC4700.h"
 848              	 .file 20 "C:/Users/Utente/Desktop/Tesi/Firmware_Software/DAVE project/S2GLP_Pulsed_Doppler/Dave/Generated/ADC_MEASUREMENT_ADV/adc_measurement_adv.h"
 849              	 .file 21 "C:/Users/Utente/Desktop/Tesi/Firmware_Software/DAVE project/S2GLP_Pulsed_Doppler/Dave/Generated/USBD/usbd_extern.h"
 850              	 .file 22 "c:\\infineon\\tools\\dave ide\\4.5.0.202105191637\\eclipse\\arm-gcc-49\\arm-none-eabi\\include\\stdlib.h"
 851              	 .file 23 "c:\\infineon\\tools\\dave ide\\4.5.0.202105191637\\eclipse\\arm-gcc-49\\arm-none-eabi\\include\\time.h"
 852              	 .file 24 "<built-in>"
 853              	 .file 25 "C:/Users/Utente/Desktop/Tesi/Firmware_Software/DAVE project/S2GLP_Pulsed_Doppler/Algorithms/inc/doppler.h"