   1              	 .syntax unified
   2              	 .cpu cortex-m4
   3              	 .eabi_attribute 27,3
   4              	 .fpu fpv4-sp-d16
   5              	 .eabi_attribute 20,1
   6              	 .eabi_attribute 21,1
   7              	 .eabi_attribute 23,3
   8              	 .eabi_attribute 24,1
   9              	 .eabi_attribute 25,1
  10              	 .eabi_attribute 26,1
  11              	 .eabi_attribute 30,2
  12              	 .eabi_attribute 34,1
  13              	 .eabi_attribute 18,4
  14              	 .thumb
  15              	 .file "xmc4_scu.c"
  16              	 .text
  17              	.Ltext0:
  18              	 .cfi_sections .debug_frame
  19              	 .section .text.XMC_SCU_INTERRUPT_EnableEvent,"ax",%progbits
  20              	 .align 2
  21              	 .global XMC_SCU_INTERRUPT_EnableEvent
  22              	 .thumb
  23              	 .thumb_func
  25              	XMC_SCU_INTERRUPT_EnableEvent:
  26              	.LFB163:
  27              	 .file 1 "../Libraries/XMCLib/src/xmc4_scu.c"
   1:../Libraries/XMCLib/src/xmc4_scu.c **** /**
   2:../Libraries/XMCLib/src/xmc4_scu.c ****  * @file xmc4_scu.c
   3:../Libraries/XMCLib/src/xmc4_scu.c ****  * @date 2016-06-15
   4:../Libraries/XMCLib/src/xmc4_scu.c ****  *
   5:../Libraries/XMCLib/src/xmc4_scu.c ****  * @cond
   6:../Libraries/XMCLib/src/xmc4_scu.c ****  **************************************************************************************************
   7:../Libraries/XMCLib/src/xmc4_scu.c ****  * XMClib v2.1.16 - XMC Peripheral Driver Library 
   8:../Libraries/XMCLib/src/xmc4_scu.c ****  *
   9:../Libraries/XMCLib/src/xmc4_scu.c ****  * Copyright (c) 2015-2017, Infineon Technologies AG
  10:../Libraries/XMCLib/src/xmc4_scu.c ****  * All rights reserved.                        
  11:../Libraries/XMCLib/src/xmc4_scu.c ****  *                                             
  12:../Libraries/XMCLib/src/xmc4_scu.c ****  * Redistribution and use in source and binary forms, with or without modification,are permitted pr
  13:../Libraries/XMCLib/src/xmc4_scu.c ****  * following conditions are met:   
  14:../Libraries/XMCLib/src/xmc4_scu.c ****  *                                                                              
  15:../Libraries/XMCLib/src/xmc4_scu.c ****  * Redistributions of source code must retain the above copyright notice, this list of conditions a
  16:../Libraries/XMCLib/src/xmc4_scu.c ****  * disclaimer.                        
  17:../Libraries/XMCLib/src/xmc4_scu.c ****  * 
  18:../Libraries/XMCLib/src/xmc4_scu.c ****  * Redistributions in binary form must reproduce the above copyright notice, this list of condition
  19:../Libraries/XMCLib/src/xmc4_scu.c ****  * disclaimer in the documentation and/or other materials provided with the distribution.          
  20:../Libraries/XMCLib/src/xmc4_scu.c ****  * 
  21:../Libraries/XMCLib/src/xmc4_scu.c ****  * Neither the name of the copyright holders nor the names of its contributors may be used to endor
  22:../Libraries/XMCLib/src/xmc4_scu.c ****  * products derived from this software without specific prior written permission.                  
  23:../Libraries/XMCLib/src/xmc4_scu.c ****  *                                                                              
  24:../Libraries/XMCLib/src/xmc4_scu.c ****  * THIS SOFTWARE IS PROVIDED BY THE COPYRIGHT HOLDERS AND CONTRIBUTORS "AS IS" AND ANY EXPRESS OR I
  25:../Libraries/XMCLib/src/xmc4_scu.c ****  * INCLUDING, BUT NOT LIMITED TO, THE IMPLIED WARRANTIES OF MERCHANTABILITY AND FITNESS FOR A PARTI
  26:../Libraries/XMCLib/src/xmc4_scu.c ****  * DISCLAIMED. IN NO EVENT SHALL THE COPYRIGHT HOLDER OR CONTRIBUTORS BE LIABLE  FOR ANY DIRECT, IN
  27:../Libraries/XMCLib/src/xmc4_scu.c ****  * SPECIAL, EXEMPLARY, OR CONSEQUENTIAL DAMAGES (INCLUDING, BUT NOT LIMITED TO, PROCUREMENT OF SUBS
  28:../Libraries/XMCLib/src/xmc4_scu.c ****  * SERVICES; LOSS OF USE, DATA, OR PROFITS; OR BUSINESS INTERRUPTION) HOWEVER CAUSED AND ON ANY THE
  29:../Libraries/XMCLib/src/xmc4_scu.c ****  * WHETHER IN CONTRACT, STRICT LIABILITY,OR TORT (INCLUDING NEGLIGENCE OR OTHERWISE) ARISING IN ANY
  30:../Libraries/XMCLib/src/xmc4_scu.c ****  * OF THIS SOFTWARE, EVEN IF ADVISED OF THE POSSIBILITY OF SUCH DAMAGE.                            
  31:../Libraries/XMCLib/src/xmc4_scu.c ****  *                                                                              
  32:../Libraries/XMCLib/src/xmc4_scu.c ****  * To improve the quality of the software, users are encouraged to share modifications, enhancement
  33:../Libraries/XMCLib/src/xmc4_scu.c ****  * Infineon Technologies AG dave@infineon.com).                                                    
  34:../Libraries/XMCLib/src/xmc4_scu.c ****  **************************************************************************************************
  35:../Libraries/XMCLib/src/xmc4_scu.c ****  *
  36:../Libraries/XMCLib/src/xmc4_scu.c ****  * Change History
  37:../Libraries/XMCLib/src/xmc4_scu.c ****  * --------------
  38:../Libraries/XMCLib/src/xmc4_scu.c ****  *
  39:../Libraries/XMCLib/src/xmc4_scu.c ****  * 2015-02-20:
  40:../Libraries/XMCLib/src/xmc4_scu.c ****  *     - Initial <br>
  41:../Libraries/XMCLib/src/xmc4_scu.c ****  *      
  42:../Libraries/XMCLib/src/xmc4_scu.c ****  * 2015-05-20:
  43:../Libraries/XMCLib/src/xmc4_scu.c ****  *     - XMC_ASSERT() hanging issues have fixed.  <br>
  44:../Libraries/XMCLib/src/xmc4_scu.c ****  *     - Line indentation aligned with 120 characters. <br>
  45:../Libraries/XMCLib/src/xmc4_scu.c ****  *     
  46:../Libraries/XMCLib/src/xmc4_scu.c ****  * 2015-06-20:
  47:../Libraries/XMCLib/src/xmc4_scu.c ****  *     - XMC_SCU_INTERRUPT_EnableEvent,XMC_SCU_INTERRUPT_DisableEvent,
  48:../Libraries/XMCLib/src/xmc4_scu.c ****  *     - XMC_SCU_INTERRUPT_TriggerEvent,XMC_SCU_INTERUPT_GetEventStatus,
  49:../Libraries/XMCLib/src/xmc4_scu.c ****  *     - XMC_SCU_INTERRUPT_ClearEventStatus are added
  50:../Libraries/XMCLib/src/xmc4_scu.c ****  *     - Added Weak implementation for OSCHP_GetFrequency()
  51:../Libraries/XMCLib/src/xmc4_scu.c ****  *
  52:../Libraries/XMCLib/src/xmc4_scu.c ****  * 2015-11-30:
  53:../Libraries/XMCLib/src/xmc4_scu.c ****  *     - Documentation improved <br>
  54:../Libraries/XMCLib/src/xmc4_scu.c ****  *     - Following API functionalities are improved
  55:../Libraries/XMCLib/src/xmc4_scu.c ****  *       XMC_SCU_CLOCK_GatePeripheralClock, XMC_SCU_CLOCK_UngatePeripheralClock, XMC_SCU_CLOCK_IsPe
  56:../Libraries/XMCLib/src/xmc4_scu.c ****  *       XMC_SCU_RESET_AssertPeripheralReset, XMC_SCU_RESET_DeassertPeripheralReset, XMC_SCU_RESET_
  57:../Libraries/XMCLib/src/xmc4_scu.c ****  *
  58:../Libraries/XMCLib/src/xmc4_scu.c ****  * 2015-12-08:
  59:../Libraries/XMCLib/src/xmc4_scu.c ****  *     - XMC_SCU_GetTemperature renamed to XMC_SCU_GetTemperatureMeasurement
  60:../Libraries/XMCLib/src/xmc4_scu.c ****  *
  61:../Libraries/XMCLib/src/xmc4_scu.c ****  * 2016-03-09:
  62:../Libraries/XMCLib/src/xmc4_scu.c ****  *     - Optimize write only registers
  63:../Libraries/XMCLib/src/xmc4_scu.c ****  *     - Added XMC_SCU_HIB_SetPinMode
  64:../Libraries/XMCLib/src/xmc4_scu.c ****  *     - Added XMC_SCU_HIB_GetHibernateControlStatus,
  65:../Libraries/XMCLib/src/xmc4_scu.c ****  *             XMC_SCU_HIB_GetEventStatus, XMC_SCU_HIB_ClearEventStatus, XMC_SCU_HIB_TriggerEvent, 
  66:../Libraries/XMCLib/src/xmc4_scu.c ****  *             XMC_SCU_HIB_EnableEvent, XMC_SCU_HIB_DisableEvent
  67:../Libraries/XMCLib/src/xmc4_scu.c ****  *     - Added XMC_SCU_HIB_SetWakeupTriggerInput, XMC_SCU_HIB_SetPinMode, XMC_SCU_HIB_SetOutputPinL
  68:../Libraries/XMCLib/src/xmc4_scu.c ****  *             XMC_SCU_HIB_SetInput0, XMC_SCU_HIB_EnterHibernateState
  69:../Libraries/XMCLib/src/xmc4_scu.c ****  *
  70:../Libraries/XMCLib/src/xmc4_scu.c ****  * 2016-04-06:
  71:../Libraries/XMCLib/src/xmc4_scu.c ****  *     - Fixed XMC_SCU_ReadFromRetentionMemory functionality
  72:../Libraries/XMCLib/src/xmc4_scu.c ****  *
  73:../Libraries/XMCLib/src/xmc4_scu.c ****  * 2016-05-19:
  74:../Libraries/XMCLib/src/xmc4_scu.c ****  *     - Changed XMC_SCU_CLOCK_StartSystemPll to avoid using floating point calculation which might
  75:../Libraries/XMCLib/src/xmc4_scu.c ****  *     - Added XMC_SCU_CLOCK_IsLowPowerOscillatorStable() and XMC_SCU_CLOCK_IsHighPerformanceOscill
  76:../Libraries/XMCLib/src/xmc4_scu.c ****  *     - Added XMC_SCU_CLOCK_EnableLowPowerOscillatorGeneralPurposeInput(), 
  77:../Libraries/XMCLib/src/xmc4_scu.c ****  *             XMC_SCU_CLOCK_DisableLowPowerOscillatorGeneralPurposeInput(),
  78:../Libraries/XMCLib/src/xmc4_scu.c ****  *             XMC_SCU_CLOCK_GetLowPowerOscillatorGeneralPurposeInputStatus()
  79:../Libraries/XMCLib/src/xmc4_scu.c ****  *     - Added XMC_SCU_CLOCK_EnableHighPerformanceOscillatorGeneralPurposeInput(), 
  80:../Libraries/XMCLib/src/xmc4_scu.c ****  *             XMC_SCU_CLOCK_DisableHighPerformanceOscillatorGeneralPurposeInput(),
  81:../Libraries/XMCLib/src/xmc4_scu.c ****  *             XMC_SCU_CLOCK_GetHighPerformanceOscillatorGeneralPurposeInputStatus()
  82:../Libraries/XMCLib/src/xmc4_scu.c ****  *
  83:../Libraries/XMCLib/src/xmc4_scu.c ****  * 2016-06-15:
  84:../Libraries/XMCLib/src/xmc4_scu.c ****  *     - Added XMC_SCU_HIB_EnterHibernateStateEx() which allows to select between external or inter
  85:../Libraries/XMCLib/src/xmc4_scu.c ****  *     - Extended wakeup hibernate events using LPAC wakeup on events. Only available in XMC44, XMC
  86:../Libraries/XMCLib/src/xmc4_scu.c ****  *     - Added LPAC APIs. Only available in XMC44, XMC42 and XMC41 series.
  87:../Libraries/XMCLib/src/xmc4_scu.c ****  *
  88:../Libraries/XMCLib/src/xmc4_scu.c ****  * @endcond 
  89:../Libraries/XMCLib/src/xmc4_scu.c ****  *
  90:../Libraries/XMCLib/src/xmc4_scu.c ****  */
  91:../Libraries/XMCLib/src/xmc4_scu.c **** 
  92:../Libraries/XMCLib/src/xmc4_scu.c **** /**
  93:../Libraries/XMCLib/src/xmc4_scu.c ****  *
  94:../Libraries/XMCLib/src/xmc4_scu.c ****  * @brief SCU low level driver API prototype definition for XMC4 family of microcontrollers. 
  95:../Libraries/XMCLib/src/xmc4_scu.c ****  *
  96:../Libraries/XMCLib/src/xmc4_scu.c ****  * <b>Detailed description of file:</b> <br>
  97:../Libraries/XMCLib/src/xmc4_scu.c ****  * APIs provided in this file cover the following functional blocks of SCU: <br>
  98:../Libraries/XMCLib/src/xmc4_scu.c ****  * -- GCU (APIs prefixed with XMC_SCU_GEN_) <br>
  99:../Libraries/XMCLib/src/xmc4_scu.c ****  * ------ Temperature Monitoring, Bootmode selection, CCU Start, Comparator configuration etc  <br>
 100:../Libraries/XMCLib/src/xmc4_scu.c ****  * -- CCU (APIs prefixed with XMC_SCU_CLOCK_) <br>
 101:../Libraries/XMCLib/src/xmc4_scu.c ****  * ------ Clock sources init, Clock tree init, Clock gating, Sleep Management etc <br>
 102:../Libraries/XMCLib/src/xmc4_scu.c ****  * -- RCU (APIs prefixed with XMC_SCU_RESET_) <br>
 103:../Libraries/XMCLib/src/xmc4_scu.c ****  * ------ Reset Init, Cause, Manual Reset Assert/Deassert <br>
 104:../Libraries/XMCLib/src/xmc4_scu.c ****  * -- INTERRUPT (APIs prefixed with XMC_SCU_INTERRUPT_) <br>
 105:../Libraries/XMCLib/src/xmc4_scu.c ****  * ------ Init, Manual Assert/Deassert, Acknowledge etc <br>
 106:../Libraries/XMCLib/src/xmc4_scu.c ****  * -- PARITY (APIs prefixed with XMC_SCU_PARITY_) <br>
 107:../Libraries/XMCLib/src/xmc4_scu.c ****  * ------ Init, Acknowledge etc <br>
 108:../Libraries/XMCLib/src/xmc4_scu.c ****  * -- HIBERNATION (APIs prefixed with XMC_SCU_HIB_) <br>
 109:../Libraries/XMCLib/src/xmc4_scu.c ****  * ------ Hibernation entry/exit config, entry/wakeup sequences, LPAC configuration etc <br>
 110:../Libraries/XMCLib/src/xmc4_scu.c ****  * -- TRAP (APIs prefixed with XMC_SCU_TRAP_) <br>
 111:../Libraries/XMCLib/src/xmc4_scu.c ****  * ------ Init, Enable/Disable, Acknowledge etc <br>
 112:../Libraries/XMCLib/src/xmc4_scu.c ****  *
 113:../Libraries/XMCLib/src/xmc4_scu.c ****  */
 114:../Libraries/XMCLib/src/xmc4_scu.c **** 
 115:../Libraries/XMCLib/src/xmc4_scu.c **** /**************************************************************************************************
 116:../Libraries/XMCLib/src/xmc4_scu.c ****  * HEADER FILES
 117:../Libraries/XMCLib/src/xmc4_scu.c ****  **************************************************************************************************
 118:../Libraries/XMCLib/src/xmc4_scu.c **** #include <xmc_scu.h>
 119:../Libraries/XMCLib/src/xmc4_scu.c **** 
 120:../Libraries/XMCLib/src/xmc4_scu.c **** #if UC_FAMILY == XMC4
 121:../Libraries/XMCLib/src/xmc4_scu.c **** 
 122:../Libraries/XMCLib/src/xmc4_scu.c **** /**************************************************************************************************
 123:../Libraries/XMCLib/src/xmc4_scu.c ****  * MACROS
 124:../Libraries/XMCLib/src/xmc4_scu.c ****  **************************************************************************************************
 125:../Libraries/XMCLib/src/xmc4_scu.c **** #define FOSCREF   (2500000UL)    /**< Oscillator reference frequency (fOSCREF) monitored by Oscilla
 126:../Libraries/XMCLib/src/xmc4_scu.c **** #define FREQ_1MHZ (1000000UL)    /**< Used during calculation. */
 127:../Libraries/XMCLib/src/xmc4_scu.c **** 
 128:../Libraries/XMCLib/src/xmc4_scu.c **** #ifndef OFI_FREQUENCY
 129:../Libraries/XMCLib/src/xmc4_scu.c **** #define OFI_FREQUENCY (24000000UL)    /**< Fast internal backup clock source. */
 130:../Libraries/XMCLib/src/xmc4_scu.c **** #endif
 131:../Libraries/XMCLib/src/xmc4_scu.c **** 
 132:../Libraries/XMCLib/src/xmc4_scu.c **** #ifndef OSI_FREQUENCY
 133:../Libraries/XMCLib/src/xmc4_scu.c **** #define OSI_FREQUENCY (32768UL)    /**< Internal slow clock source. */
 134:../Libraries/XMCLib/src/xmc4_scu.c **** #endif
 135:../Libraries/XMCLib/src/xmc4_scu.c **** 
 136:../Libraries/XMCLib/src/xmc4_scu.c **** #ifndef OSCHP_FREQUENCY
 137:../Libraries/XMCLib/src/xmc4_scu.c **** #define OSCHP_FREQUENCY (12000000U)    /**< External crystal High Precision Oscillator. */
 138:../Libraries/XMCLib/src/xmc4_scu.c **** #endif
 139:../Libraries/XMCLib/src/xmc4_scu.c **** 
 140:../Libraries/XMCLib/src/xmc4_scu.c **** #define XMC_SCU_PLL_PLLSTAT_OSC_USABLE  (SCU_PLL_PLLSTAT_PLLHV_Msk | \
 141:../Libraries/XMCLib/src/xmc4_scu.c ****                                          SCU_PLL_PLLSTAT_PLLLV_Msk | \
 142:../Libraries/XMCLib/src/xmc4_scu.c ****                                          SCU_PLL_PLLSTAT_PLLSP_Msk)  /**< Used to verify the OSC fr
 143:../Libraries/XMCLib/src/xmc4_scu.c ****                                                                           usable or not.*/
 144:../Libraries/XMCLib/src/xmc4_scu.c **** 
 145:../Libraries/XMCLib/src/xmc4_scu.c **** #define XMC_SCU_ORC_ADC_START_GROUP    (0UL)    /**< The ADC group whose channel input is compared 
 146:../Libraries/XMCLib/src/xmc4_scu.c ****                                                      Comparator (ORC) to serves the purpose of over
 147:../Libraries/XMCLib/src/xmc4_scu.c ****                                                      for analog input pins of the chip and ORC star
 148:../Libraries/XMCLib/src/xmc4_scu.c ****                                                      this group number. */
 149:../Libraries/XMCLib/src/xmc4_scu.c **** #define XMC_SCU_ORC_ADC_END_GROUP      (1UL)    /**< The ADC group whose channel input is compared 
 150:../Libraries/XMCLib/src/xmc4_scu.c ****                                                      Comparator (ORC) to serves the purpose of over
 151:../Libraries/XMCLib/src/xmc4_scu.c ****                                                      for analog input pins of the chip and ORC end 
 152:../Libraries/XMCLib/src/xmc4_scu.c ****                                                      this group number. */
 153:../Libraries/XMCLib/src/xmc4_scu.c **** #define XMC_SCU_ORC_START_ADC_CHANNEL  (6UL)    /**< The ADC channel whose channel input is compare
 154:../Libraries/XMCLib/src/xmc4_scu.c ****                                                      Comparator (ORC) to serves the purpose of over
 155:../Libraries/XMCLib/src/xmc4_scu.c ****                                                      for analog input pins of the chip and ORC star
 156:../Libraries/XMCLib/src/xmc4_scu.c ****                                                      this channel number. */
 157:../Libraries/XMCLib/src/xmc4_scu.c **** #define XMC_SCU_ORC_END_ADC_CHANNEL    (7UL)    /**< The ADC channel whose channel input is compare
 158:../Libraries/XMCLib/src/xmc4_scu.c ****                                                      Comparator (ORC) to serves the purpose of over
 159:../Libraries/XMCLib/src/xmc4_scu.c ****                                                      for analog input pins of the chip and ORC ends
 160:../Libraries/XMCLib/src/xmc4_scu.c ****                                                      this channel number. */
 161:../Libraries/XMCLib/src/xmc4_scu.c **** 
 162:../Libraries/XMCLib/src/xmc4_scu.c **** #define XMC_SCU_CHECK_GRPNUM(GROUP_NUM)   (((GROUP_NUM) == XMC_SCU_ORC_ADC_START_GROUP) || \
 163:../Libraries/XMCLib/src/xmc4_scu.c ****                                         ((GROUP_NUM) == XMC_SCU_ORC_ADC_END_GROUP) ) /**< Used to v
 164:../Libraries/XMCLib/src/xmc4_scu.c ****                                                                                       provided ADC 
 165:../Libraries/XMCLib/src/xmc4_scu.c ****                                                                                       within specif
 166:../Libraries/XMCLib/src/xmc4_scu.c ****                                                                                       end group num
 167:../Libraries/XMCLib/src/xmc4_scu.c ****                                         
 168:../Libraries/XMCLib/src/xmc4_scu.c **** #define XMC_SCU_CHECK_CHNUM(CH_NUM)       (((CH_NUM) == XMC_SCU_ORC_START_ADC_CHANNEL) || \
 169:../Libraries/XMCLib/src/xmc4_scu.c ****                                         ((CH_NUM) == XMC_SCU_ORC_END_ADC_CHANNEL) )  /**< Used to v
 170:../Libraries/XMCLib/src/xmc4_scu.c ****                                                                                       provided ADC 
 171:../Libraries/XMCLib/src/xmc4_scu.c ****                                                                                       within specif
 172:../Libraries/XMCLib/src/xmc4_scu.c ****                                                                                       end channel n
 173:../Libraries/XMCLib/src/xmc4_scu.c **** 
 174:../Libraries/XMCLib/src/xmc4_scu.c **** #define XMC_SCU_INTERRUPT_EVENT_MAX            (32U)      /**< Maximum supported SCU events. */
 175:../Libraries/XMCLib/src/xmc4_scu.c **** 
 176:../Libraries/XMCLib/src/xmc4_scu.c **** #define SCU_HIBERNATE_HDCR_HIBIOSEL_Size (4U)
 177:../Libraries/XMCLib/src/xmc4_scu.c **** 
 178:../Libraries/XMCLib/src/xmc4_scu.c **** #define SCU_HIBERNATE_OSCULCTRL_MODE_OSC_POWER_DOWN (0x2U)
 179:../Libraries/XMCLib/src/xmc4_scu.c **** 
 180:../Libraries/XMCLib/src/xmc4_scu.c **** #define XMC_SCU_POWER_LSB13V (0.0058F)
 181:../Libraries/XMCLib/src/xmc4_scu.c **** #define XMC_SCU_POWER_LSB33V (0.0225F)
 182:../Libraries/XMCLib/src/xmc4_scu.c **** 
 183:../Libraries/XMCLib/src/xmc4_scu.c **** /**************************************************************************************************
 184:../Libraries/XMCLib/src/xmc4_scu.c ****  * LOCAL DATA
 185:../Libraries/XMCLib/src/xmc4_scu.c ****  **************************************************************************************************
 186:../Libraries/XMCLib/src/xmc4_scu.c **** XMC_SCU_INTERRUPT_EVENT_HANDLER_t event_handler_list[XMC_SCU_INTERRUPT_EVENT_MAX]; /**< For registe
 187:../Libraries/XMCLib/src/xmc4_scu.c ****                                                                                         functions o
 188:../Libraries/XMCLib/src/xmc4_scu.c ****                                                                                         occurrence.
 189:../Libraries/XMCLib/src/xmc4_scu.c **** 
 190:../Libraries/XMCLib/src/xmc4_scu.c **** /**************************************************************************************************
 191:../Libraries/XMCLib/src/xmc4_scu.c ****  * LOCAL ROUTINES
 192:../Libraries/XMCLib/src/xmc4_scu.c ****  **************************************************************************************************
 193:../Libraries/XMCLib/src/xmc4_scu.c ****  #if defined(UC_ID)
 194:../Libraries/XMCLib/src/xmc4_scu.c **** /* This is a non-weak function, which retrieves high precision external oscillator frequency. */
 195:../Libraries/XMCLib/src/xmc4_scu.c **** __WEAK uint32_t OSCHP_GetFrequency(void)
 196:../Libraries/XMCLib/src/xmc4_scu.c **** {
 197:../Libraries/XMCLib/src/xmc4_scu.c ****   return (OSCHP_FREQUENCY);
 198:../Libraries/XMCLib/src/xmc4_scu.c **** }
 199:../Libraries/XMCLib/src/xmc4_scu.c **** #endif
 200:../Libraries/XMCLib/src/xmc4_scu.c **** 
 201:../Libraries/XMCLib/src/xmc4_scu.c **** /* This is a local function used to generate the delay until register get updated with new configur
 202:../Libraries/XMCLib/src/xmc4_scu.c **** static void XMC_SCU_lDelay(uint32_t cycles);
 203:../Libraries/XMCLib/src/xmc4_scu.c **** 
 204:../Libraries/XMCLib/src/xmc4_scu.c **** /**************************************************************************************************
 205:../Libraries/XMCLib/src/xmc4_scu.c ****  * API IMPLEMENTATION
 206:../Libraries/XMCLib/src/xmc4_scu.c ****  **************************************************************************************************
 207:../Libraries/XMCLib/src/xmc4_scu.c **** /* This is a local function used to generate the delay until register get updated with new configur
 208:../Libraries/XMCLib/src/xmc4_scu.c **** void XMC_SCU_lDelay(uint32_t delay)
 209:../Libraries/XMCLib/src/xmc4_scu.c **** {
 210:../Libraries/XMCLib/src/xmc4_scu.c ****   uint32_t i;
 211:../Libraries/XMCLib/src/xmc4_scu.c **** 
 212:../Libraries/XMCLib/src/xmc4_scu.c ****   SystemCoreClockUpdate();
 213:../Libraries/XMCLib/src/xmc4_scu.c ****   delay =  delay * (uint32_t)(SystemCoreClock / FREQ_1MHZ);
 214:../Libraries/XMCLib/src/xmc4_scu.c **** 
 215:../Libraries/XMCLib/src/xmc4_scu.c ****   for (i = 0U; i < delay; ++i)
 216:../Libraries/XMCLib/src/xmc4_scu.c ****   {
 217:../Libraries/XMCLib/src/xmc4_scu.c ****     __NOP();
 218:../Libraries/XMCLib/src/xmc4_scu.c ****   }
 219:../Libraries/XMCLib/src/xmc4_scu.c **** }
 220:../Libraries/XMCLib/src/xmc4_scu.c **** 
 221:../Libraries/XMCLib/src/xmc4_scu.c **** /* API to enable the SCU event */
 222:../Libraries/XMCLib/src/xmc4_scu.c **** void XMC_SCU_INTERRUPT_EnableEvent(const XMC_SCU_INTERRUPT_EVENT_t event)
 223:../Libraries/XMCLib/src/xmc4_scu.c **** {
  28              	 .loc 1 223 0
  29              	 .cfi_startproc
  30              	 
  31              	 
  32              	 
  33              	.LVL0:
 224:../Libraries/XMCLib/src/xmc4_scu.c ****   SCU_INTERRUPT->SRMSK |= (uint32_t)event;
  34              	 .loc 1 224 0
  35 0000 024A     	 ldr r2,.L2
  36 0002 9368     	 ldr r3,[r2,#8]
  37 0004 1843     	 orrs r0,r0,r3
  38              	.LVL1:
  39 0006 9060     	 str r0,[r2,#8]
  40 0008 7047     	 bx lr
  41              	.L3:
  42 000a 00BF     	 .align 2
  43              	.L2:
  44 000c 74400050 	 .word 1342193780
  45              	 .cfi_endproc
  46              	.LFE163:
  48              	 .section .text.XMC_SCU_INTERRUPT_DisableEvent,"ax",%progbits
  49              	 .align 2
  50              	 .global XMC_SCU_INTERRUPT_DisableEvent
  51              	 .thumb
  52              	 .thumb_func
  54              	XMC_SCU_INTERRUPT_DisableEvent:
  55              	.LFB164:
 225:../Libraries/XMCLib/src/xmc4_scu.c **** }
 226:../Libraries/XMCLib/src/xmc4_scu.c **** 
 227:../Libraries/XMCLib/src/xmc4_scu.c **** /* API to disable the SCU event */
 228:../Libraries/XMCLib/src/xmc4_scu.c **** void XMC_SCU_INTERRUPT_DisableEvent(const XMC_SCU_INTERRUPT_EVENT_t event)
 229:../Libraries/XMCLib/src/xmc4_scu.c **** {
  56              	 .loc 1 229 0
  57              	 .cfi_startproc
  58              	 
  59              	 
  60              	 
  61              	.LVL2:
 230:../Libraries/XMCLib/src/xmc4_scu.c ****   SCU_INTERRUPT->SRMSK &= (uint32_t)~event;
  62              	 .loc 1 230 0
  63 0000 024A     	 ldr r2,.L5
  64 0002 9368     	 ldr r3,[r2,#8]
  65 0004 23EA0000 	 bic r0,r3,r0
  66              	.LVL3:
  67 0008 9060     	 str r0,[r2,#8]
  68 000a 7047     	 bx lr
  69              	.L6:
  70              	 .align 2
  71              	.L5:
  72 000c 74400050 	 .word 1342193780
  73              	 .cfi_endproc
  74              	.LFE164:
  76              	 .section .text.XMC_SCU_INTERRUPT_TriggerEvent,"ax",%progbits
  77              	 .align 2
  78              	 .global XMC_SCU_INTERRUPT_TriggerEvent
  79              	 .thumb
  80              	 .thumb_func
  82              	XMC_SCU_INTERRUPT_TriggerEvent:
  83              	.LFB165:
 231:../Libraries/XMCLib/src/xmc4_scu.c **** }
 232:../Libraries/XMCLib/src/xmc4_scu.c **** 
 233:../Libraries/XMCLib/src/xmc4_scu.c **** /* API to trigger the SCU event */
 234:../Libraries/XMCLib/src/xmc4_scu.c **** void XMC_SCU_INTERRUPT_TriggerEvent(const XMC_SCU_INTERRUPT_EVENT_t event)
 235:../Libraries/XMCLib/src/xmc4_scu.c **** {
  84              	 .loc 1 235 0
  85              	 .cfi_startproc
  86              	 
  87              	 
  88              	 
  89              	.LVL4:
 236:../Libraries/XMCLib/src/xmc4_scu.c ****   SCU_INTERRUPT->SRSET |= (uint32_t)event;
  90              	 .loc 1 236 0
  91 0000 024A     	 ldr r2,.L8
  92 0002 1369     	 ldr r3,[r2,#16]
  93 0004 1843     	 orrs r0,r0,r3
  94              	.LVL5:
  95 0006 1061     	 str r0,[r2,#16]
  96 0008 7047     	 bx lr
  97              	.L9:
  98 000a 00BF     	 .align 2
  99              	.L8:
 100 000c 74400050 	 .word 1342193780
 101              	 .cfi_endproc
 102              	.LFE165:
 104              	 .section .text.XMC_SCU_INTERUPT_GetEventStatus,"ax",%progbits
 105              	 .align 2
 106              	 .global XMC_SCU_INTERUPT_GetEventStatus
 107              	 .thumb
 108              	 .thumb_func
 110              	XMC_SCU_INTERUPT_GetEventStatus:
 111              	.LFB166:
 237:../Libraries/XMCLib/src/xmc4_scu.c **** }
 238:../Libraries/XMCLib/src/xmc4_scu.c **** 
 239:../Libraries/XMCLib/src/xmc4_scu.c **** /* API to retrieve the SCU event status */
 240:../Libraries/XMCLib/src/xmc4_scu.c **** XMC_SCU_INTERRUPT_EVENT_t XMC_SCU_INTERUPT_GetEventStatus(void)
 241:../Libraries/XMCLib/src/xmc4_scu.c **** {
 112              	 .loc 1 241 0
 113              	 .cfi_startproc
 114              	 
 115              	 
 116              	 
 242:../Libraries/XMCLib/src/xmc4_scu.c ****   return (SCU_INTERRUPT->SRRAW);
 117              	 .loc 1 242 0
 118 0000 014B     	 ldr r3,.L11
 119 0002 5868     	 ldr r0,[r3,#4]
 243:../Libraries/XMCLib/src/xmc4_scu.c **** }
 120              	 .loc 1 243 0
 121 0004 7047     	 bx lr
 122              	.L12:
 123 0006 00BF     	 .align 2
 124              	.L11:
 125 0008 74400050 	 .word 1342193780
 126              	 .cfi_endproc
 127              	.LFE166:
 129              	 .section .text.XMC_SCU_INTERRUPT_ClearEventStatus,"ax",%progbits
 130              	 .align 2
 131              	 .global XMC_SCU_INTERRUPT_ClearEventStatus
 132              	 .thumb
 133              	 .thumb_func
 135              	XMC_SCU_INTERRUPT_ClearEventStatus:
 136              	.LFB167:
 244:../Libraries/XMCLib/src/xmc4_scu.c **** 
 245:../Libraries/XMCLib/src/xmc4_scu.c **** /* API to clear the SCU event status */
 246:../Libraries/XMCLib/src/xmc4_scu.c **** void XMC_SCU_INTERRUPT_ClearEventStatus(const XMC_SCU_INTERRUPT_EVENT_t event)
 247:../Libraries/XMCLib/src/xmc4_scu.c **** {
 137              	 .loc 1 247 0
 138              	 .cfi_startproc
 139              	 
 140              	 
 141              	 
 142              	.LVL6:
 248:../Libraries/XMCLib/src/xmc4_scu.c ****   SCU_INTERRUPT->SRCLR = (uint32_t)event;
 143              	 .loc 1 248 0
 144 0000 014B     	 ldr r3,.L14
 145 0002 D860     	 str r0,[r3,#12]
 146 0004 7047     	 bx lr
 147              	.L15:
 148 0006 00BF     	 .align 2
 149              	.L14:
 150 0008 74400050 	 .word 1342193780
 151              	 .cfi_endproc
 152              	.LFE167:
 154              	 .section .text.XMC_SCU_GetBootMode,"ax",%progbits
 155              	 .align 2
 156              	 .global XMC_SCU_GetBootMode
 157              	 .thumb
 158              	 .thumb_func
 160              	XMC_SCU_GetBootMode:
 161              	.LFB168:
 249:../Libraries/XMCLib/src/xmc4_scu.c **** }
 250:../Libraries/XMCLib/src/xmc4_scu.c **** 
 251:../Libraries/XMCLib/src/xmc4_scu.c **** 
 252:../Libraries/XMCLib/src/xmc4_scu.c **** /* API to retrieve the currently deployed device bootmode */
 253:../Libraries/XMCLib/src/xmc4_scu.c **** uint32_t XMC_SCU_GetBootMode(void)
 254:../Libraries/XMCLib/src/xmc4_scu.c **** {
 162              	 .loc 1 254 0
 163              	 .cfi_startproc
 164              	 
 165              	 
 166              	 
 255:../Libraries/XMCLib/src/xmc4_scu.c ****   return (uint32_t)(SCU_GENERAL->STCON & SCU_GENERAL_STCON_SWCON_Msk);
 167              	 .loc 1 255 0
 168 0000 024B     	 ldr r3,.L17
 169 0002 1869     	 ldr r0,[r3,#16]
 256:../Libraries/XMCLib/src/xmc4_scu.c **** }
 170              	 .loc 1 256 0
 171 0004 00F47060 	 and r0,r0,#3840
 172 0008 7047     	 bx lr
 173              	.L18:
 174 000a 00BF     	 .align 2
 175              	.L17:
 176 000c 00400050 	 .word 1342193664
 177              	 .cfi_endproc
 178              	.LFE168:
 180              	 .section .text.XMC_SCU_SetBootMode,"ax",%progbits
 181              	 .align 2
 182              	 .global XMC_SCU_SetBootMode
 183              	 .thumb
 184              	 .thumb_func
 186              	XMC_SCU_SetBootMode:
 187              	.LFB169:
 257:../Libraries/XMCLib/src/xmc4_scu.c **** 
 258:../Libraries/XMCLib/src/xmc4_scu.c **** /* API to program a new device bootmode */
 259:../Libraries/XMCLib/src/xmc4_scu.c **** void XMC_SCU_SetBootMode(const XMC_SCU_BOOTMODE_t bootmode)
 260:../Libraries/XMCLib/src/xmc4_scu.c **** {
 188              	 .loc 1 260 0
 189              	 .cfi_startproc
 190              	 
 191              	 
 192              	 
 193              	.LVL7:
 261:../Libraries/XMCLib/src/xmc4_scu.c ****   SCU_GENERAL->STCON = (uint32_t)bootmode;
 194              	 .loc 1 261 0
 195 0000 014B     	 ldr r3,.L20
 196 0002 1861     	 str r0,[r3,#16]
 197 0004 7047     	 bx lr
 198              	.L21:
 199 0006 00BF     	 .align 2
 200              	.L20:
 201 0008 00400050 	 .word 1342193664
 202              	 .cfi_endproc
 203              	.LFE169:
 205              	 .section .text.XMC_SCU_ReadGPR,"ax",%progbits
 206              	 .align 2
 207              	 .global XMC_SCU_ReadGPR
 208              	 .thumb
 209              	 .thumb_func
 211              	XMC_SCU_ReadGPR:
 212              	.LFB170:
 262:../Libraries/XMCLib/src/xmc4_scu.c **** }
 263:../Libraries/XMCLib/src/xmc4_scu.c **** 
 264:../Libraries/XMCLib/src/xmc4_scu.c **** /* API to read from General purpose register */
 265:../Libraries/XMCLib/src/xmc4_scu.c **** uint32_t XMC_SCU_ReadGPR(const uint32_t index)
 266:../Libraries/XMCLib/src/xmc4_scu.c **** {
 213              	 .loc 1 266 0
 214              	 .cfi_startproc
 215              	 
 216              	 
 217              	 
 218              	.LVL8:
 267:../Libraries/XMCLib/src/xmc4_scu.c ****   return (SCU_GENERAL->GPR[index]);
 219              	 .loc 1 267 0
 220 0000 024B     	 ldr r3,.L23
 221 0002 8000     	 lsls r0,r0,#2
 222              	.LVL9:
 223 0004 0344     	 add r3,r3,r0
 224 0006 5868     	 ldr r0,[r3,#4]
 268:../Libraries/XMCLib/src/xmc4_scu.c **** }
 225              	 .loc 1 268 0
 226 0008 7047     	 bx lr
 227              	.L24:
 228 000a 00BF     	 .align 2
 229              	.L23:
 230 000c 28400050 	 .word 1342193704
 231              	 .cfi_endproc
 232              	.LFE170:
 234              	 .section .text.XMC_SCU_WriteGPR,"ax",%progbits
 235              	 .align 2
 236              	 .global XMC_SCU_WriteGPR
 237              	 .thumb
 238              	 .thumb_func
 240              	XMC_SCU_WriteGPR:
 241              	.LFB171:
 269:../Libraries/XMCLib/src/xmc4_scu.c **** 
 270:../Libraries/XMCLib/src/xmc4_scu.c **** /* API to write to GPR */
 271:../Libraries/XMCLib/src/xmc4_scu.c **** void XMC_SCU_WriteGPR(const uint32_t index, const uint32_t data)
 272:../Libraries/XMCLib/src/xmc4_scu.c **** {
 242              	 .loc 1 272 0
 243              	 .cfi_startproc
 244              	 
 245              	 
 246              	 
 247              	.LVL10:
 273:../Libraries/XMCLib/src/xmc4_scu.c ****   SCU_GENERAL->GPR[index] = data;
 248              	 .loc 1 273 0
 249 0000 024B     	 ldr r3,.L26
 250 0002 8000     	 lsls r0,r0,#2
 251              	.LVL11:
 252 0004 0344     	 add r3,r3,r0
 253 0006 5960     	 str r1,[r3,#4]
 254 0008 7047     	 bx lr
 255              	.L27:
 256 000a 00BF     	 .align 2
 257              	.L26:
 258 000c 28400050 	 .word 1342193704
 259              	 .cfi_endproc
 260              	.LFE171:
 262              	 .section .text.XMC_SCU_EnableOutOfRangeComparator,"ax",%progbits
 263              	 .align 2
 264              	 .global XMC_SCU_EnableOutOfRangeComparator
 265              	 .thumb
 266              	 .thumb_func
 268              	XMC_SCU_EnableOutOfRangeComparator:
 269              	.LFB172:
 274:../Libraries/XMCLib/src/xmc4_scu.c **** }
 275:../Libraries/XMCLib/src/xmc4_scu.c **** 
 276:../Libraries/XMCLib/src/xmc4_scu.c **** /* API to enable Out of Range Comparator(ORC) for a desired group and a desired channel input */
 277:../Libraries/XMCLib/src/xmc4_scu.c **** void XMC_SCU_EnableOutOfRangeComparator(const uint32_t group, const uint32_t channel)
 278:../Libraries/XMCLib/src/xmc4_scu.c **** {
 270              	 .loc 1 278 0
 271              	 .cfi_startproc
 272              	 
 273              	 
 274              	 
 275              	.LVL12:
 276 0000 8000     	 lsls r0,r0,#2
 277              	.LVL13:
 278 0002 00F1A040 	 add r0,r0,#1342177280
 279 0006 00F58040 	 add r0,r0,#16384
 279:../Libraries/XMCLib/src/xmc4_scu.c ****   XMC_ASSERT("XMC_SCU_EnableOutOfangeComparator:Wrong Group Number",XMC_SCU_CHECK_GRPNUM(group));
 280:../Libraries/XMCLib/src/xmc4_scu.c ****   XMC_ASSERT("XMC_SCU_EnableOutOfangeComparator:Wrong Channel Number",XMC_SCU_CHECK_CHNUM(channel))
 281:../Libraries/XMCLib/src/xmc4_scu.c ****    
 282:../Libraries/XMCLib/src/xmc4_scu.c ****   SCU_GENERAL->GORCEN[group] |= (uint32_t)(1UL << channel);
 280              	 .loc 1 282 0
 281 000a 0122     	 movs r2,#1
 282 000c D0F8A030 	 ldr r3,[r0,#160]
 283 0010 8A40     	 lsls r2,r2,r1
 284 0012 1343     	 orrs r3,r3,r2
 285 0014 C0F8A030 	 str r3,[r0,#160]
 286 0018 7047     	 bx lr
 287              	 .cfi_endproc
 288              	.LFE172:
 290 001a 00BF     	 .section .text.XMC_SCU_DisableOutOfRangeComparator,"ax",%progbits
 291              	 .align 2
 292              	 .global XMC_SCU_DisableOutOfRangeComparator
 293              	 .thumb
 294              	 .thumb_func
 296              	XMC_SCU_DisableOutOfRangeComparator:
 297              	.LFB173:
 283:../Libraries/XMCLib/src/xmc4_scu.c **** }
 284:../Libraries/XMCLib/src/xmc4_scu.c **** 
 285:../Libraries/XMCLib/src/xmc4_scu.c **** /* API to enable Out of Range Comparator(ORC) for a desired group and a desired channel input */
 286:../Libraries/XMCLib/src/xmc4_scu.c **** void XMC_SCU_DisableOutOfRangeComparator(const uint32_t group, const uint32_t channel)
 287:../Libraries/XMCLib/src/xmc4_scu.c **** {
 298              	 .loc 1 287 0
 299              	 .cfi_startproc
 300              	 
 301              	 
 302              	 
 303              	.LVL14:
 304 0000 8000     	 lsls r0,r0,#2
 305              	.LVL15:
 306 0002 00F1A040 	 add r0,r0,#1342177280
 307 0006 00F58040 	 add r0,r0,#16384
 288:../Libraries/XMCLib/src/xmc4_scu.c ****   XMC_ASSERT("XMC_SCU_DisableOutOfRangeComparator:Wrong Group Number",XMC_SCU_CHECK_GRPNUM(group));
 289:../Libraries/XMCLib/src/xmc4_scu.c ****   XMC_ASSERT("XMC_SCU_DisableOutOfRangeComparator:Wrong Channel Number",XMC_SCU_CHECK_CHNUM(channel
 290:../Libraries/XMCLib/src/xmc4_scu.c ****    
 291:../Libraries/XMCLib/src/xmc4_scu.c ****   SCU_GENERAL->GORCEN[group] &= (uint32_t)~(1UL << channel);
 308              	 .loc 1 291 0
 309 000a 0122     	 movs r2,#1
 310 000c D0F8A030 	 ldr r3,[r0,#160]
 311 0010 8A40     	 lsls r2,r2,r1
 312 0012 23EA0203 	 bic r3,r3,r2
 313 0016 C0F8A030 	 str r3,[r0,#160]
 314 001a 7047     	 bx lr
 315              	 .cfi_endproc
 316              	.LFE173:
 318              	 .section .text.XMC_SCU_CalibrateTemperatureSensor,"ax",%progbits
 319              	 .align 2
 320              	 .global XMC_SCU_CalibrateTemperatureSensor
 321              	 .thumb
 322              	 .thumb_func
 324              	XMC_SCU_CalibrateTemperatureSensor:
 325              	.LFB174:
 292:../Libraries/XMCLib/src/xmc4_scu.c **** }
 293:../Libraries/XMCLib/src/xmc4_scu.c **** 
 294:../Libraries/XMCLib/src/xmc4_scu.c **** /* API to calibrate temperature sensor */
 295:../Libraries/XMCLib/src/xmc4_scu.c **** void XMC_SCU_CalibrateTemperatureSensor(uint32_t offset, uint32_t gain)
 296:../Libraries/XMCLib/src/xmc4_scu.c **** {
 326              	 .loc 1 296 0
 327              	 .cfi_startproc
 328              	 
 329              	 
 330              	 
 331              	.LVL16:
 297:../Libraries/XMCLib/src/xmc4_scu.c ****   SCU_GENERAL->DTSCON = ((uint32_t)(offset << SCU_GENERAL_DTSCON_OFFSET_Pos) |
 298:../Libraries/XMCLib/src/xmc4_scu.c ****                         (uint32_t)(gain << SCU_GENERAL_DTSCON_GAIN_Pos) |
 332              	 .loc 1 298 0
 333 0000 C902     	 lsls r1,r1,#11
 334              	.LVL17:
 335 0002 41F40801 	 orr r1,r1,#8912896
 297:../Libraries/XMCLib/src/xmc4_scu.c ****   SCU_GENERAL->DTSCON = ((uint32_t)(offset << SCU_GENERAL_DTSCON_OFFSET_Pos) |
 336              	 .loc 1 297 0
 337 0006 034B     	 ldr r3,.L31
 299:../Libraries/XMCLib/src/xmc4_scu.c ****                         (uint32_t)(0x4UL << SCU_GENERAL_DTSCON_REFTRIM_Pos) |
 338              	 .loc 1 299 0
 339 0008 41EA0010 	 orr r0,r1,r0,lsl#4
 340              	.LVL18:
 297:../Libraries/XMCLib/src/xmc4_scu.c ****   SCU_GENERAL->DTSCON = ((uint32_t)(offset << SCU_GENERAL_DTSCON_OFFSET_Pos) |
 341              	 .loc 1 297 0
 342 000c C3F88C00 	 str r0,[r3,#140]
 343 0010 7047     	 bx lr
 344              	.L32:
 345 0012 00BF     	 .align 2
 346              	.L31:
 347 0014 00400050 	 .word 1342193664
 348              	 .cfi_endproc
 349              	.LFE174:
 351              	 .section .text.XMC_SCU_EnableTemperatureSensor,"ax",%progbits
 352              	 .align 2
 353              	 .global XMC_SCU_EnableTemperatureSensor
 354              	 .thumb
 355              	 .thumb_func
 357              	XMC_SCU_EnableTemperatureSensor:
 358              	.LFB175:
 300:../Libraries/XMCLib/src/xmc4_scu.c ****                         (uint32_t)(0x8UL << SCU_GENERAL_DTSCON_BGTRIM_Pos));
 301:../Libraries/XMCLib/src/xmc4_scu.c **** }
 302:../Libraries/XMCLib/src/xmc4_scu.c **** /* API to enable die temperature measurement by powering the DTS module. */
 303:../Libraries/XMCLib/src/xmc4_scu.c **** void XMC_SCU_EnableTemperatureSensor(void)
 304:../Libraries/XMCLib/src/xmc4_scu.c **** {
 359              	 .loc 1 304 0
 360              	 .cfi_startproc
 361              	 
 362              	 
 363              	 
 305:../Libraries/XMCLib/src/xmc4_scu.c ****   SCU_GENERAL->DTSCON &= (uint32_t)~(SCU_GENERAL_DTSCON_PWD_Msk);
 364              	 .loc 1 305 0
 365 0000 034A     	 ldr r2,.L34
 366 0002 D2F88C30 	 ldr r3,[r2,#140]
 367 0006 23F00103 	 bic r3,r3,#1
 368 000a C2F88C30 	 str r3,[r2,#140]
 369 000e 7047     	 bx lr
 370              	.L35:
 371              	 .align 2
 372              	.L34:
 373 0010 00400050 	 .word 1342193664
 374              	 .cfi_endproc
 375              	.LFE175:
 377              	 .section .text.XMC_SCU_DisableTemperatureSensor,"ax",%progbits
 378              	 .align 2
 379              	 .global XMC_SCU_DisableTemperatureSensor
 380              	 .thumb
 381              	 .thumb_func
 383              	XMC_SCU_DisableTemperatureSensor:
 384              	.LFB176:
 306:../Libraries/XMCLib/src/xmc4_scu.c **** }
 307:../Libraries/XMCLib/src/xmc4_scu.c **** 
 308:../Libraries/XMCLib/src/xmc4_scu.c **** /* API to disable die temperature measurement by powering the DTS module off. */
 309:../Libraries/XMCLib/src/xmc4_scu.c **** void XMC_SCU_DisableTemperatureSensor(void)
 310:../Libraries/XMCLib/src/xmc4_scu.c **** {
 385              	 .loc 1 310 0
 386              	 .cfi_startproc
 387              	 
 388              	 
 389              	 
 311:../Libraries/XMCLib/src/xmc4_scu.c ****   SCU_GENERAL->DTSCON |= (uint32_t)SCU_GENERAL_DTSCON_PWD_Msk;
 390              	 .loc 1 311 0
 391 0000 034A     	 ldr r2,.L37
 392 0002 D2F88C30 	 ldr r3,[r2,#140]
 393 0006 43F00103 	 orr r3,r3,#1
 394 000a C2F88C30 	 str r3,[r2,#140]
 395 000e 7047     	 bx lr
 396              	.L38:
 397              	 .align 2
 398              	.L37:
 399 0010 00400050 	 .word 1342193664
 400              	 .cfi_endproc
 401              	.LFE176:
 403              	 .section .text.XMC_SCU_IsTemperatureSensorEnabled,"ax",%progbits
 404              	 .align 2
 405              	 .global XMC_SCU_IsTemperatureSensorEnabled
 406              	 .thumb
 407              	 .thumb_func
 409              	XMC_SCU_IsTemperatureSensorEnabled:
 410              	.LFB177:
 312:../Libraries/XMCLib/src/xmc4_scu.c **** }
 313:../Libraries/XMCLib/src/xmc4_scu.c **** 
 314:../Libraries/XMCLib/src/xmc4_scu.c **** /* API to provide the die temperature sensor power status. */
 315:../Libraries/XMCLib/src/xmc4_scu.c **** bool XMC_SCU_IsTemperatureSensorEnabled(void)
 316:../Libraries/XMCLib/src/xmc4_scu.c **** {
 411              	 .loc 1 316 0
 412              	 .cfi_startproc
 413              	 
 414              	 
 415              	 
 317:../Libraries/XMCLib/src/xmc4_scu.c ****   return ((SCU_GENERAL->DTSCON & SCU_GENERAL_DTSCON_PWD_Msk) == 0U);
 416              	 .loc 1 317 0
 417 0000 034B     	 ldr r3,.L40
 418 0002 D3F88C00 	 ldr r0,[r3,#140]
 419 0006 00F00100 	 and r0,r0,#1
 318:../Libraries/XMCLib/src/xmc4_scu.c **** }
 420              	 .loc 1 318 0
 421 000a 80F00100 	 eor r0,r0,#1
 422 000e 7047     	 bx lr
 423              	.L41:
 424              	 .align 2
 425              	.L40:
 426 0010 00400050 	 .word 1342193664
 427              	 .cfi_endproc
 428              	.LFE177:
 430              	 .section .text.XMC_SCU_IsTemperatureSensorReady,"ax",%progbits
 431              	 .align 2
 432              	 .global XMC_SCU_IsTemperatureSensorReady
 433              	 .thumb
 434              	 .thumb_func
 436              	XMC_SCU_IsTemperatureSensorReady:
 437              	.LFB178:
 319:../Libraries/XMCLib/src/xmc4_scu.c **** 
 320:../Libraries/XMCLib/src/xmc4_scu.c **** /* API to check if the die temperature sensor is ready to start a measurement. */
 321:../Libraries/XMCLib/src/xmc4_scu.c **** bool XMC_SCU_IsTemperatureSensorReady(void)
 322:../Libraries/XMCLib/src/xmc4_scu.c **** {
 438              	 .loc 1 322 0
 439              	 .cfi_startproc
 440              	 
 441              	 
 442              	 
 323:../Libraries/XMCLib/src/xmc4_scu.c ****   return ((SCU_GENERAL->DTSSTAT & SCU_GENERAL_DTSSTAT_RDY_Msk) != 0U);
 443              	 .loc 1 323 0
 444 0000 024B     	 ldr r3,.L43
 445 0002 D3F89000 	 ldr r0,[r3,#144]
 324:../Libraries/XMCLib/src/xmc4_scu.c **** }
 446              	 .loc 1 324 0
 447 0006 C0F38030 	 ubfx r0,r0,#14,#1
 448 000a 7047     	 bx lr
 449              	.L44:
 450              	 .align 2
 451              	.L43:
 452 000c 00400050 	 .word 1342193664
 453              	 .cfi_endproc
 454              	.LFE178:
 456              	 .section .text.XMC_SCU_StartTemperatureMeasurement,"ax",%progbits
 457              	 .align 2
 458              	 .global XMC_SCU_StartTemperatureMeasurement
 459              	 .thumb
 460              	 .thumb_func
 462              	XMC_SCU_StartTemperatureMeasurement:
 463              	.LFB179:
 325:../Libraries/XMCLib/src/xmc4_scu.c **** /* API to start device temperature measurements */
 326:../Libraries/XMCLib/src/xmc4_scu.c **** XMC_SCU_STATUS_t XMC_SCU_StartTemperatureMeasurement(void)
 327:../Libraries/XMCLib/src/xmc4_scu.c **** {
 464              	 .loc 1 327 0
 465              	 .cfi_startproc
 466              	 
 467              	 
 468              	 
 469              	.LVL19:
 470              	.LBB58:
 471              	.LBB59:
 317:../Libraries/XMCLib/src/xmc4_scu.c **** }
 472              	 .loc 1 317 0
 473 0000 084B     	 ldr r3,.L48
 474              	.LBE59:
 475              	.LBE58:
 328:../Libraries/XMCLib/src/xmc4_scu.c ****   XMC_SCU_STATUS_t status = XMC_SCU_STATUS_OK;
 329:../Libraries/XMCLib/src/xmc4_scu.c **** 
 330:../Libraries/XMCLib/src/xmc4_scu.c ****   if (XMC_SCU_IsTemperatureSensorEnabled() == false)
 331:../Libraries/XMCLib/src/xmc4_scu.c ****   {
 332:../Libraries/XMCLib/src/xmc4_scu.c ****     status = XMC_SCU_STATUS_ERROR;
 333:../Libraries/XMCLib/src/xmc4_scu.c ****   }
 334:../Libraries/XMCLib/src/xmc4_scu.c ****    
 335:../Libraries/XMCLib/src/xmc4_scu.c ****   if (XMC_SCU_IsTemperatureSensorBusy() == true)
 336:../Libraries/XMCLib/src/xmc4_scu.c ****   {
 337:../Libraries/XMCLib/src/xmc4_scu.c ****     status = XMC_SCU_STATUS_BUSY;
 338:../Libraries/XMCLib/src/xmc4_scu.c ****   }
 339:../Libraries/XMCLib/src/xmc4_scu.c **** 
 340:../Libraries/XMCLib/src/xmc4_scu.c ****   /* And start the measurement */
 341:../Libraries/XMCLib/src/xmc4_scu.c ****   SCU_GENERAL->DTSCON |= (uint32_t)SCU_GENERAL_DTSCON_START_Msk;
 476              	 .loc 1 341 0
 477 0002 084A     	 ldr r2,.L48
 478              	.LBB61:
 479              	.LBB60:
 317:../Libraries/XMCLib/src/xmc4_scu.c **** }
 480              	 .loc 1 317 0
 481 0004 D3F88C00 	 ldr r0,[r3,#140]
 482              	.LVL20:
 483              	.LBE60:
 484              	.LBE61:
 485              	.LBB62:
 486              	.LBB63:
 342:../Libraries/XMCLib/src/xmc4_scu.c ****   
 343:../Libraries/XMCLib/src/xmc4_scu.c ****   return (status);
 344:../Libraries/XMCLib/src/xmc4_scu.c **** }
 345:../Libraries/XMCLib/src/xmc4_scu.c **** 
 346:../Libraries/XMCLib/src/xmc4_scu.c **** /* API to retrieve the temperature measured */
 347:../Libraries/XMCLib/src/xmc4_scu.c **** uint32_t XMC_SCU_GetTemperatureMeasurement(void)
 348:../Libraries/XMCLib/src/xmc4_scu.c **** {
 349:../Libraries/XMCLib/src/xmc4_scu.c ****   uint32_t temperature;
 350:../Libraries/XMCLib/src/xmc4_scu.c **** 
 351:../Libraries/XMCLib/src/xmc4_scu.c ****   if (XMC_SCU_IsTemperatureSensorEnabled() == false)
 352:../Libraries/XMCLib/src/xmc4_scu.c ****   {
 353:../Libraries/XMCLib/src/xmc4_scu.c ****     temperature = 0x7FFFFFFFUL;
 354:../Libraries/XMCLib/src/xmc4_scu.c ****   }
 355:../Libraries/XMCLib/src/xmc4_scu.c ****   else
 356:../Libraries/XMCLib/src/xmc4_scu.c ****   {
 357:../Libraries/XMCLib/src/xmc4_scu.c ****     temperature = (uint32_t)((SCU_GENERAL->DTSSTAT & SCU_GENERAL_DTSSTAT_RESULT_Msk) >> SCU_GENERAL
 358:../Libraries/XMCLib/src/xmc4_scu.c ****   }
 359:../Libraries/XMCLib/src/xmc4_scu.c ****   
 360:../Libraries/XMCLib/src/xmc4_scu.c ****   return ((uint32_t)temperature);
 361:../Libraries/XMCLib/src/xmc4_scu.c **** }
 362:../Libraries/XMCLib/src/xmc4_scu.c **** 
 363:../Libraries/XMCLib/src/xmc4_scu.c **** /* API to know whether Die temperature sensor is busy */
 364:../Libraries/XMCLib/src/xmc4_scu.c **** bool XMC_SCU_IsTemperatureSensorBusy(void)
 365:../Libraries/XMCLib/src/xmc4_scu.c **** {
 366:../Libraries/XMCLib/src/xmc4_scu.c ****   return ((SCU_GENERAL->DTSSTAT & SCU_GENERAL_DTSSTAT_BUSY_Msk) != 0U);
 487              	 .loc 1 366 0
 488 0008 D3F89030 	 ldr r3,[r3,#144]
 489              	.LBE63:
 490              	.LBE62:
 335:../Libraries/XMCLib/src/xmc4_scu.c ****   {
 491              	 .loc 1 335 0
 492 000c 1B04     	 lsls r3,r3,#16
 341:../Libraries/XMCLib/src/xmc4_scu.c ****   
 493              	 .loc 1 341 0
 494 000e D2F88C30 	 ldr r3,[r2,#140]
 495 0012 43F00203 	 orr r3,r3,#2
 328:../Libraries/XMCLib/src/xmc4_scu.c **** 
 496              	 .loc 1 328 0
 497 0016 54BF     	 ite pl
 498 0018 00F00100 	 andpl r0,r0,#1
 499              	.LVL21:
 337:../Libraries/XMCLib/src/xmc4_scu.c ****   }
 500              	 .loc 1 337 0
 501 001c 0220     	 movmi r0,#2
 502              	.LVL22:
 341:../Libraries/XMCLib/src/xmc4_scu.c ****   
 503              	 .loc 1 341 0
 504 001e C2F88C30 	 str r3,[r2,#140]
 344:../Libraries/XMCLib/src/xmc4_scu.c **** 
 505              	 .loc 1 344 0
 506 0022 7047     	 bx lr
 507              	.L49:
 508              	 .align 2
 509              	.L48:
 510 0024 00400050 	 .word 1342193664
 511              	 .cfi_endproc
 512              	.LFE179:
 514              	 .section .text.XMC_SCU_GetTemperatureMeasurement,"ax",%progbits
 515              	 .align 2
 516              	 .global XMC_SCU_GetTemperatureMeasurement
 517              	 .thumb
 518              	 .thumb_func
 520              	XMC_SCU_GetTemperatureMeasurement:
 521              	.LFB180:
 348:../Libraries/XMCLib/src/xmc4_scu.c ****   uint32_t temperature;
 522              	 .loc 1 348 0
 523              	 .cfi_startproc
 524              	 
 525              	 
 526              	 
 527              	.LBB64:
 528              	.LBB65:
 317:../Libraries/XMCLib/src/xmc4_scu.c **** }
 529              	 .loc 1 317 0
 530 0000 054B     	 ldr r3,.L53
 531 0002 D3F88C20 	 ldr r2,[r3,#140]
 532              	.LBE65:
 533              	.LBE64:
 351:../Libraries/XMCLib/src/xmc4_scu.c ****   {
 534              	 .loc 1 351 0
 535 0006 D207     	 lsls r2,r2,#31
 357:../Libraries/XMCLib/src/xmc4_scu.c ****   }
 536              	 .loc 1 357 0
 537 0008 5ABF     	 itte pl
 538 000a D3F89000 	 ldrpl r0,[r3,#144]
 539 000e C0F30900 	 ubfxpl r0,r0,#0,#10
 540              	.LVL23:
 353:../Libraries/XMCLib/src/xmc4_scu.c ****   }
 541              	 .loc 1 353 0
 542 0012 6FF00040 	 mvnmi r0,#-2147483648
 543              	.LVL24:
 361:../Libraries/XMCLib/src/xmc4_scu.c **** 
 544              	 .loc 1 361 0
 545 0016 7047     	 bx lr
 546              	.L54:
 547              	 .align 2
 548              	.L53:
 549 0018 00400050 	 .word 1342193664
 550              	 .cfi_endproc
 551              	.LFE180:
 553              	 .section .text.XMC_SCU_IsTemperatureSensorBusy,"ax",%progbits
 554              	 .align 2
 555              	 .global XMC_SCU_IsTemperatureSensorBusy
 556              	 .thumb
 557              	 .thumb_func
 559              	XMC_SCU_IsTemperatureSensorBusy:
 560              	.LFB181:
 365:../Libraries/XMCLib/src/xmc4_scu.c ****   return ((SCU_GENERAL->DTSSTAT & SCU_GENERAL_DTSSTAT_BUSY_Msk) != 0U);
 561              	 .loc 1 365 0
 562              	 .cfi_startproc
 563              	 
 564              	 
 565              	 
 566              	 .loc 1 366 0
 567 0000 024B     	 ldr r3,.L56
 568 0002 D3F89000 	 ldr r0,[r3,#144]
 367:../Libraries/XMCLib/src/xmc4_scu.c **** }
 569              	 .loc 1 367 0
 570 0006 C0F3C030 	 ubfx r0,r0,#15,#1
 571 000a 7047     	 bx lr
 572              	.L57:
 573              	 .align 2
 574              	.L56:
 575 000c 00400050 	 .word 1342193664
 576              	 .cfi_endproc
 577              	.LFE181:
 579              	 .section .text.XMC_SCU_WriteToRetentionMemory,"ax",%progbits
 580              	 .align 2
 581              	 .global XMC_SCU_WriteToRetentionMemory
 582              	 .thumb
 583              	 .thumb_func
 585              	XMC_SCU_WriteToRetentionMemory:
 586              	.LFB182:
 368:../Libraries/XMCLib/src/xmc4_scu.c **** 
 369:../Libraries/XMCLib/src/xmc4_scu.c **** 
 370:../Libraries/XMCLib/src/xmc4_scu.c **** #if defined(SCU_GENERAL_DTEMPLIM_LOWER_Msk) && defined(SCU_GENERAL_DTEMPLIM_UPPER_Msk)
 371:../Libraries/XMCLib/src/xmc4_scu.c **** /* API to determine if device temperature has gone past the ceiling */
 372:../Libraries/XMCLib/src/xmc4_scu.c **** bool XMC_SCU_HighTemperature(void)
 373:../Libraries/XMCLib/src/xmc4_scu.c **** {
 374:../Libraries/XMCLib/src/xmc4_scu.c ****   bool ret_val;
 375:../Libraries/XMCLib/src/xmc4_scu.c ****   uint32_t   dtscon;
 376:../Libraries/XMCLib/src/xmc4_scu.c ****   uint32_t   dtempalarm;
 377:../Libraries/XMCLib/src/xmc4_scu.c ****   dtscon = SCU_GENERAL->DTSCON;
 378:../Libraries/XMCLib/src/xmc4_scu.c ****   dtscon = dtscon & SCU_GENERAL_DTSCON_PWD_Msk;
 379:../Libraries/XMCLib/src/xmc4_scu.c **** 
 380:../Libraries/XMCLib/src/xmc4_scu.c ****   ret_val = false;
 381:../Libraries/XMCLib/src/xmc4_scu.c **** 
 382:../Libraries/XMCLib/src/xmc4_scu.c ****   /* Any audit makes sense only if the DTS were powered up */  
 383:../Libraries/XMCLib/src/xmc4_scu.c ****   if(dtscon)
 384:../Libraries/XMCLib/src/xmc4_scu.c ****   {
 385:../Libraries/XMCLib/src/xmc4_scu.c ****     /* Powered down - return false */
 386:../Libraries/XMCLib/src/xmc4_scu.c ****     ret_val = false;
 387:../Libraries/XMCLib/src/xmc4_scu.c ****   }
 388:../Libraries/XMCLib/src/xmc4_scu.c ****   else
 389:../Libraries/XMCLib/src/xmc4_scu.c ****   {
 390:../Libraries/XMCLib/src/xmc4_scu.c ****     /* Powered up - Read the overflow bit and decide accordingly*/
 391:../Libraries/XMCLib/src/xmc4_scu.c ****     dtempalarm = SCU_GENERAL->DTEMPALARM;
 392:../Libraries/XMCLib/src/xmc4_scu.c ****     dtempalarm = dtempalarm & SCU_GENERAL_DTEMPALARM_OVERFL_Msk;
 393:../Libraries/XMCLib/src/xmc4_scu.c ****     
 394:../Libraries/XMCLib/src/xmc4_scu.c ****     if(dtempalarm)
 395:../Libraries/XMCLib/src/xmc4_scu.c ****     {
 396:../Libraries/XMCLib/src/xmc4_scu.c ****       ret_val = true;
 397:../Libraries/XMCLib/src/xmc4_scu.c ****     }
 398:../Libraries/XMCLib/src/xmc4_scu.c ****     else
 399:../Libraries/XMCLib/src/xmc4_scu.c ****     {
 400:../Libraries/XMCLib/src/xmc4_scu.c ****       ret_val = false;
 401:../Libraries/XMCLib/src/xmc4_scu.c ****     }
 402:../Libraries/XMCLib/src/xmc4_scu.c ****   }
 403:../Libraries/XMCLib/src/xmc4_scu.c ****   return (ret_val);
 404:../Libraries/XMCLib/src/xmc4_scu.c **** }
 405:../Libraries/XMCLib/src/xmc4_scu.c **** 
 406:../Libraries/XMCLib/src/xmc4_scu.c **** /* API to program raw values of temperature limits into the DTS */
 407:../Libraries/XMCLib/src/xmc4_scu.c **** void XMC_SCU_SetRawTempLimits(const uint32_t lower_temp, const uint32_t upper_temp)
 408:../Libraries/XMCLib/src/xmc4_scu.c **** {
 409:../Libraries/XMCLib/src/xmc4_scu.c ****   /* Power up the DTS module */
 410:../Libraries/XMCLib/src/xmc4_scu.c ****   SCU_GENERAL->DTSCON &= (uint32_t)~SCU_GENERAL_DTSCON_PWD_Msk;
 411:../Libraries/XMCLib/src/xmc4_scu.c ****   SCU_GENERAL->DTEMPLIM = 0;
 412:../Libraries/XMCLib/src/xmc4_scu.c ****   SCU_GENERAL->DTEMPLIM = (lower_temp & SCU_GENERAL_DTEMPLIM_LOWER_Msk);
 413:../Libraries/XMCLib/src/xmc4_scu.c ****   SCU_GENERAL->DTEMPLIM |= (uint32_t)((upper_temp & SCU_GENERAL_DTEMPLIM_LOWER_Msk) << SCU_GENERAL_
 414:../Libraries/XMCLib/src/xmc4_scu.c **** }
 415:../Libraries/XMCLib/src/xmc4_scu.c **** 
 416:../Libraries/XMCLib/src/xmc4_scu.c **** /* API to determine if device temperature has gone below the stipulated limit */
 417:../Libraries/XMCLib/src/xmc4_scu.c **** bool XMC_SCU_LowTemperature(void)
 418:../Libraries/XMCLib/src/xmc4_scu.c **** {
 419:../Libraries/XMCLib/src/xmc4_scu.c ****   bool ret_val;
 420:../Libraries/XMCLib/src/xmc4_scu.c ****   uint32_t   dtscon;
 421:../Libraries/XMCLib/src/xmc4_scu.c ****   uint32_t   dtempalarm;
 422:../Libraries/XMCLib/src/xmc4_scu.c ****   dtscon = SCU_GENERAL->DTSCON;
 423:../Libraries/XMCLib/src/xmc4_scu.c ****   dtscon = dtscon & SCU_GENERAL_DTSCON_PWD_Msk;
 424:../Libraries/XMCLib/src/xmc4_scu.c **** 
 425:../Libraries/XMCLib/src/xmc4_scu.c ****   ret_val = false;
 426:../Libraries/XMCLib/src/xmc4_scu.c **** 
 427:../Libraries/XMCLib/src/xmc4_scu.c ****   /* Any audit makes sense only if the DTS were powered up */  
 428:../Libraries/XMCLib/src/xmc4_scu.c ****   if(dtscon)
 429:../Libraries/XMCLib/src/xmc4_scu.c ****   {
 430:../Libraries/XMCLib/src/xmc4_scu.c ****     /* Powered down - return false */
 431:../Libraries/XMCLib/src/xmc4_scu.c ****     ret_val = false;
 432:../Libraries/XMCLib/src/xmc4_scu.c ****   }
 433:../Libraries/XMCLib/src/xmc4_scu.c ****   else
 434:../Libraries/XMCLib/src/xmc4_scu.c ****   {
 435:../Libraries/XMCLib/src/xmc4_scu.c ****     /* Powered up - Read the overflow bit and decide accordingly*/
 436:../Libraries/XMCLib/src/xmc4_scu.c ****     dtempalarm = SCU_GENERAL->DTEMPALARM;
 437:../Libraries/XMCLib/src/xmc4_scu.c ****     dtempalarm = dtempalarm & SCU_GENERAL_DTEMPALARM_UNDERFL_Msk;
 438:../Libraries/XMCLib/src/xmc4_scu.c ****     
 439:../Libraries/XMCLib/src/xmc4_scu.c ****     if(dtempalarm)
 440:../Libraries/XMCLib/src/xmc4_scu.c ****     {
 441:../Libraries/XMCLib/src/xmc4_scu.c ****       ret_val = true;
 442:../Libraries/XMCLib/src/xmc4_scu.c ****     }
 443:../Libraries/XMCLib/src/xmc4_scu.c ****     else
 444:../Libraries/XMCLib/src/xmc4_scu.c ****     {
 445:../Libraries/XMCLib/src/xmc4_scu.c ****       ret_val = false;
 446:../Libraries/XMCLib/src/xmc4_scu.c ****     }
 447:../Libraries/XMCLib/src/xmc4_scu.c ****   }
 448:../Libraries/XMCLib/src/xmc4_scu.c ****   
 449:../Libraries/XMCLib/src/xmc4_scu.c ****   return (ret_val);
 450:../Libraries/XMCLib/src/xmc4_scu.c **** }
 451:../Libraries/XMCLib/src/xmc4_scu.c **** #endif  
 452:../Libraries/XMCLib/src/xmc4_scu.c **** 
 453:../Libraries/XMCLib/src/xmc4_scu.c **** /* API to write into Retention memory in hibernate domain */
 454:../Libraries/XMCLib/src/xmc4_scu.c **** void XMC_SCU_WriteToRetentionMemory(uint32_t address, uint32_t data)
 455:../Libraries/XMCLib/src/xmc4_scu.c **** {
 587              	 .loc 1 455 0
 588              	 .cfi_startproc
 589              	 
 590              	 
 591              	 
 592              	.LVL25:
 456:../Libraries/XMCLib/src/xmc4_scu.c ****   uint32_t rmacr;
 457:../Libraries/XMCLib/src/xmc4_scu.c ****   
 458:../Libraries/XMCLib/src/xmc4_scu.c ****   /* Get the address right */  
 459:../Libraries/XMCLib/src/xmc4_scu.c ****   rmacr = (uint32_t)((address << SCU_GENERAL_RMACR_ADDR_Pos) & (uint32_t)SCU_GENERAL_RMACR_ADDR_Msk
 593              	 .loc 1 459 0
 594 0000 0004     	 lsls r0,r0,#16
 595              	.LVL26:
 460:../Libraries/XMCLib/src/xmc4_scu.c ****   
 461:../Libraries/XMCLib/src/xmc4_scu.c ****   /* Transfer from RMDATA to Retention memory */
 462:../Libraries/XMCLib/src/xmc4_scu.c ****   rmacr |= (uint32_t)(SCU_GENERAL_RMACR_RDWR_Msk);
 463:../Libraries/XMCLib/src/xmc4_scu.c ****   
 464:../Libraries/XMCLib/src/xmc4_scu.c ****   /* Write desired data into RMDATA register */  
 465:../Libraries/XMCLib/src/xmc4_scu.c ****   SCU_GENERAL->RMDATA = data;
 596              	 .loc 1 465 0
 597 0002 074B     	 ldr r3,.L62
 459:../Libraries/XMCLib/src/xmc4_scu.c ****   
 598              	 .loc 1 459 0
 599 0004 00F47020 	 and r0,r0,#983040
 600              	.LVL27:
 462:../Libraries/XMCLib/src/xmc4_scu.c ****   
 601              	 .loc 1 462 0
 602 0008 40F00100 	 orr r0,r0,#1
 603              	.LVL28:
 604              	 .loc 1 465 0
 605 000c C3F8CC10 	 str r1,[r3,#204]
 466:../Libraries/XMCLib/src/xmc4_scu.c ****   
 467:../Libraries/XMCLib/src/xmc4_scu.c ****   /* Write address & direction of transfer into RMACR register */  
 468:../Libraries/XMCLib/src/xmc4_scu.c ****   SCU_GENERAL->RMACR = rmacr;
 469:../Libraries/XMCLib/src/xmc4_scu.c ****   
 470:../Libraries/XMCLib/src/xmc4_scu.c ****   /* Wait until the update of RMX register in hibernate domain is completed */
 471:../Libraries/XMCLib/src/xmc4_scu.c ****   while((SCU_GENERAL->MIRRSTS) & SCU_GENERAL_MIRRSTS_RMX_Msk)
 606              	 .loc 1 471 0
 607 0010 1A46     	 mov r2,r3
 468:../Libraries/XMCLib/src/xmc4_scu.c ****   
 608              	 .loc 1 468 0
 609 0012 C3F8C800 	 str r0,[r3,#200]
 610              	.L59:
 611              	 .loc 1 471 0 discriminator 1
 612 0016 D2F8C430 	 ldr r3,[r2,#196]
 613 001a 9B04     	 lsls r3,r3,#18
 614 001c FBD4     	 bmi .L59
 472:../Libraries/XMCLib/src/xmc4_scu.c ****   {
 473:../Libraries/XMCLib/src/xmc4_scu.c ****   }
 474:../Libraries/XMCLib/src/xmc4_scu.c **** }
 615              	 .loc 1 474 0
 616 001e 7047     	 bx lr
 617              	.L63:
 618              	 .align 2
 619              	.L62:
 620 0020 00400050 	 .word 1342193664
 621              	 .cfi_endproc
 622              	.LFE182:
 624              	 .section .text.XMC_SCU_ReadFromRetentionMemory,"ax",%progbits
 625              	 .align 2
 626              	 .global XMC_SCU_ReadFromRetentionMemory
 627              	 .thumb
 628              	 .thumb_func
 630              	XMC_SCU_ReadFromRetentionMemory:
 631              	.LFB183:
 475:../Libraries/XMCLib/src/xmc4_scu.c **** 
 476:../Libraries/XMCLib/src/xmc4_scu.c **** /* API to read from Retention memory in hibernate domain */
 477:../Libraries/XMCLib/src/xmc4_scu.c **** uint32_t XMC_SCU_ReadFromRetentionMemory(uint32_t address)
 478:../Libraries/XMCLib/src/xmc4_scu.c **** {
 632              	 .loc 1 478 0
 633              	 .cfi_startproc
 634              	 
 635              	 
 636              	 
 637              	.LVL29:
 479:../Libraries/XMCLib/src/xmc4_scu.c ****   uint32_t rmacr;
 480:../Libraries/XMCLib/src/xmc4_scu.c **** 
 481:../Libraries/XMCLib/src/xmc4_scu.c ****   /* Get the address right */  
 482:../Libraries/XMCLib/src/xmc4_scu.c ****   rmacr = ((uint32_t)(address << SCU_GENERAL_RMACR_ADDR_Pos) & (uint32_t)SCU_GENERAL_RMACR_ADDR_Msk
 638              	 .loc 1 482 0
 639 0000 0004     	 lsls r0,r0,#16
 640              	.LVL30:
 483:../Libraries/XMCLib/src/xmc4_scu.c ****   
 484:../Libraries/XMCLib/src/xmc4_scu.c ****   /* Transfer from RMDATA to Retention memory */
 485:../Libraries/XMCLib/src/xmc4_scu.c ****   rmacr &= ~((uint32_t)(SCU_GENERAL_RMACR_RDWR_Msk));
 486:../Libraries/XMCLib/src/xmc4_scu.c ****   
 487:../Libraries/XMCLib/src/xmc4_scu.c ****   /* Writing an adress & direction of transfer into RMACR register */  
 488:../Libraries/XMCLib/src/xmc4_scu.c ****   SCU_GENERAL->RMACR = rmacr;
 641              	 .loc 1 488 0
 642 0002 064A     	 ldr r2,.L67
 485:../Libraries/XMCLib/src/xmc4_scu.c ****   
 643              	 .loc 1 485 0
 644 0004 00F47020 	 and r0,r0,#983040
 645              	.LVL31:
 646              	 .loc 1 488 0
 647 0008 C2F8C800 	 str r0,[r2,#200]
 648              	.L65:
 489:../Libraries/XMCLib/src/xmc4_scu.c ****   
 490:../Libraries/XMCLib/src/xmc4_scu.c ****   /* Wait until the update of RMX register in hibernate domain is completed */
 491:../Libraries/XMCLib/src/xmc4_scu.c ****   while((SCU_GENERAL->MIRRSTS) & SCU_GENERAL_MIRRSTS_RMX_Msk)
 649              	 .loc 1 491 0 discriminator 1
 650 000c D2F8C430 	 ldr r3,[r2,#196]
 651 0010 0249     	 ldr r1,.L67
 652 0012 9B04     	 lsls r3,r3,#18
 653 0014 FAD4     	 bmi .L65
 492:../Libraries/XMCLib/src/xmc4_scu.c ****   {
 493:../Libraries/XMCLib/src/xmc4_scu.c ****   }
 494:../Libraries/XMCLib/src/xmc4_scu.c **** 
 495:../Libraries/XMCLib/src/xmc4_scu.c ****   return (SCU_GENERAL->RMDATA);
 654              	 .loc 1 495 0
 655 0016 D1F8CC00 	 ldr r0,[r1,#204]
 656              	.LVL32:
 496:../Libraries/XMCLib/src/xmc4_scu.c **** }
 657              	 .loc 1 496 0
 658 001a 7047     	 bx lr
 659              	.L68:
 660              	 .align 2
 661              	.L67:
 662 001c 00400050 	 .word 1342193664
 663              	 .cfi_endproc
 664              	.LFE183:
 666              	 .section .text.XMC_SCU_TRAP_Enable,"ax",%progbits
 667              	 .align 2
 668              	 .global XMC_SCU_TRAP_Enable
 669              	 .thumb
 670              	 .thumb_func
 672              	XMC_SCU_TRAP_Enable:
 673              	.LFB185:
 497:../Libraries/XMCLib/src/xmc4_scu.c **** 
 498:../Libraries/XMCLib/src/xmc4_scu.c **** /* API to initialize the clock tree */
 499:../Libraries/XMCLib/src/xmc4_scu.c **** void XMC_SCU_CLOCK_Init(const XMC_SCU_CLOCK_CONFIG_t *const config)
 500:../Libraries/XMCLib/src/xmc4_scu.c **** {
 501:../Libraries/XMCLib/src/xmc4_scu.c ****   XMC_ASSERT("", config->fsys_clkdiv != 0);
 502:../Libraries/XMCLib/src/xmc4_scu.c ****   XMC_ASSERT("", config->fcpu_clkdiv != 0);
 503:../Libraries/XMCLib/src/xmc4_scu.c ****   XMC_ASSERT("", config->fccu_clkdiv != 0);
 504:../Libraries/XMCLib/src/xmc4_scu.c ****   XMC_ASSERT("", config->fperipheral_clkdiv != 0);
 505:../Libraries/XMCLib/src/xmc4_scu.c ****   XMC_ASSERT("", ((config->syspll_config.p_div != 0) &&
 506:../Libraries/XMCLib/src/xmc4_scu.c ****                   (config->syspll_config.mode == XMC_SCU_CLOCK_SYSPLL_MODE_NORMAL)) ||
 507:../Libraries/XMCLib/src/xmc4_scu.c ****                   (config->syspll_config.mode == XMC_SCU_CLOCK_SYSPLL_MODE_PRESCALAR));
 508:../Libraries/XMCLib/src/xmc4_scu.c ****   XMC_ASSERT("", ((config->syspll_config.n_div != 0) &&
 509:../Libraries/XMCLib/src/xmc4_scu.c ****                   (config->syspll_config.mode == XMC_SCU_CLOCK_SYSPLL_MODE_NORMAL)) ||
 510:../Libraries/XMCLib/src/xmc4_scu.c ****                   (config->syspll_config.mode == XMC_SCU_CLOCK_SYSPLL_MODE_PRESCALAR));
 511:../Libraries/XMCLib/src/xmc4_scu.c ****   XMC_ASSERT("", (config->syspll_config.k_div != 0) &&
 512:../Libraries/XMCLib/src/xmc4_scu.c ****                  ((config->syspll_config.mode == XMC_SCU_CLOCK_SYSPLL_MODE_NORMAL) ||
 513:../Libraries/XMCLib/src/xmc4_scu.c ****                   (config->syspll_config.mode == XMC_SCU_CLOCK_SYSPLL_MODE_PRESCALAR)));
 514:../Libraries/XMCLib/src/xmc4_scu.c ****   XMC_ASSERT("", ((config->fsys_clksrc == XMC_SCU_CLOCK_SYSCLKSRC_PLL) ||
 515:../Libraries/XMCLib/src/xmc4_scu.c ****                  (config->fsys_clksrc == XMC_SCU_CLOCK_SYSCLKSRC_OFI)) &&
 516:../Libraries/XMCLib/src/xmc4_scu.c ****                  ((config->syspll_config.mode == XMC_SCU_CLOCK_SYSPLL_MODE_NORMAL) ||
 517:../Libraries/XMCLib/src/xmc4_scu.c ****                   (config->syspll_config.mode == XMC_SCU_CLOCK_SYSPLL_MODE_PRESCALAR)));
 518:../Libraries/XMCLib/src/xmc4_scu.c ****   XMC_ASSERT("", ((config->fstdby_clksrc == XMC_SCU_HIB_STDBYCLKSRC_OSCULP) && (config->enable_oscu
 519:../Libraries/XMCLib/src/xmc4_scu.c ****                  (config->fstdby_clksrc != XMC_SCU_HIB_STDBYCLKSRC_OSCULP));
 520:../Libraries/XMCLib/src/xmc4_scu.c ****   XMC_ASSERT("", ((config->syspll_config.clksrc == XMC_SCU_CLOCK_SYSPLLCLKSRC_OSCHP) &&
 521:../Libraries/XMCLib/src/xmc4_scu.c ****                  (config->enable_oschp == true)) || (config->syspll_config.clksrc != XMC_SCU_CLOCK_
 522:../Libraries/XMCLib/src/xmc4_scu.c **** 
 523:../Libraries/XMCLib/src/xmc4_scu.c ****   XMC_SCU_CLOCK_SetSystemClockSource(XMC_SCU_CLOCK_SYSCLKSRC_OFI);
 524:../Libraries/XMCLib/src/xmc4_scu.c **** 
 525:../Libraries/XMCLib/src/xmc4_scu.c ****   XMC_SCU_HIB_EnableHibernateDomain();
 526:../Libraries/XMCLib/src/xmc4_scu.c **** 
 527:../Libraries/XMCLib/src/xmc4_scu.c ****   if (config->enable_osculp == true)
 528:../Libraries/XMCLib/src/xmc4_scu.c ****   {
 529:../Libraries/XMCLib/src/xmc4_scu.c ****     XMC_SCU_CLOCK_EnableLowPowerOscillator();
 530:../Libraries/XMCLib/src/xmc4_scu.c ****     while (XMC_SCU_CLOCK_IsLowPowerOscillatorStable() == false);
 531:../Libraries/XMCLib/src/xmc4_scu.c ****   }
 532:../Libraries/XMCLib/src/xmc4_scu.c ****   
 533:../Libraries/XMCLib/src/xmc4_scu.c ****   XMC_SCU_HIB_SetStandbyClockSource(config->fstdby_clksrc);  
 534:../Libraries/XMCLib/src/xmc4_scu.c ****   while (XMC_SCU_GetMirrorStatus() != 0)
 535:../Libraries/XMCLib/src/xmc4_scu.c ****   {
 536:../Libraries/XMCLib/src/xmc4_scu.c ****     /* Wait until update of the stanby clock source is done in the HIB domain */    
 537:../Libraries/XMCLib/src/xmc4_scu.c ****   }
 538:../Libraries/XMCLib/src/xmc4_scu.c **** 
 539:../Libraries/XMCLib/src/xmc4_scu.c ****   XMC_SCU_CLOCK_SetBackupClockCalibrationMode(config->calibration_mode);
 540:../Libraries/XMCLib/src/xmc4_scu.c **** 
 541:../Libraries/XMCLib/src/xmc4_scu.c ****   XMC_SCU_CLOCK_SetSystemClockDivider((uint32_t)config->fsys_clkdiv);
 542:../Libraries/XMCLib/src/xmc4_scu.c ****   XMC_SCU_CLOCK_SetCpuClockDivider((uint32_t)config->fcpu_clkdiv);
 543:../Libraries/XMCLib/src/xmc4_scu.c ****   XMC_SCU_CLOCK_SetCcuClockDivider((uint32_t)config->fccu_clkdiv);
 544:../Libraries/XMCLib/src/xmc4_scu.c ****   XMC_SCU_CLOCK_SetPeripheralClockDivider((uint32_t)config->fperipheral_clkdiv);
 545:../Libraries/XMCLib/src/xmc4_scu.c **** 
 546:../Libraries/XMCLib/src/xmc4_scu.c ****   if (config->enable_oschp == true)
 547:../Libraries/XMCLib/src/xmc4_scu.c ****   {
 548:../Libraries/XMCLib/src/xmc4_scu.c ****     XMC_SCU_CLOCK_EnableHighPerformanceOscillator();
 549:../Libraries/XMCLib/src/xmc4_scu.c ****     while(XMC_SCU_CLOCK_IsHighPerformanceOscillatorStable() == false);
 550:../Libraries/XMCLib/src/xmc4_scu.c ****   }
 551:../Libraries/XMCLib/src/xmc4_scu.c **** 
 552:../Libraries/XMCLib/src/xmc4_scu.c ****   if (config->syspll_config.mode == XMC_SCU_CLOCK_SYSPLL_MODE_DISABLED)
 553:../Libraries/XMCLib/src/xmc4_scu.c ****   {
 554:../Libraries/XMCLib/src/xmc4_scu.c ****     XMC_SCU_CLOCK_DisableSystemPll();
 555:../Libraries/XMCLib/src/xmc4_scu.c ****   }
 556:../Libraries/XMCLib/src/xmc4_scu.c ****   else
 557:../Libraries/XMCLib/src/xmc4_scu.c ****   {
 558:../Libraries/XMCLib/src/xmc4_scu.c **** 
 559:../Libraries/XMCLib/src/xmc4_scu.c ****     XMC_SCU_CLOCK_EnableSystemPll();
 560:../Libraries/XMCLib/src/xmc4_scu.c ****     XMC_SCU_CLOCK_StartSystemPll(config->syspll_config.clksrc,
 561:../Libraries/XMCLib/src/xmc4_scu.c ****                                  config->syspll_config.mode,
 562:../Libraries/XMCLib/src/xmc4_scu.c ****                                  (uint32_t)config->syspll_config.p_div,
 563:../Libraries/XMCLib/src/xmc4_scu.c ****                                  (uint32_t)config->syspll_config.n_div,
 564:../Libraries/XMCLib/src/xmc4_scu.c ****                                  (uint32_t)config->syspll_config.k_div);
 565:../Libraries/XMCLib/src/xmc4_scu.c ****   }
 566:../Libraries/XMCLib/src/xmc4_scu.c **** 
 567:../Libraries/XMCLib/src/xmc4_scu.c ****   /* use SYSPLL? */
 568:../Libraries/XMCLib/src/xmc4_scu.c ****   if (config->fsys_clksrc == XMC_SCU_CLOCK_SYSCLKSRC_PLL)
 569:../Libraries/XMCLib/src/xmc4_scu.c ****   {
 570:../Libraries/XMCLib/src/xmc4_scu.c ****     XMC_SCU_CLOCK_SetSystemClockSource(XMC_SCU_CLOCK_SYSCLKSRC_PLL);    
 571:../Libraries/XMCLib/src/xmc4_scu.c ****   }
 572:../Libraries/XMCLib/src/xmc4_scu.c ****   SystemCoreClockUpdate();
 573:../Libraries/XMCLib/src/xmc4_scu.c **** }
 574:../Libraries/XMCLib/src/xmc4_scu.c **** 
 575:../Libraries/XMCLib/src/xmc4_scu.c **** /* API to enable a trap source */
 576:../Libraries/XMCLib/src/xmc4_scu.c **** void XMC_SCU_TRAP_Enable(const uint32_t trap)
 577:../Libraries/XMCLib/src/xmc4_scu.c **** {
 674              	 .loc 1 577 0
 675              	 .cfi_startproc
 676              	 
 677              	 
 678              	 
 679              	.LVL33:
 578:../Libraries/XMCLib/src/xmc4_scu.c ****   SCU_TRAP->TRAPDIS &= (uint32_t)~trap;
 680              	 .loc 1 578 0
 681 0000 024A     	 ldr r2,.L70
 682 0002 9368     	 ldr r3,[r2,#8]
 683 0004 23EA0000 	 bic r0,r3,r0
 684              	.LVL34:
 685 0008 9060     	 str r0,[r2,#8]
 686 000a 7047     	 bx lr
 687              	.L71:
 688              	 .align 2
 689              	.L70:
 690 000c 60410050 	 .word 1342194016
 691              	 .cfi_endproc
 692              	.LFE185:
 694              	 .section .text.XMC_SCU_TRAP_Disable,"ax",%progbits
 695              	 .align 2
 696              	 .global XMC_SCU_TRAP_Disable
 697              	 .thumb
 698              	 .thumb_func
 700              	XMC_SCU_TRAP_Disable:
 701              	.LFB186:
 579:../Libraries/XMCLib/src/xmc4_scu.c **** }
 580:../Libraries/XMCLib/src/xmc4_scu.c **** 
 581:../Libraries/XMCLib/src/xmc4_scu.c **** /* API to disable a trap source */
 582:../Libraries/XMCLib/src/xmc4_scu.c **** void XMC_SCU_TRAP_Disable(const uint32_t trap)
 583:../Libraries/XMCLib/src/xmc4_scu.c **** {
 702              	 .loc 1 583 0
 703              	 .cfi_startproc
 704              	 
 705              	 
 706              	 
 707              	.LVL35:
 584:../Libraries/XMCLib/src/xmc4_scu.c ****   SCU_TRAP->TRAPDIS |= (uint32_t)trap;
 708              	 .loc 1 584 0
 709 0000 024A     	 ldr r2,.L73
 710 0002 9368     	 ldr r3,[r2,#8]
 711 0004 1843     	 orrs r0,r0,r3
 712              	.LVL36:
 713 0006 9060     	 str r0,[r2,#8]
 714 0008 7047     	 bx lr
 715              	.L74:
 716 000a 00BF     	 .align 2
 717              	.L73:
 718 000c 60410050 	 .word 1342194016
 719              	 .cfi_endproc
 720              	.LFE186:
 722              	 .section .text.XMC_SCU_TRAP_GetStatus,"ax",%progbits
 723              	 .align 2
 724              	 .global XMC_SCU_TRAP_GetStatus
 725              	 .thumb
 726              	 .thumb_func
 728              	XMC_SCU_TRAP_GetStatus:
 729              	.LFB187:
 585:../Libraries/XMCLib/src/xmc4_scu.c **** }
 586:../Libraries/XMCLib/src/xmc4_scu.c **** 
 587:../Libraries/XMCLib/src/xmc4_scu.c **** /* API to determine if a trap source has generated event */
 588:../Libraries/XMCLib/src/xmc4_scu.c **** uint32_t XMC_SCU_TRAP_GetStatus(void)
 589:../Libraries/XMCLib/src/xmc4_scu.c **** {
 730              	 .loc 1 589 0
 731              	 .cfi_startproc
 732              	 
 733              	 
 734              	 
 590:../Libraries/XMCLib/src/xmc4_scu.c ****   return (SCU_TRAP->TRAPRAW);
 735              	 .loc 1 590 0
 736 0000 014B     	 ldr r3,.L76
 737 0002 5868     	 ldr r0,[r3,#4]
 591:../Libraries/XMCLib/src/xmc4_scu.c **** }
 738              	 .loc 1 591 0
 739 0004 7047     	 bx lr
 740              	.L77:
 741 0006 00BF     	 .align 2
 742              	.L76:
 743 0008 60410050 	 .word 1342194016
 744              	 .cfi_endproc
 745              	.LFE187:
 747              	 .section .text.XMC_SCU_TRAP_Trigger,"ax",%progbits
 748              	 .align 2
 749              	 .global XMC_SCU_TRAP_Trigger
 750              	 .thumb
 751              	 .thumb_func
 753              	XMC_SCU_TRAP_Trigger:
 754              	.LFB188:
 592:../Libraries/XMCLib/src/xmc4_scu.c **** 
 593:../Libraries/XMCLib/src/xmc4_scu.c **** /* API to manually trigger a trap event */
 594:../Libraries/XMCLib/src/xmc4_scu.c **** void XMC_SCU_TRAP_Trigger(const uint32_t trap)
 595:../Libraries/XMCLib/src/xmc4_scu.c **** {
 755              	 .loc 1 595 0
 756              	 .cfi_startproc
 757              	 
 758              	 
 759              	 
 760              	.LVL37:
 596:../Libraries/XMCLib/src/xmc4_scu.c ****   SCU_TRAP->TRAPSET = (uint32_t)trap;
 761              	 .loc 1 596 0
 762 0000 014B     	 ldr r3,.L79
 763 0002 1861     	 str r0,[r3,#16]
 764 0004 7047     	 bx lr
 765              	.L80:
 766 0006 00BF     	 .align 2
 767              	.L79:
 768 0008 60410050 	 .word 1342194016
 769              	 .cfi_endproc
 770              	.LFE188:
 772              	 .section .text.XMC_SCU_TRAP_ClearStatus,"ax",%progbits
 773              	 .align 2
 774              	 .global XMC_SCU_TRAP_ClearStatus
 775              	 .thumb
 776              	 .thumb_func
 778              	XMC_SCU_TRAP_ClearStatus:
 779              	.LFB189:
 597:../Libraries/XMCLib/src/xmc4_scu.c **** }
 598:../Libraries/XMCLib/src/xmc4_scu.c **** 
 599:../Libraries/XMCLib/src/xmc4_scu.c **** /* API to clear a trap event */
 600:../Libraries/XMCLib/src/xmc4_scu.c **** void XMC_SCU_TRAP_ClearStatus(const uint32_t trap)
 601:../Libraries/XMCLib/src/xmc4_scu.c **** {
 780              	 .loc 1 601 0
 781              	 .cfi_startproc
 782              	 
 783              	 
 784              	 
 785              	.LVL38:
 602:../Libraries/XMCLib/src/xmc4_scu.c ****   SCU_TRAP->TRAPCLR = (uint32_t)trap;
 786              	 .loc 1 602 0
 787 0000 014B     	 ldr r3,.L82
 788 0002 D860     	 str r0,[r3,#12]
 789 0004 7047     	 bx lr
 790              	.L83:
 791 0006 00BF     	 .align 2
 792              	.L82:
 793 0008 60410050 	 .word 1342194016
 794              	 .cfi_endproc
 795              	.LFE189:
 797              	 .section .text.XMC_SCU_PARITY_ClearStatus,"ax",%progbits
 798              	 .align 2
 799              	 .global XMC_SCU_PARITY_ClearStatus
 800              	 .thumb
 801              	 .thumb_func
 803              	XMC_SCU_PARITY_ClearStatus:
 804              	.LFB190:
 603:../Libraries/XMCLib/src/xmc4_scu.c **** }
 604:../Libraries/XMCLib/src/xmc4_scu.c **** 
 605:../Libraries/XMCLib/src/xmc4_scu.c **** /* API to clear parity error event */
 606:../Libraries/XMCLib/src/xmc4_scu.c **** void XMC_SCU_PARITY_ClearStatus(const uint32_t memory)
 607:../Libraries/XMCLib/src/xmc4_scu.c **** {
 805              	 .loc 1 607 0
 806              	 .cfi_startproc
 807              	 
 808              	 
 809              	 
 810              	.LVL39:
 608:../Libraries/XMCLib/src/xmc4_scu.c ****   SCU_PARITY->PEFLAG |= (uint32_t)memory; 
 811              	 .loc 1 608 0
 812 0000 024A     	 ldr r2,.L85
 813 0002 5369     	 ldr r3,[r2,#20]
 814 0004 1843     	 orrs r0,r0,r3
 815              	.LVL40:
 816 0006 5061     	 str r0,[r2,#20]
 817 0008 7047     	 bx lr
 818              	.L86:
 819 000a 00BF     	 .align 2
 820              	.L85:
 821 000c 3C410050 	 .word 1342193980
 822              	 .cfi_endproc
 823              	.LFE190:
 825              	 .section .text.XMC_SCU_PARITY_GetStatus,"ax",%progbits
 826              	 .align 2
 827              	 .global XMC_SCU_PARITY_GetStatus
 828              	 .thumb
 829              	 .thumb_func
 831              	XMC_SCU_PARITY_GetStatus:
 832              	.LFB191:
 609:../Libraries/XMCLib/src/xmc4_scu.c **** }
 610:../Libraries/XMCLib/src/xmc4_scu.c **** 
 611:../Libraries/XMCLib/src/xmc4_scu.c **** /* API to determine if the specified parity error has occured or not */
 612:../Libraries/XMCLib/src/xmc4_scu.c **** uint32_t XMC_SCU_PARITY_GetStatus(void)
 613:../Libraries/XMCLib/src/xmc4_scu.c **** {
 833              	 .loc 1 613 0
 834              	 .cfi_startproc
 835              	 
 836              	 
 837              	 
 614:../Libraries/XMCLib/src/xmc4_scu.c ****   return (SCU_PARITY->PEFLAG);
 838              	 .loc 1 614 0
 839 0000 014B     	 ldr r3,.L88
 840 0002 5869     	 ldr r0,[r3,#20]
 615:../Libraries/XMCLib/src/xmc4_scu.c **** } 
 841              	 .loc 1 615 0
 842 0004 7047     	 bx lr
 843              	.L89:
 844 0006 00BF     	 .align 2
 845              	.L88:
 846 0008 3C410050 	 .word 1342193980
 847              	 .cfi_endproc
 848              	.LFE191:
 850              	 .section .text.XMC_SCU_PARITY_Enable,"ax",%progbits
 851              	 .align 2
 852              	 .global XMC_SCU_PARITY_Enable
 853              	 .thumb
 854              	 .thumb_func
 856              	XMC_SCU_PARITY_Enable:
 857              	.LFB192:
 616:../Libraries/XMCLib/src/xmc4_scu.c **** 
 617:../Libraries/XMCLib/src/xmc4_scu.c **** /* API to enable parity error checking for the selected on-chip RAM type */
 618:../Libraries/XMCLib/src/xmc4_scu.c **** void XMC_SCU_PARITY_Enable(const uint32_t memory)
 619:../Libraries/XMCLib/src/xmc4_scu.c **** {
 858              	 .loc 1 619 0
 859              	 .cfi_startproc
 860              	 
 861              	 
 862              	 
 863              	.LVL41:
 620:../Libraries/XMCLib/src/xmc4_scu.c ****   SCU_PARITY->PEEN |= (uint32_t)memory; 
 864              	 .loc 1 620 0
 865 0000 024A     	 ldr r2,.L91
 866 0002 1368     	 ldr r3,[r2]
 867 0004 1843     	 orrs r0,r0,r3
 868              	.LVL42:
 869 0006 1060     	 str r0,[r2]
 870 0008 7047     	 bx lr
 871              	.L92:
 872 000a 00BF     	 .align 2
 873              	.L91:
 874 000c 3C410050 	 .word 1342193980
 875              	 .cfi_endproc
 876              	.LFE192:
 878              	 .section .text.XMC_SCU_PARITY_Disable,"ax",%progbits
 879              	 .align 2
 880              	 .global XMC_SCU_PARITY_Disable
 881              	 .thumb
 882              	 .thumb_func
 884              	XMC_SCU_PARITY_Disable:
 885              	.LFB193:
 621:../Libraries/XMCLib/src/xmc4_scu.c **** }
 622:../Libraries/XMCLib/src/xmc4_scu.c **** 
 623:../Libraries/XMCLib/src/xmc4_scu.c **** /* API to disable parity error checking for the selected on-chip RAM type */
 624:../Libraries/XMCLib/src/xmc4_scu.c **** void XMC_SCU_PARITY_Disable(const uint32_t memory)
 625:../Libraries/XMCLib/src/xmc4_scu.c **** {
 886              	 .loc 1 625 0
 887              	 .cfi_startproc
 888              	 
 889              	 
 890              	 
 891              	.LVL43:
 626:../Libraries/XMCLib/src/xmc4_scu.c ****   SCU_PARITY->PEEN &= (uint32_t)~memory; 
 892              	 .loc 1 626 0
 893 0000 024A     	 ldr r2,.L94
 894 0002 1368     	 ldr r3,[r2]
 895 0004 23EA0000 	 bic r0,r3,r0
 896              	.LVL44:
 897 0008 1060     	 str r0,[r2]
 898 000a 7047     	 bx lr
 899              	.L95:
 900              	 .align 2
 901              	.L94:
 902 000c 3C410050 	 .word 1342193980
 903              	 .cfi_endproc
 904              	.LFE193:
 906              	 .section .text.XMC_SCU_PARITY_EnableTrapGeneration,"ax",%progbits
 907              	 .align 2
 908              	 .global XMC_SCU_PARITY_EnableTrapGeneration
 909              	 .thumb
 910              	 .thumb_func
 912              	XMC_SCU_PARITY_EnableTrapGeneration:
 913              	.LFB194:
 627:../Libraries/XMCLib/src/xmc4_scu.c **** }
 628:../Libraries/XMCLib/src/xmc4_scu.c **** 
 629:../Libraries/XMCLib/src/xmc4_scu.c **** /* API to enable trap assertion for the parity error source */
 630:../Libraries/XMCLib/src/xmc4_scu.c **** void XMC_SCU_PARITY_EnableTrapGeneration(const uint32_t memory)
 631:../Libraries/XMCLib/src/xmc4_scu.c **** {
 914              	 .loc 1 631 0
 915              	 .cfi_startproc
 916              	 
 917              	 
 918              	 
 919              	.LVL45:
 632:../Libraries/XMCLib/src/xmc4_scu.c ****   SCU_PARITY->PETE |= (uint32_t)memory; 
 920              	 .loc 1 632 0
 921 0000 024A     	 ldr r2,.L97
 922 0002 9368     	 ldr r3,[r2,#8]
 923 0004 1843     	 orrs r0,r0,r3
 924              	.LVL46:
 925 0006 9060     	 str r0,[r2,#8]
 926 0008 7047     	 bx lr
 927              	.L98:
 928 000a 00BF     	 .align 2
 929              	.L97:
 930 000c 3C410050 	 .word 1342193980
 931              	 .cfi_endproc
 932              	.LFE194:
 934              	 .section .text.XMC_SCU_PARITY_DisableTrapGeneration,"ax",%progbits
 935              	 .align 2
 936              	 .global XMC_SCU_PARITY_DisableTrapGeneration
 937              	 .thumb
 938              	 .thumb_func
 940              	XMC_SCU_PARITY_DisableTrapGeneration:
 941              	.LFB195:
 633:../Libraries/XMCLib/src/xmc4_scu.c **** }
 634:../Libraries/XMCLib/src/xmc4_scu.c **** 
 635:../Libraries/XMCLib/src/xmc4_scu.c **** /* API to disable the assertion of trap for the parity error source */
 636:../Libraries/XMCLib/src/xmc4_scu.c **** void XMC_SCU_PARITY_DisableTrapGeneration(const uint32_t memory)
 637:../Libraries/XMCLib/src/xmc4_scu.c **** {
 942              	 .loc 1 637 0
 943              	 .cfi_startproc
 944              	 
 945              	 
 946              	 
 947              	.LVL47:
 638:../Libraries/XMCLib/src/xmc4_scu.c ****   SCU_PARITY->PETE &= (uint32_t)~memory; 
 948              	 .loc 1 638 0
 949 0000 024A     	 ldr r2,.L100
 950 0002 9368     	 ldr r3,[r2,#8]
 951 0004 23EA0000 	 bic r0,r3,r0
 952              	.LVL48:
 953 0008 9060     	 str r0,[r2,#8]
 954 000a 7047     	 bx lr
 955              	.L101:
 956              	 .align 2
 957              	.L100:
 958 000c 3C410050 	 .word 1342193980
 959              	 .cfi_endproc
 960              	.LFE195:
 962              	 .section .text.XMC_SCU_INTERRUPT_EnableNmiRequest,"ax",%progbits
 963              	 .align 2
 964              	 .global XMC_SCU_INTERRUPT_EnableNmiRequest
 965              	 .thumb
 966              	 .thumb_func
 968              	XMC_SCU_INTERRUPT_EnableNmiRequest:
 969              	.LFB196:
 639:../Libraries/XMCLib/src/xmc4_scu.c **** }
 640:../Libraries/XMCLib/src/xmc4_scu.c **** 
 641:../Libraries/XMCLib/src/xmc4_scu.c **** /* Enables a NMI source */
 642:../Libraries/XMCLib/src/xmc4_scu.c **** void XMC_SCU_INTERRUPT_EnableNmiRequest(const uint32_t request)
 643:../Libraries/XMCLib/src/xmc4_scu.c **** {
 970              	 .loc 1 643 0
 971              	 .cfi_startproc
 972              	 
 973              	 
 974              	 
 975              	.LVL49:
 644:../Libraries/XMCLib/src/xmc4_scu.c ****   SCU_INTERRUPT->NMIREQEN |= (uint32_t)request;
 976              	 .loc 1 644 0
 977 0000 024A     	 ldr r2,.L103
 978 0002 5369     	 ldr r3,[r2,#20]
 979 0004 1843     	 orrs r0,r0,r3
 980              	.LVL50:
 981 0006 5061     	 str r0,[r2,#20]
 982 0008 7047     	 bx lr
 983              	.L104:
 984 000a 00BF     	 .align 2
 985              	.L103:
 986 000c 74400050 	 .word 1342193780
 987              	 .cfi_endproc
 988              	.LFE196:
 990              	 .section .text.XMC_SCU_INTERRUPT_DisableNmiRequest,"ax",%progbits
 991              	 .align 2
 992              	 .global XMC_SCU_INTERRUPT_DisableNmiRequest
 993              	 .thumb
 994              	 .thumb_func
 996              	XMC_SCU_INTERRUPT_DisableNmiRequest:
 997              	.LFB197:
 645:../Libraries/XMCLib/src/xmc4_scu.c **** }
 646:../Libraries/XMCLib/src/xmc4_scu.c **** 
 647:../Libraries/XMCLib/src/xmc4_scu.c **** /* Disables a NMI source */
 648:../Libraries/XMCLib/src/xmc4_scu.c **** void XMC_SCU_INTERRUPT_DisableNmiRequest(const uint32_t request)
 649:../Libraries/XMCLib/src/xmc4_scu.c **** {
 998              	 .loc 1 649 0
 999              	 .cfi_startproc
 1000              	 
 1001              	 
 1002              	 
 1003              	.LVL51:
 650:../Libraries/XMCLib/src/xmc4_scu.c ****   SCU_INTERRUPT->NMIREQEN &= (uint32_t)~request;
 1004              	 .loc 1 650 0
 1005 0000 024A     	 ldr r2,.L106
 1006 0002 5369     	 ldr r3,[r2,#20]
 1007 0004 23EA0000 	 bic r0,r3,r0
 1008              	.LVL52:
 1009 0008 5061     	 str r0,[r2,#20]
 1010 000a 7047     	 bx lr
 1011              	.L107:
 1012              	 .align 2
 1013              	.L106:
 1014 000c 74400050 	 .word 1342193780
 1015              	 .cfi_endproc
 1016              	.LFE197:
 1018              	 .section .text.XMC_SCU_RESET_AssertPeripheralReset,"ax",%progbits
 1019              	 .align 2
 1020              	 .global XMC_SCU_RESET_AssertPeripheralReset
 1021              	 .thumb
 1022              	 .thumb_func
 1024              	XMC_SCU_RESET_AssertPeripheralReset:
 1025              	.LFB198:
 651:../Libraries/XMCLib/src/xmc4_scu.c **** }
 652:../Libraries/XMCLib/src/xmc4_scu.c **** 
 653:../Libraries/XMCLib/src/xmc4_scu.c **** /* API to manually assert a reset request */
 654:../Libraries/XMCLib/src/xmc4_scu.c **** void XMC_SCU_RESET_AssertPeripheralReset(const XMC_SCU_PERIPHERAL_RESET_t peripheral)
 655:../Libraries/XMCLib/src/xmc4_scu.c **** {
 1026              	 .loc 1 655 0
 1027              	 .cfi_startproc
 1028              	 
 1029              	 
 1030              	 
 1031              	.LVL53:
 656:../Libraries/XMCLib/src/xmc4_scu.c ****   uint32_t index = (uint32_t)((((uint32_t)peripheral) & 0xf0000000UL) >> 28UL);
 1032              	 .loc 1 656 0
 1033 0000 030F     	 lsrs r3,r0,#28
 1034              	.LVL54:
 657:../Libraries/XMCLib/src/xmc4_scu.c ****   uint32_t mask = (((uint32_t)peripheral) & ((uint32_t)~0xf0000000UL));
 658:../Libraries/XMCLib/src/xmc4_scu.c **** 
 659:../Libraries/XMCLib/src/xmc4_scu.c ****   *(uint32_t *)(&(SCU_RESET->PRSET0) + (index * 3U)) = (uint32_t)mask;
 1035              	 .loc 1 659 0
 1036 0002 03EB4303 	 add r3,r3,r3,lsl#1
 1037              	.LVL55:
 1038 0006 034A     	 ldr r2,.L109
 657:../Libraries/XMCLib/src/xmc4_scu.c ****   uint32_t mask = (((uint32_t)peripheral) & ((uint32_t)~0xf0000000UL));
 1039              	 .loc 1 657 0
 1040 0008 20F07040 	 bic r0,r0,#-268435456
 1041              	.LVL56:
 1042              	 .loc 1 659 0
 1043 000c 42F82300 	 str r0,[r2,r3,lsl#2]
 1044 0010 7047     	 bx lr
 1045              	.L110:
 1046 0012 00BF     	 .align 2
 1047              	.L109:
 1048 0014 10440050 	 .word 1342194704
 1049              	 .cfi_endproc
 1050              	.LFE198:
 1052              	 .section .text.XMC_SCU_RESET_DeassertPeripheralReset,"ax",%progbits
 1053              	 .align 2
 1054              	 .global XMC_SCU_RESET_DeassertPeripheralReset
 1055              	 .thumb
 1056              	 .thumb_func
 1058              	XMC_SCU_RESET_DeassertPeripheralReset:
 1059              	.LFB199:
 660:../Libraries/XMCLib/src/xmc4_scu.c **** }
 661:../Libraries/XMCLib/src/xmc4_scu.c **** 
 662:../Libraries/XMCLib/src/xmc4_scu.c **** /* API to manually de-assert a reset request */
 663:../Libraries/XMCLib/src/xmc4_scu.c **** void XMC_SCU_RESET_DeassertPeripheralReset(const XMC_SCU_PERIPHERAL_RESET_t peripheral)
 664:../Libraries/XMCLib/src/xmc4_scu.c **** {
 1060              	 .loc 1 664 0
 1061              	 .cfi_startproc
 1062              	 
 1063              	 
 1064              	 
 1065              	.LVL57:
 665:../Libraries/XMCLib/src/xmc4_scu.c ****   uint32_t index = (uint32_t)((((uint32_t)peripheral) & 0xf0000000UL) >> 28UL);
 1066              	 .loc 1 665 0
 1067 0000 030F     	 lsrs r3,r0,#28
 1068              	.LVL58:
 666:../Libraries/XMCLib/src/xmc4_scu.c ****   uint32_t mask = (((uint32_t)peripheral) & ((uint32_t)~0xf0000000UL));
 667:../Libraries/XMCLib/src/xmc4_scu.c **** 
 668:../Libraries/XMCLib/src/xmc4_scu.c ****   *(uint32_t *)(&(SCU_RESET->PRCLR0) + (index * 3U)) = (uint32_t)mask;
 1069              	 .loc 1 668 0
 1070 0002 03EB4303 	 add r3,r3,r3,lsl#1
 1071              	.LVL59:
 1072 0006 034A     	 ldr r2,.L112
 666:../Libraries/XMCLib/src/xmc4_scu.c ****   uint32_t mask = (((uint32_t)peripheral) & ((uint32_t)~0xf0000000UL));
 1073              	 .loc 1 666 0
 1074 0008 20F07040 	 bic r0,r0,#-268435456
 1075              	.LVL60:
 1076              	 .loc 1 668 0
 1077 000c 42F82300 	 str r0,[r2,r3,lsl#2]
 1078 0010 7047     	 bx lr
 1079              	.L113:
 1080 0012 00BF     	 .align 2
 1081              	.L112:
 1082 0014 14440050 	 .word 1342194708
 1083              	 .cfi_endproc
 1084              	.LFE199:
 1086              	 .section .text.XMC_SCU_RESET_IsPeripheralResetAsserted,"ax",%progbits
 1087              	 .align 2
 1088              	 .global XMC_SCU_RESET_IsPeripheralResetAsserted
 1089              	 .thumb
 1090              	 .thumb_func
 1092              	XMC_SCU_RESET_IsPeripheralResetAsserted:
 1093              	.LFB200:
 669:../Libraries/XMCLib/src/xmc4_scu.c **** }
 670:../Libraries/XMCLib/src/xmc4_scu.c **** 
 671:../Libraries/XMCLib/src/xmc4_scu.c **** /* Find out if the peripheral reset is asserted */
 672:../Libraries/XMCLib/src/xmc4_scu.c **** bool XMC_SCU_RESET_IsPeripheralResetAsserted(const XMC_SCU_PERIPHERAL_RESET_t peripheral)
 673:../Libraries/XMCLib/src/xmc4_scu.c **** {
 1094              	 .loc 1 673 0
 1095              	 .cfi_startproc
 1096              	 
 1097              	 
 1098              	 
 1099              	.LVL61:
 674:../Libraries/XMCLib/src/xmc4_scu.c ****   uint32_t index = (uint32_t)((((uint32_t)peripheral) & 0xf0000000UL) >> 28UL);
 1100              	 .loc 1 674 0
 1101 0000 030F     	 lsrs r3,r0,#28
 1102              	.LVL62:
 675:../Libraries/XMCLib/src/xmc4_scu.c ****   uint32_t mask = (((uint32_t)peripheral) & ((uint32_t)~0xf0000000UL));
 676:../Libraries/XMCLib/src/xmc4_scu.c **** 
 677:../Libraries/XMCLib/src/xmc4_scu.c ****   return ((*(uint32_t *)(&(SCU_RESET->PRSTAT0) + (index * 3U)) & mask) != 0U);
 1103              	 .loc 1 677 0
 1104 0002 064A     	 ldr r2,.L115
 1105 0004 03EB4303 	 add r3,r3,r3,lsl#1
 1106              	.LVL63:
 675:../Libraries/XMCLib/src/xmc4_scu.c ****   uint32_t mask = (((uint32_t)peripheral) & ((uint32_t)~0xf0000000UL));
 1107              	 .loc 1 675 0
 1108 0008 20F07040 	 bic r0,r0,#-268435456
 1109              	.LVL64:
 1110              	 .loc 1 677 0
 1111 000c 52F82330 	 ldr r3,[r2,r3,lsl#2]
 1112 0010 1842     	 tst r0,r3
 678:../Libraries/XMCLib/src/xmc4_scu.c **** }
 1113              	 .loc 1 678 0
 1114 0012 14BF     	 ite ne
 1115 0014 0120     	 movne r0,#1
 1116              	.LVL65:
 1117 0016 0020     	 moveq r0,#0
 1118 0018 7047     	 bx lr
 1119              	.L116:
 1120 001a 00BF     	 .align 2
 1121              	.L115:
 1122 001c 0C440050 	 .word 1342194700
 1123              	 .cfi_endproc
 1124              	.LFE200:
 1126              	 .section .text.XMC_SCU_CLOCK_GetSystemPllClockFrequency,"ax",%progbits
 1127              	 .align 2
 1128              	 .global XMC_SCU_CLOCK_GetSystemPllClockFrequency
 1129              	 .thumb
 1130              	 .thumb_func
 1132              	XMC_SCU_CLOCK_GetSystemPllClockFrequency:
 1133              	.LFB201:
 679:../Libraries/XMCLib/src/xmc4_scu.c **** 
 680:../Libraries/XMCLib/src/xmc4_scu.c **** /*
 681:../Libraries/XMCLib/src/xmc4_scu.c ****  * API to retrieve frequency of System PLL output clock
 682:../Libraries/XMCLib/src/xmc4_scu.c ****  */
 683:../Libraries/XMCLib/src/xmc4_scu.c **** uint32_t XMC_SCU_CLOCK_GetSystemPllClockFrequency(void)
 684:../Libraries/XMCLib/src/xmc4_scu.c **** {
 1134              	 .loc 1 684 0
 1135              	 .cfi_startproc
 1136              	 
 1137              	 
 1138              	.LBB68:
 1139              	.LBB69:
 685:../Libraries/XMCLib/src/xmc4_scu.c ****   uint32_t clock_frequency;
 686:../Libraries/XMCLib/src/xmc4_scu.c ****   uint32_t p_div;
 687:../Libraries/XMCLib/src/xmc4_scu.c ****   uint32_t n_div;
 688:../Libraries/XMCLib/src/xmc4_scu.c ****   uint32_t k2_div;
 689:../Libraries/XMCLib/src/xmc4_scu.c **** 
 690:../Libraries/XMCLib/src/xmc4_scu.c ****   clock_frequency = XMC_SCU_CLOCK_GetSystemPllClockSourceFrequency();
 691:../Libraries/XMCLib/src/xmc4_scu.c ****   if(SCU_PLL->PLLSTAT & SCU_PLL_PLLSTAT_VCOBYST_Msk)
 692:../Libraries/XMCLib/src/xmc4_scu.c ****   {
 693:../Libraries/XMCLib/src/xmc4_scu.c ****     /* Prescalar mode - fOSC is the parent*/
 694:../Libraries/XMCLib/src/xmc4_scu.c ****     clock_frequency = (uint32_t)(clock_frequency / 
 695:../Libraries/XMCLib/src/xmc4_scu.c ****                       ((((SCU_PLL->PLLCON1) & SCU_PLL_PLLCON1_K1DIV_Msk) >> SCU_PLL_PLLCON1_K1DIV_P
 696:../Libraries/XMCLib/src/xmc4_scu.c ****   }
 697:../Libraries/XMCLib/src/xmc4_scu.c ****   else
 698:../Libraries/XMCLib/src/xmc4_scu.c ****   {
 699:../Libraries/XMCLib/src/xmc4_scu.c ****     p_div  = (uint32_t)((((SCU_PLL->PLLCON1) & SCU_PLL_PLLCON1_PDIV_Msk) >> SCU_PLL_PLLCON1_PDIV_Po
 700:../Libraries/XMCLib/src/xmc4_scu.c ****     n_div  = (uint32_t)((((SCU_PLL->PLLCON1) & SCU_PLL_PLLCON1_NDIV_Msk) >> SCU_PLL_PLLCON1_NDIV_Po
 701:../Libraries/XMCLib/src/xmc4_scu.c ****     k2_div = (uint32_t)((((SCU_PLL->PLLCON1) & SCU_PLL_PLLCON1_K2DIV_Msk) >> SCU_PLL_PLLCON1_K2DIV_
 702:../Libraries/XMCLib/src/xmc4_scu.c ****        
 703:../Libraries/XMCLib/src/xmc4_scu.c ****     clock_frequency = (clock_frequency * n_div) / (p_div * k2_div);
 704:../Libraries/XMCLib/src/xmc4_scu.c ****   }
 705:../Libraries/XMCLib/src/xmc4_scu.c **** 
 706:../Libraries/XMCLib/src/xmc4_scu.c ****   return (clock_frequency);
 707:../Libraries/XMCLib/src/xmc4_scu.c **** }
 708:../Libraries/XMCLib/src/xmc4_scu.c **** 
 709:../Libraries/XMCLib/src/xmc4_scu.c **** /**
 710:../Libraries/XMCLib/src/xmc4_scu.c ****  * API to retrieve frequency of System PLL VCO input clock
 711:../Libraries/XMCLib/src/xmc4_scu.c ****  */
 712:../Libraries/XMCLib/src/xmc4_scu.c **** uint32_t XMC_SCU_CLOCK_GetSystemPllClockSourceFrequency(void)
 713:../Libraries/XMCLib/src/xmc4_scu.c **** {
 714:../Libraries/XMCLib/src/xmc4_scu.c ****   uint32_t clock_frequency;
 715:../Libraries/XMCLib/src/xmc4_scu.c **** 
 716:../Libraries/XMCLib/src/xmc4_scu.c ****   /* Prescalar mode - fOSC is the parent*/
 717:../Libraries/XMCLib/src/xmc4_scu.c ****   if((SCU_PLL->PLLCON2 & SCU_PLL_PLLCON2_PINSEL_Msk) == (uint32_t)XMC_SCU_CLOCK_SYSPLLCLKSRC_OSCHP)
 1140              	 .loc 1 717 0
 1141 0000 124B     	 ldr r3,.L125
 1142 0002 DB68     	 ldr r3,[r3,#12]
 1143 0004 DB07     	 lsls r3,r3,#31
 1144              	.LBE69:
 1145              	.LBE68:
 684:../Libraries/XMCLib/src/xmc4_scu.c ****   uint32_t clock_frequency;
 1146              	 .loc 1 684 0
 1147 0006 10B5     	 push {r4,lr}
 1148              	.LCFI0:
 1149              	 .cfi_def_cfa_offset 8
 1150              	 .cfi_offset 4,-8
 1151              	 .cfi_offset 14,-4
 1152              	.LBB72:
 1153              	.LBB70:
 1154              	 .loc 1 717 0
 1155 0008 1CD5     	 bpl .L123
 718:../Libraries/XMCLib/src/xmc4_scu.c ****   {
 719:../Libraries/XMCLib/src/xmc4_scu.c ****     clock_frequency = OSCHP_GetFrequency();
 720:../Libraries/XMCLib/src/xmc4_scu.c ****   }
 721:../Libraries/XMCLib/src/xmc4_scu.c ****   else
 722:../Libraries/XMCLib/src/xmc4_scu.c ****   {
 723:../Libraries/XMCLib/src/xmc4_scu.c ****     clock_frequency = OFI_FREQUENCY;
 1156              	 .loc 1 723 0
 1157 000a 1148     	 ldr r0,.L125+4
 1158              	.L118:
 1159              	.LVL66:
 1160              	.LBE70:
 1161              	.LBE72:
 691:../Libraries/XMCLib/src/xmc4_scu.c ****   {
 1162              	 .loc 1 691 0
 1163 000c 0F4A     	 ldr r2,.L125
 1164 000e 1368     	 ldr r3,[r2]
 1165 0010 13F0010F 	 tst r3,#1
 695:../Libraries/XMCLib/src/xmc4_scu.c ****   }
 1166              	 .loc 1 695 0
 1167 0014 9368     	 ldr r3,[r2,#8]
 691:../Libraries/XMCLib/src/xmc4_scu.c ****   {
 1168              	 .loc 1 691 0
 1169 0016 0FD1     	 bne .L124
 1170              	.LVL67:
 700:../Libraries/XMCLib/src/xmc4_scu.c ****     k2_div = (uint32_t)((((SCU_PLL->PLLCON1) & SCU_PLL_PLLCON1_K2DIV_Msk) >> SCU_PLL_PLLCON1_K2DIV_
 1171              	 .loc 1 700 0
 1172 0018 9168     	 ldr r1,[r2,#8]
 1173              	.LVL68:
 701:../Libraries/XMCLib/src/xmc4_scu.c ****        
 1174              	 .loc 1 701 0
 1175 001a 9468     	 ldr r4,[r2,#8]
 1176              	.LVL69:
 699:../Libraries/XMCLib/src/xmc4_scu.c ****     n_div  = (uint32_t)((((SCU_PLL->PLLCON1) & SCU_PLL_PLLCON1_NDIV_Msk) >> SCU_PLL_PLLCON1_NDIV_Po
 1177              	 .loc 1 699 0
 1178 001c C3F30363 	 ubfx r3,r3,#24,#4
 1179              	.LVL70:
 701:../Libraries/XMCLib/src/xmc4_scu.c ****        
 1180              	 .loc 1 701 0
 1181 0020 C4F30644 	 ubfx r4,r4,#16,#7
 1182              	.LVL71:
 700:../Libraries/XMCLib/src/xmc4_scu.c ****     k2_div = (uint32_t)((((SCU_PLL->PLLCON1) & SCU_PLL_PLLCON1_K2DIV_Msk) >> SCU_PLL_PLLCON1_K2DIV_
 1183              	 .loc 1 700 0
 1184 0024 C1F30622 	 ubfx r2,r1,#8,#7
 699:../Libraries/XMCLib/src/xmc4_scu.c ****     n_div  = (uint32_t)((((SCU_PLL->PLLCON1) & SCU_PLL_PLLCON1_NDIV_Msk) >> SCU_PLL_PLLCON1_NDIV_Po
 1185              	 .loc 1 699 0
 1186 0028 0133     	 adds r3,r3,#1
 703:../Libraries/XMCLib/src/xmc4_scu.c ****   }
 1187              	 .loc 1 703 0
 1188 002a 04FB0333 	 mla r3,r4,r3,r3
 1189 002e 02FB0000 	 mla r0,r2,r0,r0
 1190              	.LVL72:
 1191 0032 B0FBF3F0 	 udiv r0,r0,r3
 1192              	.LVL73:
 707:../Libraries/XMCLib/src/xmc4_scu.c **** 
 1193              	 .loc 1 707 0
 1194 0036 10BD     	 pop {r4,pc}
 1195              	.LVL74:
 1196              	.L124:
 695:../Libraries/XMCLib/src/xmc4_scu.c ****   }
 1197              	 .loc 1 695 0
 1198 0038 03F07F03 	 and r3,r3,#127
 1199 003c 0133     	 adds r3,r3,#1
 694:../Libraries/XMCLib/src/xmc4_scu.c ****                       ((((SCU_PLL->PLLCON1) & SCU_PLL_PLLCON1_K1DIV_Msk) >> SCU_PLL_PLLCON1_K1DIV_P
 1200              	 .loc 1 694 0
 1201 003e B0FBF3F0 	 udiv r0,r0,r3
 1202              	.LVL75:
 1203 0042 10BD     	 pop {r4,pc}
 1204              	.LVL76:
 1205              	.L123:
 1206              	.LBB73:
 1207              	.LBB71:
 719:../Libraries/XMCLib/src/xmc4_scu.c ****   }
 1208              	 .loc 1 719 0
 1209 0044 FFF7FEFF 	 bl OSCHP_GetFrequency
 1210              	.LVL77:
 1211 0048 E0E7     	 b .L118
 1212              	.L126:
 1213 004a 00BF     	 .align 2
 1214              	.L125:
 1215 004c 10470050 	 .word 1342195472
 1216 0050 00366E01 	 .word 24000000
 1217              	.LBE71:
 1218              	.LBE73:
 1219              	 .cfi_endproc
 1220              	.LFE201:
 1222              	 .section .text.XMC_SCU_CLOCK_GetSystemPllClockSourceFrequency,"ax",%progbits
 1223              	 .align 2
 1224              	 .global XMC_SCU_CLOCK_GetSystemPllClockSourceFrequency
 1225              	 .thumb
 1226              	 .thumb_func
 1228              	XMC_SCU_CLOCK_GetSystemPllClockSourceFrequency:
 1229              	.LFB202:
 713:../Libraries/XMCLib/src/xmc4_scu.c ****   uint32_t clock_frequency;
 1230              	 .loc 1 713 0
 1231              	 .cfi_startproc
 1232              	 
 1233              	 
 1234              	 
 717:../Libraries/XMCLib/src/xmc4_scu.c ****   {
 1235              	 .loc 1 717 0
 1236 0000 034B     	 ldr r3,.L130
 1237 0002 DB68     	 ldr r3,[r3,#12]
 1238 0004 DB07     	 lsls r3,r3,#31
 1239 0006 01D5     	 bpl .L129
 1240              	.LVL78:
 724:../Libraries/XMCLib/src/xmc4_scu.c ****   }
 725:../Libraries/XMCLib/src/xmc4_scu.c ****   
 726:../Libraries/XMCLib/src/xmc4_scu.c ****   return (clock_frequency);
 727:../Libraries/XMCLib/src/xmc4_scu.c **** }
 1241              	 .loc 1 727 0
 1242 0008 0248     	 ldr r0,.L130+4
 1243 000a 7047     	 bx lr
 1244              	.LVL79:
 1245              	.L129:
 719:../Libraries/XMCLib/src/xmc4_scu.c ****   }
 1246              	 .loc 1 719 0
 1247 000c FFF7FEBF 	 b OSCHP_GetFrequency
 1248              	.LVL80:
 1249              	.L131:
 1250              	 .align 2
 1251              	.L130:
 1252 0010 10470050 	 .word 1342195472
 1253 0014 00366E01 	 .word 24000000
 1254              	 .cfi_endproc
 1255              	.LFE202:
 1257              	 .section .text.XMC_SCU_CLOCK_GetUsbPllClockFrequency,"ax",%progbits
 1258              	 .align 2
 1259              	 .global XMC_SCU_CLOCK_GetUsbPllClockFrequency
 1260              	 .thumb
 1261              	 .thumb_func
 1263              	XMC_SCU_CLOCK_GetUsbPllClockFrequency:
 1264              	.LFB203:
 728:../Libraries/XMCLib/src/xmc4_scu.c **** 
 729:../Libraries/XMCLib/src/xmc4_scu.c **** /*
 730:../Libraries/XMCLib/src/xmc4_scu.c ****  * API to retrieve frequency of USB PLL output clock
 731:../Libraries/XMCLib/src/xmc4_scu.c ****  */
 732:../Libraries/XMCLib/src/xmc4_scu.c **** uint32_t XMC_SCU_CLOCK_GetUsbPllClockFrequency(void)
 733:../Libraries/XMCLib/src/xmc4_scu.c **** {
 1265              	 .loc 1 733 0
 1266              	 .cfi_startproc
 1267              	 
 1268              	 
 1269 0000 08B5     	 push {r3,lr}
 1270              	.LCFI1:
 1271              	 .cfi_def_cfa_offset 8
 1272              	 .cfi_offset 3,-8
 1273              	 .cfi_offset 14,-4
 734:../Libraries/XMCLib/src/xmc4_scu.c ****   uint32_t clock_frequency;
 735:../Libraries/XMCLib/src/xmc4_scu.c ****   uint32_t n_div;
 736:../Libraries/XMCLib/src/xmc4_scu.c ****   uint32_t p_div;
 737:../Libraries/XMCLib/src/xmc4_scu.c ****   
 738:../Libraries/XMCLib/src/xmc4_scu.c ****   clock_frequency = OSCHP_GetFrequency();
 1274              	 .loc 1 738 0
 1275 0002 FFF7FEFF 	 bl OSCHP_GetFrequency
 1276              	.LVL81:
 739:../Libraries/XMCLib/src/xmc4_scu.c ****   if((SCU_PLL->USBPLLSTAT & SCU_PLL_USBPLLSTAT_VCOBYST_Msk) == 0U)
 1277              	 .loc 1 739 0
 1278 0006 084B     	 ldr r3,.L135
 1279 0008 1A69     	 ldr r2,[r3,#16]
 1280 000a D207     	 lsls r2,r2,#31
 1281 000c 0BD4     	 bmi .L133
 740:../Libraries/XMCLib/src/xmc4_scu.c ****   {
 741:../Libraries/XMCLib/src/xmc4_scu.c ****     /* Normal mode - fVCO is the parent*/
 742:../Libraries/XMCLib/src/xmc4_scu.c ****     n_div = (uint32_t)((((SCU_PLL->USBPLLCON) & SCU_PLL_USBPLLCON_NDIV_Msk) >> SCU_PLL_USBPLLCON_ND
 1282              	 .loc 1 742 0
 1283 000e 5A69     	 ldr r2,[r3,#20]
 1284              	.LVL82:
 743:../Libraries/XMCLib/src/xmc4_scu.c ****     p_div = (uint32_t)((((SCU_PLL->USBPLLCON) & SCU_PLL_USBPLLCON_PDIV_Msk) >> SCU_PLL_USBPLLCON_PD
 1285              	 .loc 1 743 0
 1286 0010 5B69     	 ldr r3,[r3,#20]
 1287              	.LVL83:
 1288 0012 C3F30363 	 ubfx r3,r3,#24,#4
 1289              	.LVL84:
 1290 0016 0133     	 adds r3,r3,#1
 742:../Libraries/XMCLib/src/xmc4_scu.c ****     p_div = (uint32_t)((((SCU_PLL->USBPLLCON) & SCU_PLL_USBPLLCON_PDIV_Msk) >> SCU_PLL_USBPLLCON_PD
 1291              	 .loc 1 742 0
 1292 0018 C2F30622 	 ubfx r2,r2,#8,#7
 1293              	.LVL85:
 744:../Libraries/XMCLib/src/xmc4_scu.c ****     clock_frequency = (uint32_t)((clock_frequency * n_div)/ (uint32_t)(p_div * 2UL));
 1294              	 .loc 1 744 0
 1295 001c 5B00     	 lsls r3,r3,#1
 1296 001e 02FB0000 	 mla r0,r2,r0,r0
 1297              	.LVL86:
 1298 0022 B0FBF3F0 	 udiv r0,r0,r3
 1299              	.LVL87:
 1300              	.L133:
 745:../Libraries/XMCLib/src/xmc4_scu.c ****   }
 746:../Libraries/XMCLib/src/xmc4_scu.c ****   return (clock_frequency);
 747:../Libraries/XMCLib/src/xmc4_scu.c **** }
 1301              	 .loc 1 747 0
 1302 0026 08BD     	 pop {r3,pc}
 1303              	.L136:
 1304              	 .align 2
 1305              	.L135:
 1306 0028 10470050 	 .word 1342195472
 1307              	 .cfi_endproc
 1308              	.LFE203:
 1310              	 .section .text.XMC_SCU_CLOCK_GetCcuClockFrequency,"ax",%progbits
 1311              	 .align 2
 1312              	 .global XMC_SCU_CLOCK_GetCcuClockFrequency
 1313              	 .thumb
 1314              	 .thumb_func
 1316              	XMC_SCU_CLOCK_GetCcuClockFrequency:
 1317              	.LFB204:
 748:../Libraries/XMCLib/src/xmc4_scu.c **** 
 749:../Libraries/XMCLib/src/xmc4_scu.c **** /*
 750:../Libraries/XMCLib/src/xmc4_scu.c ****  * API to retrieve frequency of CCU clock frequency
 751:../Libraries/XMCLib/src/xmc4_scu.c ****  */
 752:../Libraries/XMCLib/src/xmc4_scu.c **** uint32_t XMC_SCU_CLOCK_GetCcuClockFrequency(void)
 753:../Libraries/XMCLib/src/xmc4_scu.c **** {
 1318              	 .loc 1 753 0
 1319              	 .cfi_startproc
 1320              	 
 1321              	 
 1322              	 
 1323              	.LVL88:
 1324              	.LBB74:
 1325              	.LBB75:
 1326              	 .file 2 "C:/Users/Utente/Desktop/Tesi/Firmware_Software/DAVE project/S2GLP_Pulsed_Doppler/Libraries/XMCLib/inc/xmc4_scu.h"
   1:C:/Users/Utente/Desktop/Tesi/Firmware_Software/DAVE project/S2GLP_Pulsed_Doppler/Libraries/XMCLib/inc\xmc4_scu.h **** /**
   2:C:/Users/Utente/Desktop/Tesi/Firmware_Software/DAVE project/S2GLP_Pulsed_Doppler/Libraries/XMCLib/inc\xmc4_scu.h ****  * @file xmc4_scu.h
   3:C:/Users/Utente/Desktop/Tesi/Firmware_Software/DAVE project/S2GLP_Pulsed_Doppler/Libraries/XMCLib/inc\xmc4_scu.h ****  * @date 2016-06-15
   4:C:/Users/Utente/Desktop/Tesi/Firmware_Software/DAVE project/S2GLP_Pulsed_Doppler/Libraries/XMCLib/inc\xmc4_scu.h ****  *
   5:C:/Users/Utente/Desktop/Tesi/Firmware_Software/DAVE project/S2GLP_Pulsed_Doppler/Libraries/XMCLib/inc\xmc4_scu.h ****  * @cond
   6:C:/Users/Utente/Desktop/Tesi/Firmware_Software/DAVE project/S2GLP_Pulsed_Doppler/Libraries/XMCLib/inc\xmc4_scu.h ****  **************************************************************************************************
   7:C:/Users/Utente/Desktop/Tesi/Firmware_Software/DAVE project/S2GLP_Pulsed_Doppler/Libraries/XMCLib/inc\xmc4_scu.h ****  * XMClib v2.1.16 - XMC Peripheral Driver Library 
   8:C:/Users/Utente/Desktop/Tesi/Firmware_Software/DAVE project/S2GLP_Pulsed_Doppler/Libraries/XMCLib/inc\xmc4_scu.h ****  *
   9:C:/Users/Utente/Desktop/Tesi/Firmware_Software/DAVE project/S2GLP_Pulsed_Doppler/Libraries/XMCLib/inc\xmc4_scu.h ****  * Copyright (c) 2015-2017, Infineon Technologies AG
  10:C:/Users/Utente/Desktop/Tesi/Firmware_Software/DAVE project/S2GLP_Pulsed_Doppler/Libraries/XMCLib/inc\xmc4_scu.h ****  * All rights reserved.                        
  11:C:/Users/Utente/Desktop/Tesi/Firmware_Software/DAVE project/S2GLP_Pulsed_Doppler/Libraries/XMCLib/inc\xmc4_scu.h ****  *                                             
  12:C:/Users/Utente/Desktop/Tesi/Firmware_Software/DAVE project/S2GLP_Pulsed_Doppler/Libraries/XMCLib/inc\xmc4_scu.h ****  * Redistribution and use in source and binary forms, with or without modification,are permitted pr
  13:C:/Users/Utente/Desktop/Tesi/Firmware_Software/DAVE project/S2GLP_Pulsed_Doppler/Libraries/XMCLib/inc\xmc4_scu.h ****  * following conditions are met:   
  14:C:/Users/Utente/Desktop/Tesi/Firmware_Software/DAVE project/S2GLP_Pulsed_Doppler/Libraries/XMCLib/inc\xmc4_scu.h ****  *                                                                              
  15:C:/Users/Utente/Desktop/Tesi/Firmware_Software/DAVE project/S2GLP_Pulsed_Doppler/Libraries/XMCLib/inc\xmc4_scu.h ****  * Redistributions of source code must retain the above copyright notice, this list of conditions a
  16:C:/Users/Utente/Desktop/Tesi/Firmware_Software/DAVE project/S2GLP_Pulsed_Doppler/Libraries/XMCLib/inc\xmc4_scu.h ****  * disclaimer.                        
  17:C:/Users/Utente/Desktop/Tesi/Firmware_Software/DAVE project/S2GLP_Pulsed_Doppler/Libraries/XMCLib/inc\xmc4_scu.h ****  * 
  18:C:/Users/Utente/Desktop/Tesi/Firmware_Software/DAVE project/S2GLP_Pulsed_Doppler/Libraries/XMCLib/inc\xmc4_scu.h ****  * Redistributions in binary form must reproduce the above copyright notice, this list of condition
  19:C:/Users/Utente/Desktop/Tesi/Firmware_Software/DAVE project/S2GLP_Pulsed_Doppler/Libraries/XMCLib/inc\xmc4_scu.h ****  * disclaimer in the documentation and/or other materials provided with the distribution.          
  20:C:/Users/Utente/Desktop/Tesi/Firmware_Software/DAVE project/S2GLP_Pulsed_Doppler/Libraries/XMCLib/inc\xmc4_scu.h ****  * 
  21:C:/Users/Utente/Desktop/Tesi/Firmware_Software/DAVE project/S2GLP_Pulsed_Doppler/Libraries/XMCLib/inc\xmc4_scu.h ****  * Neither the name of the copyright holders nor the names of its contributors may be used to endor
  22:C:/Users/Utente/Desktop/Tesi/Firmware_Software/DAVE project/S2GLP_Pulsed_Doppler/Libraries/XMCLib/inc\xmc4_scu.h ****  * products derived from this software without specific prior written permission.                  
  23:C:/Users/Utente/Desktop/Tesi/Firmware_Software/DAVE project/S2GLP_Pulsed_Doppler/Libraries/XMCLib/inc\xmc4_scu.h ****  *                                                                              
  24:C:/Users/Utente/Desktop/Tesi/Firmware_Software/DAVE project/S2GLP_Pulsed_Doppler/Libraries/XMCLib/inc\xmc4_scu.h ****  * THIS SOFTWARE IS PROVIDED BY THE COPYRIGHT HOLDERS AND CONTRIBUTORS "AS IS" AND ANY EXPRESS OR I
  25:C:/Users/Utente/Desktop/Tesi/Firmware_Software/DAVE project/S2GLP_Pulsed_Doppler/Libraries/XMCLib/inc\xmc4_scu.h ****  * INCLUDING, BUT NOT LIMITED TO, THE IMPLIED WARRANTIES OF MERCHANTABILITY AND FITNESS FOR A PARTI
  26:C:/Users/Utente/Desktop/Tesi/Firmware_Software/DAVE project/S2GLP_Pulsed_Doppler/Libraries/XMCLib/inc\xmc4_scu.h ****  * DISCLAIMED. IN NO EVENT SHALL THE COPYRIGHT HOLDER OR CONTRIBUTORS BE LIABLE  FOR ANY DIRECT, IN
  27:C:/Users/Utente/Desktop/Tesi/Firmware_Software/DAVE project/S2GLP_Pulsed_Doppler/Libraries/XMCLib/inc\xmc4_scu.h ****  * SPECIAL, EXEMPLARY, OR CONSEQUENTIAL DAMAGES (INCLUDING, BUT NOT LIMITED TO, PROCUREMENT OF SUBS
  28:C:/Users/Utente/Desktop/Tesi/Firmware_Software/DAVE project/S2GLP_Pulsed_Doppler/Libraries/XMCLib/inc\xmc4_scu.h ****  * SERVICES; LOSS OF USE, DATA, OR PROFITS; OR BUSINESS INTERRUPTION) HOWEVER CAUSED AND ON ANY THE
  29:C:/Users/Utente/Desktop/Tesi/Firmware_Software/DAVE project/S2GLP_Pulsed_Doppler/Libraries/XMCLib/inc\xmc4_scu.h ****  * WHETHER IN CONTRACT, STRICT LIABILITY,OR TORT (INCLUDING NEGLIGENCE OR OTHERWISE) ARISING IN ANY
  30:C:/Users/Utente/Desktop/Tesi/Firmware_Software/DAVE project/S2GLP_Pulsed_Doppler/Libraries/XMCLib/inc\xmc4_scu.h ****  * OF THIS SOFTWARE, EVEN IF ADVISED OF THE POSSIBILITY OF SUCH DAMAGE.                            
  31:C:/Users/Utente/Desktop/Tesi/Firmware_Software/DAVE project/S2GLP_Pulsed_Doppler/Libraries/XMCLib/inc\xmc4_scu.h ****  *                                                                              
  32:C:/Users/Utente/Desktop/Tesi/Firmware_Software/DAVE project/S2GLP_Pulsed_Doppler/Libraries/XMCLib/inc\xmc4_scu.h ****  * To improve the quality of the software, users are encouraged to share modifications, enhancement
  33:C:/Users/Utente/Desktop/Tesi/Firmware_Software/DAVE project/S2GLP_Pulsed_Doppler/Libraries/XMCLib/inc\xmc4_scu.h ****  * Infineon Technologies AG dave@infineon.com).                                                    
  34:C:/Users/Utente/Desktop/Tesi/Firmware_Software/DAVE project/S2GLP_Pulsed_Doppler/Libraries/XMCLib/inc\xmc4_scu.h ****  **************************************************************************************************
  35:C:/Users/Utente/Desktop/Tesi/Firmware_Software/DAVE project/S2GLP_Pulsed_Doppler/Libraries/XMCLib/inc\xmc4_scu.h ****  *
  36:C:/Users/Utente/Desktop/Tesi/Firmware_Software/DAVE project/S2GLP_Pulsed_Doppler/Libraries/XMCLib/inc\xmc4_scu.h ****  * Change History
  37:C:/Users/Utente/Desktop/Tesi/Firmware_Software/DAVE project/S2GLP_Pulsed_Doppler/Libraries/XMCLib/inc\xmc4_scu.h ****  * --------------
  38:C:/Users/Utente/Desktop/Tesi/Firmware_Software/DAVE project/S2GLP_Pulsed_Doppler/Libraries/XMCLib/inc\xmc4_scu.h ****  *
  39:C:/Users/Utente/Desktop/Tesi/Firmware_Software/DAVE project/S2GLP_Pulsed_Doppler/Libraries/XMCLib/inc\xmc4_scu.h ****  * 2015-06-20:
  40:C:/Users/Utente/Desktop/Tesi/Firmware_Software/DAVE project/S2GLP_Pulsed_Doppler/Libraries/XMCLib/inc\xmc4_scu.h ****  *     - Initial version
  41:C:/Users/Utente/Desktop/Tesi/Firmware_Software/DAVE project/S2GLP_Pulsed_Doppler/Libraries/XMCLib/inc\xmc4_scu.h ****  *     - Documentation improved
  42:C:/Users/Utente/Desktop/Tesi/Firmware_Software/DAVE project/S2GLP_Pulsed_Doppler/Libraries/XMCLib/inc\xmc4_scu.h ****  *
  43:C:/Users/Utente/Desktop/Tesi/Firmware_Software/DAVE project/S2GLP_Pulsed_Doppler/Libraries/XMCLib/inc\xmc4_scu.h ****  * 2015-11-30:
  44:C:/Users/Utente/Desktop/Tesi/Firmware_Software/DAVE project/S2GLP_Pulsed_Doppler/Libraries/XMCLib/inc\xmc4_scu.h ****  *     - Documentation improved
  45:C:/Users/Utente/Desktop/Tesi/Firmware_Software/DAVE project/S2GLP_Pulsed_Doppler/Libraries/XMCLib/inc\xmc4_scu.h ****  *      
  46:C:/Users/Utente/Desktop/Tesi/Firmware_Software/DAVE project/S2GLP_Pulsed_Doppler/Libraries/XMCLib/inc\xmc4_scu.h ****  * 2016-03-09:
  47:C:/Users/Utente/Desktop/Tesi/Firmware_Software/DAVE project/S2GLP_Pulsed_Doppler/Libraries/XMCLib/inc\xmc4_scu.h ****  *     - Added XMC_SCU_POWER_EnableMonitor/XMC_SCU_POWER_DisableMonitor
  48:C:/Users/Utente/Desktop/Tesi/Firmware_Software/DAVE project/S2GLP_Pulsed_Doppler/Libraries/XMCLib/inc\xmc4_scu.h ****  *             XMC_SCU_POWER_GetEVRStatus, XMC_SCU_POWER_GetEVR13Voltage, XMC_SCU_POWER_GetEVR33Vol
  49:C:/Users/Utente/Desktop/Tesi/Firmware_Software/DAVE project/S2GLP_Pulsed_Doppler/Libraries/XMCLib/inc\xmc4_scu.h ****  *     - Added XMC_SCU_HIB_GetHibernateControlStatus,
  50:C:/Users/Utente/Desktop/Tesi/Firmware_Software/DAVE project/S2GLP_Pulsed_Doppler/Libraries/XMCLib/inc\xmc4_scu.h ****  *             XMC_SCU_HIB_GetEventStatus, XMC_SCU_HIB_ClearEventStatus, XMC_SCU_HIB_TriggerEvent, 
  51:C:/Users/Utente/Desktop/Tesi/Firmware_Software/DAVE project/S2GLP_Pulsed_Doppler/Libraries/XMCLib/inc\xmc4_scu.h ****  *             XMC_SCU_HIB_EnableEvent, XMC_SCU_HIB_DisableEvent
  52:C:/Users/Utente/Desktop/Tesi/Firmware_Software/DAVE project/S2GLP_Pulsed_Doppler/Libraries/XMCLib/inc\xmc4_scu.h ****  *     - Added XMC_SCU_HIB_SetWakeupTriggerInput, XMC_SCU_HIB_SetPinMode, XMC_SCU_HIB_SetOutputPinL
  53:C:/Users/Utente/Desktop/Tesi/Firmware_Software/DAVE project/S2GLP_Pulsed_Doppler/Libraries/XMCLib/inc\xmc4_scu.h ****  *             XMC_SCU_HIB_SetInput0, XMC_SCU_HIB_EnterHibernateState
  54:C:/Users/Utente/Desktop/Tesi/Firmware_Software/DAVE project/S2GLP_Pulsed_Doppler/Libraries/XMCLib/inc\xmc4_scu.h ****  *
  55:C:/Users/Utente/Desktop/Tesi/Firmware_Software/DAVE project/S2GLP_Pulsed_Doppler/Libraries/XMCLib/inc\xmc4_scu.h ****  * 2016-04-15:
  56:C:/Users/Utente/Desktop/Tesi/Firmware_Software/DAVE project/S2GLP_Pulsed_Doppler/Libraries/XMCLib/inc\xmc4_scu.h ****  *     - Fixed naming of XMC_SCU_CLOCK_DEEPSLEEP_MODE_CONFIG peripheral clock.
  57:C:/Users/Utente/Desktop/Tesi/Firmware_Software/DAVE project/S2GLP_Pulsed_Doppler/Libraries/XMCLib/inc\xmc4_scu.h ****  *       Added enable and disable for peripheral clocks       
  58:C:/Users/Utente/Desktop/Tesi/Firmware_Software/DAVE project/S2GLP_Pulsed_Doppler/Libraries/XMCLib/inc\xmc4_scu.h ****  * 
  59:C:/Users/Utente/Desktop/Tesi/Firmware_Software/DAVE project/S2GLP_Pulsed_Doppler/Libraries/XMCLib/inc\xmc4_scu.h ****  * 2016-05-19:
  60:C:/Users/Utente/Desktop/Tesi/Firmware_Software/DAVE project/S2GLP_Pulsed_Doppler/Libraries/XMCLib/inc\xmc4_scu.h ****  *     - Added XMC_SCU_CLOCK_IsLowPowerOscillatorStable() and XMC_SCU_CLOCK_IsHighPerformanceOscill
  61:C:/Users/Utente/Desktop/Tesi/Firmware_Software/DAVE project/S2GLP_Pulsed_Doppler/Libraries/XMCLib/inc\xmc4_scu.h ****  *     - Added XMC_SCU_POWER_WaitForInterrupt() and XMC_SCU_POWER_WaitForEvent()
  62:C:/Users/Utente/Desktop/Tesi/Firmware_Software/DAVE project/S2GLP_Pulsed_Doppler/Libraries/XMCLib/inc\xmc4_scu.h ****  *     - Added XMC_SCU_CLOCK_EnableLowPowerOscillatorGeneralPurposeInput(), 
  63:C:/Users/Utente/Desktop/Tesi/Firmware_Software/DAVE project/S2GLP_Pulsed_Doppler/Libraries/XMCLib/inc\xmc4_scu.h ****  *             XMC_SCU_CLOCK_DisableLowPowerOscillatorGeneralPurposeInput(),
  64:C:/Users/Utente/Desktop/Tesi/Firmware_Software/DAVE project/S2GLP_Pulsed_Doppler/Libraries/XMCLib/inc\xmc4_scu.h ****  *             XMC_SCU_CLOCK_GetLowPowerOscillatorGeneralPurposeInputStatus()
  65:C:/Users/Utente/Desktop/Tesi/Firmware_Software/DAVE project/S2GLP_Pulsed_Doppler/Libraries/XMCLib/inc\xmc4_scu.h ****  *     - Added XMC_SCU_CLOCK_EnableHighPerformanceOscillatorGeneralPurposeInput(), 
  66:C:/Users/Utente/Desktop/Tesi/Firmware_Software/DAVE project/S2GLP_Pulsed_Doppler/Libraries/XMCLib/inc\xmc4_scu.h ****  *             XMC_SCU_CLOCK_DisableHighPerformanceOscillatorGeneralPurposeInput(),
  67:C:/Users/Utente/Desktop/Tesi/Firmware_Software/DAVE project/S2GLP_Pulsed_Doppler/Libraries/XMCLib/inc\xmc4_scu.h ****  *             XMC_SCU_CLOCK_GetHighPerformanceOscillatorGeneralPurposeInputStatus()
  68:C:/Users/Utente/Desktop/Tesi/Firmware_Software/DAVE project/S2GLP_Pulsed_Doppler/Libraries/XMCLib/inc\xmc4_scu.h ****  *     - Removed XMC_SCU_INTERRUPT_EVENT_OSCULSTAT_UPDATED, XMC_SCU_INTERRUPT_EVENT_HDSTAT_UPDATED
  69:C:/Users/Utente/Desktop/Tesi/Firmware_Software/DAVE project/S2GLP_Pulsed_Doppler/Libraries/XMCLib/inc\xmc4_scu.h ****  *
  70:C:/Users/Utente/Desktop/Tesi/Firmware_Software/DAVE project/S2GLP_Pulsed_Doppler/Libraries/XMCLib/inc\xmc4_scu.h ****  * 2016-06-14:
  71:C:/Users/Utente/Desktop/Tesi/Firmware_Software/DAVE project/S2GLP_Pulsed_Doppler/Libraries/XMCLib/inc\xmc4_scu.h ****  *     - Added XMC_SCU_HIB_IsWakeupEventDetected() and XMC_SCU_HIB_ClearWakeupEventDetectionStatus(
  72:C:/Users/Utente/Desktop/Tesi/Firmware_Software/DAVE project/S2GLP_Pulsed_Doppler/Libraries/XMCLib/inc\xmc4_scu.h ****  *
  73:C:/Users/Utente/Desktop/Tesi/Firmware_Software/DAVE project/S2GLP_Pulsed_Doppler/Libraries/XMCLib/inc\xmc4_scu.h ****  * 2016-06-15:
  74:C:/Users/Utente/Desktop/Tesi/Firmware_Software/DAVE project/S2GLP_Pulsed_Doppler/Libraries/XMCLib/inc\xmc4_scu.h ****  *     - Added XMC_SCU_HIB_EnterHibernateStateEx() which allows to select between external or inter
  75:C:/Users/Utente/Desktop/Tesi/Firmware_Software/DAVE project/S2GLP_Pulsed_Doppler/Libraries/XMCLib/inc\xmc4_scu.h ****  *     - Extended wakeup hibernate events using LPAC wakeup on events. Only available in XMC44, XMC
  76:C:/Users/Utente/Desktop/Tesi/Firmware_Software/DAVE project/S2GLP_Pulsed_Doppler/Libraries/XMCLib/inc\xmc4_scu.h ****  *     - Added LPAC APIs. Only available in XMC44, XMC42 and XMC41 series.
  77:C:/Users/Utente/Desktop/Tesi/Firmware_Software/DAVE project/S2GLP_Pulsed_Doppler/Libraries/XMCLib/inc\xmc4_scu.h ****  *
  78:C:/Users/Utente/Desktop/Tesi/Firmware_Software/DAVE project/S2GLP_Pulsed_Doppler/Libraries/XMCLib/inc\xmc4_scu.h ****  * @endcond 
  79:C:/Users/Utente/Desktop/Tesi/Firmware_Software/DAVE project/S2GLP_Pulsed_Doppler/Libraries/XMCLib/inc\xmc4_scu.h ****  *
  80:C:/Users/Utente/Desktop/Tesi/Firmware_Software/DAVE project/S2GLP_Pulsed_Doppler/Libraries/XMCLib/inc\xmc4_scu.h ****  */
  81:C:/Users/Utente/Desktop/Tesi/Firmware_Software/DAVE project/S2GLP_Pulsed_Doppler/Libraries/XMCLib/inc\xmc4_scu.h **** 
  82:C:/Users/Utente/Desktop/Tesi/Firmware_Software/DAVE project/S2GLP_Pulsed_Doppler/Libraries/XMCLib/inc\xmc4_scu.h **** #ifndef XMC4_SCU_H
  83:C:/Users/Utente/Desktop/Tesi/Firmware_Software/DAVE project/S2GLP_Pulsed_Doppler/Libraries/XMCLib/inc\xmc4_scu.h **** #define XMC4_SCU_H
  84:C:/Users/Utente/Desktop/Tesi/Firmware_Software/DAVE project/S2GLP_Pulsed_Doppler/Libraries/XMCLib/inc\xmc4_scu.h **** 
  85:C:/Users/Utente/Desktop/Tesi/Firmware_Software/DAVE project/S2GLP_Pulsed_Doppler/Libraries/XMCLib/inc\xmc4_scu.h **** /**************************************************************************************************
  86:C:/Users/Utente/Desktop/Tesi/Firmware_Software/DAVE project/S2GLP_Pulsed_Doppler/Libraries/XMCLib/inc\xmc4_scu.h ****  * HEADER FILES
  87:C:/Users/Utente/Desktop/Tesi/Firmware_Software/DAVE project/S2GLP_Pulsed_Doppler/Libraries/XMCLib/inc\xmc4_scu.h ****  **************************************************************************************************
  88:C:/Users/Utente/Desktop/Tesi/Firmware_Software/DAVE project/S2GLP_Pulsed_Doppler/Libraries/XMCLib/inc\xmc4_scu.h **** 
  89:C:/Users/Utente/Desktop/Tesi/Firmware_Software/DAVE project/S2GLP_Pulsed_Doppler/Libraries/XMCLib/inc\xmc4_scu.h **** #include "xmc_common.h"
  90:C:/Users/Utente/Desktop/Tesi/Firmware_Software/DAVE project/S2GLP_Pulsed_Doppler/Libraries/XMCLib/inc\xmc4_scu.h **** 
  91:C:/Users/Utente/Desktop/Tesi/Firmware_Software/DAVE project/S2GLP_Pulsed_Doppler/Libraries/XMCLib/inc\xmc4_scu.h **** #if UC_FAMILY == XMC4
  92:C:/Users/Utente/Desktop/Tesi/Firmware_Software/DAVE project/S2GLP_Pulsed_Doppler/Libraries/XMCLib/inc\xmc4_scu.h **** 
  93:C:/Users/Utente/Desktop/Tesi/Firmware_Software/DAVE project/S2GLP_Pulsed_Doppler/Libraries/XMCLib/inc\xmc4_scu.h **** /**
  94:C:/Users/Utente/Desktop/Tesi/Firmware_Software/DAVE project/S2GLP_Pulsed_Doppler/Libraries/XMCLib/inc\xmc4_scu.h ****  * @addtogroup XMClib XMC Peripheral Library
  95:C:/Users/Utente/Desktop/Tesi/Firmware_Software/DAVE project/S2GLP_Pulsed_Doppler/Libraries/XMCLib/inc\xmc4_scu.h ****  * @{
  96:C:/Users/Utente/Desktop/Tesi/Firmware_Software/DAVE project/S2GLP_Pulsed_Doppler/Libraries/XMCLib/inc\xmc4_scu.h ****  */
  97:C:/Users/Utente/Desktop/Tesi/Firmware_Software/DAVE project/S2GLP_Pulsed_Doppler/Libraries/XMCLib/inc\xmc4_scu.h ****  
  98:C:/Users/Utente/Desktop/Tesi/Firmware_Software/DAVE project/S2GLP_Pulsed_Doppler/Libraries/XMCLib/inc\xmc4_scu.h **** /**
  99:C:/Users/Utente/Desktop/Tesi/Firmware_Software/DAVE project/S2GLP_Pulsed_Doppler/Libraries/XMCLib/inc\xmc4_scu.h ****  * @addtogroup SCU
 100:C:/Users/Utente/Desktop/Tesi/Firmware_Software/DAVE project/S2GLP_Pulsed_Doppler/Libraries/XMCLib/inc\xmc4_scu.h ****  * @{
 101:C:/Users/Utente/Desktop/Tesi/Firmware_Software/DAVE project/S2GLP_Pulsed_Doppler/Libraries/XMCLib/inc\xmc4_scu.h ****  */
 102:C:/Users/Utente/Desktop/Tesi/Firmware_Software/DAVE project/S2GLP_Pulsed_Doppler/Libraries/XMCLib/inc\xmc4_scu.h **** 
 103:C:/Users/Utente/Desktop/Tesi/Firmware_Software/DAVE project/S2GLP_Pulsed_Doppler/Libraries/XMCLib/inc\xmc4_scu.h **** /**************************************************************************************************
 104:C:/Users/Utente/Desktop/Tesi/Firmware_Software/DAVE project/S2GLP_Pulsed_Doppler/Libraries/XMCLib/inc\xmc4_scu.h ****  * MACROS
 105:C:/Users/Utente/Desktop/Tesi/Firmware_Software/DAVE project/S2GLP_Pulsed_Doppler/Libraries/XMCLib/inc\xmc4_scu.h ****  **************************************************************************************************
 106:C:/Users/Utente/Desktop/Tesi/Firmware_Software/DAVE project/S2GLP_Pulsed_Doppler/Libraries/XMCLib/inc\xmc4_scu.h **** #define PLL_PDIV_XTAL_8MHZ (1U)  /* PDIV value for main PLL settings, fPLL = 120MHz with fOSC = 8MH
 107:C:/Users/Utente/Desktop/Tesi/Firmware_Software/DAVE project/S2GLP_Pulsed_Doppler/Libraries/XMCLib/inc\xmc4_scu.h **** #define PLL_NDIV_XTAL_8MHZ (89U)  /* NDIV value for main PLL settings, fPLL = 120MHz with fOSC = 8M
 108:C:/Users/Utente/Desktop/Tesi/Firmware_Software/DAVE project/S2GLP_Pulsed_Doppler/Libraries/XMCLib/inc\xmc4_scu.h **** #define PLL_K2DIV_XTAL_8MHZ (2U)  /* K2DIV value for main PLL settings, fPLL = 120MHz with fOSC = 8
 109:C:/Users/Utente/Desktop/Tesi/Firmware_Software/DAVE project/S2GLP_Pulsed_Doppler/Libraries/XMCLib/inc\xmc4_scu.h **** 
 110:C:/Users/Utente/Desktop/Tesi/Firmware_Software/DAVE project/S2GLP_Pulsed_Doppler/Libraries/XMCLib/inc\xmc4_scu.h **** #define PLL_PDIV_XTAL_12MHZ (1U)  /* PDIV value for main PLL settings, fPLL = 120MHz with fOSC = 12
 111:C:/Users/Utente/Desktop/Tesi/Firmware_Software/DAVE project/S2GLP_Pulsed_Doppler/Libraries/XMCLib/inc\xmc4_scu.h **** #define PLL_NDIV_XTAL_12MHZ (79U)  /* NDIV value for main PLL settings, fPLL = 120MHz with fOSC = 1
 112:C:/Users/Utente/Desktop/Tesi/Firmware_Software/DAVE project/S2GLP_Pulsed_Doppler/Libraries/XMCLib/inc\xmc4_scu.h **** #define PLL_K2DIV_XTAL_12MHZ (3U)  /* K2DIV value for main PLL settings, fPLL = 120MHz with fOSC = 
 113:C:/Users/Utente/Desktop/Tesi/Firmware_Software/DAVE project/S2GLP_Pulsed_Doppler/Libraries/XMCLib/inc\xmc4_scu.h **** 
 114:C:/Users/Utente/Desktop/Tesi/Firmware_Software/DAVE project/S2GLP_Pulsed_Doppler/Libraries/XMCLib/inc\xmc4_scu.h **** #define PLL_PDIV_XTAL_16MHZ (1U)  /* PDIV value for main PLL settings, fPLL = 120MHz with fOSC = 16
 115:C:/Users/Utente/Desktop/Tesi/Firmware_Software/DAVE project/S2GLP_Pulsed_Doppler/Libraries/XMCLib/inc\xmc4_scu.h **** #define PLL_NDIV_XTAL_16MHZ (59U)  /* NDIV value for main PLL settings, fPLL = 120MHz with fOSC = 1
 116:C:/Users/Utente/Desktop/Tesi/Firmware_Software/DAVE project/S2GLP_Pulsed_Doppler/Libraries/XMCLib/inc\xmc4_scu.h **** #define PLL_K2DIV_XTAL_16MHZ (3U)  /* K2DIV value for main PLL settings, fPLL = 120MHz with fOSC = 
 117:C:/Users/Utente/Desktop/Tesi/Firmware_Software/DAVE project/S2GLP_Pulsed_Doppler/Libraries/XMCLib/inc\xmc4_scu.h **** 
 118:C:/Users/Utente/Desktop/Tesi/Firmware_Software/DAVE project/S2GLP_Pulsed_Doppler/Libraries/XMCLib/inc\xmc4_scu.h **** #define XMC_SCU_INTERRUPT_EVENT_WDT_WARN           SCU_INTERRUPT_SRSTAT_PRWARN_Msk /**< Watchdog pr
 119:C:/Users/Utente/Desktop/Tesi/Firmware_Software/DAVE project/S2GLP_Pulsed_Doppler/Libraries/XMCLib/inc\xmc4_scu.h **** #define XMC_SCU_INTERRUPT_EVENT_RTC_PERIODIC       SCU_INTERRUPT_SRSTAT_PI_Msk     /**< RTC periodi
 120:C:/Users/Utente/Desktop/Tesi/Firmware_Software/DAVE project/S2GLP_Pulsed_Doppler/Libraries/XMCLib/inc\xmc4_scu.h **** #define XMC_SCU_INTERRUPT_EVENT_RTC_ALARM          SCU_INTERRUPT_SRSTAT_AI_Msk     /**< RTC alarm e
 121:C:/Users/Utente/Desktop/Tesi/Firmware_Software/DAVE project/S2GLP_Pulsed_Doppler/Libraries/XMCLib/inc\xmc4_scu.h **** #define XMC_SCU_INTERRUPT_EVENT_DLR_OVERRUN        SCU_INTERRUPT_SRSTAT_DLROVR_Msk /**< DLR overrun
 122:C:/Users/Utente/Desktop/Tesi/Firmware_Software/DAVE project/S2GLP_Pulsed_Doppler/Libraries/XMCLib/inc\xmc4_scu.h **** #if defined(SCU_INTERRUPT_SRSTAT_LPACCR_Msk)
 123:C:/Users/Utente/Desktop/Tesi/Firmware_Software/DAVE project/S2GLP_Pulsed_Doppler/Libraries/XMCLib/inc\xmc4_scu.h **** #define XMC_SCU_INTERRUPT_EVENT_LPACCR_UPDATED     SCU_INTERRUPT_SRSTAT_LPACCR_Msk /**< LPAC Contro
 124:C:/Users/Utente/Desktop/Tesi/Firmware_Software/DAVE project/S2GLP_Pulsed_Doppler/Libraries/XMCLib/inc\xmc4_scu.h **** #endif
 125:C:/Users/Utente/Desktop/Tesi/Firmware_Software/DAVE project/S2GLP_Pulsed_Doppler/Libraries/XMCLib/inc\xmc4_scu.h **** #if defined(SCU_INTERRUPT_SRSTAT_LPACTH0_Msk)
 126:C:/Users/Utente/Desktop/Tesi/Firmware_Software/DAVE project/S2GLP_Pulsed_Doppler/Libraries/XMCLib/inc\xmc4_scu.h **** #define XMC_SCU_INTERRUPT_EVENT_LPACTH0_UPDATED    SCU_INTERRUPT_SRSTAT_LPACTH0_Msk /**< LPAC Thres
 127:C:/Users/Utente/Desktop/Tesi/Firmware_Software/DAVE project/S2GLP_Pulsed_Doppler/Libraries/XMCLib/inc\xmc4_scu.h **** #endif
 128:C:/Users/Utente/Desktop/Tesi/Firmware_Software/DAVE project/S2GLP_Pulsed_Doppler/Libraries/XMCLib/inc\xmc4_scu.h **** #if defined(SCU_INTERRUPT_SRSTAT_LPACTH1_Msk)
 129:C:/Users/Utente/Desktop/Tesi/Firmware_Software/DAVE project/S2GLP_Pulsed_Doppler/Libraries/XMCLib/inc\xmc4_scu.h **** #define XMC_SCU_INTERRUPT_EVENT_LPACTH1_UPDATED    SCU_INTERRUPT_SRSTAT_LPACTH1_Msk  /**< LPAC Thre
 130:C:/Users/Utente/Desktop/Tesi/Firmware_Software/DAVE project/S2GLP_Pulsed_Doppler/Libraries/XMCLib/inc\xmc4_scu.h **** #endif
 131:C:/Users/Utente/Desktop/Tesi/Firmware_Software/DAVE project/S2GLP_Pulsed_Doppler/Libraries/XMCLib/inc\xmc4_scu.h **** #if defined(SCU_INTERRUPT_SRSTAT_LPACST_Msk)
 132:C:/Users/Utente/Desktop/Tesi/Firmware_Software/DAVE project/S2GLP_Pulsed_Doppler/Libraries/XMCLib/inc\xmc4_scu.h **** #define XMC_SCU_INTERRUPT_EVENT_LPACST_UPDATED     SCU_INTERRUPT_SRSTAT_LPACST_Msk  /**< LPAC Statu
 133:C:/Users/Utente/Desktop/Tesi/Firmware_Software/DAVE project/S2GLP_Pulsed_Doppler/Libraries/XMCLib/inc\xmc4_scu.h **** #endif
 134:C:/Users/Utente/Desktop/Tesi/Firmware_Software/DAVE project/S2GLP_Pulsed_Doppler/Libraries/XMCLib/inc\xmc4_scu.h **** #if defined(SCU_INTERRUPT_SRSTAT_LPACCLR_Msk)
 135:C:/Users/Utente/Desktop/Tesi/Firmware_Software/DAVE project/S2GLP_Pulsed_Doppler/Libraries/XMCLib/inc\xmc4_scu.h **** #define XMC_SCU_INTERRUPT_EVENT_LPACCLR_UPDATED    SCU_INTERRUPT_SRSTAT_LPACCLR_Msk /**< LPAC event
 136:C:/Users/Utente/Desktop/Tesi/Firmware_Software/DAVE project/S2GLP_Pulsed_Doppler/Libraries/XMCLib/inc\xmc4_scu.h **** #endif
 137:C:/Users/Utente/Desktop/Tesi/Firmware_Software/DAVE project/S2GLP_Pulsed_Doppler/Libraries/XMCLib/inc\xmc4_scu.h **** #if defined(SCU_INTERRUPT_SRSTAT_LPACSET_Msk)
 138:C:/Users/Utente/Desktop/Tesi/Firmware_Software/DAVE project/S2GLP_Pulsed_Doppler/Libraries/XMCLib/inc\xmc4_scu.h **** #define XMC_SCU_INTERRUPT_EVENT_LPACSET_UPDATED    SCU_INTERRUPT_SRSTAT_LPACSET_Msk /**< LPAC event
 139:C:/Users/Utente/Desktop/Tesi/Firmware_Software/DAVE project/S2GLP_Pulsed_Doppler/Libraries/XMCLib/inc\xmc4_scu.h **** #endif
 140:C:/Users/Utente/Desktop/Tesi/Firmware_Software/DAVE project/S2GLP_Pulsed_Doppler/Libraries/XMCLib/inc\xmc4_scu.h **** #if defined(SCU_INTERRUPT_SRSTAT_HINTST_Msk)
 141:C:/Users/Utente/Desktop/Tesi/Firmware_Software/DAVE project/S2GLP_Pulsed_Doppler/Libraries/XMCLib/inc\xmc4_scu.h **** #define XMC_SCU_INTERRUPT_EVENT_HINTST_UPDATED     SCU_INTERRUPT_SRSTAT_HINTST_Msk /**< HIB HINTST 
 142:C:/Users/Utente/Desktop/Tesi/Firmware_Software/DAVE project/S2GLP_Pulsed_Doppler/Libraries/XMCLib/inc\xmc4_scu.h **** #endif
 143:C:/Users/Utente/Desktop/Tesi/Firmware_Software/DAVE project/S2GLP_Pulsed_Doppler/Libraries/XMCLib/inc\xmc4_scu.h **** #if defined(SCU_INTERRUPT_SRSTAT_HINTCLR_Msk)
 144:C:/Users/Utente/Desktop/Tesi/Firmware_Software/DAVE project/S2GLP_Pulsed_Doppler/Libraries/XMCLib/inc\xmc4_scu.h **** #define XMC_SCU_INTERRUPT_EVENT_HINTCLR_UPDATED    SCU_INTERRUPT_SRSTAT_HINTCLR_Msk /**< HIB HINTCL
 145:C:/Users/Utente/Desktop/Tesi/Firmware_Software/DAVE project/S2GLP_Pulsed_Doppler/Libraries/XMCLib/inc\xmc4_scu.h **** #endif
 146:C:/Users/Utente/Desktop/Tesi/Firmware_Software/DAVE project/S2GLP_Pulsed_Doppler/Libraries/XMCLib/inc\xmc4_scu.h **** #if defined(SCU_INTERRUPT_SRSTAT_HINTSET_Msk)
 147:C:/Users/Utente/Desktop/Tesi/Firmware_Software/DAVE project/S2GLP_Pulsed_Doppler/Libraries/XMCLib/inc\xmc4_scu.h **** #define XMC_SCU_INTERRUPT_EVENT_HINTSET_UPDATED    SCU_INTERRUPT_SRSTAT_HINTSET_Msk /**< HIB HINTSE
 148:C:/Users/Utente/Desktop/Tesi/Firmware_Software/DAVE project/S2GLP_Pulsed_Doppler/Libraries/XMCLib/inc\xmc4_scu.h **** #endif
 149:C:/Users/Utente/Desktop/Tesi/Firmware_Software/DAVE project/S2GLP_Pulsed_Doppler/Libraries/XMCLib/inc\xmc4_scu.h **** #define XMC_SCU_INTERRUPT_EVENT_HDCLR_UPDATED      SCU_INTERRUPT_SRSTAT_HDCLR_Msk /**< HIB HDCLR re
 150:C:/Users/Utente/Desktop/Tesi/Firmware_Software/DAVE project/S2GLP_Pulsed_Doppler/Libraries/XMCLib/inc\xmc4_scu.h **** #define XMC_SCU_INTERRUPT_EVENT_HDSET_UPDATED      SCU_INTERRUPT_SRSTAT_HDSET_Msk /**< HIB HDSET re
 151:C:/Users/Utente/Desktop/Tesi/Firmware_Software/DAVE project/S2GLP_Pulsed_Doppler/Libraries/XMCLib/inc\xmc4_scu.h **** #define XMC_SCU_INTERRUPT_EVENT_HDCR_UPDATED       SCU_INTERRUPT_SRSTAT_HDCR_Msk /**< HIB HDCR regi
 152:C:/Users/Utente/Desktop/Tesi/Firmware_Software/DAVE project/S2GLP_Pulsed_Doppler/Libraries/XMCLib/inc\xmc4_scu.h **** #define XMC_SCU_INTERRUPT_EVENT_OSCSICTRL_UPDATED  SCU_INTERRUPT_SRSTAT_OSCSICTRL_Msk /**< HIB OSCS
 153:C:/Users/Utente/Desktop/Tesi/Firmware_Software/DAVE project/S2GLP_Pulsed_Doppler/Libraries/XMCLib/inc\xmc4_scu.h **** #define XMC_SCU_INTERRUPT_EVENT_OSCULCTRL_UPDATED  SCU_INTERRUPT_SRSTAT_OSCULCTRL_Msk /**< HIB OSCU
 154:C:/Users/Utente/Desktop/Tesi/Firmware_Software/DAVE project/S2GLP_Pulsed_Doppler/Libraries/XMCLib/inc\xmc4_scu.h **** #define XMC_SCU_INTERRUPT_EVENT_RTCCTR_UPDATED     SCU_INTERRUPT_SRSTAT_RTC_CTR_Msk /**< HIB RTCCTR
 155:C:/Users/Utente/Desktop/Tesi/Firmware_Software/DAVE project/S2GLP_Pulsed_Doppler/Libraries/XMCLib/inc\xmc4_scu.h **** #define XMC_SCU_INTERRUPT_EVENT_RTCATIM0_UPDATED   SCU_INTERRUPT_SRSTAT_RTC_ATIM0_Msk /**< HIB RTCA
 156:C:/Users/Utente/Desktop/Tesi/Firmware_Software/DAVE project/S2GLP_Pulsed_Doppler/Libraries/XMCLib/inc\xmc4_scu.h **** #define XMC_SCU_INTERRUPT_EVENT_RTCATIM1_UPDATED   SCU_INTERRUPT_SRSTAT_RTC_ATIM1_Msk /**< HIB RTCA
 157:C:/Users/Utente/Desktop/Tesi/Firmware_Software/DAVE project/S2GLP_Pulsed_Doppler/Libraries/XMCLib/inc\xmc4_scu.h **** #define XMC_SCU_INTERRUPT_EVENT_RTCTIM0_UPDATED    SCU_INTERRUPT_SRSTAT_RTC_TIM0_Msk /**< HIB TIM0 
 158:C:/Users/Utente/Desktop/Tesi/Firmware_Software/DAVE project/S2GLP_Pulsed_Doppler/Libraries/XMCLib/inc\xmc4_scu.h **** #define XMC_SCU_INTERRUPT_EVENT_RTCTIM1_UPDATED    SCU_INTERRUPT_SRSTAT_RTC_TIM1_Msk /**< HIB TIM1 
 159:C:/Users/Utente/Desktop/Tesi/Firmware_Software/DAVE project/S2GLP_Pulsed_Doppler/Libraries/XMCLib/inc\xmc4_scu.h **** #define XMC_SCU_INTERRUPT_EVENT_RMX_UPDATED        SCU_INTERRUPT_SRSTAT_RMX_Msk /**< HIB RMX regist
 160:C:/Users/Utente/Desktop/Tesi/Firmware_Software/DAVE project/S2GLP_Pulsed_Doppler/Libraries/XMCLib/inc\xmc4_scu.h **** 
 161:C:/Users/Utente/Desktop/Tesi/Firmware_Software/DAVE project/S2GLP_Pulsed_Doppler/Libraries/XMCLib/inc\xmc4_scu.h **** /**************************************************************************************************
 162:C:/Users/Utente/Desktop/Tesi/Firmware_Software/DAVE project/S2GLP_Pulsed_Doppler/Libraries/XMCLib/inc\xmc4_scu.h ****  * ENUMS
 163:C:/Users/Utente/Desktop/Tesi/Firmware_Software/DAVE project/S2GLP_Pulsed_Doppler/Libraries/XMCLib/inc\xmc4_scu.h ****  **************************************************************************************************
 164:C:/Users/Utente/Desktop/Tesi/Firmware_Software/DAVE project/S2GLP_Pulsed_Doppler/Libraries/XMCLib/inc\xmc4_scu.h **** /**
 165:C:/Users/Utente/Desktop/Tesi/Firmware_Software/DAVE project/S2GLP_Pulsed_Doppler/Libraries/XMCLib/inc\xmc4_scu.h ****  *  Defines Capture/Compare unit timer slice trigger, that enables synchronous start function avail
 166:C:/Users/Utente/Desktop/Tesi/Firmware_Software/DAVE project/S2GLP_Pulsed_Doppler/Libraries/XMCLib/inc\xmc4_scu.h ****  *  CCUCON register. Use type \a XMC_SCU_CCU_TRIGGER_t for accessing these enum parameters.
 167:C:/Users/Utente/Desktop/Tesi/Firmware_Software/DAVE project/S2GLP_Pulsed_Doppler/Libraries/XMCLib/inc\xmc4_scu.h ****  */
 168:C:/Users/Utente/Desktop/Tesi/Firmware_Software/DAVE project/S2GLP_Pulsed_Doppler/Libraries/XMCLib/inc\xmc4_scu.h **** typedef enum XMC_SCU_CCU_TRIGGER
 169:C:/Users/Utente/Desktop/Tesi/Firmware_Software/DAVE project/S2GLP_Pulsed_Doppler/Libraries/XMCLib/inc\xmc4_scu.h **** {
 170:C:/Users/Utente/Desktop/Tesi/Firmware_Software/DAVE project/S2GLP_Pulsed_Doppler/Libraries/XMCLib/inc\xmc4_scu.h **** #if defined(CCU40)
 171:C:/Users/Utente/Desktop/Tesi/Firmware_Software/DAVE project/S2GLP_Pulsed_Doppler/Libraries/XMCLib/inc\xmc4_scu.h ****   XMC_SCU_CCU_TRIGGER_CCU40 = SCU_GENERAL_CCUCON_GSC40_Msk, /**< Trigger mask used for Global Start
 172:C:/Users/Utente/Desktop/Tesi/Firmware_Software/DAVE project/S2GLP_Pulsed_Doppler/Libraries/XMCLib/inc\xmc4_scu.h ****                                                                  CCU40 peripheral. */
 173:C:/Users/Utente/Desktop/Tesi/Firmware_Software/DAVE project/S2GLP_Pulsed_Doppler/Libraries/XMCLib/inc\xmc4_scu.h **** #endif
 174:C:/Users/Utente/Desktop/Tesi/Firmware_Software/DAVE project/S2GLP_Pulsed_Doppler/Libraries/XMCLib/inc\xmc4_scu.h **** #if defined(CCU41)
 175:C:/Users/Utente/Desktop/Tesi/Firmware_Software/DAVE project/S2GLP_Pulsed_Doppler/Libraries/XMCLib/inc\xmc4_scu.h ****   XMC_SCU_CCU_TRIGGER_CCU41 = SCU_GENERAL_CCUCON_GSC41_Msk, /**< Trigger mask used for Global Start
 176:C:/Users/Utente/Desktop/Tesi/Firmware_Software/DAVE project/S2GLP_Pulsed_Doppler/Libraries/XMCLib/inc\xmc4_scu.h ****                                                                  CCU41 peripheral. */
 177:C:/Users/Utente/Desktop/Tesi/Firmware_Software/DAVE project/S2GLP_Pulsed_Doppler/Libraries/XMCLib/inc\xmc4_scu.h **** #endif
 178:C:/Users/Utente/Desktop/Tesi/Firmware_Software/DAVE project/S2GLP_Pulsed_Doppler/Libraries/XMCLib/inc\xmc4_scu.h **** #if defined(CCU42)
 179:C:/Users/Utente/Desktop/Tesi/Firmware_Software/DAVE project/S2GLP_Pulsed_Doppler/Libraries/XMCLib/inc\xmc4_scu.h ****   XMC_SCU_CCU_TRIGGER_CCU42 = SCU_GENERAL_CCUCON_GSC42_Msk, /**< Trigger mask used for Global Start
 180:C:/Users/Utente/Desktop/Tesi/Firmware_Software/DAVE project/S2GLP_Pulsed_Doppler/Libraries/XMCLib/inc\xmc4_scu.h ****                                                                  CCU42 peripheral. */
 181:C:/Users/Utente/Desktop/Tesi/Firmware_Software/DAVE project/S2GLP_Pulsed_Doppler/Libraries/XMCLib/inc\xmc4_scu.h **** #endif
 182:C:/Users/Utente/Desktop/Tesi/Firmware_Software/DAVE project/S2GLP_Pulsed_Doppler/Libraries/XMCLib/inc\xmc4_scu.h **** #if defined(CCU43)
 183:C:/Users/Utente/Desktop/Tesi/Firmware_Software/DAVE project/S2GLP_Pulsed_Doppler/Libraries/XMCLib/inc\xmc4_scu.h ****   XMC_SCU_CCU_TRIGGER_CCU43 = SCU_GENERAL_CCUCON_GSC43_Msk, /**< Trigger mask used for Global Start
 184:C:/Users/Utente/Desktop/Tesi/Firmware_Software/DAVE project/S2GLP_Pulsed_Doppler/Libraries/XMCLib/inc\xmc4_scu.h ****                                                                  CCU43 peripheral. */
 185:C:/Users/Utente/Desktop/Tesi/Firmware_Software/DAVE project/S2GLP_Pulsed_Doppler/Libraries/XMCLib/inc\xmc4_scu.h **** #endif
 186:C:/Users/Utente/Desktop/Tesi/Firmware_Software/DAVE project/S2GLP_Pulsed_Doppler/Libraries/XMCLib/inc\xmc4_scu.h **** #if defined(CCU80)
 187:C:/Users/Utente/Desktop/Tesi/Firmware_Software/DAVE project/S2GLP_Pulsed_Doppler/Libraries/XMCLib/inc\xmc4_scu.h ****   XMC_SCU_CCU_TRIGGER_CCU80 = SCU_GENERAL_CCUCON_GSC80_Msk, /**< Trigger mask used for Global Start
 188:C:/Users/Utente/Desktop/Tesi/Firmware_Software/DAVE project/S2GLP_Pulsed_Doppler/Libraries/XMCLib/inc\xmc4_scu.h ****                                                                  CCU80 peripheral. */
 189:C:/Users/Utente/Desktop/Tesi/Firmware_Software/DAVE project/S2GLP_Pulsed_Doppler/Libraries/XMCLib/inc\xmc4_scu.h **** #endif
 190:C:/Users/Utente/Desktop/Tesi/Firmware_Software/DAVE project/S2GLP_Pulsed_Doppler/Libraries/XMCLib/inc\xmc4_scu.h **** #if defined(CCU81)
 191:C:/Users/Utente/Desktop/Tesi/Firmware_Software/DAVE project/S2GLP_Pulsed_Doppler/Libraries/XMCLib/inc\xmc4_scu.h ****   XMC_SCU_CCU_TRIGGER_CCU81 = SCU_GENERAL_CCUCON_GSC81_Msk /**< Trigger mask used for Global Start 
 192:C:/Users/Utente/Desktop/Tesi/Firmware_Software/DAVE project/S2GLP_Pulsed_Doppler/Libraries/XMCLib/inc\xmc4_scu.h ****                                                                  CCU81 peripheral. */
 193:C:/Users/Utente/Desktop/Tesi/Firmware_Software/DAVE project/S2GLP_Pulsed_Doppler/Libraries/XMCLib/inc\xmc4_scu.h **** #endif
 194:C:/Users/Utente/Desktop/Tesi/Firmware_Software/DAVE project/S2GLP_Pulsed_Doppler/Libraries/XMCLib/inc\xmc4_scu.h **** } XMC_SCU_CCU_TRIGGER_t;
 195:C:/Users/Utente/Desktop/Tesi/Firmware_Software/DAVE project/S2GLP_Pulsed_Doppler/Libraries/XMCLib/inc\xmc4_scu.h **** 
 196:C:/Users/Utente/Desktop/Tesi/Firmware_Software/DAVE project/S2GLP_Pulsed_Doppler/Libraries/XMCLib/inc\xmc4_scu.h **** /**
 197:C:/Users/Utente/Desktop/Tesi/Firmware_Software/DAVE project/S2GLP_Pulsed_Doppler/Libraries/XMCLib/inc\xmc4_scu.h ****  *  Defines enumerations representing the status of trap cause. The cause of the trap gets automati
 198:C:/Users/Utente/Desktop/Tesi/Firmware_Software/DAVE project/S2GLP_Pulsed_Doppler/Libraries/XMCLib/inc\xmc4_scu.h ****  *  the \a TRAPSTAT register and can be checked by user software to determine the state of the syst
 199:C:/Users/Utente/Desktop/Tesi/Firmware_Software/DAVE project/S2GLP_Pulsed_Doppler/Libraries/XMCLib/inc\xmc4_scu.h ****  *  purpose. 
 200:C:/Users/Utente/Desktop/Tesi/Firmware_Software/DAVE project/S2GLP_Pulsed_Doppler/Libraries/XMCLib/inc\xmc4_scu.h ****  *  Use type \a XMC_SCU_TRAP_t for accessing these enum parameters.
 201:C:/Users/Utente/Desktop/Tesi/Firmware_Software/DAVE project/S2GLP_Pulsed_Doppler/Libraries/XMCLib/inc\xmc4_scu.h ****  */
 202:C:/Users/Utente/Desktop/Tesi/Firmware_Software/DAVE project/S2GLP_Pulsed_Doppler/Libraries/XMCLib/inc\xmc4_scu.h **** typedef enum XMC_SCU_TRAP 
 203:C:/Users/Utente/Desktop/Tesi/Firmware_Software/DAVE project/S2GLP_Pulsed_Doppler/Libraries/XMCLib/inc\xmc4_scu.h **** {
 204:C:/Users/Utente/Desktop/Tesi/Firmware_Software/DAVE project/S2GLP_Pulsed_Doppler/Libraries/XMCLib/inc\xmc4_scu.h ****   XMC_SCU_TRAP_OSC_WDG      = SCU_TRAP_TRAPSTAT_SOSCWDGT_Msk, /**< OSC_HP Oscillator Watchdog trap.
 205:C:/Users/Utente/Desktop/Tesi/Firmware_Software/DAVE project/S2GLP_Pulsed_Doppler/Libraries/XMCLib/inc\xmc4_scu.h ****   XMC_SCU_TRAP_VCO_LOCK     = SCU_TRAP_TRAPSTAT_SVCOLCKT_Msk, /**< PLL loss of lock trap. */
 206:C:/Users/Utente/Desktop/Tesi/Firmware_Software/DAVE project/S2GLP_Pulsed_Doppler/Libraries/XMCLib/inc\xmc4_scu.h ****   XMC_SCU_TRAP_USB_VCO_LOCK = SCU_TRAP_TRAPSTAT_UVCOLCKT_Msk, /**< USB PLL loss of lock trap. */ 
 207:C:/Users/Utente/Desktop/Tesi/Firmware_Software/DAVE project/S2GLP_Pulsed_Doppler/Libraries/XMCLib/inc\xmc4_scu.h ****   XMC_SCU_TRAP_PARITY_ERROR = SCU_TRAP_TRAPSTAT_PET_Msk,      /**< Memory Parity error trap. */  
 208:C:/Users/Utente/Desktop/Tesi/Firmware_Software/DAVE project/S2GLP_Pulsed_Doppler/Libraries/XMCLib/inc\xmc4_scu.h ****   XMC_SCU_TRAP_BROWNOUT     = SCU_TRAP_TRAPSTAT_BRWNT_Msk,    /**< Brownout trap. */ 
 209:C:/Users/Utente/Desktop/Tesi/Firmware_Software/DAVE project/S2GLP_Pulsed_Doppler/Libraries/XMCLib/inc\xmc4_scu.h ****   XMC_SCU_TRAP_ULP_WDG      = SCU_TRAP_TRAPSTAT_ULPWDGT_Msk,  /**< Unstable 32KHz clock trap. */ 
 210:C:/Users/Utente/Desktop/Tesi/Firmware_Software/DAVE project/S2GLP_Pulsed_Doppler/Libraries/XMCLib/inc\xmc4_scu.h ****   XMC_SCU_TRAP_PER_BRIDGE0  = SCU_TRAP_TRAPSTAT_BWERR0T_Msk,  /**< Bad memory access of peripherals
 211:C:/Users/Utente/Desktop/Tesi/Firmware_Software/DAVE project/S2GLP_Pulsed_Doppler/Libraries/XMCLib/inc\xmc4_scu.h ****   XMC_SCU_TRAP_PER_BRIDGE1  = SCU_TRAP_TRAPSTAT_BWERR1T_Msk,  /**< Bad memory access of peripherals
 212:C:/Users/Utente/Desktop/Tesi/Firmware_Software/DAVE project/S2GLP_Pulsed_Doppler/Libraries/XMCLib/inc\xmc4_scu.h **** #if defined(SCU_TRAP_TRAPSTAT_TEMPHIT_Msk)
 213:C:/Users/Utente/Desktop/Tesi/Firmware_Software/DAVE project/S2GLP_Pulsed_Doppler/Libraries/XMCLib/inc\xmc4_scu.h ****   XMC_SCU_TRAP_DIETEMP_HIGH = SCU_TRAP_TRAPSTAT_TEMPHIT_Msk,  /**< Die temperature higher than expe
 214:C:/Users/Utente/Desktop/Tesi/Firmware_Software/DAVE project/S2GLP_Pulsed_Doppler/Libraries/XMCLib/inc\xmc4_scu.h **** #endif
 215:C:/Users/Utente/Desktop/Tesi/Firmware_Software/DAVE project/S2GLP_Pulsed_Doppler/Libraries/XMCLib/inc\xmc4_scu.h **** #if defined(SCU_TRAP_TRAPSTAT_TEMPLOT_Msk)
 216:C:/Users/Utente/Desktop/Tesi/Firmware_Software/DAVE project/S2GLP_Pulsed_Doppler/Libraries/XMCLib/inc\xmc4_scu.h ****   XMC_SCU_TRAP_DIETEMP_LOW  = SCU_TRAP_TRAPSTAT_TEMPLOT_Msk,  /**< Die temperature lower than expec
 217:C:/Users/Utente/Desktop/Tesi/Firmware_Software/DAVE project/S2GLP_Pulsed_Doppler/Libraries/XMCLib/inc\xmc4_scu.h **** #endif
 218:C:/Users/Utente/Desktop/Tesi/Firmware_Software/DAVE project/S2GLP_Pulsed_Doppler/Libraries/XMCLib/inc\xmc4_scu.h **** #if defined(ECAT0)
 219:C:/Users/Utente/Desktop/Tesi/Firmware_Software/DAVE project/S2GLP_Pulsed_Doppler/Libraries/XMCLib/inc\xmc4_scu.h ****   XMC_SCU_TRAP_ECAT_RESET = SCU_TRAP_TRAPSTAT_ECAT0RST_Msk, /**< EtherCat Reset */ 
 220:C:/Users/Utente/Desktop/Tesi/Firmware_Software/DAVE project/S2GLP_Pulsed_Doppler/Libraries/XMCLib/inc\xmc4_scu.h **** #endif
 221:C:/Users/Utente/Desktop/Tesi/Firmware_Software/DAVE project/S2GLP_Pulsed_Doppler/Libraries/XMCLib/inc\xmc4_scu.h **** } XMC_SCU_TRAP_t;
 222:C:/Users/Utente/Desktop/Tesi/Firmware_Software/DAVE project/S2GLP_Pulsed_Doppler/Libraries/XMCLib/inc\xmc4_scu.h **** 
 223:C:/Users/Utente/Desktop/Tesi/Firmware_Software/DAVE project/S2GLP_Pulsed_Doppler/Libraries/XMCLib/inc\xmc4_scu.h **** /**
 224:C:/Users/Utente/Desktop/Tesi/Firmware_Software/DAVE project/S2GLP_Pulsed_Doppler/Libraries/XMCLib/inc\xmc4_scu.h ****  *  Defines enumerations for different parity event generating modules that in turn generate a trap
 225:C:/Users/Utente/Desktop/Tesi/Firmware_Software/DAVE project/S2GLP_Pulsed_Doppler/Libraries/XMCLib/inc\xmc4_scu.h ****  *  Parity can be enabled with \a PETE register in order to get the trap flag reflected in \a TRAPR
 226:C:/Users/Utente/Desktop/Tesi/Firmware_Software/DAVE project/S2GLP_Pulsed_Doppler/Libraries/XMCLib/inc\xmc4_scu.h ****  *  configure parity error trap generation mechanism bits of \a PETE register.
 227:C:/Users/Utente/Desktop/Tesi/Firmware_Software/DAVE project/S2GLP_Pulsed_Doppler/Libraries/XMCLib/inc\xmc4_scu.h ****  *  All the enum items are tabulated as per bits present in \a PETE register.
 228:C:/Users/Utente/Desktop/Tesi/Firmware_Software/DAVE project/S2GLP_Pulsed_Doppler/Libraries/XMCLib/inc\xmc4_scu.h ****  *  Use type \a XMC_SCU_PARITY_t for accessing these enum parameters.
 229:C:/Users/Utente/Desktop/Tesi/Firmware_Software/DAVE project/S2GLP_Pulsed_Doppler/Libraries/XMCLib/inc\xmc4_scu.h ****  */
 230:C:/Users/Utente/Desktop/Tesi/Firmware_Software/DAVE project/S2GLP_Pulsed_Doppler/Libraries/XMCLib/inc\xmc4_scu.h **** typedef enum XMC_SCU_PARITY
 231:C:/Users/Utente/Desktop/Tesi/Firmware_Software/DAVE project/S2GLP_Pulsed_Doppler/Libraries/XMCLib/inc\xmc4_scu.h **** {
 232:C:/Users/Utente/Desktop/Tesi/Firmware_Software/DAVE project/S2GLP_Pulsed_Doppler/Libraries/XMCLib/inc\xmc4_scu.h ****   XMC_SCU_PARITY_PSRAM_MEM  = SCU_PARITY_PEEN_PEENPS_Msk,   /**< Program SRAM parity error trap. */
 233:C:/Users/Utente/Desktop/Tesi/Firmware_Software/DAVE project/S2GLP_Pulsed_Doppler/Libraries/XMCLib/inc\xmc4_scu.h ****   XMC_SCU_PARITY_DSRAM1_MEM = SCU_PARITY_PEEN_PEENDS1_Msk,  /**< Data SRAM-1 parity error trap. */ 
 234:C:/Users/Utente/Desktop/Tesi/Firmware_Software/DAVE project/S2GLP_Pulsed_Doppler/Libraries/XMCLib/inc\xmc4_scu.h **** #if defined(XMC_SCU_PARITY_DSRAM2_MEM)
 235:C:/Users/Utente/Desktop/Tesi/Firmware_Software/DAVE project/S2GLP_Pulsed_Doppler/Libraries/XMCLib/inc\xmc4_scu.h ****   XMC_SCU_PARITY_DSRAM2_MEM = SCU_PARITY_PEEN_PEENDS2_Msk,  /**< Data SRAM-2 parity error trap. */ 
 236:C:/Users/Utente/Desktop/Tesi/Firmware_Software/DAVE project/S2GLP_Pulsed_Doppler/Libraries/XMCLib/inc\xmc4_scu.h **** #endif
 237:C:/Users/Utente/Desktop/Tesi/Firmware_Software/DAVE project/S2GLP_Pulsed_Doppler/Libraries/XMCLib/inc\xmc4_scu.h ****   XMC_SCU_PARITY_USIC0_MEM  = SCU_PARITY_PEEN_PEENU0_Msk,   /**< USIC0 memory parity error trap. */
 238:C:/Users/Utente/Desktop/Tesi/Firmware_Software/DAVE project/S2GLP_Pulsed_Doppler/Libraries/XMCLib/inc\xmc4_scu.h **** #if defined(XMC_SCU_PARITY_USIC1_MEM)
 239:C:/Users/Utente/Desktop/Tesi/Firmware_Software/DAVE project/S2GLP_Pulsed_Doppler/Libraries/XMCLib/inc\xmc4_scu.h ****   XMC_SCU_PARITY_USIC1_MEM  = SCU_PARITY_PEEN_PEENU1_Msk,   /**< USIC1 memory parity error trap. */
 240:C:/Users/Utente/Desktop/Tesi/Firmware_Software/DAVE project/S2GLP_Pulsed_Doppler/Libraries/XMCLib/inc\xmc4_scu.h **** #endif
 241:C:/Users/Utente/Desktop/Tesi/Firmware_Software/DAVE project/S2GLP_Pulsed_Doppler/Libraries/XMCLib/inc\xmc4_scu.h **** #if defined(XMC_SCU_PARITY_USIC2_MEM)
 242:C:/Users/Utente/Desktop/Tesi/Firmware_Software/DAVE project/S2GLP_Pulsed_Doppler/Libraries/XMCLib/inc\xmc4_scu.h ****   XMC_SCU_PARITY_USIC2_MEM  = SCU_PARITY_PEEN_PEENU2_Msk,   /**< USIC2 memory parity error trap. */
 243:C:/Users/Utente/Desktop/Tesi/Firmware_Software/DAVE project/S2GLP_Pulsed_Doppler/Libraries/XMCLib/inc\xmc4_scu.h **** #endif
 244:C:/Users/Utente/Desktop/Tesi/Firmware_Software/DAVE project/S2GLP_Pulsed_Doppler/Libraries/XMCLib/inc\xmc4_scu.h ****   XMC_SCU_PARITY_MCAN_MEM   = SCU_PARITY_PEEN_PEENMC_Msk,   /**< CAN memory parity error trap. */
 245:C:/Users/Utente/Desktop/Tesi/Firmware_Software/DAVE project/S2GLP_Pulsed_Doppler/Libraries/XMCLib/inc\xmc4_scu.h ****   XMC_SCU_PARITY_PMU_MEM    = SCU_PARITY_PEEN_PEENPPRF_Msk, /**< PMU Prefetch memory parity error t
 246:C:/Users/Utente/Desktop/Tesi/Firmware_Software/DAVE project/S2GLP_Pulsed_Doppler/Libraries/XMCLib/inc\xmc4_scu.h ****   XMC_SCU_PARITY_USB_MEM    = SCU_PARITY_PEEN_PEENUSB_Msk,  /**< USB memory parity error trap. */ 
 247:C:/Users/Utente/Desktop/Tesi/Firmware_Software/DAVE project/S2GLP_Pulsed_Doppler/Libraries/XMCLib/inc\xmc4_scu.h **** #if defined(SCU_PARITY_PEEN_PEENETH0TX_Msk)
 248:C:/Users/Utente/Desktop/Tesi/Firmware_Software/DAVE project/S2GLP_Pulsed_Doppler/Libraries/XMCLib/inc\xmc4_scu.h ****   XMC_SCU_PARITY_ETH_TXMEM  = SCU_PARITY_PEEN_PEENETH0TX_Msk, /**< Ethernet transmit memory parity 
 249:C:/Users/Utente/Desktop/Tesi/Firmware_Software/DAVE project/S2GLP_Pulsed_Doppler/Libraries/XMCLib/inc\xmc4_scu.h **** #endif
 250:C:/Users/Utente/Desktop/Tesi/Firmware_Software/DAVE project/S2GLP_Pulsed_Doppler/Libraries/XMCLib/inc\xmc4_scu.h **** #if defined(SCU_PARITY_PEEN_PEENETH0RX_Msk)
 251:C:/Users/Utente/Desktop/Tesi/Firmware_Software/DAVE project/S2GLP_Pulsed_Doppler/Libraries/XMCLib/inc\xmc4_scu.h ****   XMC_SCU_PARITY_ETH_RXMEM  = SCU_PARITY_PEEN_PEENETH0RX_Msk, /**< Ethernet receive memory parity e
 252:C:/Users/Utente/Desktop/Tesi/Firmware_Software/DAVE project/S2GLP_Pulsed_Doppler/Libraries/XMCLib/inc\xmc4_scu.h **** #endif
 253:C:/Users/Utente/Desktop/Tesi/Firmware_Software/DAVE project/S2GLP_Pulsed_Doppler/Libraries/XMCLib/inc\xmc4_scu.h **** #if defined(SCU_PARITY_PEEN_PEENSD0_Msk)
 254:C:/Users/Utente/Desktop/Tesi/Firmware_Software/DAVE project/S2GLP_Pulsed_Doppler/Libraries/XMCLib/inc\xmc4_scu.h ****   XMC_SCU_PARITY_SDMMC_MEM0 = SCU_PARITY_PEEN_PEENSD0_Msk, /**< SDMMC Memory-0 parity error trap. *
 255:C:/Users/Utente/Desktop/Tesi/Firmware_Software/DAVE project/S2GLP_Pulsed_Doppler/Libraries/XMCLib/inc\xmc4_scu.h **** #endif
 256:C:/Users/Utente/Desktop/Tesi/Firmware_Software/DAVE project/S2GLP_Pulsed_Doppler/Libraries/XMCLib/inc\xmc4_scu.h **** #if defined(SCU_PARITY_PEEN_PEENSD1_Msk)
 257:C:/Users/Utente/Desktop/Tesi/Firmware_Software/DAVE project/S2GLP_Pulsed_Doppler/Libraries/XMCLib/inc\xmc4_scu.h ****   XMC_SCU_PARITY_SDMMC_MEM1 = SCU_PARITY_PEEN_PEENSD1_Msk, /**< SDMMC Memory-1 parity error trap. *
 258:C:/Users/Utente/Desktop/Tesi/Firmware_Software/DAVE project/S2GLP_Pulsed_Doppler/Libraries/XMCLib/inc\xmc4_scu.h **** #endif
 259:C:/Users/Utente/Desktop/Tesi/Firmware_Software/DAVE project/S2GLP_Pulsed_Doppler/Libraries/XMCLib/inc\xmc4_scu.h **** } XMC_SCU_PARITY_t;
 260:C:/Users/Utente/Desktop/Tesi/Firmware_Software/DAVE project/S2GLP_Pulsed_Doppler/Libraries/XMCLib/inc\xmc4_scu.h **** 
 261:C:/Users/Utente/Desktop/Tesi/Firmware_Software/DAVE project/S2GLP_Pulsed_Doppler/Libraries/XMCLib/inc\xmc4_scu.h **** /**
 262:C:/Users/Utente/Desktop/Tesi/Firmware_Software/DAVE project/S2GLP_Pulsed_Doppler/Libraries/XMCLib/inc\xmc4_scu.h ****  *  Defines the different causes for last reset. The cause of the last reset gets automatically sto
 263:C:/Users/Utente/Desktop/Tesi/Firmware_Software/DAVE project/S2GLP_Pulsed_Doppler/Libraries/XMCLib/inc\xmc4_scu.h ****  *  the \a SCU_RSTSTAT register and can be checked by user software to determine the state of the s
 264:C:/Users/Utente/Desktop/Tesi/Firmware_Software/DAVE project/S2GLP_Pulsed_Doppler/Libraries/XMCLib/inc\xmc4_scu.h ****  *  purpose. All the enum items are tabulated as per bits present in \a SCU_RSTSTAT register.
 265:C:/Users/Utente/Desktop/Tesi/Firmware_Software/DAVE project/S2GLP_Pulsed_Doppler/Libraries/XMCLib/inc\xmc4_scu.h ****  *  Use type \a XMC_SCU_RESET_REASON_t for accessing these enum parameters.
 266:C:/Users/Utente/Desktop/Tesi/Firmware_Software/DAVE project/S2GLP_Pulsed_Doppler/Libraries/XMCLib/inc\xmc4_scu.h ****  */
 267:C:/Users/Utente/Desktop/Tesi/Firmware_Software/DAVE project/S2GLP_Pulsed_Doppler/Libraries/XMCLib/inc\xmc4_scu.h **** typedef enum XMC_SCU_RESET_REASON
 268:C:/Users/Utente/Desktop/Tesi/Firmware_Software/DAVE project/S2GLP_Pulsed_Doppler/Libraries/XMCLib/inc\xmc4_scu.h **** {
 269:C:/Users/Utente/Desktop/Tesi/Firmware_Software/DAVE project/S2GLP_Pulsed_Doppler/Libraries/XMCLib/inc\xmc4_scu.h ****   XMC_SCU_RESET_REASON_PORST        = (1UL << SCU_RESET_RSTSTAT_RSTSTAT_Pos), /**< Reset due to Pow
 270:C:/Users/Utente/Desktop/Tesi/Firmware_Software/DAVE project/S2GLP_Pulsed_Doppler/Libraries/XMCLib/inc\xmc4_scu.h ****   XMC_SCU_RESET_REASON_SWD          = (2UL << SCU_RESET_RSTSTAT_RSTSTAT_Pos), /**< Reset due to Sup
 271:C:/Users/Utente/Desktop/Tesi/Firmware_Software/DAVE project/S2GLP_Pulsed_Doppler/Libraries/XMCLib/inc\xmc4_scu.h ****   XMC_SCU_RESET_REASON_PV           = (4UL << SCU_RESET_RSTSTAT_RSTSTAT_Pos), /**< Reset due to Pow
 272:C:/Users/Utente/Desktop/Tesi/Firmware_Software/DAVE project/S2GLP_Pulsed_Doppler/Libraries/XMCLib/inc\xmc4_scu.h ****   XMC_SCU_RESET_REASON_SW           = (8UL << SCU_RESET_RSTSTAT_RSTSTAT_Pos), /**< Reset due to Sof
 273:C:/Users/Utente/Desktop/Tesi/Firmware_Software/DAVE project/S2GLP_Pulsed_Doppler/Libraries/XMCLib/inc\xmc4_scu.h ****   XMC_SCU_RESET_REASON_LOCKUP       = (16UL << SCU_RESET_RSTSTAT_RSTSTAT_Pos), /**< Reset due to re
 274:C:/Users/Utente/Desktop/Tesi/Firmware_Software/DAVE project/S2GLP_Pulsed_Doppler/Libraries/XMCLib/inc\xmc4_scu.h ****   XMC_SCU_RESET_REASON_WATCHDOG     = (32UL << SCU_RESET_RSTSTAT_RSTSTAT_Pos), /**< Reset due to Wa
 275:C:/Users/Utente/Desktop/Tesi/Firmware_Software/DAVE project/S2GLP_Pulsed_Doppler/Libraries/XMCLib/inc\xmc4_scu.h ****   XMC_SCU_RESET_REASON_PARITY_ERROR = (128UL << SCU_RESET_RSTSTAT_RSTSTAT_Pos), /**< Reset due to r
 276:C:/Users/Utente/Desktop/Tesi/Firmware_Software/DAVE project/S2GLP_Pulsed_Doppler/Libraries/XMCLib/inc\xmc4_scu.h **** } XMC_SCU_RESET_REASON_t;
 277:C:/Users/Utente/Desktop/Tesi/Firmware_Software/DAVE project/S2GLP_Pulsed_Doppler/Libraries/XMCLib/inc\xmc4_scu.h **** 
 278:C:/Users/Utente/Desktop/Tesi/Firmware_Software/DAVE project/S2GLP_Pulsed_Doppler/Libraries/XMCLib/inc\xmc4_scu.h **** /**
 279:C:/Users/Utente/Desktop/Tesi/Firmware_Software/DAVE project/S2GLP_Pulsed_Doppler/Libraries/XMCLib/inc\xmc4_scu.h ****  *  Defines enumerations for events which can lead to interrupt. These enumeration values represent
 280:C:/Users/Utente/Desktop/Tesi/Firmware_Software/DAVE project/S2GLP_Pulsed_Doppler/Libraries/XMCLib/inc\xmc4_scu.h ****  * status of one of the bits in \a SRSTAT register. 
 281:C:/Users/Utente/Desktop/Tesi/Firmware_Software/DAVE project/S2GLP_Pulsed_Doppler/Libraries/XMCLib/inc\xmc4_scu.h ****  *  Use type \a XMC_SCU_INTERRUPT_EVENT_t for accessing these enum parameters.
 282:C:/Users/Utente/Desktop/Tesi/Firmware_Software/DAVE project/S2GLP_Pulsed_Doppler/Libraries/XMCLib/inc\xmc4_scu.h ****  */
 283:C:/Users/Utente/Desktop/Tesi/Firmware_Software/DAVE project/S2GLP_Pulsed_Doppler/Libraries/XMCLib/inc\xmc4_scu.h **** typedef uint32_t XMC_SCU_INTERRUPT_EVENT_t;
 284:C:/Users/Utente/Desktop/Tesi/Firmware_Software/DAVE project/S2GLP_Pulsed_Doppler/Libraries/XMCLib/inc\xmc4_scu.h **** 
 285:C:/Users/Utente/Desktop/Tesi/Firmware_Software/DAVE project/S2GLP_Pulsed_Doppler/Libraries/XMCLib/inc\xmc4_scu.h ****  
 286:C:/Users/Utente/Desktop/Tesi/Firmware_Software/DAVE project/S2GLP_Pulsed_Doppler/Libraries/XMCLib/inc\xmc4_scu.h **** /**
 287:C:/Users/Utente/Desktop/Tesi/Firmware_Software/DAVE project/S2GLP_Pulsed_Doppler/Libraries/XMCLib/inc\xmc4_scu.h ****  *  Defines enumeration for the events that can generate non maskable interrupt(NMI).
 288:C:/Users/Utente/Desktop/Tesi/Firmware_Software/DAVE project/S2GLP_Pulsed_Doppler/Libraries/XMCLib/inc\xmc4_scu.h ****  *  The NMI generation can be enabled with \a NMIREQEN register. The event will be reflected in \a 
 289:C:/Users/Utente/Desktop/Tesi/Firmware_Software/DAVE project/S2GLP_Pulsed_Doppler/Libraries/XMCLib/inc\xmc4_scu.h ****  *  mirrored in the TRAPSTAT register. These enums can be used to configure NMI request generation 
 290:C:/Users/Utente/Desktop/Tesi/Firmware_Software/DAVE project/S2GLP_Pulsed_Doppler/Libraries/XMCLib/inc\xmc4_scu.h ****  *  NMIREQEN register.  Once configured, these events can generate non maskable interrupt.
 291:C:/Users/Utente/Desktop/Tesi/Firmware_Software/DAVE project/S2GLP_Pulsed_Doppler/Libraries/XMCLib/inc\xmc4_scu.h ****  *  All the enum items are tabulated as per bits present in \a NMIREQEN register.
 292:C:/Users/Utente/Desktop/Tesi/Firmware_Software/DAVE project/S2GLP_Pulsed_Doppler/Libraries/XMCLib/inc\xmc4_scu.h ****  *  Use type \a XMC_SCU_NMIREQ_t for accessing these enum parameters.
 293:C:/Users/Utente/Desktop/Tesi/Firmware_Software/DAVE project/S2GLP_Pulsed_Doppler/Libraries/XMCLib/inc\xmc4_scu.h ****  */
 294:C:/Users/Utente/Desktop/Tesi/Firmware_Software/DAVE project/S2GLP_Pulsed_Doppler/Libraries/XMCLib/inc\xmc4_scu.h **** typedef enum XMC_SCU_NMIREQ
 295:C:/Users/Utente/Desktop/Tesi/Firmware_Software/DAVE project/S2GLP_Pulsed_Doppler/Libraries/XMCLib/inc\xmc4_scu.h **** {
 296:C:/Users/Utente/Desktop/Tesi/Firmware_Software/DAVE project/S2GLP_Pulsed_Doppler/Libraries/XMCLib/inc\xmc4_scu.h ****   XMC_SCU_NMIREQ_WDT_WARN = SCU_INTERRUPT_NMIREQEN_PRWARN_Msk, /**< Watchdog timer Pre-Warning even
 297:C:/Users/Utente/Desktop/Tesi/Firmware_Software/DAVE project/S2GLP_Pulsed_Doppler/Libraries/XMCLib/inc\xmc4_scu.h ****   XMC_SCU_NMIREQ_RTC_PI   = SCU_INTERRUPT_NMIREQEN_PI_Msk,     /**< RTC Periodic event */ 
 298:C:/Users/Utente/Desktop/Tesi/Firmware_Software/DAVE project/S2GLP_Pulsed_Doppler/Libraries/XMCLib/inc\xmc4_scu.h ****   XMC_SCU_NMIREQ_RTC_AI   = SCU_INTERRUPT_NMIREQEN_AI_Msk,     /**< RTC Alarm event */ 
 299:C:/Users/Utente/Desktop/Tesi/Firmware_Software/DAVE project/S2GLP_Pulsed_Doppler/Libraries/XMCLib/inc\xmc4_scu.h ****   XMC_SCU_NMIREQ_ERU0_0   = SCU_INTERRUPT_NMIREQEN_ERU00_Msk,  /**< Channel 0 event of ERU0 */  
 300:C:/Users/Utente/Desktop/Tesi/Firmware_Software/DAVE project/S2GLP_Pulsed_Doppler/Libraries/XMCLib/inc\xmc4_scu.h ****   XMC_SCU_NMIREQ_ERU0_1   = SCU_INTERRUPT_NMIREQEN_ERU01_Msk,  /**< Channel 1 event of ERU0 */ 
 301:C:/Users/Utente/Desktop/Tesi/Firmware_Software/DAVE project/S2GLP_Pulsed_Doppler/Libraries/XMCLib/inc\xmc4_scu.h ****   XMC_SCU_NMIREQ_ERU0_2   = SCU_INTERRUPT_NMIREQEN_ERU02_Msk,  /**< Channel 2 event of ERU0 */ 
 302:C:/Users/Utente/Desktop/Tesi/Firmware_Software/DAVE project/S2GLP_Pulsed_Doppler/Libraries/XMCLib/inc\xmc4_scu.h ****   XMC_SCU_NMIREQ_ERU0_3   = SCU_INTERRUPT_NMIREQEN_ERU03_Msk   /**< Channel 3 event of ERU0 */ 
 303:C:/Users/Utente/Desktop/Tesi/Firmware_Software/DAVE project/S2GLP_Pulsed_Doppler/Libraries/XMCLib/inc\xmc4_scu.h **** } XMC_SCU_NMIREQ_t;
 304:C:/Users/Utente/Desktop/Tesi/Firmware_Software/DAVE project/S2GLP_Pulsed_Doppler/Libraries/XMCLib/inc\xmc4_scu.h ****   
 305:C:/Users/Utente/Desktop/Tesi/Firmware_Software/DAVE project/S2GLP_Pulsed_Doppler/Libraries/XMCLib/inc\xmc4_scu.h **** 
 306:C:/Users/Utente/Desktop/Tesi/Firmware_Software/DAVE project/S2GLP_Pulsed_Doppler/Libraries/XMCLib/inc\xmc4_scu.h **** /**
 307:C:/Users/Utente/Desktop/Tesi/Firmware_Software/DAVE project/S2GLP_Pulsed_Doppler/Libraries/XMCLib/inc\xmc4_scu.h ****  *  Defines enumeration representing different peripheral reset bits in the \a PRSTAT registers.
 308:C:/Users/Utente/Desktop/Tesi/Firmware_Software/DAVE project/S2GLP_Pulsed_Doppler/Libraries/XMCLib/inc\xmc4_scu.h ****  *  All the enum items are tabulated as per bits present in \a PRSTAT0,  \a PRSTAT1,  \a PRSTAT2,
 309:C:/Users/Utente/Desktop/Tesi/Firmware_Software/DAVE project/S2GLP_Pulsed_Doppler/Libraries/XMCLib/inc\xmc4_scu.h ****  *  \a PRSTAT3 registers. Use type \a XMC_SCU_PERIPHERAL_RESET_t for accessing these enum parameter
 310:C:/Users/Utente/Desktop/Tesi/Firmware_Software/DAVE project/S2GLP_Pulsed_Doppler/Libraries/XMCLib/inc\xmc4_scu.h ****  *  Note: Release of reset should be prevented when the peripheral clock is gated in cases where ke
 311:C:/Users/Utente/Desktop/Tesi/Firmware_Software/DAVE project/S2GLP_Pulsed_Doppler/Libraries/XMCLib/inc\xmc4_scu.h ****  *  clock and bus interface clocks are shared, in order to avoid system hang-up.
 312:C:/Users/Utente/Desktop/Tesi/Firmware_Software/DAVE project/S2GLP_Pulsed_Doppler/Libraries/XMCLib/inc\xmc4_scu.h ****  */
 313:C:/Users/Utente/Desktop/Tesi/Firmware_Software/DAVE project/S2GLP_Pulsed_Doppler/Libraries/XMCLib/inc\xmc4_scu.h **** typedef enum XMC_SCU_PERIPHERAL_RESET
 314:C:/Users/Utente/Desktop/Tesi/Firmware_Software/DAVE project/S2GLP_Pulsed_Doppler/Libraries/XMCLib/inc\xmc4_scu.h **** {
 315:C:/Users/Utente/Desktop/Tesi/Firmware_Software/DAVE project/S2GLP_Pulsed_Doppler/Libraries/XMCLib/inc\xmc4_scu.h ****   XMC_SCU_PERIPHERAL_RESET_VADC   = SCU_RESET_PRSTAT0_VADCRS_Msk,   /**< VADC reset. */ 
 316:C:/Users/Utente/Desktop/Tesi/Firmware_Software/DAVE project/S2GLP_Pulsed_Doppler/Libraries/XMCLib/inc\xmc4_scu.h **** #if defined(DSD)
 317:C:/Users/Utente/Desktop/Tesi/Firmware_Software/DAVE project/S2GLP_Pulsed_Doppler/Libraries/XMCLib/inc\xmc4_scu.h ****   XMC_SCU_PERIPHERAL_RESET_DSD    = SCU_RESET_PRSTAT0_DSDRS_Msk,    /**< DSD reset. */
 318:C:/Users/Utente/Desktop/Tesi/Firmware_Software/DAVE project/S2GLP_Pulsed_Doppler/Libraries/XMCLib/inc\xmc4_scu.h **** #endif
 319:C:/Users/Utente/Desktop/Tesi/Firmware_Software/DAVE project/S2GLP_Pulsed_Doppler/Libraries/XMCLib/inc\xmc4_scu.h ****   XMC_SCU_PERIPHERAL_RESET_CCU40  = SCU_RESET_PRSTAT0_CCU40RS_Msk,  /**< CCU40 reset. */
 320:C:/Users/Utente/Desktop/Tesi/Firmware_Software/DAVE project/S2GLP_Pulsed_Doppler/Libraries/XMCLib/inc\xmc4_scu.h **** #if defined(CCU41)
 321:C:/Users/Utente/Desktop/Tesi/Firmware_Software/DAVE project/S2GLP_Pulsed_Doppler/Libraries/XMCLib/inc\xmc4_scu.h ****   XMC_SCU_PERIPHERAL_RESET_CCU41  = SCU_RESET_PRSTAT0_CCU41RS_Msk,  /**< CCU41 reset. */
 322:C:/Users/Utente/Desktop/Tesi/Firmware_Software/DAVE project/S2GLP_Pulsed_Doppler/Libraries/XMCLib/inc\xmc4_scu.h **** #endif  
 323:C:/Users/Utente/Desktop/Tesi/Firmware_Software/DAVE project/S2GLP_Pulsed_Doppler/Libraries/XMCLib/inc\xmc4_scu.h **** #if defined(CCU42)
 324:C:/Users/Utente/Desktop/Tesi/Firmware_Software/DAVE project/S2GLP_Pulsed_Doppler/Libraries/XMCLib/inc\xmc4_scu.h ****   XMC_SCU_PERIPHERAL_RESET_CCU42  = SCU_RESET_PRSTAT0_CCU42RS_Msk,  /**< CCU42 reset. */
 325:C:/Users/Utente/Desktop/Tesi/Firmware_Software/DAVE project/S2GLP_Pulsed_Doppler/Libraries/XMCLib/inc\xmc4_scu.h **** #endif
 326:C:/Users/Utente/Desktop/Tesi/Firmware_Software/DAVE project/S2GLP_Pulsed_Doppler/Libraries/XMCLib/inc\xmc4_scu.h **** #if defined(CCU80)
 327:C:/Users/Utente/Desktop/Tesi/Firmware_Software/DAVE project/S2GLP_Pulsed_Doppler/Libraries/XMCLib/inc\xmc4_scu.h ****   XMC_SCU_PERIPHERAL_RESET_CCU80  = SCU_RESET_PRSTAT0_CCU80RS_Msk,  /**< CCU80 reset. */
 328:C:/Users/Utente/Desktop/Tesi/Firmware_Software/DAVE project/S2GLP_Pulsed_Doppler/Libraries/XMCLib/inc\xmc4_scu.h **** #endif  
 329:C:/Users/Utente/Desktop/Tesi/Firmware_Software/DAVE project/S2GLP_Pulsed_Doppler/Libraries/XMCLib/inc\xmc4_scu.h **** #if defined(CCU81)
 330:C:/Users/Utente/Desktop/Tesi/Firmware_Software/DAVE project/S2GLP_Pulsed_Doppler/Libraries/XMCLib/inc\xmc4_scu.h ****   XMC_SCU_PERIPHERAL_RESET_CCU81  = SCU_RESET_PRSTAT0_CCU81RS_Msk,  /**< CCU81 reset. */
 331:C:/Users/Utente/Desktop/Tesi/Firmware_Software/DAVE project/S2GLP_Pulsed_Doppler/Libraries/XMCLib/inc\xmc4_scu.h **** #endif
 332:C:/Users/Utente/Desktop/Tesi/Firmware_Software/DAVE project/S2GLP_Pulsed_Doppler/Libraries/XMCLib/inc\xmc4_scu.h **** #if defined(POSIF0)
 333:C:/Users/Utente/Desktop/Tesi/Firmware_Software/DAVE project/S2GLP_Pulsed_Doppler/Libraries/XMCLib/inc\xmc4_scu.h ****   XMC_SCU_PERIPHERAL_RESET_POSIF0 = SCU_RESET_PRSTAT0_POSIF0RS_Msk, /**< POSIF0 reset. */
 334:C:/Users/Utente/Desktop/Tesi/Firmware_Software/DAVE project/S2GLP_Pulsed_Doppler/Libraries/XMCLib/inc\xmc4_scu.h **** #endif  
 335:C:/Users/Utente/Desktop/Tesi/Firmware_Software/DAVE project/S2GLP_Pulsed_Doppler/Libraries/XMCLib/inc\xmc4_scu.h **** #if defined(POSIF1)
 336:C:/Users/Utente/Desktop/Tesi/Firmware_Software/DAVE project/S2GLP_Pulsed_Doppler/Libraries/XMCLib/inc\xmc4_scu.h ****   XMC_SCU_PERIPHERAL_RESET_POSIF1 = SCU_RESET_PRSTAT0_POSIF1RS_Msk, /**< POSIF1 reset.*/
 337:C:/Users/Utente/Desktop/Tesi/Firmware_Software/DAVE project/S2GLP_Pulsed_Doppler/Libraries/XMCLib/inc\xmc4_scu.h **** #endif
 338:C:/Users/Utente/Desktop/Tesi/Firmware_Software/DAVE project/S2GLP_Pulsed_Doppler/Libraries/XMCLib/inc\xmc4_scu.h ****   XMC_SCU_PERIPHERAL_RESET_USIC0  = SCU_RESET_PRSTAT0_USIC0RS_Msk,  /**< USIC0 reset. */
 339:C:/Users/Utente/Desktop/Tesi/Firmware_Software/DAVE project/S2GLP_Pulsed_Doppler/Libraries/XMCLib/inc\xmc4_scu.h ****   XMC_SCU_PERIPHERAL_RESET_ERU1   = SCU_RESET_PRSTAT0_ERU1RS_Msk,   /**< ERU1 reset. */
 340:C:/Users/Utente/Desktop/Tesi/Firmware_Software/DAVE project/S2GLP_Pulsed_Doppler/Libraries/XMCLib/inc\xmc4_scu.h **** #if defined(HRPWM0)
 341:C:/Users/Utente/Desktop/Tesi/Firmware_Software/DAVE project/S2GLP_Pulsed_Doppler/Libraries/XMCLib/inc\xmc4_scu.h ****   XMC_SCU_PERIPHERAL_RESET_HRPWM0 = SCU_RESET_PRSTAT0_HRPWM0RS_Msk,  /**< HRPWM0 reset. */
 342:C:/Users/Utente/Desktop/Tesi/Firmware_Software/DAVE project/S2GLP_Pulsed_Doppler/Libraries/XMCLib/inc\xmc4_scu.h **** #endif
 343:C:/Users/Utente/Desktop/Tesi/Firmware_Software/DAVE project/S2GLP_Pulsed_Doppler/Libraries/XMCLib/inc\xmc4_scu.h **** #if defined(CCU43)
 344:C:/Users/Utente/Desktop/Tesi/Firmware_Software/DAVE project/S2GLP_Pulsed_Doppler/Libraries/XMCLib/inc\xmc4_scu.h ****   XMC_SCU_PERIPHERAL_RESET_CCU43  = (SCU_RESET_PRSTAT1_CCU43RS_Msk | 0x10000000UL),   /**< CCU43 re
 345:C:/Users/Utente/Desktop/Tesi/Firmware_Software/DAVE project/S2GLP_Pulsed_Doppler/Libraries/XMCLib/inc\xmc4_scu.h **** #endif
 346:C:/Users/Utente/Desktop/Tesi/Firmware_Software/DAVE project/S2GLP_Pulsed_Doppler/Libraries/XMCLib/inc\xmc4_scu.h **** #if defined(LEDTS0)
 347:C:/Users/Utente/Desktop/Tesi/Firmware_Software/DAVE project/S2GLP_Pulsed_Doppler/Libraries/XMCLib/inc\xmc4_scu.h ****   XMC_SCU_PERIPHERAL_RESET_LEDTS0 = (SCU_RESET_PRSTAT1_LEDTSCU0RS_Msk | 0x10000000UL), /**< LEDTS0 
 348:C:/Users/Utente/Desktop/Tesi/Firmware_Software/DAVE project/S2GLP_Pulsed_Doppler/Libraries/XMCLib/inc\xmc4_scu.h **** #endif  
 349:C:/Users/Utente/Desktop/Tesi/Firmware_Software/DAVE project/S2GLP_Pulsed_Doppler/Libraries/XMCLib/inc\xmc4_scu.h **** #if defined(CAN)
 350:C:/Users/Utente/Desktop/Tesi/Firmware_Software/DAVE project/S2GLP_Pulsed_Doppler/Libraries/XMCLib/inc\xmc4_scu.h ****   XMC_SCU_PERIPHERAL_RESET_MCAN   = (SCU_RESET_PRSTAT1_MCAN0RS_Msk | 0x10000000UL), /**< MCAN reset
 351:C:/Users/Utente/Desktop/Tesi/Firmware_Software/DAVE project/S2GLP_Pulsed_Doppler/Libraries/XMCLib/inc\xmc4_scu.h **** #endif  
 352:C:/Users/Utente/Desktop/Tesi/Firmware_Software/DAVE project/S2GLP_Pulsed_Doppler/Libraries/XMCLib/inc\xmc4_scu.h **** #if defined(DAC)  
 353:C:/Users/Utente/Desktop/Tesi/Firmware_Software/DAVE project/S2GLP_Pulsed_Doppler/Libraries/XMCLib/inc\xmc4_scu.h ****   XMC_SCU_PERIPHERAL_RESET_DAC    = (SCU_RESET_PRSTAT1_DACRS_Msk | 0x10000000UL),    /**< DAC reset
 354:C:/Users/Utente/Desktop/Tesi/Firmware_Software/DAVE project/S2GLP_Pulsed_Doppler/Libraries/XMCLib/inc\xmc4_scu.h **** #endif  
 355:C:/Users/Utente/Desktop/Tesi/Firmware_Software/DAVE project/S2GLP_Pulsed_Doppler/Libraries/XMCLib/inc\xmc4_scu.h **** #if defined(SDMMC)
 356:C:/Users/Utente/Desktop/Tesi/Firmware_Software/DAVE project/S2GLP_Pulsed_Doppler/Libraries/XMCLib/inc\xmc4_scu.h ****   XMC_SCU_PERIPHERAL_RESET_SDMMC  = (SCU_RESET_PRSTAT1_MMCIRS_Msk | 0x10000000UL),     /**< SDMMC r
 357:C:/Users/Utente/Desktop/Tesi/Firmware_Software/DAVE project/S2GLP_Pulsed_Doppler/Libraries/XMCLib/inc\xmc4_scu.h **** #endif
 358:C:/Users/Utente/Desktop/Tesi/Firmware_Software/DAVE project/S2GLP_Pulsed_Doppler/Libraries/XMCLib/inc\xmc4_scu.h **** #if defined(USIC1)
 359:C:/Users/Utente/Desktop/Tesi/Firmware_Software/DAVE project/S2GLP_Pulsed_Doppler/Libraries/XMCLib/inc\xmc4_scu.h ****   XMC_SCU_PERIPHERAL_RESET_USIC1  = (SCU_RESET_PRSTAT1_USIC1RS_Msk | 0x10000000UL),    /**< USIC1 r
 360:C:/Users/Utente/Desktop/Tesi/Firmware_Software/DAVE project/S2GLP_Pulsed_Doppler/Libraries/XMCLib/inc\xmc4_scu.h **** #endif  
 361:C:/Users/Utente/Desktop/Tesi/Firmware_Software/DAVE project/S2GLP_Pulsed_Doppler/Libraries/XMCLib/inc\xmc4_scu.h **** #if defined(USIC2)
 362:C:/Users/Utente/Desktop/Tesi/Firmware_Software/DAVE project/S2GLP_Pulsed_Doppler/Libraries/XMCLib/inc\xmc4_scu.h ****   XMC_SCU_PERIPHERAL_RESET_USIC2  = (SCU_RESET_PRSTAT1_USIC2RS_Msk | 0x10000000UL),    /**< USIC2 r
 363:C:/Users/Utente/Desktop/Tesi/Firmware_Software/DAVE project/S2GLP_Pulsed_Doppler/Libraries/XMCLib/inc\xmc4_scu.h **** #endif
 364:C:/Users/Utente/Desktop/Tesi/Firmware_Software/DAVE project/S2GLP_Pulsed_Doppler/Libraries/XMCLib/inc\xmc4_scu.h ****   XMC_SCU_PERIPHERAL_RESET_PORTS  = (SCU_RESET_PRSTAT1_PPORTSRS_Msk | 0x10000000UL),   /**< PORTS r
 365:C:/Users/Utente/Desktop/Tesi/Firmware_Software/DAVE project/S2GLP_Pulsed_Doppler/Libraries/XMCLib/inc\xmc4_scu.h ****   XMC_SCU_PERIPHERAL_RESET_WDT    = (SCU_RESET_PRSTAT2_WDTRS_Msk | 0x20000000UL),      /**< WDT res
 366:C:/Users/Utente/Desktop/Tesi/Firmware_Software/DAVE project/S2GLP_Pulsed_Doppler/Libraries/XMCLib/inc\xmc4_scu.h **** #if defined(ETH0)
 367:C:/Users/Utente/Desktop/Tesi/Firmware_Software/DAVE project/S2GLP_Pulsed_Doppler/Libraries/XMCLib/inc\xmc4_scu.h ****   XMC_SCU_PERIPHERAL_RESET_ETH0   = (SCU_RESET_PRSTAT2_ETH0RS_Msk | 0x20000000UL),     /**< ETH0 re
 368:C:/Users/Utente/Desktop/Tesi/Firmware_Software/DAVE project/S2GLP_Pulsed_Doppler/Libraries/XMCLib/inc\xmc4_scu.h **** #endif
 369:C:/Users/Utente/Desktop/Tesi/Firmware_Software/DAVE project/S2GLP_Pulsed_Doppler/Libraries/XMCLib/inc\xmc4_scu.h ****   XMC_SCU_PERIPHERAL_RESET_GPDMA0 = (SCU_RESET_PRSTAT2_DMA0RS_Msk | 0x20000000UL),     /**< DMA0 re
 370:C:/Users/Utente/Desktop/Tesi/Firmware_Software/DAVE project/S2GLP_Pulsed_Doppler/Libraries/XMCLib/inc\xmc4_scu.h **** #if defined(GPDMA1)
 371:C:/Users/Utente/Desktop/Tesi/Firmware_Software/DAVE project/S2GLP_Pulsed_Doppler/Libraries/XMCLib/inc\xmc4_scu.h ****   XMC_SCU_PERIPHERAL_RESET_GPDMA1 = (SCU_RESET_PRSTAT2_DMA1RS_Msk | 0x20000000UL),     /**< DMA1 re
 372:C:/Users/Utente/Desktop/Tesi/Firmware_Software/DAVE project/S2GLP_Pulsed_Doppler/Libraries/XMCLib/inc\xmc4_scu.h **** #endif
 373:C:/Users/Utente/Desktop/Tesi/Firmware_Software/DAVE project/S2GLP_Pulsed_Doppler/Libraries/XMCLib/inc\xmc4_scu.h **** #if defined(FCE)
 374:C:/Users/Utente/Desktop/Tesi/Firmware_Software/DAVE project/S2GLP_Pulsed_Doppler/Libraries/XMCLib/inc\xmc4_scu.h ****   XMC_SCU_PERIPHERAL_RESET_FCE    = (SCU_RESET_PRSTAT2_FCERS_Msk | 0x20000000UL),      /**< FCE res
 375:C:/Users/Utente/Desktop/Tesi/Firmware_Software/DAVE project/S2GLP_Pulsed_Doppler/Libraries/XMCLib/inc\xmc4_scu.h **** #endif
 376:C:/Users/Utente/Desktop/Tesi/Firmware_Software/DAVE project/S2GLP_Pulsed_Doppler/Libraries/XMCLib/inc\xmc4_scu.h **** #if defined(USB0)  
 377:C:/Users/Utente/Desktop/Tesi/Firmware_Software/DAVE project/S2GLP_Pulsed_Doppler/Libraries/XMCLib/inc\xmc4_scu.h ****   XMC_SCU_PERIPHERAL_RESET_USB0   = (SCU_RESET_PRSTAT2_USBRS_Msk | 0x20000000UL),      /**< USB0 re
 378:C:/Users/Utente/Desktop/Tesi/Firmware_Software/DAVE project/S2GLP_Pulsed_Doppler/Libraries/XMCLib/inc\xmc4_scu.h **** #endif  
 379:C:/Users/Utente/Desktop/Tesi/Firmware_Software/DAVE project/S2GLP_Pulsed_Doppler/Libraries/XMCLib/inc\xmc4_scu.h **** #if defined(ECAT0)  
 380:C:/Users/Utente/Desktop/Tesi/Firmware_Software/DAVE project/S2GLP_Pulsed_Doppler/Libraries/XMCLib/inc\xmc4_scu.h ****   XMC_SCU_PERIPHERAL_RESET_ECAT0  = (SCU_RESET_PRSTAT2_ECAT0RS_Msk | 0x20000000UL),      /**< ECAT0
 381:C:/Users/Utente/Desktop/Tesi/Firmware_Software/DAVE project/S2GLP_Pulsed_Doppler/Libraries/XMCLib/inc\xmc4_scu.h **** #endif  
 382:C:/Users/Utente/Desktop/Tesi/Firmware_Software/DAVE project/S2GLP_Pulsed_Doppler/Libraries/XMCLib/inc\xmc4_scu.h **** #if defined(EBU)
 383:C:/Users/Utente/Desktop/Tesi/Firmware_Software/DAVE project/S2GLP_Pulsed_Doppler/Libraries/XMCLib/inc\xmc4_scu.h ****   XMC_SCU_PERIPHERAL_RESET_EBU    = (SCU_RESET_PRSTAT3_EBURS_Msk | 0x30000000UL)       /**< EBU res
 384:C:/Users/Utente/Desktop/Tesi/Firmware_Software/DAVE project/S2GLP_Pulsed_Doppler/Libraries/XMCLib/inc\xmc4_scu.h **** #endif
 385:C:/Users/Utente/Desktop/Tesi/Firmware_Software/DAVE project/S2GLP_Pulsed_Doppler/Libraries/XMCLib/inc\xmc4_scu.h **** } XMC_SCU_PERIPHERAL_RESET_t;
 386:C:/Users/Utente/Desktop/Tesi/Firmware_Software/DAVE project/S2GLP_Pulsed_Doppler/Libraries/XMCLib/inc\xmc4_scu.h **** 
 387:C:/Users/Utente/Desktop/Tesi/Firmware_Software/DAVE project/S2GLP_Pulsed_Doppler/Libraries/XMCLib/inc\xmc4_scu.h **** /**
 388:C:/Users/Utente/Desktop/Tesi/Firmware_Software/DAVE project/S2GLP_Pulsed_Doppler/Libraries/XMCLib/inc\xmc4_scu.h ****  *  Defines enumerations for disabling the clocks sources of peripherals. Disabling of the peripher
 389:C:/Users/Utente/Desktop/Tesi/Firmware_Software/DAVE project/S2GLP_Pulsed_Doppler/Libraries/XMCLib/inc\xmc4_scu.h ****  *  clock is configured via the \a CLKCLR registers.
 390:C:/Users/Utente/Desktop/Tesi/Firmware_Software/DAVE project/S2GLP_Pulsed_Doppler/Libraries/XMCLib/inc\xmc4_scu.h ****  *  Use type \a XMC_SCU_PERIPHERAL_CLOCK_t for accessing these enum parameters.
 391:C:/Users/Utente/Desktop/Tesi/Firmware_Software/DAVE project/S2GLP_Pulsed_Doppler/Libraries/XMCLib/inc\xmc4_scu.h ****  */
 392:C:/Users/Utente/Desktop/Tesi/Firmware_Software/DAVE project/S2GLP_Pulsed_Doppler/Libraries/XMCLib/inc\xmc4_scu.h **** typedef enum XMC_SCU_CLOCK
 393:C:/Users/Utente/Desktop/Tesi/Firmware_Software/DAVE project/S2GLP_Pulsed_Doppler/Libraries/XMCLib/inc\xmc4_scu.h **** {
 394:C:/Users/Utente/Desktop/Tesi/Firmware_Software/DAVE project/S2GLP_Pulsed_Doppler/Libraries/XMCLib/inc\xmc4_scu.h ****   XMC_SCU_CLOCK_USB = SCU_CLK_CLKCLR_USBCDI_Msk, /**< USB module clock. */
 395:C:/Users/Utente/Desktop/Tesi/Firmware_Software/DAVE project/S2GLP_Pulsed_Doppler/Libraries/XMCLib/inc\xmc4_scu.h **** #if defined(SDMMC)
 396:C:/Users/Utente/Desktop/Tesi/Firmware_Software/DAVE project/S2GLP_Pulsed_Doppler/Libraries/XMCLib/inc\xmc4_scu.h ****   XMC_SCU_CLOCK_MMC = SCU_CLK_CLKCLR_MMCCDI_Msk, /**< MMC module clock. */
 397:C:/Users/Utente/Desktop/Tesi/Firmware_Software/DAVE project/S2GLP_Pulsed_Doppler/Libraries/XMCLib/inc\xmc4_scu.h **** #endif
 398:C:/Users/Utente/Desktop/Tesi/Firmware_Software/DAVE project/S2GLP_Pulsed_Doppler/Libraries/XMCLib/inc\xmc4_scu.h **** #if defined(ETH0)
 399:C:/Users/Utente/Desktop/Tesi/Firmware_Software/DAVE project/S2GLP_Pulsed_Doppler/Libraries/XMCLib/inc\xmc4_scu.h ****   XMC_SCU_CLOCK_ETH = SCU_CLK_CLKCLR_ETH0CDI_Msk, /**< Ethernet module clock. */
 400:C:/Users/Utente/Desktop/Tesi/Firmware_Software/DAVE project/S2GLP_Pulsed_Doppler/Libraries/XMCLib/inc\xmc4_scu.h **** #endif
 401:C:/Users/Utente/Desktop/Tesi/Firmware_Software/DAVE project/S2GLP_Pulsed_Doppler/Libraries/XMCLib/inc\xmc4_scu.h **** #if defined(EBU)
 402:C:/Users/Utente/Desktop/Tesi/Firmware_Software/DAVE project/S2GLP_Pulsed_Doppler/Libraries/XMCLib/inc\xmc4_scu.h ****   XMC_SCU_CLOCK_EBU = SCU_CLK_CLKCLR_EBUCDI_Msk, /**< EBU module clock. */
 403:C:/Users/Utente/Desktop/Tesi/Firmware_Software/DAVE project/S2GLP_Pulsed_Doppler/Libraries/XMCLib/inc\xmc4_scu.h **** #endif
 404:C:/Users/Utente/Desktop/Tesi/Firmware_Software/DAVE project/S2GLP_Pulsed_Doppler/Libraries/XMCLib/inc\xmc4_scu.h ****   XMC_SCU_CLOCK_CCU = SCU_CLK_CLKCLR_CCUCDI_Msk, /**< CCU module clock. */
 405:C:/Users/Utente/Desktop/Tesi/Firmware_Software/DAVE project/S2GLP_Pulsed_Doppler/Libraries/XMCLib/inc\xmc4_scu.h ****   XMC_SCU_CLOCK_WDT = SCU_CLK_CLKCLR_WDTCDI_Msk  /**< WDT module clock. */
 406:C:/Users/Utente/Desktop/Tesi/Firmware_Software/DAVE project/S2GLP_Pulsed_Doppler/Libraries/XMCLib/inc\xmc4_scu.h **** } XMC_SCU_CLOCK_t;
 407:C:/Users/Utente/Desktop/Tesi/Firmware_Software/DAVE project/S2GLP_Pulsed_Doppler/Libraries/XMCLib/inc\xmc4_scu.h **** 
 408:C:/Users/Utente/Desktop/Tesi/Firmware_Software/DAVE project/S2GLP_Pulsed_Doppler/Libraries/XMCLib/inc\xmc4_scu.h **** #if(UC_SERIES != XMC45)
 409:C:/Users/Utente/Desktop/Tesi/Firmware_Software/DAVE project/S2GLP_Pulsed_Doppler/Libraries/XMCLib/inc\xmc4_scu.h **** /**
 410:C:/Users/Utente/Desktop/Tesi/Firmware_Software/DAVE project/S2GLP_Pulsed_Doppler/Libraries/XMCLib/inc\xmc4_scu.h ****  * Defines enumeration for peripherals that support clock gating. 
 411:C:/Users/Utente/Desktop/Tesi/Firmware_Software/DAVE project/S2GLP_Pulsed_Doppler/Libraries/XMCLib/inc\xmc4_scu.h ****  * The enumerations can be used for gating or ungating the peripheral clocks.
 412:C:/Users/Utente/Desktop/Tesi/Firmware_Software/DAVE project/S2GLP_Pulsed_Doppler/Libraries/XMCLib/inc\xmc4_scu.h ****  * All the enum items are tabulated as per bits present in \a CGATSTAT0 register.
 413:C:/Users/Utente/Desktop/Tesi/Firmware_Software/DAVE project/S2GLP_Pulsed_Doppler/Libraries/XMCLib/inc\xmc4_scu.h ****  * Use type \a XMC_SCU_PERIPHERAL_CLOCK_t for accessing these enum parameters.
 414:C:/Users/Utente/Desktop/Tesi/Firmware_Software/DAVE project/S2GLP_Pulsed_Doppler/Libraries/XMCLib/inc\xmc4_scu.h ****  */
 415:C:/Users/Utente/Desktop/Tesi/Firmware_Software/DAVE project/S2GLP_Pulsed_Doppler/Libraries/XMCLib/inc\xmc4_scu.h **** typedef enum XMC_SCU_PERIPHERAL_CLOCK
 416:C:/Users/Utente/Desktop/Tesi/Firmware_Software/DAVE project/S2GLP_Pulsed_Doppler/Libraries/XMCLib/inc\xmc4_scu.h **** {
 417:C:/Users/Utente/Desktop/Tesi/Firmware_Software/DAVE project/S2GLP_Pulsed_Doppler/Libraries/XMCLib/inc\xmc4_scu.h ****   XMC_SCU_PERIPHERAL_CLOCK_VADC   = SCU_CLK_CGATSTAT0_VADC_Msk,  /**< VADC peripheral gating. */
 418:C:/Users/Utente/Desktop/Tesi/Firmware_Software/DAVE project/S2GLP_Pulsed_Doppler/Libraries/XMCLib/inc\xmc4_scu.h **** #if defined(DSD)
 419:C:/Users/Utente/Desktop/Tesi/Firmware_Software/DAVE project/S2GLP_Pulsed_Doppler/Libraries/XMCLib/inc\xmc4_scu.h ****   XMC_SCU_PERIPHERAL_CLOCK_DSD    = SCU_CLK_CGATSTAT0_DSD_Msk,   /**< DSD peripheral gating. */
 420:C:/Users/Utente/Desktop/Tesi/Firmware_Software/DAVE project/S2GLP_Pulsed_Doppler/Libraries/XMCLib/inc\xmc4_scu.h **** #endif
 421:C:/Users/Utente/Desktop/Tesi/Firmware_Software/DAVE project/S2GLP_Pulsed_Doppler/Libraries/XMCLib/inc\xmc4_scu.h ****   XMC_SCU_PERIPHERAL_CLOCK_CCU40  = SCU_CLK_CGATSTAT0_CCU40_Msk,  /**< CCU40 peripheral gating. */
 422:C:/Users/Utente/Desktop/Tesi/Firmware_Software/DAVE project/S2GLP_Pulsed_Doppler/Libraries/XMCLib/inc\xmc4_scu.h **** #if defined(CCU41)
 423:C:/Users/Utente/Desktop/Tesi/Firmware_Software/DAVE project/S2GLP_Pulsed_Doppler/Libraries/XMCLib/inc\xmc4_scu.h ****   XMC_SCU_PERIPHERAL_CLOCK_CCU41  = SCU_CLK_CGATSTAT0_CCU41_Msk,  /**< CCU41 peripheral gating. */
 424:C:/Users/Utente/Desktop/Tesi/Firmware_Software/DAVE project/S2GLP_Pulsed_Doppler/Libraries/XMCLib/inc\xmc4_scu.h **** #endif  
 425:C:/Users/Utente/Desktop/Tesi/Firmware_Software/DAVE project/S2GLP_Pulsed_Doppler/Libraries/XMCLib/inc\xmc4_scu.h **** #if defined(CCU42)
 426:C:/Users/Utente/Desktop/Tesi/Firmware_Software/DAVE project/S2GLP_Pulsed_Doppler/Libraries/XMCLib/inc\xmc4_scu.h ****   XMC_SCU_PERIPHERAL_CLOCK_CCU42  = SCU_CLK_CGATSTAT0_CCU42_Msk,  /**< CCU42 peripheral gating. */
 427:C:/Users/Utente/Desktop/Tesi/Firmware_Software/DAVE project/S2GLP_Pulsed_Doppler/Libraries/XMCLib/inc\xmc4_scu.h **** #endif
 428:C:/Users/Utente/Desktop/Tesi/Firmware_Software/DAVE project/S2GLP_Pulsed_Doppler/Libraries/XMCLib/inc\xmc4_scu.h **** #if defined(CCU80)
 429:C:/Users/Utente/Desktop/Tesi/Firmware_Software/DAVE project/S2GLP_Pulsed_Doppler/Libraries/XMCLib/inc\xmc4_scu.h ****   XMC_SCU_PERIPHERAL_CLOCK_CCU80  = SCU_CLK_CGATSTAT0_CCU80_Msk,  /**< CCU80 peripheral gating. */
 430:C:/Users/Utente/Desktop/Tesi/Firmware_Software/DAVE project/S2GLP_Pulsed_Doppler/Libraries/XMCLib/inc\xmc4_scu.h **** #endif  
 431:C:/Users/Utente/Desktop/Tesi/Firmware_Software/DAVE project/S2GLP_Pulsed_Doppler/Libraries/XMCLib/inc\xmc4_scu.h **** #if defined(CCU81)
 432:C:/Users/Utente/Desktop/Tesi/Firmware_Software/DAVE project/S2GLP_Pulsed_Doppler/Libraries/XMCLib/inc\xmc4_scu.h ****   XMC_SCU_PERIPHERAL_CLOCK_CCU81  = SCU_CLK_CGATSTAT0_CCU81_Msk,  /**< CCU81 peripheral gating. */
 433:C:/Users/Utente/Desktop/Tesi/Firmware_Software/DAVE project/S2GLP_Pulsed_Doppler/Libraries/XMCLib/inc\xmc4_scu.h **** #endif
 434:C:/Users/Utente/Desktop/Tesi/Firmware_Software/DAVE project/S2GLP_Pulsed_Doppler/Libraries/XMCLib/inc\xmc4_scu.h **** #if defined(POSIF0)
 435:C:/Users/Utente/Desktop/Tesi/Firmware_Software/DAVE project/S2GLP_Pulsed_Doppler/Libraries/XMCLib/inc\xmc4_scu.h ****   XMC_SCU_PERIPHERAL_CLOCK_POSIF0 = SCU_CLK_CGATSTAT0_POSIF0_Msk,  /**< POSIF0 peripheral gating. *
 436:C:/Users/Utente/Desktop/Tesi/Firmware_Software/DAVE project/S2GLP_Pulsed_Doppler/Libraries/XMCLib/inc\xmc4_scu.h **** #endif  
 437:C:/Users/Utente/Desktop/Tesi/Firmware_Software/DAVE project/S2GLP_Pulsed_Doppler/Libraries/XMCLib/inc\xmc4_scu.h **** #if defined(POSIF1)
 438:C:/Users/Utente/Desktop/Tesi/Firmware_Software/DAVE project/S2GLP_Pulsed_Doppler/Libraries/XMCLib/inc\xmc4_scu.h ****   XMC_SCU_PERIPHERAL_CLOCK_POSIF1 = SCU_CLK_CGATSTAT0_POSIF1_Msk,   /**< POSIF1 peripheral gating. 
 439:C:/Users/Utente/Desktop/Tesi/Firmware_Software/DAVE project/S2GLP_Pulsed_Doppler/Libraries/XMCLib/inc\xmc4_scu.h **** #endif
 440:C:/Users/Utente/Desktop/Tesi/Firmware_Software/DAVE project/S2GLP_Pulsed_Doppler/Libraries/XMCLib/inc\xmc4_scu.h ****   XMC_SCU_PERIPHERAL_CLOCK_USIC0  = SCU_CLK_CGATSTAT0_USIC0_Msk,   /**< USIC0 peripheral gating. */
 441:C:/Users/Utente/Desktop/Tesi/Firmware_Software/DAVE project/S2GLP_Pulsed_Doppler/Libraries/XMCLib/inc\xmc4_scu.h ****   XMC_SCU_PERIPHERAL_CLOCK_ERU1   = SCU_CLK_CGATSTAT0_ERU1_Msk,    /**< ERU1 peripheral gating. */
 442:C:/Users/Utente/Desktop/Tesi/Firmware_Software/DAVE project/S2GLP_Pulsed_Doppler/Libraries/XMCLib/inc\xmc4_scu.h **** #if defined(HRPWM0)
 443:C:/Users/Utente/Desktop/Tesi/Firmware_Software/DAVE project/S2GLP_Pulsed_Doppler/Libraries/XMCLib/inc\xmc4_scu.h ****   XMC_SCU_PERIPHERAL_CLOCK_HRPWM0 = SCU_CLK_CGATSTAT0_HRPWM0_Msk,  /**< HRPWM0 peripheral gating. *
 444:C:/Users/Utente/Desktop/Tesi/Firmware_Software/DAVE project/S2GLP_Pulsed_Doppler/Libraries/XMCLib/inc\xmc4_scu.h **** #endif
 445:C:/Users/Utente/Desktop/Tesi/Firmware_Software/DAVE project/S2GLP_Pulsed_Doppler/Libraries/XMCLib/inc\xmc4_scu.h **** #if defined(CCU43)
 446:C:/Users/Utente/Desktop/Tesi/Firmware_Software/DAVE project/S2GLP_Pulsed_Doppler/Libraries/XMCLib/inc\xmc4_scu.h ****   XMC_SCU_PERIPHERAL_CLOCK_CCU43  = (SCU_CLK_CGATSTAT1_CCU43_Msk | 0x10000000UL),   /**< CCU43 peri
 447:C:/Users/Utente/Desktop/Tesi/Firmware_Software/DAVE project/S2GLP_Pulsed_Doppler/Libraries/XMCLib/inc\xmc4_scu.h **** #endif
 448:C:/Users/Utente/Desktop/Tesi/Firmware_Software/DAVE project/S2GLP_Pulsed_Doppler/Libraries/XMCLib/inc\xmc4_scu.h **** #if defined(LEDTS0)
 449:C:/Users/Utente/Desktop/Tesi/Firmware_Software/DAVE project/S2GLP_Pulsed_Doppler/Libraries/XMCLib/inc\xmc4_scu.h ****   XMC_SCU_PERIPHERAL_CLOCK_LEDTS0 = (SCU_CLK_CGATSTAT1_LEDTSCU0_Msk | 0x10000000UL), /**< LEDTS0 pe
 450:C:/Users/Utente/Desktop/Tesi/Firmware_Software/DAVE project/S2GLP_Pulsed_Doppler/Libraries/XMCLib/inc\xmc4_scu.h **** #endif  
 451:C:/Users/Utente/Desktop/Tesi/Firmware_Software/DAVE project/S2GLP_Pulsed_Doppler/Libraries/XMCLib/inc\xmc4_scu.h **** #if defined(CAN)
 452:C:/Users/Utente/Desktop/Tesi/Firmware_Software/DAVE project/S2GLP_Pulsed_Doppler/Libraries/XMCLib/inc\xmc4_scu.h ****   XMC_SCU_PERIPHERAL_CLOCK_MCAN   = (SCU_CLK_CGATSTAT1_MCAN0_Msk | 0x10000000UL),   /**< MCAN perip
 453:C:/Users/Utente/Desktop/Tesi/Firmware_Software/DAVE project/S2GLP_Pulsed_Doppler/Libraries/XMCLib/inc\xmc4_scu.h **** #endif
 454:C:/Users/Utente/Desktop/Tesi/Firmware_Software/DAVE project/S2GLP_Pulsed_Doppler/Libraries/XMCLib/inc\xmc4_scu.h **** #if defined(DAC)  
 455:C:/Users/Utente/Desktop/Tesi/Firmware_Software/DAVE project/S2GLP_Pulsed_Doppler/Libraries/XMCLib/inc\xmc4_scu.h ****   XMC_SCU_PERIPHERAL_CLOCK_DAC    = (SCU_CLK_CGATSTAT1_DAC_Msk | 0x10000000UL),     /**< DAC periph
 456:C:/Users/Utente/Desktop/Tesi/Firmware_Software/DAVE project/S2GLP_Pulsed_Doppler/Libraries/XMCLib/inc\xmc4_scu.h **** #endif  
 457:C:/Users/Utente/Desktop/Tesi/Firmware_Software/DAVE project/S2GLP_Pulsed_Doppler/Libraries/XMCLib/inc\xmc4_scu.h **** #if defined(SDMMC)
 458:C:/Users/Utente/Desktop/Tesi/Firmware_Software/DAVE project/S2GLP_Pulsed_Doppler/Libraries/XMCLib/inc\xmc4_scu.h ****   XMC_SCU_PERIPHERAL_CLOCK_SDMMC  = (SCU_CLK_CGATSTAT1_MMCI_Msk | 0x10000000UL),    /**< SDMMC peri
 459:C:/Users/Utente/Desktop/Tesi/Firmware_Software/DAVE project/S2GLP_Pulsed_Doppler/Libraries/XMCLib/inc\xmc4_scu.h **** #endif
 460:C:/Users/Utente/Desktop/Tesi/Firmware_Software/DAVE project/S2GLP_Pulsed_Doppler/Libraries/XMCLib/inc\xmc4_scu.h **** #if defined(USIC1)
 461:C:/Users/Utente/Desktop/Tesi/Firmware_Software/DAVE project/S2GLP_Pulsed_Doppler/Libraries/XMCLib/inc\xmc4_scu.h ****   XMC_SCU_PERIPHERAL_CLOCK_USIC1  = (SCU_CLK_CGATSTAT1_USIC1_Msk | 0x10000000UL),   /**< USIC1 peri
 462:C:/Users/Utente/Desktop/Tesi/Firmware_Software/DAVE project/S2GLP_Pulsed_Doppler/Libraries/XMCLib/inc\xmc4_scu.h **** #endif  
 463:C:/Users/Utente/Desktop/Tesi/Firmware_Software/DAVE project/S2GLP_Pulsed_Doppler/Libraries/XMCLib/inc\xmc4_scu.h **** #if defined(USIC2)
 464:C:/Users/Utente/Desktop/Tesi/Firmware_Software/DAVE project/S2GLP_Pulsed_Doppler/Libraries/XMCLib/inc\xmc4_scu.h ****   XMC_SCU_PERIPHERAL_CLOCK_USIC2  = (SCU_CLK_CGATSTAT1_USIC2_Msk | 0x10000000UL),    /**< USIC2 per
 465:C:/Users/Utente/Desktop/Tesi/Firmware_Software/DAVE project/S2GLP_Pulsed_Doppler/Libraries/XMCLib/inc\xmc4_scu.h **** #endif
 466:C:/Users/Utente/Desktop/Tesi/Firmware_Software/DAVE project/S2GLP_Pulsed_Doppler/Libraries/XMCLib/inc\xmc4_scu.h ****   XMC_SCU_PERIPHERAL_CLOCK_PORTS  = (SCU_CLK_CGATSTAT1_PPORTS_Msk | 0x10000000UL),   /**< PORTS per
 467:C:/Users/Utente/Desktop/Tesi/Firmware_Software/DAVE project/S2GLP_Pulsed_Doppler/Libraries/XMCLib/inc\xmc4_scu.h ****   XMC_SCU_PERIPHERAL_CLOCK_WDT    = (SCU_CLK_CGATSTAT2_WDT_Msk | 0x20000000UL),      /**< WDT perip
 468:C:/Users/Utente/Desktop/Tesi/Firmware_Software/DAVE project/S2GLP_Pulsed_Doppler/Libraries/XMCLib/inc\xmc4_scu.h **** #if defined(ETH0)
 469:C:/Users/Utente/Desktop/Tesi/Firmware_Software/DAVE project/S2GLP_Pulsed_Doppler/Libraries/XMCLib/inc\xmc4_scu.h ****   XMC_SCU_PERIPHERAL_CLOCK_ETH0   = (SCU_CLK_CGATSTAT2_ETH0_Msk | 0x20000000UL),     /**< ETH0 peri
 470:C:/Users/Utente/Desktop/Tesi/Firmware_Software/DAVE project/S2GLP_Pulsed_Doppler/Libraries/XMCLib/inc\xmc4_scu.h **** #endif
 471:C:/Users/Utente/Desktop/Tesi/Firmware_Software/DAVE project/S2GLP_Pulsed_Doppler/Libraries/XMCLib/inc\xmc4_scu.h ****   XMC_SCU_PERIPHERAL_CLOCK_GPDMA0 = (SCU_CLK_CGATSTAT2_DMA0_Msk | 0x20000000UL),     /**< DMA0 peri
 472:C:/Users/Utente/Desktop/Tesi/Firmware_Software/DAVE project/S2GLP_Pulsed_Doppler/Libraries/XMCLib/inc\xmc4_scu.h **** #if defined(GPDMA1)
 473:C:/Users/Utente/Desktop/Tesi/Firmware_Software/DAVE project/S2GLP_Pulsed_Doppler/Libraries/XMCLib/inc\xmc4_scu.h ****   XMC_SCU_PERIPHERAL_CLOCK_GPDMA1 = (SCU_CLK_CGATSTAT2_DMA1_Msk | 0x20000000UL),     /**< DMA1 peri
 474:C:/Users/Utente/Desktop/Tesi/Firmware_Software/DAVE project/S2GLP_Pulsed_Doppler/Libraries/XMCLib/inc\xmc4_scu.h **** #endif
 475:C:/Users/Utente/Desktop/Tesi/Firmware_Software/DAVE project/S2GLP_Pulsed_Doppler/Libraries/XMCLib/inc\xmc4_scu.h **** #if defined(FCE)
 476:C:/Users/Utente/Desktop/Tesi/Firmware_Software/DAVE project/S2GLP_Pulsed_Doppler/Libraries/XMCLib/inc\xmc4_scu.h ****   XMC_SCU_PERIPHERAL_CLOCK_FCE    = (SCU_CLK_CGATSTAT2_FCE_Msk | 0x20000000UL),      /**< FCE perip
 477:C:/Users/Utente/Desktop/Tesi/Firmware_Software/DAVE project/S2GLP_Pulsed_Doppler/Libraries/XMCLib/inc\xmc4_scu.h **** #endif  
 478:C:/Users/Utente/Desktop/Tesi/Firmware_Software/DAVE project/S2GLP_Pulsed_Doppler/Libraries/XMCLib/inc\xmc4_scu.h **** #if defined(USB0)
 479:C:/Users/Utente/Desktop/Tesi/Firmware_Software/DAVE project/S2GLP_Pulsed_Doppler/Libraries/XMCLib/inc\xmc4_scu.h ****   XMC_SCU_PERIPHERAL_CLOCK_USB0   = (SCU_CLK_CGATSTAT2_USB_Msk | 0x20000000UL),      /**< USB0 peri
 480:C:/Users/Utente/Desktop/Tesi/Firmware_Software/DAVE project/S2GLP_Pulsed_Doppler/Libraries/XMCLib/inc\xmc4_scu.h **** #endif  
 481:C:/Users/Utente/Desktop/Tesi/Firmware_Software/DAVE project/S2GLP_Pulsed_Doppler/Libraries/XMCLib/inc\xmc4_scu.h **** #if defined(ECAT0)
 482:C:/Users/Utente/Desktop/Tesi/Firmware_Software/DAVE project/S2GLP_Pulsed_Doppler/Libraries/XMCLib/inc\xmc4_scu.h ****   XMC_SCU_PERIPHERAL_CLOCK_ECAT0   = (SCU_CLK_CGATSTAT2_ECAT0_Msk | 0x20000000UL),      /**< ECAT0 
 483:C:/Users/Utente/Desktop/Tesi/Firmware_Software/DAVE project/S2GLP_Pulsed_Doppler/Libraries/XMCLib/inc\xmc4_scu.h **** #endif  
 484:C:/Users/Utente/Desktop/Tesi/Firmware_Software/DAVE project/S2GLP_Pulsed_Doppler/Libraries/XMCLib/inc\xmc4_scu.h **** #if defined(EBU)
 485:C:/Users/Utente/Desktop/Tesi/Firmware_Software/DAVE project/S2GLP_Pulsed_Doppler/Libraries/XMCLib/inc\xmc4_scu.h ****   XMC_SCU_PERIPHERAL_CLOCK_EBU    = (SCU_CLK_CGATSTAT3_EBU_Msk | 0x30000000UL)       /**< EBU perip
 486:C:/Users/Utente/Desktop/Tesi/Firmware_Software/DAVE project/S2GLP_Pulsed_Doppler/Libraries/XMCLib/inc\xmc4_scu.h **** #endif
 487:C:/Users/Utente/Desktop/Tesi/Firmware_Software/DAVE project/S2GLP_Pulsed_Doppler/Libraries/XMCLib/inc\xmc4_scu.h **** } XMC_SCU_PERIPHERAL_CLOCK_t;
 488:C:/Users/Utente/Desktop/Tesi/Firmware_Software/DAVE project/S2GLP_Pulsed_Doppler/Libraries/XMCLib/inc\xmc4_scu.h **** #endif
 489:C:/Users/Utente/Desktop/Tesi/Firmware_Software/DAVE project/S2GLP_Pulsed_Doppler/Libraries/XMCLib/inc\xmc4_scu.h **** 
 490:C:/Users/Utente/Desktop/Tesi/Firmware_Software/DAVE project/S2GLP_Pulsed_Doppler/Libraries/XMCLib/inc\xmc4_scu.h **** /**
 491:C:/Users/Utente/Desktop/Tesi/Firmware_Software/DAVE project/S2GLP_Pulsed_Doppler/Libraries/XMCLib/inc\xmc4_scu.h ****  *  Defines options for system clock (fSYS) source. These enums are used to configure \a SYSSEL bit
 492:C:/Users/Utente/Desktop/Tesi/Firmware_Software/DAVE project/S2GLP_Pulsed_Doppler/Libraries/XMCLib/inc\xmc4_scu.h ****  *  Clock Control Register. 
 493:C:/Users/Utente/Desktop/Tesi/Firmware_Software/DAVE project/S2GLP_Pulsed_Doppler/Libraries/XMCLib/inc\xmc4_scu.h ****  *  Use type \a XMC_SCU_CLOCK_SYSCLKSRC_t for accessing these enum parameters.
 494:C:/Users/Utente/Desktop/Tesi/Firmware_Software/DAVE project/S2GLP_Pulsed_Doppler/Libraries/XMCLib/inc\xmc4_scu.h ****  */ 
 495:C:/Users/Utente/Desktop/Tesi/Firmware_Software/DAVE project/S2GLP_Pulsed_Doppler/Libraries/XMCLib/inc\xmc4_scu.h **** typedef enum XMC_SCU_CLOCK_SYSCLKSRC
 496:C:/Users/Utente/Desktop/Tesi/Firmware_Software/DAVE project/S2GLP_Pulsed_Doppler/Libraries/XMCLib/inc\xmc4_scu.h **** {
 497:C:/Users/Utente/Desktop/Tesi/Firmware_Software/DAVE project/S2GLP_Pulsed_Doppler/Libraries/XMCLib/inc\xmc4_scu.h ****   XMC_SCU_CLOCK_SYSCLKSRC_OFI = (0UL << SCU_CLK_SYSCLKCR_SYSSEL_Pos), /**< Internal Fast Clock (fOF
 498:C:/Users/Utente/Desktop/Tesi/Firmware_Software/DAVE project/S2GLP_Pulsed_Doppler/Libraries/XMCLib/inc\xmc4_scu.h ****                                                                            source for system clock 
 499:C:/Users/Utente/Desktop/Tesi/Firmware_Software/DAVE project/S2GLP_Pulsed_Doppler/Libraries/XMCLib/inc\xmc4_scu.h ****   XMC_SCU_CLOCK_SYSCLKSRC_PLL = (1UL << SCU_CLK_SYSCLKCR_SYSSEL_Pos)  /**< PLL output (fPLL) as a
 500:C:/Users/Utente/Desktop/Tesi/Firmware_Software/DAVE project/S2GLP_Pulsed_Doppler/Libraries/XMCLib/inc\xmc4_scu.h ****                                                                            source for system clock 
 501:C:/Users/Utente/Desktop/Tesi/Firmware_Software/DAVE project/S2GLP_Pulsed_Doppler/Libraries/XMCLib/inc\xmc4_scu.h **** } XMC_SCU_CLOCK_SYSCLKSRC_t;
 502:C:/Users/Utente/Desktop/Tesi/Firmware_Software/DAVE project/S2GLP_Pulsed_Doppler/Libraries/XMCLib/inc\xmc4_scu.h **** 
 503:C:/Users/Utente/Desktop/Tesi/Firmware_Software/DAVE project/S2GLP_Pulsed_Doppler/Libraries/XMCLib/inc\xmc4_scu.h **** /**
 504:C:/Users/Utente/Desktop/Tesi/Firmware_Software/DAVE project/S2GLP_Pulsed_Doppler/Libraries/XMCLib/inc\xmc4_scu.h ****  *  Defines options for selecting the P-Divider input frequency. These enums are used to configure 
 505:C:/Users/Utente/Desktop/Tesi/Firmware_Software/DAVE project/S2GLP_Pulsed_Doppler/Libraries/XMCLib/inc\xmc4_scu.h ****  *  register. 
 506:C:/Users/Utente/Desktop/Tesi/Firmware_Software/DAVE project/S2GLP_Pulsed_Doppler/Libraries/XMCLib/inc\xmc4_scu.h ****  *  Use type \a XMC_SCU_CLOCK_OSCCLKSRC_t for accessing these enum parameters.
 507:C:/Users/Utente/Desktop/Tesi/Firmware_Software/DAVE project/S2GLP_Pulsed_Doppler/Libraries/XMCLib/inc\xmc4_scu.h ****  */ 
 508:C:/Users/Utente/Desktop/Tesi/Firmware_Software/DAVE project/S2GLP_Pulsed_Doppler/Libraries/XMCLib/inc\xmc4_scu.h **** typedef enum XMC_SCU_CLOCK_SYSPLLCLKSRC
 509:C:/Users/Utente/Desktop/Tesi/Firmware_Software/DAVE project/S2GLP_Pulsed_Doppler/Libraries/XMCLib/inc\xmc4_scu.h **** {
 510:C:/Users/Utente/Desktop/Tesi/Firmware_Software/DAVE project/S2GLP_Pulsed_Doppler/Libraries/XMCLib/inc\xmc4_scu.h ****   XMC_SCU_CLOCK_SYSPLLCLKSRC_OSCHP = 0UL,  /**< External crystal oscillator
 511:C:/Users/Utente/Desktop/Tesi/Firmware_Software/DAVE project/S2GLP_Pulsed_Doppler/Libraries/XMCLib/inc\xmc4_scu.h ****                                                 (fOHP) as the source for P-Divider. */
 512:C:/Users/Utente/Desktop/Tesi/Firmware_Software/DAVE project/S2GLP_Pulsed_Doppler/Libraries/XMCLib/inc\xmc4_scu.h ****   XMC_SCU_CLOCK_SYSPLLCLKSRC_OFI = SCU_PLL_PLLCON2_PINSEL_Msk | SCU_PLL_PLLCON2_K1INSEL_Msk /**< Ba
 513:C:/Users/Utente/Desktop/Tesi/Firmware_Software/DAVE project/S2GLP_Pulsed_Doppler/Libraries/XMCLib/inc\xmc4_scu.h ****                                                                              as the source for P-Di
 514:C:/Users/Utente/Desktop/Tesi/Firmware_Software/DAVE project/S2GLP_Pulsed_Doppler/Libraries/XMCLib/inc\xmc4_scu.h **** } XMC_SCU_CLOCK_SYSPLLCLKSRC_t;
 515:C:/Users/Utente/Desktop/Tesi/Firmware_Software/DAVE project/S2GLP_Pulsed_Doppler/Libraries/XMCLib/inc\xmc4_scu.h **** 
 516:C:/Users/Utente/Desktop/Tesi/Firmware_Software/DAVE project/S2GLP_Pulsed_Doppler/Libraries/XMCLib/inc\xmc4_scu.h **** /**
 517:C:/Users/Utente/Desktop/Tesi/Firmware_Software/DAVE project/S2GLP_Pulsed_Doppler/Libraries/XMCLib/inc\xmc4_scu.h ****  * Defines options for selecting the USB clock source(fUSB/fSDMMC).
 518:C:/Users/Utente/Desktop/Tesi/Firmware_Software/DAVE project/S2GLP_Pulsed_Doppler/Libraries/XMCLib/inc\xmc4_scu.h ****  * These enums are used to configure \a USBSEL bits of \a USBCLKCR
 519:C:/Users/Utente/Desktop/Tesi/Firmware_Software/DAVE project/S2GLP_Pulsed_Doppler/Libraries/XMCLib/inc\xmc4_scu.h ****  * register. User can choose either fPLL or fUSBPLL clock as a source for USB clock. 
 520:C:/Users/Utente/Desktop/Tesi/Firmware_Software/DAVE project/S2GLP_Pulsed_Doppler/Libraries/XMCLib/inc\xmc4_scu.h ****  * Use type \a XMC_SCU_CLOCK_USBCLKSRC_t for accessing these enum parameters.
 521:C:/Users/Utente/Desktop/Tesi/Firmware_Software/DAVE project/S2GLP_Pulsed_Doppler/Libraries/XMCLib/inc\xmc4_scu.h ****  */ 
 522:C:/Users/Utente/Desktop/Tesi/Firmware_Software/DAVE project/S2GLP_Pulsed_Doppler/Libraries/XMCLib/inc\xmc4_scu.h **** typedef enum XMC_SCU_CLOCK_USBCLKSRC
 523:C:/Users/Utente/Desktop/Tesi/Firmware_Software/DAVE project/S2GLP_Pulsed_Doppler/Libraries/XMCLib/inc\xmc4_scu.h **** {
 524:C:/Users/Utente/Desktop/Tesi/Firmware_Software/DAVE project/S2GLP_Pulsed_Doppler/Libraries/XMCLib/inc\xmc4_scu.h ****   XMC_SCU_CLOCK_USBCLKSRC_USBPLL = (0UL << SCU_CLK_USBCLKCR_USBSEL_Pos), /**< USB PLL(fUSB PLL) as 
 525:C:/Users/Utente/Desktop/Tesi/Firmware_Software/DAVE project/S2GLP_Pulsed_Doppler/Libraries/XMCLib/inc\xmc4_scu.h ****                                                                            source for USB clock (fU
 526:C:/Users/Utente/Desktop/Tesi/Firmware_Software/DAVE project/S2GLP_Pulsed_Doppler/Libraries/XMCLib/inc\xmc4_scu.h ****   XMC_SCU_CLOCK_USBCLKSRC_SYSPLL = (1UL << SCU_CLK_USBCLKCR_USBSEL_Pos)  /**< Main PLL output (fPLL
 527:C:/Users/Utente/Desktop/Tesi/Firmware_Software/DAVE project/S2GLP_Pulsed_Doppler/Libraries/XMCLib/inc\xmc4_scu.h ****                                                                            source for USB clock (fU
 528:C:/Users/Utente/Desktop/Tesi/Firmware_Software/DAVE project/S2GLP_Pulsed_Doppler/Libraries/XMCLib/inc\xmc4_scu.h **** } XMC_SCU_CLOCK_USBCLKSRC_t;
 529:C:/Users/Utente/Desktop/Tesi/Firmware_Software/DAVE project/S2GLP_Pulsed_Doppler/Libraries/XMCLib/inc\xmc4_scu.h **** 
 530:C:/Users/Utente/Desktop/Tesi/Firmware_Software/DAVE project/S2GLP_Pulsed_Doppler/Libraries/XMCLib/inc\xmc4_scu.h **** #if defined(ECAT0) 
 531:C:/Users/Utente/Desktop/Tesi/Firmware_Software/DAVE project/S2GLP_Pulsed_Doppler/Libraries/XMCLib/inc\xmc4_scu.h **** /**
 532:C:/Users/Utente/Desktop/Tesi/Firmware_Software/DAVE project/S2GLP_Pulsed_Doppler/Libraries/XMCLib/inc\xmc4_scu.h ****  * Defines options for selecting the ECAT clock source.
 533:C:/Users/Utente/Desktop/Tesi/Firmware_Software/DAVE project/S2GLP_Pulsed_Doppler/Libraries/XMCLib/inc\xmc4_scu.h ****  */ 
 534:C:/Users/Utente/Desktop/Tesi/Firmware_Software/DAVE project/S2GLP_Pulsed_Doppler/Libraries/XMCLib/inc\xmc4_scu.h **** typedef enum XMC_SCU_CLOCK_ECATCLKSRC
 535:C:/Users/Utente/Desktop/Tesi/Firmware_Software/DAVE project/S2GLP_Pulsed_Doppler/Libraries/XMCLib/inc\xmc4_scu.h **** {
 536:C:/Users/Utente/Desktop/Tesi/Firmware_Software/DAVE project/S2GLP_Pulsed_Doppler/Libraries/XMCLib/inc\xmc4_scu.h ****   XMC_SCU_CLOCK_ECATCLKSRC_USBPLL = (0UL << SCU_CLK_ECATCLKCR_ECATSEL_Pos), /**< USB PLL (fUSBPLL) 
 537:C:/Users/Utente/Desktop/Tesi/Firmware_Software/DAVE project/S2GLP_Pulsed_Doppler/Libraries/XMCLib/inc\xmc4_scu.h ****   XMC_SCU_CLOCK_ECATCLKSRC_SYSPLL = (1UL << SCU_CLK_ECATCLKCR_ECATSEL_Pos)  /**< Main PLL output (f
 538:C:/Users/Utente/Desktop/Tesi/Firmware_Software/DAVE project/S2GLP_Pulsed_Doppler/Libraries/XMCLib/inc\xmc4_scu.h **** } XMC_SCU_CLOCK_ECATCLKSRC_t;
 539:C:/Users/Utente/Desktop/Tesi/Firmware_Software/DAVE project/S2GLP_Pulsed_Doppler/Libraries/XMCLib/inc\xmc4_scu.h **** #endif
 540:C:/Users/Utente/Desktop/Tesi/Firmware_Software/DAVE project/S2GLP_Pulsed_Doppler/Libraries/XMCLib/inc\xmc4_scu.h **** 
 541:C:/Users/Utente/Desktop/Tesi/Firmware_Software/DAVE project/S2GLP_Pulsed_Doppler/Libraries/XMCLib/inc\xmc4_scu.h **** /**
 542:C:/Users/Utente/Desktop/Tesi/Firmware_Software/DAVE project/S2GLP_Pulsed_Doppler/Libraries/XMCLib/inc\xmc4_scu.h ****  *  Defines options for selecting the source of WDT clock(fWDT). These enums are used to configure 
 543:C:/Users/Utente/Desktop/Tesi/Firmware_Software/DAVE project/S2GLP_Pulsed_Doppler/Libraries/XMCLib/inc\xmc4_scu.h ****  *  register. User can choose either fOFI or fPLL or fSTDBY clock as a source for WDT clock. 
 544:C:/Users/Utente/Desktop/Tesi/Firmware_Software/DAVE project/S2GLP_Pulsed_Doppler/Libraries/XMCLib/inc\xmc4_scu.h ****  *  Use type \a XMC_SCU_CLOCK_USBCLKSRC_t for accessing these enum parameters.
 545:C:/Users/Utente/Desktop/Tesi/Firmware_Software/DAVE project/S2GLP_Pulsed_Doppler/Libraries/XMCLib/inc\xmc4_scu.h ****  */ 
 546:C:/Users/Utente/Desktop/Tesi/Firmware_Software/DAVE project/S2GLP_Pulsed_Doppler/Libraries/XMCLib/inc\xmc4_scu.h **** typedef enum XMC_SCU_CLOCK_WDTCLKSRC
 547:C:/Users/Utente/Desktop/Tesi/Firmware_Software/DAVE project/S2GLP_Pulsed_Doppler/Libraries/XMCLib/inc\xmc4_scu.h **** {
 548:C:/Users/Utente/Desktop/Tesi/Firmware_Software/DAVE project/S2GLP_Pulsed_Doppler/Libraries/XMCLib/inc\xmc4_scu.h ****   XMC_SCU_CLOCK_WDTCLKSRC_OFI = (0UL << SCU_CLK_WDTCLKCR_WDTSEL_Pos),  /**< Internal Fast Clock 
 549:C:/Users/Utente/Desktop/Tesi/Firmware_Software/DAVE project/S2GLP_Pulsed_Doppler/Libraries/XMCLib/inc\xmc4_scu.h ****                                                                            (fOFI) as the source for
 550:C:/Users/Utente/Desktop/Tesi/Firmware_Software/DAVE project/S2GLP_Pulsed_Doppler/Libraries/XMCLib/inc\xmc4_scu.h ****   XMC_SCU_CLOCK_WDTCLKSRC_STDBY = (1UL << SCU_CLK_WDTCLKCR_WDTSEL_Pos), /**< Standby clock 
 551:C:/Users/Utente/Desktop/Tesi/Firmware_Software/DAVE project/S2GLP_Pulsed_Doppler/Libraries/XMCLib/inc\xmc4_scu.h ****                                                                            (fSTDBY) as the source f
 552:C:/Users/Utente/Desktop/Tesi/Firmware_Software/DAVE project/S2GLP_Pulsed_Doppler/Libraries/XMCLib/inc\xmc4_scu.h ****   XMC_SCU_CLOCK_WDTCLKSRC_PLL = (2UL << SCU_CLK_WDTCLKCR_WDTSEL_Pos)   /**< PLL output (fPLL) as th
 553:C:/Users/Utente/Desktop/Tesi/Firmware_Software/DAVE project/S2GLP_Pulsed_Doppler/Libraries/XMCLib/inc\xmc4_scu.h ****                                                                            source for WDT clock (fW
 554:C:/Users/Utente/Desktop/Tesi/Firmware_Software/DAVE project/S2GLP_Pulsed_Doppler/Libraries/XMCLib/inc\xmc4_scu.h **** } XMC_SCU_CLOCK_WDTCLKSRC_t;
 555:C:/Users/Utente/Desktop/Tesi/Firmware_Software/DAVE project/S2GLP_Pulsed_Doppler/Libraries/XMCLib/inc\xmc4_scu.h **** 
 556:C:/Users/Utente/Desktop/Tesi/Firmware_Software/DAVE project/S2GLP_Pulsed_Doppler/Libraries/XMCLib/inc\xmc4_scu.h **** /**
 557:C:/Users/Utente/Desktop/Tesi/Firmware_Software/DAVE project/S2GLP_Pulsed_Doppler/Libraries/XMCLib/inc\xmc4_scu.h ****  *  Defines options for selecting the source of external clock out (fEXT). These enums are used to 
 558:C:/Users/Utente/Desktop/Tesi/Firmware_Software/DAVE project/S2GLP_Pulsed_Doppler/Libraries/XMCLib/inc\xmc4_scu.h ****  *  register. User can choose either fSYS or fPLL or fUSBPLL clock as a source for external clock o
 559:C:/Users/Utente/Desktop/Tesi/Firmware_Software/DAVE project/S2GLP_Pulsed_Doppler/Libraries/XMCLib/inc\xmc4_scu.h ****  *  Use type \a XMC_SCU_CLOCK_EXTOUTCLKSRC_t for accessing these enum parameters.
 560:C:/Users/Utente/Desktop/Tesi/Firmware_Software/DAVE project/S2GLP_Pulsed_Doppler/Libraries/XMCLib/inc\xmc4_scu.h ****  */ 
 561:C:/Users/Utente/Desktop/Tesi/Firmware_Software/DAVE project/S2GLP_Pulsed_Doppler/Libraries/XMCLib/inc\xmc4_scu.h **** typedef enum XMC_SCU_CLOCK_EXTOUTCLKSRC
 562:C:/Users/Utente/Desktop/Tesi/Firmware_Software/DAVE project/S2GLP_Pulsed_Doppler/Libraries/XMCLib/inc\xmc4_scu.h **** {
 563:C:/Users/Utente/Desktop/Tesi/Firmware_Software/DAVE project/S2GLP_Pulsed_Doppler/Libraries/XMCLib/inc\xmc4_scu.h ****   XMC_SCU_CLOCK_EXTOUTCLKSRC_SYS = (0UL << SCU_CLK_EXTCLKCR_ECKSEL_Pos),  /**< System clock (fSYS) 
 564:C:/Users/Utente/Desktop/Tesi/Firmware_Software/DAVE project/S2GLP_Pulsed_Doppler/Libraries/XMCLib/inc\xmc4_scu.h ****                                                                             the source for external
 565:C:/Users/Utente/Desktop/Tesi/Firmware_Software/DAVE project/S2GLP_Pulsed_Doppler/Libraries/XMCLib/inc\xmc4_scu.h ****   XMC_SCU_CLOCK_EXTOUTCLKSRC_USB = (2UL << SCU_CLK_EXTCLKCR_ECKSEL_Pos), /**< USB PLL output(fUSB P
 566:C:/Users/Utente/Desktop/Tesi/Firmware_Software/DAVE project/S2GLP_Pulsed_Doppler/Libraries/XMCLib/inc\xmc4_scu.h ****                                                                            source for external cloc
 567:C:/Users/Utente/Desktop/Tesi/Firmware_Software/DAVE project/S2GLP_Pulsed_Doppler/Libraries/XMCLib/inc\xmc4_scu.h ****   XMC_SCU_CLOCK_EXTOUTCLKSRC_PLL = (3UL << SCU_CLK_EXTCLKCR_ECKSEL_Pos), /**< Main PLL output(fPLL)
 568:C:/Users/Utente/Desktop/Tesi/Firmware_Software/DAVE project/S2GLP_Pulsed_Doppler/Libraries/XMCLib/inc\xmc4_scu.h ****                                                                            source for external cloc
 569:C:/Users/Utente/Desktop/Tesi/Firmware_Software/DAVE project/S2GLP_Pulsed_Doppler/Libraries/XMCLib/inc\xmc4_scu.h **** #if ((UC_SERIES == XMC42) || (UC_SERIES == XMC41))
 570:C:/Users/Utente/Desktop/Tesi/Firmware_Software/DAVE project/S2GLP_Pulsed_Doppler/Libraries/XMCLib/inc\xmc4_scu.h ****   XMC_SCU_CLOCK_EXTOUTCLKSRC_STDBY = (4UL << SCU_CLK_EXTCLKCR_ECKSEL_Pos), /**< Standby clock(fSTDB
 571:C:/Users/Utente/Desktop/Tesi/Firmware_Software/DAVE project/S2GLP_Pulsed_Doppler/Libraries/XMCLib/inc\xmc4_scu.h ****                                                                            source for external cloc
 572:C:/Users/Utente/Desktop/Tesi/Firmware_Software/DAVE project/S2GLP_Pulsed_Doppler/Libraries/XMCLib/inc\xmc4_scu.h **** #endif
 573:C:/Users/Utente/Desktop/Tesi/Firmware_Software/DAVE project/S2GLP_Pulsed_Doppler/Libraries/XMCLib/inc\xmc4_scu.h **** } XMC_SCU_CLOCK_EXTOUTCLKSRC_t;
 574:C:/Users/Utente/Desktop/Tesi/Firmware_Software/DAVE project/S2GLP_Pulsed_Doppler/Libraries/XMCLib/inc\xmc4_scu.h **** 
 575:C:/Users/Utente/Desktop/Tesi/Firmware_Software/DAVE project/S2GLP_Pulsed_Doppler/Libraries/XMCLib/inc\xmc4_scu.h **** /**
 576:C:/Users/Utente/Desktop/Tesi/Firmware_Software/DAVE project/S2GLP_Pulsed_Doppler/Libraries/XMCLib/inc\xmc4_scu.h ****  *  Defines options for selecting the source of RTC Clock (fRTC). These enums are used to configure
 577:C:/Users/Utente/Desktop/Tesi/Firmware_Software/DAVE project/S2GLP_Pulsed_Doppler/Libraries/XMCLib/inc\xmc4_scu.h ****  *  User can choose either fOSI or fULP clock as a source for RTC Clock (fRTC).
 578:C:/Users/Utente/Desktop/Tesi/Firmware_Software/DAVE project/S2GLP_Pulsed_Doppler/Libraries/XMCLib/inc\xmc4_scu.h ****  *  Use type \a XMC_SCU_HIB_RTCCLKSRC_t for accessing these enum parameters.
 579:C:/Users/Utente/Desktop/Tesi/Firmware_Software/DAVE project/S2GLP_Pulsed_Doppler/Libraries/XMCLib/inc\xmc4_scu.h ****  */
 580:C:/Users/Utente/Desktop/Tesi/Firmware_Software/DAVE project/S2GLP_Pulsed_Doppler/Libraries/XMCLib/inc\xmc4_scu.h **** typedef enum XMC_SCU_HIB_RTCCLKSRC
 581:C:/Users/Utente/Desktop/Tesi/Firmware_Software/DAVE project/S2GLP_Pulsed_Doppler/Libraries/XMCLib/inc\xmc4_scu.h **** {
 582:C:/Users/Utente/Desktop/Tesi/Firmware_Software/DAVE project/S2GLP_Pulsed_Doppler/Libraries/XMCLib/inc\xmc4_scu.h ****   XMC_SCU_HIB_RTCCLKSRC_OSI = (0UL << SCU_HIBERNATE_HDCR_RCS_Pos), /**< Internal Slow Clock
 583:C:/Users/Utente/Desktop/Tesi/Firmware_Software/DAVE project/S2GLP_Pulsed_Doppler/Libraries/XMCLib/inc\xmc4_scu.h ****                                                                          (fOSI) as the source for R
 584:C:/Users/Utente/Desktop/Tesi/Firmware_Software/DAVE project/S2GLP_Pulsed_Doppler/Libraries/XMCLib/inc\xmc4_scu.h ****   XMC_SCU_HIB_RTCCLKSRC_ULP = (1UL << SCU_HIBERNATE_HDCR_RCS_Pos) /**< Ultra Low Power Clock (fULP)
 585:C:/Users/Utente/Desktop/Tesi/Firmware_Software/DAVE project/S2GLP_Pulsed_Doppler/Libraries/XMCLib/inc\xmc4_scu.h ****                                                                         as the source for RTC Clock
 586:C:/Users/Utente/Desktop/Tesi/Firmware_Software/DAVE project/S2GLP_Pulsed_Doppler/Libraries/XMCLib/inc\xmc4_scu.h **** } XMC_SCU_HIB_RTCCLKSRC_t;
 587:C:/Users/Utente/Desktop/Tesi/Firmware_Software/DAVE project/S2GLP_Pulsed_Doppler/Libraries/XMCLib/inc\xmc4_scu.h **** 
 588:C:/Users/Utente/Desktop/Tesi/Firmware_Software/DAVE project/S2GLP_Pulsed_Doppler/Libraries/XMCLib/inc\xmc4_scu.h **** /**
 589:C:/Users/Utente/Desktop/Tesi/Firmware_Software/DAVE project/S2GLP_Pulsed_Doppler/Libraries/XMCLib/inc\xmc4_scu.h ****  *  Defines options for selecting the source of Standby Clock (fSTDBY). These enums are used to con
 590:C:/Users/Utente/Desktop/Tesi/Firmware_Software/DAVE project/S2GLP_Pulsed_Doppler/Libraries/XMCLib/inc\xmc4_scu.h ****  *  register. User can choose either fOSI or fULP clock as a source for Standby Clock (fSTDBY).
 591:C:/Users/Utente/Desktop/Tesi/Firmware_Software/DAVE project/S2GLP_Pulsed_Doppler/Libraries/XMCLib/inc\xmc4_scu.h ****  *  Use type \a XMC_SCU_HIB_STDBYCLKSRC_t for accessing these enum parameters.
 592:C:/Users/Utente/Desktop/Tesi/Firmware_Software/DAVE project/S2GLP_Pulsed_Doppler/Libraries/XMCLib/inc\xmc4_scu.h ****  */
 593:C:/Users/Utente/Desktop/Tesi/Firmware_Software/DAVE project/S2GLP_Pulsed_Doppler/Libraries/XMCLib/inc\xmc4_scu.h **** typedef enum XMC_SCU_HIB_STDBYCLKSRC
 594:C:/Users/Utente/Desktop/Tesi/Firmware_Software/DAVE project/S2GLP_Pulsed_Doppler/Libraries/XMCLib/inc\xmc4_scu.h **** {
 595:C:/Users/Utente/Desktop/Tesi/Firmware_Software/DAVE project/S2GLP_Pulsed_Doppler/Libraries/XMCLib/inc\xmc4_scu.h ****   XMC_SCU_HIB_STDBYCLKSRC_OSI = (0UL << SCU_HIBERNATE_HDCR_STDBYSEL_Pos), /**< Internal Slow Clock 
 596:C:/Users/Utente/Desktop/Tesi/Firmware_Software/DAVE project/S2GLP_Pulsed_Doppler/Libraries/XMCLib/inc\xmc4_scu.h ****                                                                           (fOSI) as the source for 
 597:C:/Users/Utente/Desktop/Tesi/Firmware_Software/DAVE project/S2GLP_Pulsed_Doppler/Libraries/XMCLib/inc\xmc4_scu.h ****                                                                           (fSTDBY). */
 598:C:/Users/Utente/Desktop/Tesi/Firmware_Software/DAVE project/S2GLP_Pulsed_Doppler/Libraries/XMCLib/inc\xmc4_scu.h ****   XMC_SCU_HIB_STDBYCLKSRC_OSCULP = (1UL << SCU_HIBERNATE_HDCR_STDBYSEL_Pos) /**< Ultra Low Power Cl
 599:C:/Users/Utente/Desktop/Tesi/Firmware_Software/DAVE project/S2GLP_Pulsed_Doppler/Libraries/XMCLib/inc\xmc4_scu.h ****                                                                           (fULP) as the source for 
 600:C:/Users/Utente/Desktop/Tesi/Firmware_Software/DAVE project/S2GLP_Pulsed_Doppler/Libraries/XMCLib/inc\xmc4_scu.h ****                                                                           (fSTDBY). */
 601:C:/Users/Utente/Desktop/Tesi/Firmware_Software/DAVE project/S2GLP_Pulsed_Doppler/Libraries/XMCLib/inc\xmc4_scu.h **** } XMC_SCU_HIB_STDBYCLKSRC_t;
 602:C:/Users/Utente/Desktop/Tesi/Firmware_Software/DAVE project/S2GLP_Pulsed_Doppler/Libraries/XMCLib/inc\xmc4_scu.h **** 
 603:C:/Users/Utente/Desktop/Tesi/Firmware_Software/DAVE project/S2GLP_Pulsed_Doppler/Libraries/XMCLib/inc\xmc4_scu.h **** /**
 604:C:/Users/Utente/Desktop/Tesi/Firmware_Software/DAVE project/S2GLP_Pulsed_Doppler/Libraries/XMCLib/inc\xmc4_scu.h ****  *  Defines options for backup clock trimming. These enums are used to configure \a AOTREN  \a FOTR
 605:C:/Users/Utente/Desktop/Tesi/Firmware_Software/DAVE project/S2GLP_Pulsed_Doppler/Libraries/XMCLib/inc\xmc4_scu.h ****  *  PLLCON0 register. Use type \a XMC_SCU_CLOCK_BACKUP_TRIM_t for accessing these enum parameters.
 606:C:/Users/Utente/Desktop/Tesi/Firmware_Software/DAVE project/S2GLP_Pulsed_Doppler/Libraries/XMCLib/inc\xmc4_scu.h ****  */
 607:C:/Users/Utente/Desktop/Tesi/Firmware_Software/DAVE project/S2GLP_Pulsed_Doppler/Libraries/XMCLib/inc\xmc4_scu.h **** typedef enum XMC_SCU_CLOCK_FOFI_CALIBRATION_MODE
 608:C:/Users/Utente/Desktop/Tesi/Firmware_Software/DAVE project/S2GLP_Pulsed_Doppler/Libraries/XMCLib/inc\xmc4_scu.h **** {
 609:C:/Users/Utente/Desktop/Tesi/Firmware_Software/DAVE project/S2GLP_Pulsed_Doppler/Libraries/XMCLib/inc\xmc4_scu.h ****   XMC_SCU_CLOCK_FOFI_CALIBRATION_MODE_FACTORY   = 0UL,  /**< Factory Oscillator Calibration: 
 610:C:/Users/Utente/Desktop/Tesi/Firmware_Software/DAVE project/S2GLP_Pulsed_Doppler/Libraries/XMCLib/inc\xmc4_scu.h ****                                                         Force adjustment of the internal oscillator
 611:C:/Users/Utente/Desktop/Tesi/Firmware_Software/DAVE project/S2GLP_Pulsed_Doppler/Libraries/XMCLib/inc\xmc4_scu.h ****   XMC_SCU_CLOCK_FOFI_CALIBRATION_MODE_AUTOMATIC = 1UL   /**<  Automatic Oscillator Calibration adju
 612:C:/Users/Utente/Desktop/Tesi/Firmware_Software/DAVE project/S2GLP_Pulsed_Doppler/Libraries/XMCLib/inc\xmc4_scu.h **** } XMC_SCU_CLOCK_FOFI_CALIBRATION_MODE_t;
 613:C:/Users/Utente/Desktop/Tesi/Firmware_Software/DAVE project/S2GLP_Pulsed_Doppler/Libraries/XMCLib/inc\xmc4_scu.h **** 
 614:C:/Users/Utente/Desktop/Tesi/Firmware_Software/DAVE project/S2GLP_Pulsed_Doppler/Libraries/XMCLib/inc\xmc4_scu.h **** 
 615:C:/Users/Utente/Desktop/Tesi/Firmware_Software/DAVE project/S2GLP_Pulsed_Doppler/Libraries/XMCLib/inc\xmc4_scu.h **** /**
 616:C:/Users/Utente/Desktop/Tesi/Firmware_Software/DAVE project/S2GLP_Pulsed_Doppler/Libraries/XMCLib/inc\xmc4_scu.h ****  *  Defines options for selecting device boot mode. These enums are used to configure \a SWCON bits
 617:C:/Users/Utente/Desktop/Tesi/Firmware_Software/DAVE project/S2GLP_Pulsed_Doppler/Libraries/XMCLib/inc\xmc4_scu.h ****  *  User can choose among various boot modes by configuring SWCON bits.
 618:C:/Users/Utente/Desktop/Tesi/Firmware_Software/DAVE project/S2GLP_Pulsed_Doppler/Libraries/XMCLib/inc\xmc4_scu.h ****  *  Use type \a XMC_SCU_BOOTMODE_t for accessing these enum parameters.
 619:C:/Users/Utente/Desktop/Tesi/Firmware_Software/DAVE project/S2GLP_Pulsed_Doppler/Libraries/XMCLib/inc\xmc4_scu.h ****  */
 620:C:/Users/Utente/Desktop/Tesi/Firmware_Software/DAVE project/S2GLP_Pulsed_Doppler/Libraries/XMCLib/inc\xmc4_scu.h **** typedef enum XMC_SCU_BOOTMODE 
 621:C:/Users/Utente/Desktop/Tesi/Firmware_Software/DAVE project/S2GLP_Pulsed_Doppler/Libraries/XMCLib/inc\xmc4_scu.h **** {
 622:C:/Users/Utente/Desktop/Tesi/Firmware_Software/DAVE project/S2GLP_Pulsed_Doppler/Libraries/XMCLib/inc\xmc4_scu.h ****   XMC_SCU_BOOTMODE_NORMAL     = (0UL << SCU_GENERAL_STCON_SWCON_Pos), /**< Boot from start of flash
 623:C:/Users/Utente/Desktop/Tesi/Firmware_Software/DAVE project/S2GLP_Pulsed_Doppler/Libraries/XMCLib/inc\xmc4_scu.h ****   XMC_SCU_BOOTMODE_ASC_BSL    = (1UL << SCU_GENERAL_STCON_SWCON_Pos), /**< UART bootstrap. */
 624:C:/Users/Utente/Desktop/Tesi/Firmware_Software/DAVE project/S2GLP_Pulsed_Doppler/Libraries/XMCLib/inc\xmc4_scu.h ****   XMC_SCU_BOOTMODE_BMI        = (2UL << SCU_GENERAL_STCON_SWCON_Pos), /**< Boot Mode Index - Custom
 625:C:/Users/Utente/Desktop/Tesi/Firmware_Software/DAVE project/S2GLP_Pulsed_Doppler/Libraries/XMCLib/inc\xmc4_scu.h ****                                                                            sequence. */
 626:C:/Users/Utente/Desktop/Tesi/Firmware_Software/DAVE project/S2GLP_Pulsed_Doppler/Libraries/XMCLib/inc\xmc4_scu.h ****   XMC_SCU_BOOTMODE_CAN_BSL    = (3UL << SCU_GENERAL_STCON_SWCON_Pos), /**< CAN bootstrap. */
 627:C:/Users/Utente/Desktop/Tesi/Firmware_Software/DAVE project/S2GLP_Pulsed_Doppler/Libraries/XMCLib/inc\xmc4_scu.h ****   XMC_SCU_BOOTMODE_PSRAM_BOOT = (4UL << SCU_GENERAL_STCON_SWCON_Pos), /**< Boot from PSRAM. */
 628:C:/Users/Utente/Desktop/Tesi/Firmware_Software/DAVE project/S2GLP_Pulsed_Doppler/Libraries/XMCLib/inc\xmc4_scu.h ****   XMC_SCU_BOOTMODE_ABM0       = (8UL << SCU_GENERAL_STCON_SWCON_Pos), /**< Boot from flash - fixed 
 629:C:/Users/Utente/Desktop/Tesi/Firmware_Software/DAVE project/S2GLP_Pulsed_Doppler/Libraries/XMCLib/inc\xmc4_scu.h ****                                                                            address 0. */
 630:C:/Users/Utente/Desktop/Tesi/Firmware_Software/DAVE project/S2GLP_Pulsed_Doppler/Libraries/XMCLib/inc\xmc4_scu.h ****   XMC_SCU_BOOTMODE_ABM1       = (12UL << SCU_GENERAL_STCON_SWCON_Pos), /**< Boot from flash - fixed
 631:C:/Users/Utente/Desktop/Tesi/Firmware_Software/DAVE project/S2GLP_Pulsed_Doppler/Libraries/XMCLib/inc\xmc4_scu.h ****                                                                             address 1. */
 632:C:/Users/Utente/Desktop/Tesi/Firmware_Software/DAVE project/S2GLP_Pulsed_Doppler/Libraries/XMCLib/inc\xmc4_scu.h ****   XMC_SCU_BOOTMODE_FABM       = (14UL << SCU_GENERAL_STCON_SWCON_Pos), /**< fallback Alternate Boot
 633:C:/Users/Utente/Desktop/Tesi/Firmware_Software/DAVE project/S2GLP_Pulsed_Doppler/Libraries/XMCLib/inc\xmc4_scu.h ****                                                                             Try ABM-0 then try ABM-
 634:C:/Users/Utente/Desktop/Tesi/Firmware_Software/DAVE project/S2GLP_Pulsed_Doppler/Libraries/XMCLib/inc\xmc4_scu.h **** } XMC_SCU_BOOTMODE_t;
 635:C:/Users/Utente/Desktop/Tesi/Firmware_Software/DAVE project/S2GLP_Pulsed_Doppler/Libraries/XMCLib/inc\xmc4_scu.h **** 
 636:C:/Users/Utente/Desktop/Tesi/Firmware_Software/DAVE project/S2GLP_Pulsed_Doppler/Libraries/XMCLib/inc\xmc4_scu.h **** 
 637:C:/Users/Utente/Desktop/Tesi/Firmware_Software/DAVE project/S2GLP_Pulsed_Doppler/Libraries/XMCLib/inc\xmc4_scu.h **** /**
 638:C:/Users/Utente/Desktop/Tesi/Firmware_Software/DAVE project/S2GLP_Pulsed_Doppler/Libraries/XMCLib/inc\xmc4_scu.h ****  *  Defines various PLL modes of operation. These enums are used to configure \a VCOBYP bit of \a P
 639:C:/Users/Utente/Desktop/Tesi/Firmware_Software/DAVE project/S2GLP_Pulsed_Doppler/Libraries/XMCLib/inc\xmc4_scu.h ****  *  User can choose either normal or prescalar mode by configuring VCOBYP bit.
 640:C:/Users/Utente/Desktop/Tesi/Firmware_Software/DAVE project/S2GLP_Pulsed_Doppler/Libraries/XMCLib/inc\xmc4_scu.h ****  *  Use type \a XMC_SCU_PLL_MODE_t for accessing these enum parameters.
 641:C:/Users/Utente/Desktop/Tesi/Firmware_Software/DAVE project/S2GLP_Pulsed_Doppler/Libraries/XMCLib/inc\xmc4_scu.h ****  */
 642:C:/Users/Utente/Desktop/Tesi/Firmware_Software/DAVE project/S2GLP_Pulsed_Doppler/Libraries/XMCLib/inc\xmc4_scu.h **** typedef enum XMC_SCU_CLOCK_SYSPLL_MODE
 643:C:/Users/Utente/Desktop/Tesi/Firmware_Software/DAVE project/S2GLP_Pulsed_Doppler/Libraries/XMCLib/inc\xmc4_scu.h **** {
 644:C:/Users/Utente/Desktop/Tesi/Firmware_Software/DAVE project/S2GLP_Pulsed_Doppler/Libraries/XMCLib/inc\xmc4_scu.h ****   XMC_SCU_CLOCK_SYSPLL_MODE_DISABLED, /**< fPLL derived from fOSC and PLL operating in prescalar mo
 645:C:/Users/Utente/Desktop/Tesi/Firmware_Software/DAVE project/S2GLP_Pulsed_Doppler/Libraries/XMCLib/inc\xmc4_scu.h ****   XMC_SCU_CLOCK_SYSPLL_MODE_NORMAL,  /**< fPLL derived from fVCO and PLL operating in normal mode. 
 646:C:/Users/Utente/Desktop/Tesi/Firmware_Software/DAVE project/S2GLP_Pulsed_Doppler/Libraries/XMCLib/inc\xmc4_scu.h ****   XMC_SCU_CLOCK_SYSPLL_MODE_PRESCALAR /**< fPLL derived from fOSC and PLL operating in prescalar mo
 647:C:/Users/Utente/Desktop/Tesi/Firmware_Software/DAVE project/S2GLP_Pulsed_Doppler/Libraries/XMCLib/inc\xmc4_scu.h **** } XMC_SCU_CLOCK_SYSPLL_MODE_t;
 648:C:/Users/Utente/Desktop/Tesi/Firmware_Software/DAVE project/S2GLP_Pulsed_Doppler/Libraries/XMCLib/inc\xmc4_scu.h **** 
 649:C:/Users/Utente/Desktop/Tesi/Firmware_Software/DAVE project/S2GLP_Pulsed_Doppler/Libraries/XMCLib/inc\xmc4_scu.h **** /** 
 650:C:/Users/Utente/Desktop/Tesi/Firmware_Software/DAVE project/S2GLP_Pulsed_Doppler/Libraries/XMCLib/inc\xmc4_scu.h ****  *  Defines the source of the system clock and peripherals clock gating in SLEEP state.
 651:C:/Users/Utente/Desktop/Tesi/Firmware_Software/DAVE project/S2GLP_Pulsed_Doppler/Libraries/XMCLib/inc\xmc4_scu.h ****  *  Use this enum as parameter of XMC_SCU_CLOCK_SetSleepConfig before going to SLEEP state.
 652:C:/Users/Utente/Desktop/Tesi/Firmware_Software/DAVE project/S2GLP_Pulsed_Doppler/Libraries/XMCLib/inc\xmc4_scu.h ****  *
 653:C:/Users/Utente/Desktop/Tesi/Firmware_Software/DAVE project/S2GLP_Pulsed_Doppler/Libraries/XMCLib/inc\xmc4_scu.h ****  *  The SLEEP state of the system corresponds to the SLEEP state of the CPU. The state is
 654:C:/Users/Utente/Desktop/Tesi/Firmware_Software/DAVE project/S2GLP_Pulsed_Doppler/Libraries/XMCLib/inc\xmc4_scu.h ****  *  entered via WFI or WFE instruction of the CPU. In this state the clock to the CPU is
 655:C:/Users/Utente/Desktop/Tesi/Firmware_Software/DAVE project/S2GLP_Pulsed_Doppler/Libraries/XMCLib/inc\xmc4_scu.h ****  *  stopped. Peripherals are only clocked when configured to stay enabled. 
 656:C:/Users/Utente/Desktop/Tesi/Firmware_Software/DAVE project/S2GLP_Pulsed_Doppler/Libraries/XMCLib/inc\xmc4_scu.h ****  *
 657:C:/Users/Utente/Desktop/Tesi/Firmware_Software/DAVE project/S2GLP_Pulsed_Doppler/Libraries/XMCLib/inc\xmc4_scu.h ****  *  Peripherals can continue to operate unaffected and eventually generate an event to
 658:C:/Users/Utente/Desktop/Tesi/Firmware_Software/DAVE project/S2GLP_Pulsed_Doppler/Libraries/XMCLib/inc\xmc4_scu.h ****  *  wake-up the CPU. Any interrupt to the NVIC will bring the CPU back to operation. The
 659:C:/Users/Utente/Desktop/Tesi/Firmware_Software/DAVE project/S2GLP_Pulsed_Doppler/Libraries/XMCLib/inc\xmc4_scu.h ****  *  clock tree upon exit from SLEEP state is restored to what it was before entry into SLEEP
 660:C:/Users/Utente/Desktop/Tesi/Firmware_Software/DAVE project/S2GLP_Pulsed_Doppler/Libraries/XMCLib/inc\xmc4_scu.h ****  *  state.
 661:C:/Users/Utente/Desktop/Tesi/Firmware_Software/DAVE project/S2GLP_Pulsed_Doppler/Libraries/XMCLib/inc\xmc4_scu.h ****  *  
 662:C:/Users/Utente/Desktop/Tesi/Firmware_Software/DAVE project/S2GLP_Pulsed_Doppler/Libraries/XMCLib/inc\xmc4_scu.h ****  */
 663:C:/Users/Utente/Desktop/Tesi/Firmware_Software/DAVE project/S2GLP_Pulsed_Doppler/Libraries/XMCLib/inc\xmc4_scu.h **** typedef enum XMC_SCU_CLOCK_SLEEP_MODE_CONFIG
 664:C:/Users/Utente/Desktop/Tesi/Firmware_Software/DAVE project/S2GLP_Pulsed_Doppler/Libraries/XMCLib/inc\xmc4_scu.h **** {
 665:C:/Users/Utente/Desktop/Tesi/Firmware_Software/DAVE project/S2GLP_Pulsed_Doppler/Libraries/XMCLib/inc\xmc4_scu.h ****   XMC_SCU_CLOCK_SLEEP_MODE_CONFIG_SYSCLK_FOFI = 0,  /**< fOFI used as system clock source in SLEEP 
 666:C:/Users/Utente/Desktop/Tesi/Firmware_Software/DAVE project/S2GLP_Pulsed_Doppler/Libraries/XMCLib/inc\xmc4_scu.h ****   XMC_SCU_CLOCK_SLEEP_MODE_CONFIG_SYSCLK_FPLL = SCU_CLK_SLEEPCR_SYSSEL_Msk,  /**< fPLL used as syst
 667:C:/Users/Utente/Desktop/Tesi/Firmware_Software/DAVE project/S2GLP_Pulsed_Doppler/Libraries/XMCLib/inc\xmc4_scu.h **** #if defined(USB0)
 668:C:/Users/Utente/Desktop/Tesi/Firmware_Software/DAVE project/S2GLP_Pulsed_Doppler/Libraries/XMCLib/inc\xmc4_scu.h ****   XMC_SCU_CLOCK_SLEEP_MODE_CONFIG_DISABLE_USB = 0,  /**< USB clock disabled in SLEEP state */
 669:C:/Users/Utente/Desktop/Tesi/Firmware_Software/DAVE project/S2GLP_Pulsed_Doppler/Libraries/XMCLib/inc\xmc4_scu.h ****   XMC_SCU_CLOCK_SLEEP_MODE_CONFIG_ENABLE_USB = SCU_CLK_SLEEPCR_USBCR_Msk,  /**< USB clock enabled i
 670:C:/Users/Utente/Desktop/Tesi/Firmware_Software/DAVE project/S2GLP_Pulsed_Doppler/Libraries/XMCLib/inc\xmc4_scu.h **** #endif  
 671:C:/Users/Utente/Desktop/Tesi/Firmware_Software/DAVE project/S2GLP_Pulsed_Doppler/Libraries/XMCLib/inc\xmc4_scu.h **** #if defined(SDMMC)
 672:C:/Users/Utente/Desktop/Tesi/Firmware_Software/DAVE project/S2GLP_Pulsed_Doppler/Libraries/XMCLib/inc\xmc4_scu.h ****   XMC_SCU_CLOCK_SLEEP_MODE_CONFIG_DISABLE_SDMMC = 0,/**< SDMMC clock disabled in SLEEP state */
 673:C:/Users/Utente/Desktop/Tesi/Firmware_Software/DAVE project/S2GLP_Pulsed_Doppler/Libraries/XMCLib/inc\xmc4_scu.h ****   XMC_SCU_CLOCK_SLEEP_MODE_CONFIG_ENABLE_SDMMC = SCU_CLK_SLEEPCR_MMCCR_Msk,/**< SDMMC clock enabled
 674:C:/Users/Utente/Desktop/Tesi/Firmware_Software/DAVE project/S2GLP_Pulsed_Doppler/Libraries/XMCLib/inc\xmc4_scu.h **** #endif  
 675:C:/Users/Utente/Desktop/Tesi/Firmware_Software/DAVE project/S2GLP_Pulsed_Doppler/Libraries/XMCLib/inc\xmc4_scu.h **** #if defined(ETH0)
 676:C:/Users/Utente/Desktop/Tesi/Firmware_Software/DAVE project/S2GLP_Pulsed_Doppler/Libraries/XMCLib/inc\xmc4_scu.h ****   XMC_SCU_CLOCK_SLEEP_MODE_CONFIG_DISABLE_ETH = 0,  /**< ETH clock disabled in SLEEP state */
 677:C:/Users/Utente/Desktop/Tesi/Firmware_Software/DAVE project/S2GLP_Pulsed_Doppler/Libraries/XMCLib/inc\xmc4_scu.h ****   XMC_SCU_CLOCK_SLEEP_MODE_CONFIG_ENABLE_ETH = SCU_CLK_SLEEPCR_ETH0CR_Msk,  /**< ETH clock enabled 
 678:C:/Users/Utente/Desktop/Tesi/Firmware_Software/DAVE project/S2GLP_Pulsed_Doppler/Libraries/XMCLib/inc\xmc4_scu.h **** #endif  
 679:C:/Users/Utente/Desktop/Tesi/Firmware_Software/DAVE project/S2GLP_Pulsed_Doppler/Libraries/XMCLib/inc\xmc4_scu.h **** #if defined(EBU)
 680:C:/Users/Utente/Desktop/Tesi/Firmware_Software/DAVE project/S2GLP_Pulsed_Doppler/Libraries/XMCLib/inc\xmc4_scu.h ****   XMC_SCU_CLOCK_SLEEP_MODE_CONFIG_DISABLE_EBU = 0,  /**< EBU clock disabled in SLEEP state */
 681:C:/Users/Utente/Desktop/Tesi/Firmware_Software/DAVE project/S2GLP_Pulsed_Doppler/Libraries/XMCLib/inc\xmc4_scu.h ****   XMC_SCU_CLOCK_SLEEP_MODE_CONFIG_ENABLE_EBU = SCU_CLK_SLEEPCR_EBUCR_Msk,  /**< EBU clock enabled i
 682:C:/Users/Utente/Desktop/Tesi/Firmware_Software/DAVE project/S2GLP_Pulsed_Doppler/Libraries/XMCLib/inc\xmc4_scu.h **** #endif  
 683:C:/Users/Utente/Desktop/Tesi/Firmware_Software/DAVE project/S2GLP_Pulsed_Doppler/Libraries/XMCLib/inc\xmc4_scu.h ****   XMC_SCU_CLOCK_SLEEP_MODE_CONFIG_DISABLED_CCU = 0,  /**< CCU clock disabled in SLEEP state */
 684:C:/Users/Utente/Desktop/Tesi/Firmware_Software/DAVE project/S2GLP_Pulsed_Doppler/Libraries/XMCLib/inc\xmc4_scu.h ****   XMC_SCU_CLOCK_SLEEP_MODE_CONFIG_ENABLE_CCU = SCU_CLK_SLEEPCR_CCUCR_Msk,  /**< CCU clock enabled i
 685:C:/Users/Utente/Desktop/Tesi/Firmware_Software/DAVE project/S2GLP_Pulsed_Doppler/Libraries/XMCLib/inc\xmc4_scu.h ****   XMC_SCU_CLOCK_SLEEP_MODE_CONFIG_DISABLED_WDT = 0,  /**< WDT clock disabled in SLEEP state */
 686:C:/Users/Utente/Desktop/Tesi/Firmware_Software/DAVE project/S2GLP_Pulsed_Doppler/Libraries/XMCLib/inc\xmc4_scu.h ****   XMC_SCU_CLOCK_SLEEP_MODE_CONFIG_ENABLE_WDT = SCU_CLK_SLEEPCR_WDTCR_Msk,  /**< WDT clock enabled i
 687:C:/Users/Utente/Desktop/Tesi/Firmware_Software/DAVE project/S2GLP_Pulsed_Doppler/Libraries/XMCLib/inc\xmc4_scu.h **** } XMC_SCU_CLOCK_SLEEP_MODE_CONFIG_t;
 688:C:/Users/Utente/Desktop/Tesi/Firmware_Software/DAVE project/S2GLP_Pulsed_Doppler/Libraries/XMCLib/inc\xmc4_scu.h **** 
 689:C:/Users/Utente/Desktop/Tesi/Firmware_Software/DAVE project/S2GLP_Pulsed_Doppler/Libraries/XMCLib/inc\xmc4_scu.h **** /** 
 690:C:/Users/Utente/Desktop/Tesi/Firmware_Software/DAVE project/S2GLP_Pulsed_Doppler/Libraries/XMCLib/inc\xmc4_scu.h ****  *  Defines the source of the system clock and peripherals clock gating in DEEPSLEEP state.
 691:C:/Users/Utente/Desktop/Tesi/Firmware_Software/DAVE project/S2GLP_Pulsed_Doppler/Libraries/XMCLib/inc\xmc4_scu.h ****  *  In addition the state of FLASH, PLL and PLLVCO during DEEPSLEEP state.
 692:C:/Users/Utente/Desktop/Tesi/Firmware_Software/DAVE project/S2GLP_Pulsed_Doppler/Libraries/XMCLib/inc\xmc4_scu.h ****  *  Use this enum as parameter of XMC_SCU_CLOCK_SetDeepSleepConfig before going to DEEPSLEEP state.
 693:C:/Users/Utente/Desktop/Tesi/Firmware_Software/DAVE project/S2GLP_Pulsed_Doppler/Libraries/XMCLib/inc\xmc4_scu.h ****  *
 694:C:/Users/Utente/Desktop/Tesi/Firmware_Software/DAVE project/S2GLP_Pulsed_Doppler/Libraries/XMCLib/inc\xmc4_scu.h ****  *  The DEEPSLEEP state of the system corresponds to the DEEPSLEEP state of the CPU. The state is
 695:C:/Users/Utente/Desktop/Tesi/Firmware_Software/DAVE project/S2GLP_Pulsed_Doppler/Libraries/XMCLib/inc\xmc4_scu.h ****  *  entered via WFI or WFE instruction of the CPU. In this state the clock to the CPU is
 696:C:/Users/Utente/Desktop/Tesi/Firmware_Software/DAVE project/S2GLP_Pulsed_Doppler/Libraries/XMCLib/inc\xmc4_scu.h ****  *  stopped. 
 697:C:/Users/Utente/Desktop/Tesi/Firmware_Software/DAVE project/S2GLP_Pulsed_Doppler/Libraries/XMCLib/inc\xmc4_scu.h ****  *
 698:C:/Users/Utente/Desktop/Tesi/Firmware_Software/DAVE project/S2GLP_Pulsed_Doppler/Libraries/XMCLib/inc\xmc4_scu.h ****  *  In Deep Sleep state the OSC_HP and the PLL may be switched off. The wake-up logic in the NVIC i
 699:C:/Users/Utente/Desktop/Tesi/Firmware_Software/DAVE project/S2GLP_Pulsed_Doppler/Libraries/XMCLib/inc\xmc4_scu.h ****  *  by a free-running clock. Peripherals are only clocked when configured to stay enabled. 
 700:C:/Users/Utente/Desktop/Tesi/Firmware_Software/DAVE project/S2GLP_Pulsed_Doppler/Libraries/XMCLib/inc\xmc4_scu.h ****  *  Configuration of peripherals and any SRAM content is preserved.
 701:C:/Users/Utente/Desktop/Tesi/Firmware_Software/DAVE project/S2GLP_Pulsed_Doppler/Libraries/XMCLib/inc\xmc4_scu.h ****  *  The Flash module can be put into low-power mode to achieve a further power reduction.
 702:C:/Users/Utente/Desktop/Tesi/Firmware_Software/DAVE project/S2GLP_Pulsed_Doppler/Libraries/XMCLib/inc\xmc4_scu.h ****  *  On wake-up Flash module will be restarted again before instructions or data access is possible.
 703:C:/Users/Utente/Desktop/Tesi/Firmware_Software/DAVE project/S2GLP_Pulsed_Doppler/Libraries/XMCLib/inc\xmc4_scu.h ****  *  Any interrupt will bring the system back to operation via the NVIC.The clock setup before
 704:C:/Users/Utente/Desktop/Tesi/Firmware_Software/DAVE project/S2GLP_Pulsed_Doppler/Libraries/XMCLib/inc\xmc4_scu.h ****  *  entering Deep Sleep state is restored upon wake-up.
 705:C:/Users/Utente/Desktop/Tesi/Firmware_Software/DAVE project/S2GLP_Pulsed_Doppler/Libraries/XMCLib/inc\xmc4_scu.h ****  */
 706:C:/Users/Utente/Desktop/Tesi/Firmware_Software/DAVE project/S2GLP_Pulsed_Doppler/Libraries/XMCLib/inc\xmc4_scu.h **** typedef enum XMC_SCU_CLOCK_DEEPSLEEP_MODE_CONFIG
 707:C:/Users/Utente/Desktop/Tesi/Firmware_Software/DAVE project/S2GLP_Pulsed_Doppler/Libraries/XMCLib/inc\xmc4_scu.h **** {
 708:C:/Users/Utente/Desktop/Tesi/Firmware_Software/DAVE project/S2GLP_Pulsed_Doppler/Libraries/XMCLib/inc\xmc4_scu.h ****   XMC_SCU_CLOCK_DEEPSLEEP_MODE_CONFIG_SYSCLK_FOFI = 0,  /**< fOFI used as system clock source in DE
 709:C:/Users/Utente/Desktop/Tesi/Firmware_Software/DAVE project/S2GLP_Pulsed_Doppler/Libraries/XMCLib/inc\xmc4_scu.h ****   XMC_SCU_CLOCK_DEEPSLEEP_MODE_CONFIG_SYSCLK_FPLL = SCU_CLK_DSLEEPCR_SYSSEL_Msk,  /**< fPLL used as
 710:C:/Users/Utente/Desktop/Tesi/Firmware_Software/DAVE project/S2GLP_Pulsed_Doppler/Libraries/XMCLib/inc\xmc4_scu.h ****   XMC_SCU_CLOCK_DEEPSLEEP_MODE_CONFIG_FLASH_POWERDOWN = SCU_CLK_DSLEEPCR_FPDN_Msk,/**< Flash power 
 711:C:/Users/Utente/Desktop/Tesi/Firmware_Software/DAVE project/S2GLP_Pulsed_Doppler/Libraries/XMCLib/inc\xmc4_scu.h ****   XMC_SCU_CLOCK_DEEPSLEEP_MODE_CONFIG_PLL_POWERDOWN = SCU_CLK_DSLEEPCR_PLLPDN_Msk,  /**<  Switch of
 712:C:/Users/Utente/Desktop/Tesi/Firmware_Software/DAVE project/S2GLP_Pulsed_Doppler/Libraries/XMCLib/inc\xmc4_scu.h ****   XMC_SCU_CLOCK_DEEPSLEEP_MODE_CONFIG_VCO_POWERDOWN = SCU_CLK_DSLEEPCR_VCOPDN_Msk,  /**<  Switch of
 713:C:/Users/Utente/Desktop/Tesi/Firmware_Software/DAVE project/S2GLP_Pulsed_Doppler/Libraries/XMCLib/inc\xmc4_scu.h **** #if defined(USB0)
 714:C:/Users/Utente/Desktop/Tesi/Firmware_Software/DAVE project/S2GLP_Pulsed_Doppler/Libraries/XMCLib/inc\xmc4_scu.h ****   XMC_SCU_CLOCK_DEEPSLEEP_MODE_CONFIG_DISABLE_USB = 0,  /**< USB clock disabled in DEEPSLEEP state 
 715:C:/Users/Utente/Desktop/Tesi/Firmware_Software/DAVE project/S2GLP_Pulsed_Doppler/Libraries/XMCLib/inc\xmc4_scu.h ****   XMC_SCU_CLOCK_DEEPSLEEP_MODE_CONFIG_ENABLE_USB = SCU_CLK_DSLEEPCR_USBCR_Msk,  /**< USB clock enab
 716:C:/Users/Utente/Desktop/Tesi/Firmware_Software/DAVE project/S2GLP_Pulsed_Doppler/Libraries/XMCLib/inc\xmc4_scu.h **** #endif  
 717:C:/Users/Utente/Desktop/Tesi/Firmware_Software/DAVE project/S2GLP_Pulsed_Doppler/Libraries/XMCLib/inc\xmc4_scu.h **** #if defined(SDMMC)
 718:C:/Users/Utente/Desktop/Tesi/Firmware_Software/DAVE project/S2GLP_Pulsed_Doppler/Libraries/XMCLib/inc\xmc4_scu.h ****   XMC_SCU_CLOCK_DEEPSLEEP_MODE_CONFIG_DISABLE_SDMMC = 0,/**< SDMMC clock disabled in DEEPSLEEP stat
 719:C:/Users/Utente/Desktop/Tesi/Firmware_Software/DAVE project/S2GLP_Pulsed_Doppler/Libraries/XMCLib/inc\xmc4_scu.h ****   XMC_SCU_CLOCK_DEEPSLEEP_MODE_CONFIG_ENABLE_SDMMC = SCU_CLK_DSLEEPCR_MMCCR_Msk,/**< SDMMC clock en
 720:C:/Users/Utente/Desktop/Tesi/Firmware_Software/DAVE project/S2GLP_Pulsed_Doppler/Libraries/XMCLib/inc\xmc4_scu.h **** #endif  
 721:C:/Users/Utente/Desktop/Tesi/Firmware_Software/DAVE project/S2GLP_Pulsed_Doppler/Libraries/XMCLib/inc\xmc4_scu.h **** #if defined(ETH0)
 722:C:/Users/Utente/Desktop/Tesi/Firmware_Software/DAVE project/S2GLP_Pulsed_Doppler/Libraries/XMCLib/inc\xmc4_scu.h ****   XMC_SCU_CLOCK_DEEPSLEEP_MODE_CONFIG_DISABLE_ETH = 0,  /**< ETH clock disabled in DEEPSLEEP state 
 723:C:/Users/Utente/Desktop/Tesi/Firmware_Software/DAVE project/S2GLP_Pulsed_Doppler/Libraries/XMCLib/inc\xmc4_scu.h ****   XMC_SCU_CLOCK_DEEPSLEEP_MODE_CONFIG_ENABLE_ETH = SCU_CLK_DSLEEPCR_ETH0CR_Msk,  /**< ETH clock ena
 724:C:/Users/Utente/Desktop/Tesi/Firmware_Software/DAVE project/S2GLP_Pulsed_Doppler/Libraries/XMCLib/inc\xmc4_scu.h **** #endif  
 725:C:/Users/Utente/Desktop/Tesi/Firmware_Software/DAVE project/S2GLP_Pulsed_Doppler/Libraries/XMCLib/inc\xmc4_scu.h **** #if defined(EBU)
 726:C:/Users/Utente/Desktop/Tesi/Firmware_Software/DAVE project/S2GLP_Pulsed_Doppler/Libraries/XMCLib/inc\xmc4_scu.h ****   XMC_SCU_CLOCK_DEEPSLEEP_MODE_CONFIG_DISABLE_EBU = 0,  /**< EBU clock disabled in DEEPSLEEP state 
 727:C:/Users/Utente/Desktop/Tesi/Firmware_Software/DAVE project/S2GLP_Pulsed_Doppler/Libraries/XMCLib/inc\xmc4_scu.h ****   XMC_SCU_CLOCK_DEEPSLEEP_MODE_CONFIG_ENABLE_EBU = SCU_CLK_DSLEEPCR_EBUCR_Msk,  /**< EBU clock enab
 728:C:/Users/Utente/Desktop/Tesi/Firmware_Software/DAVE project/S2GLP_Pulsed_Doppler/Libraries/XMCLib/inc\xmc4_scu.h **** #endif  
 729:C:/Users/Utente/Desktop/Tesi/Firmware_Software/DAVE project/S2GLP_Pulsed_Doppler/Libraries/XMCLib/inc\xmc4_scu.h ****   XMC_SCU_CLOCK_DEEPSLEEP_MODE_CONFIG_DISABLE_CCU = 0,  /**< CCU clock disabled in DEEPSLEEP state 
 730:C:/Users/Utente/Desktop/Tesi/Firmware_Software/DAVE project/S2GLP_Pulsed_Doppler/Libraries/XMCLib/inc\xmc4_scu.h ****   XMC_SCU_CLOCK_DEEPSLEEP_MODE_CONFIG_ENABLE_CCU = SCU_CLK_DSLEEPCR_CCUCR_Msk,  /**< CCU clock enab
 731:C:/Users/Utente/Desktop/Tesi/Firmware_Software/DAVE project/S2GLP_Pulsed_Doppler/Libraries/XMCLib/inc\xmc4_scu.h ****   XMC_SCU_CLOCK_DEEPSLEEP_MODE_CONFIG_DISABLE_WDT = 0,  /**< WDT clock disabled in DEEPSLEEP state 
 732:C:/Users/Utente/Desktop/Tesi/Firmware_Software/DAVE project/S2GLP_Pulsed_Doppler/Libraries/XMCLib/inc\xmc4_scu.h ****   XMC_SCU_CLOCK_DEEPSLEEP_MODE_CONFIG_ENABLE_WDT = SCU_CLK_DSLEEPCR_WDTCR_Msk,  /**< WDT clock enab
 733:C:/Users/Utente/Desktop/Tesi/Firmware_Software/DAVE project/S2GLP_Pulsed_Doppler/Libraries/XMCLib/inc\xmc4_scu.h **** } XMC_SCU_CLOCK_DEEPSLEEP_MODE_CONFIG_t;
 734:C:/Users/Utente/Desktop/Tesi/Firmware_Software/DAVE project/S2GLP_Pulsed_Doppler/Libraries/XMCLib/inc\xmc4_scu.h **** 
 735:C:/Users/Utente/Desktop/Tesi/Firmware_Software/DAVE project/S2GLP_Pulsed_Doppler/Libraries/XMCLib/inc\xmc4_scu.h **** /** 
 736:C:/Users/Utente/Desktop/Tesi/Firmware_Software/DAVE project/S2GLP_Pulsed_Doppler/Libraries/XMCLib/inc\xmc4_scu.h ****  * Defines status of EVR13 regulator
 737:C:/Users/Utente/Desktop/Tesi/Firmware_Software/DAVE project/S2GLP_Pulsed_Doppler/Libraries/XMCLib/inc\xmc4_scu.h ****  */
 738:C:/Users/Utente/Desktop/Tesi/Firmware_Software/DAVE project/S2GLP_Pulsed_Doppler/Libraries/XMCLib/inc\xmc4_scu.h **** typedef enum XMC_SCU_POWER_EVR_STATUS
 739:C:/Users/Utente/Desktop/Tesi/Firmware_Software/DAVE project/S2GLP_Pulsed_Doppler/Libraries/XMCLib/inc\xmc4_scu.h **** {
 740:C:/Users/Utente/Desktop/Tesi/Firmware_Software/DAVE project/S2GLP_Pulsed_Doppler/Libraries/XMCLib/inc\xmc4_scu.h ****   XMC_SCU_POWER_EVR_STATUS_OK = 0, /**< EVR13 regulator No overvoltage condition */
 741:C:/Users/Utente/Desktop/Tesi/Firmware_Software/DAVE project/S2GLP_Pulsed_Doppler/Libraries/XMCLib/inc\xmc4_scu.h ****   XMC_SCU_POWER_EVR_STATUS_EVR13_OVERVOLTAGE = SCU_POWER_EVRSTAT_OV13_Msk /**< EVR13 regulator is i
 742:C:/Users/Utente/Desktop/Tesi/Firmware_Software/DAVE project/S2GLP_Pulsed_Doppler/Libraries/XMCLib/inc\xmc4_scu.h **** } XMC_SCU_POWER_EVR_STATUS_t;
 743:C:/Users/Utente/Desktop/Tesi/Firmware_Software/DAVE project/S2GLP_Pulsed_Doppler/Libraries/XMCLib/inc\xmc4_scu.h **** 
 744:C:/Users/Utente/Desktop/Tesi/Firmware_Software/DAVE project/S2GLP_Pulsed_Doppler/Libraries/XMCLib/inc\xmc4_scu.h **** /**
 745:C:/Users/Utente/Desktop/Tesi/Firmware_Software/DAVE project/S2GLP_Pulsed_Doppler/Libraries/XMCLib/inc\xmc4_scu.h ****  * Define status of external hibernate control  
 746:C:/Users/Utente/Desktop/Tesi/Firmware_Software/DAVE project/S2GLP_Pulsed_Doppler/Libraries/XMCLib/inc\xmc4_scu.h ****  */
 747:C:/Users/Utente/Desktop/Tesi/Firmware_Software/DAVE project/S2GLP_Pulsed_Doppler/Libraries/XMCLib/inc\xmc4_scu.h **** typedef enum XMC_SCU_HIB_CTRL_STATUS
 748:C:/Users/Utente/Desktop/Tesi/Firmware_Software/DAVE project/S2GLP_Pulsed_Doppler/Libraries/XMCLib/inc\xmc4_scu.h **** {
 749:C:/Users/Utente/Desktop/Tesi/Firmware_Software/DAVE project/S2GLP_Pulsed_Doppler/Libraries/XMCLib/inc\xmc4_scu.h ****   XMC_SCU_HIB_CTRL_STATUS_NO_ACTIVE = 0, /**< Hibernate not driven active to pads */
 750:C:/Users/Utente/Desktop/Tesi/Firmware_Software/DAVE project/S2GLP_Pulsed_Doppler/Libraries/XMCLib/inc\xmc4_scu.h ****   XMC_SCU_HIB_CTRL_STATUS_ACTIVE = SCU_HIBERNATE_HDSTAT_HIBNOUT_Msk, /**< Hibernate driven active t
 751:C:/Users/Utente/Desktop/Tesi/Firmware_Software/DAVE project/S2GLP_Pulsed_Doppler/Libraries/XMCLib/inc\xmc4_scu.h **** } XMC_SCU_HIB_CTRL_STATUS_t;
 752:C:/Users/Utente/Desktop/Tesi/Firmware_Software/DAVE project/S2GLP_Pulsed_Doppler/Libraries/XMCLib/inc\xmc4_scu.h **** 
 753:C:/Users/Utente/Desktop/Tesi/Firmware_Software/DAVE project/S2GLP_Pulsed_Doppler/Libraries/XMCLib/inc\xmc4_scu.h **** /** 
 754:C:/Users/Utente/Desktop/Tesi/Firmware_Software/DAVE project/S2GLP_Pulsed_Doppler/Libraries/XMCLib/inc\xmc4_scu.h ****  *  Hibernate domain event status
 755:C:/Users/Utente/Desktop/Tesi/Firmware_Software/DAVE project/S2GLP_Pulsed_Doppler/Libraries/XMCLib/inc\xmc4_scu.h ****  */
 756:C:/Users/Utente/Desktop/Tesi/Firmware_Software/DAVE project/S2GLP_Pulsed_Doppler/Libraries/XMCLib/inc\xmc4_scu.h **** typedef enum XMC_SCU_HIB_EVENT
 757:C:/Users/Utente/Desktop/Tesi/Firmware_Software/DAVE project/S2GLP_Pulsed_Doppler/Libraries/XMCLib/inc\xmc4_scu.h **** {
 758:C:/Users/Utente/Desktop/Tesi/Firmware_Software/DAVE project/S2GLP_Pulsed_Doppler/Libraries/XMCLib/inc\xmc4_scu.h ****   XMC_SCU_HIB_EVENT_WAKEUP_ON_POS_EDGE = SCU_HIBERNATE_HDCR_WKPEP_Msk, /**< Wake-up on positive edg
 759:C:/Users/Utente/Desktop/Tesi/Firmware_Software/DAVE project/S2GLP_Pulsed_Doppler/Libraries/XMCLib/inc\xmc4_scu.h ****   XMC_SCU_HIB_EVENT_WAKEUP_ON_NEG_EDGE = SCU_HIBERNATE_HDCR_WKPEN_Msk, /**< Wake-up on negative edg
 760:C:/Users/Utente/Desktop/Tesi/Firmware_Software/DAVE project/S2GLP_Pulsed_Doppler/Libraries/XMCLib/inc\xmc4_scu.h ****   XMC_SCU_HIB_EVENT_WAKEUP_ON_RTC = SCU_HIBERNATE_HDCR_RTCE_Msk, /**< Wake-up on RTC event */
 761:C:/Users/Utente/Desktop/Tesi/Firmware_Software/DAVE project/S2GLP_Pulsed_Doppler/Libraries/XMCLib/inc\xmc4_scu.h ****   XMC_SCU_HIB_EVENT_ULPWDG = SCU_HIBERNATE_HDCR_ULPWDGEN_Msk, /**< ULP watchdog alarm status */
 762:C:/Users/Utente/Desktop/Tesi/Firmware_Software/DAVE project/S2GLP_Pulsed_Doppler/Libraries/XMCLib/inc\xmc4_scu.h **** #if (defined(DOXYGEN) || (UC_SERIES == XMC44) || (UC_SERIES == XMC42) || (UC_SERIES == XMC41))
 763:C:/Users/Utente/Desktop/Tesi/Firmware_Software/DAVE project/S2GLP_Pulsed_Doppler/Libraries/XMCLib/inc\xmc4_scu.h ****   XMC_SCU_HIB_EVENT_LPAC_VBAT_POSEDGE = SCU_HIBERNATE_HDSTAT_VBATPEV_Msk, /**< Wake-up on LPAC posi
 764:C:/Users/Utente/Desktop/Tesi/Firmware_Software/DAVE project/S2GLP_Pulsed_Doppler/Libraries/XMCLib/inc\xmc4_scu.h ****   XMC_SCU_HIB_EVENT_LPAC_VBAT_NEGEDGE = SCU_HIBERNATE_HDSTAT_VBATNEV_Msk, /**< Wake-up on LPAC nega
 765:C:/Users/Utente/Desktop/Tesi/Firmware_Software/DAVE project/S2GLP_Pulsed_Doppler/Libraries/XMCLib/inc\xmc4_scu.h ****   XMC_SCU_HIB_EVENT_LPAC_HIB_IO_0_POSEDGE = SCU_HIBERNATE_HDSTAT_AHIBIO0PEV_Msk, /**< Wake-up on LP
 766:C:/Users/Utente/Desktop/Tesi/Firmware_Software/DAVE project/S2GLP_Pulsed_Doppler/Libraries/XMCLib/inc\xmc4_scu.h ****   XMC_SCU_HIB_EVENT_LPAC_HIB_IO_0_NEGEDGE = SCU_HIBERNATE_HDSTAT_AHIBIO0NEV_Msk, /**< Wake-up on LP
 767:C:/Users/Utente/Desktop/Tesi/Firmware_Software/DAVE project/S2GLP_Pulsed_Doppler/Libraries/XMCLib/inc\xmc4_scu.h **** #if (defined(DOXYGEN) || ((UC_SERIES == XMC44) && (UC_PACKAGE == LQFP100)))
 768:C:/Users/Utente/Desktop/Tesi/Firmware_Software/DAVE project/S2GLP_Pulsed_Doppler/Libraries/XMCLib/inc\xmc4_scu.h ****   XMC_SCU_HIB_EVENT_LPAC_HIB_IO_1_POSEDGE = SCU_HIBERNATE_HDSTAT_AHIBIO1PEV_Msk, /**< Wake-up on LP
 769:C:/Users/Utente/Desktop/Tesi/Firmware_Software/DAVE project/S2GLP_Pulsed_Doppler/Libraries/XMCLib/inc\xmc4_scu.h ****   XMC_SCU_HIB_EVENT_LPAC_HIB_IO_1_NEGEDGE = SCU_HIBERNATE_HDSTAT_AHIBIO1NEV_Msk, /**< Wake-up on LP
 770:C:/Users/Utente/Desktop/Tesi/Firmware_Software/DAVE project/S2GLP_Pulsed_Doppler/Libraries/XMCLib/inc\xmc4_scu.h **** #endif
 771:C:/Users/Utente/Desktop/Tesi/Firmware_Software/DAVE project/S2GLP_Pulsed_Doppler/Libraries/XMCLib/inc\xmc4_scu.h **** #endif  
 772:C:/Users/Utente/Desktop/Tesi/Firmware_Software/DAVE project/S2GLP_Pulsed_Doppler/Libraries/XMCLib/inc\xmc4_scu.h **** } XMC_SCU_HIB_EVENT_t;
 773:C:/Users/Utente/Desktop/Tesi/Firmware_Software/DAVE project/S2GLP_Pulsed_Doppler/Libraries/XMCLib/inc\xmc4_scu.h **** 
 774:C:/Users/Utente/Desktop/Tesi/Firmware_Software/DAVE project/S2GLP_Pulsed_Doppler/Libraries/XMCLib/inc\xmc4_scu.h **** /** 
 775:C:/Users/Utente/Desktop/Tesi/Firmware_Software/DAVE project/S2GLP_Pulsed_Doppler/Libraries/XMCLib/inc\xmc4_scu.h ****   * Hibernate domain dedicated pins
 776:C:/Users/Utente/Desktop/Tesi/Firmware_Software/DAVE project/S2GLP_Pulsed_Doppler/Libraries/XMCLib/inc\xmc4_scu.h ****   */
 777:C:/Users/Utente/Desktop/Tesi/Firmware_Software/DAVE project/S2GLP_Pulsed_Doppler/Libraries/XMCLib/inc\xmc4_scu.h **** typedef enum XMC_SCU_HIB_IO
 778:C:/Users/Utente/Desktop/Tesi/Firmware_Software/DAVE project/S2GLP_Pulsed_Doppler/Libraries/XMCLib/inc\xmc4_scu.h **** {
 779:C:/Users/Utente/Desktop/Tesi/Firmware_Software/DAVE project/S2GLP_Pulsed_Doppler/Libraries/XMCLib/inc\xmc4_scu.h ****   XMC_SCU_HIB_IO_0 = 0, /**< HIB_IO_0 pin. 
 780:C:/Users/Utente/Desktop/Tesi/Firmware_Software/DAVE project/S2GLP_Pulsed_Doppler/Libraries/XMCLib/inc\xmc4_scu.h ****                              At the first power-up and with every reset of the hibernate domain thi
 781:C:/Users/Utente/Desktop/Tesi/Firmware_Software/DAVE project/S2GLP_Pulsed_Doppler/Libraries/XMCLib/inc\xmc4_scu.h **** #if (defined(DOXYGEN) || (UC_PACKAGE == BGA196) || (UC_PACKAGE == BGA144) || (UC_PACKAGE == LQFP144
 782:C:/Users/Utente/Desktop/Tesi/Firmware_Software/DAVE project/S2GLP_Pulsed_Doppler/Libraries/XMCLib/inc\xmc4_scu.h ****   XMC_SCU_HIB_IO_1 = 1 /**< HIB_IO_1 pin. 
 783:C:/Users/Utente/Desktop/Tesi/Firmware_Software/DAVE project/S2GLP_Pulsed_Doppler/Libraries/XMCLib/inc\xmc4_scu.h ****                             At the first power-up and with every reset of the hibernate domain this
 784:C:/Users/Utente/Desktop/Tesi/Firmware_Software/DAVE project/S2GLP_Pulsed_Doppler/Libraries/XMCLib/inc\xmc4_scu.h ****                             @note : Only available in certain packages*/
 785:C:/Users/Utente/Desktop/Tesi/Firmware_Software/DAVE project/S2GLP_Pulsed_Doppler/Libraries/XMCLib/inc\xmc4_scu.h **** #endif  
 786:C:/Users/Utente/Desktop/Tesi/Firmware_Software/DAVE project/S2GLP_Pulsed_Doppler/Libraries/XMCLib/inc\xmc4_scu.h **** } XMC_SCU_HIB_IO_t;
 787:C:/Users/Utente/Desktop/Tesi/Firmware_Software/DAVE project/S2GLP_Pulsed_Doppler/Libraries/XMCLib/inc\xmc4_scu.h **** 
 788:C:/Users/Utente/Desktop/Tesi/Firmware_Software/DAVE project/S2GLP_Pulsed_Doppler/Libraries/XMCLib/inc\xmc4_scu.h **** /**
 789:C:/Users/Utente/Desktop/Tesi/Firmware_Software/DAVE project/S2GLP_Pulsed_Doppler/Libraries/XMCLib/inc\xmc4_scu.h ****  * HIB_IOx pin I/O control
 790:C:/Users/Utente/Desktop/Tesi/Firmware_Software/DAVE project/S2GLP_Pulsed_Doppler/Libraries/XMCLib/inc\xmc4_scu.h ****  */
 791:C:/Users/Utente/Desktop/Tesi/Firmware_Software/DAVE project/S2GLP_Pulsed_Doppler/Libraries/XMCLib/inc\xmc4_scu.h **** typedef enum XMC_SCU_HIB_PIN_MODE
 792:C:/Users/Utente/Desktop/Tesi/Firmware_Software/DAVE project/S2GLP_Pulsed_Doppler/Libraries/XMCLib/inc\xmc4_scu.h **** {
 793:C:/Users/Utente/Desktop/Tesi/Firmware_Software/DAVE project/S2GLP_Pulsed_Doppler/Libraries/XMCLib/inc\xmc4_scu.h ****   XMC_SCU_HIB_PIN_MODE_INPUT_PULL_NONE = 0 << SCU_HIBERNATE_HDCR_HIBIO0SEL_Pos, /**< Direct input, 
 794:C:/Users/Utente/Desktop/Tesi/Firmware_Software/DAVE project/S2GLP_Pulsed_Doppler/Libraries/XMCLib/inc\xmc4_scu.h ****   XMC_SCU_HIB_PIN_MODE_INPUT_PULL_DOWN = 1 << SCU_HIBERNATE_HDCR_HIBIO0SEL_Pos, /**< Direct input, 
 795:C:/Users/Utente/Desktop/Tesi/Firmware_Software/DAVE project/S2GLP_Pulsed_Doppler/Libraries/XMCLib/inc\xmc4_scu.h ****   XMC_SCU_HIB_PIN_MODE_INPUT_PULL_UP = 2 << SCU_HIBERNATE_HDCR_HIBIO0SEL_Pos, /**< Direct input, in
 796:C:/Users/Utente/Desktop/Tesi/Firmware_Software/DAVE project/S2GLP_Pulsed_Doppler/Libraries/XMCLib/inc\xmc4_scu.h ****   XMC_SCU_HIB_PIN_MODE_OUTPUT_PUSH_PULL_HIBCTRL = 8 << SCU_HIBERNATE_HDCR_HIBIO0SEL_Pos, /**< Push-
 797:C:/Users/Utente/Desktop/Tesi/Firmware_Software/DAVE project/S2GLP_Pulsed_Doppler/Libraries/XMCLib/inc\xmc4_scu.h ****   XMC_SCU_HIB_PIN_MODE_OUTPUT_PUSH_PULL_WDTSRV = 9 << SCU_HIBERNATE_HDCR_HIBIO0SEL_Pos, /**< Push-p
 798:C:/Users/Utente/Desktop/Tesi/Firmware_Software/DAVE project/S2GLP_Pulsed_Doppler/Libraries/XMCLib/inc\xmc4_scu.h ****   XMC_SCU_HIB_PIN_MODE_OUTPUT_PUSH_PULL_GPIO = 10 << SCU_HIBERNATE_HDCR_HIBIO0SEL_Pos, /**< Push-pu
 799:C:/Users/Utente/Desktop/Tesi/Firmware_Software/DAVE project/S2GLP_Pulsed_Doppler/Libraries/XMCLib/inc\xmc4_scu.h ****   XMC_SCU_HIB_PIN_MODE_OUTPUT_OPEN_DRAIN_HIBCTRL = 12 << SCU_HIBERNATE_HDCR_HIBIO0SEL_Pos, /**< Ope
 800:C:/Users/Utente/Desktop/Tesi/Firmware_Software/DAVE project/S2GLP_Pulsed_Doppler/Libraries/XMCLib/inc\xmc4_scu.h ****   XMC_SCU_HIB_PIN_MODE_OUTPUT_OPEN_DRAIN_WDTSRV = 13 << SCU_HIBERNATE_HDCR_HIBIO0SEL_Pos, /**< Open
 801:C:/Users/Utente/Desktop/Tesi/Firmware_Software/DAVE project/S2GLP_Pulsed_Doppler/Libraries/XMCLib/inc\xmc4_scu.h ****   XMC_SCU_HIB_PIN_MODE_OUTPUT_OPEN_DRAIN_GPIO = 14 << SCU_HIBERNATE_HDCR_HIBIO0SEL_Pos, /**< Open d
 802:C:/Users/Utente/Desktop/Tesi/Firmware_Software/DAVE project/S2GLP_Pulsed_Doppler/Libraries/XMCLib/inc\xmc4_scu.h **** } XMC_SCU_HIB_PIN_MODE_t;
 803:C:/Users/Utente/Desktop/Tesi/Firmware_Software/DAVE project/S2GLP_Pulsed_Doppler/Libraries/XMCLib/inc\xmc4_scu.h **** 
 804:C:/Users/Utente/Desktop/Tesi/Firmware_Software/DAVE project/S2GLP_Pulsed_Doppler/Libraries/XMCLib/inc\xmc4_scu.h **** /**
 805:C:/Users/Utente/Desktop/Tesi/Firmware_Software/DAVE project/S2GLP_Pulsed_Doppler/Libraries/XMCLib/inc\xmc4_scu.h ****  * Selects the output polarity of the HIB_IOx
 806:C:/Users/Utente/Desktop/Tesi/Firmware_Software/DAVE project/S2GLP_Pulsed_Doppler/Libraries/XMCLib/inc\xmc4_scu.h ****  */
 807:C:/Users/Utente/Desktop/Tesi/Firmware_Software/DAVE project/S2GLP_Pulsed_Doppler/Libraries/XMCLib/inc\xmc4_scu.h **** typedef enum XMC_SCU_HIB_IO_OUTPUT_LEVEL
 808:C:/Users/Utente/Desktop/Tesi/Firmware_Software/DAVE project/S2GLP_Pulsed_Doppler/Libraries/XMCLib/inc\xmc4_scu.h **** {
 809:C:/Users/Utente/Desktop/Tesi/Firmware_Software/DAVE project/S2GLP_Pulsed_Doppler/Libraries/XMCLib/inc\xmc4_scu.h ****   XMC_SCU_HIB_IO_OUTPUT_LEVEL_LOW = 0 << SCU_HIBERNATE_HDCR_HIBIO0POL_Pos, /**< Direct value */
 810:C:/Users/Utente/Desktop/Tesi/Firmware_Software/DAVE project/S2GLP_Pulsed_Doppler/Libraries/XMCLib/inc\xmc4_scu.h ****   XMC_SCU_HIB_IO_OUTPUT_LEVEL_HIGH = 1 << SCU_HIBERNATE_HDCR_HIBIO0POL_Pos /**< Inverted value */
 811:C:/Users/Utente/Desktop/Tesi/Firmware_Software/DAVE project/S2GLP_Pulsed_Doppler/Libraries/XMCLib/inc\xmc4_scu.h **** } XMC_SCU_HIB_IO_OUTPUT_LEVEL_t;
 812:C:/Users/Utente/Desktop/Tesi/Firmware_Software/DAVE project/S2GLP_Pulsed_Doppler/Libraries/XMCLib/inc\xmc4_scu.h **** 
 813:C:/Users/Utente/Desktop/Tesi/Firmware_Software/DAVE project/S2GLP_Pulsed_Doppler/Libraries/XMCLib/inc\xmc4_scu.h **** /**
 814:C:/Users/Utente/Desktop/Tesi/Firmware_Software/DAVE project/S2GLP_Pulsed_Doppler/Libraries/XMCLib/inc\xmc4_scu.h ****  * Selects hibernate mode
 815:C:/Users/Utente/Desktop/Tesi/Firmware_Software/DAVE project/S2GLP_Pulsed_Doppler/Libraries/XMCLib/inc\xmc4_scu.h ****  */
 816:C:/Users/Utente/Desktop/Tesi/Firmware_Software/DAVE project/S2GLP_Pulsed_Doppler/Libraries/XMCLib/inc\xmc4_scu.h **** typedef enum XMC_SCU_HIB_HIBERNATE_MODE
 817:C:/Users/Utente/Desktop/Tesi/Firmware_Software/DAVE project/S2GLP_Pulsed_Doppler/Libraries/XMCLib/inc\xmc4_scu.h **** {
 818:C:/Users/Utente/Desktop/Tesi/Firmware_Software/DAVE project/S2GLP_Pulsed_Doppler/Libraries/XMCLib/inc\xmc4_scu.h ****   XMC_SCU_HIB_HIBERNATE_MODE_EXTERNAL = 0, /**< Request external hibernate mode */
 819:C:/Users/Utente/Desktop/Tesi/Firmware_Software/DAVE project/S2GLP_Pulsed_Doppler/Libraries/XMCLib/inc\xmc4_scu.h **** #if (defined(DOXYGEN) || (UC_SERIES == XMC44) || (UC_SERIES == XMC42) || (UC_SERIES == XMC41))
 820:C:/Users/Utente/Desktop/Tesi/Firmware_Software/DAVE project/S2GLP_Pulsed_Doppler/Libraries/XMCLib/inc\xmc4_scu.h ****   XMC_SCU_HIB_HIBERNATE_MODE_INTERNAL = 1, /**< Request internal hibernate mode. @note Only availab
 821:C:/Users/Utente/Desktop/Tesi/Firmware_Software/DAVE project/S2GLP_Pulsed_Doppler/Libraries/XMCLib/inc\xmc4_scu.h **** #endif
 822:C:/Users/Utente/Desktop/Tesi/Firmware_Software/DAVE project/S2GLP_Pulsed_Doppler/Libraries/XMCLib/inc\xmc4_scu.h **** } XMC_SCU_HIB_HIBERNATE_MODE_t;
 823:C:/Users/Utente/Desktop/Tesi/Firmware_Software/DAVE project/S2GLP_Pulsed_Doppler/Libraries/XMCLib/inc\xmc4_scu.h **** 
 824:C:/Users/Utente/Desktop/Tesi/Firmware_Software/DAVE project/S2GLP_Pulsed_Doppler/Libraries/XMCLib/inc\xmc4_scu.h **** /**
 825:C:/Users/Utente/Desktop/Tesi/Firmware_Software/DAVE project/S2GLP_Pulsed_Doppler/Libraries/XMCLib/inc\xmc4_scu.h ****  * Selects input signal HIB_SR0 of ERU0
 826:C:/Users/Utente/Desktop/Tesi/Firmware_Software/DAVE project/S2GLP_Pulsed_Doppler/Libraries/XMCLib/inc\xmc4_scu.h ****  */
 827:C:/Users/Utente/Desktop/Tesi/Firmware_Software/DAVE project/S2GLP_Pulsed_Doppler/Libraries/XMCLib/inc\xmc4_scu.h **** typedef enum XMC_SCU_HIB_SR0_INPUT
 828:C:/Users/Utente/Desktop/Tesi/Firmware_Software/DAVE project/S2GLP_Pulsed_Doppler/Libraries/XMCLib/inc\xmc4_scu.h **** {
 829:C:/Users/Utente/Desktop/Tesi/Firmware_Software/DAVE project/S2GLP_Pulsed_Doppler/Libraries/XMCLib/inc\xmc4_scu.h ****   XMC_SCU_HIB_SR0_INPUT_HIB_IO_0 = SCU_HIBERNATE_HDCR_GPI0SEL_Msk, /**< Set HIB_SR0 to HIB_IO_0 dig
 830:C:/Users/Utente/Desktop/Tesi/Firmware_Software/DAVE project/S2GLP_Pulsed_Doppler/Libraries/XMCLib/inc\xmc4_scu.h **** #if (defined(DOXYGEN) || (UC_PACKAGE == BGA196) || (UC_PACKAGE == BGA144) || (UC_PACKAGE == LQFP144
 831:C:/Users/Utente/Desktop/Tesi/Firmware_Software/DAVE project/S2GLP_Pulsed_Doppler/Libraries/XMCLib/inc\xmc4_scu.h ****   XMC_SCU_HIB_SR0_INPUT_HIB_IO_1 = 0, /**< Set HIB_SR0 to HIB_IO_1 digital input. @note Only availa
 832:C:/Users/Utente/Desktop/Tesi/Firmware_Software/DAVE project/S2GLP_Pulsed_Doppler/Libraries/XMCLib/inc\xmc4_scu.h **** #endif  
 833:C:/Users/Utente/Desktop/Tesi/Firmware_Software/DAVE project/S2GLP_Pulsed_Doppler/Libraries/XMCLib/inc\xmc4_scu.h **** #if (defined(DOXYGEN) || (UC_SERIES == XMC44) || (UC_SERIES == XMC42) || (UC_SERIES == XMC41))
 834:C:/Users/Utente/Desktop/Tesi/Firmware_Software/DAVE project/S2GLP_Pulsed_Doppler/Libraries/XMCLib/inc\xmc4_scu.h ****   XMC_SCU_HIB_SR0_INPUT_ACMP0 = SCU_HIBERNATE_HDCR_ADIG0SEL_Msk,  /**< Set HIB_SR0 to LPAC CMP0. @n
 835:C:/Users/Utente/Desktop/Tesi/Firmware_Software/DAVE project/S2GLP_Pulsed_Doppler/Libraries/XMCLib/inc\xmc4_scu.h **** #endif
 836:C:/Users/Utente/Desktop/Tesi/Firmware_Software/DAVE project/S2GLP_Pulsed_Doppler/Libraries/XMCLib/inc\xmc4_scu.h **** } XMC_SCU_HIB_SR0_INPUT_t;
 837:C:/Users/Utente/Desktop/Tesi/Firmware_Software/DAVE project/S2GLP_Pulsed_Doppler/Libraries/XMCLib/inc\xmc4_scu.h **** 
 838:C:/Users/Utente/Desktop/Tesi/Firmware_Software/DAVE project/S2GLP_Pulsed_Doppler/Libraries/XMCLib/inc\xmc4_scu.h **** #if (defined(DOXYGEN) || (UC_SERIES == XMC44) || (UC_SERIES == XMC42) || (UC_SERIES == XMC41))
 839:C:/Users/Utente/Desktop/Tesi/Firmware_Software/DAVE project/S2GLP_Pulsed_Doppler/Libraries/XMCLib/inc\xmc4_scu.h **** 
 840:C:/Users/Utente/Desktop/Tesi/Firmware_Software/DAVE project/S2GLP_Pulsed_Doppler/Libraries/XMCLib/inc\xmc4_scu.h **** #if ((UC_SERIES == XMC44) && (UC_PACKAGE == LQFP100))
 841:C:/Users/Utente/Desktop/Tesi/Firmware_Software/DAVE project/S2GLP_Pulsed_Doppler/Libraries/XMCLib/inc\xmc4_scu.h **** /**
 842:C:/Users/Utente/Desktop/Tesi/Firmware_Software/DAVE project/S2GLP_Pulsed_Doppler/Libraries/XMCLib/inc\xmc4_scu.h ****  * Selects input signal HIB_SR1 of ERU0. @note Only available in XMC44 in certain packages.
 843:C:/Users/Utente/Desktop/Tesi/Firmware_Software/DAVE project/S2GLP_Pulsed_Doppler/Libraries/XMCLib/inc\xmc4_scu.h ****  */
 844:C:/Users/Utente/Desktop/Tesi/Firmware_Software/DAVE project/S2GLP_Pulsed_Doppler/Libraries/XMCLib/inc\xmc4_scu.h **** typedef enum XMC_SCU_HIB_SR1_INPUT
 845:C:/Users/Utente/Desktop/Tesi/Firmware_Software/DAVE project/S2GLP_Pulsed_Doppler/Libraries/XMCLib/inc\xmc4_scu.h **** {
 846:C:/Users/Utente/Desktop/Tesi/Firmware_Software/DAVE project/S2GLP_Pulsed_Doppler/Libraries/XMCLib/inc\xmc4_scu.h ****   XMC_SCU_HIB_SR1_INPUT_HIB_IO_0 = SCU_HIBERNATE_HDCR_GPI1SEL_Msk, /**< Set HIB_SR1 to HIB_IO_0 dig
 847:C:/Users/Utente/Desktop/Tesi/Firmware_Software/DAVE project/S2GLP_Pulsed_Doppler/Libraries/XMCLib/inc\xmc4_scu.h ****   XMC_SCU_HIB_SR1_INPUT_HIB_IO_1 = 0, /**< Set HIB_SR1 to HIB_IO_1 digital input.  */
 848:C:/Users/Utente/Desktop/Tesi/Firmware_Software/DAVE project/S2GLP_Pulsed_Doppler/Libraries/XMCLib/inc\xmc4_scu.h ****   XMC_SCU_HIB_SR1_INPUT_ACMP1 = SCU_HIBERNATE_HDCR_ADIG1SEL_Msk,  /**< Set HIB_SR0 to LPAC CMP1. */
 849:C:/Users/Utente/Desktop/Tesi/Firmware_Software/DAVE project/S2GLP_Pulsed_Doppler/Libraries/XMCLib/inc\xmc4_scu.h ****   XMC_SCU_HIB_SR1_INPUT_XTAL_GPI = SCU_HIBERNATE_HDCR_XTALGPI1SEL_Msk,  /**< Set HIB_SR0 to RTC_XTA
 850:C:/Users/Utente/Desktop/Tesi/Firmware_Software/DAVE project/S2GLP_Pulsed_Doppler/Libraries/XMCLib/inc\xmc4_scu.h **** } XMC_SCU_HIB_SR1_INPUT_t;
 851:C:/Users/Utente/Desktop/Tesi/Firmware_Software/DAVE project/S2GLP_Pulsed_Doppler/Libraries/XMCLib/inc\xmc4_scu.h **** #endif
 852:C:/Users/Utente/Desktop/Tesi/Firmware_Software/DAVE project/S2GLP_Pulsed_Doppler/Libraries/XMCLib/inc\xmc4_scu.h **** 
 853:C:/Users/Utente/Desktop/Tesi/Firmware_Software/DAVE project/S2GLP_Pulsed_Doppler/Libraries/XMCLib/inc\xmc4_scu.h **** /**
 854:C:/Users/Utente/Desktop/Tesi/Firmware_Software/DAVE project/S2GLP_Pulsed_Doppler/Libraries/XMCLib/inc\xmc4_scu.h ****  * HIB LPAC input selection
 855:C:/Users/Utente/Desktop/Tesi/Firmware_Software/DAVE project/S2GLP_Pulsed_Doppler/Libraries/XMCLib/inc\xmc4_scu.h ****  */
 856:C:/Users/Utente/Desktop/Tesi/Firmware_Software/DAVE project/S2GLP_Pulsed_Doppler/Libraries/XMCLib/inc\xmc4_scu.h **** typedef enum XMC_SCU_HIB_LPAC_INPUT
 857:C:/Users/Utente/Desktop/Tesi/Firmware_Software/DAVE project/S2GLP_Pulsed_Doppler/Libraries/XMCLib/inc\xmc4_scu.h **** {
 858:C:/Users/Utente/Desktop/Tesi/Firmware_Software/DAVE project/S2GLP_Pulsed_Doppler/Libraries/XMCLib/inc\xmc4_scu.h ****   XMC_SCU_HIB_LPAC_INPUT_DISABLED = 0 << SCU_HIBERNATE_LPACCONF_CMPEN_Pos, /**< Comparator permanen
 859:C:/Users/Utente/Desktop/Tesi/Firmware_Software/DAVE project/S2GLP_Pulsed_Doppler/Libraries/XMCLib/inc\xmc4_scu.h ****   XMC_SCU_HIB_LPAC_INPUT_VBAT = 0x1 << SCU_HIBERNATE_LPACCONF_CMPEN_Pos, /**< Comparator activated 
 860:C:/Users/Utente/Desktop/Tesi/Firmware_Software/DAVE project/S2GLP_Pulsed_Doppler/Libraries/XMCLib/inc\xmc4_scu.h ****   XMC_SCU_HIB_LPAC_INPUT_HIB_IO_0 = 0x2 << SCU_HIBERNATE_LPACCONF_CMPEN_Pos, /**< Comparator activa
 861:C:/Users/Utente/Desktop/Tesi/Firmware_Software/DAVE project/S2GLP_Pulsed_Doppler/Libraries/XMCLib/inc\xmc4_scu.h **** #if (defined(DOXYGEN) || ((UC_SERIES == XMC44) && (UC_PACKAGE == LQFP100)))      
 862:C:/Users/Utente/Desktop/Tesi/Firmware_Software/DAVE project/S2GLP_Pulsed_Doppler/Libraries/XMCLib/inc\xmc4_scu.h ****   XMC_SCU_HIB_LPAC_INPUT_HIB_IO_1 = 0x4 << SCU_HIBERNATE_LPACCONF_CMPEN_Pos, /**< Comparator activa
 863:C:/Users/Utente/Desktop/Tesi/Firmware_Software/DAVE project/S2GLP_Pulsed_Doppler/Libraries/XMCLib/inc\xmc4_scu.h **** #endif  
 864:C:/Users/Utente/Desktop/Tesi/Firmware_Software/DAVE project/S2GLP_Pulsed_Doppler/Libraries/XMCLib/inc\xmc4_scu.h **** } XMC_SCU_HIB_LPAC_INPUT_t;
 865:C:/Users/Utente/Desktop/Tesi/Firmware_Software/DAVE project/S2GLP_Pulsed_Doppler/Libraries/XMCLib/inc\xmc4_scu.h **** 
 866:C:/Users/Utente/Desktop/Tesi/Firmware_Software/DAVE project/S2GLP_Pulsed_Doppler/Libraries/XMCLib/inc\xmc4_scu.h **** /**
 867:C:/Users/Utente/Desktop/Tesi/Firmware_Software/DAVE project/S2GLP_Pulsed_Doppler/Libraries/XMCLib/inc\xmc4_scu.h ****  * HIB LPAC start trigger selection for selected inputs
 868:C:/Users/Utente/Desktop/Tesi/Firmware_Software/DAVE project/S2GLP_Pulsed_Doppler/Libraries/XMCLib/inc\xmc4_scu.h ****  */
 869:C:/Users/Utente/Desktop/Tesi/Firmware_Software/DAVE project/S2GLP_Pulsed_Doppler/Libraries/XMCLib/inc\xmc4_scu.h **** typedef enum XMC_SCU_HIB_LPAC_TRIGGER
 870:C:/Users/Utente/Desktop/Tesi/Firmware_Software/DAVE project/S2GLP_Pulsed_Doppler/Libraries/XMCLib/inc\xmc4_scu.h **** {
 871:C:/Users/Utente/Desktop/Tesi/Firmware_Software/DAVE project/S2GLP_Pulsed_Doppler/Libraries/XMCLib/inc\xmc4_scu.h ****   XMC_SCU_HIB_LPAC_TRIGGER_SUBSECOND_INTERVAL_COUNTER = 0 << SCU_HIBERNATE_LPACCONF_TRIGSEL_Pos, /*
 872:C:/Users/Utente/Desktop/Tesi/Firmware_Software/DAVE project/S2GLP_Pulsed_Doppler/Libraries/XMCLib/inc\xmc4_scu.h ****   XMC_SCU_HIB_LPAC_TRIGGER_RTC_ALARM_EVENT = 0x1 << SCU_HIBERNATE_LPACCONF_TRIGSEL_Pos, /**< RTC al
 873:C:/Users/Utente/Desktop/Tesi/Firmware_Software/DAVE project/S2GLP_Pulsed_Doppler/Libraries/XMCLib/inc\xmc4_scu.h ****   XMC_SCU_HIB_LPAC_TRIGGER_RTC_PERIODIC_EVENT = 0x2 << SCU_HIBERNATE_LPACCONF_TRIGSEL_Pos, /**< RTC
 874:C:/Users/Utente/Desktop/Tesi/Firmware_Software/DAVE project/S2GLP_Pulsed_Doppler/Libraries/XMCLib/inc\xmc4_scu.h ****   XMC_SCU_HIB_LPAC_TRIGGER_ON_WAKEUP_POSITIVE_EDGE_EVENT = 0x3 << SCU_HIBERNATE_LPACCONF_TRIGSEL_Po
 875:C:/Users/Utente/Desktop/Tesi/Firmware_Software/DAVE project/S2GLP_Pulsed_Doppler/Libraries/XMCLib/inc\xmc4_scu.h ****   XMC_SCU_HIB_LPAC_TRIGGER_ON_WAKEUP_NEGATIVE_EDGE_EVENT = 0x5 << SCU_HIBERNATE_LPACCONF_TRIGSEL_Po
 876:C:/Users/Utente/Desktop/Tesi/Firmware_Software/DAVE project/S2GLP_Pulsed_Doppler/Libraries/XMCLib/inc\xmc4_scu.h ****   XMC_SCU_HIB_LPAC_TRIGGER_CONTINOUS = 0x6 << SCU_HIBERNATE_LPACCONF_TRIGSEL_Pos, /**< Continuous m
 877:C:/Users/Utente/Desktop/Tesi/Firmware_Software/DAVE project/S2GLP_Pulsed_Doppler/Libraries/XMCLib/inc\xmc4_scu.h ****   XMC_SCU_HIB_LPAC_TRIGGER_SINGLE_SHOT = 0x7 << SCU_HIBERNATE_LPACCONF_TRIGSEL_Pos, /**< Single sho
 878:C:/Users/Utente/Desktop/Tesi/Firmware_Software/DAVE project/S2GLP_Pulsed_Doppler/Libraries/XMCLib/inc\xmc4_scu.h **** } XMC_SCU_HIB_LPAC_TRIGGER_t;
 879:C:/Users/Utente/Desktop/Tesi/Firmware_Software/DAVE project/S2GLP_Pulsed_Doppler/Libraries/XMCLib/inc\xmc4_scu.h **** 
 880:C:/Users/Utente/Desktop/Tesi/Firmware_Software/DAVE project/S2GLP_Pulsed_Doppler/Libraries/XMCLib/inc\xmc4_scu.h **** /**
 881:C:/Users/Utente/Desktop/Tesi/Firmware_Software/DAVE project/S2GLP_Pulsed_Doppler/Libraries/XMCLib/inc\xmc4_scu.h ****  * HIB LPAC status
 882:C:/Users/Utente/Desktop/Tesi/Firmware_Software/DAVE project/S2GLP_Pulsed_Doppler/Libraries/XMCLib/inc\xmc4_scu.h ****  */
 883:C:/Users/Utente/Desktop/Tesi/Firmware_Software/DAVE project/S2GLP_Pulsed_Doppler/Libraries/XMCLib/inc\xmc4_scu.h **** typedef enum XMC_SCU_HIB_LPAC_STATUS
 884:C:/Users/Utente/Desktop/Tesi/Firmware_Software/DAVE project/S2GLP_Pulsed_Doppler/Libraries/XMCLib/inc\xmc4_scu.h **** {
 885:C:/Users/Utente/Desktop/Tesi/Firmware_Software/DAVE project/S2GLP_Pulsed_Doppler/Libraries/XMCLib/inc\xmc4_scu.h ****   XMC_SCU_HIB_LPAC_STATUS_VBAT_COMPARE_DONE = SCU_HIBERNATE_LPACST_VBATSCMP_Msk, /**< VBAT compare 
 886:C:/Users/Utente/Desktop/Tesi/Firmware_Software/DAVE project/S2GLP_Pulsed_Doppler/Libraries/XMCLib/inc\xmc4_scu.h ****   XMC_SCU_HIB_LPAC_STATUS_HIB_IO_0_COMPARE_DONE = SCU_HIBERNATE_LPACST_AHIBIO0SCMP_Msk, /**< HBI_IO
 887:C:/Users/Utente/Desktop/Tesi/Firmware_Software/DAVE project/S2GLP_Pulsed_Doppler/Libraries/XMCLib/inc\xmc4_scu.h **** #if (defined(DOXYGEN) || ((UC_SERIES == XMC44) && (UC_PACKAGE == LQFP100)))        
 888:C:/Users/Utente/Desktop/Tesi/Firmware_Software/DAVE project/S2GLP_Pulsed_Doppler/Libraries/XMCLib/inc\xmc4_scu.h ****   XMC_SCU_HIB_LPAC_STATUS_HIB_IO_1_COMPARE_DONE = SCU_HIBERNATE_LPACST_AHIBIO1SCMP_Msk, /**< HBI_IO
 889:C:/Users/Utente/Desktop/Tesi/Firmware_Software/DAVE project/S2GLP_Pulsed_Doppler/Libraries/XMCLib/inc\xmc4_scu.h **** #endif  
 890:C:/Users/Utente/Desktop/Tesi/Firmware_Software/DAVE project/S2GLP_Pulsed_Doppler/Libraries/XMCLib/inc\xmc4_scu.h ****   XMC_SCU_HIB_LPAC_STATUS_VBAT_ABOVE_THRESHOLD = SCU_HIBERNATE_LPACST_VBATVAL_Msk, /**< VBAT compar
 891:C:/Users/Utente/Desktop/Tesi/Firmware_Software/DAVE project/S2GLP_Pulsed_Doppler/Libraries/XMCLib/inc\xmc4_scu.h ****   XMC_SCU_HIB_LPAC_STATUS_HIB_IO_0_ABOVE_THRESHOLD = SCU_HIBERNATE_LPACST_AHIBIO0VAL_Msk, /**< HBI_
 892:C:/Users/Utente/Desktop/Tesi/Firmware_Software/DAVE project/S2GLP_Pulsed_Doppler/Libraries/XMCLib/inc\xmc4_scu.h **** #if (defined(DOXYGEN) || ((UC_SERIES == XMC44) && (UC_PACKAGE == LQFP100)))        
 893:C:/Users/Utente/Desktop/Tesi/Firmware_Software/DAVE project/S2GLP_Pulsed_Doppler/Libraries/XMCLib/inc\xmc4_scu.h ****   XMC_SCU_HIB_LPAC_STATUS_HIB_IO_1_ABOVE_THRESHOLD = SCU_HIBERNATE_LPACST_AHIBIO1VAL_Msk, /**< HBI_
 894:C:/Users/Utente/Desktop/Tesi/Firmware_Software/DAVE project/S2GLP_Pulsed_Doppler/Libraries/XMCLib/inc\xmc4_scu.h **** #endif  
 895:C:/Users/Utente/Desktop/Tesi/Firmware_Software/DAVE project/S2GLP_Pulsed_Doppler/Libraries/XMCLib/inc\xmc4_scu.h **** } XMC_SCU_HIB_LPAC_STATUS_t;
 896:C:/Users/Utente/Desktop/Tesi/Firmware_Software/DAVE project/S2GLP_Pulsed_Doppler/Libraries/XMCLib/inc\xmc4_scu.h **** 
 897:C:/Users/Utente/Desktop/Tesi/Firmware_Software/DAVE project/S2GLP_Pulsed_Doppler/Libraries/XMCLib/inc\xmc4_scu.h **** #endif /* (defined(DOXYGEN) || (UC_SERIES == XMC44) || (UC_SERIES == XMC42) || (UC_SERIES == XMC41)
 898:C:/Users/Utente/Desktop/Tesi/Firmware_Software/DAVE project/S2GLP_Pulsed_Doppler/Libraries/XMCLib/inc\xmc4_scu.h **** 
 899:C:/Users/Utente/Desktop/Tesi/Firmware_Software/DAVE project/S2GLP_Pulsed_Doppler/Libraries/XMCLib/inc\xmc4_scu.h **** /**************************************************************************************************
 900:C:/Users/Utente/Desktop/Tesi/Firmware_Software/DAVE project/S2GLP_Pulsed_Doppler/Libraries/XMCLib/inc\xmc4_scu.h ****  * DATA STRUCTURES
 901:C:/Users/Utente/Desktop/Tesi/Firmware_Software/DAVE project/S2GLP_Pulsed_Doppler/Libraries/XMCLib/inc\xmc4_scu.h ****  **************************************************************************************************
 902:C:/Users/Utente/Desktop/Tesi/Firmware_Software/DAVE project/S2GLP_Pulsed_Doppler/Libraries/XMCLib/inc\xmc4_scu.h **** 
 903:C:/Users/Utente/Desktop/Tesi/Firmware_Software/DAVE project/S2GLP_Pulsed_Doppler/Libraries/XMCLib/inc\xmc4_scu.h **** /**
 904:C:/Users/Utente/Desktop/Tesi/Firmware_Software/DAVE project/S2GLP_Pulsed_Doppler/Libraries/XMCLib/inc\xmc4_scu.h ****  *  Defines a data structure for initializing the PLL functional block.
 905:C:/Users/Utente/Desktop/Tesi/Firmware_Software/DAVE project/S2GLP_Pulsed_Doppler/Libraries/XMCLib/inc\xmc4_scu.h ****  *  Structure holds divider values for N-DIV, P-DIV, K1-DIV, K2-DIV in order to generate desired 
 906:C:/Users/Utente/Desktop/Tesi/Firmware_Software/DAVE project/S2GLP_Pulsed_Doppler/Libraries/XMCLib/inc\xmc4_scu.h ****  *  frequency using VCO. It holds the PLL mode of operation either normal or prescaler (VCO bypasse
 907:C:/Users/Utente/Desktop/Tesi/Firmware_Software/DAVE project/S2GLP_Pulsed_Doppler/Libraries/XMCLib/inc\xmc4_scu.h ****  *  Use type \a XMC_SCU_CLOCK_PLL_CONFIG_t for accessing these structure parameters.
 908:C:/Users/Utente/Desktop/Tesi/Firmware_Software/DAVE project/S2GLP_Pulsed_Doppler/Libraries/XMCLib/inc\xmc4_scu.h ****  */
 909:C:/Users/Utente/Desktop/Tesi/Firmware_Software/DAVE project/S2GLP_Pulsed_Doppler/Libraries/XMCLib/inc\xmc4_scu.h **** typedef struct XMC_SCU_CLOCK_SYSPLL_CONFIG
 910:C:/Users/Utente/Desktop/Tesi/Firmware_Software/DAVE project/S2GLP_Pulsed_Doppler/Libraries/XMCLib/inc\xmc4_scu.h **** {
 911:C:/Users/Utente/Desktop/Tesi/Firmware_Software/DAVE project/S2GLP_Pulsed_Doppler/Libraries/XMCLib/inc\xmc4_scu.h ****   uint8_t n_div;                       /**<  PLL N-Divider value. */
 912:C:/Users/Utente/Desktop/Tesi/Firmware_Software/DAVE project/S2GLP_Pulsed_Doppler/Libraries/XMCLib/inc\xmc4_scu.h ****   uint8_t p_div;                       /**<  PLL P-Divider value. */
 913:C:/Users/Utente/Desktop/Tesi/Firmware_Software/DAVE project/S2GLP_Pulsed_Doppler/Libraries/XMCLib/inc\xmc4_scu.h ****   uint8_t k_div;                       /**<  K1-Divider(Prescalar mode) or K2-Divider (Normal mode)
 914:C:/Users/Utente/Desktop/Tesi/Firmware_Software/DAVE project/S2GLP_Pulsed_Doppler/Libraries/XMCLib/inc\xmc4_scu.h ****   XMC_SCU_CLOCK_SYSPLL_MODE_t mode;    /**<  PLL mode of operation. */
 915:C:/Users/Utente/Desktop/Tesi/Firmware_Software/DAVE project/S2GLP_Pulsed_Doppler/Libraries/XMCLib/inc\xmc4_scu.h ****   XMC_SCU_CLOCK_SYSPLLCLKSRC_t clksrc; /**<  PLL divider input frequency. */
 916:C:/Users/Utente/Desktop/Tesi/Firmware_Software/DAVE project/S2GLP_Pulsed_Doppler/Libraries/XMCLib/inc\xmc4_scu.h **** } XMC_SCU_CLOCK_SYSPLL_CONFIG_t;
 917:C:/Users/Utente/Desktop/Tesi/Firmware_Software/DAVE project/S2GLP_Pulsed_Doppler/Libraries/XMCLib/inc\xmc4_scu.h **** 
 918:C:/Users/Utente/Desktop/Tesi/Firmware_Software/DAVE project/S2GLP_Pulsed_Doppler/Libraries/XMCLib/inc\xmc4_scu.h **** /**
 919:C:/Users/Utente/Desktop/Tesi/Firmware_Software/DAVE project/S2GLP_Pulsed_Doppler/Libraries/XMCLib/inc\xmc4_scu.h ****  *  Defines a data structure used for initializing the clock functional block.
 920:C:/Users/Utente/Desktop/Tesi/Firmware_Software/DAVE project/S2GLP_Pulsed_Doppler/Libraries/XMCLib/inc\xmc4_scu.h ****  *  Clock functional block configures clock source needed for various peripheral and its divider va
 921:C:/Users/Utente/Desktop/Tesi/Firmware_Software/DAVE project/S2GLP_Pulsed_Doppler/Libraries/XMCLib/inc\xmc4_scu.h ****  *  Use type \a XMC_SCU_CLOCK_CONFIG_t for accessing these structure parameters.
 922:C:/Users/Utente/Desktop/Tesi/Firmware_Software/DAVE project/S2GLP_Pulsed_Doppler/Libraries/XMCLib/inc\xmc4_scu.h ****  */
 923:C:/Users/Utente/Desktop/Tesi/Firmware_Software/DAVE project/S2GLP_Pulsed_Doppler/Libraries/XMCLib/inc\xmc4_scu.h **** typedef struct XMC_SCU_CLOCK_CONFIG
 924:C:/Users/Utente/Desktop/Tesi/Firmware_Software/DAVE project/S2GLP_Pulsed_Doppler/Libraries/XMCLib/inc\xmc4_scu.h **** {
 925:C:/Users/Utente/Desktop/Tesi/Firmware_Software/DAVE project/S2GLP_Pulsed_Doppler/Libraries/XMCLib/inc\xmc4_scu.h ****   XMC_SCU_CLOCK_SYSPLL_CONFIG_t         syspll_config;      /**< PLL configuration */
 926:C:/Users/Utente/Desktop/Tesi/Firmware_Software/DAVE project/S2GLP_Pulsed_Doppler/Libraries/XMCLib/inc\xmc4_scu.h ****   bool                                  enable_oschp;       /**< Enable external high precision osc
 927:C:/Users/Utente/Desktop/Tesi/Firmware_Software/DAVE project/S2GLP_Pulsed_Doppler/Libraries/XMCLib/inc\xmc4_scu.h ****                                                                  Should be enabled when fOHP has to
 928:C:/Users/Utente/Desktop/Tesi/Firmware_Software/DAVE project/S2GLP_Pulsed_Doppler/Libraries/XMCLib/inc\xmc4_scu.h ****   bool                                  enable_osculp;      /**< Enable external ultra low power os
 929:C:/Users/Utente/Desktop/Tesi/Firmware_Software/DAVE project/S2GLP_Pulsed_Doppler/Libraries/XMCLib/inc\xmc4_scu.h ****                                                                  Should be enabled when fULP has to
 930:C:/Users/Utente/Desktop/Tesi/Firmware_Software/DAVE project/S2GLP_Pulsed_Doppler/Libraries/XMCLib/inc\xmc4_scu.h ****   XMC_SCU_CLOCK_FOFI_CALIBRATION_MODE_t calibration_mode;   /**< Backup clock trimming mode. */
 931:C:/Users/Utente/Desktop/Tesi/Firmware_Software/DAVE project/S2GLP_Pulsed_Doppler/Libraries/XMCLib/inc\xmc4_scu.h ****   XMC_SCU_HIB_STDBYCLKSRC_t             fstdby_clksrc;      /**< Standby clock source. */
 932:C:/Users/Utente/Desktop/Tesi/Firmware_Software/DAVE project/S2GLP_Pulsed_Doppler/Libraries/XMCLib/inc\xmc4_scu.h ****   XMC_SCU_CLOCK_SYSCLKSRC_t             fsys_clksrc;        /**< Choice of system clock. */
 933:C:/Users/Utente/Desktop/Tesi/Firmware_Software/DAVE project/S2GLP_Pulsed_Doppler/Libraries/XMCLib/inc\xmc4_scu.h ****   uint8_t                               fsys_clkdiv;        /**< Ratio of fPLL to fSYS. */
 934:C:/Users/Utente/Desktop/Tesi/Firmware_Software/DAVE project/S2GLP_Pulsed_Doppler/Libraries/XMCLib/inc\xmc4_scu.h ****   uint8_t                               fcpu_clkdiv;        /**< Ratio of fSys to fCPU. */
 935:C:/Users/Utente/Desktop/Tesi/Firmware_Software/DAVE project/S2GLP_Pulsed_Doppler/Libraries/XMCLib/inc\xmc4_scu.h ****   uint8_t                               fccu_clkdiv;        /**< Ratio of fSys to fCCU. */
 936:C:/Users/Utente/Desktop/Tesi/Firmware_Software/DAVE project/S2GLP_Pulsed_Doppler/Libraries/XMCLib/inc\xmc4_scu.h ****   uint8_t                               fperipheral_clkdiv; /**< Ratio of fSYS to fPERI. */
 937:C:/Users/Utente/Desktop/Tesi/Firmware_Software/DAVE project/S2GLP_Pulsed_Doppler/Libraries/XMCLib/inc\xmc4_scu.h **** } const XMC_SCU_CLOCK_CONFIG_t;
 938:C:/Users/Utente/Desktop/Tesi/Firmware_Software/DAVE project/S2GLP_Pulsed_Doppler/Libraries/XMCLib/inc\xmc4_scu.h **** 
 939:C:/Users/Utente/Desktop/Tesi/Firmware_Software/DAVE project/S2GLP_Pulsed_Doppler/Libraries/XMCLib/inc\xmc4_scu.h **** /**
 940:C:/Users/Utente/Desktop/Tesi/Firmware_Software/DAVE project/S2GLP_Pulsed_Doppler/Libraries/XMCLib/inc\xmc4_scu.h ****  * Low power modes
 941:C:/Users/Utente/Desktop/Tesi/Firmware_Software/DAVE project/S2GLP_Pulsed_Doppler/Libraries/XMCLib/inc\xmc4_scu.h ****  */
 942:C:/Users/Utente/Desktop/Tesi/Firmware_Software/DAVE project/S2GLP_Pulsed_Doppler/Libraries/XMCLib/inc\xmc4_scu.h **** typedef enum XMC_SCU_POWER_MODE_t
 943:C:/Users/Utente/Desktop/Tesi/Firmware_Software/DAVE project/S2GLP_Pulsed_Doppler/Libraries/XMCLib/inc\xmc4_scu.h **** {
 944:C:/Users/Utente/Desktop/Tesi/Firmware_Software/DAVE project/S2GLP_Pulsed_Doppler/Libraries/XMCLib/inc\xmc4_scu.h ****   XMC_SCU_POWER_MODE_SLEEP = 0, /**< sleep mode stops the processor clock */
 945:C:/Users/Utente/Desktop/Tesi/Firmware_Software/DAVE project/S2GLP_Pulsed_Doppler/Libraries/XMCLib/inc\xmc4_scu.h ****   XMC_SCU_POWER_MODE_DEEPSLEEP = SCB_SCR_SLEEPDEEP_Msk /**< deep sleep mode stops the system clock 
 946:C:/Users/Utente/Desktop/Tesi/Firmware_Software/DAVE project/S2GLP_Pulsed_Doppler/Libraries/XMCLib/inc\xmc4_scu.h **** } XMC_SCU_POWER_MODE_t;
 947:C:/Users/Utente/Desktop/Tesi/Firmware_Software/DAVE project/S2GLP_Pulsed_Doppler/Libraries/XMCLib/inc\xmc4_scu.h **** 
 948:C:/Users/Utente/Desktop/Tesi/Firmware_Software/DAVE project/S2GLP_Pulsed_Doppler/Libraries/XMCLib/inc\xmc4_scu.h **** /**************************************************************************************************
 949:C:/Users/Utente/Desktop/Tesi/Firmware_Software/DAVE project/S2GLP_Pulsed_Doppler/Libraries/XMCLib/inc\xmc4_scu.h ****  * API PROTOTYPES
 950:C:/Users/Utente/Desktop/Tesi/Firmware_Software/DAVE project/S2GLP_Pulsed_Doppler/Libraries/XMCLib/inc\xmc4_scu.h ****  **************************************************************************************************
 951:C:/Users/Utente/Desktop/Tesi/Firmware_Software/DAVE project/S2GLP_Pulsed_Doppler/Libraries/XMCLib/inc\xmc4_scu.h **** 
 952:C:/Users/Utente/Desktop/Tesi/Firmware_Software/DAVE project/S2GLP_Pulsed_Doppler/Libraries/XMCLib/inc\xmc4_scu.h **** #ifdef __cplusplus
 953:C:/Users/Utente/Desktop/Tesi/Firmware_Software/DAVE project/S2GLP_Pulsed_Doppler/Libraries/XMCLib/inc\xmc4_scu.h **** extern "C" {
 954:C:/Users/Utente/Desktop/Tesi/Firmware_Software/DAVE project/S2GLP_Pulsed_Doppler/Libraries/XMCLib/inc\xmc4_scu.h **** #endif
 955:C:/Users/Utente/Desktop/Tesi/Firmware_Software/DAVE project/S2GLP_Pulsed_Doppler/Libraries/XMCLib/inc\xmc4_scu.h **** 
 956:C:/Users/Utente/Desktop/Tesi/Firmware_Software/DAVE project/S2GLP_Pulsed_Doppler/Libraries/XMCLib/inc\xmc4_scu.h **** /**
 957:C:/Users/Utente/Desktop/Tesi/Firmware_Software/DAVE project/S2GLP_Pulsed_Doppler/Libraries/XMCLib/inc\xmc4_scu.h ****  * 
 958:C:/Users/Utente/Desktop/Tesi/Firmware_Software/DAVE project/S2GLP_Pulsed_Doppler/Libraries/XMCLib/inc\xmc4_scu.h ****  * @param group   ADC Group to which the channel being monitored belongs to.\n
 959:C:/Users/Utente/Desktop/Tesi/Firmware_Software/DAVE project/S2GLP_Pulsed_Doppler/Libraries/XMCLib/inc\xmc4_scu.h ****  *                 \b Range: 0 or 1.
 960:C:/Users/Utente/Desktop/Tesi/Firmware_Software/DAVE project/S2GLP_Pulsed_Doppler/Libraries/XMCLib/inc\xmc4_scu.h ****  * @param channel  The channel whose voltage range has to be monitored.\n
 961:C:/Users/Utente/Desktop/Tesi/Firmware_Software/DAVE project/S2GLP_Pulsed_Doppler/Libraries/XMCLib/inc\xmc4_scu.h ****  *                 \b Range: 6 or 7. Value identifies the channel in the selected ADC group.
 962:C:/Users/Utente/Desktop/Tesi/Firmware_Software/DAVE project/S2GLP_Pulsed_Doppler/Libraries/XMCLib/inc\xmc4_scu.h ****  *
 963:C:/Users/Utente/Desktop/Tesi/Firmware_Software/DAVE project/S2GLP_Pulsed_Doppler/Libraries/XMCLib/inc\xmc4_scu.h ****  * @return None
 964:C:/Users/Utente/Desktop/Tesi/Firmware_Software/DAVE project/S2GLP_Pulsed_Doppler/Libraries/XMCLib/inc\xmc4_scu.h ****  *
 965:C:/Users/Utente/Desktop/Tesi/Firmware_Software/DAVE project/S2GLP_Pulsed_Doppler/Libraries/XMCLib/inc\xmc4_scu.h ****  * \par<b>Description</b><br>
 966:C:/Users/Utente/Desktop/Tesi/Firmware_Software/DAVE project/S2GLP_Pulsed_Doppler/Libraries/XMCLib/inc\xmc4_scu.h ****  * Enables out of range comparator for the selected ADC group and channel. \n\n
 967:C:/Users/Utente/Desktop/Tesi/Firmware_Software/DAVE project/S2GLP_Pulsed_Doppler/Libraries/XMCLib/inc\xmc4_scu.h ****  * The ADC channel input is compared by Out of Range Comparator (ORC) for overvoltage monitoring
 968:C:/Users/Utente/Desktop/Tesi/Firmware_Software/DAVE project/S2GLP_Pulsed_Doppler/Libraries/XMCLib/inc\xmc4_scu.h ****  * or for detection of out of range analog inputs. ORC must be turned on explicitly
 969:C:/Users/Utente/Desktop/Tesi/Firmware_Software/DAVE project/S2GLP_Pulsed_Doppler/Libraries/XMCLib/inc\xmc4_scu.h ****  * to leverage the auditing feature. ORC is enabled by setting the enable bit in the GORCEN registe
 970:C:/Users/Utente/Desktop/Tesi/Firmware_Software/DAVE project/S2GLP_Pulsed_Doppler/Libraries/XMCLib/inc\xmc4_scu.h ****  * \par<b>Related APIs:</b><BR>
 971:C:/Users/Utente/Desktop/Tesi/Firmware_Software/DAVE project/S2GLP_Pulsed_Doppler/Libraries/XMCLib/inc\xmc4_scu.h ****  * XMC_SCU_DisableOutOfRangeComparator()\n\n\n
 972:C:/Users/Utente/Desktop/Tesi/Firmware_Software/DAVE project/S2GLP_Pulsed_Doppler/Libraries/XMCLib/inc\xmc4_scu.h ****  */
 973:C:/Users/Utente/Desktop/Tesi/Firmware_Software/DAVE project/S2GLP_Pulsed_Doppler/Libraries/XMCLib/inc\xmc4_scu.h **** void XMC_SCU_EnableOutOfRangeComparator(const uint32_t group, const uint32_t channel);
 974:C:/Users/Utente/Desktop/Tesi/Firmware_Software/DAVE project/S2GLP_Pulsed_Doppler/Libraries/XMCLib/inc\xmc4_scu.h **** 
 975:C:/Users/Utente/Desktop/Tesi/Firmware_Software/DAVE project/S2GLP_Pulsed_Doppler/Libraries/XMCLib/inc\xmc4_scu.h **** /**
 976:C:/Users/Utente/Desktop/Tesi/Firmware_Software/DAVE project/S2GLP_Pulsed_Doppler/Libraries/XMCLib/inc\xmc4_scu.h ****  * 
 977:C:/Users/Utente/Desktop/Tesi/Firmware_Software/DAVE project/S2GLP_Pulsed_Doppler/Libraries/XMCLib/inc\xmc4_scu.h ****  * @param group   ADC Group to which the channel being monitored belongs to.\n
 978:C:/Users/Utente/Desktop/Tesi/Firmware_Software/DAVE project/S2GLP_Pulsed_Doppler/Libraries/XMCLib/inc\xmc4_scu.h ****  *                 \b Range: 0 or 1.
 979:C:/Users/Utente/Desktop/Tesi/Firmware_Software/DAVE project/S2GLP_Pulsed_Doppler/Libraries/XMCLib/inc\xmc4_scu.h ****  * @param channel  The channel whose voltage range has to be monitored.\n
 980:C:/Users/Utente/Desktop/Tesi/Firmware_Software/DAVE project/S2GLP_Pulsed_Doppler/Libraries/XMCLib/inc\xmc4_scu.h ****  *                 \b Range: 6 or 7. Value identifies the channel in the selected ADC group.
 981:C:/Users/Utente/Desktop/Tesi/Firmware_Software/DAVE project/S2GLP_Pulsed_Doppler/Libraries/XMCLib/inc\xmc4_scu.h ****  *
 982:C:/Users/Utente/Desktop/Tesi/Firmware_Software/DAVE project/S2GLP_Pulsed_Doppler/Libraries/XMCLib/inc\xmc4_scu.h ****  * @return None
 983:C:/Users/Utente/Desktop/Tesi/Firmware_Software/DAVE project/S2GLP_Pulsed_Doppler/Libraries/XMCLib/inc\xmc4_scu.h ****  *
 984:C:/Users/Utente/Desktop/Tesi/Firmware_Software/DAVE project/S2GLP_Pulsed_Doppler/Libraries/XMCLib/inc\xmc4_scu.h ****  * \par<b>Description</b><br>
 985:C:/Users/Utente/Desktop/Tesi/Firmware_Software/DAVE project/S2GLP_Pulsed_Doppler/Libraries/XMCLib/inc\xmc4_scu.h ****  * Disables the out of range comparator for the selected ADC group and the channel. \n\n
 986:C:/Users/Utente/Desktop/Tesi/Firmware_Software/DAVE project/S2GLP_Pulsed_Doppler/Libraries/XMCLib/inc\xmc4_scu.h ****  * Out of range comparator is disabled by clearing the enable bit in the GORCEN register.
 987:C:/Users/Utente/Desktop/Tesi/Firmware_Software/DAVE project/S2GLP_Pulsed_Doppler/Libraries/XMCLib/inc\xmc4_scu.h ****  * \par<b>Related APIs:</b><BR>
 988:C:/Users/Utente/Desktop/Tesi/Firmware_Software/DAVE project/S2GLP_Pulsed_Doppler/Libraries/XMCLib/inc\xmc4_scu.h ****  * XMC_SCU_EnableOutOfRangeComparator()\n\n\n
 989:C:/Users/Utente/Desktop/Tesi/Firmware_Software/DAVE project/S2GLP_Pulsed_Doppler/Libraries/XMCLib/inc\xmc4_scu.h ****  */
 990:C:/Users/Utente/Desktop/Tesi/Firmware_Software/DAVE project/S2GLP_Pulsed_Doppler/Libraries/XMCLib/inc\xmc4_scu.h **** void XMC_SCU_DisableOutOfRangeComparator(const uint32_t group, const uint32_t channel);
 991:C:/Users/Utente/Desktop/Tesi/Firmware_Software/DAVE project/S2GLP_Pulsed_Doppler/Libraries/XMCLib/inc\xmc4_scu.h **** 
 992:C:/Users/Utente/Desktop/Tesi/Firmware_Software/DAVE project/S2GLP_Pulsed_Doppler/Libraries/XMCLib/inc\xmc4_scu.h **** /**
 993:C:/Users/Utente/Desktop/Tesi/Firmware_Software/DAVE project/S2GLP_Pulsed_Doppler/Libraries/XMCLib/inc\xmc4_scu.h ****  * @return None
 994:C:/Users/Utente/Desktop/Tesi/Firmware_Software/DAVE project/S2GLP_Pulsed_Doppler/Libraries/XMCLib/inc\xmc4_scu.h ****  *
 995:C:/Users/Utente/Desktop/Tesi/Firmware_Software/DAVE project/S2GLP_Pulsed_Doppler/Libraries/XMCLib/inc\xmc4_scu.h ****  * \par<b>Description</b><br>
 996:C:/Users/Utente/Desktop/Tesi/Firmware_Software/DAVE project/S2GLP_Pulsed_Doppler/Libraries/XMCLib/inc\xmc4_scu.h ****  * Enables die temperature measurement by powering the DTS module.\n\n
 997:C:/Users/Utente/Desktop/Tesi/Firmware_Software/DAVE project/S2GLP_Pulsed_Doppler/Libraries/XMCLib/inc\xmc4_scu.h ****  * Die temperature sensor is enabled by setting the PWD bit of DTSCON register.
 998:C:/Users/Utente/Desktop/Tesi/Firmware_Software/DAVE project/S2GLP_Pulsed_Doppler/Libraries/XMCLib/inc\xmc4_scu.h ****  * \par<b>Related APIs:</b><BR>
 999:C:/Users/Utente/Desktop/Tesi/Firmware_Software/DAVE project/S2GLP_Pulsed_Doppler/Libraries/XMCLib/inc\xmc4_scu.h ****  * XMC_SCU_DisableTemperatureSensor(), XMC_SCU_IsTemperatureSensorEnabled(), XMC_SCU_CalibrateTempe
1000:C:/Users/Utente/Desktop/Tesi/Firmware_Software/DAVE project/S2GLP_Pulsed_Doppler/Libraries/XMCLib/inc\xmc4_scu.h ****  * XMC_SCU_StartTemperatureMeasurement(), XMC_SCU_GetTemperatureMeasurement() \n\n\n
1001:C:/Users/Utente/Desktop/Tesi/Firmware_Software/DAVE project/S2GLP_Pulsed_Doppler/Libraries/XMCLib/inc\xmc4_scu.h ****  */
1002:C:/Users/Utente/Desktop/Tesi/Firmware_Software/DAVE project/S2GLP_Pulsed_Doppler/Libraries/XMCLib/inc\xmc4_scu.h **** void XMC_SCU_EnableTemperatureSensor(void);
1003:C:/Users/Utente/Desktop/Tesi/Firmware_Software/DAVE project/S2GLP_Pulsed_Doppler/Libraries/XMCLib/inc\xmc4_scu.h **** 
1004:C:/Users/Utente/Desktop/Tesi/Firmware_Software/DAVE project/S2GLP_Pulsed_Doppler/Libraries/XMCLib/inc\xmc4_scu.h **** /**
1005:C:/Users/Utente/Desktop/Tesi/Firmware_Software/DAVE project/S2GLP_Pulsed_Doppler/Libraries/XMCLib/inc\xmc4_scu.h ****  * @return None
1006:C:/Users/Utente/Desktop/Tesi/Firmware_Software/DAVE project/S2GLP_Pulsed_Doppler/Libraries/XMCLib/inc\xmc4_scu.h ****  *
1007:C:/Users/Utente/Desktop/Tesi/Firmware_Software/DAVE project/S2GLP_Pulsed_Doppler/Libraries/XMCLib/inc\xmc4_scu.h ****  * \par<b>Description</b><br>
1008:C:/Users/Utente/Desktop/Tesi/Firmware_Software/DAVE project/S2GLP_Pulsed_Doppler/Libraries/XMCLib/inc\xmc4_scu.h ****  * Disables die temperature measurement by powering the DTS module off.\n\n
1009:C:/Users/Utente/Desktop/Tesi/Firmware_Software/DAVE project/S2GLP_Pulsed_Doppler/Libraries/XMCLib/inc\xmc4_scu.h ****  * Die temperature sensor is disabled by clearing the PWD bit of DTSCON register.
1010:C:/Users/Utente/Desktop/Tesi/Firmware_Software/DAVE project/S2GLP_Pulsed_Doppler/Libraries/XMCLib/inc\xmc4_scu.h ****  * \par<b>Related APIs:</b><BR>
1011:C:/Users/Utente/Desktop/Tesi/Firmware_Software/DAVE project/S2GLP_Pulsed_Doppler/Libraries/XMCLib/inc\xmc4_scu.h ****  * XMC_SCU_EnableTemperatureSensor(), XMC_SCU_IsTemperatureSensorEnabled(), XMC_SCU_CalibrateTemper
1012:C:/Users/Utente/Desktop/Tesi/Firmware_Software/DAVE project/S2GLP_Pulsed_Doppler/Libraries/XMCLib/inc\xmc4_scu.h ****  * XMC_SCU_StartTemperatureMeasurement(), XMC_SCU_GetTemperatureMeasurement() \n\n\n
1013:C:/Users/Utente/Desktop/Tesi/Firmware_Software/DAVE project/S2GLP_Pulsed_Doppler/Libraries/XMCLib/inc\xmc4_scu.h ****  */
1014:C:/Users/Utente/Desktop/Tesi/Firmware_Software/DAVE project/S2GLP_Pulsed_Doppler/Libraries/XMCLib/inc\xmc4_scu.h **** void XMC_SCU_DisableTemperatureSensor(void);
1015:C:/Users/Utente/Desktop/Tesi/Firmware_Software/DAVE project/S2GLP_Pulsed_Doppler/Libraries/XMCLib/inc\xmc4_scu.h **** 
1016:C:/Users/Utente/Desktop/Tesi/Firmware_Software/DAVE project/S2GLP_Pulsed_Doppler/Libraries/XMCLib/inc\xmc4_scu.h **** /**
1017:C:/Users/Utente/Desktop/Tesi/Firmware_Software/DAVE project/S2GLP_Pulsed_Doppler/Libraries/XMCLib/inc\xmc4_scu.h ****  * @return Status of die temperature sensor. \n
1018:C:/Users/Utente/Desktop/Tesi/Firmware_Software/DAVE project/S2GLP_Pulsed_Doppler/Libraries/XMCLib/inc\xmc4_scu.h ****  *          \b Range: true - if temperature sensor is enabled.\n
1019:C:/Users/Utente/Desktop/Tesi/Firmware_Software/DAVE project/S2GLP_Pulsed_Doppler/Libraries/XMCLib/inc\xmc4_scu.h ****  *                    false - if temperature sensor is disabled.
1020:C:/Users/Utente/Desktop/Tesi/Firmware_Software/DAVE project/S2GLP_Pulsed_Doppler/Libraries/XMCLib/inc\xmc4_scu.h ****  *
1021:C:/Users/Utente/Desktop/Tesi/Firmware_Software/DAVE project/S2GLP_Pulsed_Doppler/Libraries/XMCLib/inc\xmc4_scu.h ****  * \par<b>Description</b><br>
1022:C:/Users/Utente/Desktop/Tesi/Firmware_Software/DAVE project/S2GLP_Pulsed_Doppler/Libraries/XMCLib/inc\xmc4_scu.h ****  * Provides the die temperature sensor power status.\n\n
1023:C:/Users/Utente/Desktop/Tesi/Firmware_Software/DAVE project/S2GLP_Pulsed_Doppler/Libraries/XMCLib/inc\xmc4_scu.h ****  * The status is obtained by reading the PWD bit of DTSCON register.
1024:C:/Users/Utente/Desktop/Tesi/Firmware_Software/DAVE project/S2GLP_Pulsed_Doppler/Libraries/XMCLib/inc\xmc4_scu.h ****  * \par<b>Related APIs:</b><BR>
1025:C:/Users/Utente/Desktop/Tesi/Firmware_Software/DAVE project/S2GLP_Pulsed_Doppler/Libraries/XMCLib/inc\xmc4_scu.h ****  * XMC_SCU_EnableTemperatureSensor(), XMC_SCU_CalibrateTemperatureSensor(),
1026:C:/Users/Utente/Desktop/Tesi/Firmware_Software/DAVE project/S2GLP_Pulsed_Doppler/Libraries/XMCLib/inc\xmc4_scu.h ****  * XMC_SCU_StartTemperatureMeasurement(), XMC_SCU_GetTemperatureMeasurement() \n\n\n
1027:C:/Users/Utente/Desktop/Tesi/Firmware_Software/DAVE project/S2GLP_Pulsed_Doppler/Libraries/XMCLib/inc\xmc4_scu.h ****  */
1028:C:/Users/Utente/Desktop/Tesi/Firmware_Software/DAVE project/S2GLP_Pulsed_Doppler/Libraries/XMCLib/inc\xmc4_scu.h **** bool XMC_SCU_IsTemperatureSensorEnabled(void);
1029:C:/Users/Utente/Desktop/Tesi/Firmware_Software/DAVE project/S2GLP_Pulsed_Doppler/Libraries/XMCLib/inc\xmc4_scu.h **** 
1030:C:/Users/Utente/Desktop/Tesi/Firmware_Software/DAVE project/S2GLP_Pulsed_Doppler/Libraries/XMCLib/inc\xmc4_scu.h **** /**
1031:C:/Users/Utente/Desktop/Tesi/Firmware_Software/DAVE project/S2GLP_Pulsed_Doppler/Libraries/XMCLib/inc\xmc4_scu.h ****  *
1032:C:/Users/Utente/Desktop/Tesi/Firmware_Software/DAVE project/S2GLP_Pulsed_Doppler/Libraries/XMCLib/inc\xmc4_scu.h ****  * @param offset  Offset value for calibrating the DTS result.\n
1033:C:/Users/Utente/Desktop/Tesi/Firmware_Software/DAVE project/S2GLP_Pulsed_Doppler/Libraries/XMCLib/inc\xmc4_scu.h ****  *                \b Range: 0 to 127.
1034:C:/Users/Utente/Desktop/Tesi/Firmware_Software/DAVE project/S2GLP_Pulsed_Doppler/Libraries/XMCLib/inc\xmc4_scu.h ****  * @param gain    Gain value for calibrating the DTS conversion result.\n
1035:C:/Users/Utente/Desktop/Tesi/Firmware_Software/DAVE project/S2GLP_Pulsed_Doppler/Libraries/XMCLib/inc\xmc4_scu.h ****  *                \b Range: 0 to 63.
1036:C:/Users/Utente/Desktop/Tesi/Firmware_Software/DAVE project/S2GLP_Pulsed_Doppler/Libraries/XMCLib/inc\xmc4_scu.h ****  *
1037:C:/Users/Utente/Desktop/Tesi/Firmware_Software/DAVE project/S2GLP_Pulsed_Doppler/Libraries/XMCLib/inc\xmc4_scu.h ****  * @return None
1038:C:/Users/Utente/Desktop/Tesi/Firmware_Software/DAVE project/S2GLP_Pulsed_Doppler/Libraries/XMCLib/inc\xmc4_scu.h ****  *
1039:C:/Users/Utente/Desktop/Tesi/Firmware_Software/DAVE project/S2GLP_Pulsed_Doppler/Libraries/XMCLib/inc\xmc4_scu.h ****  * \par<b>Description</b><br>
1040:C:/Users/Utente/Desktop/Tesi/Firmware_Software/DAVE project/S2GLP_Pulsed_Doppler/Libraries/XMCLib/inc\xmc4_scu.h ****  * Calibrates the measurement of temperature by configuring the values of offset and gain of \a DTS
1041:C:/Users/Utente/Desktop/Tesi/Firmware_Software/DAVE project/S2GLP_Pulsed_Doppler/Libraries/XMCLib/inc\xmc4_scu.h ****  * Allows to improve the accuracy of the temperature measurement with the adjustment of \a OFFSET a
1042:C:/Users/Utente/Desktop/Tesi/Firmware_Software/DAVE project/S2GLP_Pulsed_Doppler/Libraries/XMCLib/inc\xmc4_scu.h ****  * in the \a DTSCON register.
1043:C:/Users/Utente/Desktop/Tesi/Firmware_Software/DAVE project/S2GLP_Pulsed_Doppler/Libraries/XMCLib/inc\xmc4_scu.h ****  * Offset adjustment is defined as a shift of the conversion result. The range of the offset adjust
1044:C:/Users/Utente/Desktop/Tesi/Firmware_Software/DAVE project/S2GLP_Pulsed_Doppler/Libraries/XMCLib/inc\xmc4_scu.h ****  * resolution that corresponds to +/- 12.5C. The offset value gets added to the measure result. 
1045:C:/Users/Utente/Desktop/Tesi/Firmware_Software/DAVE project/S2GLP_Pulsed_Doppler/Libraries/XMCLib/inc\xmc4_scu.h ****  * Offset is considered as a signed value.
1046:C:/Users/Utente/Desktop/Tesi/Firmware_Software/DAVE project/S2GLP_Pulsed_Doppler/Libraries/XMCLib/inc\xmc4_scu.h ****  * Gain adjustment helps in minimizing gain error. When the \a gain value is 0, result is generated
1047:C:/Users/Utente/Desktop/Tesi/Firmware_Software/DAVE project/S2GLP_Pulsed_Doppler/Libraries/XMCLib/inc\xmc4_scu.h ****  * When the \a gain value is 63, result is generated with least gain, i.e, \a RESULT - 63 at the hi
1048:C:/Users/Utente/Desktop/Tesi/Firmware_Software/DAVE project/S2GLP_Pulsed_Doppler/Libraries/XMCLib/inc\xmc4_scu.h ****  * It is recommended to use following steps:\n
1049:C:/Users/Utente/Desktop/Tesi/Firmware_Software/DAVE project/S2GLP_Pulsed_Doppler/Libraries/XMCLib/inc\xmc4_scu.h ****  * - Call \a XMC_SCU_StopTempMeasurement to stop temperature measurement if it was started previous
1050:C:/Users/Utente/Desktop/Tesi/Firmware_Software/DAVE project/S2GLP_Pulsed_Doppler/Libraries/XMCLib/inc\xmc4_scu.h ****  * - Call \a XMC_SCU_CalibrateTempMonitor with desired offset and gain calibration values to the DT
1051:C:/Users/Utente/Desktop/Tesi/Firmware_Software/DAVE project/S2GLP_Pulsed_Doppler/Libraries/XMCLib/inc\xmc4_scu.h ****  * - Call \a XMC_SCU_SetRawTempLimits with desired lower and upper temperature threshold limit valu
1052:C:/Users/Utente/Desktop/Tesi/Firmware_Software/DAVE project/S2GLP_Pulsed_Doppler/Libraries/XMCLib/inc\xmc4_scu.h ****  * - Call \a XMC_SCU_StartTempMeasurement to start temperature measurement.\n
1053:C:/Users/Utente/Desktop/Tesi/Firmware_Software/DAVE project/S2GLP_Pulsed_Doppler/Libraries/XMCLib/inc\xmc4_scu.h ****  * - Check whether Die Temperature Sensor (DTS) is busy in conversion by calling \a XMC_SCU_IsTempe
1054:C:/Users/Utente/Desktop/Tesi/Firmware_Software/DAVE project/S2GLP_Pulsed_Doppler/Libraries/XMCLib/inc\xmc4_scu.h ****  * conversion complete.\n
1055:C:/Users/Utente/Desktop/Tesi/Firmware_Software/DAVE project/S2GLP_Pulsed_Doppler/Libraries/XMCLib/inc\xmc4_scu.h ****  * - Read the die temperature value using \a XMC_SCU_GetTemperatureMeasurement API.
1056:C:/Users/Utente/Desktop/Tesi/Firmware_Software/DAVE project/S2GLP_Pulsed_Doppler/Libraries/XMCLib/inc\xmc4_scu.h ****  * \par<b>Related APIs:</b><BR>
1057:C:/Users/Utente/Desktop/Tesi/Firmware_Software/DAVE project/S2GLP_Pulsed_Doppler/Libraries/XMCLib/inc\xmc4_scu.h ****  * XMC_SCU_EnableTemperatureSensor(),
1058:C:/Users/Utente/Desktop/Tesi/Firmware_Software/DAVE project/S2GLP_Pulsed_Doppler/Libraries/XMCLib/inc\xmc4_scu.h ****  * XMC_SCU_StartTemperatureMeasurement(), XMC_SCU_GetTemperatureMeasurement() \n\n\n
1059:C:/Users/Utente/Desktop/Tesi/Firmware_Software/DAVE project/S2GLP_Pulsed_Doppler/Libraries/XMCLib/inc\xmc4_scu.h ****  */
1060:C:/Users/Utente/Desktop/Tesi/Firmware_Software/DAVE project/S2GLP_Pulsed_Doppler/Libraries/XMCLib/inc\xmc4_scu.h **** void XMC_SCU_CalibrateTemperatureSensor(uint32_t offset, uint32_t gain);
1061:C:/Users/Utente/Desktop/Tesi/Firmware_Software/DAVE project/S2GLP_Pulsed_Doppler/Libraries/XMCLib/inc\xmc4_scu.h **** 
1062:C:/Users/Utente/Desktop/Tesi/Firmware_Software/DAVE project/S2GLP_Pulsed_Doppler/Libraries/XMCLib/inc\xmc4_scu.h **** /**
1063:C:/Users/Utente/Desktop/Tesi/Firmware_Software/DAVE project/S2GLP_Pulsed_Doppler/Libraries/XMCLib/inc\xmc4_scu.h ****  * @return XMC_SCU_STATUS_t  Result of starting the temperature measurement.\n
1064:C:/Users/Utente/Desktop/Tesi/Firmware_Software/DAVE project/S2GLP_Pulsed_Doppler/Libraries/XMCLib/inc\xmc4_scu.h ****  *                           \b Range: \n 
1065:C:/Users/Utente/Desktop/Tesi/Firmware_Software/DAVE project/S2GLP_Pulsed_Doppler/Libraries/XMCLib/inc\xmc4_scu.h ****  *                              XMC_SCU_STATUS_OK if the measurement is started successfully.\n
1066:C:/Users/Utente/Desktop/Tesi/Firmware_Software/DAVE project/S2GLP_Pulsed_Doppler/Libraries/XMCLib/inc\xmc4_scu.h ****  *                              XMC_SCU_STATUS_ERROR if temperature sensor is not enabled.\n
1067:C:/Users/Utente/Desktop/Tesi/Firmware_Software/DAVE project/S2GLP_Pulsed_Doppler/Libraries/XMCLib/inc\xmc4_scu.h ****  *                              XMC_SCU_STATUS_BUSY if temperature sensor is busy measuring the tem
1068:C:/Users/Utente/Desktop/Tesi/Firmware_Software/DAVE project/S2GLP_Pulsed_Doppler/Libraries/XMCLib/inc\xmc4_scu.h ****  *
1069:C:/Users/Utente/Desktop/Tesi/Firmware_Software/DAVE project/S2GLP_Pulsed_Doppler/Libraries/XMCLib/inc\xmc4_scu.h ****  *
1070:C:/Users/Utente/Desktop/Tesi/Firmware_Software/DAVE project/S2GLP_Pulsed_Doppler/Libraries/XMCLib/inc\xmc4_scu.h ****  * \par<b>Description</b><br>
1071:C:/Users/Utente/Desktop/Tesi/Firmware_Software/DAVE project/S2GLP_Pulsed_Doppler/Libraries/XMCLib/inc\xmc4_scu.h ****  * Starts die temperature measurement using internal temperature sensor.\n\n
1072:C:/Users/Utente/Desktop/Tesi/Firmware_Software/DAVE project/S2GLP_Pulsed_Doppler/Libraries/XMCLib/inc\xmc4_scu.h ****  * The API checks if the temperature sensor is enabled and is not busy in measurement.\n
1073:C:/Users/Utente/Desktop/Tesi/Firmware_Software/DAVE project/S2GLP_Pulsed_Doppler/Libraries/XMCLib/inc\xmc4_scu.h ****  * It is recommended to use following steps:\n
1074:C:/Users/Utente/Desktop/Tesi/Firmware_Software/DAVE project/S2GLP_Pulsed_Doppler/Libraries/XMCLib/inc\xmc4_scu.h ****  * - Call \a XMC_SCU_StopTempMeasurement to stop temperature measurement if it was started previous
1075:C:/Users/Utente/Desktop/Tesi/Firmware_Software/DAVE project/S2GLP_Pulsed_Doppler/Libraries/XMCLib/inc\xmc4_scu.h ****  * - Call \a XMC_SCU_SetRawTempLimits with desired lower and upper temperature threshold limit valu
1076:C:/Users/Utente/Desktop/Tesi/Firmware_Software/DAVE project/S2GLP_Pulsed_Doppler/Libraries/XMCLib/inc\xmc4_scu.h ****  * - Call \a XMC_SCU_StartTempMeasurement to start temperature measurement.\n
1077:C:/Users/Utente/Desktop/Tesi/Firmware_Software/DAVE project/S2GLP_Pulsed_Doppler/Libraries/XMCLib/inc\xmc4_scu.h ****  * - Check whether Die Temperature Sensor (DTS) is busy in conversion by calling \a XMC_SCU_IsTempe
1078:C:/Users/Utente/Desktop/Tesi/Firmware_Software/DAVE project/S2GLP_Pulsed_Doppler/Libraries/XMCLib/inc\xmc4_scu.h ****  * conversion complete.\n
1079:C:/Users/Utente/Desktop/Tesi/Firmware_Software/DAVE project/S2GLP_Pulsed_Doppler/Libraries/XMCLib/inc\xmc4_scu.h ****  * - Read the die temperature value using \a XMC_SCU_GetTemperatureMeasurement API.
1080:C:/Users/Utente/Desktop/Tesi/Firmware_Software/DAVE project/S2GLP_Pulsed_Doppler/Libraries/XMCLib/inc\xmc4_scu.h ****  * \par<b>Related APIs:</b><BR>
1081:C:/Users/Utente/Desktop/Tesi/Firmware_Software/DAVE project/S2GLP_Pulsed_Doppler/Libraries/XMCLib/inc\xmc4_scu.h ****  * XMC_SCU_EnableTemperatureSensor(), XMC_SCU_CalibrateTemperatureSensor(),
1082:C:/Users/Utente/Desktop/Tesi/Firmware_Software/DAVE project/S2GLP_Pulsed_Doppler/Libraries/XMCLib/inc\xmc4_scu.h ****  * XMC_SCU_GetTemperatureMeasurement() \n\n\n
1083:C:/Users/Utente/Desktop/Tesi/Firmware_Software/DAVE project/S2GLP_Pulsed_Doppler/Libraries/XMCLib/inc\xmc4_scu.h ****  */
1084:C:/Users/Utente/Desktop/Tesi/Firmware_Software/DAVE project/S2GLP_Pulsed_Doppler/Libraries/XMCLib/inc\xmc4_scu.h **** XMC_SCU_STATUS_t XMC_SCU_StartTemperatureMeasurement(void);
1085:C:/Users/Utente/Desktop/Tesi/Firmware_Software/DAVE project/S2GLP_Pulsed_Doppler/Libraries/XMCLib/inc\xmc4_scu.h **** 
1086:C:/Users/Utente/Desktop/Tesi/Firmware_Software/DAVE project/S2GLP_Pulsed_Doppler/Libraries/XMCLib/inc\xmc4_scu.h **** 
1087:C:/Users/Utente/Desktop/Tesi/Firmware_Software/DAVE project/S2GLP_Pulsed_Doppler/Libraries/XMCLib/inc\xmc4_scu.h **** /**
1088:C:/Users/Utente/Desktop/Tesi/Firmware_Software/DAVE project/S2GLP_Pulsed_Doppler/Libraries/XMCLib/inc\xmc4_scu.h ****  *
1089:C:/Users/Utente/Desktop/Tesi/Firmware_Software/DAVE project/S2GLP_Pulsed_Doppler/Libraries/XMCLib/inc\xmc4_scu.h ****  * @return uint32_t  Measured temperature value.\n
1090:C:/Users/Utente/Desktop/Tesi/Firmware_Software/DAVE project/S2GLP_Pulsed_Doppler/Libraries/XMCLib/inc\xmc4_scu.h ****  *              \b Range: Valid temperature range is 0 to 1023. \n
1091:C:/Users/Utente/Desktop/Tesi/Firmware_Software/DAVE project/S2GLP_Pulsed_Doppler/Libraries/XMCLib/inc\xmc4_scu.h ****  *              If sensor is not enabled, 0x7FFFFFFFH is returned.
1092:C:/Users/Utente/Desktop/Tesi/Firmware_Software/DAVE project/S2GLP_Pulsed_Doppler/Libraries/XMCLib/inc\xmc4_scu.h ****  *
1093:C:/Users/Utente/Desktop/Tesi/Firmware_Software/DAVE project/S2GLP_Pulsed_Doppler/Libraries/XMCLib/inc\xmc4_scu.h ****  * \par<b>Description</b><br>
1094:C:/Users/Utente/Desktop/Tesi/Firmware_Software/DAVE project/S2GLP_Pulsed_Doppler/Libraries/XMCLib/inc\xmc4_scu.h ****  * Reads the measured value of die temperature.\n\n
1095:C:/Users/Utente/Desktop/Tesi/Firmware_Software/DAVE project/S2GLP_Pulsed_Doppler/Libraries/XMCLib/inc\xmc4_scu.h ****  * Temperature measurement result is read from \a RESULT bit field of \a DTSSTAT register.
1096:C:/Users/Utente/Desktop/Tesi/Firmware_Software/DAVE project/S2GLP_Pulsed_Doppler/Libraries/XMCLib/inc\xmc4_scu.h ****  * The temperature measured in C is given by (RESULT - 605) / 2.05 [C]
1097:C:/Users/Utente/Desktop/Tesi/Firmware_Software/DAVE project/S2GLP_Pulsed_Doppler/Libraries/XMCLib/inc\xmc4_scu.h ****  * \par<b>Related APIs:</b><BR>
1098:C:/Users/Utente/Desktop/Tesi/Firmware_Software/DAVE project/S2GLP_Pulsed_Doppler/Libraries/XMCLib/inc\xmc4_scu.h ****  * XMC_SCU_IsTemperatureSensorBusy() \n\n\n
1099:C:/Users/Utente/Desktop/Tesi/Firmware_Software/DAVE project/S2GLP_Pulsed_Doppler/Libraries/XMCLib/inc\xmc4_scu.h ****  */
1100:C:/Users/Utente/Desktop/Tesi/Firmware_Software/DAVE project/S2GLP_Pulsed_Doppler/Libraries/XMCLib/inc\xmc4_scu.h **** uint32_t XMC_SCU_GetTemperatureMeasurement(void);
1101:C:/Users/Utente/Desktop/Tesi/Firmware_Software/DAVE project/S2GLP_Pulsed_Doppler/Libraries/XMCLib/inc\xmc4_scu.h **** 
1102:C:/Users/Utente/Desktop/Tesi/Firmware_Software/DAVE project/S2GLP_Pulsed_Doppler/Libraries/XMCLib/inc\xmc4_scu.h **** /**
1103:C:/Users/Utente/Desktop/Tesi/Firmware_Software/DAVE project/S2GLP_Pulsed_Doppler/Libraries/XMCLib/inc\xmc4_scu.h ****  * @return bool  Indicates if the die temperature sensor is busy.\n
1104:C:/Users/Utente/Desktop/Tesi/Firmware_Software/DAVE project/S2GLP_Pulsed_Doppler/Libraries/XMCLib/inc\xmc4_scu.h ****  *                    \b Range: \a true if sensor is busy in temperature measurement.
1105:C:/Users/Utente/Desktop/Tesi/Firmware_Software/DAVE project/S2GLP_Pulsed_Doppler/Libraries/XMCLib/inc\xmc4_scu.h ****  *                    \a false if sensor is free and can accept a new request for measurement.
1106:C:/Users/Utente/Desktop/Tesi/Firmware_Software/DAVE project/S2GLP_Pulsed_Doppler/Libraries/XMCLib/inc\xmc4_scu.h ****  *
1107:C:/Users/Utente/Desktop/Tesi/Firmware_Software/DAVE project/S2GLP_Pulsed_Doppler/Libraries/XMCLib/inc\xmc4_scu.h ****  * \par<b>Description</b><br>
1108:C:/Users/Utente/Desktop/Tesi/Firmware_Software/DAVE project/S2GLP_Pulsed_Doppler/Libraries/XMCLib/inc\xmc4_scu.h ****  * Checks whether Die Temperature Sensor (DTS) is busy in temperature measurement.\n\n
1109:C:/Users/Utente/Desktop/Tesi/Firmware_Software/DAVE project/S2GLP_Pulsed_Doppler/Libraries/XMCLib/inc\xmc4_scu.h ****  * The status is read from the \a BUSY bit field of the \a DTSSTAT register.
1110:C:/Users/Utente/Desktop/Tesi/Firmware_Software/DAVE project/S2GLP_Pulsed_Doppler/Libraries/XMCLib/inc\xmc4_scu.h ****  * \par<b>Related APIs:</b><BR>
1111:C:/Users/Utente/Desktop/Tesi/Firmware_Software/DAVE project/S2GLP_Pulsed_Doppler/Libraries/XMCLib/inc\xmc4_scu.h ****  * XMC_SCU_GetTemperatureMeasurement() \n\n\n
1112:C:/Users/Utente/Desktop/Tesi/Firmware_Software/DAVE project/S2GLP_Pulsed_Doppler/Libraries/XMCLib/inc\xmc4_scu.h ****  */
1113:C:/Users/Utente/Desktop/Tesi/Firmware_Software/DAVE project/S2GLP_Pulsed_Doppler/Libraries/XMCLib/inc\xmc4_scu.h **** bool XMC_SCU_IsTemperatureSensorBusy(void);
1114:C:/Users/Utente/Desktop/Tesi/Firmware_Software/DAVE project/S2GLP_Pulsed_Doppler/Libraries/XMCLib/inc\xmc4_scu.h **** 
1115:C:/Users/Utente/Desktop/Tesi/Firmware_Software/DAVE project/S2GLP_Pulsed_Doppler/Libraries/XMCLib/inc\xmc4_scu.h **** /**
1116:C:/Users/Utente/Desktop/Tesi/Firmware_Software/DAVE project/S2GLP_Pulsed_Doppler/Libraries/XMCLib/inc\xmc4_scu.h ****  * @return bool Status of die temperature sensor whether it is ready to start measurement. \n
1117:C:/Users/Utente/Desktop/Tesi/Firmware_Software/DAVE project/S2GLP_Pulsed_Doppler/Libraries/XMCLib/inc\xmc4_scu.h ****  *          \b Range: \n \a true if temperature sensor is ready to start measurement. \n
1118:C:/Users/Utente/Desktop/Tesi/Firmware_Software/DAVE project/S2GLP_Pulsed_Doppler/Libraries/XMCLib/inc\xmc4_scu.h ****  *          \a false if temperature sensor is not ready to start measurement.
1119:C:/Users/Utente/Desktop/Tesi/Firmware_Software/DAVE project/S2GLP_Pulsed_Doppler/Libraries/XMCLib/inc\xmc4_scu.h ****  *
1120:C:/Users/Utente/Desktop/Tesi/Firmware_Software/DAVE project/S2GLP_Pulsed_Doppler/Libraries/XMCLib/inc\xmc4_scu.h ****  * \par<b>Description</b><br>
1121:C:/Users/Utente/Desktop/Tesi/Firmware_Software/DAVE project/S2GLP_Pulsed_Doppler/Libraries/XMCLib/inc\xmc4_scu.h ****  * Checks if the die temperature sensor is ready to start a measurement\n\n
1122:C:/Users/Utente/Desktop/Tesi/Firmware_Software/DAVE project/S2GLP_Pulsed_Doppler/Libraries/XMCLib/inc\xmc4_scu.h ****  * The status is obtained by reading \a RDY bit of \a DTSSTAT register. It is recommended
1123:C:/Users/Utente/Desktop/Tesi/Firmware_Software/DAVE project/S2GLP_Pulsed_Doppler/Libraries/XMCLib/inc\xmc4_scu.h ****  * to check the ready status of die temperature sensor before starting it.
1124:C:/Users/Utente/Desktop/Tesi/Firmware_Software/DAVE project/S2GLP_Pulsed_Doppler/Libraries/XMCLib/inc\xmc4_scu.h ****  * \par<b>Related APIs:</b><BR>
1125:C:/Users/Utente/Desktop/Tesi/Firmware_Software/DAVE project/S2GLP_Pulsed_Doppler/Libraries/XMCLib/inc\xmc4_scu.h ****  * XMC_SCU_StartTemperatureMeasurement(), XMC_SCU_IsTemperatureSensorBusy() \n\n\n
1126:C:/Users/Utente/Desktop/Tesi/Firmware_Software/DAVE project/S2GLP_Pulsed_Doppler/Libraries/XMCLib/inc\xmc4_scu.h ****  */
1127:C:/Users/Utente/Desktop/Tesi/Firmware_Software/DAVE project/S2GLP_Pulsed_Doppler/Libraries/XMCLib/inc\xmc4_scu.h **** bool XMC_SCU_IsTemperatureSensorReady(void);
1128:C:/Users/Utente/Desktop/Tesi/Firmware_Software/DAVE project/S2GLP_Pulsed_Doppler/Libraries/XMCLib/inc\xmc4_scu.h **** 
1129:C:/Users/Utente/Desktop/Tesi/Firmware_Software/DAVE project/S2GLP_Pulsed_Doppler/Libraries/XMCLib/inc\xmc4_scu.h **** #if (UC_SERIES != XMC45)
1130:C:/Users/Utente/Desktop/Tesi/Firmware_Software/DAVE project/S2GLP_Pulsed_Doppler/Libraries/XMCLib/inc\xmc4_scu.h **** /**
1131:C:/Users/Utente/Desktop/Tesi/Firmware_Software/DAVE project/S2GLP_Pulsed_Doppler/Libraries/XMCLib/inc\xmc4_scu.h ****  * @return bool  Indicates if the measured die temperature value has exceeded the configured upper 
1132:C:/Users/Utente/Desktop/Tesi/Firmware_Software/DAVE project/S2GLP_Pulsed_Doppler/Libraries/XMCLib/inc\xmc4_scu.h ****  *              \b Range: \a true if the temperature value has exceeded the configured upper limit.
1133:C:/Users/Utente/Desktop/Tesi/Firmware_Software/DAVE project/S2GLP_Pulsed_Doppler/Libraries/XMCLib/inc\xmc4_scu.h ****  *              if the temperature value is less than the configured upper limit.
1134:C:/Users/Utente/Desktop/Tesi/Firmware_Software/DAVE project/S2GLP_Pulsed_Doppler/Libraries/XMCLib/inc\xmc4_scu.h ****  *
1135:C:/Users/Utente/Desktop/Tesi/Firmware_Software/DAVE project/S2GLP_Pulsed_Doppler/Libraries/XMCLib/inc\xmc4_scu.h ****  * \par<b>Description</b><br>
1136:C:/Users/Utente/Desktop/Tesi/Firmware_Software/DAVE project/S2GLP_Pulsed_Doppler/Libraries/XMCLib/inc\xmc4_scu.h ****  * Checks if the measured temperature has exceeded the configured upper limit of temperature.\n\n
1137:C:/Users/Utente/Desktop/Tesi/Firmware_Software/DAVE project/S2GLP_Pulsed_Doppler/Libraries/XMCLib/inc\xmc4_scu.h ****  * The API checks \a OVERFL bit (Upper Limit Overflow Status bit) of \a DTEMPALARM register.
1138:C:/Users/Utente/Desktop/Tesi/Firmware_Software/DAVE project/S2GLP_Pulsed_Doppler/Libraries/XMCLib/inc\xmc4_scu.h ****  * The \a OVERFL bit will be set if the measured temperature has exceeded the limit configured in 
1139:C:/Users/Utente/Desktop/Tesi/Firmware_Software/DAVE project/S2GLP_Pulsed_Doppler/Libraries/XMCLib/inc\xmc4_scu.h ****  * the bitfield \a UPPER in the \a DTEMPLIM register.
1140:C:/Users/Utente/Desktop/Tesi/Firmware_Software/DAVE project/S2GLP_Pulsed_Doppler/Libraries/XMCLib/inc\xmc4_scu.h ****  * \par<b>Related APIs:</b><BR>
1141:C:/Users/Utente/Desktop/Tesi/Firmware_Software/DAVE project/S2GLP_Pulsed_Doppler/Libraries/XMCLib/inc\xmc4_scu.h ****  * XMC_SCU_SetRawTempLimits(),XMC_SCU_LowTemperature() \n\n\n
1142:C:/Users/Utente/Desktop/Tesi/Firmware_Software/DAVE project/S2GLP_Pulsed_Doppler/Libraries/XMCLib/inc\xmc4_scu.h ****  */
1143:C:/Users/Utente/Desktop/Tesi/Firmware_Software/DAVE project/S2GLP_Pulsed_Doppler/Libraries/XMCLib/inc\xmc4_scu.h **** bool XMC_SCU_HighTemperature(void);
1144:C:/Users/Utente/Desktop/Tesi/Firmware_Software/DAVE project/S2GLP_Pulsed_Doppler/Libraries/XMCLib/inc\xmc4_scu.h **** 
1145:C:/Users/Utente/Desktop/Tesi/Firmware_Software/DAVE project/S2GLP_Pulsed_Doppler/Libraries/XMCLib/inc\xmc4_scu.h **** /**
1146:C:/Users/Utente/Desktop/Tesi/Firmware_Software/DAVE project/S2GLP_Pulsed_Doppler/Libraries/XMCLib/inc\xmc4_scu.h ****  *
1147:C:/Users/Utente/Desktop/Tesi/Firmware_Software/DAVE project/S2GLP_Pulsed_Doppler/Libraries/XMCLib/inc\xmc4_scu.h ****  * @param lower_temp  Lower threshold of die temperature. If measured temperature falls below this 
1148:C:/Users/Utente/Desktop/Tesi/Firmware_Software/DAVE project/S2GLP_Pulsed_Doppler/Libraries/XMCLib/inc\xmc4_scu.h ****  *                    alarm bit will be set in \a UNDERFL bit field of \a DTEMPALARM register.
1149:C:/Users/Utente/Desktop/Tesi/Firmware_Software/DAVE project/S2GLP_Pulsed_Doppler/Libraries/XMCLib/inc\xmc4_scu.h ****  * @param upper_temp  Upper threshold of die temperature. If measured temperature exceeds this valu
1150:C:/Users/Utente/Desktop/Tesi/Firmware_Software/DAVE project/S2GLP_Pulsed_Doppler/Libraries/XMCLib/inc\xmc4_scu.h ****  *                    alarm bit will be set in \a OVERFL bit field of \a DTEMPALARM register.
1151:C:/Users/Utente/Desktop/Tesi/Firmware_Software/DAVE project/S2GLP_Pulsed_Doppler/Libraries/XMCLib/inc\xmc4_scu.h ****  *
1152:C:/Users/Utente/Desktop/Tesi/Firmware_Software/DAVE project/S2GLP_Pulsed_Doppler/Libraries/XMCLib/inc\xmc4_scu.h ****  * @return None
1153:C:/Users/Utente/Desktop/Tesi/Firmware_Software/DAVE project/S2GLP_Pulsed_Doppler/Libraries/XMCLib/inc\xmc4_scu.h ****  *
1154:C:/Users/Utente/Desktop/Tesi/Firmware_Software/DAVE project/S2GLP_Pulsed_Doppler/Libraries/XMCLib/inc\xmc4_scu.h ****  * \par<b>Description</b><br>
1155:C:/Users/Utente/Desktop/Tesi/Firmware_Software/DAVE project/S2GLP_Pulsed_Doppler/Libraries/XMCLib/inc\xmc4_scu.h ****  * Configures the lower and upper threshold of die temperature.\n\n
1156:C:/Users/Utente/Desktop/Tesi/Firmware_Software/DAVE project/S2GLP_Pulsed_Doppler/Libraries/XMCLib/inc\xmc4_scu.h ****  * API configures \a DTEMPLIM register for upper and lower die temperature threshold limits.
1157:C:/Users/Utente/Desktop/Tesi/Firmware_Software/DAVE project/S2GLP_Pulsed_Doppler/Libraries/XMCLib/inc\xmc4_scu.h ****  * When the measured temperature is outside the range defined by the limits, alarm bits \a UNDERFL 
1158:C:/Users/Utente/Desktop/Tesi/Firmware_Software/DAVE project/S2GLP_Pulsed_Doppler/Libraries/XMCLib/inc\xmc4_scu.h ****  * will be set in the register \a DTEMPALARM.\n
1159:C:/Users/Utente/Desktop/Tesi/Firmware_Software/DAVE project/S2GLP_Pulsed_Doppler/Libraries/XMCLib/inc\xmc4_scu.h ****  * It is recommended to use following steps:\n
1160:C:/Users/Utente/Desktop/Tesi/Firmware_Software/DAVE project/S2GLP_Pulsed_Doppler/Libraries/XMCLib/inc\xmc4_scu.h ****  * - Call \a XMC_SCU_StopTempMeasurement to stop temperature measurement if it was started previous
1161:C:/Users/Utente/Desktop/Tesi/Firmware_Software/DAVE project/S2GLP_Pulsed_Doppler/Libraries/XMCLib/inc\xmc4_scu.h ****  * - Call \a XMC_SCU_SetRawTempLimits with desired lower and upper temperature threshold limit valu
1162:C:/Users/Utente/Desktop/Tesi/Firmware_Software/DAVE project/S2GLP_Pulsed_Doppler/Libraries/XMCLib/inc\xmc4_scu.h ****  * - Call \a XMC_SCU_StartTempMeasurement to start temperature measurement.\n
1163:C:/Users/Utente/Desktop/Tesi/Firmware_Software/DAVE project/S2GLP_Pulsed_Doppler/Libraries/XMCLib/inc\xmc4_scu.h ****  * - Use \a XMC_SCU_HighTemperature() and XMC_SCU_LowTemperature() to monitor the temperature.\n
1164:C:/Users/Utente/Desktop/Tesi/Firmware_Software/DAVE project/S2GLP_Pulsed_Doppler/Libraries/XMCLib/inc\xmc4_scu.h ****  * \par<b>Related APIs:</b><BR>
1165:C:/Users/Utente/Desktop/Tesi/Firmware_Software/DAVE project/S2GLP_Pulsed_Doppler/Libraries/XMCLib/inc\xmc4_scu.h ****  * XMC_SCU_HighTemperature(), XMC_SCU_LowTemperature() \n\n\n
1166:C:/Users/Utente/Desktop/Tesi/Firmware_Software/DAVE project/S2GLP_Pulsed_Doppler/Libraries/XMCLib/inc\xmc4_scu.h ****  */
1167:C:/Users/Utente/Desktop/Tesi/Firmware_Software/DAVE project/S2GLP_Pulsed_Doppler/Libraries/XMCLib/inc\xmc4_scu.h **** void XMC_SCU_SetRawTempLimits(const uint32_t lower_temp, const uint32_t upper_temp);
1168:C:/Users/Utente/Desktop/Tesi/Firmware_Software/DAVE project/S2GLP_Pulsed_Doppler/Libraries/XMCLib/inc\xmc4_scu.h **** 
1169:C:/Users/Utente/Desktop/Tesi/Firmware_Software/DAVE project/S2GLP_Pulsed_Doppler/Libraries/XMCLib/inc\xmc4_scu.h **** /**
1170:C:/Users/Utente/Desktop/Tesi/Firmware_Software/DAVE project/S2GLP_Pulsed_Doppler/Libraries/XMCLib/inc\xmc4_scu.h ****  * @return bool  Indicates if the measured die temperature value has dropped below the configured l
1171:C:/Users/Utente/Desktop/Tesi/Firmware_Software/DAVE project/S2GLP_Pulsed_Doppler/Libraries/XMCLib/inc\xmc4_scu.h ****  *              \b Range: \a true if the temperature value has dropped below the configured lower l
1172:C:/Users/Utente/Desktop/Tesi/Firmware_Software/DAVE project/S2GLP_Pulsed_Doppler/Libraries/XMCLib/inc\xmc4_scu.h ****  *              if the temperature value is higher than the configured lower limit.
1173:C:/Users/Utente/Desktop/Tesi/Firmware_Software/DAVE project/S2GLP_Pulsed_Doppler/Libraries/XMCLib/inc\xmc4_scu.h ****  *
1174:C:/Users/Utente/Desktop/Tesi/Firmware_Software/DAVE project/S2GLP_Pulsed_Doppler/Libraries/XMCLib/inc\xmc4_scu.h ****  * \par<b>Description</b><br>
1175:C:/Users/Utente/Desktop/Tesi/Firmware_Software/DAVE project/S2GLP_Pulsed_Doppler/Libraries/XMCLib/inc\xmc4_scu.h ****  * Checks if the measured temperature has dropped below the configured lower limit of temperature.\
1176:C:/Users/Utente/Desktop/Tesi/Firmware_Software/DAVE project/S2GLP_Pulsed_Doppler/Libraries/XMCLib/inc\xmc4_scu.h ****  * The API checks \a UNDERFL bit (Lower LimitUnderflow Status bit) of \a DTEMPALARM register.
1177:C:/Users/Utente/Desktop/Tesi/Firmware_Software/DAVE project/S2GLP_Pulsed_Doppler/Libraries/XMCLib/inc\xmc4_scu.h ****  * The \a UNDERFL bit will be set if the measured temperature has dropped below the limit configure
1178:C:/Users/Utente/Desktop/Tesi/Firmware_Software/DAVE project/S2GLP_Pulsed_Doppler/Libraries/XMCLib/inc\xmc4_scu.h ****  * the bitfield \a LOWER in the \a DTEMPLIM register.
1179:C:/Users/Utente/Desktop/Tesi/Firmware_Software/DAVE project/S2GLP_Pulsed_Doppler/Libraries/XMCLib/inc\xmc4_scu.h ****  * \par<b>Related APIs:</b><BR>
1180:C:/Users/Utente/Desktop/Tesi/Firmware_Software/DAVE project/S2GLP_Pulsed_Doppler/Libraries/XMCLib/inc\xmc4_scu.h ****  * XMC_SCU_SetRawTempLimits(),XMC_SCU_HighTemperature() \n\n\n
1181:C:/Users/Utente/Desktop/Tesi/Firmware_Software/DAVE project/S2GLP_Pulsed_Doppler/Libraries/XMCLib/inc\xmc4_scu.h ****  */
1182:C:/Users/Utente/Desktop/Tesi/Firmware_Software/DAVE project/S2GLP_Pulsed_Doppler/Libraries/XMCLib/inc\xmc4_scu.h **** bool XMC_SCU_LowTemperature(void);
1183:C:/Users/Utente/Desktop/Tesi/Firmware_Software/DAVE project/S2GLP_Pulsed_Doppler/Libraries/XMCLib/inc\xmc4_scu.h **** #endif
1184:C:/Users/Utente/Desktop/Tesi/Firmware_Software/DAVE project/S2GLP_Pulsed_Doppler/Libraries/XMCLib/inc\xmc4_scu.h **** 
1185:C:/Users/Utente/Desktop/Tesi/Firmware_Software/DAVE project/S2GLP_Pulsed_Doppler/Libraries/XMCLib/inc\xmc4_scu.h **** /**
1186:C:/Users/Utente/Desktop/Tesi/Firmware_Software/DAVE project/S2GLP_Pulsed_Doppler/Libraries/XMCLib/inc\xmc4_scu.h ****  * @return uint32_t Configured boot mode for the device.\n
1187:C:/Users/Utente/Desktop/Tesi/Firmware_Software/DAVE project/S2GLP_Pulsed_Doppler/Libraries/XMCLib/inc\xmc4_scu.h ****  *        \b Range: Use type @ref XMC_SCU_BOOTMODE_t for enumeration of different boot modes.
1188:C:/Users/Utente/Desktop/Tesi/Firmware_Software/DAVE project/S2GLP_Pulsed_Doppler/Libraries/XMCLib/inc\xmc4_scu.h ****  *
1189:C:/Users/Utente/Desktop/Tesi/Firmware_Software/DAVE project/S2GLP_Pulsed_Doppler/Libraries/XMCLib/inc\xmc4_scu.h ****  * \par<b>Description</b><br>
1190:C:/Users/Utente/Desktop/Tesi/Firmware_Software/DAVE project/S2GLP_Pulsed_Doppler/Libraries/XMCLib/inc\xmc4_scu.h ****  * Provides the boot mode configured for the device.\n\n
1191:C:/Users/Utente/Desktop/Tesi/Firmware_Software/DAVE project/S2GLP_Pulsed_Doppler/Libraries/XMCLib/inc\xmc4_scu.h ****  * The boot mode is read from the \a STCON register bit field \a SWCON.
1192:C:/Users/Utente/Desktop/Tesi/Firmware_Software/DAVE project/S2GLP_Pulsed_Doppler/Libraries/XMCLib/inc\xmc4_scu.h ****  *
1193:C:/Users/Utente/Desktop/Tesi/Firmware_Software/DAVE project/S2GLP_Pulsed_Doppler/Libraries/XMCLib/inc\xmc4_scu.h ****  * \par<b>Related APIs:</b><BR>
1194:C:/Users/Utente/Desktop/Tesi/Firmware_Software/DAVE project/S2GLP_Pulsed_Doppler/Libraries/XMCLib/inc\xmc4_scu.h ****  * XMC_SCU_SetBootMode() \n\n\n
1195:C:/Users/Utente/Desktop/Tesi/Firmware_Software/DAVE project/S2GLP_Pulsed_Doppler/Libraries/XMCLib/inc\xmc4_scu.h ****  */
1196:C:/Users/Utente/Desktop/Tesi/Firmware_Software/DAVE project/S2GLP_Pulsed_Doppler/Libraries/XMCLib/inc\xmc4_scu.h **** uint32_t XMC_SCU_GetBootMode(void);
1197:C:/Users/Utente/Desktop/Tesi/Firmware_Software/DAVE project/S2GLP_Pulsed_Doppler/Libraries/XMCLib/inc\xmc4_scu.h **** 
1198:C:/Users/Utente/Desktop/Tesi/Firmware_Software/DAVE project/S2GLP_Pulsed_Doppler/Libraries/XMCLib/inc\xmc4_scu.h **** /**
1199:C:/Users/Utente/Desktop/Tesi/Firmware_Software/DAVE project/S2GLP_Pulsed_Doppler/Libraries/XMCLib/inc\xmc4_scu.h ****  *
1200:C:/Users/Utente/Desktop/Tesi/Firmware_Software/DAVE project/S2GLP_Pulsed_Doppler/Libraries/XMCLib/inc\xmc4_scu.h ****  * @param mode Boot mode to be configured for the device.\n
1201:C:/Users/Utente/Desktop/Tesi/Firmware_Software/DAVE project/S2GLP_Pulsed_Doppler/Libraries/XMCLib/inc\xmc4_scu.h ****  *        \b Range: Use type @ref XMC_SCU_BOOTMODE_t for selecting the boot mode.
1202:C:/Users/Utente/Desktop/Tesi/Firmware_Software/DAVE project/S2GLP_Pulsed_Doppler/Libraries/XMCLib/inc\xmc4_scu.h ****  *
1203:C:/Users/Utente/Desktop/Tesi/Firmware_Software/DAVE project/S2GLP_Pulsed_Doppler/Libraries/XMCLib/inc\xmc4_scu.h ****  * @return None
1204:C:/Users/Utente/Desktop/Tesi/Firmware_Software/DAVE project/S2GLP_Pulsed_Doppler/Libraries/XMCLib/inc\xmc4_scu.h ****  *
1205:C:/Users/Utente/Desktop/Tesi/Firmware_Software/DAVE project/S2GLP_Pulsed_Doppler/Libraries/XMCLib/inc\xmc4_scu.h ****  * \par<b>Description</b><br>
1206:C:/Users/Utente/Desktop/Tesi/Firmware_Software/DAVE project/S2GLP_Pulsed_Doppler/Libraries/XMCLib/inc\xmc4_scu.h ****  * Configures the desired boot mode for the device.\n\n
1207:C:/Users/Utente/Desktop/Tesi/Firmware_Software/DAVE project/S2GLP_Pulsed_Doppler/Libraries/XMCLib/inc\xmc4_scu.h ****  * The XMC4 series devices support multiple boot modes. A running application can set a desired boo
1208:C:/Users/Utente/Desktop/Tesi/Firmware_Software/DAVE project/S2GLP_Pulsed_Doppler/Libraries/XMCLib/inc\xmc4_scu.h ****  * launch it by means of software reset. Switching of boot modes should be handled carefully. User 
1209:C:/Users/Utente/Desktop/Tesi/Firmware_Software/DAVE project/S2GLP_Pulsed_Doppler/Libraries/XMCLib/inc\xmc4_scu.h ****  * the initial boot sequence is executed. A stable execution environment should be maintained when 
1210:C:/Users/Utente/Desktop/Tesi/Firmware_Software/DAVE project/S2GLP_Pulsed_Doppler/Libraries/XMCLib/inc\xmc4_scu.h ****  * eventually handed over to the application program.\n
1211:C:/Users/Utente/Desktop/Tesi/Firmware_Software/DAVE project/S2GLP_Pulsed_Doppler/Libraries/XMCLib/inc\xmc4_scu.h ****  * It is recommended to use following steps to launch requested bootmode:\n
1212:C:/Users/Utente/Desktop/Tesi/Firmware_Software/DAVE project/S2GLP_Pulsed_Doppler/Libraries/XMCLib/inc\xmc4_scu.h ****  * - Call \a XMC_SCU_SetBootMode() with desired boot mode value.\n
1213:C:/Users/Utente/Desktop/Tesi/Firmware_Software/DAVE project/S2GLP_Pulsed_Doppler/Libraries/XMCLib/inc\xmc4_scu.h ****  * - Trigger a software reset using system reset request by enabling a bit \a SYSRESETREQ of AIRCR 
1214:C:/Users/Utente/Desktop/Tesi/Firmware_Software/DAVE project/S2GLP_Pulsed_Doppler/Libraries/XMCLib/inc\xmc4_scu.h ****  *   (PPB->AIRCR |= PPB_AIRCR_SYSRESETREQ_Msk).\n
1215:C:/Users/Utente/Desktop/Tesi/Firmware_Software/DAVE project/S2GLP_Pulsed_Doppler/Libraries/XMCLib/inc\xmc4_scu.h ****  * \par<b>Related APIs:</b><BR>
1216:C:/Users/Utente/Desktop/Tesi/Firmware_Software/DAVE project/S2GLP_Pulsed_Doppler/Libraries/XMCLib/inc\xmc4_scu.h ****  * XMC_SCU_GetBootMode() \n\n\n
1217:C:/Users/Utente/Desktop/Tesi/Firmware_Software/DAVE project/S2GLP_Pulsed_Doppler/Libraries/XMCLib/inc\xmc4_scu.h ****  */
1218:C:/Users/Utente/Desktop/Tesi/Firmware_Software/DAVE project/S2GLP_Pulsed_Doppler/Libraries/XMCLib/inc\xmc4_scu.h **** void XMC_SCU_SetBootMode(const XMC_SCU_BOOTMODE_t mode);
1219:C:/Users/Utente/Desktop/Tesi/Firmware_Software/DAVE project/S2GLP_Pulsed_Doppler/Libraries/XMCLib/inc\xmc4_scu.h **** 
1220:C:/Users/Utente/Desktop/Tesi/Firmware_Software/DAVE project/S2GLP_Pulsed_Doppler/Libraries/XMCLib/inc\xmc4_scu.h **** /**
1221:C:/Users/Utente/Desktop/Tesi/Firmware_Software/DAVE project/S2GLP_Pulsed_Doppler/Libraries/XMCLib/inc\xmc4_scu.h ****  *
1222:C:/Users/Utente/Desktop/Tesi/Firmware_Software/DAVE project/S2GLP_Pulsed_Doppler/Libraries/XMCLib/inc\xmc4_scu.h ****  * @param index  The SCU general purpose register to be read.\n
1223:C:/Users/Utente/Desktop/Tesi/Firmware_Software/DAVE project/S2GLP_Pulsed_Doppler/Libraries/XMCLib/inc\xmc4_scu.h ****  *        \b Range: 0 and 1 corresponding to GPR0 and GPR1.
1224:C:/Users/Utente/Desktop/Tesi/Firmware_Software/DAVE project/S2GLP_Pulsed_Doppler/Libraries/XMCLib/inc\xmc4_scu.h ****  *
1225:C:/Users/Utente/Desktop/Tesi/Firmware_Software/DAVE project/S2GLP_Pulsed_Doppler/Libraries/XMCLib/inc\xmc4_scu.h ****  * @return uint32_t  Data read from the selected general purpose register.
1226:C:/Users/Utente/Desktop/Tesi/Firmware_Software/DAVE project/S2GLP_Pulsed_Doppler/Libraries/XMCLib/inc\xmc4_scu.h ****  *
1227:C:/Users/Utente/Desktop/Tesi/Firmware_Software/DAVE project/S2GLP_Pulsed_Doppler/Libraries/XMCLib/inc\xmc4_scu.h ****  * \par<b>Description</b><br>
1228:C:/Users/Utente/Desktop/Tesi/Firmware_Software/DAVE project/S2GLP_Pulsed_Doppler/Libraries/XMCLib/inc\xmc4_scu.h ****  * Provides stored data from general purpose SCU register.\n\n
1229:C:/Users/Utente/Desktop/Tesi/Firmware_Software/DAVE project/S2GLP_Pulsed_Doppler/Libraries/XMCLib/inc\xmc4_scu.h ****  * SCU consists of 2 general purpose registers. These registers can be used for storing
1230:C:/Users/Utente/Desktop/Tesi/Firmware_Software/DAVE project/S2GLP_Pulsed_Doppler/Libraries/XMCLib/inc\xmc4_scu.h ****  * data. The API reads from either GPR0 or GPR1 based on the \a index value.
1231:C:/Users/Utente/Desktop/Tesi/Firmware_Software/DAVE project/S2GLP_Pulsed_Doppler/Libraries/XMCLib/inc\xmc4_scu.h ****  * \par<b>Related APIs:</b><BR>
1232:C:/Users/Utente/Desktop/Tesi/Firmware_Software/DAVE project/S2GLP_Pulsed_Doppler/Libraries/XMCLib/inc\xmc4_scu.h ****  * XMC_SCU_WriteGPR()\n\n\n
1233:C:/Users/Utente/Desktop/Tesi/Firmware_Software/DAVE project/S2GLP_Pulsed_Doppler/Libraries/XMCLib/inc\xmc4_scu.h ****  */
1234:C:/Users/Utente/Desktop/Tesi/Firmware_Software/DAVE project/S2GLP_Pulsed_Doppler/Libraries/XMCLib/inc\xmc4_scu.h **** uint32_t XMC_SCU_ReadGPR(const uint32_t index);
1235:C:/Users/Utente/Desktop/Tesi/Firmware_Software/DAVE project/S2GLP_Pulsed_Doppler/Libraries/XMCLib/inc\xmc4_scu.h ****  
1236:C:/Users/Utente/Desktop/Tesi/Firmware_Software/DAVE project/S2GLP_Pulsed_Doppler/Libraries/XMCLib/inc\xmc4_scu.h **** /**
1237:C:/Users/Utente/Desktop/Tesi/Firmware_Software/DAVE project/S2GLP_Pulsed_Doppler/Libraries/XMCLib/inc\xmc4_scu.h ****  *
1238:C:/Users/Utente/Desktop/Tesi/Firmware_Software/DAVE project/S2GLP_Pulsed_Doppler/Libraries/XMCLib/inc\xmc4_scu.h ****  * @param index  The SCU general purpose register to be written.\n
1239:C:/Users/Utente/Desktop/Tesi/Firmware_Software/DAVE project/S2GLP_Pulsed_Doppler/Libraries/XMCLib/inc\xmc4_scu.h ****  *        \b Range: 0 and 1 corresponding to GPR0 and GPR1.
1240:C:/Users/Utente/Desktop/Tesi/Firmware_Software/DAVE project/S2GLP_Pulsed_Doppler/Libraries/XMCLib/inc\xmc4_scu.h ****  * @param data  Data to be written to the selected general purpose register.
1241:C:/Users/Utente/Desktop/Tesi/Firmware_Software/DAVE project/S2GLP_Pulsed_Doppler/Libraries/XMCLib/inc\xmc4_scu.h ****  *
1242:C:/Users/Utente/Desktop/Tesi/Firmware_Software/DAVE project/S2GLP_Pulsed_Doppler/Libraries/XMCLib/inc\xmc4_scu.h ****  * @return None
1243:C:/Users/Utente/Desktop/Tesi/Firmware_Software/DAVE project/S2GLP_Pulsed_Doppler/Libraries/XMCLib/inc\xmc4_scu.h ****  *
1244:C:/Users/Utente/Desktop/Tesi/Firmware_Software/DAVE project/S2GLP_Pulsed_Doppler/Libraries/XMCLib/inc\xmc4_scu.h ****  * \par<b>Description</b><br>
1245:C:/Users/Utente/Desktop/Tesi/Firmware_Software/DAVE project/S2GLP_Pulsed_Doppler/Libraries/XMCLib/inc\xmc4_scu.h ****  * Stores data in the selected general purpose SCU register.\n\n
1246:C:/Users/Utente/Desktop/Tesi/Firmware_Software/DAVE project/S2GLP_Pulsed_Doppler/Libraries/XMCLib/inc\xmc4_scu.h ****  * SCU consists of 2 general purpose registers. These registers can be used for storing
1247:C:/Users/Utente/Desktop/Tesi/Firmware_Software/DAVE project/S2GLP_Pulsed_Doppler/Libraries/XMCLib/inc\xmc4_scu.h ****  * data. The API writes data to either GPR0 or GPR1 based on the \a index value.
1248:C:/Users/Utente/Desktop/Tesi/Firmware_Software/DAVE project/S2GLP_Pulsed_Doppler/Libraries/XMCLib/inc\xmc4_scu.h ****  * \par<b>Related APIs:</b><BR>
1249:C:/Users/Utente/Desktop/Tesi/Firmware_Software/DAVE project/S2GLP_Pulsed_Doppler/Libraries/XMCLib/inc\xmc4_scu.h ****  * XMC_SCU_ReadGPR()\n\n\n
1250:C:/Users/Utente/Desktop/Tesi/Firmware_Software/DAVE project/S2GLP_Pulsed_Doppler/Libraries/XMCLib/inc\xmc4_scu.h ****  */
1251:C:/Users/Utente/Desktop/Tesi/Firmware_Software/DAVE project/S2GLP_Pulsed_Doppler/Libraries/XMCLib/inc\xmc4_scu.h **** void XMC_SCU_WriteGPR(const uint32_t index, const uint32_t data);
1252:C:/Users/Utente/Desktop/Tesi/Firmware_Software/DAVE project/S2GLP_Pulsed_Doppler/Libraries/XMCLib/inc\xmc4_scu.h **** 
1253:C:/Users/Utente/Desktop/Tesi/Firmware_Software/DAVE project/S2GLP_Pulsed_Doppler/Libraries/XMCLib/inc\xmc4_scu.h **** /**
1254:C:/Users/Utente/Desktop/Tesi/Firmware_Software/DAVE project/S2GLP_Pulsed_Doppler/Libraries/XMCLib/inc\xmc4_scu.h ****  *
1255:C:/Users/Utente/Desktop/Tesi/Firmware_Software/DAVE project/S2GLP_Pulsed_Doppler/Libraries/XMCLib/inc\xmc4_scu.h ****  * @param address  Location in the retention memory to be written.\n
1256:C:/Users/Utente/Desktop/Tesi/Firmware_Software/DAVE project/S2GLP_Pulsed_Doppler/Libraries/XMCLib/inc\xmc4_scu.h ****  *        \b Range: 4 bit address space is provided for selecting 16 words of 32 bits.
1257:C:/Users/Utente/Desktop/Tesi/Firmware_Software/DAVE project/S2GLP_Pulsed_Doppler/Libraries/XMCLib/inc\xmc4_scu.h ****  *                  equivalent to 64 bytes of data. \a address value should be from
1258:C:/Users/Utente/Desktop/Tesi/Firmware_Software/DAVE project/S2GLP_Pulsed_Doppler/Libraries/XMCLib/inc\xmc4_scu.h ****  *                  0 to 15.
1259:C:/Users/Utente/Desktop/Tesi/Firmware_Software/DAVE project/S2GLP_Pulsed_Doppler/Libraries/XMCLib/inc\xmc4_scu.h ****  * @param data    32 bit data to be written into retention memory. The API writes
1260:C:/Users/Utente/Desktop/Tesi/Firmware_Software/DAVE project/S2GLP_Pulsed_Doppler/Libraries/XMCLib/inc\xmc4_scu.h ****  *                one word(4 bytes) of data to the address specified.\n
1261:C:/Users/Utente/Desktop/Tesi/Firmware_Software/DAVE project/S2GLP_Pulsed_Doppler/Libraries/XMCLib/inc\xmc4_scu.h ****  *                \b Range: 32 bit data.
1262:C:/Users/Utente/Desktop/Tesi/Firmware_Software/DAVE project/S2GLP_Pulsed_Doppler/Libraries/XMCLib/inc\xmc4_scu.h ****  *
1263:C:/Users/Utente/Desktop/Tesi/Firmware_Software/DAVE project/S2GLP_Pulsed_Doppler/Libraries/XMCLib/inc\xmc4_scu.h ****  * @return None
1264:C:/Users/Utente/Desktop/Tesi/Firmware_Software/DAVE project/S2GLP_Pulsed_Doppler/Libraries/XMCLib/inc\xmc4_scu.h ****  *
1265:C:/Users/Utente/Desktop/Tesi/Firmware_Software/DAVE project/S2GLP_Pulsed_Doppler/Libraries/XMCLib/inc\xmc4_scu.h ****  * \par<b>Description</b><br>
1266:C:/Users/Utente/Desktop/Tesi/Firmware_Software/DAVE project/S2GLP_Pulsed_Doppler/Libraries/XMCLib/inc\xmc4_scu.h ****  * Writes input data to the selected address of Retention memory in hibernate domain.\n\n
1267:C:/Users/Utente/Desktop/Tesi/Firmware_Software/DAVE project/S2GLP_Pulsed_Doppler/Libraries/XMCLib/inc\xmc4_scu.h ****  * The retention memory is located in hibernate domain. 
1268:C:/Users/Utente/Desktop/Tesi/Firmware_Software/DAVE project/S2GLP_Pulsed_Doppler/Libraries/XMCLib/inc\xmc4_scu.h ****  * It is used for the purpose of store/restore of context information.
1269:C:/Users/Utente/Desktop/Tesi/Firmware_Software/DAVE project/S2GLP_Pulsed_Doppler/Libraries/XMCLib/inc\xmc4_scu.h ****  * Access to the retention memory space is served over shared serial interface. 
1270:C:/Users/Utente/Desktop/Tesi/Firmware_Software/DAVE project/S2GLP_Pulsed_Doppler/Libraries/XMCLib/inc\xmc4_scu.h ****  * Retention memory content is retained even in hibernate mode.
1271:C:/Users/Utente/Desktop/Tesi/Firmware_Software/DAVE project/S2GLP_Pulsed_Doppler/Libraries/XMCLib/inc\xmc4_scu.h ****  * \par<b>Related APIs:</b><BR>
1272:C:/Users/Utente/Desktop/Tesi/Firmware_Software/DAVE project/S2GLP_Pulsed_Doppler/Libraries/XMCLib/inc\xmc4_scu.h ****  * XMC_SCU_ReadFromRetentionMemory() \n\n\n
1273:C:/Users/Utente/Desktop/Tesi/Firmware_Software/DAVE project/S2GLP_Pulsed_Doppler/Libraries/XMCLib/inc\xmc4_scu.h ****  */
1274:C:/Users/Utente/Desktop/Tesi/Firmware_Software/DAVE project/S2GLP_Pulsed_Doppler/Libraries/XMCLib/inc\xmc4_scu.h **** void XMC_SCU_WriteToRetentionMemory(uint32_t address, uint32_t data);
1275:C:/Users/Utente/Desktop/Tesi/Firmware_Software/DAVE project/S2GLP_Pulsed_Doppler/Libraries/XMCLib/inc\xmc4_scu.h **** 
1276:C:/Users/Utente/Desktop/Tesi/Firmware_Software/DAVE project/S2GLP_Pulsed_Doppler/Libraries/XMCLib/inc\xmc4_scu.h **** /**
1277:C:/Users/Utente/Desktop/Tesi/Firmware_Software/DAVE project/S2GLP_Pulsed_Doppler/Libraries/XMCLib/inc\xmc4_scu.h ****  *
1278:C:/Users/Utente/Desktop/Tesi/Firmware_Software/DAVE project/S2GLP_Pulsed_Doppler/Libraries/XMCLib/inc\xmc4_scu.h ****  * @param address  Location in the retention memory to be read.\n
1279:C:/Users/Utente/Desktop/Tesi/Firmware_Software/DAVE project/S2GLP_Pulsed_Doppler/Libraries/XMCLib/inc\xmc4_scu.h ****  *        \b Range: 4 bit address space is provided for selecting 16 words of 32 bits.
1280:C:/Users/Utente/Desktop/Tesi/Firmware_Software/DAVE project/S2GLP_Pulsed_Doppler/Libraries/XMCLib/inc\xmc4_scu.h ****  *                  equivalent to 64 bytes of data. \a address value should be from
1281:C:/Users/Utente/Desktop/Tesi/Firmware_Software/DAVE project/S2GLP_Pulsed_Doppler/Libraries/XMCLib/inc\xmc4_scu.h ****  *                  0 to 15.
1282:C:/Users/Utente/Desktop/Tesi/Firmware_Software/DAVE project/S2GLP_Pulsed_Doppler/Libraries/XMCLib/inc\xmc4_scu.h ****  *
1283:C:/Users/Utente/Desktop/Tesi/Firmware_Software/DAVE project/S2GLP_Pulsed_Doppler/Libraries/XMCLib/inc\xmc4_scu.h ****  * @return uint32_t  32 bit data read from retention memory. The API reads
1284:C:/Users/Utente/Desktop/Tesi/Firmware_Software/DAVE project/S2GLP_Pulsed_Doppler/Libraries/XMCLib/inc\xmc4_scu.h ****  *                one word(4 bytes) of data from the address specified.\n
1285:C:/Users/Utente/Desktop/Tesi/Firmware_Software/DAVE project/S2GLP_Pulsed_Doppler/Libraries/XMCLib/inc\xmc4_scu.h ****  *                \b Range: 32 bit data.
1286:C:/Users/Utente/Desktop/Tesi/Firmware_Software/DAVE project/S2GLP_Pulsed_Doppler/Libraries/XMCLib/inc\xmc4_scu.h ****  *
1287:C:/Users/Utente/Desktop/Tesi/Firmware_Software/DAVE project/S2GLP_Pulsed_Doppler/Libraries/XMCLib/inc\xmc4_scu.h ****  * \par<b>Description</b><br>
1288:C:/Users/Utente/Desktop/Tesi/Firmware_Software/DAVE project/S2GLP_Pulsed_Doppler/Libraries/XMCLib/inc\xmc4_scu.h ****  * Reads data from selected address of retention memory in hibernate domain.\n\n
1289:C:/Users/Utente/Desktop/Tesi/Firmware_Software/DAVE project/S2GLP_Pulsed_Doppler/Libraries/XMCLib/inc\xmc4_scu.h ****  * The retention memory is located in hibernate domain. 
1290:C:/Users/Utente/Desktop/Tesi/Firmware_Software/DAVE project/S2GLP_Pulsed_Doppler/Libraries/XMCLib/inc\xmc4_scu.h ****  * It is used for the purpose of store/restore of context information.
1291:C:/Users/Utente/Desktop/Tesi/Firmware_Software/DAVE project/S2GLP_Pulsed_Doppler/Libraries/XMCLib/inc\xmc4_scu.h ****  * Access to the retention memory space is served over shared serial interface. 
1292:C:/Users/Utente/Desktop/Tesi/Firmware_Software/DAVE project/S2GLP_Pulsed_Doppler/Libraries/XMCLib/inc\xmc4_scu.h ****  * Retention memory content is retained even in hibernate mode.
1293:C:/Users/Utente/Desktop/Tesi/Firmware_Software/DAVE project/S2GLP_Pulsed_Doppler/Libraries/XMCLib/inc\xmc4_scu.h ****  * \par<b>Related APIs:</b><BR>
1294:C:/Users/Utente/Desktop/Tesi/Firmware_Software/DAVE project/S2GLP_Pulsed_Doppler/Libraries/XMCLib/inc\xmc4_scu.h ****  * XMC_SCU_WriteToRetentionMemory() \n\n\n
1295:C:/Users/Utente/Desktop/Tesi/Firmware_Software/DAVE project/S2GLP_Pulsed_Doppler/Libraries/XMCLib/inc\xmc4_scu.h ****  */
1296:C:/Users/Utente/Desktop/Tesi/Firmware_Software/DAVE project/S2GLP_Pulsed_Doppler/Libraries/XMCLib/inc\xmc4_scu.h **** uint32_t XMC_SCU_ReadFromRetentionMemory(uint32_t address);
1297:C:/Users/Utente/Desktop/Tesi/Firmware_Software/DAVE project/S2GLP_Pulsed_Doppler/Libraries/XMCLib/inc\xmc4_scu.h **** 
1298:C:/Users/Utente/Desktop/Tesi/Firmware_Software/DAVE project/S2GLP_Pulsed_Doppler/Libraries/XMCLib/inc\xmc4_scu.h **** /**
1299:C:/Users/Utente/Desktop/Tesi/Firmware_Software/DAVE project/S2GLP_Pulsed_Doppler/Libraries/XMCLib/inc\xmc4_scu.h ****  *
1300:C:/Users/Utente/Desktop/Tesi/Firmware_Software/DAVE project/S2GLP_Pulsed_Doppler/Libraries/XMCLib/inc\xmc4_scu.h ****  * @param request  Non-maskable interrupt (NMI) request source to be enabled.\n
1301:C:/Users/Utente/Desktop/Tesi/Firmware_Software/DAVE project/S2GLP_Pulsed_Doppler/Libraries/XMCLib/inc\xmc4_scu.h ****  *              \b Range: Use type @ref XMC_SCU_NMIREQ_t for selecting the source of NMI. Multiple 
1302:C:/Users/Utente/Desktop/Tesi/Firmware_Software/DAVE project/S2GLP_Pulsed_Doppler/Libraries/XMCLib/inc\xmc4_scu.h ****  *              sources can be combined using \a OR operation.
1303:C:/Users/Utente/Desktop/Tesi/Firmware_Software/DAVE project/S2GLP_Pulsed_Doppler/Libraries/XMCLib/inc\xmc4_scu.h ****  *
1304:C:/Users/Utente/Desktop/Tesi/Firmware_Software/DAVE project/S2GLP_Pulsed_Doppler/Libraries/XMCLib/inc\xmc4_scu.h ****  * @return None  
1305:C:/Users/Utente/Desktop/Tesi/Firmware_Software/DAVE project/S2GLP_Pulsed_Doppler/Libraries/XMCLib/inc\xmc4_scu.h ****  *
1306:C:/Users/Utente/Desktop/Tesi/Firmware_Software/DAVE project/S2GLP_Pulsed_Doppler/Libraries/XMCLib/inc\xmc4_scu.h ****  * \par<b>Description</b><br>
1307:C:/Users/Utente/Desktop/Tesi/Firmware_Software/DAVE project/S2GLP_Pulsed_Doppler/Libraries/XMCLib/inc\xmc4_scu.h ****  * Selectively enables interrupt sources to generate non maskable interrupt(NMI).\n\n
1308:C:/Users/Utente/Desktop/Tesi/Firmware_Software/DAVE project/S2GLP_Pulsed_Doppler/Libraries/XMCLib/inc\xmc4_scu.h ****  * NMI assertion can be individually enabled by setting corresponding bit of an interrupt in the 
1309:C:/Users/Utente/Desktop/Tesi/Firmware_Software/DAVE project/S2GLP_Pulsed_Doppler/Libraries/XMCLib/inc\xmc4_scu.h ****  * \a NMIREQEN register.
1310:C:/Users/Utente/Desktop/Tesi/Firmware_Software/DAVE project/S2GLP_Pulsed_Doppler/Libraries/XMCLib/inc\xmc4_scu.h ****  * \par<b>Related APIs:</b><BR>
1311:C:/Users/Utente/Desktop/Tesi/Firmware_Software/DAVE project/S2GLP_Pulsed_Doppler/Libraries/XMCLib/inc\xmc4_scu.h ****  * XMC_SCU_INTERRUPT_DisableNmiRequest() \n\n\n
1312:C:/Users/Utente/Desktop/Tesi/Firmware_Software/DAVE project/S2GLP_Pulsed_Doppler/Libraries/XMCLib/inc\xmc4_scu.h ****  */
1313:C:/Users/Utente/Desktop/Tesi/Firmware_Software/DAVE project/S2GLP_Pulsed_Doppler/Libraries/XMCLib/inc\xmc4_scu.h **** void XMC_SCU_INTERRUPT_EnableNmiRequest(const uint32_t request);
1314:C:/Users/Utente/Desktop/Tesi/Firmware_Software/DAVE project/S2GLP_Pulsed_Doppler/Libraries/XMCLib/inc\xmc4_scu.h **** 
1315:C:/Users/Utente/Desktop/Tesi/Firmware_Software/DAVE project/S2GLP_Pulsed_Doppler/Libraries/XMCLib/inc\xmc4_scu.h **** /**
1316:C:/Users/Utente/Desktop/Tesi/Firmware_Software/DAVE project/S2GLP_Pulsed_Doppler/Libraries/XMCLib/inc\xmc4_scu.h ****  *
1317:C:/Users/Utente/Desktop/Tesi/Firmware_Software/DAVE project/S2GLP_Pulsed_Doppler/Libraries/XMCLib/inc\xmc4_scu.h ****  * @param request  Non-maskable interrupt (NMI) request source to be disabled.\n
1318:C:/Users/Utente/Desktop/Tesi/Firmware_Software/DAVE project/S2GLP_Pulsed_Doppler/Libraries/XMCLib/inc\xmc4_scu.h ****  *              \b Range: Use type @ref XMC_SCU_NMIREQ_t for selecting the source of NMI. Multiple 
1319:C:/Users/Utente/Desktop/Tesi/Firmware_Software/DAVE project/S2GLP_Pulsed_Doppler/Libraries/XMCLib/inc\xmc4_scu.h ****  *              sources can be combined using \a OR operation.
1320:C:/Users/Utente/Desktop/Tesi/Firmware_Software/DAVE project/S2GLP_Pulsed_Doppler/Libraries/XMCLib/inc\xmc4_scu.h ****  *
1321:C:/Users/Utente/Desktop/Tesi/Firmware_Software/DAVE project/S2GLP_Pulsed_Doppler/Libraries/XMCLib/inc\xmc4_scu.h ****  * @return None  
1322:C:/Users/Utente/Desktop/Tesi/Firmware_Software/DAVE project/S2GLP_Pulsed_Doppler/Libraries/XMCLib/inc\xmc4_scu.h ****  *
1323:C:/Users/Utente/Desktop/Tesi/Firmware_Software/DAVE project/S2GLP_Pulsed_Doppler/Libraries/XMCLib/inc\xmc4_scu.h ****  * \par<b>Description</b><br>
1324:C:/Users/Utente/Desktop/Tesi/Firmware_Software/DAVE project/S2GLP_Pulsed_Doppler/Libraries/XMCLib/inc\xmc4_scu.h ****  * Selectively disables interrupt sources from generating non maskable interrupt(NMI).\n\n
1325:C:/Users/Utente/Desktop/Tesi/Firmware_Software/DAVE project/S2GLP_Pulsed_Doppler/Libraries/XMCLib/inc\xmc4_scu.h ****  * NMI assertion can be individually disabled by clearing corresponding bits in the \a NMIREQEN reg
1326:C:/Users/Utente/Desktop/Tesi/Firmware_Software/DAVE project/S2GLP_Pulsed_Doppler/Libraries/XMCLib/inc\xmc4_scu.h ****  * \par<b>Related APIs:</b><BR>
1327:C:/Users/Utente/Desktop/Tesi/Firmware_Software/DAVE project/S2GLP_Pulsed_Doppler/Libraries/XMCLib/inc\xmc4_scu.h ****  * XMC_SCU_INTERRUPT_EnableNmiRequest() \n\n\n
1328:C:/Users/Utente/Desktop/Tesi/Firmware_Software/DAVE project/S2GLP_Pulsed_Doppler/Libraries/XMCLib/inc\xmc4_scu.h ****  */
1329:C:/Users/Utente/Desktop/Tesi/Firmware_Software/DAVE project/S2GLP_Pulsed_Doppler/Libraries/XMCLib/inc\xmc4_scu.h **** void XMC_SCU_INTERRUPT_DisableNmiRequest(const uint32_t request);
1330:C:/Users/Utente/Desktop/Tesi/Firmware_Software/DAVE project/S2GLP_Pulsed_Doppler/Libraries/XMCLib/inc\xmc4_scu.h **** 
1331:C:/Users/Utente/Desktop/Tesi/Firmware_Software/DAVE project/S2GLP_Pulsed_Doppler/Libraries/XMCLib/inc\xmc4_scu.h **** /**
1332:C:/Users/Utente/Desktop/Tesi/Firmware_Software/DAVE project/S2GLP_Pulsed_Doppler/Libraries/XMCLib/inc\xmc4_scu.h ****  *
1333:C:/Users/Utente/Desktop/Tesi/Firmware_Software/DAVE project/S2GLP_Pulsed_Doppler/Libraries/XMCLib/inc\xmc4_scu.h ****  * @param trap  The event for which, trap generation has to be enabled.\n
1334:C:/Users/Utente/Desktop/Tesi/Firmware_Software/DAVE project/S2GLP_Pulsed_Doppler/Libraries/XMCLib/inc\xmc4_scu.h ****  *        \b Range: Use type @ref XMC_SCU_TRAP_t to identify the event.
1335:C:/Users/Utente/Desktop/Tesi/Firmware_Software/DAVE project/S2GLP_Pulsed_Doppler/Libraries/XMCLib/inc\xmc4_scu.h ****  *
1336:C:/Users/Utente/Desktop/Tesi/Firmware_Software/DAVE project/S2GLP_Pulsed_Doppler/Libraries/XMCLib/inc\xmc4_scu.h ****  * @return None  
1337:C:/Users/Utente/Desktop/Tesi/Firmware_Software/DAVE project/S2GLP_Pulsed_Doppler/Libraries/XMCLib/inc\xmc4_scu.h ****  *
1338:C:/Users/Utente/Desktop/Tesi/Firmware_Software/DAVE project/S2GLP_Pulsed_Doppler/Libraries/XMCLib/inc\xmc4_scu.h ****  * \par<b>Description</b><br>
1339:C:/Users/Utente/Desktop/Tesi/Firmware_Software/DAVE project/S2GLP_Pulsed_Doppler/Libraries/XMCLib/inc\xmc4_scu.h ****  * Enables assertion of trap for the selected trap event.\n\n
1340:C:/Users/Utente/Desktop/Tesi/Firmware_Software/DAVE project/S2GLP_Pulsed_Doppler/Libraries/XMCLib/inc\xmc4_scu.h ****  * Trap assertion can be individually enabled by clearing respective bit of the 
1341:C:/Users/Utente/Desktop/Tesi/Firmware_Software/DAVE project/S2GLP_Pulsed_Doppler/Libraries/XMCLib/inc\xmc4_scu.h ****  * event in \a TRAPDIS register in order to get an exception.
1342:C:/Users/Utente/Desktop/Tesi/Firmware_Software/DAVE project/S2GLP_Pulsed_Doppler/Libraries/XMCLib/inc\xmc4_scu.h ****  * \par<b>Related APIs:</b><BR>
1343:C:/Users/Utente/Desktop/Tesi/Firmware_Software/DAVE project/S2GLP_Pulsed_Doppler/Libraries/XMCLib/inc\xmc4_scu.h ****  * XMC_SCU_TRAP_Disable(), XMC_SCU_TRAP_ClearStatus(), XMC_SCU_TRAP_GetStatus() \n\n\n
1344:C:/Users/Utente/Desktop/Tesi/Firmware_Software/DAVE project/S2GLP_Pulsed_Doppler/Libraries/XMCLib/inc\xmc4_scu.h ****  */
1345:C:/Users/Utente/Desktop/Tesi/Firmware_Software/DAVE project/S2GLP_Pulsed_Doppler/Libraries/XMCLib/inc\xmc4_scu.h **** void XMC_SCU_TRAP_Enable(const uint32_t trap);
1346:C:/Users/Utente/Desktop/Tesi/Firmware_Software/DAVE project/S2GLP_Pulsed_Doppler/Libraries/XMCLib/inc\xmc4_scu.h **** 
1347:C:/Users/Utente/Desktop/Tesi/Firmware_Software/DAVE project/S2GLP_Pulsed_Doppler/Libraries/XMCLib/inc\xmc4_scu.h **** /**
1348:C:/Users/Utente/Desktop/Tesi/Firmware_Software/DAVE project/S2GLP_Pulsed_Doppler/Libraries/XMCLib/inc\xmc4_scu.h ****  *
1349:C:/Users/Utente/Desktop/Tesi/Firmware_Software/DAVE project/S2GLP_Pulsed_Doppler/Libraries/XMCLib/inc\xmc4_scu.h ****  * @param trap  The event for which, trap generation has to be disabled.\n
1350:C:/Users/Utente/Desktop/Tesi/Firmware_Software/DAVE project/S2GLP_Pulsed_Doppler/Libraries/XMCLib/inc\xmc4_scu.h ****  *        \b Range: Use type @ref XMC_SCU_TRAP_t to identify the event.
1351:C:/Users/Utente/Desktop/Tesi/Firmware_Software/DAVE project/S2GLP_Pulsed_Doppler/Libraries/XMCLib/inc\xmc4_scu.h ****  *
1352:C:/Users/Utente/Desktop/Tesi/Firmware_Software/DAVE project/S2GLP_Pulsed_Doppler/Libraries/XMCLib/inc\xmc4_scu.h ****  * @return None  
1353:C:/Users/Utente/Desktop/Tesi/Firmware_Software/DAVE project/S2GLP_Pulsed_Doppler/Libraries/XMCLib/inc\xmc4_scu.h ****  *
1354:C:/Users/Utente/Desktop/Tesi/Firmware_Software/DAVE project/S2GLP_Pulsed_Doppler/Libraries/XMCLib/inc\xmc4_scu.h ****  * \par<b>Description</b><br>
1355:C:/Users/Utente/Desktop/Tesi/Firmware_Software/DAVE project/S2GLP_Pulsed_Doppler/Libraries/XMCLib/inc\xmc4_scu.h ****  * Disables assertion of trap for the selected trap event.\n\n
1356:C:/Users/Utente/Desktop/Tesi/Firmware_Software/DAVE project/S2GLP_Pulsed_Doppler/Libraries/XMCLib/inc\xmc4_scu.h ****  * Trap assertion can be individually disabled by setting the respective event bit 
1357:C:/Users/Utente/Desktop/Tesi/Firmware_Software/DAVE project/S2GLP_Pulsed_Doppler/Libraries/XMCLib/inc\xmc4_scu.h ****  * in the \a TRAPDIS register in order to suppress trap generation.
1358:C:/Users/Utente/Desktop/Tesi/Firmware_Software/DAVE project/S2GLP_Pulsed_Doppler/Libraries/XMCLib/inc\xmc4_scu.h ****  * \par<b>Related APIs:</b><BR>
1359:C:/Users/Utente/Desktop/Tesi/Firmware_Software/DAVE project/S2GLP_Pulsed_Doppler/Libraries/XMCLib/inc\xmc4_scu.h ****  * XMC_SCU_TRAP_Enable(), XMC_SCU_TRAP_ClearStatus(), XMC_SCU_TRAP_GetStatus() \n\n\n
1360:C:/Users/Utente/Desktop/Tesi/Firmware_Software/DAVE project/S2GLP_Pulsed_Doppler/Libraries/XMCLib/inc\xmc4_scu.h ****  */
1361:C:/Users/Utente/Desktop/Tesi/Firmware_Software/DAVE project/S2GLP_Pulsed_Doppler/Libraries/XMCLib/inc\xmc4_scu.h **** void XMC_SCU_TRAP_Disable(const uint32_t trap);
1362:C:/Users/Utente/Desktop/Tesi/Firmware_Software/DAVE project/S2GLP_Pulsed_Doppler/Libraries/XMCLib/inc\xmc4_scu.h **** 
1363:C:/Users/Utente/Desktop/Tesi/Firmware_Software/DAVE project/S2GLP_Pulsed_Doppler/Libraries/XMCLib/inc\xmc4_scu.h **** /**
1364:C:/Users/Utente/Desktop/Tesi/Firmware_Software/DAVE project/S2GLP_Pulsed_Doppler/Libraries/XMCLib/inc\xmc4_scu.h ****  *
1365:C:/Users/Utente/Desktop/Tesi/Firmware_Software/DAVE project/S2GLP_Pulsed_Doppler/Libraries/XMCLib/inc\xmc4_scu.h ****  * @param trap  The event for which, trap status bit has to be cleared.\n
1366:C:/Users/Utente/Desktop/Tesi/Firmware_Software/DAVE project/S2GLP_Pulsed_Doppler/Libraries/XMCLib/inc\xmc4_scu.h ****  *        \b Range: Use type @ref XMC_SCU_TRAP_t to identify the event.
1367:C:/Users/Utente/Desktop/Tesi/Firmware_Software/DAVE project/S2GLP_Pulsed_Doppler/Libraries/XMCLib/inc\xmc4_scu.h ****  *
1368:C:/Users/Utente/Desktop/Tesi/Firmware_Software/DAVE project/S2GLP_Pulsed_Doppler/Libraries/XMCLib/inc\xmc4_scu.h ****  * @return None  
1369:C:/Users/Utente/Desktop/Tesi/Firmware_Software/DAVE project/S2GLP_Pulsed_Doppler/Libraries/XMCLib/inc\xmc4_scu.h ****  *
1370:C:/Users/Utente/Desktop/Tesi/Firmware_Software/DAVE project/S2GLP_Pulsed_Doppler/Libraries/XMCLib/inc\xmc4_scu.h ****  * \par<b>Description</b><br>
1371:C:/Users/Utente/Desktop/Tesi/Firmware_Software/DAVE project/S2GLP_Pulsed_Doppler/Libraries/XMCLib/inc\xmc4_scu.h ****  * Clears the trap status of input event.\n\n
1372:C:/Users/Utente/Desktop/Tesi/Firmware_Software/DAVE project/S2GLP_Pulsed_Doppler/Libraries/XMCLib/inc\xmc4_scu.h ****  * Once a trap event is detected, it will have to be acknowledged and later serviced. 
1373:C:/Users/Utente/Desktop/Tesi/Firmware_Software/DAVE project/S2GLP_Pulsed_Doppler/Libraries/XMCLib/inc\xmc4_scu.h ****  * The trap status bit should be cleared to detect the occurence of trap next time. 
1374:C:/Users/Utente/Desktop/Tesi/Firmware_Software/DAVE project/S2GLP_Pulsed_Doppler/Libraries/XMCLib/inc\xmc4_scu.h ****  * This is useful while polling for TRAPSTAT without enabling the NMI for trap.
1375:C:/Users/Utente/Desktop/Tesi/Firmware_Software/DAVE project/S2GLP_Pulsed_Doppler/Libraries/XMCLib/inc\xmc4_scu.h ****  * Trap status can be cleared by setting the event bit in the \a TRAPCLR register.
1376:C:/Users/Utente/Desktop/Tesi/Firmware_Software/DAVE project/S2GLP_Pulsed_Doppler/Libraries/XMCLib/inc\xmc4_scu.h ****  * \par<b>Related APIs:</b><BR>
1377:C:/Users/Utente/Desktop/Tesi/Firmware_Software/DAVE project/S2GLP_Pulsed_Doppler/Libraries/XMCLib/inc\xmc4_scu.h ****  * XMC_SCU_INTERRUPT_EnableNmiRequest(), XMC_SCU_TRAP_GetStatus() \n\n\n
1378:C:/Users/Utente/Desktop/Tesi/Firmware_Software/DAVE project/S2GLP_Pulsed_Doppler/Libraries/XMCLib/inc\xmc4_scu.h ****  */
1379:C:/Users/Utente/Desktop/Tesi/Firmware_Software/DAVE project/S2GLP_Pulsed_Doppler/Libraries/XMCLib/inc\xmc4_scu.h **** void XMC_SCU_TRAP_ClearStatus(const uint32_t trap);
1380:C:/Users/Utente/Desktop/Tesi/Firmware_Software/DAVE project/S2GLP_Pulsed_Doppler/Libraries/XMCLib/inc\xmc4_scu.h **** 
1381:C:/Users/Utente/Desktop/Tesi/Firmware_Software/DAVE project/S2GLP_Pulsed_Doppler/Libraries/XMCLib/inc\xmc4_scu.h **** /**
1382:C:/Users/Utente/Desktop/Tesi/Firmware_Software/DAVE project/S2GLP_Pulsed_Doppler/Libraries/XMCLib/inc\xmc4_scu.h ****  * @return uint32_t  Status of trap generating events.\n
1383:C:/Users/Utente/Desktop/Tesi/Firmware_Software/DAVE project/S2GLP_Pulsed_Doppler/Libraries/XMCLib/inc\xmc4_scu.h ****  *        \b Range: Use type @ref XMC_SCU_TRAP_t to identify the event. The returned
1384:C:/Users/Utente/Desktop/Tesi/Firmware_Software/DAVE project/S2GLP_Pulsed_Doppler/Libraries/XMCLib/inc\xmc4_scu.h ****  * value indicates the status of multiple events at their respective bit positions.
1385:C:/Users/Utente/Desktop/Tesi/Firmware_Software/DAVE project/S2GLP_Pulsed_Doppler/Libraries/XMCLib/inc\xmc4_scu.h ****  * User should mask the bits of the events of interest using the type specified.
1386:C:/Users/Utente/Desktop/Tesi/Firmware_Software/DAVE project/S2GLP_Pulsed_Doppler/Libraries/XMCLib/inc\xmc4_scu.h ****  *
1387:C:/Users/Utente/Desktop/Tesi/Firmware_Software/DAVE project/S2GLP_Pulsed_Doppler/Libraries/XMCLib/inc\xmc4_scu.h ****  * \par<b>Description</b><br>
1388:C:/Users/Utente/Desktop/Tesi/Firmware_Software/DAVE project/S2GLP_Pulsed_Doppler/Libraries/XMCLib/inc\xmc4_scu.h ****  * Provides the status of trap generating events. \n\n
1389:C:/Users/Utente/Desktop/Tesi/Firmware_Software/DAVE project/S2GLP_Pulsed_Doppler/Libraries/XMCLib/inc\xmc4_scu.h ****  * The status is read from \a TRAPRAW register. Status of the specific events can be checked
1390:C:/Users/Utente/Desktop/Tesi/Firmware_Software/DAVE project/S2GLP_Pulsed_Doppler/Libraries/XMCLib/inc\xmc4_scu.h ****  * using their respective bits in the \a TRAPRAW register. The bit masks can be obtained from
1391:C:/Users/Utente/Desktop/Tesi/Firmware_Software/DAVE project/S2GLP_Pulsed_Doppler/Libraries/XMCLib/inc\xmc4_scu.h ****  * the enumeration type @ref XMC_SCU_TRAP_t. Multiple events can be combined using \a OR operation.
1392:C:/Users/Utente/Desktop/Tesi/Firmware_Software/DAVE project/S2GLP_Pulsed_Doppler/Libraries/XMCLib/inc\xmc4_scu.h ****  * A trap event is considered to be asserted if the respective bit of the event is set to 1.
1393:C:/Users/Utente/Desktop/Tesi/Firmware_Software/DAVE project/S2GLP_Pulsed_Doppler/Libraries/XMCLib/inc\xmc4_scu.h ****  * \par<b>Related APIs:</b><BR>
1394:C:/Users/Utente/Desktop/Tesi/Firmware_Software/DAVE project/S2GLP_Pulsed_Doppler/Libraries/XMCLib/inc\xmc4_scu.h ****  * XMC_SCU_INTERRUPT_EnableNmiRequest(), XMC_SCU_TRAP_ClearStatus() \n\n\n
1395:C:/Users/Utente/Desktop/Tesi/Firmware_Software/DAVE project/S2GLP_Pulsed_Doppler/Libraries/XMCLib/inc\xmc4_scu.h ****  */
1396:C:/Users/Utente/Desktop/Tesi/Firmware_Software/DAVE project/S2GLP_Pulsed_Doppler/Libraries/XMCLib/inc\xmc4_scu.h **** uint32_t XMC_SCU_TRAP_GetStatus(void);  
1397:C:/Users/Utente/Desktop/Tesi/Firmware_Software/DAVE project/S2GLP_Pulsed_Doppler/Libraries/XMCLib/inc\xmc4_scu.h **** 
1398:C:/Users/Utente/Desktop/Tesi/Firmware_Software/DAVE project/S2GLP_Pulsed_Doppler/Libraries/XMCLib/inc\xmc4_scu.h **** /**
1399:C:/Users/Utente/Desktop/Tesi/Firmware_Software/DAVE project/S2GLP_Pulsed_Doppler/Libraries/XMCLib/inc\xmc4_scu.h ****  *
1400:C:/Users/Utente/Desktop/Tesi/Firmware_Software/DAVE project/S2GLP_Pulsed_Doppler/Libraries/XMCLib/inc\xmc4_scu.h ****  * @param trap  The event for which, trap has to be triggered.\n
1401:C:/Users/Utente/Desktop/Tesi/Firmware_Software/DAVE project/S2GLP_Pulsed_Doppler/Libraries/XMCLib/inc\xmc4_scu.h ****  *        \b Range: Use type @ref XMC_SCU_TRAP_t to identify the event.
1402:C:/Users/Utente/Desktop/Tesi/Firmware_Software/DAVE project/S2GLP_Pulsed_Doppler/Libraries/XMCLib/inc\xmc4_scu.h ****  *
1403:C:/Users/Utente/Desktop/Tesi/Firmware_Software/DAVE project/S2GLP_Pulsed_Doppler/Libraries/XMCLib/inc\xmc4_scu.h ****  * @return None
1404:C:/Users/Utente/Desktop/Tesi/Firmware_Software/DAVE project/S2GLP_Pulsed_Doppler/Libraries/XMCLib/inc\xmc4_scu.h ****  *
1405:C:/Users/Utente/Desktop/Tesi/Firmware_Software/DAVE project/S2GLP_Pulsed_Doppler/Libraries/XMCLib/inc\xmc4_scu.h ****  * \par<b>Description</b><br>
1406:C:/Users/Utente/Desktop/Tesi/Firmware_Software/DAVE project/S2GLP_Pulsed_Doppler/Libraries/XMCLib/inc\xmc4_scu.h ****  * Triggers trap generation for the event specified. \n\n
1407:C:/Users/Utente/Desktop/Tesi/Firmware_Software/DAVE project/S2GLP_Pulsed_Doppler/Libraries/XMCLib/inc\xmc4_scu.h ****  * The trap source has to be enabled before invocation of this API. 
1408:C:/Users/Utente/Desktop/Tesi/Firmware_Software/DAVE project/S2GLP_Pulsed_Doppler/Libraries/XMCLib/inc\xmc4_scu.h ****  * Trap event can be triggered by setting its respective bit in the \a TRAPSET register.
1409:C:/Users/Utente/Desktop/Tesi/Firmware_Software/DAVE project/S2GLP_Pulsed_Doppler/Libraries/XMCLib/inc\xmc4_scu.h ****  * Trap event can be configured to generate a non maskable interrupt by using the API XMC_SCU_INTER
1410:C:/Users/Utente/Desktop/Tesi/Firmware_Software/DAVE project/S2GLP_Pulsed_Doppler/Libraries/XMCLib/inc\xmc4_scu.h ****  * It is recommended to use following steps to manually assert a trap event:\n
1411:C:/Users/Utente/Desktop/Tesi/Firmware_Software/DAVE project/S2GLP_Pulsed_Doppler/Libraries/XMCLib/inc\xmc4_scu.h ****  * - Call \a XMC_SCU_TRAP_EnableEvent with desired trap request source ID.\n
1412:C:/Users/Utente/Desktop/Tesi/Firmware_Software/DAVE project/S2GLP_Pulsed_Doppler/Libraries/XMCLib/inc\xmc4_scu.h ****  * - Call \a XMC_SCU_TRAP_SetEvent with same trap request source ID to manually assert a trap event
1413:C:/Users/Utente/Desktop/Tesi/Firmware_Software/DAVE project/S2GLP_Pulsed_Doppler/Libraries/XMCLib/inc\xmc4_scu.h ****  * \par<b>Related APIs:</b><BR>
1414:C:/Users/Utente/Desktop/Tesi/Firmware_Software/DAVE project/S2GLP_Pulsed_Doppler/Libraries/XMCLib/inc\xmc4_scu.h ****  * XMC_SCU_INTERRUPT_EnableNmiRequest(), XMC_SCU_TRAP_GetStatus() \n\n\n
1415:C:/Users/Utente/Desktop/Tesi/Firmware_Software/DAVE project/S2GLP_Pulsed_Doppler/Libraries/XMCLib/inc\xmc4_scu.h ****  */
1416:C:/Users/Utente/Desktop/Tesi/Firmware_Software/DAVE project/S2GLP_Pulsed_Doppler/Libraries/XMCLib/inc\xmc4_scu.h **** void XMC_SCU_TRAP_Trigger(const uint32_t trap);
1417:C:/Users/Utente/Desktop/Tesi/Firmware_Software/DAVE project/S2GLP_Pulsed_Doppler/Libraries/XMCLib/inc\xmc4_scu.h **** 
1418:C:/Users/Utente/Desktop/Tesi/Firmware_Software/DAVE project/S2GLP_Pulsed_Doppler/Libraries/XMCLib/inc\xmc4_scu.h **** /**
1419:C:/Users/Utente/Desktop/Tesi/Firmware_Software/DAVE project/S2GLP_Pulsed_Doppler/Libraries/XMCLib/inc\xmc4_scu.h ****  *
1420:C:/Users/Utente/Desktop/Tesi/Firmware_Software/DAVE project/S2GLP_Pulsed_Doppler/Libraries/XMCLib/inc\xmc4_scu.h ****  * @param peripheral  The peripheral to be reset.\n
1421:C:/Users/Utente/Desktop/Tesi/Firmware_Software/DAVE project/S2GLP_Pulsed_Doppler/Libraries/XMCLib/inc\xmc4_scu.h ****  *        \b Range: Type @ref XMC_SCU_PERIPHERAL_RESET_t enumerates all the peripherals that can be
1422:C:/Users/Utente/Desktop/Tesi/Firmware_Software/DAVE project/S2GLP_Pulsed_Doppler/Libraries/XMCLib/inc\xmc4_scu.h ****  *
1423:C:/Users/Utente/Desktop/Tesi/Firmware_Software/DAVE project/S2GLP_Pulsed_Doppler/Libraries/XMCLib/inc\xmc4_scu.h ****  * @return None
1424:C:/Users/Utente/Desktop/Tesi/Firmware_Software/DAVE project/S2GLP_Pulsed_Doppler/Libraries/XMCLib/inc\xmc4_scu.h ****  *
1425:C:/Users/Utente/Desktop/Tesi/Firmware_Software/DAVE project/S2GLP_Pulsed_Doppler/Libraries/XMCLib/inc\xmc4_scu.h ****  * \par<b>Description</b><br>
1426:C:/Users/Utente/Desktop/Tesi/Firmware_Software/DAVE project/S2GLP_Pulsed_Doppler/Libraries/XMCLib/inc\xmc4_scu.h ****  * Puts the specified peripheral in to reset state. \n\n
1427:C:/Users/Utente/Desktop/Tesi/Firmware_Software/DAVE project/S2GLP_Pulsed_Doppler/Libraries/XMCLib/inc\xmc4_scu.h ****  * The API achieves reset of peripherals by setting the respective bit in the \a PRSET0,  \a PRSET1
1428:C:/Users/Utente/Desktop/Tesi/Firmware_Software/DAVE project/S2GLP_Pulsed_Doppler/Libraries/XMCLib/inc\xmc4_scu.h ****  * register. Status of reset assertion automatically stored in the \a PRSTATn register and can be c
1429:C:/Users/Utente/Desktop/Tesi/Firmware_Software/DAVE project/S2GLP_Pulsed_Doppler/Libraries/XMCLib/inc\xmc4_scu.h ****  * user software to determine the state of the system and for debug purpose.\n
1430:C:/Users/Utente/Desktop/Tesi/Firmware_Software/DAVE project/S2GLP_Pulsed_Doppler/Libraries/XMCLib/inc\xmc4_scu.h ****  * It is recommended to use following steps to assert a peripheral reset:\n
1431:C:/Users/Utente/Desktop/Tesi/Firmware_Software/DAVE project/S2GLP_Pulsed_Doppler/Libraries/XMCLib/inc\xmc4_scu.h ****  * - Call \a XMC_SCU_RESET_AssertPeripheralReset() with desired peripheral identifier.\n
1432:C:/Users/Utente/Desktop/Tesi/Firmware_Software/DAVE project/S2GLP_Pulsed_Doppler/Libraries/XMCLib/inc\xmc4_scu.h ****  * - Call \a XMC_SCU_RESET_IsPeripheralResetAsserted with same peripheral identifier to verify whet
1433:C:/Users/Utente/Desktop/Tesi/Firmware_Software/DAVE project/S2GLP_Pulsed_Doppler/Libraries/XMCLib/inc\xmc4_scu.h ****  * is in reset state.\n
1434:C:/Users/Utente/Desktop/Tesi/Firmware_Software/DAVE project/S2GLP_Pulsed_Doppler/Libraries/XMCLib/inc\xmc4_scu.h ****  * \par<b>Related APIs:</b><BR>
1435:C:/Users/Utente/Desktop/Tesi/Firmware_Software/DAVE project/S2GLP_Pulsed_Doppler/Libraries/XMCLib/inc\xmc4_scu.h ****  * XMC_SCU_RESET_IsPeripheralResetAsserted() \n\n\n
1436:C:/Users/Utente/Desktop/Tesi/Firmware_Software/DAVE project/S2GLP_Pulsed_Doppler/Libraries/XMCLib/inc\xmc4_scu.h ****  */
1437:C:/Users/Utente/Desktop/Tesi/Firmware_Software/DAVE project/S2GLP_Pulsed_Doppler/Libraries/XMCLib/inc\xmc4_scu.h **** void XMC_SCU_RESET_AssertPeripheralReset(const XMC_SCU_PERIPHERAL_RESET_t peripheral);
1438:C:/Users/Utente/Desktop/Tesi/Firmware_Software/DAVE project/S2GLP_Pulsed_Doppler/Libraries/XMCLib/inc\xmc4_scu.h **** 
1439:C:/Users/Utente/Desktop/Tesi/Firmware_Software/DAVE project/S2GLP_Pulsed_Doppler/Libraries/XMCLib/inc\xmc4_scu.h **** /**
1440:C:/Users/Utente/Desktop/Tesi/Firmware_Software/DAVE project/S2GLP_Pulsed_Doppler/Libraries/XMCLib/inc\xmc4_scu.h ****  *
1441:C:/Users/Utente/Desktop/Tesi/Firmware_Software/DAVE project/S2GLP_Pulsed_Doppler/Libraries/XMCLib/inc\xmc4_scu.h ****  * @param peripheral  The peripheral to be moved out of reset state.\n
1442:C:/Users/Utente/Desktop/Tesi/Firmware_Software/DAVE project/S2GLP_Pulsed_Doppler/Libraries/XMCLib/inc\xmc4_scu.h ****  *        \b Range: Type @ref XMC_SCU_PERIPHERAL_RESET_t enumerates all the peripherals that can be
1443:C:/Users/Utente/Desktop/Tesi/Firmware_Software/DAVE project/S2GLP_Pulsed_Doppler/Libraries/XMCLib/inc\xmc4_scu.h ****  *
1444:C:/Users/Utente/Desktop/Tesi/Firmware_Software/DAVE project/S2GLP_Pulsed_Doppler/Libraries/XMCLib/inc\xmc4_scu.h ****  * @return None
1445:C:/Users/Utente/Desktop/Tesi/Firmware_Software/DAVE project/S2GLP_Pulsed_Doppler/Libraries/XMCLib/inc\xmc4_scu.h ****  *
1446:C:/Users/Utente/Desktop/Tesi/Firmware_Software/DAVE project/S2GLP_Pulsed_Doppler/Libraries/XMCLib/inc\xmc4_scu.h ****  * \par<b>Description</b><br>
1447:C:/Users/Utente/Desktop/Tesi/Firmware_Software/DAVE project/S2GLP_Pulsed_Doppler/Libraries/XMCLib/inc\xmc4_scu.h ****  * Enables the specified peripheral by moving it out of reset state.  \n\n
1448:C:/Users/Utente/Desktop/Tesi/Firmware_Software/DAVE project/S2GLP_Pulsed_Doppler/Libraries/XMCLib/inc\xmc4_scu.h ****  * Any peripheral should be moved out of reset state for executing its functionality.
1449:C:/Users/Utente/Desktop/Tesi/Firmware_Software/DAVE project/S2GLP_Pulsed_Doppler/Libraries/XMCLib/inc\xmc4_scu.h ****  * The API enables the peripheral by setting its respective bit in the \a PRCLR0,  \a PRCLR1 or  \a
1450:C:/Users/Utente/Desktop/Tesi/Firmware_Software/DAVE project/S2GLP_Pulsed_Doppler/Libraries/XMCLib/inc\xmc4_scu.h ****  * register. Status of reset deassertion is automatically stored in the \a PRSTATn register and can
1451:C:/Users/Utente/Desktop/Tesi/Firmware_Software/DAVE project/S2GLP_Pulsed_Doppler/Libraries/XMCLib/inc\xmc4_scu.h ****  * the user software to determine the state of the system and for debug purpose.\n
1452:C:/Users/Utente/Desktop/Tesi/Firmware_Software/DAVE project/S2GLP_Pulsed_Doppler/Libraries/XMCLib/inc\xmc4_scu.h ****  * It is recommended to use following steps to deassert a peripheral reset:\n
1453:C:/Users/Utente/Desktop/Tesi/Firmware_Software/DAVE project/S2GLP_Pulsed_Doppler/Libraries/XMCLib/inc\xmc4_scu.h ****  * - Call \a XMC_SCU_RESET_DeassertPeripheralReset() with desired peripheral identifier.\n
1454:C:/Users/Utente/Desktop/Tesi/Firmware_Software/DAVE project/S2GLP_Pulsed_Doppler/Libraries/XMCLib/inc\xmc4_scu.h ****  * - Call \a XMC_SCU_RESET_IsPeripheralResetAsserted() with desired peripheral identifier to verify
1455:C:/Users/Utente/Desktop/Tesi/Firmware_Software/DAVE project/S2GLP_Pulsed_Doppler/Libraries/XMCLib/inc\xmc4_scu.h ****  * has been enabled.\n
1456:C:/Users/Utente/Desktop/Tesi/Firmware_Software/DAVE project/S2GLP_Pulsed_Doppler/Libraries/XMCLib/inc\xmc4_scu.h ****  * \par<b>Related APIs:</b><BR>
1457:C:/Users/Utente/Desktop/Tesi/Firmware_Software/DAVE project/S2GLP_Pulsed_Doppler/Libraries/XMCLib/inc\xmc4_scu.h ****  * XMC_SCU_RESET_AssertPeripheralReset() \n\n\n
1458:C:/Users/Utente/Desktop/Tesi/Firmware_Software/DAVE project/S2GLP_Pulsed_Doppler/Libraries/XMCLib/inc\xmc4_scu.h ****  */
1459:C:/Users/Utente/Desktop/Tesi/Firmware_Software/DAVE project/S2GLP_Pulsed_Doppler/Libraries/XMCLib/inc\xmc4_scu.h **** void XMC_SCU_RESET_DeassertPeripheralReset(const XMC_SCU_PERIPHERAL_RESET_t peripheral);
1460:C:/Users/Utente/Desktop/Tesi/Firmware_Software/DAVE project/S2GLP_Pulsed_Doppler/Libraries/XMCLib/inc\xmc4_scu.h **** 
1461:C:/Users/Utente/Desktop/Tesi/Firmware_Software/DAVE project/S2GLP_Pulsed_Doppler/Libraries/XMCLib/inc\xmc4_scu.h **** /**
1462:C:/Users/Utente/Desktop/Tesi/Firmware_Software/DAVE project/S2GLP_Pulsed_Doppler/Libraries/XMCLib/inc\xmc4_scu.h ****  *
1463:C:/Users/Utente/Desktop/Tesi/Firmware_Software/DAVE project/S2GLP_Pulsed_Doppler/Libraries/XMCLib/inc\xmc4_scu.h ****  * @param peripheral  The peripheral, whose reset status has to be checked.\n
1464:C:/Users/Utente/Desktop/Tesi/Firmware_Software/DAVE project/S2GLP_Pulsed_Doppler/Libraries/XMCLib/inc\xmc4_scu.h ****  *        \b Range: Type @ref XMC_SCU_PERIPHERAL_RESET_t enumerates all the peripherals.
1465:C:/Users/Utente/Desktop/Tesi/Firmware_Software/DAVE project/S2GLP_Pulsed_Doppler/Libraries/XMCLib/inc\xmc4_scu.h ****  *
1466:C:/Users/Utente/Desktop/Tesi/Firmware_Software/DAVE project/S2GLP_Pulsed_Doppler/Libraries/XMCLib/inc\xmc4_scu.h ****  * @return bool  Status of peripheral reset. \n
1467:C:/Users/Utente/Desktop/Tesi/Firmware_Software/DAVE project/S2GLP_Pulsed_Doppler/Libraries/XMCLib/inc\xmc4_scu.h ****  *               \b Range: \a true if peripheral is in reset state. \a false if peripheral is enabl
1468:C:/Users/Utente/Desktop/Tesi/Firmware_Software/DAVE project/S2GLP_Pulsed_Doppler/Libraries/XMCLib/inc\xmc4_scu.h ****  *
1469:C:/Users/Utente/Desktop/Tesi/Firmware_Software/DAVE project/S2GLP_Pulsed_Doppler/Libraries/XMCLib/inc\xmc4_scu.h ****  * \par<b>Description</b><br>
1470:C:/Users/Utente/Desktop/Tesi/Firmware_Software/DAVE project/S2GLP_Pulsed_Doppler/Libraries/XMCLib/inc\xmc4_scu.h ****  * Checks the reset status of the selected peripheral.\n\n
1471:C:/Users/Utente/Desktop/Tesi/Firmware_Software/DAVE project/S2GLP_Pulsed_Doppler/Libraries/XMCLib/inc\xmc4_scu.h ****  * The API reads the reset status from \a PRSTATn register. Returns true if the peripheral is in
1472:C:/Users/Utente/Desktop/Tesi/Firmware_Software/DAVE project/S2GLP_Pulsed_Doppler/Libraries/XMCLib/inc\xmc4_scu.h ****  * reset state. On power up of the device, all the peripherals will be in reset state. 
1473:C:/Users/Utente/Desktop/Tesi/Firmware_Software/DAVE project/S2GLP_Pulsed_Doppler/Libraries/XMCLib/inc\xmc4_scu.h ****  * If the peripheral is enabled, \a false will be returned as the status.
1474:C:/Users/Utente/Desktop/Tesi/Firmware_Software/DAVE project/S2GLP_Pulsed_Doppler/Libraries/XMCLib/inc\xmc4_scu.h ****  * \par<b>Related APIs:</b><BR>
1475:C:/Users/Utente/Desktop/Tesi/Firmware_Software/DAVE project/S2GLP_Pulsed_Doppler/Libraries/XMCLib/inc\xmc4_scu.h ****  * XMC_SCU_RESET_AssertPeripheralReset(), XMC_SCU_RESET_DeassertPeripheralReset() \n\n\n 
1476:C:/Users/Utente/Desktop/Tesi/Firmware_Software/DAVE project/S2GLP_Pulsed_Doppler/Libraries/XMCLib/inc\xmc4_scu.h ****  */
1477:C:/Users/Utente/Desktop/Tesi/Firmware_Software/DAVE project/S2GLP_Pulsed_Doppler/Libraries/XMCLib/inc\xmc4_scu.h **** bool XMC_SCU_RESET_IsPeripheralResetAsserted(const XMC_SCU_PERIPHERAL_RESET_t peripheral);
1478:C:/Users/Utente/Desktop/Tesi/Firmware_Software/DAVE project/S2GLP_Pulsed_Doppler/Libraries/XMCLib/inc\xmc4_scu.h ****  
1479:C:/Users/Utente/Desktop/Tesi/Firmware_Software/DAVE project/S2GLP_Pulsed_Doppler/Libraries/XMCLib/inc\xmc4_scu.h **** /**
1480:C:/Users/Utente/Desktop/Tesi/Firmware_Software/DAVE project/S2GLP_Pulsed_Doppler/Libraries/XMCLib/inc\xmc4_scu.h ****  *
1481:C:/Users/Utente/Desktop/Tesi/Firmware_Software/DAVE project/S2GLP_Pulsed_Doppler/Libraries/XMCLib/inc\xmc4_scu.h ****  * @param memory  The on-chip RAM type, for which the parity error status has to be cleared.\n
1482:C:/Users/Utente/Desktop/Tesi/Firmware_Software/DAVE project/S2GLP_Pulsed_Doppler/Libraries/XMCLib/inc\xmc4_scu.h ****  *          \b Range: Use type @ref XMC_SCU_PARITY_t to identify the on-chip RAM type. Multiple 
1483:C:/Users/Utente/Desktop/Tesi/Firmware_Software/DAVE project/S2GLP_Pulsed_Doppler/Libraries/XMCLib/inc\xmc4_scu.h ****  *          memory status bits can be cleared by using the \a OR operation.
1484:C:/Users/Utente/Desktop/Tesi/Firmware_Software/DAVE project/S2GLP_Pulsed_Doppler/Libraries/XMCLib/inc\xmc4_scu.h ****  *
1485:C:/Users/Utente/Desktop/Tesi/Firmware_Software/DAVE project/S2GLP_Pulsed_Doppler/Libraries/XMCLib/inc\xmc4_scu.h ****  * @return None
1486:C:/Users/Utente/Desktop/Tesi/Firmware_Software/DAVE project/S2GLP_Pulsed_Doppler/Libraries/XMCLib/inc\xmc4_scu.h ****  *
1487:C:/Users/Utente/Desktop/Tesi/Firmware_Software/DAVE project/S2GLP_Pulsed_Doppler/Libraries/XMCLib/inc\xmc4_scu.h ****  * \par<b>Description</b><br>
1488:C:/Users/Utente/Desktop/Tesi/Firmware_Software/DAVE project/S2GLP_Pulsed_Doppler/Libraries/XMCLib/inc\xmc4_scu.h ****  * Clears the parity error status bit. \n\n
1489:C:/Users/Utente/Desktop/Tesi/Firmware_Software/DAVE project/S2GLP_Pulsed_Doppler/Libraries/XMCLib/inc\xmc4_scu.h ****  * When a memory parity error is detected using the status bits in \a PEFLAG register. It has to 
1490:C:/Users/Utente/Desktop/Tesi/Firmware_Software/DAVE project/S2GLP_Pulsed_Doppler/Libraries/XMCLib/inc\xmc4_scu.h ****  * be cleared by software to detect the parity error from the same memory next time.
1491:C:/Users/Utente/Desktop/Tesi/Firmware_Software/DAVE project/S2GLP_Pulsed_Doppler/Libraries/XMCLib/inc\xmc4_scu.h ****  * The API clears the parity error status bit of the selected peripheral by setting the 
1492:C:/Users/Utente/Desktop/Tesi/Firmware_Software/DAVE project/S2GLP_Pulsed_Doppler/Libraries/XMCLib/inc\xmc4_scu.h ****  * respective bit in the \a PEFLAG register. Status of multiple memory parity errors 
1493:C:/Users/Utente/Desktop/Tesi/Firmware_Software/DAVE project/S2GLP_Pulsed_Doppler/Libraries/XMCLib/inc\xmc4_scu.h ****  * can be cleared by combining the enum values using \a OR operation.
1494:C:/Users/Utente/Desktop/Tesi/Firmware_Software/DAVE project/S2GLP_Pulsed_Doppler/Libraries/XMCLib/inc\xmc4_scu.h ****  * \par<b>Related APIs:</b><BR>
1495:C:/Users/Utente/Desktop/Tesi/Firmware_Software/DAVE project/S2GLP_Pulsed_Doppler/Libraries/XMCLib/inc\xmc4_scu.h ****  * XMC_SCU_PARITY_GetStatus(), XMC_SCU_PARITY_Enable(), XMC_SCU_PARITY_EnableTrapGeneration() \n\n\
1496:C:/Users/Utente/Desktop/Tesi/Firmware_Software/DAVE project/S2GLP_Pulsed_Doppler/Libraries/XMCLib/inc\xmc4_scu.h ****  */
1497:C:/Users/Utente/Desktop/Tesi/Firmware_Software/DAVE project/S2GLP_Pulsed_Doppler/Libraries/XMCLib/inc\xmc4_scu.h **** void XMC_SCU_PARITY_ClearStatus(const uint32_t memory);
1498:C:/Users/Utente/Desktop/Tesi/Firmware_Software/DAVE project/S2GLP_Pulsed_Doppler/Libraries/XMCLib/inc\xmc4_scu.h **** 
1499:C:/Users/Utente/Desktop/Tesi/Firmware_Software/DAVE project/S2GLP_Pulsed_Doppler/Libraries/XMCLib/inc\xmc4_scu.h **** /**
1500:C:/Users/Utente/Desktop/Tesi/Firmware_Software/DAVE project/S2GLP_Pulsed_Doppler/Libraries/XMCLib/inc\xmc4_scu.h ****  *
1501:C:/Users/Utente/Desktop/Tesi/Firmware_Software/DAVE project/S2GLP_Pulsed_Doppler/Libraries/XMCLib/inc\xmc4_scu.h ****  * @param memory  The on-chip RAM type, for which the parity error checking has to be enabled.\n
1502:C:/Users/Utente/Desktop/Tesi/Firmware_Software/DAVE project/S2GLP_Pulsed_Doppler/Libraries/XMCLib/inc\xmc4_scu.h ****  *          \b Range: Use type @ref XMC_SCU_PARITY_t to identify the on-chip RAM type. Multiple 
1503:C:/Users/Utente/Desktop/Tesi/Firmware_Software/DAVE project/S2GLP_Pulsed_Doppler/Libraries/XMCLib/inc\xmc4_scu.h ****  *          memory types can be combined using the \a OR operation.
1504:C:/Users/Utente/Desktop/Tesi/Firmware_Software/DAVE project/S2GLP_Pulsed_Doppler/Libraries/XMCLib/inc\xmc4_scu.h ****  *
1505:C:/Users/Utente/Desktop/Tesi/Firmware_Software/DAVE project/S2GLP_Pulsed_Doppler/Libraries/XMCLib/inc\xmc4_scu.h ****  * @return None  
1506:C:/Users/Utente/Desktop/Tesi/Firmware_Software/DAVE project/S2GLP_Pulsed_Doppler/Libraries/XMCLib/inc\xmc4_scu.h ****  *
1507:C:/Users/Utente/Desktop/Tesi/Firmware_Software/DAVE project/S2GLP_Pulsed_Doppler/Libraries/XMCLib/inc\xmc4_scu.h ****  * \par<b>Description</b><br>
1508:C:/Users/Utente/Desktop/Tesi/Firmware_Software/DAVE project/S2GLP_Pulsed_Doppler/Libraries/XMCLib/inc\xmc4_scu.h ****  * Enables parity error checking for the selected on-chip RAM type.\n\n
1509:C:/Users/Utente/Desktop/Tesi/Firmware_Software/DAVE project/S2GLP_Pulsed_Doppler/Libraries/XMCLib/inc\xmc4_scu.h ****  * Parity error checking can be enabled by setting respective bits in the \a PEEN register.
1510:C:/Users/Utente/Desktop/Tesi/Firmware_Software/DAVE project/S2GLP_Pulsed_Doppler/Libraries/XMCLib/inc\xmc4_scu.h ****  * Additionally parity error can be configured to generate trap when the error is detected,
1511:C:/Users/Utente/Desktop/Tesi/Firmware_Software/DAVE project/S2GLP_Pulsed_Doppler/Libraries/XMCLib/inc\xmc4_scu.h ****  * using the API XMC_SCU_PARITY_EnableTrapGeneration(). Such a trap can be further configured
1512:C:/Users/Utente/Desktop/Tesi/Firmware_Software/DAVE project/S2GLP_Pulsed_Doppler/Libraries/XMCLib/inc\xmc4_scu.h ****  * to generate non maskable interrupt(NMI) using the API XMC_SCU_INTERRUPT_EnableNmiRequest().
1513:C:/Users/Utente/Desktop/Tesi/Firmware_Software/DAVE project/S2GLP_Pulsed_Doppler/Libraries/XMCLib/inc\xmc4_scu.h ****  * \par<b>Related APIs:</b><BR>
1514:C:/Users/Utente/Desktop/Tesi/Firmware_Software/DAVE project/S2GLP_Pulsed_Doppler/Libraries/XMCLib/inc\xmc4_scu.h ****  * XMC_SCU_PARITY_EnableTrapGeneration(), XMC_SCU_INTERRUPT_EnableNmiRequest() \n\n\n
1515:C:/Users/Utente/Desktop/Tesi/Firmware_Software/DAVE project/S2GLP_Pulsed_Doppler/Libraries/XMCLib/inc\xmc4_scu.h ****  */
1516:C:/Users/Utente/Desktop/Tesi/Firmware_Software/DAVE project/S2GLP_Pulsed_Doppler/Libraries/XMCLib/inc\xmc4_scu.h **** void XMC_SCU_PARITY_Enable(const uint32_t memory);
1517:C:/Users/Utente/Desktop/Tesi/Firmware_Software/DAVE project/S2GLP_Pulsed_Doppler/Libraries/XMCLib/inc\xmc4_scu.h **** 
1518:C:/Users/Utente/Desktop/Tesi/Firmware_Software/DAVE project/S2GLP_Pulsed_Doppler/Libraries/XMCLib/inc\xmc4_scu.h **** /**
1519:C:/Users/Utente/Desktop/Tesi/Firmware_Software/DAVE project/S2GLP_Pulsed_Doppler/Libraries/XMCLib/inc\xmc4_scu.h ****  *
1520:C:/Users/Utente/Desktop/Tesi/Firmware_Software/DAVE project/S2GLP_Pulsed_Doppler/Libraries/XMCLib/inc\xmc4_scu.h ****  * @param memory   The on-chip RAM type, for which the parity error checking has to be disabled.\n
1521:C:/Users/Utente/Desktop/Tesi/Firmware_Software/DAVE project/S2GLP_Pulsed_Doppler/Libraries/XMCLib/inc\xmc4_scu.h ****  *          \b Range: Use type @ref XMC_SCU_PARITY_t to identify the on-chip RAM type. Multiple 
1522:C:/Users/Utente/Desktop/Tesi/Firmware_Software/DAVE project/S2GLP_Pulsed_Doppler/Libraries/XMCLib/inc\xmc4_scu.h ****  *          memory types can be combined using the \a OR operation.
1523:C:/Users/Utente/Desktop/Tesi/Firmware_Software/DAVE project/S2GLP_Pulsed_Doppler/Libraries/XMCLib/inc\xmc4_scu.h ****  *
1524:C:/Users/Utente/Desktop/Tesi/Firmware_Software/DAVE project/S2GLP_Pulsed_Doppler/Libraries/XMCLib/inc\xmc4_scu.h ****  * @return None  
1525:C:/Users/Utente/Desktop/Tesi/Firmware_Software/DAVE project/S2GLP_Pulsed_Doppler/Libraries/XMCLib/inc\xmc4_scu.h ****  *
1526:C:/Users/Utente/Desktop/Tesi/Firmware_Software/DAVE project/S2GLP_Pulsed_Doppler/Libraries/XMCLib/inc\xmc4_scu.h ****  * \par<b>Description</b><br>
1527:C:/Users/Utente/Desktop/Tesi/Firmware_Software/DAVE project/S2GLP_Pulsed_Doppler/Libraries/XMCLib/inc\xmc4_scu.h ****  * Disables parity error checking for the selected on-chip RAM type.\n\n
1528:C:/Users/Utente/Desktop/Tesi/Firmware_Software/DAVE project/S2GLP_Pulsed_Doppler/Libraries/XMCLib/inc\xmc4_scu.h ****  * Parity error detection can be disabled by clearing the respective bit in the \a PEEN register.
1529:C:/Users/Utente/Desktop/Tesi/Firmware_Software/DAVE project/S2GLP_Pulsed_Doppler/Libraries/XMCLib/inc\xmc4_scu.h ****  * \par<b>Related APIs:</b><BR>
1530:C:/Users/Utente/Desktop/Tesi/Firmware_Software/DAVE project/S2GLP_Pulsed_Doppler/Libraries/XMCLib/inc\xmc4_scu.h ****  * XMC_SCU_PARITY_Enable(), XMC_SCU_PARITY_DisableTrapGeneration() \n\n\n
1531:C:/Users/Utente/Desktop/Tesi/Firmware_Software/DAVE project/S2GLP_Pulsed_Doppler/Libraries/XMCLib/inc\xmc4_scu.h ****  */
1532:C:/Users/Utente/Desktop/Tesi/Firmware_Software/DAVE project/S2GLP_Pulsed_Doppler/Libraries/XMCLib/inc\xmc4_scu.h **** void XMC_SCU_PARITY_Disable(const uint32_t memory);
1533:C:/Users/Utente/Desktop/Tesi/Firmware_Software/DAVE project/S2GLP_Pulsed_Doppler/Libraries/XMCLib/inc\xmc4_scu.h **** 
1534:C:/Users/Utente/Desktop/Tesi/Firmware_Software/DAVE project/S2GLP_Pulsed_Doppler/Libraries/XMCLib/inc\xmc4_scu.h **** /**
1535:C:/Users/Utente/Desktop/Tesi/Firmware_Software/DAVE project/S2GLP_Pulsed_Doppler/Libraries/XMCLib/inc\xmc4_scu.h ****  *
1536:C:/Users/Utente/Desktop/Tesi/Firmware_Software/DAVE project/S2GLP_Pulsed_Doppler/Libraries/XMCLib/inc\xmc4_scu.h ****  * @param memory  The on-chip RAM type, for which the parity error trap generation has to be enable
1537:C:/Users/Utente/Desktop/Tesi/Firmware_Software/DAVE project/S2GLP_Pulsed_Doppler/Libraries/XMCLib/inc\xmc4_scu.h ****  *          \b Range: Use type @ref XMC_SCU_PARITY_t to identify the on-chip RAM type. Multiple 
1538:C:/Users/Utente/Desktop/Tesi/Firmware_Software/DAVE project/S2GLP_Pulsed_Doppler/Libraries/XMCLib/inc\xmc4_scu.h ****  *          memory types can be combined using the \a OR operation.
1539:C:/Users/Utente/Desktop/Tesi/Firmware_Software/DAVE project/S2GLP_Pulsed_Doppler/Libraries/XMCLib/inc\xmc4_scu.h ****  *
1540:C:/Users/Utente/Desktop/Tesi/Firmware_Software/DAVE project/S2GLP_Pulsed_Doppler/Libraries/XMCLib/inc\xmc4_scu.h ****  * @return None  
1541:C:/Users/Utente/Desktop/Tesi/Firmware_Software/DAVE project/S2GLP_Pulsed_Doppler/Libraries/XMCLib/inc\xmc4_scu.h ****  *
1542:C:/Users/Utente/Desktop/Tesi/Firmware_Software/DAVE project/S2GLP_Pulsed_Doppler/Libraries/XMCLib/inc\xmc4_scu.h ****  * \par<b>Description</b><br>
1543:C:/Users/Utente/Desktop/Tesi/Firmware_Software/DAVE project/S2GLP_Pulsed_Doppler/Libraries/XMCLib/inc\xmc4_scu.h ****  * Enables trap assertion for the parity error source.\n\n
1544:C:/Users/Utente/Desktop/Tesi/Firmware_Software/DAVE project/S2GLP_Pulsed_Doppler/Libraries/XMCLib/inc\xmc4_scu.h ****  * Parity error detection for different types of on-chip RAM can generate trap.
1545:C:/Users/Utente/Desktop/Tesi/Firmware_Software/DAVE project/S2GLP_Pulsed_Doppler/Libraries/XMCLib/inc\xmc4_scu.h ****  * Trap assertion for parity error can be individually enabled by setting the respective bits
1546:C:/Users/Utente/Desktop/Tesi/Firmware_Software/DAVE project/S2GLP_Pulsed_Doppler/Libraries/XMCLib/inc\xmc4_scu.h ****  * in the \a PETE register. The generated trap can be additionally configured to generate
1547:C:/Users/Utente/Desktop/Tesi/Firmware_Software/DAVE project/S2GLP_Pulsed_Doppler/Libraries/XMCLib/inc\xmc4_scu.h ****  * non maskable interrupt(NMI) using the API XMC_SCU_INTERRUPT_EnableNmiRequest().
1548:C:/Users/Utente/Desktop/Tesi/Firmware_Software/DAVE project/S2GLP_Pulsed_Doppler/Libraries/XMCLib/inc\xmc4_scu.h ****  * \par<b>Related APIs:</b><BR>
1549:C:/Users/Utente/Desktop/Tesi/Firmware_Software/DAVE project/S2GLP_Pulsed_Doppler/Libraries/XMCLib/inc\xmc4_scu.h ****  * XMC_SCU_INTERRUPT_EnableNmiRequest(), XMC_SCU_PARITY_DisableTrapGeneration() \n\n\n
1550:C:/Users/Utente/Desktop/Tesi/Firmware_Software/DAVE project/S2GLP_Pulsed_Doppler/Libraries/XMCLib/inc\xmc4_scu.h ****  */
1551:C:/Users/Utente/Desktop/Tesi/Firmware_Software/DAVE project/S2GLP_Pulsed_Doppler/Libraries/XMCLib/inc\xmc4_scu.h **** void XMC_SCU_PARITY_EnableTrapGeneration(const uint32_t memory);
1552:C:/Users/Utente/Desktop/Tesi/Firmware_Software/DAVE project/S2GLP_Pulsed_Doppler/Libraries/XMCLib/inc\xmc4_scu.h **** 
1553:C:/Users/Utente/Desktop/Tesi/Firmware_Software/DAVE project/S2GLP_Pulsed_Doppler/Libraries/XMCLib/inc\xmc4_scu.h **** /**
1554:C:/Users/Utente/Desktop/Tesi/Firmware_Software/DAVE project/S2GLP_Pulsed_Doppler/Libraries/XMCLib/inc\xmc4_scu.h ****  *
1555:C:/Users/Utente/Desktop/Tesi/Firmware_Software/DAVE project/S2GLP_Pulsed_Doppler/Libraries/XMCLib/inc\xmc4_scu.h ****  * @param memory  The on-chip RAM type, for which the parity error trap generation has to be disabl
1556:C:/Users/Utente/Desktop/Tesi/Firmware_Software/DAVE project/S2GLP_Pulsed_Doppler/Libraries/XMCLib/inc\xmc4_scu.h ****  *          \b Range: Use type @ref XMC_SCU_PARITY_t to identify the on-chip RAM type. Multiple 
1557:C:/Users/Utente/Desktop/Tesi/Firmware_Software/DAVE project/S2GLP_Pulsed_Doppler/Libraries/XMCLib/inc\xmc4_scu.h ****  *          memory types can be combined using the \a OR operation.
1558:C:/Users/Utente/Desktop/Tesi/Firmware_Software/DAVE project/S2GLP_Pulsed_Doppler/Libraries/XMCLib/inc\xmc4_scu.h ****  *
1559:C:/Users/Utente/Desktop/Tesi/Firmware_Software/DAVE project/S2GLP_Pulsed_Doppler/Libraries/XMCLib/inc\xmc4_scu.h ****  * @return None  
1560:C:/Users/Utente/Desktop/Tesi/Firmware_Software/DAVE project/S2GLP_Pulsed_Doppler/Libraries/XMCLib/inc\xmc4_scu.h ****  *
1561:C:/Users/Utente/Desktop/Tesi/Firmware_Software/DAVE project/S2GLP_Pulsed_Doppler/Libraries/XMCLib/inc\xmc4_scu.h ****  * \par<b>Description</b><br>
1562:C:/Users/Utente/Desktop/Tesi/Firmware_Software/DAVE project/S2GLP_Pulsed_Doppler/Libraries/XMCLib/inc\xmc4_scu.h ****  * Disables the assertion of trap for the parity error source.\n\n
1563:C:/Users/Utente/Desktop/Tesi/Firmware_Software/DAVE project/S2GLP_Pulsed_Doppler/Libraries/XMCLib/inc\xmc4_scu.h ****  * Trap assertion can be disabled by clearing the respective bit of the RAM type in the \a PETE reg
1564:C:/Users/Utente/Desktop/Tesi/Firmware_Software/DAVE project/S2GLP_Pulsed_Doppler/Libraries/XMCLib/inc\xmc4_scu.h ****  *
1565:C:/Users/Utente/Desktop/Tesi/Firmware_Software/DAVE project/S2GLP_Pulsed_Doppler/Libraries/XMCLib/inc\xmc4_scu.h ****  * \par<b>Related APIs:</b><BR>
1566:C:/Users/Utente/Desktop/Tesi/Firmware_Software/DAVE project/S2GLP_Pulsed_Doppler/Libraries/XMCLib/inc\xmc4_scu.h ****  * XMC_SCU_PARITY_EnableTrapGeneration() \n\n\n
1567:C:/Users/Utente/Desktop/Tesi/Firmware_Software/DAVE project/S2GLP_Pulsed_Doppler/Libraries/XMCLib/inc\xmc4_scu.h ****  */
1568:C:/Users/Utente/Desktop/Tesi/Firmware_Software/DAVE project/S2GLP_Pulsed_Doppler/Libraries/XMCLib/inc\xmc4_scu.h **** void XMC_SCU_PARITY_DisableTrapGeneration(const uint32_t memory);
1569:C:/Users/Utente/Desktop/Tesi/Firmware_Software/DAVE project/S2GLP_Pulsed_Doppler/Libraries/XMCLib/inc\xmc4_scu.h **** 
1570:C:/Users/Utente/Desktop/Tesi/Firmware_Software/DAVE project/S2GLP_Pulsed_Doppler/Libraries/XMCLib/inc\xmc4_scu.h **** /**
1571:C:/Users/Utente/Desktop/Tesi/Firmware_Software/DAVE project/S2GLP_Pulsed_Doppler/Libraries/XMCLib/inc\xmc4_scu.h ****  *
1572:C:/Users/Utente/Desktop/Tesi/Firmware_Software/DAVE project/S2GLP_Pulsed_Doppler/Libraries/XMCLib/inc\xmc4_scu.h ****  * @return uint32_t  Status of parity error detection for the on-chip RAM modules.\n
1573:C:/Users/Utente/Desktop/Tesi/Firmware_Software/DAVE project/S2GLP_Pulsed_Doppler/Libraries/XMCLib/inc\xmc4_scu.h ****  *          \b Range: Use type @ref XMC_SCU_PARITY_t to get the bit mask of each RAM module type.
1574:C:/Users/Utente/Desktop/Tesi/Firmware_Software/DAVE project/S2GLP_Pulsed_Doppler/Libraries/XMCLib/inc\xmc4_scu.h ****  *
1575:C:/Users/Utente/Desktop/Tesi/Firmware_Software/DAVE project/S2GLP_Pulsed_Doppler/Libraries/XMCLib/inc\xmc4_scu.h ****  * \par<b>Description</b><br>
1576:C:/Users/Utente/Desktop/Tesi/Firmware_Software/DAVE project/S2GLP_Pulsed_Doppler/Libraries/XMCLib/inc\xmc4_scu.h ****  * Provides the status of parity error detection for the on-chip RAM modules.\n\n
1577:C:/Users/Utente/Desktop/Tesi/Firmware_Software/DAVE project/S2GLP_Pulsed_Doppler/Libraries/XMCLib/inc\xmc4_scu.h ****  * Parity error status information is obtained from the \a PEFLAG register.
1578:C:/Users/Utente/Desktop/Tesi/Firmware_Software/DAVE project/S2GLP_Pulsed_Doppler/Libraries/XMCLib/inc\xmc4_scu.h ****  * If a particular RAM module has parity error, its respective bit field will be set to 1 in the 
1579:C:/Users/Utente/Desktop/Tesi/Firmware_Software/DAVE project/S2GLP_Pulsed_Doppler/Libraries/XMCLib/inc\xmc4_scu.h ****  * returned value. A check for the status of a particular RAM module can be done by
1580:C:/Users/Utente/Desktop/Tesi/Firmware_Software/DAVE project/S2GLP_Pulsed_Doppler/Libraries/XMCLib/inc\xmc4_scu.h ****  * masking the returned value with the RAM module identifier from the type @ref XMC_SCU_PARITY_t.
1581:C:/Users/Utente/Desktop/Tesi/Firmware_Software/DAVE project/S2GLP_Pulsed_Doppler/Libraries/XMCLib/inc\xmc4_scu.h ****  * \par<b>Related APIs:</b><BR>
1582:C:/Users/Utente/Desktop/Tesi/Firmware_Software/DAVE project/S2GLP_Pulsed_Doppler/Libraries/XMCLib/inc\xmc4_scu.h ****  * XMC_SCU_PARITY_ClearStatus() \n\n\n
1583:C:/Users/Utente/Desktop/Tesi/Firmware_Software/DAVE project/S2GLP_Pulsed_Doppler/Libraries/XMCLib/inc\xmc4_scu.h ****  */
1584:C:/Users/Utente/Desktop/Tesi/Firmware_Software/DAVE project/S2GLP_Pulsed_Doppler/Libraries/XMCLib/inc\xmc4_scu.h **** uint32_t XMC_SCU_PARITY_GetStatus(void);  
1585:C:/Users/Utente/Desktop/Tesi/Firmware_Software/DAVE project/S2GLP_Pulsed_Doppler/Libraries/XMCLib/inc\xmc4_scu.h **** 
1586:C:/Users/Utente/Desktop/Tesi/Firmware_Software/DAVE project/S2GLP_Pulsed_Doppler/Libraries/XMCLib/inc\xmc4_scu.h **** /**
1587:C:/Users/Utente/Desktop/Tesi/Firmware_Software/DAVE project/S2GLP_Pulsed_Doppler/Libraries/XMCLib/inc\xmc4_scu.h ****  *
1588:C:/Users/Utente/Desktop/Tesi/Firmware_Software/DAVE project/S2GLP_Pulsed_Doppler/Libraries/XMCLib/inc\xmc4_scu.h ****  * @param clock  Peripheral for which the clock has to be enabled. \n
1589:C:/Users/Utente/Desktop/Tesi/Firmware_Software/DAVE project/S2GLP_Pulsed_Doppler/Libraries/XMCLib/inc\xmc4_scu.h ****  *        \b Range: Use type @ref XMC_SCU_CLOCK_t to select the peripheral.
1590:C:/Users/Utente/Desktop/Tesi/Firmware_Software/DAVE project/S2GLP_Pulsed_Doppler/Libraries/XMCLib/inc\xmc4_scu.h ****  *
1591:C:/Users/Utente/Desktop/Tesi/Firmware_Software/DAVE project/S2GLP_Pulsed_Doppler/Libraries/XMCLib/inc\xmc4_scu.h ****  * @return None
1592:C:/Users/Utente/Desktop/Tesi/Firmware_Software/DAVE project/S2GLP_Pulsed_Doppler/Libraries/XMCLib/inc\xmc4_scu.h ****  *
1593:C:/Users/Utente/Desktop/Tesi/Firmware_Software/DAVE project/S2GLP_Pulsed_Doppler/Libraries/XMCLib/inc\xmc4_scu.h ****  * \par<b>Description</b><br>
1594:C:/Users/Utente/Desktop/Tesi/Firmware_Software/DAVE project/S2GLP_Pulsed_Doppler/Libraries/XMCLib/inc\xmc4_scu.h ****  * Enables the source clock for selected peripheral.\n\n
1595:C:/Users/Utente/Desktop/Tesi/Firmware_Software/DAVE project/S2GLP_Pulsed_Doppler/Libraries/XMCLib/inc\xmc4_scu.h ****  * The various outputs of Clock Generation Unit (CGU) can be individually enabled by setting the pe
1596:C:/Users/Utente/Desktop/Tesi/Firmware_Software/DAVE project/S2GLP_Pulsed_Doppler/Libraries/XMCLib/inc\xmc4_scu.h ****  * specific bit in the \a CLKSET register.\n
1597:C:/Users/Utente/Desktop/Tesi/Firmware_Software/DAVE project/S2GLP_Pulsed_Doppler/Libraries/XMCLib/inc\xmc4_scu.h ****  * It is recommended to use following steps to verify whether a source clock of peripheral is enabl
1598:C:/Users/Utente/Desktop/Tesi/Firmware_Software/DAVE project/S2GLP_Pulsed_Doppler/Libraries/XMCLib/inc\xmc4_scu.h ****  * - Call \a XMC_SCU_CLOCK_EnableClock() with desired peripheral identifier.\n
1599:C:/Users/Utente/Desktop/Tesi/Firmware_Software/DAVE project/S2GLP_Pulsed_Doppler/Libraries/XMCLib/inc\xmc4_scu.h ****  * - Call \a XMC_SCU_CLOCK_IsClockEnabled() with same peripheral identifier to verify whether the c
1600:C:/Users/Utente/Desktop/Tesi/Firmware_Software/DAVE project/S2GLP_Pulsed_Doppler/Libraries/XMCLib/inc\xmc4_scu.h ****  * \par<b>Related APIs:</b><BR>
1601:C:/Users/Utente/Desktop/Tesi/Firmware_Software/DAVE project/S2GLP_Pulsed_Doppler/Libraries/XMCLib/inc\xmc4_scu.h ****  * XMC_SCU_CLOCK_DisableClock(), XMC_SCU_RESET_DeassertPeripheralReset() \n\n\n
1602:C:/Users/Utente/Desktop/Tesi/Firmware_Software/DAVE project/S2GLP_Pulsed_Doppler/Libraries/XMCLib/inc\xmc4_scu.h ****  */
1603:C:/Users/Utente/Desktop/Tesi/Firmware_Software/DAVE project/S2GLP_Pulsed_Doppler/Libraries/XMCLib/inc\xmc4_scu.h **** void XMC_SCU_CLOCK_EnableClock(const XMC_SCU_CLOCK_t clock);
1604:C:/Users/Utente/Desktop/Tesi/Firmware_Software/DAVE project/S2GLP_Pulsed_Doppler/Libraries/XMCLib/inc\xmc4_scu.h **** 
1605:C:/Users/Utente/Desktop/Tesi/Firmware_Software/DAVE project/S2GLP_Pulsed_Doppler/Libraries/XMCLib/inc\xmc4_scu.h **** /**
1606:C:/Users/Utente/Desktop/Tesi/Firmware_Software/DAVE project/S2GLP_Pulsed_Doppler/Libraries/XMCLib/inc\xmc4_scu.h ****  *
1607:C:/Users/Utente/Desktop/Tesi/Firmware_Software/DAVE project/S2GLP_Pulsed_Doppler/Libraries/XMCLib/inc\xmc4_scu.h ****  * @param clock  Peripheral for which the clock has to be disabled. \n
1608:C:/Users/Utente/Desktop/Tesi/Firmware_Software/DAVE project/S2GLP_Pulsed_Doppler/Libraries/XMCLib/inc\xmc4_scu.h ****  *        \b Range: Use type @ref XMC_SCU_CLOCK_t to select the peripheral.
1609:C:/Users/Utente/Desktop/Tesi/Firmware_Software/DAVE project/S2GLP_Pulsed_Doppler/Libraries/XMCLib/inc\xmc4_scu.h ****  *
1610:C:/Users/Utente/Desktop/Tesi/Firmware_Software/DAVE project/S2GLP_Pulsed_Doppler/Libraries/XMCLib/inc\xmc4_scu.h ****  * @return None
1611:C:/Users/Utente/Desktop/Tesi/Firmware_Software/DAVE project/S2GLP_Pulsed_Doppler/Libraries/XMCLib/inc\xmc4_scu.h ****  *
1612:C:/Users/Utente/Desktop/Tesi/Firmware_Software/DAVE project/S2GLP_Pulsed_Doppler/Libraries/XMCLib/inc\xmc4_scu.h ****  * \par<b>Description</b><br>
1613:C:/Users/Utente/Desktop/Tesi/Firmware_Software/DAVE project/S2GLP_Pulsed_Doppler/Libraries/XMCLib/inc\xmc4_scu.h ****  * Disables source clock for the peripheral selected.\n\n
1614:C:/Users/Utente/Desktop/Tesi/Firmware_Software/DAVE project/S2GLP_Pulsed_Doppler/Libraries/XMCLib/inc\xmc4_scu.h ****  * The various outputs of Clock Generation Unit (CGU) can be individually disabled  by setting the 
1615:C:/Users/Utente/Desktop/Tesi/Firmware_Software/DAVE project/S2GLP_Pulsed_Doppler/Libraries/XMCLib/inc\xmc4_scu.h ****  * specific bits in the \a CLKCLR register.\n
1616:C:/Users/Utente/Desktop/Tesi/Firmware_Software/DAVE project/S2GLP_Pulsed_Doppler/Libraries/XMCLib/inc\xmc4_scu.h ****  * It is recommended to use following steps to verify whether clock source of the peripheral is ena
1617:C:/Users/Utente/Desktop/Tesi/Firmware_Software/DAVE project/S2GLP_Pulsed_Doppler/Libraries/XMCLib/inc\xmc4_scu.h ****  * - Call \a XMC_SCU_CLOCK_DisableClock with desired peripheral identifier.\n
1618:C:/Users/Utente/Desktop/Tesi/Firmware_Software/DAVE project/S2GLP_Pulsed_Doppler/Libraries/XMCLib/inc\xmc4_scu.h ****  * - Call \a XMC_SCU_CLOCK_IsClockEnabled with same peripheral identifier to verify whether periphe
1619:C:/Users/Utente/Desktop/Tesi/Firmware_Software/DAVE project/S2GLP_Pulsed_Doppler/Libraries/XMCLib/inc\xmc4_scu.h ****  * \par<b>Related APIs:</b><BR>
1620:C:/Users/Utente/Desktop/Tesi/Firmware_Software/DAVE project/S2GLP_Pulsed_Doppler/Libraries/XMCLib/inc\xmc4_scu.h ****  * XMC_SCU_CLOCK_EnableClock(), XMC_SCU_RESET_AssertPeripheralReset() \n\n\n
1621:C:/Users/Utente/Desktop/Tesi/Firmware_Software/DAVE project/S2GLP_Pulsed_Doppler/Libraries/XMCLib/inc\xmc4_scu.h ****  */
1622:C:/Users/Utente/Desktop/Tesi/Firmware_Software/DAVE project/S2GLP_Pulsed_Doppler/Libraries/XMCLib/inc\xmc4_scu.h **** void XMC_SCU_CLOCK_DisableClock(const XMC_SCU_CLOCK_t clock);
1623:C:/Users/Utente/Desktop/Tesi/Firmware_Software/DAVE project/S2GLP_Pulsed_Doppler/Libraries/XMCLib/inc\xmc4_scu.h **** 
1624:C:/Users/Utente/Desktop/Tesi/Firmware_Software/DAVE project/S2GLP_Pulsed_Doppler/Libraries/XMCLib/inc\xmc4_scu.h **** /**
1625:C:/Users/Utente/Desktop/Tesi/Firmware_Software/DAVE project/S2GLP_Pulsed_Doppler/Libraries/XMCLib/inc\xmc4_scu.h ****  *
1626:C:/Users/Utente/Desktop/Tesi/Firmware_Software/DAVE project/S2GLP_Pulsed_Doppler/Libraries/XMCLib/inc\xmc4_scu.h ****  * @param clock   Peripheral for which the clock status has to be checked. \n
1627:C:/Users/Utente/Desktop/Tesi/Firmware_Software/DAVE project/S2GLP_Pulsed_Doppler/Libraries/XMCLib/inc\xmc4_scu.h ****  *        \b Range: Use type @ref XMC_SCU_CLOCK_t to select the peripheral.
1628:C:/Users/Utente/Desktop/Tesi/Firmware_Software/DAVE project/S2GLP_Pulsed_Doppler/Libraries/XMCLib/inc\xmc4_scu.h ****  *
1629:C:/Users/Utente/Desktop/Tesi/Firmware_Software/DAVE project/S2GLP_Pulsed_Doppler/Libraries/XMCLib/inc\xmc4_scu.h ****  * @return bool  Status of peripheral clock.\n
1630:C:/Users/Utente/Desktop/Tesi/Firmware_Software/DAVE project/S2GLP_Pulsed_Doppler/Libraries/XMCLib/inc\xmc4_scu.h ****  *        \b Range: \a true if peripheral clock is enabled. \a false if peripheral clock is disable
1631:C:/Users/Utente/Desktop/Tesi/Firmware_Software/DAVE project/S2GLP_Pulsed_Doppler/Libraries/XMCLib/inc\xmc4_scu.h ****  *
1632:C:/Users/Utente/Desktop/Tesi/Firmware_Software/DAVE project/S2GLP_Pulsed_Doppler/Libraries/XMCLib/inc\xmc4_scu.h ****  * \par<b>Description</b><br>
1633:C:/Users/Utente/Desktop/Tesi/Firmware_Software/DAVE project/S2GLP_Pulsed_Doppler/Libraries/XMCLib/inc\xmc4_scu.h ****  * Checks the status of peripheral source clock.\n\n
1634:C:/Users/Utente/Desktop/Tesi/Firmware_Software/DAVE project/S2GLP_Pulsed_Doppler/Libraries/XMCLib/inc\xmc4_scu.h ****  * The status of peripheral source clock is read from the \a CLKSTATn register. 
1635:C:/Users/Utente/Desktop/Tesi/Firmware_Software/DAVE project/S2GLP_Pulsed_Doppler/Libraries/XMCLib/inc\xmc4_scu.h ****  * Returns \a true if clock is enabled and returns \a false otherwise.
1636:C:/Users/Utente/Desktop/Tesi/Firmware_Software/DAVE project/S2GLP_Pulsed_Doppler/Libraries/XMCLib/inc\xmc4_scu.h ****  * \par<b>Related APIs:</b><BR>
1637:C:/Users/Utente/Desktop/Tesi/Firmware_Software/DAVE project/S2GLP_Pulsed_Doppler/Libraries/XMCLib/inc\xmc4_scu.h ****  * XMC_SCU_CLOCK_EnableClock(), XMC_SCU_CLOCK_DisableClock() \n\n\n
1638:C:/Users/Utente/Desktop/Tesi/Firmware_Software/DAVE project/S2GLP_Pulsed_Doppler/Libraries/XMCLib/inc\xmc4_scu.h ****  */
1639:C:/Users/Utente/Desktop/Tesi/Firmware_Software/DAVE project/S2GLP_Pulsed_Doppler/Libraries/XMCLib/inc\xmc4_scu.h **** bool XMC_SCU_CLOCK_IsClockEnabled(const XMC_SCU_CLOCK_t clock);
1640:C:/Users/Utente/Desktop/Tesi/Firmware_Software/DAVE project/S2GLP_Pulsed_Doppler/Libraries/XMCLib/inc\xmc4_scu.h **** 
1641:C:/Users/Utente/Desktop/Tesi/Firmware_Software/DAVE project/S2GLP_Pulsed_Doppler/Libraries/XMCLib/inc\xmc4_scu.h **** /**
1642:C:/Users/Utente/Desktop/Tesi/Firmware_Software/DAVE project/S2GLP_Pulsed_Doppler/Libraries/XMCLib/inc\xmc4_scu.h ****  *
1643:C:/Users/Utente/Desktop/Tesi/Firmware_Software/DAVE project/S2GLP_Pulsed_Doppler/Libraries/XMCLib/inc\xmc4_scu.h ****  * @param source  Source of clock for fSYS.\n
1644:C:/Users/Utente/Desktop/Tesi/Firmware_Software/DAVE project/S2GLP_Pulsed_Doppler/Libraries/XMCLib/inc\xmc4_scu.h ****  *        \b Range: Use type @ref XMC_SCU_CLOCK_SYSCLKSRC_t to select the source of clock.\n
1645:C:/Users/Utente/Desktop/Tesi/Firmware_Software/DAVE project/S2GLP_Pulsed_Doppler/Libraries/XMCLib/inc\xmc4_scu.h ****  *                  XMC_SCU_CLOCK_SYSCLKSRC_OFI for selecting internal fast clock as fSYS.\n
1646:C:/Users/Utente/Desktop/Tesi/Firmware_Software/DAVE project/S2GLP_Pulsed_Doppler/Libraries/XMCLib/inc\xmc4_scu.h ****  *                  XMC_SCU_CLOCK_SYSCLKSRC_PLL for selecting the output of PLL fPLL as fSYS.
1647:C:/Users/Utente/Desktop/Tesi/Firmware_Software/DAVE project/S2GLP_Pulsed_Doppler/Libraries/XMCLib/inc\xmc4_scu.h ****  *
1648:C:/Users/Utente/Desktop/Tesi/Firmware_Software/DAVE project/S2GLP_Pulsed_Doppler/Libraries/XMCLib/inc\xmc4_scu.h ****  * @return None
1649:C:/Users/Utente/Desktop/Tesi/Firmware_Software/DAVE project/S2GLP_Pulsed_Doppler/Libraries/XMCLib/inc\xmc4_scu.h ****  *
1650:C:/Users/Utente/Desktop/Tesi/Firmware_Software/DAVE project/S2GLP_Pulsed_Doppler/Libraries/XMCLib/inc\xmc4_scu.h ****  * \par<b>Description</b><br>
1651:C:/Users/Utente/Desktop/Tesi/Firmware_Software/DAVE project/S2GLP_Pulsed_Doppler/Libraries/XMCLib/inc\xmc4_scu.h ****  * Selects the source for system clock (fSYS).\n\n
1652:C:/Users/Utente/Desktop/Tesi/Firmware_Software/DAVE project/S2GLP_Pulsed_Doppler/Libraries/XMCLib/inc\xmc4_scu.h ****  * System clock is selected by setting \a SYSSEL bits in the \a SYSCLKCR register.
1653:C:/Users/Utente/Desktop/Tesi/Firmware_Software/DAVE project/S2GLP_Pulsed_Doppler/Libraries/XMCLib/inc\xmc4_scu.h ****  * If \a XMC_SCU_CLOCK_SYSCLKSRC_PLL is selected, then the dividers of the PLL have to be
1654:C:/Users/Utente/Desktop/Tesi/Firmware_Software/DAVE project/S2GLP_Pulsed_Doppler/Libraries/XMCLib/inc\xmc4_scu.h ****  * additionally configured to achieve the required system clock frequency. 
1655:C:/Users/Utente/Desktop/Tesi/Firmware_Software/DAVE project/S2GLP_Pulsed_Doppler/Libraries/XMCLib/inc\xmc4_scu.h ****   * \par<b>Related APIs:</b><BR>
1656:C:/Users/Utente/Desktop/Tesi/Firmware_Software/DAVE project/S2GLP_Pulsed_Doppler/Libraries/XMCLib/inc\xmc4_scu.h ****  * XMC_SCU_CLOCK_StartSystemPll(), XMC_SCU_CLOCK_EnableHighPerformanceOscillator() \n\n\n
1657:C:/Users/Utente/Desktop/Tesi/Firmware_Software/DAVE project/S2GLP_Pulsed_Doppler/Libraries/XMCLib/inc\xmc4_scu.h ****  */
1658:C:/Users/Utente/Desktop/Tesi/Firmware_Software/DAVE project/S2GLP_Pulsed_Doppler/Libraries/XMCLib/inc\xmc4_scu.h **** void XMC_SCU_CLOCK_SetSystemClockSource(const XMC_SCU_CLOCK_SYSCLKSRC_t source);
1659:C:/Users/Utente/Desktop/Tesi/Firmware_Software/DAVE project/S2GLP_Pulsed_Doppler/Libraries/XMCLib/inc\xmc4_scu.h **** 
1660:C:/Users/Utente/Desktop/Tesi/Firmware_Software/DAVE project/S2GLP_Pulsed_Doppler/Libraries/XMCLib/inc\xmc4_scu.h **** /**
1661:C:/Users/Utente/Desktop/Tesi/Firmware_Software/DAVE project/S2GLP_Pulsed_Doppler/Libraries/XMCLib/inc\xmc4_scu.h ****  * @return XMC_SCU_CLOCK_SYSCLKSRC_t   Source of clock for fSYS.\n
1662:C:/Users/Utente/Desktop/Tesi/Firmware_Software/DAVE project/S2GLP_Pulsed_Doppler/Libraries/XMCLib/inc\xmc4_scu.h ****  *        \b Range: Use type @ref XMC_SCU_CLOCK_SYSCLKSRC_t to select the source of clock.\n
1663:C:/Users/Utente/Desktop/Tesi/Firmware_Software/DAVE project/S2GLP_Pulsed_Doppler/Libraries/XMCLib/inc\xmc4_scu.h ****  *                  XMC_SCU_CLOCK_SYSCLKSRC_OFI - internal fast clock selected as fSYS.\n
1664:C:/Users/Utente/Desktop/Tesi/Firmware_Software/DAVE project/S2GLP_Pulsed_Doppler/Libraries/XMCLib/inc\xmc4_scu.h ****  *                  XMC_SCU_CLOCK_SYSCLKSRC_PLL - output of PLL fPLL selected as fSYS.
1665:C:/Users/Utente/Desktop/Tesi/Firmware_Software/DAVE project/S2GLP_Pulsed_Doppler/Libraries/XMCLib/inc\xmc4_scu.h ****  *
1666:C:/Users/Utente/Desktop/Tesi/Firmware_Software/DAVE project/S2GLP_Pulsed_Doppler/Libraries/XMCLib/inc\xmc4_scu.h ****  * \par<b>Description</b><br>
1667:C:/Users/Utente/Desktop/Tesi/Firmware_Software/DAVE project/S2GLP_Pulsed_Doppler/Libraries/XMCLib/inc\xmc4_scu.h ****  * Provides the selected source of system clock (fSYS). \n\n
1668:C:/Users/Utente/Desktop/Tesi/Firmware_Software/DAVE project/S2GLP_Pulsed_Doppler/Libraries/XMCLib/inc\xmc4_scu.h ****  * Selected source of fSYS is obtained by reading \a SYSSEL bits of \a SYSCLKCR register.
1669:C:/Users/Utente/Desktop/Tesi/Firmware_Software/DAVE project/S2GLP_Pulsed_Doppler/Libraries/XMCLib/inc\xmc4_scu.h ****  * \par<b>Related APIs:</b><BR>
1670:C:/Users/Utente/Desktop/Tesi/Firmware_Software/DAVE project/S2GLP_Pulsed_Doppler/Libraries/XMCLib/inc\xmc4_scu.h ****  * XMC_SCU_CLOCK_SetSystemClockSource(), XMC_SCU_CLOCK_GetSystemPllClockSourceFrequency() \n\n\n
1671:C:/Users/Utente/Desktop/Tesi/Firmware_Software/DAVE project/S2GLP_Pulsed_Doppler/Libraries/XMCLib/inc\xmc4_scu.h ****  */
1672:C:/Users/Utente/Desktop/Tesi/Firmware_Software/DAVE project/S2GLP_Pulsed_Doppler/Libraries/XMCLib/inc\xmc4_scu.h **** __STATIC_INLINE XMC_SCU_CLOCK_SYSCLKSRC_t XMC_SCU_CLOCK_GetSystemClockSource(void)
1673:C:/Users/Utente/Desktop/Tesi/Firmware_Software/DAVE project/S2GLP_Pulsed_Doppler/Libraries/XMCLib/inc\xmc4_scu.h **** {
1674:C:/Users/Utente/Desktop/Tesi/Firmware_Software/DAVE project/S2GLP_Pulsed_Doppler/Libraries/XMCLib/inc\xmc4_scu.h ****   return (XMC_SCU_CLOCK_SYSCLKSRC_t)(SCU_CLK->SYSCLKCR & SCU_CLK_SYSCLKCR_SYSSEL_Msk);
1675:C:/Users/Utente/Desktop/Tesi/Firmware_Software/DAVE project/S2GLP_Pulsed_Doppler/Libraries/XMCLib/inc\xmc4_scu.h **** }
1676:C:/Users/Utente/Desktop/Tesi/Firmware_Software/DAVE project/S2GLP_Pulsed_Doppler/Libraries/XMCLib/inc\xmc4_scu.h **** 
1677:C:/Users/Utente/Desktop/Tesi/Firmware_Software/DAVE project/S2GLP_Pulsed_Doppler/Libraries/XMCLib/inc\xmc4_scu.h **** /**
1678:C:/Users/Utente/Desktop/Tesi/Firmware_Software/DAVE project/S2GLP_Pulsed_Doppler/Libraries/XMCLib/inc\xmc4_scu.h ****  *
1679:C:/Users/Utente/Desktop/Tesi/Firmware_Software/DAVE project/S2GLP_Pulsed_Doppler/Libraries/XMCLib/inc\xmc4_scu.h ****  * @param source   Source of clock for USB and SDMMC(fUSB/SDMMC).\n
1680:C:/Users/Utente/Desktop/Tesi/Firmware_Software/DAVE project/S2GLP_Pulsed_Doppler/Libraries/XMCLib/inc\xmc4_scu.h ****  *        \b Range: Use type @ref XMC_SCU_CLOCK_USBCLKSRC_t to select the source of clock.\n
1681:C:/Users/Utente/Desktop/Tesi/Firmware_Software/DAVE project/S2GLP_Pulsed_Doppler/Libraries/XMCLib/inc\xmc4_scu.h ****  *                  XMC_SCU_CLOCK_USBCLKSRC_USBPLL - output of USB PLL as source of USB clock(fUSB/
1682:C:/Users/Utente/Desktop/Tesi/Firmware_Software/DAVE project/S2GLP_Pulsed_Doppler/Libraries/XMCLib/inc\xmc4_scu.h ****  *                  XMC_SCU_CLOCK_USBCLKSRC_SYSPLL - output of PLL fPLL as source of USB clock(fUSB
1683:C:/Users/Utente/Desktop/Tesi/Firmware_Software/DAVE project/S2GLP_Pulsed_Doppler/Libraries/XMCLib/inc\xmc4_scu.h ****  *
1684:C:/Users/Utente/Desktop/Tesi/Firmware_Software/DAVE project/S2GLP_Pulsed_Doppler/Libraries/XMCLib/inc\xmc4_scu.h ****  * @return None
1685:C:/Users/Utente/Desktop/Tesi/Firmware_Software/DAVE project/S2GLP_Pulsed_Doppler/Libraries/XMCLib/inc\xmc4_scu.h ****  *
1686:C:/Users/Utente/Desktop/Tesi/Firmware_Software/DAVE project/S2GLP_Pulsed_Doppler/Libraries/XMCLib/inc\xmc4_scu.h ****  * \par<b>Description</b><br>
1687:C:/Users/Utente/Desktop/Tesi/Firmware_Software/DAVE project/S2GLP_Pulsed_Doppler/Libraries/XMCLib/inc\xmc4_scu.h ****  * Selects the source of USB/SDMMC clock (fUSB/SDMMC).\n\n
1688:C:/Users/Utente/Desktop/Tesi/Firmware_Software/DAVE project/S2GLP_Pulsed_Doppler/Libraries/XMCLib/inc\xmc4_scu.h ****  * USB and SDMMC use a common clock source. They can either use fUSB PLL or fPLL as the source of c
1689:C:/Users/Utente/Desktop/Tesi/Firmware_Software/DAVE project/S2GLP_Pulsed_Doppler/Libraries/XMCLib/inc\xmc4_scu.h ****  * The selection is done by configuring the \a USBSEL bits of \a USBCLKCR register.
1690:C:/Users/Utente/Desktop/Tesi/Firmware_Software/DAVE project/S2GLP_Pulsed_Doppler/Libraries/XMCLib/inc\xmc4_scu.h ****  * \par<b>Related APIs:</b><BR>
1691:C:/Users/Utente/Desktop/Tesi/Firmware_Software/DAVE project/S2GLP_Pulsed_Doppler/Libraries/XMCLib/inc\xmc4_scu.h ****  * XMC_SCU_CLOCK_SetUsbClockDivider(), XMC_SCU_CLOCK_GetUsbPllClockFrequency() \n\n\n
1692:C:/Users/Utente/Desktop/Tesi/Firmware_Software/DAVE project/S2GLP_Pulsed_Doppler/Libraries/XMCLib/inc\xmc4_scu.h ****  */
1693:C:/Users/Utente/Desktop/Tesi/Firmware_Software/DAVE project/S2GLP_Pulsed_Doppler/Libraries/XMCLib/inc\xmc4_scu.h **** void XMC_SCU_CLOCK_SetUsbClockSource(const XMC_SCU_CLOCK_USBCLKSRC_t source);
1694:C:/Users/Utente/Desktop/Tesi/Firmware_Software/DAVE project/S2GLP_Pulsed_Doppler/Libraries/XMCLib/inc\xmc4_scu.h **** 
1695:C:/Users/Utente/Desktop/Tesi/Firmware_Software/DAVE project/S2GLP_Pulsed_Doppler/Libraries/XMCLib/inc\xmc4_scu.h **** /**
1696:C:/Users/Utente/Desktop/Tesi/Firmware_Software/DAVE project/S2GLP_Pulsed_Doppler/Libraries/XMCLib/inc\xmc4_scu.h ****  * @return XMC_SCU_CLOCK_USBCLKSRC_t   Source of clock for USB and SDMMC(fUSB/SDMMC).\n
1697:C:/Users/Utente/Desktop/Tesi/Firmware_Software/DAVE project/S2GLP_Pulsed_Doppler/Libraries/XMCLib/inc\xmc4_scu.h ****  *        \b Range: Use type @ref XMC_SCU_CLOCK_USBCLKSRC_t to identify the source of clock.\n
1698:C:/Users/Utente/Desktop/Tesi/Firmware_Software/DAVE project/S2GLP_Pulsed_Doppler/Libraries/XMCLib/inc\xmc4_scu.h ****  *                  XMC_SCU_CLOCK_USBCLKSRC_USBPLL - output of USB PLL is selected as source of USB
1699:C:/Users/Utente/Desktop/Tesi/Firmware_Software/DAVE project/S2GLP_Pulsed_Doppler/Libraries/XMCLib/inc\xmc4_scu.h ****  *                  XMC_SCU_CLOCK_USBCLKSRC_SYSPLL - output of PLL fPLL is selected as source of US
1700:C:/Users/Utente/Desktop/Tesi/Firmware_Software/DAVE project/S2GLP_Pulsed_Doppler/Libraries/XMCLib/inc\xmc4_scu.h ****  *
1701:C:/Users/Utente/Desktop/Tesi/Firmware_Software/DAVE project/S2GLP_Pulsed_Doppler/Libraries/XMCLib/inc\xmc4_scu.h ****  * \par<b>Description</b><br>
1702:C:/Users/Utente/Desktop/Tesi/Firmware_Software/DAVE project/S2GLP_Pulsed_Doppler/Libraries/XMCLib/inc\xmc4_scu.h ****  * Provides the selected source of USB and SDMMC clock frequency.\n\n
1703:C:/Users/Utente/Desktop/Tesi/Firmware_Software/DAVE project/S2GLP_Pulsed_Doppler/Libraries/XMCLib/inc\xmc4_scu.h ****  * The clock source is read from from the \a USBSEL bits of \a USBCLKCR register.
1704:C:/Users/Utente/Desktop/Tesi/Firmware_Software/DAVE project/S2GLP_Pulsed_Doppler/Libraries/XMCLib/inc\xmc4_scu.h ****  * \par<b>Related APIs:</b><BR>
1705:C:/Users/Utente/Desktop/Tesi/Firmware_Software/DAVE project/S2GLP_Pulsed_Doppler/Libraries/XMCLib/inc\xmc4_scu.h ****  * XMC_SCU_CLOCK_SetUsbClockDivider(), XMC_SCU_CLOCK_GetUsbPllClockFrequency() \n\n\n
1706:C:/Users/Utente/Desktop/Tesi/Firmware_Software/DAVE project/S2GLP_Pulsed_Doppler/Libraries/XMCLib/inc\xmc4_scu.h ****  */
1707:C:/Users/Utente/Desktop/Tesi/Firmware_Software/DAVE project/S2GLP_Pulsed_Doppler/Libraries/XMCLib/inc\xmc4_scu.h **** __STATIC_INLINE XMC_SCU_CLOCK_USBCLKSRC_t XMC_SCU_CLOCK_GetUsbClockSource(void)
1708:C:/Users/Utente/Desktop/Tesi/Firmware_Software/DAVE project/S2GLP_Pulsed_Doppler/Libraries/XMCLib/inc\xmc4_scu.h **** {
1709:C:/Users/Utente/Desktop/Tesi/Firmware_Software/DAVE project/S2GLP_Pulsed_Doppler/Libraries/XMCLib/inc\xmc4_scu.h ****   return (XMC_SCU_CLOCK_USBCLKSRC_t)(SCU_CLK->USBCLKCR & SCU_CLK_USBCLKCR_USBSEL_Msk);
1710:C:/Users/Utente/Desktop/Tesi/Firmware_Software/DAVE project/S2GLP_Pulsed_Doppler/Libraries/XMCLib/inc\xmc4_scu.h **** }
1711:C:/Users/Utente/Desktop/Tesi/Firmware_Software/DAVE project/S2GLP_Pulsed_Doppler/Libraries/XMCLib/inc\xmc4_scu.h **** 
1712:C:/Users/Utente/Desktop/Tesi/Firmware_Software/DAVE project/S2GLP_Pulsed_Doppler/Libraries/XMCLib/inc\xmc4_scu.h **** /**
1713:C:/Users/Utente/Desktop/Tesi/Firmware_Software/DAVE project/S2GLP_Pulsed_Doppler/Libraries/XMCLib/inc\xmc4_scu.h ****  *
1714:C:/Users/Utente/Desktop/Tesi/Firmware_Software/DAVE project/S2GLP_Pulsed_Doppler/Libraries/XMCLib/inc\xmc4_scu.h ****  * @param source  Clock source for watchdog timer.\n
1715:C:/Users/Utente/Desktop/Tesi/Firmware_Software/DAVE project/S2GLP_Pulsed_Doppler/Libraries/XMCLib/inc\xmc4_scu.h ****  *        \b Range: Use type XMC_SCU_CLOCK_WDTCLKSRC_t to identify the clock source.\n
1716:C:/Users/Utente/Desktop/Tesi/Firmware_Software/DAVE project/S2GLP_Pulsed_Doppler/Libraries/XMCLib/inc\xmc4_scu.h ****  *                  XMC_SCU_CLOCK_WDTCLKSRC_OFI - internal fast oscillator (fOFI)\n
1717:C:/Users/Utente/Desktop/Tesi/Firmware_Software/DAVE project/S2GLP_Pulsed_Doppler/Libraries/XMCLib/inc\xmc4_scu.h ****  *                  XMC_SCU_CLOCK_WDTCLKSRC_STDBY - backup standby clock (fSTDBY)\n
1718:C:/Users/Utente/Desktop/Tesi/Firmware_Software/DAVE project/S2GLP_Pulsed_Doppler/Libraries/XMCLib/inc\xmc4_scu.h ****  *                  XMC_SCU_CLOCK_WDTCLKSRC_PLL - PLL output clock (fPLL)
1719:C:/Users/Utente/Desktop/Tesi/Firmware_Software/DAVE project/S2GLP_Pulsed_Doppler/Libraries/XMCLib/inc\xmc4_scu.h ****  *
1720:C:/Users/Utente/Desktop/Tesi/Firmware_Software/DAVE project/S2GLP_Pulsed_Doppler/Libraries/XMCLib/inc\xmc4_scu.h ****  * @return None
1721:C:/Users/Utente/Desktop/Tesi/Firmware_Software/DAVE project/S2GLP_Pulsed_Doppler/Libraries/XMCLib/inc\xmc4_scu.h ****  *
1722:C:/Users/Utente/Desktop/Tesi/Firmware_Software/DAVE project/S2GLP_Pulsed_Doppler/Libraries/XMCLib/inc\xmc4_scu.h ****  * \par<b>Description</b><br>
1723:C:/Users/Utente/Desktop/Tesi/Firmware_Software/DAVE project/S2GLP_Pulsed_Doppler/Libraries/XMCLib/inc\xmc4_scu.h ****  * Selects the source of WDT clock (fWDT).\n\n
1724:C:/Users/Utente/Desktop/Tesi/Firmware_Software/DAVE project/S2GLP_Pulsed_Doppler/Libraries/XMCLib/inc\xmc4_scu.h ****  * The selected value is configured to the \a WDTSEL bits of \a WDTCLKCR register.
1725:C:/Users/Utente/Desktop/Tesi/Firmware_Software/DAVE project/S2GLP_Pulsed_Doppler/Libraries/XMCLib/inc\xmc4_scu.h ****  * The watchdog timer counts at the frequency selected using this API. So the time for
1726:C:/Users/Utente/Desktop/Tesi/Firmware_Software/DAVE project/S2GLP_Pulsed_Doppler/Libraries/XMCLib/inc\xmc4_scu.h ****  * timeout or pre-warning of watchdog has to be calculated based on this selection.
1727:C:/Users/Utente/Desktop/Tesi/Firmware_Software/DAVE project/S2GLP_Pulsed_Doppler/Libraries/XMCLib/inc\xmc4_scu.h ****  *
1728:C:/Users/Utente/Desktop/Tesi/Firmware_Software/DAVE project/S2GLP_Pulsed_Doppler/Libraries/XMCLib/inc\xmc4_scu.h ****  * \par<b>Related APIs:</b><BR>
1729:C:/Users/Utente/Desktop/Tesi/Firmware_Software/DAVE project/S2GLP_Pulsed_Doppler/Libraries/XMCLib/inc\xmc4_scu.h ****  * XMC_SCU_CLOCK_SetWdtClockDivider(), XMC_SCU_CLOCK_GetWdtClockFrequency() \n\n\n
1730:C:/Users/Utente/Desktop/Tesi/Firmware_Software/DAVE project/S2GLP_Pulsed_Doppler/Libraries/XMCLib/inc\xmc4_scu.h ****  */
1731:C:/Users/Utente/Desktop/Tesi/Firmware_Software/DAVE project/S2GLP_Pulsed_Doppler/Libraries/XMCLib/inc\xmc4_scu.h **** void XMC_SCU_CLOCK_SetWdtClockSource(const XMC_SCU_CLOCK_WDTCLKSRC_t source);
1732:C:/Users/Utente/Desktop/Tesi/Firmware_Software/DAVE project/S2GLP_Pulsed_Doppler/Libraries/XMCLib/inc\xmc4_scu.h **** 
1733:C:/Users/Utente/Desktop/Tesi/Firmware_Software/DAVE project/S2GLP_Pulsed_Doppler/Libraries/XMCLib/inc\xmc4_scu.h **** /**
1734:C:/Users/Utente/Desktop/Tesi/Firmware_Software/DAVE project/S2GLP_Pulsed_Doppler/Libraries/XMCLib/inc\xmc4_scu.h ****  * @return XMC_SCU_CLOCK_WDTCLKSRC_t   Clock source configured for watchdog timer.\n
1735:C:/Users/Utente/Desktop/Tesi/Firmware_Software/DAVE project/S2GLP_Pulsed_Doppler/Libraries/XMCLib/inc\xmc4_scu.h ****  *        \b Range: Use type XMC_SCU_CLOCK_WDTCLKSRC_t to identify the clock source.\n
1736:C:/Users/Utente/Desktop/Tesi/Firmware_Software/DAVE project/S2GLP_Pulsed_Doppler/Libraries/XMCLib/inc\xmc4_scu.h ****  *                  XMC_SCU_CLOCK_WDTCLKSRC_OFI - internal fast oscillator (fOFI)\n
1737:C:/Users/Utente/Desktop/Tesi/Firmware_Software/DAVE project/S2GLP_Pulsed_Doppler/Libraries/XMCLib/inc\xmc4_scu.h ****  *                  XMC_SCU_CLOCK_WDTCLKSRC_STDBY - backup standby clock (fSTDBY)\n
1738:C:/Users/Utente/Desktop/Tesi/Firmware_Software/DAVE project/S2GLP_Pulsed_Doppler/Libraries/XMCLib/inc\xmc4_scu.h ****  *                  XMC_SCU_CLOCK_WDTCLKSRC_PLL - PLL output clock (fPLL)
1739:C:/Users/Utente/Desktop/Tesi/Firmware_Software/DAVE project/S2GLP_Pulsed_Doppler/Libraries/XMCLib/inc\xmc4_scu.h ****  *
1740:C:/Users/Utente/Desktop/Tesi/Firmware_Software/DAVE project/S2GLP_Pulsed_Doppler/Libraries/XMCLib/inc\xmc4_scu.h ****  * \par<b>Description</b><br>
1741:C:/Users/Utente/Desktop/Tesi/Firmware_Software/DAVE project/S2GLP_Pulsed_Doppler/Libraries/XMCLib/inc\xmc4_scu.h ****  * Provides the source of clock used for watchdog timer.\n\n
1742:C:/Users/Utente/Desktop/Tesi/Firmware_Software/DAVE project/S2GLP_Pulsed_Doppler/Libraries/XMCLib/inc\xmc4_scu.h ****  * The value is obtained by reading \a WDTSEL bits of \a WDTCLKCR register.
1743:C:/Users/Utente/Desktop/Tesi/Firmware_Software/DAVE project/S2GLP_Pulsed_Doppler/Libraries/XMCLib/inc\xmc4_scu.h ****  * The time for timeout or pre-warning of watchdog has to be calculated based on 
1744:C:/Users/Utente/Desktop/Tesi/Firmware_Software/DAVE project/S2GLP_Pulsed_Doppler/Libraries/XMCLib/inc\xmc4_scu.h ****  * the clock source selected.
1745:C:/Users/Utente/Desktop/Tesi/Firmware_Software/DAVE project/S2GLP_Pulsed_Doppler/Libraries/XMCLib/inc\xmc4_scu.h ****  * \par<b>Related APIs:</b><BR>
1746:C:/Users/Utente/Desktop/Tesi/Firmware_Software/DAVE project/S2GLP_Pulsed_Doppler/Libraries/XMCLib/inc\xmc4_scu.h ****  * XMC_SCU_CLOCK_SetWdtClockDivider(), XMC_SCU_CLOCK_SetWdtClockSource() \n\n\n
1747:C:/Users/Utente/Desktop/Tesi/Firmware_Software/DAVE project/S2GLP_Pulsed_Doppler/Libraries/XMCLib/inc\xmc4_scu.h ****  */
1748:C:/Users/Utente/Desktop/Tesi/Firmware_Software/DAVE project/S2GLP_Pulsed_Doppler/Libraries/XMCLib/inc\xmc4_scu.h **** __STATIC_INLINE XMC_SCU_CLOCK_WDTCLKSRC_t XMC_SCU_CLOCK_GetWdtClockSource(void)
1749:C:/Users/Utente/Desktop/Tesi/Firmware_Software/DAVE project/S2GLP_Pulsed_Doppler/Libraries/XMCLib/inc\xmc4_scu.h **** {
1750:C:/Users/Utente/Desktop/Tesi/Firmware_Software/DAVE project/S2GLP_Pulsed_Doppler/Libraries/XMCLib/inc\xmc4_scu.h ****   return (XMC_SCU_CLOCK_WDTCLKSRC_t)(SCU_CLK->WDTCLKCR & SCU_CLK_WDTCLKCR_WDTSEL_Msk);
1751:C:/Users/Utente/Desktop/Tesi/Firmware_Software/DAVE project/S2GLP_Pulsed_Doppler/Libraries/XMCLib/inc\xmc4_scu.h **** }
1752:C:/Users/Utente/Desktop/Tesi/Firmware_Software/DAVE project/S2GLP_Pulsed_Doppler/Libraries/XMCLib/inc\xmc4_scu.h **** 
1753:C:/Users/Utente/Desktop/Tesi/Firmware_Software/DAVE project/S2GLP_Pulsed_Doppler/Libraries/XMCLib/inc\xmc4_scu.h **** /**
1754:C:/Users/Utente/Desktop/Tesi/Firmware_Software/DAVE project/S2GLP_Pulsed_Doppler/Libraries/XMCLib/inc\xmc4_scu.h ****  *
1755:C:/Users/Utente/Desktop/Tesi/Firmware_Software/DAVE project/S2GLP_Pulsed_Doppler/Libraries/XMCLib/inc\xmc4_scu.h ****  * @param source   Source for standby clock.\n
1756:C:/Users/Utente/Desktop/Tesi/Firmware_Software/DAVE project/S2GLP_Pulsed_Doppler/Libraries/XMCLib/inc\xmc4_scu.h ****  *          \b Range: Use type @ref XMC_SCU_HIB_STDBYCLKSRC_t to identify the clock source.\n
1757:C:/Users/Utente/Desktop/Tesi/Firmware_Software/DAVE project/S2GLP_Pulsed_Doppler/Libraries/XMCLib/inc\xmc4_scu.h ****  *                    XMC_SCU_HIB_STDBYCLKSRC_OSI - internal slow oscillator (fOSI) \n
1758:C:/Users/Utente/Desktop/Tesi/Firmware_Software/DAVE project/S2GLP_Pulsed_Doppler/Libraries/XMCLib/inc\xmc4_scu.h ****  *                    XMC_SCU_HIB_STDBYCLKSRC_OSCULP - ultra low power osciallator (fULP) \n
1759:C:/Users/Utente/Desktop/Tesi/Firmware_Software/DAVE project/S2GLP_Pulsed_Doppler/Libraries/XMCLib/inc\xmc4_scu.h ****  *
1760:C:/Users/Utente/Desktop/Tesi/Firmware_Software/DAVE project/S2GLP_Pulsed_Doppler/Libraries/XMCLib/inc\xmc4_scu.h ****  * @return None
1761:C:/Users/Utente/Desktop/Tesi/Firmware_Software/DAVE project/S2GLP_Pulsed_Doppler/Libraries/XMCLib/inc\xmc4_scu.h ****  *
1762:C:/Users/Utente/Desktop/Tesi/Firmware_Software/DAVE project/S2GLP_Pulsed_Doppler/Libraries/XMCLib/inc\xmc4_scu.h ****  * \par<b>Description</b><br>
1763:C:/Users/Utente/Desktop/Tesi/Firmware_Software/DAVE project/S2GLP_Pulsed_Doppler/Libraries/XMCLib/inc\xmc4_scu.h ****  * Selects the source of Standby clock (fSTDBY).\n\n
1764:C:/Users/Utente/Desktop/Tesi/Firmware_Software/DAVE project/S2GLP_Pulsed_Doppler/Libraries/XMCLib/inc\xmc4_scu.h ****  * Clock source is configured by setting the \a STDBYSEL bits of \a HDCR register.
1765:C:/Users/Utente/Desktop/Tesi/Firmware_Software/DAVE project/S2GLP_Pulsed_Doppler/Libraries/XMCLib/inc\xmc4_scu.h ****  * Hibernate domain should be enabled explicitly before using the API.
1766:C:/Users/Utente/Desktop/Tesi/Firmware_Software/DAVE project/S2GLP_Pulsed_Doppler/Libraries/XMCLib/inc\xmc4_scu.h ****  *
1767:C:/Users/Utente/Desktop/Tesi/Firmware_Software/DAVE project/S2GLP_Pulsed_Doppler/Libraries/XMCLib/inc\xmc4_scu.h ****  * \note
1768:C:/Users/Utente/Desktop/Tesi/Firmware_Software/DAVE project/S2GLP_Pulsed_Doppler/Libraries/XMCLib/inc\xmc4_scu.h ****  * The register update in HIB domain is indicated by the MIRRST register which can be polled using 
1769:C:/Users/Utente/Desktop/Tesi/Firmware_Software/DAVE project/S2GLP_Pulsed_Doppler/Libraries/XMCLib/inc\xmc4_scu.h ****  *
1770:C:/Users/Utente/Desktop/Tesi/Firmware_Software/DAVE project/S2GLP_Pulsed_Doppler/Libraries/XMCLib/inc\xmc4_scu.h ****  * \par<b>Related APIs:</b><BR>
1771:C:/Users/Utente/Desktop/Tesi/Firmware_Software/DAVE project/S2GLP_Pulsed_Doppler/Libraries/XMCLib/inc\xmc4_scu.h ****  * XMC_SCU_HIB_GetStdbyClockSource(), XMC_SCU_HIB_EnableHibernateDomain() \n\n\n
1772:C:/Users/Utente/Desktop/Tesi/Firmware_Software/DAVE project/S2GLP_Pulsed_Doppler/Libraries/XMCLib/inc\xmc4_scu.h ****  */
1773:C:/Users/Utente/Desktop/Tesi/Firmware_Software/DAVE project/S2GLP_Pulsed_Doppler/Libraries/XMCLib/inc\xmc4_scu.h **** void XMC_SCU_HIB_SetStandbyClockSource(const XMC_SCU_HIB_STDBYCLKSRC_t source);
1774:C:/Users/Utente/Desktop/Tesi/Firmware_Software/DAVE project/S2GLP_Pulsed_Doppler/Libraries/XMCLib/inc\xmc4_scu.h **** 
1775:C:/Users/Utente/Desktop/Tesi/Firmware_Software/DAVE project/S2GLP_Pulsed_Doppler/Libraries/XMCLib/inc\xmc4_scu.h **** /**
1776:C:/Users/Utente/Desktop/Tesi/Firmware_Software/DAVE project/S2GLP_Pulsed_Doppler/Libraries/XMCLib/inc\xmc4_scu.h ****  * @return XMC_SCU_HIB_RTCCLKSRC_t   Source clock of standby clock(fSTDBY).\n
1777:C:/Users/Utente/Desktop/Tesi/Firmware_Software/DAVE project/S2GLP_Pulsed_Doppler/Libraries/XMCLib/inc\xmc4_scu.h ****  *          \b Range: Use type @ref XMC_SCU_HIB_STDBYCLKSRC_t to identify the clock source.\n
1778:C:/Users/Utente/Desktop/Tesi/Firmware_Software/DAVE project/S2GLP_Pulsed_Doppler/Libraries/XMCLib/inc\xmc4_scu.h ****  *                    XMC_SCU_HIB_STDBYCLKSRC_OSI - internal slow oscillator (fOSI) \n
1779:C:/Users/Utente/Desktop/Tesi/Firmware_Software/DAVE project/S2GLP_Pulsed_Doppler/Libraries/XMCLib/inc\xmc4_scu.h ****  *                    XMC_SCU_HIB_STDBYCLKSRC_OSCULP - ultra low power osciallator (fULP) \n
1780:C:/Users/Utente/Desktop/Tesi/Firmware_Software/DAVE project/S2GLP_Pulsed_Doppler/Libraries/XMCLib/inc\xmc4_scu.h ****  *
1781:C:/Users/Utente/Desktop/Tesi/Firmware_Software/DAVE project/S2GLP_Pulsed_Doppler/Libraries/XMCLib/inc\xmc4_scu.h ****  * \par<b>Description</b><br>
1782:C:/Users/Utente/Desktop/Tesi/Firmware_Software/DAVE project/S2GLP_Pulsed_Doppler/Libraries/XMCLib/inc\xmc4_scu.h ****  * Provides the source of standby clock (fSTDBY).\n\n
1783:C:/Users/Utente/Desktop/Tesi/Firmware_Software/DAVE project/S2GLP_Pulsed_Doppler/Libraries/XMCLib/inc\xmc4_scu.h ****  * The value is obtained by reading \a STDBYSEL bits of \a HDCR register.\n
1784:C:/Users/Utente/Desktop/Tesi/Firmware_Software/DAVE project/S2GLP_Pulsed_Doppler/Libraries/XMCLib/inc\xmc4_scu.h ****  * \par<b>Related APIs:</b><BR>
1785:C:/Users/Utente/Desktop/Tesi/Firmware_Software/DAVE project/S2GLP_Pulsed_Doppler/Libraries/XMCLib/inc\xmc4_scu.h ****  * XMC_SCU_HIB_SetStandbyClockSource(), XMC_SCU_HIB_EnableHibernateDomain() \n\n\n
1786:C:/Users/Utente/Desktop/Tesi/Firmware_Software/DAVE project/S2GLP_Pulsed_Doppler/Libraries/XMCLib/inc\xmc4_scu.h ****  */
1787:C:/Users/Utente/Desktop/Tesi/Firmware_Software/DAVE project/S2GLP_Pulsed_Doppler/Libraries/XMCLib/inc\xmc4_scu.h **** __STATIC_INLINE XMC_SCU_HIB_RTCCLKSRC_t XMC_SCU_HIB_GetStdbyClockSource(void)
1788:C:/Users/Utente/Desktop/Tesi/Firmware_Software/DAVE project/S2GLP_Pulsed_Doppler/Libraries/XMCLib/inc\xmc4_scu.h **** {
1789:C:/Users/Utente/Desktop/Tesi/Firmware_Software/DAVE project/S2GLP_Pulsed_Doppler/Libraries/XMCLib/inc\xmc4_scu.h ****   return (XMC_SCU_HIB_RTCCLKSRC_t)(SCU_HIBERNATE->HDCR & SCU_HIBERNATE_HDCR_STDBYSEL_Msk);
1790:C:/Users/Utente/Desktop/Tesi/Firmware_Software/DAVE project/S2GLP_Pulsed_Doppler/Libraries/XMCLib/inc\xmc4_scu.h **** }
1791:C:/Users/Utente/Desktop/Tesi/Firmware_Software/DAVE project/S2GLP_Pulsed_Doppler/Libraries/XMCLib/inc\xmc4_scu.h **** 
1792:C:/Users/Utente/Desktop/Tesi/Firmware_Software/DAVE project/S2GLP_Pulsed_Doppler/Libraries/XMCLib/inc\xmc4_scu.h **** /**
1793:C:/Users/Utente/Desktop/Tesi/Firmware_Software/DAVE project/S2GLP_Pulsed_Doppler/Libraries/XMCLib/inc\xmc4_scu.h ****  *
1794:C:/Users/Utente/Desktop/Tesi/Firmware_Software/DAVE project/S2GLP_Pulsed_Doppler/Libraries/XMCLib/inc\xmc4_scu.h ****  * @param source  Source of RTC clock.\n
1795:C:/Users/Utente/Desktop/Tesi/Firmware_Software/DAVE project/S2GLP_Pulsed_Doppler/Libraries/XMCLib/inc\xmc4_scu.h ****  *            \b Range: Use type @ref XMC_SCU_HIB_RTCCLKSRC_t to identify the clock source.\n
1796:C:/Users/Utente/Desktop/Tesi/Firmware_Software/DAVE project/S2GLP_Pulsed_Doppler/Libraries/XMCLib/inc\xmc4_scu.h ****  *                       XMC_SCU_HIB_RTCCLKSRC_OSI - internal slow oscillator(fOSI). \n
1797:C:/Users/Utente/Desktop/Tesi/Firmware_Software/DAVE project/S2GLP_Pulsed_Doppler/Libraries/XMCLib/inc\xmc4_scu.h ****  *                       XMC_SCU_HIB_RTCCLKSRC_ULP - ultra low power oscillator(fULP). \n
1798:C:/Users/Utente/Desktop/Tesi/Firmware_Software/DAVE project/S2GLP_Pulsed_Doppler/Libraries/XMCLib/inc\xmc4_scu.h ****  *
1799:C:/Users/Utente/Desktop/Tesi/Firmware_Software/DAVE project/S2GLP_Pulsed_Doppler/Libraries/XMCLib/inc\xmc4_scu.h ****  * @return None
1800:C:/Users/Utente/Desktop/Tesi/Firmware_Software/DAVE project/S2GLP_Pulsed_Doppler/Libraries/XMCLib/inc\xmc4_scu.h ****  *
1801:C:/Users/Utente/Desktop/Tesi/Firmware_Software/DAVE project/S2GLP_Pulsed_Doppler/Libraries/XMCLib/inc\xmc4_scu.h ****  * \par<b>Description</b><br>
1802:C:/Users/Utente/Desktop/Tesi/Firmware_Software/DAVE project/S2GLP_Pulsed_Doppler/Libraries/XMCLib/inc\xmc4_scu.h ****  * Selects the source of RTC clock (fRTC).\n\n
1803:C:/Users/Utente/Desktop/Tesi/Firmware_Software/DAVE project/S2GLP_Pulsed_Doppler/Libraries/XMCLib/inc\xmc4_scu.h ****  * The value is configured to \a RCS bit of \a HDCR register.
1804:C:/Users/Utente/Desktop/Tesi/Firmware_Software/DAVE project/S2GLP_Pulsed_Doppler/Libraries/XMCLib/inc\xmc4_scu.h ****  * fULP needs external input powered by VBAT or VDDP. fOSI is internal clock.
1805:C:/Users/Utente/Desktop/Tesi/Firmware_Software/DAVE project/S2GLP_Pulsed_Doppler/Libraries/XMCLib/inc\xmc4_scu.h ****  * The frequency of the clock will be 32.768 kHz.
1806:C:/Users/Utente/Desktop/Tesi/Firmware_Software/DAVE project/S2GLP_Pulsed_Doppler/Libraries/XMCLib/inc\xmc4_scu.h ****  *
1807:C:/Users/Utente/Desktop/Tesi/Firmware_Software/DAVE project/S2GLP_Pulsed_Doppler/Libraries/XMCLib/inc\xmc4_scu.h ****  * \note
1808:C:/Users/Utente/Desktop/Tesi/Firmware_Software/DAVE project/S2GLP_Pulsed_Doppler/Libraries/XMCLib/inc\xmc4_scu.h ****  * The register update in HIB domain is indicated by the MIRRST register which can be polled using 
1809:C:/Users/Utente/Desktop/Tesi/Firmware_Software/DAVE project/S2GLP_Pulsed_Doppler/Libraries/XMCLib/inc\xmc4_scu.h ****  *
1810:C:/Users/Utente/Desktop/Tesi/Firmware_Software/DAVE project/S2GLP_Pulsed_Doppler/Libraries/XMCLib/inc\xmc4_scu.h ****  * \par<b>Related APIs:</b><BR>
1811:C:/Users/Utente/Desktop/Tesi/Firmware_Software/DAVE project/S2GLP_Pulsed_Doppler/Libraries/XMCLib/inc\xmc4_scu.h ****  * XMC_SCU_HIB_GetRtcClockSource() \n\n\n
1812:C:/Users/Utente/Desktop/Tesi/Firmware_Software/DAVE project/S2GLP_Pulsed_Doppler/Libraries/XMCLib/inc\xmc4_scu.h ****  */
1813:C:/Users/Utente/Desktop/Tesi/Firmware_Software/DAVE project/S2GLP_Pulsed_Doppler/Libraries/XMCLib/inc\xmc4_scu.h **** void XMC_SCU_HIB_SetRtcClockSource(const XMC_SCU_HIB_RTCCLKSRC_t source);
1814:C:/Users/Utente/Desktop/Tesi/Firmware_Software/DAVE project/S2GLP_Pulsed_Doppler/Libraries/XMCLib/inc\xmc4_scu.h **** 
1815:C:/Users/Utente/Desktop/Tesi/Firmware_Software/DAVE project/S2GLP_Pulsed_Doppler/Libraries/XMCLib/inc\xmc4_scu.h **** /**
1816:C:/Users/Utente/Desktop/Tesi/Firmware_Software/DAVE project/S2GLP_Pulsed_Doppler/Libraries/XMCLib/inc\xmc4_scu.h ****  * @return XMC_SCU_HIB_RTCCLKSRC_t   Source of RTC clock.\n
1817:C:/Users/Utente/Desktop/Tesi/Firmware_Software/DAVE project/S2GLP_Pulsed_Doppler/Libraries/XMCLib/inc\xmc4_scu.h ****  *            \b Range: Use type @ref XMC_SCU_HIB_RTCCLKSRC_t to identify the clock source.\n
1818:C:/Users/Utente/Desktop/Tesi/Firmware_Software/DAVE project/S2GLP_Pulsed_Doppler/Libraries/XMCLib/inc\xmc4_scu.h ****  *                       XMC_SCU_HIB_RTCCLKSRC_OSI - internal slow oscillator(fOSI). \n
1819:C:/Users/Utente/Desktop/Tesi/Firmware_Software/DAVE project/S2GLP_Pulsed_Doppler/Libraries/XMCLib/inc\xmc4_scu.h ****  *                       XMC_SCU_HIB_RTCCLKSRC_ULP - ultra low power oscillator(fULP). \n
1820:C:/Users/Utente/Desktop/Tesi/Firmware_Software/DAVE project/S2GLP_Pulsed_Doppler/Libraries/XMCLib/inc\xmc4_scu.h ****  *
1821:C:/Users/Utente/Desktop/Tesi/Firmware_Software/DAVE project/S2GLP_Pulsed_Doppler/Libraries/XMCLib/inc\xmc4_scu.h ****  * \par<b>Description</b><br>
1822:C:/Users/Utente/Desktop/Tesi/Firmware_Software/DAVE project/S2GLP_Pulsed_Doppler/Libraries/XMCLib/inc\xmc4_scu.h ****  * Provides the source of RTC clock (fRTC).
1823:C:/Users/Utente/Desktop/Tesi/Firmware_Software/DAVE project/S2GLP_Pulsed_Doppler/Libraries/XMCLib/inc\xmc4_scu.h ****  * The value is obtained by reading \a RCS bit of \a HDCR register.
1824:C:/Users/Utente/Desktop/Tesi/Firmware_Software/DAVE project/S2GLP_Pulsed_Doppler/Libraries/XMCLib/inc\xmc4_scu.h ****  * The frequency of the clock will be 32.768 kHz.
1825:C:/Users/Utente/Desktop/Tesi/Firmware_Software/DAVE project/S2GLP_Pulsed_Doppler/Libraries/XMCLib/inc\xmc4_scu.h ****  * \par<b>Related APIs:</b><BR>
1826:C:/Users/Utente/Desktop/Tesi/Firmware_Software/DAVE project/S2GLP_Pulsed_Doppler/Libraries/XMCLib/inc\xmc4_scu.h ****  * XMC_SCU_HIB_SetRtcClockSource() \n\n\n
1827:C:/Users/Utente/Desktop/Tesi/Firmware_Software/DAVE project/S2GLP_Pulsed_Doppler/Libraries/XMCLib/inc\xmc4_scu.h ****  */
1828:C:/Users/Utente/Desktop/Tesi/Firmware_Software/DAVE project/S2GLP_Pulsed_Doppler/Libraries/XMCLib/inc\xmc4_scu.h **** __STATIC_INLINE XMC_SCU_HIB_RTCCLKSRC_t XMC_SCU_HIB_GetRtcClockSource(void)
1829:C:/Users/Utente/Desktop/Tesi/Firmware_Software/DAVE project/S2GLP_Pulsed_Doppler/Libraries/XMCLib/inc\xmc4_scu.h **** {
1830:C:/Users/Utente/Desktop/Tesi/Firmware_Software/DAVE project/S2GLP_Pulsed_Doppler/Libraries/XMCLib/inc\xmc4_scu.h ****   return (XMC_SCU_HIB_RTCCLKSRC_t)(SCU_HIBERNATE->HDCR & SCU_HIBERNATE_HDCR_RCS_Msk);
1831:C:/Users/Utente/Desktop/Tesi/Firmware_Software/DAVE project/S2GLP_Pulsed_Doppler/Libraries/XMCLib/inc\xmc4_scu.h **** }
1832:C:/Users/Utente/Desktop/Tesi/Firmware_Software/DAVE project/S2GLP_Pulsed_Doppler/Libraries/XMCLib/inc\xmc4_scu.h **** 
1833:C:/Users/Utente/Desktop/Tesi/Firmware_Software/DAVE project/S2GLP_Pulsed_Doppler/Libraries/XMCLib/inc\xmc4_scu.h **** /**
1834:C:/Users/Utente/Desktop/Tesi/Firmware_Software/DAVE project/S2GLP_Pulsed_Doppler/Libraries/XMCLib/inc\xmc4_scu.h ****  *
1835:C:/Users/Utente/Desktop/Tesi/Firmware_Software/DAVE project/S2GLP_Pulsed_Doppler/Libraries/XMCLib/inc\xmc4_scu.h ****  * @param clock  Source of external clock output(fEXT).\n
1836:C:/Users/Utente/Desktop/Tesi/Firmware_Software/DAVE project/S2GLP_Pulsed_Doppler/Libraries/XMCLib/inc\xmc4_scu.h ****  *           \b Range: Use type @ref XMC_SCU_CLOCK_EXTOUTCLKSRC_t to identify the clock.\n
1837:C:/Users/Utente/Desktop/Tesi/Firmware_Software/DAVE project/S2GLP_Pulsed_Doppler/Libraries/XMCLib/inc\xmc4_scu.h ****  *                      XMC_SCU_CLOCK_EXTOUTCLKSRC_SYS - system clock fSYS. \n
1838:C:/Users/Utente/Desktop/Tesi/Firmware_Software/DAVE project/S2GLP_Pulsed_Doppler/Libraries/XMCLib/inc\xmc4_scu.h ****  *                      XMC_SCU_CLOCK_EXTOUTCLKSRC_USB - USB clock fUSB. \n
1839:C:/Users/Utente/Desktop/Tesi/Firmware_Software/DAVE project/S2GLP_Pulsed_Doppler/Libraries/XMCLib/inc\xmc4_scu.h ****  *                      XMC_SCU_CLOCK_EXTOUTCLKSRC_PLL - PLL output fPLL. \n
1840:C:/Users/Utente/Desktop/Tesi/Firmware_Software/DAVE project/S2GLP_Pulsed_Doppler/Libraries/XMCLib/inc\xmc4_scu.h ****  * \if XMC42
1841:C:/Users/Utente/Desktop/Tesi/Firmware_Software/DAVE project/S2GLP_Pulsed_Doppler/Libraries/XMCLib/inc\xmc4_scu.h ****  *                      XMC_SCU_CLOCK_EXTOUTCLKSRC_STDBY - Standby clock fSTDBY. \n
1842:C:/Users/Utente/Desktop/Tesi/Firmware_Software/DAVE project/S2GLP_Pulsed_Doppler/Libraries/XMCLib/inc\xmc4_scu.h ****  *
1843:C:/Users/Utente/Desktop/Tesi/Firmware_Software/DAVE project/S2GLP_Pulsed_Doppler/Libraries/XMCLib/inc\xmc4_scu.h ****  * \endif
1844:C:/Users/Utente/Desktop/Tesi/Firmware_Software/DAVE project/S2GLP_Pulsed_Doppler/Libraries/XMCLib/inc\xmc4_scu.h ****  * \if XMC41
1845:C:/Users/Utente/Desktop/Tesi/Firmware_Software/DAVE project/S2GLP_Pulsed_Doppler/Libraries/XMCLib/inc\xmc4_scu.h ****  *                      XMC_SCU_CLOCK_EXTOUTCLKSRC_STDBY - Standby clock fSTDBY. \n
1846:C:/Users/Utente/Desktop/Tesi/Firmware_Software/DAVE project/S2GLP_Pulsed_Doppler/Libraries/XMCLib/inc\xmc4_scu.h ****  * \endif
1847:C:/Users/Utente/Desktop/Tesi/Firmware_Software/DAVE project/S2GLP_Pulsed_Doppler/Libraries/XMCLib/inc\xmc4_scu.h ****  *
1848:C:/Users/Utente/Desktop/Tesi/Firmware_Software/DAVE project/S2GLP_Pulsed_Doppler/Libraries/XMCLib/inc\xmc4_scu.h ****  * @return None
1849:C:/Users/Utente/Desktop/Tesi/Firmware_Software/DAVE project/S2GLP_Pulsed_Doppler/Libraries/XMCLib/inc\xmc4_scu.h ****  *
1850:C:/Users/Utente/Desktop/Tesi/Firmware_Software/DAVE project/S2GLP_Pulsed_Doppler/Libraries/XMCLib/inc\xmc4_scu.h ****  * \par<b>Description</b><br>
1851:C:/Users/Utente/Desktop/Tesi/Firmware_Software/DAVE project/S2GLP_Pulsed_Doppler/Libraries/XMCLib/inc\xmc4_scu.h ****  * Selects the source of external clock out (fEXT).\n\n
1852:C:/Users/Utente/Desktop/Tesi/Firmware_Software/DAVE project/S2GLP_Pulsed_Doppler/Libraries/XMCLib/inc\xmc4_scu.h ****  * The value will be configured to \a ECKSEL bits of \a EXTCLKCR register.
1853:C:/Users/Utente/Desktop/Tesi/Firmware_Software/DAVE project/S2GLP_Pulsed_Doppler/Libraries/XMCLib/inc\xmc4_scu.h ****  * \par<b>Related APIs:</b><BR>
1854:C:/Users/Utente/Desktop/Tesi/Firmware_Software/DAVE project/S2GLP_Pulsed_Doppler/Libraries/XMCLib/inc\xmc4_scu.h ****  * XMC_SCU_CLOCK_GetExternalOutputClockSource(), XMC_SCU_CLOCK_SetExternalOutputClockDivider() \n\n
1855:C:/Users/Utente/Desktop/Tesi/Firmware_Software/DAVE project/S2GLP_Pulsed_Doppler/Libraries/XMCLib/inc\xmc4_scu.h ****  */
1856:C:/Users/Utente/Desktop/Tesi/Firmware_Software/DAVE project/S2GLP_Pulsed_Doppler/Libraries/XMCLib/inc\xmc4_scu.h **** void XMC_SCU_CLOCK_SetExternalOutputClockSource(const XMC_SCU_CLOCK_EXTOUTCLKSRC_t clock);
1857:C:/Users/Utente/Desktop/Tesi/Firmware_Software/DAVE project/S2GLP_Pulsed_Doppler/Libraries/XMCLib/inc\xmc4_scu.h **** 
1858:C:/Users/Utente/Desktop/Tesi/Firmware_Software/DAVE project/S2GLP_Pulsed_Doppler/Libraries/XMCLib/inc\xmc4_scu.h **** /**
1859:C:/Users/Utente/Desktop/Tesi/Firmware_Software/DAVE project/S2GLP_Pulsed_Doppler/Libraries/XMCLib/inc\xmc4_scu.h ****  * @return XMC_SCU_CLOCK_EXTOUTCLKSRC_t   Source of external clock output(fEXT).\n
1860:C:/Users/Utente/Desktop/Tesi/Firmware_Software/DAVE project/S2GLP_Pulsed_Doppler/Libraries/XMCLib/inc\xmc4_scu.h ****  *           \b Range: Use type @ref XMC_SCU_CLOCK_EXTOUTCLKSRC_t to identify the clock.\n
1861:C:/Users/Utente/Desktop/Tesi/Firmware_Software/DAVE project/S2GLP_Pulsed_Doppler/Libraries/XMCLib/inc\xmc4_scu.h ****  *                      XMC_SCU_CLOCK_EXTOUTCLKSRC_SYS - system clock fSYS. \n
1862:C:/Users/Utente/Desktop/Tesi/Firmware_Software/DAVE project/S2GLP_Pulsed_Doppler/Libraries/XMCLib/inc\xmc4_scu.h ****  *                      XMC_SCU_CLOCK_EXTOUTCLKSRC_USB - USB clock fUSB. \n
1863:C:/Users/Utente/Desktop/Tesi/Firmware_Software/DAVE project/S2GLP_Pulsed_Doppler/Libraries/XMCLib/inc\xmc4_scu.h ****  *                      XMC_SCU_CLOCK_EXTOUTCLKSRC_PLL - PLL output fPLL. \n
1864:C:/Users/Utente/Desktop/Tesi/Firmware_Software/DAVE project/S2GLP_Pulsed_Doppler/Libraries/XMCLib/inc\xmc4_scu.h ****  * \if XMC42
1865:C:/Users/Utente/Desktop/Tesi/Firmware_Software/DAVE project/S2GLP_Pulsed_Doppler/Libraries/XMCLib/inc\xmc4_scu.h ****  *                      XMC_SCU_CLOCK_EXTOUTCLKSRC_STDBY - Standby clock fSTDBY. \n
1866:C:/Users/Utente/Desktop/Tesi/Firmware_Software/DAVE project/S2GLP_Pulsed_Doppler/Libraries/XMCLib/inc\xmc4_scu.h ****  * \endif
1867:C:/Users/Utente/Desktop/Tesi/Firmware_Software/DAVE project/S2GLP_Pulsed_Doppler/Libraries/XMCLib/inc\xmc4_scu.h ****  * \if XMC41
1868:C:/Users/Utente/Desktop/Tesi/Firmware_Software/DAVE project/S2GLP_Pulsed_Doppler/Libraries/XMCLib/inc\xmc4_scu.h ****  *                      XMC_SCU_CLOCK_EXTOUTCLKSRC_STDBY - Standby clock fSTDBY. \n
1869:C:/Users/Utente/Desktop/Tesi/Firmware_Software/DAVE project/S2GLP_Pulsed_Doppler/Libraries/XMCLib/inc\xmc4_scu.h ****  * \endif
1870:C:/Users/Utente/Desktop/Tesi/Firmware_Software/DAVE project/S2GLP_Pulsed_Doppler/Libraries/XMCLib/inc\xmc4_scu.h ****  *
1871:C:/Users/Utente/Desktop/Tesi/Firmware_Software/DAVE project/S2GLP_Pulsed_Doppler/Libraries/XMCLib/inc\xmc4_scu.h ****  * \par<b>Description</b><br>
1872:C:/Users/Utente/Desktop/Tesi/Firmware_Software/DAVE project/S2GLP_Pulsed_Doppler/Libraries/XMCLib/inc\xmc4_scu.h ****  * Provides the source of external clock output(fEXT).\n\n
1873:C:/Users/Utente/Desktop/Tesi/Firmware_Software/DAVE project/S2GLP_Pulsed_Doppler/Libraries/XMCLib/inc\xmc4_scu.h ****  * The value is obtained by reading \a ECKSEL bits of \a EXTCLKCR register.
1874:C:/Users/Utente/Desktop/Tesi/Firmware_Software/DAVE project/S2GLP_Pulsed_Doppler/Libraries/XMCLib/inc\xmc4_scu.h ****  * \par<b>Related APIs:</b><BR>
1875:C:/Users/Utente/Desktop/Tesi/Firmware_Software/DAVE project/S2GLP_Pulsed_Doppler/Libraries/XMCLib/inc\xmc4_scu.h ****  * XMC_SCU_CLOCK_SetExternalOutputClockSource(), XMC_SCU_CLOCK_SetExternalOutputClockDivider() \n\n
1876:C:/Users/Utente/Desktop/Tesi/Firmware_Software/DAVE project/S2GLP_Pulsed_Doppler/Libraries/XMCLib/inc\xmc4_scu.h ****  */
1877:C:/Users/Utente/Desktop/Tesi/Firmware_Software/DAVE project/S2GLP_Pulsed_Doppler/Libraries/XMCLib/inc\xmc4_scu.h **** __STATIC_INLINE XMC_SCU_CLOCK_EXTOUTCLKSRC_t XMC_SCU_CLOCK_GetExternalOutputClockSource(void)
1878:C:/Users/Utente/Desktop/Tesi/Firmware_Software/DAVE project/S2GLP_Pulsed_Doppler/Libraries/XMCLib/inc\xmc4_scu.h **** {
1879:C:/Users/Utente/Desktop/Tesi/Firmware_Software/DAVE project/S2GLP_Pulsed_Doppler/Libraries/XMCLib/inc\xmc4_scu.h ****   return (XMC_SCU_CLOCK_EXTOUTCLKSRC_t)(SCU_CLK->EXTCLKCR & SCU_CLK_EXTCLKCR_ECKSEL_Msk);
1880:C:/Users/Utente/Desktop/Tesi/Firmware_Software/DAVE project/S2GLP_Pulsed_Doppler/Libraries/XMCLib/inc\xmc4_scu.h **** }
1881:C:/Users/Utente/Desktop/Tesi/Firmware_Software/DAVE project/S2GLP_Pulsed_Doppler/Libraries/XMCLib/inc\xmc4_scu.h **** 
1882:C:/Users/Utente/Desktop/Tesi/Firmware_Software/DAVE project/S2GLP_Pulsed_Doppler/Libraries/XMCLib/inc\xmc4_scu.h **** /**
1883:C:/Users/Utente/Desktop/Tesi/Firmware_Software/DAVE project/S2GLP_Pulsed_Doppler/Libraries/XMCLib/inc\xmc4_scu.h ****  *
1884:C:/Users/Utente/Desktop/Tesi/Firmware_Software/DAVE project/S2GLP_Pulsed_Doppler/Libraries/XMCLib/inc\xmc4_scu.h ****  * @param source  Source of clock for system PLL.\n
1885:C:/Users/Utente/Desktop/Tesi/Firmware_Software/DAVE project/S2GLP_Pulsed_Doppler/Libraries/XMCLib/inc\xmc4_scu.h ****  *        \b Range: Use type @ref XMC_SCU_CLOCK_SYSPLLCLKSRC_t for identifying the clock source.\n
1886:C:/Users/Utente/Desktop/Tesi/Firmware_Software/DAVE project/S2GLP_Pulsed_Doppler/Libraries/XMCLib/inc\xmc4_scu.h ****  *                            XMC_SCU_CLOCK_SYSPLLCLKSRC_OSCHP - External High performance oscillat
1887:C:/Users/Utente/Desktop/Tesi/Firmware_Software/DAVE project/S2GLP_Pulsed_Doppler/Libraries/XMCLib/inc\xmc4_scu.h ****  *                            XMC_SCU_CLOCK_SYSPLLCLKSRC_OFI - Internal fast clock (fOFI).
1888:C:/Users/Utente/Desktop/Tesi/Firmware_Software/DAVE project/S2GLP_Pulsed_Doppler/Libraries/XMCLib/inc\xmc4_scu.h ****  *
1889:C:/Users/Utente/Desktop/Tesi/Firmware_Software/DAVE project/S2GLP_Pulsed_Doppler/Libraries/XMCLib/inc\xmc4_scu.h ****  * @return None
1890:C:/Users/Utente/Desktop/Tesi/Firmware_Software/DAVE project/S2GLP_Pulsed_Doppler/Libraries/XMCLib/inc\xmc4_scu.h ****  *
1891:C:/Users/Utente/Desktop/Tesi/Firmware_Software/DAVE project/S2GLP_Pulsed_Doppler/Libraries/XMCLib/inc\xmc4_scu.h ****  * \par<b>Description</b><br>
1892:C:/Users/Utente/Desktop/Tesi/Firmware_Software/DAVE project/S2GLP_Pulsed_Doppler/Libraries/XMCLib/inc\xmc4_scu.h ****  * Selects the source of system PLL.\n\n
1893:C:/Users/Utente/Desktop/Tesi/Firmware_Software/DAVE project/S2GLP_Pulsed_Doppler/Libraries/XMCLib/inc\xmc4_scu.h ****  * The value is configured to \a VCOBYP bit of \a PLLCON0 register.
1894:C:/Users/Utente/Desktop/Tesi/Firmware_Software/DAVE project/S2GLP_Pulsed_Doppler/Libraries/XMCLib/inc\xmc4_scu.h ****  * If \a XMC_SCU_CLOCK_SYSPLLCLKSRC_OSCHP is selected, ensure that the high performance oscillator 
1895:C:/Users/Utente/Desktop/Tesi/Firmware_Software/DAVE project/S2GLP_Pulsed_Doppler/Libraries/XMCLib/inc\xmc4_scu.h ****  * enabled by using the API XMC_SCU_CLOCK_EnableHighPerformanceOscillator().
1896:C:/Users/Utente/Desktop/Tesi/Firmware_Software/DAVE project/S2GLP_Pulsed_Doppler/Libraries/XMCLib/inc\xmc4_scu.h ****  * \par<b>Related APIs:</b><BR>
1897:C:/Users/Utente/Desktop/Tesi/Firmware_Software/DAVE project/S2GLP_Pulsed_Doppler/Libraries/XMCLib/inc\xmc4_scu.h ****  * XMC_SCU_CLOCK_EnableHighPerformanceOscillator()\n\n\n
1898:C:/Users/Utente/Desktop/Tesi/Firmware_Software/DAVE project/S2GLP_Pulsed_Doppler/Libraries/XMCLib/inc\xmc4_scu.h ****  */
1899:C:/Users/Utente/Desktop/Tesi/Firmware_Software/DAVE project/S2GLP_Pulsed_Doppler/Libraries/XMCLib/inc\xmc4_scu.h **** void XMC_SCU_CLOCK_SetSystemPllClockSource(const XMC_SCU_CLOCK_SYSPLLCLKSRC_t source);
1900:C:/Users/Utente/Desktop/Tesi/Firmware_Software/DAVE project/S2GLP_Pulsed_Doppler/Libraries/XMCLib/inc\xmc4_scu.h **** 
1901:C:/Users/Utente/Desktop/Tesi/Firmware_Software/DAVE project/S2GLP_Pulsed_Doppler/Libraries/XMCLib/inc\xmc4_scu.h **** /**
1902:C:/Users/Utente/Desktop/Tesi/Firmware_Software/DAVE project/S2GLP_Pulsed_Doppler/Libraries/XMCLib/inc\xmc4_scu.h ****  * @return XMC_SCU_CLOCK_OSCCLKSRC_t   Source of clock for system PLL.\n
1903:C:/Users/Utente/Desktop/Tesi/Firmware_Software/DAVE project/S2GLP_Pulsed_Doppler/Libraries/XMCLib/inc\xmc4_scu.h ****  *        \b Range: Use type @ref XMC_SCU_CLOCK_SYSPLLCLKSRC_t for identifying the clock source.\n
1904:C:/Users/Utente/Desktop/Tesi/Firmware_Software/DAVE project/S2GLP_Pulsed_Doppler/Libraries/XMCLib/inc\xmc4_scu.h ****  *                            XMC_SCU_CLOCK_SYSPLLCLKSRC_OSCHP - External High performance oscillat
1905:C:/Users/Utente/Desktop/Tesi/Firmware_Software/DAVE project/S2GLP_Pulsed_Doppler/Libraries/XMCLib/inc\xmc4_scu.h ****  *                            XMC_SCU_CLOCK_SYSPLLCLKSRC_OFI - Internal fast clock (fOFI).
1906:C:/Users/Utente/Desktop/Tesi/Firmware_Software/DAVE project/S2GLP_Pulsed_Doppler/Libraries/XMCLib/inc\xmc4_scu.h ****  *
1907:C:/Users/Utente/Desktop/Tesi/Firmware_Software/DAVE project/S2GLP_Pulsed_Doppler/Libraries/XMCLib/inc\xmc4_scu.h ****  * \par<b>Description</b><br>
1908:C:/Users/Utente/Desktop/Tesi/Firmware_Software/DAVE project/S2GLP_Pulsed_Doppler/Libraries/XMCLib/inc\xmc4_scu.h ****  * Provides the source of system PLL clock (fPLL). \n\n
1909:C:/Users/Utente/Desktop/Tesi/Firmware_Software/DAVE project/S2GLP_Pulsed_Doppler/Libraries/XMCLib/inc\xmc4_scu.h ****  * The value is obtained by reading \a VCOBYP bit of \a PLLCON0 register.
1910:C:/Users/Utente/Desktop/Tesi/Firmware_Software/DAVE project/S2GLP_Pulsed_Doppler/Libraries/XMCLib/inc\xmc4_scu.h ****  * \par<b>Related APIs:</b><BR>
1911:C:/Users/Utente/Desktop/Tesi/Firmware_Software/DAVE project/S2GLP_Pulsed_Doppler/Libraries/XMCLib/inc\xmc4_scu.h ****  * XMC_SCU_CLOCK_EnableHighPerformanceOscillator(), XMC_SCU_CLOCK_SetSystemPllClockSource()\n\n\n
1912:C:/Users/Utente/Desktop/Tesi/Firmware_Software/DAVE project/S2GLP_Pulsed_Doppler/Libraries/XMCLib/inc\xmc4_scu.h ****  */
1913:C:/Users/Utente/Desktop/Tesi/Firmware_Software/DAVE project/S2GLP_Pulsed_Doppler/Libraries/XMCLib/inc\xmc4_scu.h **** __STATIC_INLINE XMC_SCU_CLOCK_SYSPLLCLKSRC_t XMC_SCU_CLOCK_GetSystemPllClockSource(void)
1914:C:/Users/Utente/Desktop/Tesi/Firmware_Software/DAVE project/S2GLP_Pulsed_Doppler/Libraries/XMCLib/inc\xmc4_scu.h **** {
1915:C:/Users/Utente/Desktop/Tesi/Firmware_Software/DAVE project/S2GLP_Pulsed_Doppler/Libraries/XMCLib/inc\xmc4_scu.h ****   return (XMC_SCU_CLOCK_SYSPLLCLKSRC_t)(SCU_PLL->PLLCON0 & SCU_PLL_PLLCON0_VCOBYP_Msk);
1916:C:/Users/Utente/Desktop/Tesi/Firmware_Software/DAVE project/S2GLP_Pulsed_Doppler/Libraries/XMCLib/inc\xmc4_scu.h **** }
1917:C:/Users/Utente/Desktop/Tesi/Firmware_Software/DAVE project/S2GLP_Pulsed_Doppler/Libraries/XMCLib/inc\xmc4_scu.h **** 
1918:C:/Users/Utente/Desktop/Tesi/Firmware_Software/DAVE project/S2GLP_Pulsed_Doppler/Libraries/XMCLib/inc\xmc4_scu.h **** #if defined(ECAT0) 
1919:C:/Users/Utente/Desktop/Tesi/Firmware_Software/DAVE project/S2GLP_Pulsed_Doppler/Libraries/XMCLib/inc\xmc4_scu.h **** /**
1920:C:/Users/Utente/Desktop/Tesi/Firmware_Software/DAVE project/S2GLP_Pulsed_Doppler/Libraries/XMCLib/inc\xmc4_scu.h ****  *
1921:C:/Users/Utente/Desktop/Tesi/Firmware_Software/DAVE project/S2GLP_Pulsed_Doppler/Libraries/XMCLib/inc\xmc4_scu.h ****  * @param source  Source of ECAT clock.\n
1922:C:/Users/Utente/Desktop/Tesi/Firmware_Software/DAVE project/S2GLP_Pulsed_Doppler/Libraries/XMCLib/inc\xmc4_scu.h ****  *            \b Range: Use type @ref XMC_SCU_CLOCK_ECATCLKSRC_t to identify the clock source.\n
1923:C:/Users/Utente/Desktop/Tesi/Firmware_Software/DAVE project/S2GLP_Pulsed_Doppler/Libraries/XMCLib/inc\xmc4_scu.h ****  *                       XMC_SCU_CLOCK_ECATCLKSRC_USBPLL - USB PLL (fUSBPLL) as a source for ECAT c
1924:C:/Users/Utente/Desktop/Tesi/Firmware_Software/DAVE project/S2GLP_Pulsed_Doppler/Libraries/XMCLib/inc\xmc4_scu.h ****  *                       XMC_SCU_CLOCK_ECATCLKSRC_SYSPLL - Main PLL output (fPLL) as a source for E
1925:C:/Users/Utente/Desktop/Tesi/Firmware_Software/DAVE project/S2GLP_Pulsed_Doppler/Libraries/XMCLib/inc\xmc4_scu.h ****  *
1926:C:/Users/Utente/Desktop/Tesi/Firmware_Software/DAVE project/S2GLP_Pulsed_Doppler/Libraries/XMCLib/inc\xmc4_scu.h ****  * @return None
1927:C:/Users/Utente/Desktop/Tesi/Firmware_Software/DAVE project/S2GLP_Pulsed_Doppler/Libraries/XMCLib/inc\xmc4_scu.h ****  *
1928:C:/Users/Utente/Desktop/Tesi/Firmware_Software/DAVE project/S2GLP_Pulsed_Doppler/Libraries/XMCLib/inc\xmc4_scu.h ****  * \par<b>Description</b><br>
1929:C:/Users/Utente/Desktop/Tesi/Firmware_Software/DAVE project/S2GLP_Pulsed_Doppler/Libraries/XMCLib/inc\xmc4_scu.h ****  * Selects the source of ECAT clock (fECAT).\n\n
1930:C:/Users/Utente/Desktop/Tesi/Firmware_Software/DAVE project/S2GLP_Pulsed_Doppler/Libraries/XMCLib/inc\xmc4_scu.h ****  * The value is configured to \a ECATSEL bit of \a ECATCLKCR register.
1931:C:/Users/Utente/Desktop/Tesi/Firmware_Software/DAVE project/S2GLP_Pulsed_Doppler/Libraries/XMCLib/inc\xmc4_scu.h ****  * \par<b>Related APIs:</b><BR>
1932:C:/Users/Utente/Desktop/Tesi/Firmware_Software/DAVE project/S2GLP_Pulsed_Doppler/Libraries/XMCLib/inc\xmc4_scu.h ****  * XMC_SCU_CLOCK_GetECATClockSource() \n\n\n
1933:C:/Users/Utente/Desktop/Tesi/Firmware_Software/DAVE project/S2GLP_Pulsed_Doppler/Libraries/XMCLib/inc\xmc4_scu.h ****  */
1934:C:/Users/Utente/Desktop/Tesi/Firmware_Software/DAVE project/S2GLP_Pulsed_Doppler/Libraries/XMCLib/inc\xmc4_scu.h **** __STATIC_INLINE void XMC_SCU_CLOCK_SetECATClockSource(const XMC_SCU_CLOCK_ECATCLKSRC_t source)
1935:C:/Users/Utente/Desktop/Tesi/Firmware_Software/DAVE project/S2GLP_Pulsed_Doppler/Libraries/XMCLib/inc\xmc4_scu.h **** {
1936:C:/Users/Utente/Desktop/Tesi/Firmware_Software/DAVE project/S2GLP_Pulsed_Doppler/Libraries/XMCLib/inc\xmc4_scu.h ****   SCU_CLK->ECATCLKCR = (SCU_CLK->ECATCLKCR & ((uint32_t)~SCU_CLK_ECATCLKCR_ECATSEL_Msk)) |
1937:C:/Users/Utente/Desktop/Tesi/Firmware_Software/DAVE project/S2GLP_Pulsed_Doppler/Libraries/XMCLib/inc\xmc4_scu.h ****                       ((uint32_t)source);
1938:C:/Users/Utente/Desktop/Tesi/Firmware_Software/DAVE project/S2GLP_Pulsed_Doppler/Libraries/XMCLib/inc\xmc4_scu.h **** }
1939:C:/Users/Utente/Desktop/Tesi/Firmware_Software/DAVE project/S2GLP_Pulsed_Doppler/Libraries/XMCLib/inc\xmc4_scu.h **** 
1940:C:/Users/Utente/Desktop/Tesi/Firmware_Software/DAVE project/S2GLP_Pulsed_Doppler/Libraries/XMCLib/inc\xmc4_scu.h **** /**
1941:C:/Users/Utente/Desktop/Tesi/Firmware_Software/DAVE project/S2GLP_Pulsed_Doppler/Libraries/XMCLib/inc\xmc4_scu.h ****  * @return XMC_SCU_CLOCK_ECATCLKSRC_t   Source of ECAT clock.\n
1942:C:/Users/Utente/Desktop/Tesi/Firmware_Software/DAVE project/S2GLP_Pulsed_Doppler/Libraries/XMCLib/inc\xmc4_scu.h ****  *            \b Range: Use type @ref XMC_SCU_CLOCK_ECATCLKSRC_t to identify the clock source.\n
1943:C:/Users/Utente/Desktop/Tesi/Firmware_Software/DAVE project/S2GLP_Pulsed_Doppler/Libraries/XMCLib/inc\xmc4_scu.h ****  *                       XMC_SCU_CLOCK_ECATCLKSRC_USBPLL - USB PLL (fUSBPLL) as a source for ECAT c
1944:C:/Users/Utente/Desktop/Tesi/Firmware_Software/DAVE project/S2GLP_Pulsed_Doppler/Libraries/XMCLib/inc\xmc4_scu.h ****  *                       XMC_SCU_CLOCK_ECATCLKSRC_SYSPLL - Main PLL output (fPLL) as a source for E
1945:C:/Users/Utente/Desktop/Tesi/Firmware_Software/DAVE project/S2GLP_Pulsed_Doppler/Libraries/XMCLib/inc\xmc4_scu.h ****  *
1946:C:/Users/Utente/Desktop/Tesi/Firmware_Software/DAVE project/S2GLP_Pulsed_Doppler/Libraries/XMCLib/inc\xmc4_scu.h ****  * \par<b>Description</b><br>
1947:C:/Users/Utente/Desktop/Tesi/Firmware_Software/DAVE project/S2GLP_Pulsed_Doppler/Libraries/XMCLib/inc\xmc4_scu.h ****  * Provides the source of ECAT clock (fECAT).
1948:C:/Users/Utente/Desktop/Tesi/Firmware_Software/DAVE project/S2GLP_Pulsed_Doppler/Libraries/XMCLib/inc\xmc4_scu.h ****  * The value is obtained by reading \a ECATSEL bit of \a ECATCLKCR register.
1949:C:/Users/Utente/Desktop/Tesi/Firmware_Software/DAVE project/S2GLP_Pulsed_Doppler/Libraries/XMCLib/inc\xmc4_scu.h ****  * \par<b>Related APIs:</b><BR>
1950:C:/Users/Utente/Desktop/Tesi/Firmware_Software/DAVE project/S2GLP_Pulsed_Doppler/Libraries/XMCLib/inc\xmc4_scu.h ****  * XMC_SCU_HIB_SetRtcClockSource() \n\n\n
1951:C:/Users/Utente/Desktop/Tesi/Firmware_Software/DAVE project/S2GLP_Pulsed_Doppler/Libraries/XMCLib/inc\xmc4_scu.h ****  */
1952:C:/Users/Utente/Desktop/Tesi/Firmware_Software/DAVE project/S2GLP_Pulsed_Doppler/Libraries/XMCLib/inc\xmc4_scu.h **** __STATIC_INLINE XMC_SCU_CLOCK_ECATCLKSRC_t XMC_SCU_CLOCK_GetECATClockSource(void)
1953:C:/Users/Utente/Desktop/Tesi/Firmware_Software/DAVE project/S2GLP_Pulsed_Doppler/Libraries/XMCLib/inc\xmc4_scu.h **** {
1954:C:/Users/Utente/Desktop/Tesi/Firmware_Software/DAVE project/S2GLP_Pulsed_Doppler/Libraries/XMCLib/inc\xmc4_scu.h ****   return (XMC_SCU_CLOCK_ECATCLKSRC_t)((SCU_CLK->ECATCLKCR & SCU_CLK_ECATCLKCR_ECATSEL_Msk) >> SCU_C
1955:C:/Users/Utente/Desktop/Tesi/Firmware_Software/DAVE project/S2GLP_Pulsed_Doppler/Libraries/XMCLib/inc\xmc4_scu.h **** }
1956:C:/Users/Utente/Desktop/Tesi/Firmware_Software/DAVE project/S2GLP_Pulsed_Doppler/Libraries/XMCLib/inc\xmc4_scu.h **** #endif
1957:C:/Users/Utente/Desktop/Tesi/Firmware_Software/DAVE project/S2GLP_Pulsed_Doppler/Libraries/XMCLib/inc\xmc4_scu.h **** 
1958:C:/Users/Utente/Desktop/Tesi/Firmware_Software/DAVE project/S2GLP_Pulsed_Doppler/Libraries/XMCLib/inc\xmc4_scu.h **** /**
1959:C:/Users/Utente/Desktop/Tesi/Firmware_Software/DAVE project/S2GLP_Pulsed_Doppler/Libraries/XMCLib/inc\xmc4_scu.h ****  *
1960:C:/Users/Utente/Desktop/Tesi/Firmware_Software/DAVE project/S2GLP_Pulsed_Doppler/Libraries/XMCLib/inc\xmc4_scu.h ****  * @param divider   Ratio of fSYS clock source to the value of fSYS.
1961:C:/Users/Utente/Desktop/Tesi/Firmware_Software/DAVE project/S2GLP_Pulsed_Doppler/Libraries/XMCLib/inc\xmc4_scu.h ****  *              \b Range: 1 to 256.
1962:C:/Users/Utente/Desktop/Tesi/Firmware_Software/DAVE project/S2GLP_Pulsed_Doppler/Libraries/XMCLib/inc\xmc4_scu.h ****  *
1963:C:/Users/Utente/Desktop/Tesi/Firmware_Software/DAVE project/S2GLP_Pulsed_Doppler/Libraries/XMCLib/inc\xmc4_scu.h ****  * @return None
1964:C:/Users/Utente/Desktop/Tesi/Firmware_Software/DAVE project/S2GLP_Pulsed_Doppler/Libraries/XMCLib/inc\xmc4_scu.h ****  *
1965:C:/Users/Utente/Desktop/Tesi/Firmware_Software/DAVE project/S2GLP_Pulsed_Doppler/Libraries/XMCLib/inc\xmc4_scu.h ****  * \par<b>Description</b><br>
1966:C:/Users/Utente/Desktop/Tesi/Firmware_Software/DAVE project/S2GLP_Pulsed_Doppler/Libraries/XMCLib/inc\xmc4_scu.h ****  * Configures the ratio of system clock source to the value of system clock frequency.\n\n
1967:C:/Users/Utente/Desktop/Tesi/Firmware_Software/DAVE project/S2GLP_Pulsed_Doppler/Libraries/XMCLib/inc\xmc4_scu.h ****  * The value is configured as \a SYSDIV bits of \a SYSCLKCR register. The divider value is 
1968:C:/Users/Utente/Desktop/Tesi/Firmware_Software/DAVE project/S2GLP_Pulsed_Doppler/Libraries/XMCLib/inc\xmc4_scu.h ****  * decremented by 1 before configuring.
1969:C:/Users/Utente/Desktop/Tesi/Firmware_Software/DAVE project/S2GLP_Pulsed_Doppler/Libraries/XMCLib/inc\xmc4_scu.h ****  * \par<b>Related APIs:</b><BR>
1970:C:/Users/Utente/Desktop/Tesi/Firmware_Software/DAVE project/S2GLP_Pulsed_Doppler/Libraries/XMCLib/inc\xmc4_scu.h ****  * XMC_SCU_CLOCK_GetSystemClockDivider(),  XMC_SCU_CLOCK_SetSystemClockSource() \n\n\n
1971:C:/Users/Utente/Desktop/Tesi/Firmware_Software/DAVE project/S2GLP_Pulsed_Doppler/Libraries/XMCLib/inc\xmc4_scu.h ****  */
1972:C:/Users/Utente/Desktop/Tesi/Firmware_Software/DAVE project/S2GLP_Pulsed_Doppler/Libraries/XMCLib/inc\xmc4_scu.h **** void XMC_SCU_CLOCK_SetSystemClockDivider(const uint32_t divider);
1973:C:/Users/Utente/Desktop/Tesi/Firmware_Software/DAVE project/S2GLP_Pulsed_Doppler/Libraries/XMCLib/inc\xmc4_scu.h **** 
1974:C:/Users/Utente/Desktop/Tesi/Firmware_Software/DAVE project/S2GLP_Pulsed_Doppler/Libraries/XMCLib/inc\xmc4_scu.h **** /**
1975:C:/Users/Utente/Desktop/Tesi/Firmware_Software/DAVE project/S2GLP_Pulsed_Doppler/Libraries/XMCLib/inc\xmc4_scu.h ****  * @return uint32_t   Ratio of fSYS clock source to the value of fSYS.
1976:C:/Users/Utente/Desktop/Tesi/Firmware_Software/DAVE project/S2GLP_Pulsed_Doppler/Libraries/XMCLib/inc\xmc4_scu.h ****  *              \b Range: 0 to 255.
1977:C:/Users/Utente/Desktop/Tesi/Firmware_Software/DAVE project/S2GLP_Pulsed_Doppler/Libraries/XMCLib/inc\xmc4_scu.h ****  *
1978:C:/Users/Utente/Desktop/Tesi/Firmware_Software/DAVE project/S2GLP_Pulsed_Doppler/Libraries/XMCLib/inc\xmc4_scu.h ****  * \par<b>Description</b><br>
1979:C:/Users/Utente/Desktop/Tesi/Firmware_Software/DAVE project/S2GLP_Pulsed_Doppler/Libraries/XMCLib/inc\xmc4_scu.h ****  * Provides the value of ratio between the source of system clock to the the value of system clock 
1980:C:/Users/Utente/Desktop/Tesi/Firmware_Software/DAVE project/S2GLP_Pulsed_Doppler/Libraries/XMCLib/inc\xmc4_scu.h ****  * The value is obtained by reading \a SYSDIV bits of \a SYSCLKCR register.
1981:C:/Users/Utente/Desktop/Tesi/Firmware_Software/DAVE project/S2GLP_Pulsed_Doppler/Libraries/XMCLib/inc\xmc4_scu.h ****  * \par<b>Related APIs:</b><BR>
1982:C:/Users/Utente/Desktop/Tesi/Firmware_Software/DAVE project/S2GLP_Pulsed_Doppler/Libraries/XMCLib/inc\xmc4_scu.h ****  * XMC_SCU_CLOCK_SetSystemClockDivider(),  XMC_SCU_CLOCK_SetSystemClockSource() \n\n\n
1983:C:/Users/Utente/Desktop/Tesi/Firmware_Software/DAVE project/S2GLP_Pulsed_Doppler/Libraries/XMCLib/inc\xmc4_scu.h ****  */
1984:C:/Users/Utente/Desktop/Tesi/Firmware_Software/DAVE project/S2GLP_Pulsed_Doppler/Libraries/XMCLib/inc\xmc4_scu.h **** __STATIC_INLINE uint32_t XMC_SCU_CLOCK_GetSystemClockDivider(void)
1985:C:/Users/Utente/Desktop/Tesi/Firmware_Software/DAVE project/S2GLP_Pulsed_Doppler/Libraries/XMCLib/inc\xmc4_scu.h **** {
1986:C:/Users/Utente/Desktop/Tesi/Firmware_Software/DAVE project/S2GLP_Pulsed_Doppler/Libraries/XMCLib/inc\xmc4_scu.h ****   return (uint32_t)((SCU_CLK->SYSCLKCR & SCU_CLK_SYSCLKCR_SYSDIV_Msk) >> SCU_CLK_SYSCLKCR_SYSDIV_Po
1987:C:/Users/Utente/Desktop/Tesi/Firmware_Software/DAVE project/S2GLP_Pulsed_Doppler/Libraries/XMCLib/inc\xmc4_scu.h **** }
1988:C:/Users/Utente/Desktop/Tesi/Firmware_Software/DAVE project/S2GLP_Pulsed_Doppler/Libraries/XMCLib/inc\xmc4_scu.h **** 
1989:C:/Users/Utente/Desktop/Tesi/Firmware_Software/DAVE project/S2GLP_Pulsed_Doppler/Libraries/XMCLib/inc\xmc4_scu.h **** /**
1990:C:/Users/Utente/Desktop/Tesi/Firmware_Software/DAVE project/S2GLP_Pulsed_Doppler/Libraries/XMCLib/inc\xmc4_scu.h ****  *
1991:C:/Users/Utente/Desktop/Tesi/Firmware_Software/DAVE project/S2GLP_Pulsed_Doppler/Libraries/XMCLib/inc\xmc4_scu.h ****  * @param ratio  Ratio of fCCU clock source to the value of fCCU.
1992:C:/Users/Utente/Desktop/Tesi/Firmware_Software/DAVE project/S2GLP_Pulsed_Doppler/Libraries/XMCLib/inc\xmc4_scu.h ****  *              \b Range: 1 or 2.\n
1993:C:/Users/Utente/Desktop/Tesi/Firmware_Software/DAVE project/S2GLP_Pulsed_Doppler/Libraries/XMCLib/inc\xmc4_scu.h ****  *                  1-> fCCU= fSYS \n
1994:C:/Users/Utente/Desktop/Tesi/Firmware_Software/DAVE project/S2GLP_Pulsed_Doppler/Libraries/XMCLib/inc\xmc4_scu.h ****  *                  2-> fCCU= fSYS/2.
1995:C:/Users/Utente/Desktop/Tesi/Firmware_Software/DAVE project/S2GLP_Pulsed_Doppler/Libraries/XMCLib/inc\xmc4_scu.h ****  *
1996:C:/Users/Utente/Desktop/Tesi/Firmware_Software/DAVE project/S2GLP_Pulsed_Doppler/Libraries/XMCLib/inc\xmc4_scu.h ****  * @return None
1997:C:/Users/Utente/Desktop/Tesi/Firmware_Software/DAVE project/S2GLP_Pulsed_Doppler/Libraries/XMCLib/inc\xmc4_scu.h ****  *
1998:C:/Users/Utente/Desktop/Tesi/Firmware_Software/DAVE project/S2GLP_Pulsed_Doppler/Libraries/XMCLib/inc\xmc4_scu.h ****  * \par<b>Description</b><br>
1999:C:/Users/Utente/Desktop/Tesi/Firmware_Software/DAVE project/S2GLP_Pulsed_Doppler/Libraries/XMCLib/inc\xmc4_scu.h ****  * Configures the divider for CCU clock source. \n\n
2000:C:/Users/Utente/Desktop/Tesi/Firmware_Software/DAVE project/S2GLP_Pulsed_Doppler/Libraries/XMCLib/inc\xmc4_scu.h ****  * Capture compare unit(CCU) can take either fSYS or fSYS/2 as the source of clock.
2001:C:/Users/Utente/Desktop/Tesi/Firmware_Software/DAVE project/S2GLP_Pulsed_Doppler/Libraries/XMCLib/inc\xmc4_scu.h ****  * The configuration is set to \a CCUDIV bit of \a CCUCLKCR register. The CCUDIV bit is 1 bit wide.
2002:C:/Users/Utente/Desktop/Tesi/Firmware_Software/DAVE project/S2GLP_Pulsed_Doppler/Libraries/XMCLib/inc\xmc4_scu.h ****  *
2003:C:/Users/Utente/Desktop/Tesi/Firmware_Software/DAVE project/S2GLP_Pulsed_Doppler/Libraries/XMCLib/inc\xmc4_scu.h ****  * \par<b>Related APIs:</b><BR>
2004:C:/Users/Utente/Desktop/Tesi/Firmware_Software/DAVE project/S2GLP_Pulsed_Doppler/Libraries/XMCLib/inc\xmc4_scu.h ****  * XMC_SCU_CLOCK_GetCcuClockDivider() \n\n\n
2005:C:/Users/Utente/Desktop/Tesi/Firmware_Software/DAVE project/S2GLP_Pulsed_Doppler/Libraries/XMCLib/inc\xmc4_scu.h ****  */
2006:C:/Users/Utente/Desktop/Tesi/Firmware_Software/DAVE project/S2GLP_Pulsed_Doppler/Libraries/XMCLib/inc\xmc4_scu.h **** void XMC_SCU_CLOCK_SetCcuClockDivider(const uint32_t ratio);
2007:C:/Users/Utente/Desktop/Tesi/Firmware_Software/DAVE project/S2GLP_Pulsed_Doppler/Libraries/XMCLib/inc\xmc4_scu.h **** 
2008:C:/Users/Utente/Desktop/Tesi/Firmware_Software/DAVE project/S2GLP_Pulsed_Doppler/Libraries/XMCLib/inc\xmc4_scu.h **** /**
2009:C:/Users/Utente/Desktop/Tesi/Firmware_Software/DAVE project/S2GLP_Pulsed_Doppler/Libraries/XMCLib/inc\xmc4_scu.h ****  * @return uint32_t  Ratio of fCCU clock source to the value of fCCU.
2010:C:/Users/Utente/Desktop/Tesi/Firmware_Software/DAVE project/S2GLP_Pulsed_Doppler/Libraries/XMCLib/inc\xmc4_scu.h ****  *              \b Range: 0 or 1.\n
2011:C:/Users/Utente/Desktop/Tesi/Firmware_Software/DAVE project/S2GLP_Pulsed_Doppler/Libraries/XMCLib/inc\xmc4_scu.h ****  *                  0-> fCCU= fSYS \n
2012:C:/Users/Utente/Desktop/Tesi/Firmware_Software/DAVE project/S2GLP_Pulsed_Doppler/Libraries/XMCLib/inc\xmc4_scu.h ****  *                  1-> fCCU= fSYS/2.
2013:C:/Users/Utente/Desktop/Tesi/Firmware_Software/DAVE project/S2GLP_Pulsed_Doppler/Libraries/XMCLib/inc\xmc4_scu.h ****  *
2014:C:/Users/Utente/Desktop/Tesi/Firmware_Software/DAVE project/S2GLP_Pulsed_Doppler/Libraries/XMCLib/inc\xmc4_scu.h ****  * \par<b>Description</b><br>
2015:C:/Users/Utente/Desktop/Tesi/Firmware_Software/DAVE project/S2GLP_Pulsed_Doppler/Libraries/XMCLib/inc\xmc4_scu.h ****  * Provides the ratio of CCU clock(fCCU) to system clock(fSYS).\n\n
2016:C:/Users/Utente/Desktop/Tesi/Firmware_Software/DAVE project/S2GLP_Pulsed_Doppler/Libraries/XMCLib/inc\xmc4_scu.h ****  * The value is obtained by reading \a CCUDIV bit of \a CCUCLKCR register.
2017:C:/Users/Utente/Desktop/Tesi/Firmware_Software/DAVE project/S2GLP_Pulsed_Doppler/Libraries/XMCLib/inc\xmc4_scu.h ****  *
2018:C:/Users/Utente/Desktop/Tesi/Firmware_Software/DAVE project/S2GLP_Pulsed_Doppler/Libraries/XMCLib/inc\xmc4_scu.h ****  * \par<b>Related APIs:</b><BR>
2019:C:/Users/Utente/Desktop/Tesi/Firmware_Software/DAVE project/S2GLP_Pulsed_Doppler/Libraries/XMCLib/inc\xmc4_scu.h ****  * XMC_SCU_CLOCK_SetCcuClockDivider() \n\n\n
2020:C:/Users/Utente/Desktop/Tesi/Firmware_Software/DAVE project/S2GLP_Pulsed_Doppler/Libraries/XMCLib/inc\xmc4_scu.h ****  */
2021:C:/Users/Utente/Desktop/Tesi/Firmware_Software/DAVE project/S2GLP_Pulsed_Doppler/Libraries/XMCLib/inc\xmc4_scu.h **** __STATIC_INLINE uint32_t XMC_SCU_CLOCK_GetCcuClockDivider(void)
2022:C:/Users/Utente/Desktop/Tesi/Firmware_Software/DAVE project/S2GLP_Pulsed_Doppler/Libraries/XMCLib/inc\xmc4_scu.h **** {
2023:C:/Users/Utente/Desktop/Tesi/Firmware_Software/DAVE project/S2GLP_Pulsed_Doppler/Libraries/XMCLib/inc\xmc4_scu.h ****   return (uint32_t)((SCU_CLK->CCUCLKCR & SCU_CLK_CCUCLKCR_CCUDIV_Msk) >> SCU_CLK_CCUCLKCR_CCUDIV_Po
2024:C:/Users/Utente/Desktop/Tesi/Firmware_Software/DAVE project/S2GLP_Pulsed_Doppler/Libraries/XMCLib/inc\xmc4_scu.h **** }
2025:C:/Users/Utente/Desktop/Tesi/Firmware_Software/DAVE project/S2GLP_Pulsed_Doppler/Libraries/XMCLib/inc\xmc4_scu.h **** 
2026:C:/Users/Utente/Desktop/Tesi/Firmware_Software/DAVE project/S2GLP_Pulsed_Doppler/Libraries/XMCLib/inc\xmc4_scu.h **** /**
2027:C:/Users/Utente/Desktop/Tesi/Firmware_Software/DAVE project/S2GLP_Pulsed_Doppler/Libraries/XMCLib/inc\xmc4_scu.h ****  *
2028:C:/Users/Utente/Desktop/Tesi/Firmware_Software/DAVE project/S2GLP_Pulsed_Doppler/Libraries/XMCLib/inc\xmc4_scu.h ****  * @param ratio  Ratio between system clock(fSYS) and CPU clock(fCPU).
2029:C:/Users/Utente/Desktop/Tesi/Firmware_Software/DAVE project/S2GLP_Pulsed_Doppler/Libraries/XMCLib/inc\xmc4_scu.h ****  *          \b Range: 1 or 2.\n
2030:C:/Users/Utente/Desktop/Tesi/Firmware_Software/DAVE project/S2GLP_Pulsed_Doppler/Libraries/XMCLib/inc\xmc4_scu.h ****  *            1-> fCPU= fSYS. \n
2031:C:/Users/Utente/Desktop/Tesi/Firmware_Software/DAVE project/S2GLP_Pulsed_Doppler/Libraries/XMCLib/inc\xmc4_scu.h ****  *            2-> fCPU= fSYS/2.
2032:C:/Users/Utente/Desktop/Tesi/Firmware_Software/DAVE project/S2GLP_Pulsed_Doppler/Libraries/XMCLib/inc\xmc4_scu.h ****  *
2033:C:/Users/Utente/Desktop/Tesi/Firmware_Software/DAVE project/S2GLP_Pulsed_Doppler/Libraries/XMCLib/inc\xmc4_scu.h ****  * @return None
2034:C:/Users/Utente/Desktop/Tesi/Firmware_Software/DAVE project/S2GLP_Pulsed_Doppler/Libraries/XMCLib/inc\xmc4_scu.h ****  *
2035:C:/Users/Utente/Desktop/Tesi/Firmware_Software/DAVE project/S2GLP_Pulsed_Doppler/Libraries/XMCLib/inc\xmc4_scu.h ****  * \par<b>Description</b><br>
2036:C:/Users/Utente/Desktop/Tesi/Firmware_Software/DAVE project/S2GLP_Pulsed_Doppler/Libraries/XMCLib/inc\xmc4_scu.h ****  * Configures the CPU clock by setting the divider value for the system clock. \n\n
2037:C:/Users/Utente/Desktop/Tesi/Firmware_Software/DAVE project/S2GLP_Pulsed_Doppler/Libraries/XMCLib/inc\xmc4_scu.h ****  * The value is set to the \a CPUDIV bit of \a CPUCLKCR register.
2038:C:/Users/Utente/Desktop/Tesi/Firmware_Software/DAVE project/S2GLP_Pulsed_Doppler/Libraries/XMCLib/inc\xmc4_scu.h ****  * \par<b>Related APIs:</b><BR>
2039:C:/Users/Utente/Desktop/Tesi/Firmware_Software/DAVE project/S2GLP_Pulsed_Doppler/Libraries/XMCLib/inc\xmc4_scu.h ****  * XMC_SCU_CLOCK_GetCpuClockDivider() \n\n\n
2040:C:/Users/Utente/Desktop/Tesi/Firmware_Software/DAVE project/S2GLP_Pulsed_Doppler/Libraries/XMCLib/inc\xmc4_scu.h ****  */
2041:C:/Users/Utente/Desktop/Tesi/Firmware_Software/DAVE project/S2GLP_Pulsed_Doppler/Libraries/XMCLib/inc\xmc4_scu.h **** void XMC_SCU_CLOCK_SetCpuClockDivider(const uint32_t ratio);
2042:C:/Users/Utente/Desktop/Tesi/Firmware_Software/DAVE project/S2GLP_Pulsed_Doppler/Libraries/XMCLib/inc\xmc4_scu.h **** 
2043:C:/Users/Utente/Desktop/Tesi/Firmware_Software/DAVE project/S2GLP_Pulsed_Doppler/Libraries/XMCLib/inc\xmc4_scu.h **** /**
2044:C:/Users/Utente/Desktop/Tesi/Firmware_Software/DAVE project/S2GLP_Pulsed_Doppler/Libraries/XMCLib/inc\xmc4_scu.h ****  * @return uint32_t   Ratio between system clock(fSYS) and CPU clock(fCPU).
2045:C:/Users/Utente/Desktop/Tesi/Firmware_Software/DAVE project/S2GLP_Pulsed_Doppler/Libraries/XMCLib/inc\xmc4_scu.h ****  *          \b Range: 0 or 1.\n
2046:C:/Users/Utente/Desktop/Tesi/Firmware_Software/DAVE project/S2GLP_Pulsed_Doppler/Libraries/XMCLib/inc\xmc4_scu.h ****  *            0-> fCPU= fSYS. \n
2047:C:/Users/Utente/Desktop/Tesi/Firmware_Software/DAVE project/S2GLP_Pulsed_Doppler/Libraries/XMCLib/inc\xmc4_scu.h ****  *            1-> fCPU= fSYS/2.
2048:C:/Users/Utente/Desktop/Tesi/Firmware_Software/DAVE project/S2GLP_Pulsed_Doppler/Libraries/XMCLib/inc\xmc4_scu.h ****  *
2049:C:/Users/Utente/Desktop/Tesi/Firmware_Software/DAVE project/S2GLP_Pulsed_Doppler/Libraries/XMCLib/inc\xmc4_scu.h ****  * \par<b>Description</b><br>
2050:C:/Users/Utente/Desktop/Tesi/Firmware_Software/DAVE project/S2GLP_Pulsed_Doppler/Libraries/XMCLib/inc\xmc4_scu.h ****  * Provides the ratio between system clock(fSYS) and CPU clock(fCPU). \n\n
2051:C:/Users/Utente/Desktop/Tesi/Firmware_Software/DAVE project/S2GLP_Pulsed_Doppler/Libraries/XMCLib/inc\xmc4_scu.h ****  * The value is obtained by reading \a CPUDIV bit of \a CPUCLKCR register.
2052:C:/Users/Utente/Desktop/Tesi/Firmware_Software/DAVE project/S2GLP_Pulsed_Doppler/Libraries/XMCLib/inc\xmc4_scu.h ****  * \par<b>Related APIs:</b><BR>
2053:C:/Users/Utente/Desktop/Tesi/Firmware_Software/DAVE project/S2GLP_Pulsed_Doppler/Libraries/XMCLib/inc\xmc4_scu.h ****  * XMC_SCU_CLOCK_SetCpuClockDivider() \n\n\n
2054:C:/Users/Utente/Desktop/Tesi/Firmware_Software/DAVE project/S2GLP_Pulsed_Doppler/Libraries/XMCLib/inc\xmc4_scu.h ****  */
2055:C:/Users/Utente/Desktop/Tesi/Firmware_Software/DAVE project/S2GLP_Pulsed_Doppler/Libraries/XMCLib/inc\xmc4_scu.h **** __STATIC_INLINE uint32_t XMC_SCU_CLOCK_GetCpuClockDivider(void)
2056:C:/Users/Utente/Desktop/Tesi/Firmware_Software/DAVE project/S2GLP_Pulsed_Doppler/Libraries/XMCLib/inc\xmc4_scu.h **** {
2057:C:/Users/Utente/Desktop/Tesi/Firmware_Software/DAVE project/S2GLP_Pulsed_Doppler/Libraries/XMCLib/inc\xmc4_scu.h ****   return (uint32_t)((SCU_CLK->CPUCLKCR & SCU_CLK_CPUCLKCR_CPUDIV_Msk) >> SCU_CLK_CPUCLKCR_CPUDIV_Po
2058:C:/Users/Utente/Desktop/Tesi/Firmware_Software/DAVE project/S2GLP_Pulsed_Doppler/Libraries/XMCLib/inc\xmc4_scu.h **** }
2059:C:/Users/Utente/Desktop/Tesi/Firmware_Software/DAVE project/S2GLP_Pulsed_Doppler/Libraries/XMCLib/inc\xmc4_scu.h **** 
2060:C:/Users/Utente/Desktop/Tesi/Firmware_Software/DAVE project/S2GLP_Pulsed_Doppler/Libraries/XMCLib/inc\xmc4_scu.h **** /**
2061:C:/Users/Utente/Desktop/Tesi/Firmware_Software/DAVE project/S2GLP_Pulsed_Doppler/Libraries/XMCLib/inc\xmc4_scu.h ****  *
2062:C:/Users/Utente/Desktop/Tesi/Firmware_Software/DAVE project/S2GLP_Pulsed_Doppler/Libraries/XMCLib/inc\xmc4_scu.h ****  * @param ratio  Ratio of peripheral clock source to the value of peripheral clock.\n
2063:C:/Users/Utente/Desktop/Tesi/Firmware_Software/DAVE project/S2GLP_Pulsed_Doppler/Libraries/XMCLib/inc\xmc4_scu.h ****  *          \b Range: 1 or 2.\n
2064:C:/Users/Utente/Desktop/Tesi/Firmware_Software/DAVE project/S2GLP_Pulsed_Doppler/Libraries/XMCLib/inc\xmc4_scu.h ****  *                1-> fPERIPH= fCPU.\n
2065:C:/Users/Utente/Desktop/Tesi/Firmware_Software/DAVE project/S2GLP_Pulsed_Doppler/Libraries/XMCLib/inc\xmc4_scu.h ****  *                2-> fPERIPH= fCPU/2.
2066:C:/Users/Utente/Desktop/Tesi/Firmware_Software/DAVE project/S2GLP_Pulsed_Doppler/Libraries/XMCLib/inc\xmc4_scu.h ****  *
2067:C:/Users/Utente/Desktop/Tesi/Firmware_Software/DAVE project/S2GLP_Pulsed_Doppler/Libraries/XMCLib/inc\xmc4_scu.h ****  * @return None
2068:C:/Users/Utente/Desktop/Tesi/Firmware_Software/DAVE project/S2GLP_Pulsed_Doppler/Libraries/XMCLib/inc\xmc4_scu.h ****  *
2069:C:/Users/Utente/Desktop/Tesi/Firmware_Software/DAVE project/S2GLP_Pulsed_Doppler/Libraries/XMCLib/inc\xmc4_scu.h ****  * \par<b>Description</b><br>
2070:C:/Users/Utente/Desktop/Tesi/Firmware_Software/DAVE project/S2GLP_Pulsed_Doppler/Libraries/XMCLib/inc\xmc4_scu.h ****  * Configures the peripheral clock by setting the divider for CPU clock(fCPU).\n\n
2071:C:/Users/Utente/Desktop/Tesi/Firmware_Software/DAVE project/S2GLP_Pulsed_Doppler/Libraries/XMCLib/inc\xmc4_scu.h ****  * The peripheral clock can be equal to either fCPU or fCPU/2. The value is configured to \a PBDIV 
2072:C:/Users/Utente/Desktop/Tesi/Firmware_Software/DAVE project/S2GLP_Pulsed_Doppler/Libraries/XMCLib/inc\xmc4_scu.h ****  *
2073:C:/Users/Utente/Desktop/Tesi/Firmware_Software/DAVE project/S2GLP_Pulsed_Doppler/Libraries/XMCLib/inc\xmc4_scu.h ****  * \par<b>Related APIs:</b><BR>
2074:C:/Users/Utente/Desktop/Tesi/Firmware_Software/DAVE project/S2GLP_Pulsed_Doppler/Libraries/XMCLib/inc\xmc4_scu.h ****  * XMC_SCU_CLOCK_GetPeripheralClockDivider() \n\n\n
2075:C:/Users/Utente/Desktop/Tesi/Firmware_Software/DAVE project/S2GLP_Pulsed_Doppler/Libraries/XMCLib/inc\xmc4_scu.h ****  */
2076:C:/Users/Utente/Desktop/Tesi/Firmware_Software/DAVE project/S2GLP_Pulsed_Doppler/Libraries/XMCLib/inc\xmc4_scu.h **** void XMC_SCU_CLOCK_SetPeripheralClockDivider(const uint32_t ratio);
2077:C:/Users/Utente/Desktop/Tesi/Firmware_Software/DAVE project/S2GLP_Pulsed_Doppler/Libraries/XMCLib/inc\xmc4_scu.h **** 
2078:C:/Users/Utente/Desktop/Tesi/Firmware_Software/DAVE project/S2GLP_Pulsed_Doppler/Libraries/XMCLib/inc\xmc4_scu.h **** /**
2079:C:/Users/Utente/Desktop/Tesi/Firmware_Software/DAVE project/S2GLP_Pulsed_Doppler/Libraries/XMCLib/inc\xmc4_scu.h ****  * @return uint32_t  Ratio of peripheral clock source to the value of peripheral clock.\n
2080:C:/Users/Utente/Desktop/Tesi/Firmware_Software/DAVE project/S2GLP_Pulsed_Doppler/Libraries/XMCLib/inc\xmc4_scu.h ****  *          \b Range: 0 or 1.\n
2081:C:/Users/Utente/Desktop/Tesi/Firmware_Software/DAVE project/S2GLP_Pulsed_Doppler/Libraries/XMCLib/inc\xmc4_scu.h ****  *                0-> fPERIPH= fCPU.\n
2082:C:/Users/Utente/Desktop/Tesi/Firmware_Software/DAVE project/S2GLP_Pulsed_Doppler/Libraries/XMCLib/inc\xmc4_scu.h ****  *                1-> fPERIPH= fCPU/2.
2083:C:/Users/Utente/Desktop/Tesi/Firmware_Software/DAVE project/S2GLP_Pulsed_Doppler/Libraries/XMCLib/inc\xmc4_scu.h ****  *
2084:C:/Users/Utente/Desktop/Tesi/Firmware_Software/DAVE project/S2GLP_Pulsed_Doppler/Libraries/XMCLib/inc\xmc4_scu.h ****  * \par<b>Description</b><br>
2085:C:/Users/Utente/Desktop/Tesi/Firmware_Software/DAVE project/S2GLP_Pulsed_Doppler/Libraries/XMCLib/inc\xmc4_scu.h ****  * Provides the ratio of CPU clock(fCPU) to peripheral clock(fPERIPH).\n\n
2086:C:/Users/Utente/Desktop/Tesi/Firmware_Software/DAVE project/S2GLP_Pulsed_Doppler/Libraries/XMCLib/inc\xmc4_scu.h ****  * The value is obtained by reading \a PBDIV bit of \a PBCLKCR register.
2087:C:/Users/Utente/Desktop/Tesi/Firmware_Software/DAVE project/S2GLP_Pulsed_Doppler/Libraries/XMCLib/inc\xmc4_scu.h ****  * \par<b>Related APIs:</b><BR>
2088:C:/Users/Utente/Desktop/Tesi/Firmware_Software/DAVE project/S2GLP_Pulsed_Doppler/Libraries/XMCLib/inc\xmc4_scu.h ****  * XMC_SCU_CLOCK_SetPeripheralClockDivider() \n\n\n
2089:C:/Users/Utente/Desktop/Tesi/Firmware_Software/DAVE project/S2GLP_Pulsed_Doppler/Libraries/XMCLib/inc\xmc4_scu.h ****  */
2090:C:/Users/Utente/Desktop/Tesi/Firmware_Software/DAVE project/S2GLP_Pulsed_Doppler/Libraries/XMCLib/inc\xmc4_scu.h **** __STATIC_INLINE uint32_t XMC_SCU_CLOCK_GetPeripheralClockDivider(void)
2091:C:/Users/Utente/Desktop/Tesi/Firmware_Software/DAVE project/S2GLP_Pulsed_Doppler/Libraries/XMCLib/inc\xmc4_scu.h **** {
2092:C:/Users/Utente/Desktop/Tesi/Firmware_Software/DAVE project/S2GLP_Pulsed_Doppler/Libraries/XMCLib/inc\xmc4_scu.h ****   return (uint32_t)((SCU_CLK->PBCLKCR & SCU_CLK_PBCLKCR_PBDIV_Msk) >> SCU_CLK_PBCLKCR_PBDIV_Pos);
2093:C:/Users/Utente/Desktop/Tesi/Firmware_Software/DAVE project/S2GLP_Pulsed_Doppler/Libraries/XMCLib/inc\xmc4_scu.h **** }
2094:C:/Users/Utente/Desktop/Tesi/Firmware_Software/DAVE project/S2GLP_Pulsed_Doppler/Libraries/XMCLib/inc\xmc4_scu.h **** 
2095:C:/Users/Utente/Desktop/Tesi/Firmware_Software/DAVE project/S2GLP_Pulsed_Doppler/Libraries/XMCLib/inc\xmc4_scu.h **** /**
2096:C:/Users/Utente/Desktop/Tesi/Firmware_Software/DAVE project/S2GLP_Pulsed_Doppler/Libraries/XMCLib/inc\xmc4_scu.h ****  *
2097:C:/Users/Utente/Desktop/Tesi/Firmware_Software/DAVE project/S2GLP_Pulsed_Doppler/Libraries/XMCLib/inc\xmc4_scu.h ****  * @param ratio   Ratio of PLL output clock(fPLL) to USB clock(fUSB).
2098:C:/Users/Utente/Desktop/Tesi/Firmware_Software/DAVE project/S2GLP_Pulsed_Doppler/Libraries/XMCLib/inc\xmc4_scu.h ****  *          \b Range: 1 to 8.
2099:C:/Users/Utente/Desktop/Tesi/Firmware_Software/DAVE project/S2GLP_Pulsed_Doppler/Libraries/XMCLib/inc\xmc4_scu.h ****  *
2100:C:/Users/Utente/Desktop/Tesi/Firmware_Software/DAVE project/S2GLP_Pulsed_Doppler/Libraries/XMCLib/inc\xmc4_scu.h ****  * @return None
2101:C:/Users/Utente/Desktop/Tesi/Firmware_Software/DAVE project/S2GLP_Pulsed_Doppler/Libraries/XMCLib/inc\xmc4_scu.h ****  *
2102:C:/Users/Utente/Desktop/Tesi/Firmware_Software/DAVE project/S2GLP_Pulsed_Doppler/Libraries/XMCLib/inc\xmc4_scu.h ****  * \par<b>Description</b><br>
2103:C:/Users/Utente/Desktop/Tesi/Firmware_Software/DAVE project/S2GLP_Pulsed_Doppler/Libraries/XMCLib/inc\xmc4_scu.h ****  * Configures the USB clock(fUSB) by setting the USB clock divider. \n\n
2104:C:/Users/Utente/Desktop/Tesi/Firmware_Software/DAVE project/S2GLP_Pulsed_Doppler/Libraries/XMCLib/inc\xmc4_scu.h ****  * The value is decremented by 1 before setting it to \a USBDIV bits of \a USBCLKCR register.
2105:C:/Users/Utente/Desktop/Tesi/Firmware_Software/DAVE project/S2GLP_Pulsed_Doppler/Libraries/XMCLib/inc\xmc4_scu.h ****  *
2106:C:/Users/Utente/Desktop/Tesi/Firmware_Software/DAVE project/S2GLP_Pulsed_Doppler/Libraries/XMCLib/inc\xmc4_scu.h ****  * \par<b>Related APIs:</b><BR>
2107:C:/Users/Utente/Desktop/Tesi/Firmware_Software/DAVE project/S2GLP_Pulsed_Doppler/Libraries/XMCLib/inc\xmc4_scu.h ****  * XMC_SCU_CLOCK_GetUsbClockDivider(), XMC_SCU_CLOCK_SetUsbClockSource() \n\n\n
2108:C:/Users/Utente/Desktop/Tesi/Firmware_Software/DAVE project/S2GLP_Pulsed_Doppler/Libraries/XMCLib/inc\xmc4_scu.h ****  */
2109:C:/Users/Utente/Desktop/Tesi/Firmware_Software/DAVE project/S2GLP_Pulsed_Doppler/Libraries/XMCLib/inc\xmc4_scu.h **** void XMC_SCU_CLOCK_SetUsbClockDivider(const uint32_t ratio);
2110:C:/Users/Utente/Desktop/Tesi/Firmware_Software/DAVE project/S2GLP_Pulsed_Doppler/Libraries/XMCLib/inc\xmc4_scu.h **** 
2111:C:/Users/Utente/Desktop/Tesi/Firmware_Software/DAVE project/S2GLP_Pulsed_Doppler/Libraries/XMCLib/inc\xmc4_scu.h **** /**
2112:C:/Users/Utente/Desktop/Tesi/Firmware_Software/DAVE project/S2GLP_Pulsed_Doppler/Libraries/XMCLib/inc\xmc4_scu.h ****  *
2113:C:/Users/Utente/Desktop/Tesi/Firmware_Software/DAVE project/S2GLP_Pulsed_Doppler/Libraries/XMCLib/inc\xmc4_scu.h ****  * @return uint32_t  Ratio of PLL output clock(fPLL) to USB clock(fUSB).
2114:C:/Users/Utente/Desktop/Tesi/Firmware_Software/DAVE project/S2GLP_Pulsed_Doppler/Libraries/XMCLib/inc\xmc4_scu.h ****  *          \b Range: 0 to 7.
2115:C:/Users/Utente/Desktop/Tesi/Firmware_Software/DAVE project/S2GLP_Pulsed_Doppler/Libraries/XMCLib/inc\xmc4_scu.h ****  *
2116:C:/Users/Utente/Desktop/Tesi/Firmware_Software/DAVE project/S2GLP_Pulsed_Doppler/Libraries/XMCLib/inc\xmc4_scu.h ****  * \par<b>Description</b><br>
2117:C:/Users/Utente/Desktop/Tesi/Firmware_Software/DAVE project/S2GLP_Pulsed_Doppler/Libraries/XMCLib/inc\xmc4_scu.h ****  * Provides the ratio between PLL output frequency(fPLL) and USB clock(fUSB).\n\n
2118:C:/Users/Utente/Desktop/Tesi/Firmware_Software/DAVE project/S2GLP_Pulsed_Doppler/Libraries/XMCLib/inc\xmc4_scu.h ****  * The value is obtained by reading \a USBDIV bit of \a USBCLKCR register.
2119:C:/Users/Utente/Desktop/Tesi/Firmware_Software/DAVE project/S2GLP_Pulsed_Doppler/Libraries/XMCLib/inc\xmc4_scu.h ****  * \par<b>Related APIs:</b><BR>
2120:C:/Users/Utente/Desktop/Tesi/Firmware_Software/DAVE project/S2GLP_Pulsed_Doppler/Libraries/XMCLib/inc\xmc4_scu.h ****  * XMC_SCU_CLOCK_SetUsbClockDivider(), XMC_SCU_CLOCK_GetUsbClockSource() \n\n\n
2121:C:/Users/Utente/Desktop/Tesi/Firmware_Software/DAVE project/S2GLP_Pulsed_Doppler/Libraries/XMCLib/inc\xmc4_scu.h ****  */
2122:C:/Users/Utente/Desktop/Tesi/Firmware_Software/DAVE project/S2GLP_Pulsed_Doppler/Libraries/XMCLib/inc\xmc4_scu.h **** __STATIC_INLINE uint32_t XMC_SCU_CLOCK_GetUsbClockDivider(void)
2123:C:/Users/Utente/Desktop/Tesi/Firmware_Software/DAVE project/S2GLP_Pulsed_Doppler/Libraries/XMCLib/inc\xmc4_scu.h **** {
2124:C:/Users/Utente/Desktop/Tesi/Firmware_Software/DAVE project/S2GLP_Pulsed_Doppler/Libraries/XMCLib/inc\xmc4_scu.h ****   return (uint32_t)((SCU_CLK->USBCLKCR & SCU_CLK_USBCLKCR_USBDIV_Msk) >> SCU_CLK_USBCLKCR_USBDIV_Po
2125:C:/Users/Utente/Desktop/Tesi/Firmware_Software/DAVE project/S2GLP_Pulsed_Doppler/Libraries/XMCLib/inc\xmc4_scu.h **** }
2126:C:/Users/Utente/Desktop/Tesi/Firmware_Software/DAVE project/S2GLP_Pulsed_Doppler/Libraries/XMCLib/inc\xmc4_scu.h **** 
2127:C:/Users/Utente/Desktop/Tesi/Firmware_Software/DAVE project/S2GLP_Pulsed_Doppler/Libraries/XMCLib/inc\xmc4_scu.h **** 
2128:C:/Users/Utente/Desktop/Tesi/Firmware_Software/DAVE project/S2GLP_Pulsed_Doppler/Libraries/XMCLib/inc\xmc4_scu.h **** 
2129:C:/Users/Utente/Desktop/Tesi/Firmware_Software/DAVE project/S2GLP_Pulsed_Doppler/Libraries/XMCLib/inc\xmc4_scu.h **** #if defined(EBU)
2130:C:/Users/Utente/Desktop/Tesi/Firmware_Software/DAVE project/S2GLP_Pulsed_Doppler/Libraries/XMCLib/inc\xmc4_scu.h **** /**
2131:C:/Users/Utente/Desktop/Tesi/Firmware_Software/DAVE project/S2GLP_Pulsed_Doppler/Libraries/XMCLib/inc\xmc4_scu.h ****  *
2132:C:/Users/Utente/Desktop/Tesi/Firmware_Software/DAVE project/S2GLP_Pulsed_Doppler/Libraries/XMCLib/inc\xmc4_scu.h ****  * @param ratio Ratio of PLL clock(fPLL) to EBU clock(fEBU).\n
2133:C:/Users/Utente/Desktop/Tesi/Firmware_Software/DAVE project/S2GLP_Pulsed_Doppler/Libraries/XMCLib/inc\xmc4_scu.h ****  *          \b Range: 1 to 64.
2134:C:/Users/Utente/Desktop/Tesi/Firmware_Software/DAVE project/S2GLP_Pulsed_Doppler/Libraries/XMCLib/inc\xmc4_scu.h ****  *
2135:C:/Users/Utente/Desktop/Tesi/Firmware_Software/DAVE project/S2GLP_Pulsed_Doppler/Libraries/XMCLib/inc\xmc4_scu.h ****  * @return None
2136:C:/Users/Utente/Desktop/Tesi/Firmware_Software/DAVE project/S2GLP_Pulsed_Doppler/Libraries/XMCLib/inc\xmc4_scu.h ****  *
2137:C:/Users/Utente/Desktop/Tesi/Firmware_Software/DAVE project/S2GLP_Pulsed_Doppler/Libraries/XMCLib/inc\xmc4_scu.h ****  * \par<b>Description</b><br>
2138:C:/Users/Utente/Desktop/Tesi/Firmware_Software/DAVE project/S2GLP_Pulsed_Doppler/Libraries/XMCLib/inc\xmc4_scu.h ****  * Configures the EBU clock(fEBU) by setting the divider value.\n\n
2139:C:/Users/Utente/Desktop/Tesi/Firmware_Software/DAVE project/S2GLP_Pulsed_Doppler/Libraries/XMCLib/inc\xmc4_scu.h ****  * The clock divider is configured to the \a EBUDIV bits of \a EBUCLKCR register.
2140:C:/Users/Utente/Desktop/Tesi/Firmware_Software/DAVE project/S2GLP_Pulsed_Doppler/Libraries/XMCLib/inc\xmc4_scu.h ****  * \par<b>Related APIs:</b><BR>
2141:C:/Users/Utente/Desktop/Tesi/Firmware_Software/DAVE project/S2GLP_Pulsed_Doppler/Libraries/XMCLib/inc\xmc4_scu.h ****  * XMC_SCU_CLOCK_GetEbuClockDivider() \n\n\n
2142:C:/Users/Utente/Desktop/Tesi/Firmware_Software/DAVE project/S2GLP_Pulsed_Doppler/Libraries/XMCLib/inc\xmc4_scu.h ****  */
2143:C:/Users/Utente/Desktop/Tesi/Firmware_Software/DAVE project/S2GLP_Pulsed_Doppler/Libraries/XMCLib/inc\xmc4_scu.h **** void XMC_SCU_CLOCK_SetEbuClockDivider(const uint32_t ratio);
2144:C:/Users/Utente/Desktop/Tesi/Firmware_Software/DAVE project/S2GLP_Pulsed_Doppler/Libraries/XMCLib/inc\xmc4_scu.h **** 
2145:C:/Users/Utente/Desktop/Tesi/Firmware_Software/DAVE project/S2GLP_Pulsed_Doppler/Libraries/XMCLib/inc\xmc4_scu.h **** /**
2146:C:/Users/Utente/Desktop/Tesi/Firmware_Software/DAVE project/S2GLP_Pulsed_Doppler/Libraries/XMCLib/inc\xmc4_scu.h ****  *
2147:C:/Users/Utente/Desktop/Tesi/Firmware_Software/DAVE project/S2GLP_Pulsed_Doppler/Libraries/XMCLib/inc\xmc4_scu.h ****  * @return uint32_t  Ratio of PLL clock(fPLL) to EBU clock(fEBU).\n
2148:C:/Users/Utente/Desktop/Tesi/Firmware_Software/DAVE project/S2GLP_Pulsed_Doppler/Libraries/XMCLib/inc\xmc4_scu.h ****  *          \b Range: 0 to 63.
2149:C:/Users/Utente/Desktop/Tesi/Firmware_Software/DAVE project/S2GLP_Pulsed_Doppler/Libraries/XMCLib/inc\xmc4_scu.h ****  *
2150:C:/Users/Utente/Desktop/Tesi/Firmware_Software/DAVE project/S2GLP_Pulsed_Doppler/Libraries/XMCLib/inc\xmc4_scu.h ****  * \par<b>Description</b><br>
2151:C:/Users/Utente/Desktop/Tesi/Firmware_Software/DAVE project/S2GLP_Pulsed_Doppler/Libraries/XMCLib/inc\xmc4_scu.h ****  * Provides the ratio between PLL clock(fPLL) and EBU clock(fEBU).\n\n
2152:C:/Users/Utente/Desktop/Tesi/Firmware_Software/DAVE project/S2GLP_Pulsed_Doppler/Libraries/XMCLib/inc\xmc4_scu.h ****  * The value is obtained by reading \a EBUDIV bits of \a EBUCLKCR register.
2153:C:/Users/Utente/Desktop/Tesi/Firmware_Software/DAVE project/S2GLP_Pulsed_Doppler/Libraries/XMCLib/inc\xmc4_scu.h ****  * \par<b>Related APIs:</b><BR>
2154:C:/Users/Utente/Desktop/Tesi/Firmware_Software/DAVE project/S2GLP_Pulsed_Doppler/Libraries/XMCLib/inc\xmc4_scu.h ****  * XMC_SCU_CLOCK_SetEbuClockDivider() \n\n\n
2155:C:/Users/Utente/Desktop/Tesi/Firmware_Software/DAVE project/S2GLP_Pulsed_Doppler/Libraries/XMCLib/inc\xmc4_scu.h ****  */
2156:C:/Users/Utente/Desktop/Tesi/Firmware_Software/DAVE project/S2GLP_Pulsed_Doppler/Libraries/XMCLib/inc\xmc4_scu.h **** __STATIC_INLINE uint32_t XMC_SCU_CLOCK_GetEbuClockDivider(void)
2157:C:/Users/Utente/Desktop/Tesi/Firmware_Software/DAVE project/S2GLP_Pulsed_Doppler/Libraries/XMCLib/inc\xmc4_scu.h **** {
2158:C:/Users/Utente/Desktop/Tesi/Firmware_Software/DAVE project/S2GLP_Pulsed_Doppler/Libraries/XMCLib/inc\xmc4_scu.h ****   return (uint32_t)((SCU_CLK->EBUCLKCR & SCU_CLK_EBUCLKCR_EBUDIV_Msk) >> SCU_CLK_EBUCLKCR_EBUDIV_Po
2159:C:/Users/Utente/Desktop/Tesi/Firmware_Software/DAVE project/S2GLP_Pulsed_Doppler/Libraries/XMCLib/inc\xmc4_scu.h **** }
2160:C:/Users/Utente/Desktop/Tesi/Firmware_Software/DAVE project/S2GLP_Pulsed_Doppler/Libraries/XMCLib/inc\xmc4_scu.h **** #endif
2161:C:/Users/Utente/Desktop/Tesi/Firmware_Software/DAVE project/S2GLP_Pulsed_Doppler/Libraries/XMCLib/inc\xmc4_scu.h **** 
2162:C:/Users/Utente/Desktop/Tesi/Firmware_Software/DAVE project/S2GLP_Pulsed_Doppler/Libraries/XMCLib/inc\xmc4_scu.h **** /**
2163:C:/Users/Utente/Desktop/Tesi/Firmware_Software/DAVE project/S2GLP_Pulsed_Doppler/Libraries/XMCLib/inc\xmc4_scu.h ****  *
2164:C:/Users/Utente/Desktop/Tesi/Firmware_Software/DAVE project/S2GLP_Pulsed_Doppler/Libraries/XMCLib/inc\xmc4_scu.h ****  * @param ratio  Ratio between the source of WDT clock and the WDT clock.\n
2165:C:/Users/Utente/Desktop/Tesi/Firmware_Software/DAVE project/S2GLP_Pulsed_Doppler/Libraries/XMCLib/inc\xmc4_scu.h ****  *          \b Range: 1 to 256.
2166:C:/Users/Utente/Desktop/Tesi/Firmware_Software/DAVE project/S2GLP_Pulsed_Doppler/Libraries/XMCLib/inc\xmc4_scu.h ****  *
2167:C:/Users/Utente/Desktop/Tesi/Firmware_Software/DAVE project/S2GLP_Pulsed_Doppler/Libraries/XMCLib/inc\xmc4_scu.h ****  * @return None
2168:C:/Users/Utente/Desktop/Tesi/Firmware_Software/DAVE project/S2GLP_Pulsed_Doppler/Libraries/XMCLib/inc\xmc4_scu.h ****  *
2169:C:/Users/Utente/Desktop/Tesi/Firmware_Software/DAVE project/S2GLP_Pulsed_Doppler/Libraries/XMCLib/inc\xmc4_scu.h ****  * \par<b>Description</b><br>
2170:C:/Users/Utente/Desktop/Tesi/Firmware_Software/DAVE project/S2GLP_Pulsed_Doppler/Libraries/XMCLib/inc\xmc4_scu.h ****  * Configures the WDT clock by setting the clock divider for the WDT clock source.\n\n
2171:C:/Users/Utente/Desktop/Tesi/Firmware_Software/DAVE project/S2GLP_Pulsed_Doppler/Libraries/XMCLib/inc\xmc4_scu.h ****  * The value is configured to \a WDTDIV bits of \a WDTCLKCR register. The value of divider
2172:C:/Users/Utente/Desktop/Tesi/Firmware_Software/DAVE project/S2GLP_Pulsed_Doppler/Libraries/XMCLib/inc\xmc4_scu.h ****  * is decremented by 1 before configuring. Check the selected clock source for the WDT clock
2173:C:/Users/Utente/Desktop/Tesi/Firmware_Software/DAVE project/S2GLP_Pulsed_Doppler/Libraries/XMCLib/inc\xmc4_scu.h ****  * before configuring the divider using the API XMC_SCU_CLOCK_SetWdtClockSource().
2174:C:/Users/Utente/Desktop/Tesi/Firmware_Software/DAVE project/S2GLP_Pulsed_Doppler/Libraries/XMCLib/inc\xmc4_scu.h ****  * \par<b>Related APIs:</b><BR>
2175:C:/Users/Utente/Desktop/Tesi/Firmware_Software/DAVE project/S2GLP_Pulsed_Doppler/Libraries/XMCLib/inc\xmc4_scu.h ****  * XMC_SCU_CLOCK_SetWdtClockSource(), XMC_SCU_CLOCK_GetWdtClockDivider() \n\n\n
2176:C:/Users/Utente/Desktop/Tesi/Firmware_Software/DAVE project/S2GLP_Pulsed_Doppler/Libraries/XMCLib/inc\xmc4_scu.h ****  */
2177:C:/Users/Utente/Desktop/Tesi/Firmware_Software/DAVE project/S2GLP_Pulsed_Doppler/Libraries/XMCLib/inc\xmc4_scu.h **** void XMC_SCU_CLOCK_SetWdtClockDivider(const uint32_t ratio);
2178:C:/Users/Utente/Desktop/Tesi/Firmware_Software/DAVE project/S2GLP_Pulsed_Doppler/Libraries/XMCLib/inc\xmc4_scu.h **** 
2179:C:/Users/Utente/Desktop/Tesi/Firmware_Software/DAVE project/S2GLP_Pulsed_Doppler/Libraries/XMCLib/inc\xmc4_scu.h **** /**
2180:C:/Users/Utente/Desktop/Tesi/Firmware_Software/DAVE project/S2GLP_Pulsed_Doppler/Libraries/XMCLib/inc\xmc4_scu.h ****  *
2181:C:/Users/Utente/Desktop/Tesi/Firmware_Software/DAVE project/S2GLP_Pulsed_Doppler/Libraries/XMCLib/inc\xmc4_scu.h ****  * @return uint32_t  Ratio between the source of WDT clock and the WDT clock.\n
2182:C:/Users/Utente/Desktop/Tesi/Firmware_Software/DAVE project/S2GLP_Pulsed_Doppler/Libraries/XMCLib/inc\xmc4_scu.h ****  *          \b Range: 0 to 255.
2183:C:/Users/Utente/Desktop/Tesi/Firmware_Software/DAVE project/S2GLP_Pulsed_Doppler/Libraries/XMCLib/inc\xmc4_scu.h ****  *
2184:C:/Users/Utente/Desktop/Tesi/Firmware_Software/DAVE project/S2GLP_Pulsed_Doppler/Libraries/XMCLib/inc\xmc4_scu.h ****  * \par<b>Description</b><br>
2185:C:/Users/Utente/Desktop/Tesi/Firmware_Software/DAVE project/S2GLP_Pulsed_Doppler/Libraries/XMCLib/inc\xmc4_scu.h ****  * Provides the ratio between the WDT parent clock and the WDT clock. \n\n
2186:C:/Users/Utente/Desktop/Tesi/Firmware_Software/DAVE project/S2GLP_Pulsed_Doppler/Libraries/XMCLib/inc\xmc4_scu.h ****  * The value is obtained by reading \a WDTDIV bits of \a WDTCLKCR register.
2187:C:/Users/Utente/Desktop/Tesi/Firmware_Software/DAVE project/S2GLP_Pulsed_Doppler/Libraries/XMCLib/inc\xmc4_scu.h ****  * Ensure that the WDT parent clock is considered before using the value of
2188:C:/Users/Utente/Desktop/Tesi/Firmware_Software/DAVE project/S2GLP_Pulsed_Doppler/Libraries/XMCLib/inc\xmc4_scu.h ****  * the divider value.
2189:C:/Users/Utente/Desktop/Tesi/Firmware_Software/DAVE project/S2GLP_Pulsed_Doppler/Libraries/XMCLib/inc\xmc4_scu.h ****  * \par<b>Related APIs:</b><BR>
2190:C:/Users/Utente/Desktop/Tesi/Firmware_Software/DAVE project/S2GLP_Pulsed_Doppler/Libraries/XMCLib/inc\xmc4_scu.h ****  * XMC_SCU_CLOCK_SetWdtClockSource(), XMC_SCU_CLOCK_SetWdtClockDivider() \n\n\n
2191:C:/Users/Utente/Desktop/Tesi/Firmware_Software/DAVE project/S2GLP_Pulsed_Doppler/Libraries/XMCLib/inc\xmc4_scu.h ****  */
2192:C:/Users/Utente/Desktop/Tesi/Firmware_Software/DAVE project/S2GLP_Pulsed_Doppler/Libraries/XMCLib/inc\xmc4_scu.h **** __STATIC_INLINE uint32_t XMC_SCU_CLOCK_GetWdtClockDivider(void)
2193:C:/Users/Utente/Desktop/Tesi/Firmware_Software/DAVE project/S2GLP_Pulsed_Doppler/Libraries/XMCLib/inc\xmc4_scu.h **** {
2194:C:/Users/Utente/Desktop/Tesi/Firmware_Software/DAVE project/S2GLP_Pulsed_Doppler/Libraries/XMCLib/inc\xmc4_scu.h ****   return (uint32_t)((SCU_CLK->WDTCLKCR & SCU_CLK_WDTCLKCR_WDTDIV_Msk) >> SCU_CLK_WDTCLKCR_WDTDIV_Po
2195:C:/Users/Utente/Desktop/Tesi/Firmware_Software/DAVE project/S2GLP_Pulsed_Doppler/Libraries/XMCLib/inc\xmc4_scu.h **** }
2196:C:/Users/Utente/Desktop/Tesi/Firmware_Software/DAVE project/S2GLP_Pulsed_Doppler/Libraries/XMCLib/inc\xmc4_scu.h **** 
2197:C:/Users/Utente/Desktop/Tesi/Firmware_Software/DAVE project/S2GLP_Pulsed_Doppler/Libraries/XMCLib/inc\xmc4_scu.h **** /**
2198:C:/Users/Utente/Desktop/Tesi/Firmware_Software/DAVE project/S2GLP_Pulsed_Doppler/Libraries/XMCLib/inc\xmc4_scu.h ****  *
2199:C:/Users/Utente/Desktop/Tesi/Firmware_Software/DAVE project/S2GLP_Pulsed_Doppler/Libraries/XMCLib/inc\xmc4_scu.h ****  * @param ratio   Ratio between the external output parent clock selected and the output clock.\n
2200:C:/Users/Utente/Desktop/Tesi/Firmware_Software/DAVE project/S2GLP_Pulsed_Doppler/Libraries/XMCLib/inc\xmc4_scu.h ****  *          \b Range: 1 to 512.
2201:C:/Users/Utente/Desktop/Tesi/Firmware_Software/DAVE project/S2GLP_Pulsed_Doppler/Libraries/XMCLib/inc\xmc4_scu.h ****  *
2202:C:/Users/Utente/Desktop/Tesi/Firmware_Software/DAVE project/S2GLP_Pulsed_Doppler/Libraries/XMCLib/inc\xmc4_scu.h ****  * @return None
2203:C:/Users/Utente/Desktop/Tesi/Firmware_Software/DAVE project/S2GLP_Pulsed_Doppler/Libraries/XMCLib/inc\xmc4_scu.h ****  *
2204:C:/Users/Utente/Desktop/Tesi/Firmware_Software/DAVE project/S2GLP_Pulsed_Doppler/Libraries/XMCLib/inc\xmc4_scu.h ****  * \par<b>Description</b><br>
2205:C:/Users/Utente/Desktop/Tesi/Firmware_Software/DAVE project/S2GLP_Pulsed_Doppler/Libraries/XMCLib/inc\xmc4_scu.h ****  * Configures the external output clock by setting the divider value for the parent clock. \n\n
2206:C:/Users/Utente/Desktop/Tesi/Firmware_Software/DAVE project/S2GLP_Pulsed_Doppler/Libraries/XMCLib/inc\xmc4_scu.h ****  * The value will be configured to \a ECKDIV bits of \a EXTCLKCR register.
2207:C:/Users/Utente/Desktop/Tesi/Firmware_Software/DAVE project/S2GLP_Pulsed_Doppler/Libraries/XMCLib/inc\xmc4_scu.h ****  * The divider value is decremented by 1 before storing it to the bit fields.
2208:C:/Users/Utente/Desktop/Tesi/Firmware_Software/DAVE project/S2GLP_Pulsed_Doppler/Libraries/XMCLib/inc\xmc4_scu.h ****  * Ensure that the source of external output clock is configured appropriately using the API
2209:C:/Users/Utente/Desktop/Tesi/Firmware_Software/DAVE project/S2GLP_Pulsed_Doppler/Libraries/XMCLib/inc\xmc4_scu.h ****  * XMC_SCU_CLOCK_SetExternalOutputClockSource().
2210:C:/Users/Utente/Desktop/Tesi/Firmware_Software/DAVE project/S2GLP_Pulsed_Doppler/Libraries/XMCLib/inc\xmc4_scu.h ****  * \par<b>Related APIs:</b><BR>
2211:C:/Users/Utente/Desktop/Tesi/Firmware_Software/DAVE project/S2GLP_Pulsed_Doppler/Libraries/XMCLib/inc\xmc4_scu.h ****  * XMC_SCU_CLOCK_SetExternalOutputClockSource(), XMC_SCU_CLOCK_GetExternalOutputClockDivider() \n\n
2212:C:/Users/Utente/Desktop/Tesi/Firmware_Software/DAVE project/S2GLP_Pulsed_Doppler/Libraries/XMCLib/inc\xmc4_scu.h ****  */
2213:C:/Users/Utente/Desktop/Tesi/Firmware_Software/DAVE project/S2GLP_Pulsed_Doppler/Libraries/XMCLib/inc\xmc4_scu.h **** void XMC_SCU_CLOCK_SetExternalOutputClockDivider(const uint32_t ratio);
2214:C:/Users/Utente/Desktop/Tesi/Firmware_Software/DAVE project/S2GLP_Pulsed_Doppler/Libraries/XMCLib/inc\xmc4_scu.h **** 
2215:C:/Users/Utente/Desktop/Tesi/Firmware_Software/DAVE project/S2GLP_Pulsed_Doppler/Libraries/XMCLib/inc\xmc4_scu.h **** /**
2216:C:/Users/Utente/Desktop/Tesi/Firmware_Software/DAVE project/S2GLP_Pulsed_Doppler/Libraries/XMCLib/inc\xmc4_scu.h ****  *
2217:C:/Users/Utente/Desktop/Tesi/Firmware_Software/DAVE project/S2GLP_Pulsed_Doppler/Libraries/XMCLib/inc\xmc4_scu.h ****  * @return uint32_t  Ratio between the external output parent clock selected and the output clock.\
2218:C:/Users/Utente/Desktop/Tesi/Firmware_Software/DAVE project/S2GLP_Pulsed_Doppler/Libraries/XMCLib/inc\xmc4_scu.h ****  *          \b Range: 0 to 511.
2219:C:/Users/Utente/Desktop/Tesi/Firmware_Software/DAVE project/S2GLP_Pulsed_Doppler/Libraries/XMCLib/inc\xmc4_scu.h ****  *
2220:C:/Users/Utente/Desktop/Tesi/Firmware_Software/DAVE project/S2GLP_Pulsed_Doppler/Libraries/XMCLib/inc\xmc4_scu.h ****  * \par<b>Description</b><br>
2221:C:/Users/Utente/Desktop/Tesi/Firmware_Software/DAVE project/S2GLP_Pulsed_Doppler/Libraries/XMCLib/inc\xmc4_scu.h ****  * Provides the divider value applied on parent clock before the generation of external output cloc
2222:C:/Users/Utente/Desktop/Tesi/Firmware_Software/DAVE project/S2GLP_Pulsed_Doppler/Libraries/XMCLib/inc\xmc4_scu.h ****  * The value is obtained by reading \a EXTDIV bit of \a EXTCLKCR register.
2223:C:/Users/Utente/Desktop/Tesi/Firmware_Software/DAVE project/S2GLP_Pulsed_Doppler/Libraries/XMCLib/inc\xmc4_scu.h ****  * \par<b>Related APIs:</b><BR>
2224:C:/Users/Utente/Desktop/Tesi/Firmware_Software/DAVE project/S2GLP_Pulsed_Doppler/Libraries/XMCLib/inc\xmc4_scu.h ****  * XMC_SCU_CLOCK_GetExternalOutputClockSource(), XMC_SCU_CLOCK_SetExternalOutputClockDivider() \n\n
2225:C:/Users/Utente/Desktop/Tesi/Firmware_Software/DAVE project/S2GLP_Pulsed_Doppler/Libraries/XMCLib/inc\xmc4_scu.h ****  */
2226:C:/Users/Utente/Desktop/Tesi/Firmware_Software/DAVE project/S2GLP_Pulsed_Doppler/Libraries/XMCLib/inc\xmc4_scu.h **** __STATIC_INLINE uint32_t XMC_SCU_CLOCK_GetExternalOutputClockDivider(void)
2227:C:/Users/Utente/Desktop/Tesi/Firmware_Software/DAVE project/S2GLP_Pulsed_Doppler/Libraries/XMCLib/inc\xmc4_scu.h **** {
2228:C:/Users/Utente/Desktop/Tesi/Firmware_Software/DAVE project/S2GLP_Pulsed_Doppler/Libraries/XMCLib/inc\xmc4_scu.h ****   return (uint32_t)((SCU_CLK->EXTCLKCR & SCU_CLK_EXTCLKCR_ECKDIV_Msk) >> SCU_CLK_EXTCLKCR_ECKDIV_Po
2229:C:/Users/Utente/Desktop/Tesi/Firmware_Software/DAVE project/S2GLP_Pulsed_Doppler/Libraries/XMCLib/inc\xmc4_scu.h **** }
2230:C:/Users/Utente/Desktop/Tesi/Firmware_Software/DAVE project/S2GLP_Pulsed_Doppler/Libraries/XMCLib/inc\xmc4_scu.h **** 
2231:C:/Users/Utente/Desktop/Tesi/Firmware_Software/DAVE project/S2GLP_Pulsed_Doppler/Libraries/XMCLib/inc\xmc4_scu.h **** #if defined(ECAT0)
2232:C:/Users/Utente/Desktop/Tesi/Firmware_Software/DAVE project/S2GLP_Pulsed_Doppler/Libraries/XMCLib/inc\xmc4_scu.h **** /**
2233:C:/Users/Utente/Desktop/Tesi/Firmware_Software/DAVE project/S2GLP_Pulsed_Doppler/Libraries/XMCLib/inc\xmc4_scu.h ****  *
2234:C:/Users/Utente/Desktop/Tesi/Firmware_Software/DAVE project/S2GLP_Pulsed_Doppler/Libraries/XMCLib/inc\xmc4_scu.h ****  * @param ratio   Ratio between the source of ECAT clock and the ECAT clock.\n
2235:C:/Users/Utente/Desktop/Tesi/Firmware_Software/DAVE project/S2GLP_Pulsed_Doppler/Libraries/XMCLib/inc\xmc4_scu.h ****  *          \b Range: 1 to 4.
2236:C:/Users/Utente/Desktop/Tesi/Firmware_Software/DAVE project/S2GLP_Pulsed_Doppler/Libraries/XMCLib/inc\xmc4_scu.h ****  *
2237:C:/Users/Utente/Desktop/Tesi/Firmware_Software/DAVE project/S2GLP_Pulsed_Doppler/Libraries/XMCLib/inc\xmc4_scu.h ****  * @return None
2238:C:/Users/Utente/Desktop/Tesi/Firmware_Software/DAVE project/S2GLP_Pulsed_Doppler/Libraries/XMCLib/inc\xmc4_scu.h ****  *
2239:C:/Users/Utente/Desktop/Tesi/Firmware_Software/DAVE project/S2GLP_Pulsed_Doppler/Libraries/XMCLib/inc\xmc4_scu.h ****  * \par<b>Description</b><br>
2240:C:/Users/Utente/Desktop/Tesi/Firmware_Software/DAVE project/S2GLP_Pulsed_Doppler/Libraries/XMCLib/inc\xmc4_scu.h ****  * Configures the ECAT clock by setting the clock divider for the ECAT clock source.\n\n
2241:C:/Users/Utente/Desktop/Tesi/Firmware_Software/DAVE project/S2GLP_Pulsed_Doppler/Libraries/XMCLib/inc\xmc4_scu.h ****  * The value is configured to \a ECADIV bits of \a ECATCLKCR register. The value of divider
2242:C:/Users/Utente/Desktop/Tesi/Firmware_Software/DAVE project/S2GLP_Pulsed_Doppler/Libraries/XMCLib/inc\xmc4_scu.h ****  * is decremented by 1 before configuring.
2243:C:/Users/Utente/Desktop/Tesi/Firmware_Software/DAVE project/S2GLP_Pulsed_Doppler/Libraries/XMCLib/inc\xmc4_scu.h ****  * \par<b>Related APIs:</b><BR>
2244:C:/Users/Utente/Desktop/Tesi/Firmware_Software/DAVE project/S2GLP_Pulsed_Doppler/Libraries/XMCLib/inc\xmc4_scu.h ****  * XMC_SCU_CLOCK_SetECATClockSource(), XMC_SCU_CLOCK_GetECATClockDivider() \n\n\n
2245:C:/Users/Utente/Desktop/Tesi/Firmware_Software/DAVE project/S2GLP_Pulsed_Doppler/Libraries/XMCLib/inc\xmc4_scu.h ****  */
2246:C:/Users/Utente/Desktop/Tesi/Firmware_Software/DAVE project/S2GLP_Pulsed_Doppler/Libraries/XMCLib/inc\xmc4_scu.h **** void XMC_SCU_CLOCK_SetECATClockDivider(const uint32_t divider);
2247:C:/Users/Utente/Desktop/Tesi/Firmware_Software/DAVE project/S2GLP_Pulsed_Doppler/Libraries/XMCLib/inc\xmc4_scu.h **** 
2248:C:/Users/Utente/Desktop/Tesi/Firmware_Software/DAVE project/S2GLP_Pulsed_Doppler/Libraries/XMCLib/inc\xmc4_scu.h **** /**
2249:C:/Users/Utente/Desktop/Tesi/Firmware_Software/DAVE project/S2GLP_Pulsed_Doppler/Libraries/XMCLib/inc\xmc4_scu.h ****  *
2250:C:/Users/Utente/Desktop/Tesi/Firmware_Software/DAVE project/S2GLP_Pulsed_Doppler/Libraries/XMCLib/inc\xmc4_scu.h ****  * @return uint32_t  Ratio between the source of ECAT clock and the ECAT clock.\n
2251:C:/Users/Utente/Desktop/Tesi/Firmware_Software/DAVE project/S2GLP_Pulsed_Doppler/Libraries/XMCLib/inc\xmc4_scu.h ****  *          \b Range: 0 to 3.
2252:C:/Users/Utente/Desktop/Tesi/Firmware_Software/DAVE project/S2GLP_Pulsed_Doppler/Libraries/XMCLib/inc\xmc4_scu.h ****  *
2253:C:/Users/Utente/Desktop/Tesi/Firmware_Software/DAVE project/S2GLP_Pulsed_Doppler/Libraries/XMCLib/inc\xmc4_scu.h ****  * \par<b>Description</b><br>
2254:C:/Users/Utente/Desktop/Tesi/Firmware_Software/DAVE project/S2GLP_Pulsed_Doppler/Libraries/XMCLib/inc\xmc4_scu.h ****  * Provides the ratio between the ECAT parent clock and the ECAT clock. \n\n
2255:C:/Users/Utente/Desktop/Tesi/Firmware_Software/DAVE project/S2GLP_Pulsed_Doppler/Libraries/XMCLib/inc\xmc4_scu.h ****  * The value is obtained by reading \a ECADIV bits of \a ECATCLKCR register.
2256:C:/Users/Utente/Desktop/Tesi/Firmware_Software/DAVE project/S2GLP_Pulsed_Doppler/Libraries/XMCLib/inc\xmc4_scu.h ****  * \par<b>Related APIs:</b><BR>
2257:C:/Users/Utente/Desktop/Tesi/Firmware_Software/DAVE project/S2GLP_Pulsed_Doppler/Libraries/XMCLib/inc\xmc4_scu.h ****  * XMC_SCU_CLOCK_SetECATClockSource(), XMC_SCU_CLOCK_SetECATClockDivider() \n\n\n
2258:C:/Users/Utente/Desktop/Tesi/Firmware_Software/DAVE project/S2GLP_Pulsed_Doppler/Libraries/XMCLib/inc\xmc4_scu.h ****  */
2259:C:/Users/Utente/Desktop/Tesi/Firmware_Software/DAVE project/S2GLP_Pulsed_Doppler/Libraries/XMCLib/inc\xmc4_scu.h **** __STATIC_INLINE uint32_t XMC_SCU_CLOCK_GetECATClockDivider(void)
2260:C:/Users/Utente/Desktop/Tesi/Firmware_Software/DAVE project/S2GLP_Pulsed_Doppler/Libraries/XMCLib/inc\xmc4_scu.h **** {
2261:C:/Users/Utente/Desktop/Tesi/Firmware_Software/DAVE project/S2GLP_Pulsed_Doppler/Libraries/XMCLib/inc\xmc4_scu.h ****   return (uint32_t)((SCU_CLK->ECATCLKCR & SCU_CLK_ECATCLKCR_ECADIV_Msk) >> SCU_CLK_ECATCLKCR_ECADIV
2262:C:/Users/Utente/Desktop/Tesi/Firmware_Software/DAVE project/S2GLP_Pulsed_Doppler/Libraries/XMCLib/inc\xmc4_scu.h **** }
2263:C:/Users/Utente/Desktop/Tesi/Firmware_Software/DAVE project/S2GLP_Pulsed_Doppler/Libraries/XMCLib/inc\xmc4_scu.h **** #endif
2264:C:/Users/Utente/Desktop/Tesi/Firmware_Software/DAVE project/S2GLP_Pulsed_Doppler/Libraries/XMCLib/inc\xmc4_scu.h **** 
2265:C:/Users/Utente/Desktop/Tesi/Firmware_Software/DAVE project/S2GLP_Pulsed_Doppler/Libraries/XMCLib/inc\xmc4_scu.h **** /**
2266:C:/Users/Utente/Desktop/Tesi/Firmware_Software/DAVE project/S2GLP_Pulsed_Doppler/Libraries/XMCLib/inc\xmc4_scu.h ****  *
2267:C:/Users/Utente/Desktop/Tesi/Firmware_Software/DAVE project/S2GLP_Pulsed_Doppler/Libraries/XMCLib/inc\xmc4_scu.h ****  * @return None
2268:C:/Users/Utente/Desktop/Tesi/Firmware_Software/DAVE project/S2GLP_Pulsed_Doppler/Libraries/XMCLib/inc\xmc4_scu.h ****  *
2269:C:/Users/Utente/Desktop/Tesi/Firmware_Software/DAVE project/S2GLP_Pulsed_Doppler/Libraries/XMCLib/inc\xmc4_scu.h ****  * \par<b>Description</b><br>
2270:C:/Users/Utente/Desktop/Tesi/Firmware_Software/DAVE project/S2GLP_Pulsed_Doppler/Libraries/XMCLib/inc\xmc4_scu.h ****  * Enables the high precision oscillator by configuring external crystal mode.\n\n
2271:C:/Users/Utente/Desktop/Tesi/Firmware_Software/DAVE project/S2GLP_Pulsed_Doppler/Libraries/XMCLib/inc\xmc4_scu.h ****  * The API configures \a MODE bits of \a OSCHPCTRL register to 0, there by configuring the 
2272:C:/Users/Utente/Desktop/Tesi/Firmware_Software/DAVE project/S2GLP_Pulsed_Doppler/Libraries/XMCLib/inc\xmc4_scu.h ****  * external clock input.
2273:C:/Users/Utente/Desktop/Tesi/Firmware_Software/DAVE project/S2GLP_Pulsed_Doppler/Libraries/XMCLib/inc\xmc4_scu.h ****  * The System Oscillator Watchdog is enabled. The user should check the status 
2274:C:/Users/Utente/Desktop/Tesi/Firmware_Software/DAVE project/S2GLP_Pulsed_Doppler/Libraries/XMCLib/inc\xmc4_scu.h ****  * of the oscillator using XMC_SCU_CLOCK_IsHighPerformanceOscillatorStable()
2275:C:/Users/Utente/Desktop/Tesi/Firmware_Software/DAVE project/S2GLP_Pulsed_Doppler/Libraries/XMCLib/inc\xmc4_scu.h ****  * \par<b>Related APIs:</b><BR>
2276:C:/Users/Utente/Desktop/Tesi/Firmware_Software/DAVE project/S2GLP_Pulsed_Doppler/Libraries/XMCLib/inc\xmc4_scu.h ****  * XMC_SCU_CLOCK_DisableHighPerformanceOscillator() \n\n\n
2277:C:/Users/Utente/Desktop/Tesi/Firmware_Software/DAVE project/S2GLP_Pulsed_Doppler/Libraries/XMCLib/inc\xmc4_scu.h ****  */
2278:C:/Users/Utente/Desktop/Tesi/Firmware_Software/DAVE project/S2GLP_Pulsed_Doppler/Libraries/XMCLib/inc\xmc4_scu.h **** void XMC_SCU_CLOCK_EnableHighPerformanceOscillator(void);
2279:C:/Users/Utente/Desktop/Tesi/Firmware_Software/DAVE project/S2GLP_Pulsed_Doppler/Libraries/XMCLib/inc\xmc4_scu.h **** 
2280:C:/Users/Utente/Desktop/Tesi/Firmware_Software/DAVE project/S2GLP_Pulsed_Doppler/Libraries/XMCLib/inc\xmc4_scu.h **** /**
2281:C:/Users/Utente/Desktop/Tesi/Firmware_Software/DAVE project/S2GLP_Pulsed_Doppler/Libraries/XMCLib/inc\xmc4_scu.h ****  * @return None
2282:C:/Users/Utente/Desktop/Tesi/Firmware_Software/DAVE project/S2GLP_Pulsed_Doppler/Libraries/XMCLib/inc\xmc4_scu.h ****  *
2283:C:/Users/Utente/Desktop/Tesi/Firmware_Software/DAVE project/S2GLP_Pulsed_Doppler/Libraries/XMCLib/inc\xmc4_scu.h ****  * \par<b>Description</b><br>
2284:C:/Users/Utente/Desktop/Tesi/Firmware_Software/DAVE project/S2GLP_Pulsed_Doppler/Libraries/XMCLib/inc\xmc4_scu.h ****  * Disables the high precision oscillator by disabling the external oscillator.\n\n
2285:C:/Users/Utente/Desktop/Tesi/Firmware_Software/DAVE project/S2GLP_Pulsed_Doppler/Libraries/XMCLib/inc\xmc4_scu.h ****  * The API configures \a MODE bits of \a OSCHPCTRL register to 1, there by disabling the 
2286:C:/Users/Utente/Desktop/Tesi/Firmware_Software/DAVE project/S2GLP_Pulsed_Doppler/Libraries/XMCLib/inc\xmc4_scu.h ****  * external oscillator. 
2287:C:/Users/Utente/Desktop/Tesi/Firmware_Software/DAVE project/S2GLP_Pulsed_Doppler/Libraries/XMCLib/inc\xmc4_scu.h ****  * \par<b>Related APIs:</b><BR>
2288:C:/Users/Utente/Desktop/Tesi/Firmware_Software/DAVE project/S2GLP_Pulsed_Doppler/Libraries/XMCLib/inc\xmc4_scu.h ****  * XMC_SCU_CLOCK_EnableHighPerformanceOscillator() \n\n\n
2289:C:/Users/Utente/Desktop/Tesi/Firmware_Software/DAVE project/S2GLP_Pulsed_Doppler/Libraries/XMCLib/inc\xmc4_scu.h ****  */
2290:C:/Users/Utente/Desktop/Tesi/Firmware_Software/DAVE project/S2GLP_Pulsed_Doppler/Libraries/XMCLib/inc\xmc4_scu.h **** void XMC_SCU_CLOCK_DisableHighPerformanceOscillator(void);
2291:C:/Users/Utente/Desktop/Tesi/Firmware_Software/DAVE project/S2GLP_Pulsed_Doppler/Libraries/XMCLib/inc\xmc4_scu.h **** 
2292:C:/Users/Utente/Desktop/Tesi/Firmware_Software/DAVE project/S2GLP_Pulsed_Doppler/Libraries/XMCLib/inc\xmc4_scu.h **** /**
2293:C:/Users/Utente/Desktop/Tesi/Firmware_Software/DAVE project/S2GLP_Pulsed_Doppler/Libraries/XMCLib/inc\xmc4_scu.h ****  *
2294:C:/Users/Utente/Desktop/Tesi/Firmware_Software/DAVE project/S2GLP_Pulsed_Doppler/Libraries/XMCLib/inc\xmc4_scu.h ****  * @return Status of high performance oscillator
2295:C:/Users/Utente/Desktop/Tesi/Firmware_Software/DAVE project/S2GLP_Pulsed_Doppler/Libraries/XMCLib/inc\xmc4_scu.h ****  *
2296:C:/Users/Utente/Desktop/Tesi/Firmware_Software/DAVE project/S2GLP_Pulsed_Doppler/Libraries/XMCLib/inc\xmc4_scu.h ****  * \par<b>Description</b><br>
2297:C:/Users/Utente/Desktop/Tesi/Firmware_Software/DAVE project/S2GLP_Pulsed_Doppler/Libraries/XMCLib/inc\xmc4_scu.h ****  * Checks if the OSC_HP oscillator is stable and usable
2298:C:/Users/Utente/Desktop/Tesi/Firmware_Software/DAVE project/S2GLP_Pulsed_Doppler/Libraries/XMCLib/inc\xmc4_scu.h ****  * \par<b>Related APIs:</b><BR>
2299:C:/Users/Utente/Desktop/Tesi/Firmware_Software/DAVE project/S2GLP_Pulsed_Doppler/Libraries/XMCLib/inc\xmc4_scu.h ****  * XMC_SCU_CLOCK_EnableHighPerformanceOscillator() \n\n\n
2300:C:/Users/Utente/Desktop/Tesi/Firmware_Software/DAVE project/S2GLP_Pulsed_Doppler/Libraries/XMCLib/inc\xmc4_scu.h ****  */
2301:C:/Users/Utente/Desktop/Tesi/Firmware_Software/DAVE project/S2GLP_Pulsed_Doppler/Libraries/XMCLib/inc\xmc4_scu.h **** bool XMC_SCU_CLOCK_IsHighPerformanceOscillatorStable(void);
2302:C:/Users/Utente/Desktop/Tesi/Firmware_Software/DAVE project/S2GLP_Pulsed_Doppler/Libraries/XMCLib/inc\xmc4_scu.h **** 
2303:C:/Users/Utente/Desktop/Tesi/Firmware_Software/DAVE project/S2GLP_Pulsed_Doppler/Libraries/XMCLib/inc\xmc4_scu.h **** /**
2304:C:/Users/Utente/Desktop/Tesi/Firmware_Software/DAVE project/S2GLP_Pulsed_Doppler/Libraries/XMCLib/inc\xmc4_scu.h ****  *
2305:C:/Users/Utente/Desktop/Tesi/Firmware_Software/DAVE project/S2GLP_Pulsed_Doppler/Libraries/XMCLib/inc\xmc4_scu.h ****  * @return None
2306:C:/Users/Utente/Desktop/Tesi/Firmware_Software/DAVE project/S2GLP_Pulsed_Doppler/Libraries/XMCLib/inc\xmc4_scu.h ****  *
2307:C:/Users/Utente/Desktop/Tesi/Firmware_Software/DAVE project/S2GLP_Pulsed_Doppler/Libraries/XMCLib/inc\xmc4_scu.h ****  * \par<b>Description</b><br>
2308:C:/Users/Utente/Desktop/Tesi/Firmware_Software/DAVE project/S2GLP_Pulsed_Doppler/Libraries/XMCLib/inc\xmc4_scu.h ****  * Enables XTAL1 input of OSC_ULP as general purpose input.
2309:C:/Users/Utente/Desktop/Tesi/Firmware_Software/DAVE project/S2GLP_Pulsed_Doppler/Libraries/XMCLib/inc\xmc4_scu.h ****  * Use XMC_SCU_CLOCK_GetHighPerformanceOscillatorGeneralPurposeInputStatus to monitor the status of
2310:C:/Users/Utente/Desktop/Tesi/Firmware_Software/DAVE project/S2GLP_Pulsed_Doppler/Libraries/XMCLib/inc\xmc4_scu.h ****  * @Note OSC_ULP should be disabled previously using XMC_SCU_CLOCK_DisableHighPerformanceOscillator
2311:C:/Users/Utente/Desktop/Tesi/Firmware_Software/DAVE project/S2GLP_Pulsed_Doppler/Libraries/XMCLib/inc\xmc4_scu.h ****  * \par<b>Related APIs:</b><BR>
2312:C:/Users/Utente/Desktop/Tesi/Firmware_Software/DAVE project/S2GLP_Pulsed_Doppler/Libraries/XMCLib/inc\xmc4_scu.h ****  * XMC_SCU_CLOCK_DisableHighPerformanceOscillator() \n\n\n
2313:C:/Users/Utente/Desktop/Tesi/Firmware_Software/DAVE project/S2GLP_Pulsed_Doppler/Libraries/XMCLib/inc\xmc4_scu.h ****  */
2314:C:/Users/Utente/Desktop/Tesi/Firmware_Software/DAVE project/S2GLP_Pulsed_Doppler/Libraries/XMCLib/inc\xmc4_scu.h **** void XMC_SCU_CLOCK_EnableHighPerformanceOscillatorGeneralPurposeInput(void);
2315:C:/Users/Utente/Desktop/Tesi/Firmware_Software/DAVE project/S2GLP_Pulsed_Doppler/Libraries/XMCLib/inc\xmc4_scu.h **** 
2316:C:/Users/Utente/Desktop/Tesi/Firmware_Software/DAVE project/S2GLP_Pulsed_Doppler/Libraries/XMCLib/inc\xmc4_scu.h **** /**
2317:C:/Users/Utente/Desktop/Tesi/Firmware_Software/DAVE project/S2GLP_Pulsed_Doppler/Libraries/XMCLib/inc\xmc4_scu.h ****  *
2318:C:/Users/Utente/Desktop/Tesi/Firmware_Software/DAVE project/S2GLP_Pulsed_Doppler/Libraries/XMCLib/inc\xmc4_scu.h ****  * @return None
2319:C:/Users/Utente/Desktop/Tesi/Firmware_Software/DAVE project/S2GLP_Pulsed_Doppler/Libraries/XMCLib/inc\xmc4_scu.h ****  *
2320:C:/Users/Utente/Desktop/Tesi/Firmware_Software/DAVE project/S2GLP_Pulsed_Doppler/Libraries/XMCLib/inc\xmc4_scu.h ****  * \par<b>Description</b><br>
2321:C:/Users/Utente/Desktop/Tesi/Firmware_Software/DAVE project/S2GLP_Pulsed_Doppler/Libraries/XMCLib/inc\xmc4_scu.h ****  * Disables XTAL1 input of OSC_ULP as general purpose input.
2322:C:/Users/Utente/Desktop/Tesi/Firmware_Software/DAVE project/S2GLP_Pulsed_Doppler/Libraries/XMCLib/inc\xmc4_scu.h ****  * \par<b>Related APIs:</b><BR>
2323:C:/Users/Utente/Desktop/Tesi/Firmware_Software/DAVE project/S2GLP_Pulsed_Doppler/Libraries/XMCLib/inc\xmc4_scu.h ****  * XMC_SCU_CLOCK_EnableHighPerformanceOscillatorGeneralPurposeInput() \n\n\n
2324:C:/Users/Utente/Desktop/Tesi/Firmware_Software/DAVE project/S2GLP_Pulsed_Doppler/Libraries/XMCLib/inc\xmc4_scu.h ****  */
2325:C:/Users/Utente/Desktop/Tesi/Firmware_Software/DAVE project/S2GLP_Pulsed_Doppler/Libraries/XMCLib/inc\xmc4_scu.h **** void XMC_SCU_CLOCK_DisableHighPerformanceOscillatorGeneralPurposeInput(void);
2326:C:/Users/Utente/Desktop/Tesi/Firmware_Software/DAVE project/S2GLP_Pulsed_Doppler/Libraries/XMCLib/inc\xmc4_scu.h **** 
2327:C:/Users/Utente/Desktop/Tesi/Firmware_Software/DAVE project/S2GLP_Pulsed_Doppler/Libraries/XMCLib/inc\xmc4_scu.h **** /**
2328:C:/Users/Utente/Desktop/Tesi/Firmware_Software/DAVE project/S2GLP_Pulsed_Doppler/Libraries/XMCLib/inc\xmc4_scu.h ****  *
2329:C:/Users/Utente/Desktop/Tesi/Firmware_Software/DAVE project/S2GLP_Pulsed_Doppler/Libraries/XMCLib/inc\xmc4_scu.h ****  * @return Status OSC_HP XTAL1 pin
2330:C:/Users/Utente/Desktop/Tesi/Firmware_Software/DAVE project/S2GLP_Pulsed_Doppler/Libraries/XMCLib/inc\xmc4_scu.h ****  *
2331:C:/Users/Utente/Desktop/Tesi/Firmware_Software/DAVE project/S2GLP_Pulsed_Doppler/Libraries/XMCLib/inc\xmc4_scu.h ****  * \par<b>Description</b><br>
2332:C:/Users/Utente/Desktop/Tesi/Firmware_Software/DAVE project/S2GLP_Pulsed_Doppler/Libraries/XMCLib/inc\xmc4_scu.h ****  * Monitor the status of OSC_HP XTAL1 pin.
2333:C:/Users/Utente/Desktop/Tesi/Firmware_Software/DAVE project/S2GLP_Pulsed_Doppler/Libraries/XMCLib/inc\xmc4_scu.h ****  * \par<b>Related APIs:</b><BR>
2334:C:/Users/Utente/Desktop/Tesi/Firmware_Software/DAVE project/S2GLP_Pulsed_Doppler/Libraries/XMCLib/inc\xmc4_scu.h ****  * XMC_SCU_CLOCK_EnableHighPerformanceOscillatorGeneralPurposeInput() \n\n\n
2335:C:/Users/Utente/Desktop/Tesi/Firmware_Software/DAVE project/S2GLP_Pulsed_Doppler/Libraries/XMCLib/inc\xmc4_scu.h ****  */
2336:C:/Users/Utente/Desktop/Tesi/Firmware_Software/DAVE project/S2GLP_Pulsed_Doppler/Libraries/XMCLib/inc\xmc4_scu.h **** uint32_t XMC_SCU_CLOCK_GetHighPerformanceOscillatorGeneralPurposeInputStatus(void);
2337:C:/Users/Utente/Desktop/Tesi/Firmware_Software/DAVE project/S2GLP_Pulsed_Doppler/Libraries/XMCLib/inc\xmc4_scu.h **** 
2338:C:/Users/Utente/Desktop/Tesi/Firmware_Software/DAVE project/S2GLP_Pulsed_Doppler/Libraries/XMCLib/inc\xmc4_scu.h **** /**
2339:C:/Users/Utente/Desktop/Tesi/Firmware_Software/DAVE project/S2GLP_Pulsed_Doppler/Libraries/XMCLib/inc\xmc4_scu.h ****  *
2340:C:/Users/Utente/Desktop/Tesi/Firmware_Software/DAVE project/S2GLP_Pulsed_Doppler/Libraries/XMCLib/inc\xmc4_scu.h ****  * @return None
2341:C:/Users/Utente/Desktop/Tesi/Firmware_Software/DAVE project/S2GLP_Pulsed_Doppler/Libraries/XMCLib/inc\xmc4_scu.h ****  *
2342:C:/Users/Utente/Desktop/Tesi/Firmware_Software/DAVE project/S2GLP_Pulsed_Doppler/Libraries/XMCLib/inc\xmc4_scu.h ****  * \par<b>Description</b><br>
2343:C:/Users/Utente/Desktop/Tesi/Firmware_Software/DAVE project/S2GLP_Pulsed_Doppler/Libraries/XMCLib/inc\xmc4_scu.h ****  * Enables ultra low power oscillator(ULP). \n\n
2344:C:/Users/Utente/Desktop/Tesi/Firmware_Software/DAVE project/S2GLP_Pulsed_Doppler/Libraries/XMCLib/inc\xmc4_scu.h ****  * It enables the hibernate domain, configures the ultra low power oscillator
2345:C:/Users/Utente/Desktop/Tesi/Firmware_Software/DAVE project/S2GLP_Pulsed_Doppler/Libraries/XMCLib/inc\xmc4_scu.h ****  * uisng the \a MODE bits of the \a OSCULCTRL register. The \a Mode bits will be
2346:C:/Users/Utente/Desktop/Tesi/Firmware_Software/DAVE project/S2GLP_Pulsed_Doppler/Libraries/XMCLib/inc\xmc4_scu.h ****  * reset to 0 to enable the low power oscillator. Mirror register update delays 
2347:C:/Users/Utente/Desktop/Tesi/Firmware_Software/DAVE project/S2GLP_Pulsed_Doppler/Libraries/XMCLib/inc\xmc4_scu.h ****  * are handled internally.
2348:C:/Users/Utente/Desktop/Tesi/Firmware_Software/DAVE project/S2GLP_Pulsed_Doppler/Libraries/XMCLib/inc\xmc4_scu.h ****  * The OSC_ULP Oscillator Watchdog is enabled. The user should check the status 
2349:C:/Users/Utente/Desktop/Tesi/Firmware_Software/DAVE project/S2GLP_Pulsed_Doppler/Libraries/XMCLib/inc\xmc4_scu.h ****  * of the oscillator using XMC_SCU_CLOCK_IsLowPowerOscillatorStable()
2350:C:/Users/Utente/Desktop/Tesi/Firmware_Software/DAVE project/S2GLP_Pulsed_Doppler/Libraries/XMCLib/inc\xmc4_scu.h ****  * \par<b>Related APIs:</b><BR>
2351:C:/Users/Utente/Desktop/Tesi/Firmware_Software/DAVE project/S2GLP_Pulsed_Doppler/Libraries/XMCLib/inc\xmc4_scu.h ****  * XMC_SCU_CLOCK_DisableLowPowerOscillator() 
2352:C:/Users/Utente/Desktop/Tesi/Firmware_Software/DAVE project/S2GLP_Pulsed_Doppler/Libraries/XMCLib/inc\xmc4_scu.h ****  * XMC_SCU_CLOCK_IsLowPowerOscillatorStable() \n\n\n
2353:C:/Users/Utente/Desktop/Tesi/Firmware_Software/DAVE project/S2GLP_Pulsed_Doppler/Libraries/XMCLib/inc\xmc4_scu.h ****  */
2354:C:/Users/Utente/Desktop/Tesi/Firmware_Software/DAVE project/S2GLP_Pulsed_Doppler/Libraries/XMCLib/inc\xmc4_scu.h **** void XMC_SCU_CLOCK_EnableLowPowerOscillator(void);
2355:C:/Users/Utente/Desktop/Tesi/Firmware_Software/DAVE project/S2GLP_Pulsed_Doppler/Libraries/XMCLib/inc\xmc4_scu.h **** 
2356:C:/Users/Utente/Desktop/Tesi/Firmware_Software/DAVE project/S2GLP_Pulsed_Doppler/Libraries/XMCLib/inc\xmc4_scu.h **** /**
2357:C:/Users/Utente/Desktop/Tesi/Firmware_Software/DAVE project/S2GLP_Pulsed_Doppler/Libraries/XMCLib/inc\xmc4_scu.h ****  *
2358:C:/Users/Utente/Desktop/Tesi/Firmware_Software/DAVE project/S2GLP_Pulsed_Doppler/Libraries/XMCLib/inc\xmc4_scu.h ****  * @return None
2359:C:/Users/Utente/Desktop/Tesi/Firmware_Software/DAVE project/S2GLP_Pulsed_Doppler/Libraries/XMCLib/inc\xmc4_scu.h ****  *
2360:C:/Users/Utente/Desktop/Tesi/Firmware_Software/DAVE project/S2GLP_Pulsed_Doppler/Libraries/XMCLib/inc\xmc4_scu.h ****  * \par<b>Description</b><br>
2361:C:/Users/Utente/Desktop/Tesi/Firmware_Software/DAVE project/S2GLP_Pulsed_Doppler/Libraries/XMCLib/inc\xmc4_scu.h ****  * Disables ultra low power oscillator.\n\n
2362:C:/Users/Utente/Desktop/Tesi/Firmware_Software/DAVE project/S2GLP_Pulsed_Doppler/Libraries/XMCLib/inc\xmc4_scu.h ****  * It is disabled by setting the \a MODE bits of \a OSCULCTRL register to value 2.
2363:C:/Users/Utente/Desktop/Tesi/Firmware_Software/DAVE project/S2GLP_Pulsed_Doppler/Libraries/XMCLib/inc\xmc4_scu.h ****  * By default on power up, the ultra low power osciallator is disabled.
2364:C:/Users/Utente/Desktop/Tesi/Firmware_Software/DAVE project/S2GLP_Pulsed_Doppler/Libraries/XMCLib/inc\xmc4_scu.h ****  * \par<b>Related APIs:</b><BR>
2365:C:/Users/Utente/Desktop/Tesi/Firmware_Software/DAVE project/S2GLP_Pulsed_Doppler/Libraries/XMCLib/inc\xmc4_scu.h ****  * XMC_SCU_CLOCK_EnableLowPowerOscillator() \n\n\n
2366:C:/Users/Utente/Desktop/Tesi/Firmware_Software/DAVE project/S2GLP_Pulsed_Doppler/Libraries/XMCLib/inc\xmc4_scu.h ****  */
2367:C:/Users/Utente/Desktop/Tesi/Firmware_Software/DAVE project/S2GLP_Pulsed_Doppler/Libraries/XMCLib/inc\xmc4_scu.h **** void XMC_SCU_CLOCK_DisableLowPowerOscillator(void);
2368:C:/Users/Utente/Desktop/Tesi/Firmware_Software/DAVE project/S2GLP_Pulsed_Doppler/Libraries/XMCLib/inc\xmc4_scu.h **** 
2369:C:/Users/Utente/Desktop/Tesi/Firmware_Software/DAVE project/S2GLP_Pulsed_Doppler/Libraries/XMCLib/inc\xmc4_scu.h **** /**
2370:C:/Users/Utente/Desktop/Tesi/Firmware_Software/DAVE project/S2GLP_Pulsed_Doppler/Libraries/XMCLib/inc\xmc4_scu.h ****  *
2371:C:/Users/Utente/Desktop/Tesi/Firmware_Software/DAVE project/S2GLP_Pulsed_Doppler/Libraries/XMCLib/inc\xmc4_scu.h ****  * @return Status of low power oscillator
2372:C:/Users/Utente/Desktop/Tesi/Firmware_Software/DAVE project/S2GLP_Pulsed_Doppler/Libraries/XMCLib/inc\xmc4_scu.h ****  *
2373:C:/Users/Utente/Desktop/Tesi/Firmware_Software/DAVE project/S2GLP_Pulsed_Doppler/Libraries/XMCLib/inc\xmc4_scu.h ****  * \par<b>Description</b><br>
2374:C:/Users/Utente/Desktop/Tesi/Firmware_Software/DAVE project/S2GLP_Pulsed_Doppler/Libraries/XMCLib/inc\xmc4_scu.h ****  * Checks if the OSC_ULP oscillator is stable and usable
2375:C:/Users/Utente/Desktop/Tesi/Firmware_Software/DAVE project/S2GLP_Pulsed_Doppler/Libraries/XMCLib/inc\xmc4_scu.h ****  * \par<b>Related APIs:</b><BR>
2376:C:/Users/Utente/Desktop/Tesi/Firmware_Software/DAVE project/S2GLP_Pulsed_Doppler/Libraries/XMCLib/inc\xmc4_scu.h ****  * XMC_SCU_CLOCK_EnableLowPowerOscillator() \n\n\n
2377:C:/Users/Utente/Desktop/Tesi/Firmware_Software/DAVE project/S2GLP_Pulsed_Doppler/Libraries/XMCLib/inc\xmc4_scu.h ****  */
2378:C:/Users/Utente/Desktop/Tesi/Firmware_Software/DAVE project/S2GLP_Pulsed_Doppler/Libraries/XMCLib/inc\xmc4_scu.h **** bool XMC_SCU_CLOCK_IsLowPowerOscillatorStable(void);
2379:C:/Users/Utente/Desktop/Tesi/Firmware_Software/DAVE project/S2GLP_Pulsed_Doppler/Libraries/XMCLib/inc\xmc4_scu.h **** 
2380:C:/Users/Utente/Desktop/Tesi/Firmware_Software/DAVE project/S2GLP_Pulsed_Doppler/Libraries/XMCLib/inc\xmc4_scu.h **** /**
2381:C:/Users/Utente/Desktop/Tesi/Firmware_Software/DAVE project/S2GLP_Pulsed_Doppler/Libraries/XMCLib/inc\xmc4_scu.h ****  *
2382:C:/Users/Utente/Desktop/Tesi/Firmware_Software/DAVE project/S2GLP_Pulsed_Doppler/Libraries/XMCLib/inc\xmc4_scu.h ****  * @return None
2383:C:/Users/Utente/Desktop/Tesi/Firmware_Software/DAVE project/S2GLP_Pulsed_Doppler/Libraries/XMCLib/inc\xmc4_scu.h ****  *
2384:C:/Users/Utente/Desktop/Tesi/Firmware_Software/DAVE project/S2GLP_Pulsed_Doppler/Libraries/XMCLib/inc\xmc4_scu.h ****  * \par<b>Description</b><br>
2385:C:/Users/Utente/Desktop/Tesi/Firmware_Software/DAVE project/S2GLP_Pulsed_Doppler/Libraries/XMCLib/inc\xmc4_scu.h ****  * Enables XTAL1 input of OSC_ULP as general purpose input.
2386:C:/Users/Utente/Desktop/Tesi/Firmware_Software/DAVE project/S2GLP_Pulsed_Doppler/Libraries/XMCLib/inc\xmc4_scu.h ****  * Use XMC_SCU_CLOCK_GetLowPowerOscillatorGeneralPurposeInputStatus to monitor the status of OSC_UL
2387:C:/Users/Utente/Desktop/Tesi/Firmware_Software/DAVE project/S2GLP_Pulsed_Doppler/Libraries/XMCLib/inc\xmc4_scu.h ****  * @Note OSC_ULP should be disabled previously using XMC_SCU_CLOCK_DisableLowPowerOscillator().
2388:C:/Users/Utente/Desktop/Tesi/Firmware_Software/DAVE project/S2GLP_Pulsed_Doppler/Libraries/XMCLib/inc\xmc4_scu.h ****  *
2389:C:/Users/Utente/Desktop/Tesi/Firmware_Software/DAVE project/S2GLP_Pulsed_Doppler/Libraries/XMCLib/inc\xmc4_scu.h ****  * \note
2390:C:/Users/Utente/Desktop/Tesi/Firmware_Software/DAVE project/S2GLP_Pulsed_Doppler/Libraries/XMCLib/inc\xmc4_scu.h ****  * The register update in HIB domain is indicated by the MIRRST register which can be polled using 
2391:C:/Users/Utente/Desktop/Tesi/Firmware_Software/DAVE project/S2GLP_Pulsed_Doppler/Libraries/XMCLib/inc\xmc4_scu.h ****  *
2392:C:/Users/Utente/Desktop/Tesi/Firmware_Software/DAVE project/S2GLP_Pulsed_Doppler/Libraries/XMCLib/inc\xmc4_scu.h ****  * \par<b>Related APIs:</b><BR>
2393:C:/Users/Utente/Desktop/Tesi/Firmware_Software/DAVE project/S2GLP_Pulsed_Doppler/Libraries/XMCLib/inc\xmc4_scu.h ****  * XMC_SCU_CLOCK_DisableLowPowerOscillator() \n\n\n
2394:C:/Users/Utente/Desktop/Tesi/Firmware_Software/DAVE project/S2GLP_Pulsed_Doppler/Libraries/XMCLib/inc\xmc4_scu.h ****  */
2395:C:/Users/Utente/Desktop/Tesi/Firmware_Software/DAVE project/S2GLP_Pulsed_Doppler/Libraries/XMCLib/inc\xmc4_scu.h **** void XMC_SCU_CLOCK_EnableLowPowerOscillatorGeneralPurposeInput(void);
2396:C:/Users/Utente/Desktop/Tesi/Firmware_Software/DAVE project/S2GLP_Pulsed_Doppler/Libraries/XMCLib/inc\xmc4_scu.h **** 
2397:C:/Users/Utente/Desktop/Tesi/Firmware_Software/DAVE project/S2GLP_Pulsed_Doppler/Libraries/XMCLib/inc\xmc4_scu.h **** /**
2398:C:/Users/Utente/Desktop/Tesi/Firmware_Software/DAVE project/S2GLP_Pulsed_Doppler/Libraries/XMCLib/inc\xmc4_scu.h ****  *
2399:C:/Users/Utente/Desktop/Tesi/Firmware_Software/DAVE project/S2GLP_Pulsed_Doppler/Libraries/XMCLib/inc\xmc4_scu.h ****  * @return None
2400:C:/Users/Utente/Desktop/Tesi/Firmware_Software/DAVE project/S2GLP_Pulsed_Doppler/Libraries/XMCLib/inc\xmc4_scu.h ****  *
2401:C:/Users/Utente/Desktop/Tesi/Firmware_Software/DAVE project/S2GLP_Pulsed_Doppler/Libraries/XMCLib/inc\xmc4_scu.h ****  * \par<b>Description</b><br>
2402:C:/Users/Utente/Desktop/Tesi/Firmware_Software/DAVE project/S2GLP_Pulsed_Doppler/Libraries/XMCLib/inc\xmc4_scu.h ****  * Disables XTAL1 input of OSC_ULP as general purpose input.
2403:C:/Users/Utente/Desktop/Tesi/Firmware_Software/DAVE project/S2GLP_Pulsed_Doppler/Libraries/XMCLib/inc\xmc4_scu.h ****  * \par<b>Related APIs:</b><BR>
2404:C:/Users/Utente/Desktop/Tesi/Firmware_Software/DAVE project/S2GLP_Pulsed_Doppler/Libraries/XMCLib/inc\xmc4_scu.h ****  *
2405:C:/Users/Utente/Desktop/Tesi/Firmware_Software/DAVE project/S2GLP_Pulsed_Doppler/Libraries/XMCLib/inc\xmc4_scu.h ****  * \note
2406:C:/Users/Utente/Desktop/Tesi/Firmware_Software/DAVE project/S2GLP_Pulsed_Doppler/Libraries/XMCLib/inc\xmc4_scu.h ****  * The register update in HIB domain is indicated by the MIRRST register which can be polled using 
2407:C:/Users/Utente/Desktop/Tesi/Firmware_Software/DAVE project/S2GLP_Pulsed_Doppler/Libraries/XMCLib/inc\xmc4_scu.h ****  *
2408:C:/Users/Utente/Desktop/Tesi/Firmware_Software/DAVE project/S2GLP_Pulsed_Doppler/Libraries/XMCLib/inc\xmc4_scu.h ****  * XMC_SCU_CLOCK_EnableLowPowerOscillatorGeneralPurposeInput() \n\n\n
2409:C:/Users/Utente/Desktop/Tesi/Firmware_Software/DAVE project/S2GLP_Pulsed_Doppler/Libraries/XMCLib/inc\xmc4_scu.h ****  */
2410:C:/Users/Utente/Desktop/Tesi/Firmware_Software/DAVE project/S2GLP_Pulsed_Doppler/Libraries/XMCLib/inc\xmc4_scu.h **** void XMC_SCU_CLOCK_DisableLowPowerOscillatorGeneralPurposeInput(void);
2411:C:/Users/Utente/Desktop/Tesi/Firmware_Software/DAVE project/S2GLP_Pulsed_Doppler/Libraries/XMCLib/inc\xmc4_scu.h **** 
2412:C:/Users/Utente/Desktop/Tesi/Firmware_Software/DAVE project/S2GLP_Pulsed_Doppler/Libraries/XMCLib/inc\xmc4_scu.h **** /**
2413:C:/Users/Utente/Desktop/Tesi/Firmware_Software/DAVE project/S2GLP_Pulsed_Doppler/Libraries/XMCLib/inc\xmc4_scu.h ****  *
2414:C:/Users/Utente/Desktop/Tesi/Firmware_Software/DAVE project/S2GLP_Pulsed_Doppler/Libraries/XMCLib/inc\xmc4_scu.h ****  * @return Status OSC_ULP XTAL1 pin 
2415:C:/Users/Utente/Desktop/Tesi/Firmware_Software/DAVE project/S2GLP_Pulsed_Doppler/Libraries/XMCLib/inc\xmc4_scu.h ****  *
2416:C:/Users/Utente/Desktop/Tesi/Firmware_Software/DAVE project/S2GLP_Pulsed_Doppler/Libraries/XMCLib/inc\xmc4_scu.h ****  * \par<b>Description</b><br>
2417:C:/Users/Utente/Desktop/Tesi/Firmware_Software/DAVE project/S2GLP_Pulsed_Doppler/Libraries/XMCLib/inc\xmc4_scu.h ****  * Monitor the status of OSC_ULP XTAL1 pin.
2418:C:/Users/Utente/Desktop/Tesi/Firmware_Software/DAVE project/S2GLP_Pulsed_Doppler/Libraries/XMCLib/inc\xmc4_scu.h ****  * \par<b>Related APIs:</b><BR>
2419:C:/Users/Utente/Desktop/Tesi/Firmware_Software/DAVE project/S2GLP_Pulsed_Doppler/Libraries/XMCLib/inc\xmc4_scu.h ****  * XMC_SCU_CLOCK_EnableLowPowerOscillatorGeneralPurposeInput() \n\n\n
2420:C:/Users/Utente/Desktop/Tesi/Firmware_Software/DAVE project/S2GLP_Pulsed_Doppler/Libraries/XMCLib/inc\xmc4_scu.h ****  */
2421:C:/Users/Utente/Desktop/Tesi/Firmware_Software/DAVE project/S2GLP_Pulsed_Doppler/Libraries/XMCLib/inc\xmc4_scu.h **** uint32_t XMC_SCU_CLOCK_GetLowPowerOscillatorGeneralPurposeInputStatus(void);
2422:C:/Users/Utente/Desktop/Tesi/Firmware_Software/DAVE project/S2GLP_Pulsed_Doppler/Libraries/XMCLib/inc\xmc4_scu.h **** 
2423:C:/Users/Utente/Desktop/Tesi/Firmware_Software/DAVE project/S2GLP_Pulsed_Doppler/Libraries/XMCLib/inc\xmc4_scu.h **** /**
2424:C:/Users/Utente/Desktop/Tesi/Firmware_Software/DAVE project/S2GLP_Pulsed_Doppler/Libraries/XMCLib/inc\xmc4_scu.h ****  *
2425:C:/Users/Utente/Desktop/Tesi/Firmware_Software/DAVE project/S2GLP_Pulsed_Doppler/Libraries/XMCLib/inc\xmc4_scu.h ****  * @return uint32_t   System frequency in Hertz.\n
2426:C:/Users/Utente/Desktop/Tesi/Firmware_Software/DAVE project/S2GLP_Pulsed_Doppler/Libraries/XMCLib/inc\xmc4_scu.h ****  *            \b Range: clock frequency in Hertz. Range of the value depends on the source clock fr
2427:C:/Users/Utente/Desktop/Tesi/Firmware_Software/DAVE project/S2GLP_Pulsed_Doppler/Libraries/XMCLib/inc\xmc4_scu.h ****  *            and the configured values of dividers.
2428:C:/Users/Utente/Desktop/Tesi/Firmware_Software/DAVE project/S2GLP_Pulsed_Doppler/Libraries/XMCLib/inc\xmc4_scu.h ****  *
2429:C:/Users/Utente/Desktop/Tesi/Firmware_Software/DAVE project/S2GLP_Pulsed_Doppler/Libraries/XMCLib/inc\xmc4_scu.h ****  * \par<b>Description</b><br>
2430:C:/Users/Utente/Desktop/Tesi/Firmware_Software/DAVE project/S2GLP_Pulsed_Doppler/Libraries/XMCLib/inc\xmc4_scu.h ****  * Provides the value of system PLL output clock frequency(fPLL).\n\n
2431:C:/Users/Utente/Desktop/Tesi/Firmware_Software/DAVE project/S2GLP_Pulsed_Doppler/Libraries/XMCLib/inc\xmc4_scu.h ****  * The API uses \a N-DIV,  \a P-DIV,  \a K1-DIV,  \a K2-DIV bits information from \a PLLCON1 regist
2432:C:/Users/Utente/Desktop/Tesi/Firmware_Software/DAVE project/S2GLP_Pulsed_Doppler/Libraries/XMCLib/inc\xmc4_scu.h ****  * VCOBYP bit information from \a PLLCON0 register. It calculates frequency of system pll clock usi
2433:C:/Users/Utente/Desktop/Tesi/Firmware_Software/DAVE project/S2GLP_Pulsed_Doppler/Libraries/XMCLib/inc\xmc4_scu.h ****  * If normal Mode : fPLL = (fOSC * N)/(P * K2).
2434:C:/Users/Utente/Desktop/Tesi/Firmware_Software/DAVE project/S2GLP_Pulsed_Doppler/Libraries/XMCLib/inc\xmc4_scu.h ****  * If prescaler mode: fPLL = fOSC/ K1.
2435:C:/Users/Utente/Desktop/Tesi/Firmware_Software/DAVE project/S2GLP_Pulsed_Doppler/Libraries/XMCLib/inc\xmc4_scu.h ****  * \par<b>Related APIs:</b><BR>
2436:C:/Users/Utente/Desktop/Tesi/Firmware_Software/DAVE project/S2GLP_Pulsed_Doppler/Libraries/XMCLib/inc\xmc4_scu.h ****  * XMC_SCU_CLOCK_SetSystemClockSource() \n\n\n
2437:C:/Users/Utente/Desktop/Tesi/Firmware_Software/DAVE project/S2GLP_Pulsed_Doppler/Libraries/XMCLib/inc\xmc4_scu.h ****  */
2438:C:/Users/Utente/Desktop/Tesi/Firmware_Software/DAVE project/S2GLP_Pulsed_Doppler/Libraries/XMCLib/inc\xmc4_scu.h **** uint32_t XMC_SCU_CLOCK_GetSystemPllClockFrequency(void);
2439:C:/Users/Utente/Desktop/Tesi/Firmware_Software/DAVE project/S2GLP_Pulsed_Doppler/Libraries/XMCLib/inc\xmc4_scu.h **** 
2440:C:/Users/Utente/Desktop/Tesi/Firmware_Software/DAVE project/S2GLP_Pulsed_Doppler/Libraries/XMCLib/inc\xmc4_scu.h **** /**
2441:C:/Users/Utente/Desktop/Tesi/Firmware_Software/DAVE project/S2GLP_Pulsed_Doppler/Libraries/XMCLib/inc\xmc4_scu.h ****  *
2442:C:/Users/Utente/Desktop/Tesi/Firmware_Software/DAVE project/S2GLP_Pulsed_Doppler/Libraries/XMCLib/inc\xmc4_scu.h ****  * @return uint32_t  Source clock used for deriving system clock.\n
2443:C:/Users/Utente/Desktop/Tesi/Firmware_Software/DAVE project/S2GLP_Pulsed_Doppler/Libraries/XMCLib/inc\xmc4_scu.h ****  *          \b Range: fOHP frequency if external high precision frequency is used. \n
2444:C:/Users/Utente/Desktop/Tesi/Firmware_Software/DAVE project/S2GLP_Pulsed_Doppler/Libraries/XMCLib/inc\xmc4_scu.h ****  *                    fOFI fast internal clock frequency.
2445:C:/Users/Utente/Desktop/Tesi/Firmware_Software/DAVE project/S2GLP_Pulsed_Doppler/Libraries/XMCLib/inc\xmc4_scu.h ****  *
2446:C:/Users/Utente/Desktop/Tesi/Firmware_Software/DAVE project/S2GLP_Pulsed_Doppler/Libraries/XMCLib/inc\xmc4_scu.h ****  * \par<b>Description</b><br>
2447:C:/Users/Utente/Desktop/Tesi/Firmware_Software/DAVE project/S2GLP_Pulsed_Doppler/Libraries/XMCLib/inc\xmc4_scu.h ****  * Provides the value of the input clock frequency for deriving the system clock.
2448:C:/Users/Utente/Desktop/Tesi/Firmware_Software/DAVE project/S2GLP_Pulsed_Doppler/Libraries/XMCLib/inc\xmc4_scu.h ****  * The API retrieves frequency of system PLL input clock (fPLLin).
2449:C:/Users/Utente/Desktop/Tesi/Firmware_Software/DAVE project/S2GLP_Pulsed_Doppler/Libraries/XMCLib/inc\xmc4_scu.h ****  * Based on \a PINSEL bits information from \a PLLCON2 register, the parent clock source is obtaine
2450:C:/Users/Utente/Desktop/Tesi/Firmware_Software/DAVE project/S2GLP_Pulsed_Doppler/Libraries/XMCLib/inc\xmc4_scu.h ****  * This bit field specifies if fOHP or fOFI is used for deriving system clock.
2451:C:/Users/Utente/Desktop/Tesi/Firmware_Software/DAVE project/S2GLP_Pulsed_Doppler/Libraries/XMCLib/inc\xmc4_scu.h ****  * System clock frequency is obtained by dividing the source clock frequency with different divider
2452:C:/Users/Utente/Desktop/Tesi/Firmware_Software/DAVE project/S2GLP_Pulsed_Doppler/Libraries/XMCLib/inc\xmc4_scu.h ****  * \par<b>Related APIs:</b><BR>
2453:C:/Users/Utente/Desktop/Tesi/Firmware_Software/DAVE project/S2GLP_Pulsed_Doppler/Libraries/XMCLib/inc\xmc4_scu.h ****  * XMC_SCU_CLOCK_GetSystemPllClockFrequency() \n\n\n
2454:C:/Users/Utente/Desktop/Tesi/Firmware_Software/DAVE project/S2GLP_Pulsed_Doppler/Libraries/XMCLib/inc\xmc4_scu.h ****  */
2455:C:/Users/Utente/Desktop/Tesi/Firmware_Software/DAVE project/S2GLP_Pulsed_Doppler/Libraries/XMCLib/inc\xmc4_scu.h **** uint32_t XMC_SCU_CLOCK_GetSystemPllClockSourceFrequency(void);
2456:C:/Users/Utente/Desktop/Tesi/Firmware_Software/DAVE project/S2GLP_Pulsed_Doppler/Libraries/XMCLib/inc\xmc4_scu.h **** 
2457:C:/Users/Utente/Desktop/Tesi/Firmware_Software/DAVE project/S2GLP_Pulsed_Doppler/Libraries/XMCLib/inc\xmc4_scu.h **** /**
2458:C:/Users/Utente/Desktop/Tesi/Firmware_Software/DAVE project/S2GLP_Pulsed_Doppler/Libraries/XMCLib/inc\xmc4_scu.h ****  *
2459:C:/Users/Utente/Desktop/Tesi/Firmware_Software/DAVE project/S2GLP_Pulsed_Doppler/Libraries/XMCLib/inc\xmc4_scu.h ****  * @return uint32_t   USB PLL output clock frequency.
2460:C:/Users/Utente/Desktop/Tesi/Firmware_Software/DAVE project/S2GLP_Pulsed_Doppler/Libraries/XMCLib/inc\xmc4_scu.h ****  *
2461:C:/Users/Utente/Desktop/Tesi/Firmware_Software/DAVE project/S2GLP_Pulsed_Doppler/Libraries/XMCLib/inc\xmc4_scu.h ****  * \par<b>Description</b><br>
2462:C:/Users/Utente/Desktop/Tesi/Firmware_Software/DAVE project/S2GLP_Pulsed_Doppler/Libraries/XMCLib/inc\xmc4_scu.h ****  * Provides the frequency of USB PLL output clock (fUSBPLL).\n\n
2463:C:/Users/Utente/Desktop/Tesi/Firmware_Software/DAVE project/S2GLP_Pulsed_Doppler/Libraries/XMCLib/inc\xmc4_scu.h ****  * It obtains the \a VCOBYP bits information from \a USBPLLCON register and decides if USB PLL mode
2464:C:/Users/Utente/Desktop/Tesi/Firmware_Software/DAVE project/S2GLP_Pulsed_Doppler/Libraries/XMCLib/inc\xmc4_scu.h ****  * If USB PLL mode is used, the USB clock frequency is obtained by dividing the source clock by USB
2465:C:/Users/Utente/Desktop/Tesi/Firmware_Software/DAVE project/S2GLP_Pulsed_Doppler/Libraries/XMCLib/inc\xmc4_scu.h ****  * The frequency is obtained using following formula:\n
2466:C:/Users/Utente/Desktop/Tesi/Firmware_Software/DAVE project/S2GLP_Pulsed_Doppler/Libraries/XMCLib/inc\xmc4_scu.h ****  * If Normal Mode : fUSBPLL = (fOSC * N)/(P * 2).\n
2467:C:/Users/Utente/Desktop/Tesi/Firmware_Software/DAVE project/S2GLP_Pulsed_Doppler/Libraries/XMCLib/inc\xmc4_scu.h ****  * If Prescaler mode: fPLL = fOSC.
2468:C:/Users/Utente/Desktop/Tesi/Firmware_Software/DAVE project/S2GLP_Pulsed_Doppler/Libraries/XMCLib/inc\xmc4_scu.h ****  * \par<b>Related APIs:</b><BR>
2469:C:/Users/Utente/Desktop/Tesi/Firmware_Software/DAVE project/S2GLP_Pulsed_Doppler/Libraries/XMCLib/inc\xmc4_scu.h ****  * XMC_SCU_CLOCK_GetSystemPllClockSourceFrequency() \n\n\n
2470:C:/Users/Utente/Desktop/Tesi/Firmware_Software/DAVE project/S2GLP_Pulsed_Doppler/Libraries/XMCLib/inc\xmc4_scu.h ****  */
2471:C:/Users/Utente/Desktop/Tesi/Firmware_Software/DAVE project/S2GLP_Pulsed_Doppler/Libraries/XMCLib/inc\xmc4_scu.h **** uint32_t XMC_SCU_CLOCK_GetUsbPllClockFrequency(void);
2472:C:/Users/Utente/Desktop/Tesi/Firmware_Software/DAVE project/S2GLP_Pulsed_Doppler/Libraries/XMCLib/inc\xmc4_scu.h **** 
2473:C:/Users/Utente/Desktop/Tesi/Firmware_Software/DAVE project/S2GLP_Pulsed_Doppler/Libraries/XMCLib/inc\xmc4_scu.h **** /**
2474:C:/Users/Utente/Desktop/Tesi/Firmware_Software/DAVE project/S2GLP_Pulsed_Doppler/Libraries/XMCLib/inc\xmc4_scu.h ****  *
2475:C:/Users/Utente/Desktop/Tesi/Firmware_Software/DAVE project/S2GLP_Pulsed_Doppler/Libraries/XMCLib/inc\xmc4_scu.h ****  * @return uint32_t   System clock frequency in Hertz.
2476:C:/Users/Utente/Desktop/Tesi/Firmware_Software/DAVE project/S2GLP_Pulsed_Doppler/Libraries/XMCLib/inc\xmc4_scu.h ****  *
2477:C:/Users/Utente/Desktop/Tesi/Firmware_Software/DAVE project/S2GLP_Pulsed_Doppler/Libraries/XMCLib/inc\xmc4_scu.h ****  * \par<b>Description</b><br>
2478:C:/Users/Utente/Desktop/Tesi/Firmware_Software/DAVE project/S2GLP_Pulsed_Doppler/Libraries/XMCLib/inc\xmc4_scu.h ****  * Provides the frequency of system clock (fSYS).\n\n
2479:C:/Users/Utente/Desktop/Tesi/Firmware_Software/DAVE project/S2GLP_Pulsed_Doppler/Libraries/XMCLib/inc\xmc4_scu.h ****  * The value obtained by dividing \a CPUDIV bits information of \a CPUCLKCR register with SystemCor
2480:C:/Users/Utente/Desktop/Tesi/Firmware_Software/DAVE project/S2GLP_Pulsed_Doppler/Libraries/XMCLib/inc\xmc4_scu.h ****  * Based on these values, fSYS clock frequency is derived using the following formula:\n
2481:C:/Users/Utente/Desktop/Tesi/Firmware_Software/DAVE project/S2GLP_Pulsed_Doppler/Libraries/XMCLib/inc\xmc4_scu.h ****  * fSYS = fCPU << CPUDIV.
2482:C:/Users/Utente/Desktop/Tesi/Firmware_Software/DAVE project/S2GLP_Pulsed_Doppler/Libraries/XMCLib/inc\xmc4_scu.h ****  * \par<b>Related APIs:</b><BR>
2483:C:/Users/Utente/Desktop/Tesi/Firmware_Software/DAVE project/S2GLP_Pulsed_Doppler/Libraries/XMCLib/inc\xmc4_scu.h ****  * XMC_SCU_CLOCK_GetUsbPllClockFrequency() \n\n\n
2484:C:/Users/Utente/Desktop/Tesi/Firmware_Software/DAVE project/S2GLP_Pulsed_Doppler/Libraries/XMCLib/inc\xmc4_scu.h ****  */
2485:C:/Users/Utente/Desktop/Tesi/Firmware_Software/DAVE project/S2GLP_Pulsed_Doppler/Libraries/XMCLib/inc\xmc4_scu.h **** __STATIC_INLINE uint32_t XMC_SCU_CLOCK_GetSystemClockFrequency(void)
2486:C:/Users/Utente/Desktop/Tesi/Firmware_Software/DAVE project/S2GLP_Pulsed_Doppler/Libraries/XMCLib/inc\xmc4_scu.h **** {
2487:C:/Users/Utente/Desktop/Tesi/Firmware_Software/DAVE project/S2GLP_Pulsed_Doppler/Libraries/XMCLib/inc\xmc4_scu.h ****   return SystemCoreClock << ((SCU_CLK->CPUCLKCR & SCU_CLK_CPUCLKCR_CPUDIV_Msk) >> SCU_CLK_CPUCLKCR_
 1327              	 .loc 2 2487 0
 1328 0000 054B     	 ldr r3,.L138
 1329 0002 0649     	 ldr r1,.L138+4
 1330 0004 1A69     	 ldr r2,[r3,#16]
 1331              	.LVL89:
 1332 0006 0868     	 ldr r0,[r1]
 1333              	.LBE75:
 1334              	.LBE74:
 754:../Libraries/XMCLib/src/xmc4_scu.c ****   uint32_t frequency = 0UL;
 755:../Libraries/XMCLib/src/xmc4_scu.c ****   frequency = XMC_SCU_CLOCK_GetSystemClockFrequency();
 756:../Libraries/XMCLib/src/xmc4_scu.c ****   
 757:../Libraries/XMCLib/src/xmc4_scu.c ****   return (uint32_t)(frequency >> ((uint32_t)((SCU_CLK->CCUCLKCR & SCU_CLK_CCUCLKCR_CCUDIV_Msk) >>
 1335              	 .loc 1 757 0
 1336 0008 1B6A     	 ldr r3,[r3,#32]
 1337              	.LBB78:
 1338              	.LBB76:
 1339              	 .loc 2 2487 0
 1340 000a 02F00102 	 and r2,r2,#1
 1341              	.LBE76:
 1342              	.LBE78:
 1343              	 .loc 1 757 0
 1344 000e 03F00103 	 and r3,r3,#1
 1345              	.LBB79:
 1346              	.LBB77:
 1347              	 .loc 2 2487 0
 1348 0012 9040     	 lsls r0,r0,r2
 1349              	.LBE77:
 1350              	.LBE79:
 758:../Libraries/XMCLib/src/xmc4_scu.c ****                                               SCU_CLK_CCUCLKCR_CCUDIV_Pos)));
 759:../Libraries/XMCLib/src/xmc4_scu.c **** }
 1351              	 .loc 1 759 0
 1352 0014 D840     	 lsrs r0,r0,r3
 1353 0016 7047     	 bx lr
 1354              	.L139:
 1355              	 .align 2
 1356              	.L138:
 1357 0018 00460050 	 .word 1342195200
 1358 001c 00000000 	 .word SystemCoreClock
 1359              	 .cfi_endproc
 1360              	.LFE204:
 1362              	 .section .text.XMC_SCU_CLOCK_GetUsbClockFrequency,"ax",%progbits
 1363              	 .align 2
 1364              	 .global XMC_SCU_CLOCK_GetUsbClockFrequency
 1365              	 .thumb
 1366              	 .thumb_func
 1368              	XMC_SCU_CLOCK_GetUsbClockFrequency:
 1369              	.LFB205:
 760:../Libraries/XMCLib/src/xmc4_scu.c **** 
 761:../Libraries/XMCLib/src/xmc4_scu.c **** /*
 762:../Libraries/XMCLib/src/xmc4_scu.c ****  * API to retrieve USB and SDMMC clock frequency
 763:../Libraries/XMCLib/src/xmc4_scu.c ****  */
 764:../Libraries/XMCLib/src/xmc4_scu.c **** uint32_t XMC_SCU_CLOCK_GetUsbClockFrequency(void)
 765:../Libraries/XMCLib/src/xmc4_scu.c **** {
 1370              	 .loc 1 765 0
 1371              	 .cfi_startproc
 1372              	 
 1373              	 
 1374              	.LVL90:
 1375              	.LBB88:
 1376              	.LBB89:
1709:C:/Users/Utente/Desktop/Tesi/Firmware_Software/DAVE project/S2GLP_Pulsed_Doppler/Libraries/XMCLib/inc\xmc4_scu.h **** }
 1377              	 .loc 2 1709 0
 1378 0000 234B     	 ldr r3,.L152
 1379 0002 9B69     	 ldr r3,[r3,#24]
 1380              	.LBE89:
 1381              	.LBE88:
 766:../Libraries/XMCLib/src/xmc4_scu.c ****   uint32_t frequency = 0UL;
 767:../Libraries/XMCLib/src/xmc4_scu.c ****   XMC_SCU_CLOCK_USBCLKSRC_t clksrc;
 768:../Libraries/XMCLib/src/xmc4_scu.c **** 
 769:../Libraries/XMCLib/src/xmc4_scu.c ****   clksrc = XMC_SCU_CLOCK_GetUsbClockSource();
 770:../Libraries/XMCLib/src/xmc4_scu.c **** 
 771:../Libraries/XMCLib/src/xmc4_scu.c ****   if (clksrc == XMC_SCU_CLOCK_USBCLKSRC_SYSPLL)
 1382              	 .loc 1 771 0
 1383 0004 13F48033 	 ands r3,r3,#65536
 765:../Libraries/XMCLib/src/xmc4_scu.c ****   uint32_t frequency = 0UL;
 1384              	 .loc 1 765 0
 1385 0008 10B5     	 push {r4,lr}
 1386              	.LCFI2:
 1387              	 .cfi_def_cfa_offset 8
 1388              	 .cfi_offset 4,-8
 1389              	 .cfi_offset 14,-4
 1390              	 .loc 1 771 0
 1391 000a 1CD1     	 bne .L148
 772:../Libraries/XMCLib/src/xmc4_scu.c ****   {
 773:../Libraries/XMCLib/src/xmc4_scu.c ****     frequency = XMC_SCU_CLOCK_GetSystemPllClockFrequency();
 774:../Libraries/XMCLib/src/xmc4_scu.c ****   }
 775:../Libraries/XMCLib/src/xmc4_scu.c ****   else if (clksrc == XMC_SCU_CLOCK_USBCLKSRC_USBPLL)
 1392              	 .loc 1 775 0
 1393 000c 43B1     	 cbz r3,.L149
 766:../Libraries/XMCLib/src/xmc4_scu.c ****   XMC_SCU_CLOCK_USBCLKSRC_t clksrc;
 1394              	 .loc 1 766 0
 1395 000e 0020     	 movs r0,#0
 1396              	.L144:
 1397              	.LVL91:
 776:../Libraries/XMCLib/src/xmc4_scu.c ****   {
 777:../Libraries/XMCLib/src/xmc4_scu.c ****     frequency = XMC_SCU_CLOCK_GetUsbPllClockFrequency();
 778:../Libraries/XMCLib/src/xmc4_scu.c ****   }
 779:../Libraries/XMCLib/src/xmc4_scu.c ****   else
 780:../Libraries/XMCLib/src/xmc4_scu.c ****   {
 781:../Libraries/XMCLib/src/xmc4_scu.c ****   }
 782:../Libraries/XMCLib/src/xmc4_scu.c **** 
 783:../Libraries/XMCLib/src/xmc4_scu.c ****   return (uint32_t)(frequency / (((SCU_CLK->USBCLKCR & SCU_CLK_USBCLKCR_USBDIV_Msk) >>
 1398              	 .loc 1 783 0
 1399 0010 1F4B     	 ldr r3,.L152
 1400 0012 9B69     	 ldr r3,[r3,#24]
 1401 0014 03F00703 	 and r3,r3,#7
 784:../Libraries/XMCLib/src/xmc4_scu.c ****                                    SCU_CLK_USBCLKCR_USBDIV_Pos) + 1UL));
 1402              	 .loc 1 784 0
 1403 0018 0133     	 adds r3,r3,#1
 785:../Libraries/XMCLib/src/xmc4_scu.c **** }
 1404              	 .loc 1 785 0
 1405 001a B0FBF3F0 	 udiv r0,r0,r3
 1406              	.LVL92:
 1407 001e 10BD     	 pop {r4,pc}
 1408              	.LVL93:
 1409              	.L149:
 1410              	.LBB90:
 1411              	.LBB91:
 738:../Libraries/XMCLib/src/xmc4_scu.c ****   if((SCU_PLL->USBPLLSTAT & SCU_PLL_USBPLLSTAT_VCOBYST_Msk) == 0U)
 1412              	 .loc 1 738 0
 1413 0020 FFF7FEFF 	 bl OSCHP_GetFrequency
 1414              	.LVL94:
 739:../Libraries/XMCLib/src/xmc4_scu.c ****   {
 1415              	 .loc 1 739 0
 1416 0024 1B4B     	 ldr r3,.L152+4
 1417 0026 1A69     	 ldr r2,[r3,#16]
 1418 0028 D207     	 lsls r2,r2,#31
 1419 002a F1D4     	 bmi .L144
 742:../Libraries/XMCLib/src/xmc4_scu.c ****     p_div = (uint32_t)((((SCU_PLL->USBPLLCON) & SCU_PLL_USBPLLCON_PDIV_Msk) >> SCU_PLL_USBPLLCON_PD
 1420              	 .loc 1 742 0
 1421 002c 5A69     	 ldr r2,[r3,#20]
 1422              	.LVL95:
 743:../Libraries/XMCLib/src/xmc4_scu.c ****     clock_frequency = (uint32_t)((clock_frequency * n_div)/ (uint32_t)(p_div * 2UL));
 1423              	 .loc 1 743 0
 1424 002e 5B69     	 ldr r3,[r3,#20]
 1425              	.LVL96:
 1426 0030 C3F30363 	 ubfx r3,r3,#24,#4
 1427              	.LVL97:
 1428 0034 0133     	 adds r3,r3,#1
 742:../Libraries/XMCLib/src/xmc4_scu.c ****     p_div = (uint32_t)((((SCU_PLL->USBPLLCON) & SCU_PLL_USBPLLCON_PDIV_Msk) >> SCU_PLL_USBPLLCON_PD
 1429              	 .loc 1 742 0
 1430 0036 C2F30622 	 ubfx r2,r2,#8,#7
 1431              	.LVL98:
 744:../Libraries/XMCLib/src/xmc4_scu.c ****   }
 1432              	 .loc 1 744 0
 1433 003a 5B00     	 lsls r3,r3,#1
 1434 003c 02FB0000 	 mla r0,r2,r0,r0
 1435              	.LVL99:
 1436 0040 B0FBF3F0 	 udiv r0,r0,r3
 1437              	.LVL100:
 1438 0044 E4E7     	 b .L144
 1439              	.LVL101:
 1440              	.L148:
 1441              	.LBE91:
 1442              	.LBE90:
 1443              	.LBB92:
 1444              	.LBB93:
 1445              	.LBB94:
 1446              	.LBB95:
 717:../Libraries/XMCLib/src/xmc4_scu.c ****   {
 1447              	 .loc 1 717 0
 1448 0046 134B     	 ldr r3,.L152+4
 1449 0048 DB68     	 ldr r3,[r3,#12]
 1450 004a D907     	 lsls r1,r3,#31
 1451 004c 1CD5     	 bpl .L150
 723:../Libraries/XMCLib/src/xmc4_scu.c ****   }
 1452              	 .loc 1 723 0
 1453 004e 1248     	 ldr r0,.L152+8
 1454              	.L142:
 1455              	.LVL102:
 1456              	.LBE95:
 1457              	.LBE94:
 691:../Libraries/XMCLib/src/xmc4_scu.c ****   {
 1458              	 .loc 1 691 0
 1459 0050 104A     	 ldr r2,.L152+4
 1460 0052 1368     	 ldr r3,[r2]
 1461 0054 13F0010F 	 tst r3,#1
 695:../Libraries/XMCLib/src/xmc4_scu.c ****   }
 1462              	 .loc 1 695 0
 1463 0058 9368     	 ldr r3,[r2,#8]
 691:../Libraries/XMCLib/src/xmc4_scu.c ****   {
 1464              	 .loc 1 691 0
 1465 005a 0FD1     	 bne .L151
 1466              	.LVL103:
 700:../Libraries/XMCLib/src/xmc4_scu.c ****     k2_div = (uint32_t)((((SCU_PLL->PLLCON1) & SCU_PLL_PLLCON1_K2DIV_Msk) >> SCU_PLL_PLLCON1_K2DIV_
 1467              	 .loc 1 700 0
 1468 005c 9168     	 ldr r1,[r2,#8]
 1469              	.LVL104:
 701:../Libraries/XMCLib/src/xmc4_scu.c ****        
 1470              	 .loc 1 701 0
 1471 005e 9468     	 ldr r4,[r2,#8]
 1472              	.LVL105:
 699:../Libraries/XMCLib/src/xmc4_scu.c ****     n_div  = (uint32_t)((((SCU_PLL->PLLCON1) & SCU_PLL_PLLCON1_NDIV_Msk) >> SCU_PLL_PLLCON1_NDIV_Po
 1473              	 .loc 1 699 0
 1474 0060 C3F30363 	 ubfx r3,r3,#24,#4
 1475              	.LVL106:
 1476 0064 0133     	 adds r3,r3,#1
 701:../Libraries/XMCLib/src/xmc4_scu.c ****        
 1477              	 .loc 1 701 0
 1478 0066 C4F30644 	 ubfx r4,r4,#16,#7
 1479              	.LVL107:
 700:../Libraries/XMCLib/src/xmc4_scu.c ****     k2_div = (uint32_t)((((SCU_PLL->PLLCON1) & SCU_PLL_PLLCON1_K2DIV_Msk) >> SCU_PLL_PLLCON1_K2DIV_
 1480              	 .loc 1 700 0
 1481 006a C1F30622 	 ubfx r2,r1,#8,#7
 703:../Libraries/XMCLib/src/xmc4_scu.c ****   }
 1482              	 .loc 1 703 0
 1483 006e 04FB0333 	 mla r3,r4,r3,r3
 1484 0072 02FB0000 	 mla r0,r2,r0,r0
 1485              	.LVL108:
 1486 0076 B0FBF3F0 	 udiv r0,r0,r3
 1487              	.LVL109:
 1488 007a C9E7     	 b .L144
 1489              	.LVL110:
 1490              	.L151:
 695:../Libraries/XMCLib/src/xmc4_scu.c ****   }
 1491              	 .loc 1 695 0
 1492 007c 03F07F03 	 and r3,r3,#127
 1493 0080 0133     	 adds r3,r3,#1
 694:../Libraries/XMCLib/src/xmc4_scu.c ****                       ((((SCU_PLL->PLLCON1) & SCU_PLL_PLLCON1_K1DIV_Msk) >> SCU_PLL_PLLCON1_K1DIV_P
 1494              	 .loc 1 694 0
 1495 0082 B0FBF3F0 	 udiv r0,r0,r3
 1496              	.LVL111:
 1497 0086 C3E7     	 b .L144
 1498              	.LVL112:
 1499              	.L150:
 1500              	.LBB97:
 1501              	.LBB96:
 719:../Libraries/XMCLib/src/xmc4_scu.c ****   }
 1502              	 .loc 1 719 0
 1503 0088 FFF7FEFF 	 bl OSCHP_GetFrequency
 1504              	.LVL113:
 1505 008c E0E7     	 b .L142
 1506              	.L153:
 1507 008e 00BF     	 .align 2
 1508              	.L152:
 1509 0090 00460050 	 .word 1342195200
 1510 0094 10470050 	 .word 1342195472
 1511 0098 00366E01 	 .word 24000000
 1512              	.LBE96:
 1513              	.LBE97:
 1514              	.LBE93:
 1515              	.LBE92:
 1516              	 .cfi_endproc
 1517              	.LFE205:
 1519              	 .section .text.XMC_SCU_CLOCK_GetEbuClockFrequency,"ax",%progbits
 1520              	 .align 2
 1521              	 .global XMC_SCU_CLOCK_GetEbuClockFrequency
 1522              	 .thumb
 1523              	 .thumb_func
 1525              	XMC_SCU_CLOCK_GetEbuClockFrequency:
 1526              	.LFB206:
 786:../Libraries/XMCLib/src/xmc4_scu.c **** 
 787:../Libraries/XMCLib/src/xmc4_scu.c **** #if defined(EBU)
 788:../Libraries/XMCLib/src/xmc4_scu.c **** /*
 789:../Libraries/XMCLib/src/xmc4_scu.c ****  * API to retrieve EBU clock frequency
 790:../Libraries/XMCLib/src/xmc4_scu.c ****  */
 791:../Libraries/XMCLib/src/xmc4_scu.c **** uint32_t XMC_SCU_CLOCK_GetEbuClockFrequency(void)
 792:../Libraries/XMCLib/src/xmc4_scu.c **** {
 1527              	 .loc 1 792 0
 1528              	 .cfi_startproc
 1529              	 
 1530              	 
 1531              	.LBB102:
 1532              	.LBB103:
 1533              	.LBB104:
 1534              	.LBB105:
 717:../Libraries/XMCLib/src/xmc4_scu.c ****   {
 1535              	 .loc 1 717 0
 1536 0000 154B     	 ldr r3,.L162
 1537 0002 DB68     	 ldr r3,[r3,#12]
 1538 0004 DB07     	 lsls r3,r3,#31
 1539              	.LBE105:
 1540              	.LBE104:
 1541              	.LBE103:
 1542              	.LBE102:
 1543              	 .loc 1 792 0
 1544 0006 10B5     	 push {r4,lr}
 1545              	.LCFI3:
 1546              	 .cfi_def_cfa_offset 8
 1547              	 .cfi_offset 4,-8
 1548              	 .cfi_offset 14,-4
 1549              	.LBB112:
 1550              	.LBB110:
 1551              	.LBB108:
 1552              	.LBB106:
 717:../Libraries/XMCLib/src/xmc4_scu.c ****   {
 1553              	 .loc 1 717 0
 1554 0008 23D5     	 bpl .L160
 723:../Libraries/XMCLib/src/xmc4_scu.c ****   }
 1555              	 .loc 1 723 0
 1556 000a 1448     	 ldr r0,.L162+4
 1557              	.L155:
 1558              	.LVL114:
 1559              	.LBE106:
 1560              	.LBE108:
 691:../Libraries/XMCLib/src/xmc4_scu.c ****   {
 1561              	 .loc 1 691 0
 1562 000c 124A     	 ldr r2,.L162
 1563 000e 1368     	 ldr r3,[r2]
 1564 0010 13F0010F 	 tst r3,#1
 695:../Libraries/XMCLib/src/xmc4_scu.c ****   }
 1565              	 .loc 1 695 0
 1566 0014 9368     	 ldr r3,[r2,#8]
 691:../Libraries/XMCLib/src/xmc4_scu.c ****   {
 1567              	 .loc 1 691 0
 1568 0016 16D1     	 bne .L161
 1569              	.LVL115:
 700:../Libraries/XMCLib/src/xmc4_scu.c ****     k2_div = (uint32_t)((((SCU_PLL->PLLCON1) & SCU_PLL_PLLCON1_K2DIV_Msk) >> SCU_PLL_PLLCON1_K2DIV_
 1570              	 .loc 1 700 0
 1571 0018 9168     	 ldr r1,[r2,#8]
 1572              	.LVL116:
 701:../Libraries/XMCLib/src/xmc4_scu.c ****        
 1573              	 .loc 1 701 0
 1574 001a 9468     	 ldr r4,[r2,#8]
 1575              	.LVL117:
 699:../Libraries/XMCLib/src/xmc4_scu.c ****     n_div  = (uint32_t)((((SCU_PLL->PLLCON1) & SCU_PLL_PLLCON1_NDIV_Msk) >> SCU_PLL_PLLCON1_NDIV_Po
 1576              	 .loc 1 699 0
 1577 001c C3F30363 	 ubfx r3,r3,#24,#4
 1578              	.LVL118:
 1579 0020 0133     	 adds r3,r3,#1
 701:../Libraries/XMCLib/src/xmc4_scu.c ****        
 1580              	 .loc 1 701 0
 1581 0022 C4F30644 	 ubfx r4,r4,#16,#7
 1582              	.LVL119:
 700:../Libraries/XMCLib/src/xmc4_scu.c ****     k2_div = (uint32_t)((((SCU_PLL->PLLCON1) & SCU_PLL_PLLCON1_K2DIV_Msk) >> SCU_PLL_PLLCON1_K2DIV_
 1583              	 .loc 1 700 0
 1584 0026 C1F30622 	 ubfx r2,r1,#8,#7
 703:../Libraries/XMCLib/src/xmc4_scu.c ****   }
 1585              	 .loc 1 703 0
 1586 002a 04FB0333 	 mla r3,r4,r3,r3
 1587 002e 02FB0000 	 mla r0,r2,r0,r0
 1588              	.LVL120:
 1589 0032 B0FBF3F0 	 udiv r0,r0,r3
 1590              	.LVL121:
 1591              	.L157:
 1592              	.LBE110:
 1593              	.LBE112:
 793:../Libraries/XMCLib/src/xmc4_scu.c ****   uint32_t frequency = XMC_SCU_CLOCK_GetSystemPllClockFrequency();
 794:../Libraries/XMCLib/src/xmc4_scu.c ****   
 795:../Libraries/XMCLib/src/xmc4_scu.c ****   return (uint32_t)((frequency /(((SCU_CLK->EBUCLKCR & SCU_CLK_EBUCLKCR_EBUDIV_Msk) >>
 1594              	 .loc 1 795 0
 1595 0036 0A4B     	 ldr r3,.L162+8
 1596 0038 DB69     	 ldr r3,[r3,#28]
 1597 003a 03F03F03 	 and r3,r3,#63
 796:../Libraries/XMCLib/src/xmc4_scu.c ****                                    SCU_CLK_EBUCLKCR_EBUDIV_Pos) + 1UL)));
 1598              	 .loc 1 796 0
 1599 003e 0133     	 adds r3,r3,#1
 797:../Libraries/XMCLib/src/xmc4_scu.c **** }
 1600              	 .loc 1 797 0
 1601 0040 B0FBF3F0 	 udiv r0,r0,r3
 1602              	.LVL122:
 1603 0044 10BD     	 pop {r4,pc}
 1604              	.LVL123:
 1605              	.L161:
 1606              	.LBB113:
 1607              	.LBB111:
 695:../Libraries/XMCLib/src/xmc4_scu.c ****   }
 1608              	 .loc 1 695 0
 1609 0046 03F07F03 	 and r3,r3,#127
 1610 004a 0133     	 adds r3,r3,#1
 694:../Libraries/XMCLib/src/xmc4_scu.c ****                       ((((SCU_PLL->PLLCON1) & SCU_PLL_PLLCON1_K1DIV_Msk) >> SCU_PLL_PLLCON1_K1DIV_P
 1611              	 .loc 1 694 0
 1612 004c B0FBF3F0 	 udiv r0,r0,r3
 1613              	.LVL124:
 1614 0050 F1E7     	 b .L157
 1615              	.LVL125:
 1616              	.L160:
 1617              	.LBB109:
 1618              	.LBB107:
 719:../Libraries/XMCLib/src/xmc4_scu.c ****   }
 1619              	 .loc 1 719 0
 1620 0052 FFF7FEFF 	 bl OSCHP_GetFrequency
 1621              	.LVL126:
 1622 0056 D9E7     	 b .L155
 1623              	.L163:
 1624              	 .align 2
 1625              	.L162:
 1626 0058 10470050 	 .word 1342195472
 1627 005c 00366E01 	 .word 24000000
 1628 0060 00460050 	 .word 1342195200
 1629              	.LBE107:
 1630              	.LBE109:
 1631              	.LBE111:
 1632              	.LBE113:
 1633              	 .cfi_endproc
 1634              	.LFE206:
 1636              	 .section .text.XMC_SCU_CLOCK_GetWdtClockFrequency,"ax",%progbits
 1637              	 .align 2
 1638              	 .global XMC_SCU_CLOCK_GetWdtClockFrequency
 1639              	 .thumb
 1640              	 .thumb_func
 1642              	XMC_SCU_CLOCK_GetWdtClockFrequency:
 1643              	.LFB207:
 798:../Libraries/XMCLib/src/xmc4_scu.c **** #endif
 799:../Libraries/XMCLib/src/xmc4_scu.c **** 
 800:../Libraries/XMCLib/src/xmc4_scu.c **** #if defined(ECAT0)
 801:../Libraries/XMCLib/src/xmc4_scu.c **** /*
 802:../Libraries/XMCLib/src/xmc4_scu.c ****  * API to retrieve ECAT clock frequency
 803:../Libraries/XMCLib/src/xmc4_scu.c ****  */
 804:../Libraries/XMCLib/src/xmc4_scu.c **** uint32_t XMC_SCU_CLOCK_GetECATClockFrequency(void)
 805:../Libraries/XMCLib/src/xmc4_scu.c **** {
 806:../Libraries/XMCLib/src/xmc4_scu.c ****   uint32_t frequency;
 807:../Libraries/XMCLib/src/xmc4_scu.c **** 
 808:../Libraries/XMCLib/src/xmc4_scu.c ****   if ((SCU_CLK->ECATCLKCR & SCU_CLK_ECATCLKCR_ECATSEL_Msk) != 0U)
 809:../Libraries/XMCLib/src/xmc4_scu.c ****   {
 810:../Libraries/XMCLib/src/xmc4_scu.c ****     frequency =  XMC_SCU_CLOCK_GetSystemPllClockFrequency();
 811:../Libraries/XMCLib/src/xmc4_scu.c ****   }
 812:../Libraries/XMCLib/src/xmc4_scu.c ****   else
 813:../Libraries/XMCLib/src/xmc4_scu.c ****   {
 814:../Libraries/XMCLib/src/xmc4_scu.c ****     frequency =  XMC_SCU_CLOCK_GetUsbPllClockFrequency();
 815:../Libraries/XMCLib/src/xmc4_scu.c ****   }
 816:../Libraries/XMCLib/src/xmc4_scu.c **** 
 817:../Libraries/XMCLib/src/xmc4_scu.c ****   return (uint32_t)((frequency / (XMC_SCU_CLOCK_GetECATClockDivider() + 1UL)));
 818:../Libraries/XMCLib/src/xmc4_scu.c **** }
 819:../Libraries/XMCLib/src/xmc4_scu.c **** #endif
 820:../Libraries/XMCLib/src/xmc4_scu.c **** 
 821:../Libraries/XMCLib/src/xmc4_scu.c **** /*
 822:../Libraries/XMCLib/src/xmc4_scu.c ****  * API to retrieve WDT clock frequency
 823:../Libraries/XMCLib/src/xmc4_scu.c ****  */
 824:../Libraries/XMCLib/src/xmc4_scu.c **** uint32_t XMC_SCU_CLOCK_GetWdtClockFrequency(void)
 825:../Libraries/XMCLib/src/xmc4_scu.c **** {
 1644              	 .loc 1 825 0
 1645              	 .cfi_startproc
 1646              	 
 1647              	 
 1648              	.LVL127:
 1649              	.LBB120:
 1650              	.LBB121:
1750:C:/Users/Utente/Desktop/Tesi/Firmware_Software/DAVE project/S2GLP_Pulsed_Doppler/Libraries/XMCLib/inc\xmc4_scu.h **** }
 1651              	 .loc 2 1750 0
 1652 0000 1D4B     	 ldr r3,.L176
 1653 0002 5B6A     	 ldr r3,[r3,#36]
 1654 0004 03F44033 	 and r3,r3,#196608
 1655              	.LBE121:
 1656              	.LBE120:
 826:../Libraries/XMCLib/src/xmc4_scu.c ****   uint32_t frequency = 0UL;
 827:../Libraries/XMCLib/src/xmc4_scu.c ****   XMC_SCU_CLOCK_WDTCLKSRC_t clksrc;
 828:../Libraries/XMCLib/src/xmc4_scu.c **** 
 829:../Libraries/XMCLib/src/xmc4_scu.c ****   clksrc = XMC_SCU_CLOCK_GetWdtClockSource();
 830:../Libraries/XMCLib/src/xmc4_scu.c **** 
 831:../Libraries/XMCLib/src/xmc4_scu.c ****   if (clksrc == XMC_SCU_CLOCK_WDTCLKSRC_PLL)
 1657              	 .loc 1 831 0
 1658 0008 B3F5003F 	 cmp r3,#131072
 825:../Libraries/XMCLib/src/xmc4_scu.c ****   uint32_t frequency = 0UL;
 1659              	 .loc 1 825 0
 1660 000c 10B5     	 push {r4,lr}
 1661              	.LCFI4:
 1662              	 .cfi_def_cfa_offset 8
 1663              	 .cfi_offset 4,-8
 1664              	 .cfi_offset 14,-4
 1665              	 .loc 1 831 0
 1666 000e 0FD0     	 beq .L173
 832:../Libraries/XMCLib/src/xmc4_scu.c ****   {
 833:../Libraries/XMCLib/src/xmc4_scu.c ****     frequency = XMC_SCU_CLOCK_GetSystemPllClockFrequency();
 834:../Libraries/XMCLib/src/xmc4_scu.c ****   }
 835:../Libraries/XMCLib/src/xmc4_scu.c ****   else if (clksrc == XMC_SCU_CLOCK_WDTCLKSRC_OFI)
 1667              	 .loc 1 835 0
 1668 0010 63B1     	 cbz r3,.L170
 836:../Libraries/XMCLib/src/xmc4_scu.c ****   {
 837:../Libraries/XMCLib/src/xmc4_scu.c ****     frequency = OFI_FREQUENCY;
 838:../Libraries/XMCLib/src/xmc4_scu.c ****   }
 839:../Libraries/XMCLib/src/xmc4_scu.c ****   else if (clksrc == XMC_SCU_CLOCK_WDTCLKSRC_STDBY)
 1669              	 .loc 1 839 0
 1670 0012 B3F5803F 	 cmp r3,#65536
 840:../Libraries/XMCLib/src/xmc4_scu.c ****   {
 841:../Libraries/XMCLib/src/xmc4_scu.c ****     frequency = OSI_FREQUENCY;
 1671              	 .loc 1 841 0
 1672 0016 14BF     	 ite ne
 1673 0018 0020     	 movne r0,#0
 1674 001a 4FF40040 	 moveq r0,#32768
 1675              	.L168:
 1676              	.LVL128:
 842:../Libraries/XMCLib/src/xmc4_scu.c ****   }
 843:../Libraries/XMCLib/src/xmc4_scu.c ****   else
 844:../Libraries/XMCLib/src/xmc4_scu.c ****   {
 845:../Libraries/XMCLib/src/xmc4_scu.c **** 
 846:../Libraries/XMCLib/src/xmc4_scu.c ****   }
 847:../Libraries/XMCLib/src/xmc4_scu.c **** 
 848:../Libraries/XMCLib/src/xmc4_scu.c ****   return (uint32_t)((frequency / (((SCU_CLK->WDTCLKCR & SCU_CLK_WDTCLKCR_WDTDIV_Msk) >>
 1677              	 .loc 1 848 0
 1678 001e 164B     	 ldr r3,.L176
 1679 0020 5B6A     	 ldr r3,[r3,#36]
 1680 0022 DBB2     	 uxtb r3,r3
 849:../Libraries/XMCLib/src/xmc4_scu.c ****                                     SCU_CLK_WDTCLKCR_WDTDIV_Pos) + 1UL)));
 1681              	 .loc 1 849 0
 1682 0024 0133     	 adds r3,r3,#1
 850:../Libraries/XMCLib/src/xmc4_scu.c **** }
 1683              	 .loc 1 850 0
 1684 0026 B0FBF3F0 	 udiv r0,r0,r3
 1685              	.LVL129:
 1686 002a 10BD     	 pop {r4,pc}
 1687              	.LVL130:
 1688              	.L170:
 837:../Libraries/XMCLib/src/xmc4_scu.c ****   }
 1689              	 .loc 1 837 0
 1690 002c 1348     	 ldr r0,.L176+4
 1691 002e F6E7     	 b .L168
 1692              	.L173:
 1693              	.LBB122:
 1694              	.LBB123:
 1695              	.LBB124:
 1696              	.LBB125:
 717:../Libraries/XMCLib/src/xmc4_scu.c ****   {
 1697              	 .loc 1 717 0
 1698 0030 134B     	 ldr r3,.L176+8
 1699 0032 DB68     	 ldr r3,[r3,#12]
 1700 0034 DB07     	 lsls r3,r3,#31
 1701 0036 1CD5     	 bpl .L174
 723:../Libraries/XMCLib/src/xmc4_scu.c ****   }
 1702              	 .loc 1 723 0
 1703 0038 1048     	 ldr r0,.L176+4
 1704              	.L166:
 1705              	.LVL131:
 1706              	.LBE125:
 1707              	.LBE124:
 691:../Libraries/XMCLib/src/xmc4_scu.c ****   {
 1708              	 .loc 1 691 0
 1709 003a 114A     	 ldr r2,.L176+8
 1710 003c 1368     	 ldr r3,[r2]
 1711 003e 13F0010F 	 tst r3,#1
 695:../Libraries/XMCLib/src/xmc4_scu.c ****   }
 1712              	 .loc 1 695 0
 1713 0042 9368     	 ldr r3,[r2,#8]
 691:../Libraries/XMCLib/src/xmc4_scu.c ****   {
 1714              	 .loc 1 691 0
 1715 0044 0FD1     	 bne .L175
 1716              	.LVL132:
 700:../Libraries/XMCLib/src/xmc4_scu.c ****     k2_div = (uint32_t)((((SCU_PLL->PLLCON1) & SCU_PLL_PLLCON1_K2DIV_Msk) >> SCU_PLL_PLLCON1_K2DIV_
 1717              	 .loc 1 700 0
 1718 0046 9168     	 ldr r1,[r2,#8]
 1719              	.LVL133:
 701:../Libraries/XMCLib/src/xmc4_scu.c ****        
 1720              	 .loc 1 701 0
 1721 0048 9468     	 ldr r4,[r2,#8]
 1722              	.LVL134:
 699:../Libraries/XMCLib/src/xmc4_scu.c ****     n_div  = (uint32_t)((((SCU_PLL->PLLCON1) & SCU_PLL_PLLCON1_NDIV_Msk) >> SCU_PLL_PLLCON1_NDIV_Po
 1723              	 .loc 1 699 0
 1724 004a C3F30363 	 ubfx r3,r3,#24,#4
 1725              	.LVL135:
 1726 004e 0133     	 adds r3,r3,#1
 701:../Libraries/XMCLib/src/xmc4_scu.c ****        
 1727              	 .loc 1 701 0
 1728 0050 C4F30644 	 ubfx r4,r4,#16,#7
 1729              	.LVL136:
 700:../Libraries/XMCLib/src/xmc4_scu.c ****     k2_div = (uint32_t)((((SCU_PLL->PLLCON1) & SCU_PLL_PLLCON1_K2DIV_Msk) >> SCU_PLL_PLLCON1_K2DIV_
 1730              	 .loc 1 700 0
 1731 0054 C1F30622 	 ubfx r2,r1,#8,#7
 703:../Libraries/XMCLib/src/xmc4_scu.c ****   }
 1732              	 .loc 1 703 0
 1733 0058 04FB0333 	 mla r3,r4,r3,r3
 1734 005c 02FB0000 	 mla r0,r2,r0,r0
 1735              	.LVL137:
 1736 0060 B0FBF3F0 	 udiv r0,r0,r3
 1737              	.LVL138:
 1738 0064 DBE7     	 b .L168
 1739              	.LVL139:
 1740              	.L175:
 695:../Libraries/XMCLib/src/xmc4_scu.c ****   }
 1741              	 .loc 1 695 0
 1742 0066 03F07F03 	 and r3,r3,#127
 1743 006a 0133     	 adds r3,r3,#1
 694:../Libraries/XMCLib/src/xmc4_scu.c ****                       ((((SCU_PLL->PLLCON1) & SCU_PLL_PLLCON1_K1DIV_Msk) >> SCU_PLL_PLLCON1_K1DIV_P
 1744              	 .loc 1 694 0
 1745 006c B0FBF3F0 	 udiv r0,r0,r3
 1746              	.LVL140:
 1747 0070 D5E7     	 b .L168
 1748              	.LVL141:
 1749              	.L174:
 1750              	.LBB127:
 1751              	.LBB126:
 719:../Libraries/XMCLib/src/xmc4_scu.c ****   }
 1752              	 .loc 1 719 0
 1753 0072 FFF7FEFF 	 bl OSCHP_GetFrequency
 1754              	.LVL142:
 1755 0076 E0E7     	 b .L166
 1756              	.L177:
 1757              	 .align 2
 1758              	.L176:
 1759 0078 00460050 	 .word 1342195200
 1760 007c 00366E01 	 .word 24000000
 1761 0080 10470050 	 .word 1342195472
 1762              	.LBE126:
 1763              	.LBE127:
 1764              	.LBE123:
 1765              	.LBE122:
 1766              	 .cfi_endproc
 1767              	.LFE207:
 1769              	 .section .text.XMC_SCU_CLOCK_GetExternalOutputClockFrequency,"ax",%progbits
 1770              	 .align 2
 1771              	 .global XMC_SCU_CLOCK_GetExternalOutputClockFrequency
 1772              	 .thumb
 1773              	 .thumb_func
 1775              	XMC_SCU_CLOCK_GetExternalOutputClockFrequency:
 1776              	.LFB208:
 851:../Libraries/XMCLib/src/xmc4_scu.c **** 
 852:../Libraries/XMCLib/src/xmc4_scu.c **** /**
 853:../Libraries/XMCLib/src/xmc4_scu.c ****  * @brief API to retrieve EXTERNAL-OUT clock frequency
 854:../Libraries/XMCLib/src/xmc4_scu.c ****  * @retval Clock frequency
 855:../Libraries/XMCLib/src/xmc4_scu.c ****  */
 856:../Libraries/XMCLib/src/xmc4_scu.c **** uint32_t XMC_SCU_CLOCK_GetExternalOutputClockFrequency(void)
 857:../Libraries/XMCLib/src/xmc4_scu.c **** {
 1777              	 .loc 1 857 0
 1778              	 .cfi_startproc
 1779              	 
 1780              	 
 1781              	.LVL143:
 1782              	.LBB138:
 1783              	.LBB139:
1879:C:/Users/Utente/Desktop/Tesi/Firmware_Software/DAVE project/S2GLP_Pulsed_Doppler/Libraries/XMCLib/inc\xmc4_scu.h **** }
 1784              	 .loc 2 1879 0
 1785 0000 284A     	 ldr r2,.L194
 1786 0002 936A     	 ldr r3,[r2,#40]
 1787 0004 03F00303 	 and r3,r3,#3
 1788              	.LBE139:
 1789              	.LBE138:
 858:../Libraries/XMCLib/src/xmc4_scu.c ****   uint32_t frequency = 0UL;
 859:../Libraries/XMCLib/src/xmc4_scu.c ****   XMC_SCU_CLOCK_EXTOUTCLKSRC_t clksrc;
 860:../Libraries/XMCLib/src/xmc4_scu.c **** 
 861:../Libraries/XMCLib/src/xmc4_scu.c ****   clksrc = XMC_SCU_CLOCK_GetExternalOutputClockSource();
 862:../Libraries/XMCLib/src/xmc4_scu.c **** 
 863:../Libraries/XMCLib/src/xmc4_scu.c ****   if (clksrc == XMC_SCU_CLOCK_EXTOUTCLKSRC_PLL)
 1790              	 .loc 1 863 0
 1791 0008 032B     	 cmp r3,#3
 857:../Libraries/XMCLib/src/xmc4_scu.c ****   uint32_t frequency = 0UL;
 1792              	 .loc 1 857 0
 1793 000a 10B5     	 push {r4,lr}
 1794              	.LCFI5:
 1795              	 .cfi_def_cfa_offset 8
 1796              	 .cfi_offset 4,-8
 1797              	 .cfi_offset 14,-4
 1798              	 .loc 1 863 0
 1799 000c 25D0     	 beq .L189
 864:../Libraries/XMCLib/src/xmc4_scu.c ****   {
 865:../Libraries/XMCLib/src/xmc4_scu.c ****     frequency = XMC_SCU_CLOCK_GetSystemPllClockFrequency();
 866:../Libraries/XMCLib/src/xmc4_scu.c ****     
 867:../Libraries/XMCLib/src/xmc4_scu.c ****     frequency = (uint32_t)((frequency / ((((SCU_CLK->EXTCLKCR) & SCU_CLK_EXTCLKCR_ECKDIV_Msk) >>
 868:../Libraries/XMCLib/src/xmc4_scu.c ****                  SCU_CLK_EXTCLKCR_ECKDIV_Pos)+ 1UL)));
 869:../Libraries/XMCLib/src/xmc4_scu.c ****   }
 870:../Libraries/XMCLib/src/xmc4_scu.c ****   else if (clksrc == XMC_SCU_CLOCK_EXTOUTCLKSRC_SYS)
 1800              	 .loc 1 870 0
 1801 000e 1BB1     	 cbz r3,.L190
 871:../Libraries/XMCLib/src/xmc4_scu.c ****   {
 872:../Libraries/XMCLib/src/xmc4_scu.c ****     frequency = XMC_SCU_CLOCK_GetSystemClockFrequency();
 873:../Libraries/XMCLib/src/xmc4_scu.c ****   }
 874:../Libraries/XMCLib/src/xmc4_scu.c ****   else if (clksrc == XMC_SCU_CLOCK_EXTOUTCLKSRC_USB)
 1802              	 .loc 1 874 0
 1803 0010 022B     	 cmp r3,#2
 1804 0012 08D0     	 beq .L191
 858:../Libraries/XMCLib/src/xmc4_scu.c ****   XMC_SCU_CLOCK_EXTOUTCLKSRC_t clksrc;
 1805              	 .loc 1 858 0
 1806 0014 0020     	 movs r0,#0
 1807              	.LVL144:
 875:../Libraries/XMCLib/src/xmc4_scu.c ****   {
 876:../Libraries/XMCLib/src/xmc4_scu.c ****     frequency = XMC_SCU_CLOCK_GetUsbPllClockFrequency();
 877:../Libraries/XMCLib/src/xmc4_scu.c ****     
 878:../Libraries/XMCLib/src/xmc4_scu.c ****     frequency = (uint32_t)((frequency / ((((SCU_CLK->EXTCLKCR) & SCU_CLK_EXTCLKCR_ECKDIV_Msk) >>
 879:../Libraries/XMCLib/src/xmc4_scu.c ****                  SCU_CLK_EXTCLKCR_ECKDIV_Pos)+ 1UL)));
 880:../Libraries/XMCLib/src/xmc4_scu.c ****   }
 881:../Libraries/XMCLib/src/xmc4_scu.c ****   else
 882:../Libraries/XMCLib/src/xmc4_scu.c ****   {
 883:../Libraries/XMCLib/src/xmc4_scu.c **** 
 884:../Libraries/XMCLib/src/xmc4_scu.c ****   }
 885:../Libraries/XMCLib/src/xmc4_scu.c **** 
 886:../Libraries/XMCLib/src/xmc4_scu.c ****   return (frequency);
 887:../Libraries/XMCLib/src/xmc4_scu.c **** }
 1808              	 .loc 1 887 0
 1809 0016 10BD     	 pop {r4,pc}
 1810              	.LVL145:
 1811              	.L190:
 1812              	.LBB140:
 1813              	.LBB141:
 1814              	 .loc 2 2487 0
 1815 0018 2349     	 ldr r1,.L194+4
 1816 001a 1369     	 ldr r3,[r2,#16]
 1817 001c 0868     	 ldr r0,[r1]
 1818 001e 03F00103 	 and r3,r3,#1
 1819 0022 9840     	 lsls r0,r0,r3
 1820              	.LVL146:
 1821              	.LBE141:
 1822              	.LBE140:
 1823 0024 10BD     	 pop {r4,pc}
 1824              	.LVL147:
 1825              	.L191:
 1826              	.LBB142:
 1827              	.LBB143:
 738:../Libraries/XMCLib/src/xmc4_scu.c ****   if((SCU_PLL->USBPLLSTAT & SCU_PLL_USBPLLSTAT_VCOBYST_Msk) == 0U)
 1828              	 .loc 1 738 0
 1829 0026 FFF7FEFF 	 bl OSCHP_GetFrequency
 1830              	.LVL148:
 739:../Libraries/XMCLib/src/xmc4_scu.c ****   {
 1831              	 .loc 1 739 0
 1832 002a 204B     	 ldr r3,.L194+8
 1833 002c 1A69     	 ldr r2,[r3,#16]
 1834 002e D207     	 lsls r2,r2,#31
 1835 0030 0BD4     	 bmi .L185
 742:../Libraries/XMCLib/src/xmc4_scu.c ****     p_div = (uint32_t)((((SCU_PLL->USBPLLCON) & SCU_PLL_USBPLLCON_PDIV_Msk) >> SCU_PLL_USBPLLCON_PD
 1836              	 .loc 1 742 0
 1837 0032 5A69     	 ldr r2,[r3,#20]
 1838              	.LVL149:
 743:../Libraries/XMCLib/src/xmc4_scu.c ****     clock_frequency = (uint32_t)((clock_frequency * n_div)/ (uint32_t)(p_div * 2UL));
 1839              	 .loc 1 743 0
 1840 0034 5B69     	 ldr r3,[r3,#20]
 1841              	.LVL150:
 1842 0036 C3F30363 	 ubfx r3,r3,#24,#4
 1843              	.LVL151:
 1844 003a 0133     	 adds r3,r3,#1
 742:../Libraries/XMCLib/src/xmc4_scu.c ****     p_div = (uint32_t)((((SCU_PLL->USBPLLCON) & SCU_PLL_USBPLLCON_PDIV_Msk) >> SCU_PLL_USBPLLCON_PD
 1845              	 .loc 1 742 0
 1846 003c C2F30622 	 ubfx r2,r2,#8,#7
 1847              	.LVL152:
 744:../Libraries/XMCLib/src/xmc4_scu.c ****   }
 1848              	 .loc 1 744 0
 1849 0040 5B00     	 lsls r3,r3,#1
 1850 0042 02FB0000 	 mla r0,r2,r0,r0
 1851              	.LVL153:
 1852 0046 B0FBF3F0 	 udiv r0,r0,r3
 1853              	.LVL154:
 1854              	.L185:
 1855              	.LBE143:
 1856              	.LBE142:
 878:../Libraries/XMCLib/src/xmc4_scu.c ****                  SCU_CLK_EXTCLKCR_ECKDIV_Pos)+ 1UL)));
 1857              	 .loc 1 878 0
 1858 004a 164B     	 ldr r3,.L194
 1859 004c 9B6A     	 ldr r3,[r3,#40]
 1860 004e C3F30843 	 ubfx r3,r3,#16,#9
 879:../Libraries/XMCLib/src/xmc4_scu.c ****   }
 1861              	 .loc 1 879 0
 1862 0052 0133     	 adds r3,r3,#1
 878:../Libraries/XMCLib/src/xmc4_scu.c ****                  SCU_CLK_EXTCLKCR_ECKDIV_Pos)+ 1UL)));
 1863              	 .loc 1 878 0
 1864 0054 B0FBF3F0 	 udiv r0,r0,r3
 1865              	.LVL155:
 1866 0058 10BD     	 pop {r4,pc}
 1867              	.LVL156:
 1868              	.L189:
 1869              	.LBB144:
 1870              	.LBB145:
 1871              	.LBB146:
 1872              	.LBB147:
 717:../Libraries/XMCLib/src/xmc4_scu.c ****   {
 1873              	 .loc 1 717 0
 1874 005a 144B     	 ldr r3,.L194+8
 1875 005c DB68     	 ldr r3,[r3,#12]
 1876 005e D907     	 lsls r1,r3,#31
 1877 0060 1CD5     	 bpl .L192
 723:../Libraries/XMCLib/src/xmc4_scu.c ****   }
 1878              	 .loc 1 723 0
 1879 0062 1348     	 ldr r0,.L194+12
 1880              	.L180:
 1881              	.LVL157:
 1882              	.LBE147:
 1883              	.LBE146:
 691:../Libraries/XMCLib/src/xmc4_scu.c ****   {
 1884              	 .loc 1 691 0
 1885 0064 114A     	 ldr r2,.L194+8
 1886 0066 1368     	 ldr r3,[r2]
 1887 0068 13F0010F 	 tst r3,#1
 695:../Libraries/XMCLib/src/xmc4_scu.c ****   }
 1888              	 .loc 1 695 0
 1889 006c 9368     	 ldr r3,[r2,#8]
 691:../Libraries/XMCLib/src/xmc4_scu.c ****   {
 1890              	 .loc 1 691 0
 1891 006e 0FD1     	 bne .L193
 1892              	.LVL158:
 700:../Libraries/XMCLib/src/xmc4_scu.c ****     k2_div = (uint32_t)((((SCU_PLL->PLLCON1) & SCU_PLL_PLLCON1_K2DIV_Msk) >> SCU_PLL_PLLCON1_K2DIV_
 1893              	 .loc 1 700 0
 1894 0070 9168     	 ldr r1,[r2,#8]
 1895              	.LVL159:
 701:../Libraries/XMCLib/src/xmc4_scu.c ****        
 1896              	 .loc 1 701 0
 1897 0072 9468     	 ldr r4,[r2,#8]
 1898              	.LVL160:
 699:../Libraries/XMCLib/src/xmc4_scu.c ****     n_div  = (uint32_t)((((SCU_PLL->PLLCON1) & SCU_PLL_PLLCON1_NDIV_Msk) >> SCU_PLL_PLLCON1_NDIV_Po
 1899              	 .loc 1 699 0
 1900 0074 C3F30363 	 ubfx r3,r3,#24,#4
 1901              	.LVL161:
 1902 0078 0133     	 adds r3,r3,#1
 701:../Libraries/XMCLib/src/xmc4_scu.c ****        
 1903              	 .loc 1 701 0
 1904 007a C4F30644 	 ubfx r4,r4,#16,#7
 1905              	.LVL162:
 700:../Libraries/XMCLib/src/xmc4_scu.c ****     k2_div = (uint32_t)((((SCU_PLL->PLLCON1) & SCU_PLL_PLLCON1_K2DIV_Msk) >> SCU_PLL_PLLCON1_K2DIV_
 1906              	 .loc 1 700 0
 1907 007e C1F30622 	 ubfx r2,r1,#8,#7
 703:../Libraries/XMCLib/src/xmc4_scu.c ****   }
 1908              	 .loc 1 703 0
 1909 0082 04FB0333 	 mla r3,r4,r3,r3
 1910 0086 02FB0000 	 mla r0,r2,r0,r0
 1911              	.LVL163:
 1912 008a B0FBF3F0 	 udiv r0,r0,r3
 1913              	.LVL164:
 1914 008e DCE7     	 b .L185
 1915              	.LVL165:
 1916              	.L193:
 695:../Libraries/XMCLib/src/xmc4_scu.c ****   }
 1917              	 .loc 1 695 0
 1918 0090 03F07F03 	 and r3,r3,#127
 1919 0094 0133     	 adds r3,r3,#1
 694:../Libraries/XMCLib/src/xmc4_scu.c ****                       ((((SCU_PLL->PLLCON1) & SCU_PLL_PLLCON1_K1DIV_Msk) >> SCU_PLL_PLLCON1_K1DIV_P
 1920              	 .loc 1 694 0
 1921 0096 B0FBF3F0 	 udiv r0,r0,r3
 1922              	.LVL166:
 1923 009a D6E7     	 b .L185
 1924              	.LVL167:
 1925              	.L192:
 1926              	.LBB149:
 1927              	.LBB148:
 719:../Libraries/XMCLib/src/xmc4_scu.c ****   }
 1928              	 .loc 1 719 0
 1929 009c FFF7FEFF 	 bl OSCHP_GetFrequency
 1930              	.LVL168:
 1931 00a0 E0E7     	 b .L180
 1932              	.L195:
 1933 00a2 00BF     	 .align 2
 1934              	.L194:
 1935 00a4 00460050 	 .word 1342195200
 1936 00a8 00000000 	 .word SystemCoreClock
 1937 00ac 10470050 	 .word 1342195472
 1938 00b0 00366E01 	 .word 24000000
 1939              	.LBE148:
 1940              	.LBE149:
 1941              	.LBE145:
 1942              	.LBE144:
 1943              	 .cfi_endproc
 1944              	.LFE208:
 1946              	 .section .text.XMC_SCU_CLOCK_GetPeripheralClockFrequency,"ax",%progbits
 1947              	 .align 2
 1948              	 .global XMC_SCU_CLOCK_GetPeripheralClockFrequency
 1949              	 .thumb
 1950              	 .thumb_func
 1952              	XMC_SCU_CLOCK_GetPeripheralClockFrequency:
 1953              	.LFB209:
 888:../Libraries/XMCLib/src/xmc4_scu.c **** 
 889:../Libraries/XMCLib/src/xmc4_scu.c **** /*
 890:../Libraries/XMCLib/src/xmc4_scu.c ****  * API to retrieve clock frequency of peripherals on the peripheral bus using a shared functional c
 891:../Libraries/XMCLib/src/xmc4_scu.c ****  */
 892:../Libraries/XMCLib/src/xmc4_scu.c **** uint32_t XMC_SCU_CLOCK_GetPeripheralClockFrequency(void)
 893:../Libraries/XMCLib/src/xmc4_scu.c **** {
 1954              	 .loc 1 893 0
 1955              	 .cfi_startproc
 1956              	 
 1957              	 
 1958              	 
 894:../Libraries/XMCLib/src/xmc4_scu.c ****   return (uint32_t)(XMC_SCU_CLOCK_GetCpuClockFrequency() >>
 895:../Libraries/XMCLib/src/xmc4_scu.c ****          ((SCU_CLK->PBCLKCR & SCU_CLK_PBCLKCR_PBDIV_Msk) >> SCU_CLK_PBCLKCR_PBDIV_Pos));  
 1959              	 .loc 1 895 0
 1960 0000 034B     	 ldr r3,.L197
 1961              	.LBB150:
 1962              	.LBB151:
 1963              	 .file 3 "C:/Users/Utente/Desktop/Tesi/Firmware_Software/DAVE project/S2GLP_Pulsed_Doppler/Libraries/XMCLib/inc/xmc_scu.h"
   1:C:/Users/Utente/Desktop/Tesi/Firmware_Software/DAVE project/S2GLP_Pulsed_Doppler/Libraries/XMCLib/inc\xmc_scu.h **** /**
   2:C:/Users/Utente/Desktop/Tesi/Firmware_Software/DAVE project/S2GLP_Pulsed_Doppler/Libraries/XMCLib/inc\xmc_scu.h ****  * @file xmc_scu.h
   3:C:/Users/Utente/Desktop/Tesi/Firmware_Software/DAVE project/S2GLP_Pulsed_Doppler/Libraries/XMCLib/inc\xmc_scu.h ****  * @date 2016-03-09
   4:C:/Users/Utente/Desktop/Tesi/Firmware_Software/DAVE project/S2GLP_Pulsed_Doppler/Libraries/XMCLib/inc\xmc_scu.h ****  *
   5:C:/Users/Utente/Desktop/Tesi/Firmware_Software/DAVE project/S2GLP_Pulsed_Doppler/Libraries/XMCLib/inc\xmc_scu.h ****  * @cond
   6:C:/Users/Utente/Desktop/Tesi/Firmware_Software/DAVE project/S2GLP_Pulsed_Doppler/Libraries/XMCLib/inc\xmc_scu.h ****  **************************************************************************************************
   7:C:/Users/Utente/Desktop/Tesi/Firmware_Software/DAVE project/S2GLP_Pulsed_Doppler/Libraries/XMCLib/inc\xmc_scu.h ****  * XMClib v2.1.16 - XMC Peripheral Driver Library 
   8:C:/Users/Utente/Desktop/Tesi/Firmware_Software/DAVE project/S2GLP_Pulsed_Doppler/Libraries/XMCLib/inc\xmc_scu.h ****  *
   9:C:/Users/Utente/Desktop/Tesi/Firmware_Software/DAVE project/S2GLP_Pulsed_Doppler/Libraries/XMCLib/inc\xmc_scu.h ****  * Copyright (c) 2015-2017, Infineon Technologies AG
  10:C:/Users/Utente/Desktop/Tesi/Firmware_Software/DAVE project/S2GLP_Pulsed_Doppler/Libraries/XMCLib/inc\xmc_scu.h ****  * All rights reserved.                        
  11:C:/Users/Utente/Desktop/Tesi/Firmware_Software/DAVE project/S2GLP_Pulsed_Doppler/Libraries/XMCLib/inc\xmc_scu.h ****  *                                             
  12:C:/Users/Utente/Desktop/Tesi/Firmware_Software/DAVE project/S2GLP_Pulsed_Doppler/Libraries/XMCLib/inc\xmc_scu.h ****  * Redistribution and use in source and binary forms, with or without modification,are permitted pr
  13:C:/Users/Utente/Desktop/Tesi/Firmware_Software/DAVE project/S2GLP_Pulsed_Doppler/Libraries/XMCLib/inc\xmc_scu.h ****  * following conditions are met:   
  14:C:/Users/Utente/Desktop/Tesi/Firmware_Software/DAVE project/S2GLP_Pulsed_Doppler/Libraries/XMCLib/inc\xmc_scu.h ****  *                                                                              
  15:C:/Users/Utente/Desktop/Tesi/Firmware_Software/DAVE project/S2GLP_Pulsed_Doppler/Libraries/XMCLib/inc\xmc_scu.h ****  * Redistributions of source code must retain the above copyright notice, this list of conditions a
  16:C:/Users/Utente/Desktop/Tesi/Firmware_Software/DAVE project/S2GLP_Pulsed_Doppler/Libraries/XMCLib/inc\xmc_scu.h ****  * disclaimer.                        
  17:C:/Users/Utente/Desktop/Tesi/Firmware_Software/DAVE project/S2GLP_Pulsed_Doppler/Libraries/XMCLib/inc\xmc_scu.h ****  * 
  18:C:/Users/Utente/Desktop/Tesi/Firmware_Software/DAVE project/S2GLP_Pulsed_Doppler/Libraries/XMCLib/inc\xmc_scu.h ****  * Redistributions in binary form must reproduce the above copyright notice, this list of condition
  19:C:/Users/Utente/Desktop/Tesi/Firmware_Software/DAVE project/S2GLP_Pulsed_Doppler/Libraries/XMCLib/inc\xmc_scu.h ****  * disclaimer in the documentation and/or other materials provided with the distribution.          
  20:C:/Users/Utente/Desktop/Tesi/Firmware_Software/DAVE project/S2GLP_Pulsed_Doppler/Libraries/XMCLib/inc\xmc_scu.h ****  * 
  21:C:/Users/Utente/Desktop/Tesi/Firmware_Software/DAVE project/S2GLP_Pulsed_Doppler/Libraries/XMCLib/inc\xmc_scu.h ****  * Neither the name of the copyright holders nor the names of its contributors may be used to endor
  22:C:/Users/Utente/Desktop/Tesi/Firmware_Software/DAVE project/S2GLP_Pulsed_Doppler/Libraries/XMCLib/inc\xmc_scu.h ****  * products derived from this software without specific prior written permission.                  
  23:C:/Users/Utente/Desktop/Tesi/Firmware_Software/DAVE project/S2GLP_Pulsed_Doppler/Libraries/XMCLib/inc\xmc_scu.h ****  *                                                                              
  24:C:/Users/Utente/Desktop/Tesi/Firmware_Software/DAVE project/S2GLP_Pulsed_Doppler/Libraries/XMCLib/inc\xmc_scu.h ****  * THIS SOFTWARE IS PROVIDED BY THE COPYRIGHT HOLDERS AND CONTRIBUTORS "AS IS" AND ANY EXPRESS OR I
  25:C:/Users/Utente/Desktop/Tesi/Firmware_Software/DAVE project/S2GLP_Pulsed_Doppler/Libraries/XMCLib/inc\xmc_scu.h ****  * INCLUDING, BUT NOT LIMITED TO, THE IMPLIED WARRANTIES OF MERCHANTABILITY AND FITNESS FOR A PARTI
  26:C:/Users/Utente/Desktop/Tesi/Firmware_Software/DAVE project/S2GLP_Pulsed_Doppler/Libraries/XMCLib/inc\xmc_scu.h ****  * DISCLAIMED. IN NO EVENT SHALL THE COPYRIGHT HOLDER OR CONTRIBUTORS BE LIABLE  FOR ANY DIRECT, IN
  27:C:/Users/Utente/Desktop/Tesi/Firmware_Software/DAVE project/S2GLP_Pulsed_Doppler/Libraries/XMCLib/inc\xmc_scu.h ****  * SPECIAL, EXEMPLARY, OR CONSEQUENTIAL DAMAGES (INCLUDING, BUT NOT LIMITED TO, PROCUREMENT OF SUBS
  28:C:/Users/Utente/Desktop/Tesi/Firmware_Software/DAVE project/S2GLP_Pulsed_Doppler/Libraries/XMCLib/inc\xmc_scu.h ****  * SERVICES; LOSS OF USE, DATA, OR PROFITS; OR BUSINESS INTERRUPTION) HOWEVER CAUSED AND ON ANY THE
  29:C:/Users/Utente/Desktop/Tesi/Firmware_Software/DAVE project/S2GLP_Pulsed_Doppler/Libraries/XMCLib/inc\xmc_scu.h ****  * WHETHER IN CONTRACT, STRICT LIABILITY,OR TORT (INCLUDING NEGLIGENCE OR OTHERWISE) ARISING IN ANY
  30:C:/Users/Utente/Desktop/Tesi/Firmware_Software/DAVE project/S2GLP_Pulsed_Doppler/Libraries/XMCLib/inc\xmc_scu.h ****  * OF THIS SOFTWARE, EVEN IF ADVISED OF THE POSSIBILITY OF SUCH DAMAGE.                            
  31:C:/Users/Utente/Desktop/Tesi/Firmware_Software/DAVE project/S2GLP_Pulsed_Doppler/Libraries/XMCLib/inc\xmc_scu.h ****  *                                                                              
  32:C:/Users/Utente/Desktop/Tesi/Firmware_Software/DAVE project/S2GLP_Pulsed_Doppler/Libraries/XMCLib/inc\xmc_scu.h ****  * To improve the quality of the software, users are encouraged to share modifications, enhancement
  33:C:/Users/Utente/Desktop/Tesi/Firmware_Software/DAVE project/S2GLP_Pulsed_Doppler/Libraries/XMCLib/inc\xmc_scu.h ****  * Infineon Technologies AG dave@infineon.com).                                                    
  34:C:/Users/Utente/Desktop/Tesi/Firmware_Software/DAVE project/S2GLP_Pulsed_Doppler/Libraries/XMCLib/inc\xmc_scu.h ****  **************************************************************************************************
  35:C:/Users/Utente/Desktop/Tesi/Firmware_Software/DAVE project/S2GLP_Pulsed_Doppler/Libraries/XMCLib/inc\xmc_scu.h ****  *
  36:C:/Users/Utente/Desktop/Tesi/Firmware_Software/DAVE project/S2GLP_Pulsed_Doppler/Libraries/XMCLib/inc\xmc_scu.h ****  * Change History
  37:C:/Users/Utente/Desktop/Tesi/Firmware_Software/DAVE project/S2GLP_Pulsed_Doppler/Libraries/XMCLib/inc\xmc_scu.h ****  * --------------
  38:C:/Users/Utente/Desktop/Tesi/Firmware_Software/DAVE project/S2GLP_Pulsed_Doppler/Libraries/XMCLib/inc\xmc_scu.h ****  *
  39:C:/Users/Utente/Desktop/Tesi/Firmware_Software/DAVE project/S2GLP_Pulsed_Doppler/Libraries/XMCLib/inc\xmc_scu.h ****  * 2015-02-20:
  40:C:/Users/Utente/Desktop/Tesi/Firmware_Software/DAVE project/S2GLP_Pulsed_Doppler/Libraries/XMCLib/inc\xmc_scu.h ****  *     - Initial <br>
  41:C:/Users/Utente/Desktop/Tesi/Firmware_Software/DAVE project/S2GLP_Pulsed_Doppler/Libraries/XMCLib/inc\xmc_scu.h ****  *
  42:C:/Users/Utente/Desktop/Tesi/Firmware_Software/DAVE project/S2GLP_Pulsed_Doppler/Libraries/XMCLib/inc\xmc_scu.h ****  * 2015-05-20:
  43:C:/Users/Utente/Desktop/Tesi/Firmware_Software/DAVE project/S2GLP_Pulsed_Doppler/Libraries/XMCLib/inc\xmc_scu.h ****  *     - Documentation improved <br>
  44:C:/Users/Utente/Desktop/Tesi/Firmware_Software/DAVE project/S2GLP_Pulsed_Doppler/Libraries/XMCLib/inc\xmc_scu.h ****  *     - XMC_ASSERT() hanging issues have fixed for XMC4 devices. <br>
  45:C:/Users/Utente/Desktop/Tesi/Firmware_Software/DAVE project/S2GLP_Pulsed_Doppler/Libraries/XMCLib/inc\xmc_scu.h ****  *
  46:C:/Users/Utente/Desktop/Tesi/Firmware_Software/DAVE project/S2GLP_Pulsed_Doppler/Libraries/XMCLib/inc\xmc_scu.h ****  * 2015-06-20:
  47:C:/Users/Utente/Desktop/Tesi/Firmware_Software/DAVE project/S2GLP_Pulsed_Doppler/Libraries/XMCLib/inc\xmc_scu.h ****  *     - Removed version macros and declaration of GetDriverVersion API
  48:C:/Users/Utente/Desktop/Tesi/Firmware_Software/DAVE project/S2GLP_Pulsed_Doppler/Libraries/XMCLib/inc\xmc_scu.h ****  *     - Removed STATIC_INLINE property for the below APIs and declared as void
  49:C:/Users/Utente/Desktop/Tesi/Firmware_Software/DAVE project/S2GLP_Pulsed_Doppler/Libraries/XMCLib/inc\xmc_scu.h ****  *       XMC_SCU_INTERRUPT_EnableEvent, XMC_SCU_INTERRUPT_DisableEvent,
  50:C:/Users/Utente/Desktop/Tesi/Firmware_Software/DAVE project/S2GLP_Pulsed_Doppler/Libraries/XMCLib/inc\xmc_scu.h ****  *       XMC_SCU_INTERRUPT_TriggerEvent, XMC_SCU_INTERUPT_GetEventStatus,
  51:C:/Users/Utente/Desktop/Tesi/Firmware_Software/DAVE project/S2GLP_Pulsed_Doppler/Libraries/XMCLib/inc\xmc_scu.h ****  *       XMC_SCU_INTERUPT_ClearEventStatus
  52:C:/Users/Utente/Desktop/Tesi/Firmware_Software/DAVE project/S2GLP_Pulsed_Doppler/Libraries/XMCLib/inc\xmc_scu.h ****  *
  53:C:/Users/Utente/Desktop/Tesi/Firmware_Software/DAVE project/S2GLP_Pulsed_Doppler/Libraries/XMCLib/inc\xmc_scu.h ****  * 2015-11-30:
  54:C:/Users/Utente/Desktop/Tesi/Firmware_Software/DAVE project/S2GLP_Pulsed_Doppler/Libraries/XMCLib/inc\xmc_scu.h ****  *     - Documentation improved <br>
  55:C:/Users/Utente/Desktop/Tesi/Firmware_Software/DAVE project/S2GLP_Pulsed_Doppler/Libraries/XMCLib/inc\xmc_scu.h ****  *      
  56:C:/Users/Utente/Desktop/Tesi/Firmware_Software/DAVE project/S2GLP_Pulsed_Doppler/Libraries/XMCLib/inc\xmc_scu.h ****  * 2016-03-09:
  57:C:/Users/Utente/Desktop/Tesi/Firmware_Software/DAVE project/S2GLP_Pulsed_Doppler/Libraries/XMCLib/inc\xmc_scu.h ****  *     - Optimization of write only registers
  58:C:/Users/Utente/Desktop/Tesi/Firmware_Software/DAVE project/S2GLP_Pulsed_Doppler/Libraries/XMCLib/inc\xmc_scu.h ****  *      
  59:C:/Users/Utente/Desktop/Tesi/Firmware_Software/DAVE project/S2GLP_Pulsed_Doppler/Libraries/XMCLib/inc\xmc_scu.h ****  * @endcond 
  60:C:/Users/Utente/Desktop/Tesi/Firmware_Software/DAVE project/S2GLP_Pulsed_Doppler/Libraries/XMCLib/inc\xmc_scu.h ****  *
  61:C:/Users/Utente/Desktop/Tesi/Firmware_Software/DAVE project/S2GLP_Pulsed_Doppler/Libraries/XMCLib/inc\xmc_scu.h ****  */
  62:C:/Users/Utente/Desktop/Tesi/Firmware_Software/DAVE project/S2GLP_Pulsed_Doppler/Libraries/XMCLib/inc\xmc_scu.h **** #ifndef XMC_SCU_H
  63:C:/Users/Utente/Desktop/Tesi/Firmware_Software/DAVE project/S2GLP_Pulsed_Doppler/Libraries/XMCLib/inc\xmc_scu.h **** #define XMC_SCU_H
  64:C:/Users/Utente/Desktop/Tesi/Firmware_Software/DAVE project/S2GLP_Pulsed_Doppler/Libraries/XMCLib/inc\xmc_scu.h ****  
  65:C:/Users/Utente/Desktop/Tesi/Firmware_Software/DAVE project/S2GLP_Pulsed_Doppler/Libraries/XMCLib/inc\xmc_scu.h **** /**************************************************************************************************
  66:C:/Users/Utente/Desktop/Tesi/Firmware_Software/DAVE project/S2GLP_Pulsed_Doppler/Libraries/XMCLib/inc\xmc_scu.h ****  * HEADER FILES
  67:C:/Users/Utente/Desktop/Tesi/Firmware_Software/DAVE project/S2GLP_Pulsed_Doppler/Libraries/XMCLib/inc\xmc_scu.h ****  **************************************************************************************************
  68:C:/Users/Utente/Desktop/Tesi/Firmware_Software/DAVE project/S2GLP_Pulsed_Doppler/Libraries/XMCLib/inc\xmc_scu.h **** #include <xmc_common.h>
  69:C:/Users/Utente/Desktop/Tesi/Firmware_Software/DAVE project/S2GLP_Pulsed_Doppler/Libraries/XMCLib/inc\xmc_scu.h **** 
  70:C:/Users/Utente/Desktop/Tesi/Firmware_Software/DAVE project/S2GLP_Pulsed_Doppler/Libraries/XMCLib/inc\xmc_scu.h **** /**
  71:C:/Users/Utente/Desktop/Tesi/Firmware_Software/DAVE project/S2GLP_Pulsed_Doppler/Libraries/XMCLib/inc\xmc_scu.h ****  * @addtogroup XMClib XMC Peripheral Library
  72:C:/Users/Utente/Desktop/Tesi/Firmware_Software/DAVE project/S2GLP_Pulsed_Doppler/Libraries/XMCLib/inc\xmc_scu.h ****  * @{
  73:C:/Users/Utente/Desktop/Tesi/Firmware_Software/DAVE project/S2GLP_Pulsed_Doppler/Libraries/XMCLib/inc\xmc_scu.h ****  */
  74:C:/Users/Utente/Desktop/Tesi/Firmware_Software/DAVE project/S2GLP_Pulsed_Doppler/Libraries/XMCLib/inc\xmc_scu.h ****  
  75:C:/Users/Utente/Desktop/Tesi/Firmware_Software/DAVE project/S2GLP_Pulsed_Doppler/Libraries/XMCLib/inc\xmc_scu.h **** /**
  76:C:/Users/Utente/Desktop/Tesi/Firmware_Software/DAVE project/S2GLP_Pulsed_Doppler/Libraries/XMCLib/inc\xmc_scu.h ****  * @addtogroup SCU
  77:C:/Users/Utente/Desktop/Tesi/Firmware_Software/DAVE project/S2GLP_Pulsed_Doppler/Libraries/XMCLib/inc\xmc_scu.h ****  * @brief System Control Unit(SCU) driver for XMC microcontroller family.
  78:C:/Users/Utente/Desktop/Tesi/Firmware_Software/DAVE project/S2GLP_Pulsed_Doppler/Libraries/XMCLib/inc\xmc_scu.h ****  *
  79:C:/Users/Utente/Desktop/Tesi/Firmware_Software/DAVE project/S2GLP_Pulsed_Doppler/Libraries/XMCLib/inc\xmc_scu.h ****  * System control unit is the SoC power, reset and a clock manager with additional responsibility o
  80:C:/Users/Utente/Desktop/Tesi/Firmware_Software/DAVE project/S2GLP_Pulsed_Doppler/Libraries/XMCLib/inc\xmc_scu.h ****  * providing system stability protection and other auxiliary functions.<br>
  81:C:/Users/Utente/Desktop/Tesi/Firmware_Software/DAVE project/S2GLP_Pulsed_Doppler/Libraries/XMCLib/inc\xmc_scu.h ****  * SCU provides the following features,
  82:C:/Users/Utente/Desktop/Tesi/Firmware_Software/DAVE project/S2GLP_Pulsed_Doppler/Libraries/XMCLib/inc\xmc_scu.h ****  * -# Power control
  83:C:/Users/Utente/Desktop/Tesi/Firmware_Software/DAVE project/S2GLP_Pulsed_Doppler/Libraries/XMCLib/inc\xmc_scu.h ****  \if XMC4 
  84:C:/Users/Utente/Desktop/Tesi/Firmware_Software/DAVE project/S2GLP_Pulsed_Doppler/Libraries/XMCLib/inc\xmc_scu.h ****  * -# Hibernate control 
  85:C:/Users/Utente/Desktop/Tesi/Firmware_Software/DAVE project/S2GLP_Pulsed_Doppler/Libraries/XMCLib/inc\xmc_scu.h ****  \endif
  86:C:/Users/Utente/Desktop/Tesi/Firmware_Software/DAVE project/S2GLP_Pulsed_Doppler/Libraries/XMCLib/inc\xmc_scu.h ****  * -# Reset control
  87:C:/Users/Utente/Desktop/Tesi/Firmware_Software/DAVE project/S2GLP_Pulsed_Doppler/Libraries/XMCLib/inc\xmc_scu.h ****  * -# Clock control
  88:C:/Users/Utente/Desktop/Tesi/Firmware_Software/DAVE project/S2GLP_Pulsed_Doppler/Libraries/XMCLib/inc\xmc_scu.h ****  * -# Miscellaneous control(boot mode, system interrupts etc.)<br><br>
  89:C:/Users/Utente/Desktop/Tesi/Firmware_Software/DAVE project/S2GLP_Pulsed_Doppler/Libraries/XMCLib/inc\xmc_scu.h ****  *
  90:C:/Users/Utente/Desktop/Tesi/Firmware_Software/DAVE project/S2GLP_Pulsed_Doppler/Libraries/XMCLib/inc\xmc_scu.h ****  * The SCU driver is divided in to clock control logic, reset control logic, system interrupt contr
  91:C:/Users/Utente/Desktop/Tesi/Firmware_Software/DAVE project/S2GLP_Pulsed_Doppler/Libraries/XMCLib/inc\xmc_scu.h ****  \if XMC4
  92:C:/Users/Utente/Desktop/Tesi/Firmware_Software/DAVE project/S2GLP_Pulsed_Doppler/Libraries/XMCLib/inc\xmc_scu.h ****  * , hibernate control logic, trap control logic, parity control logic 
  93:C:/Users/Utente/Desktop/Tesi/Firmware_Software/DAVE project/S2GLP_Pulsed_Doppler/Libraries/XMCLib/inc\xmc_scu.h ****  \endif
  94:C:/Users/Utente/Desktop/Tesi/Firmware_Software/DAVE project/S2GLP_Pulsed_Doppler/Libraries/XMCLib/inc\xmc_scu.h ****  * and miscellaneous control logic.<br>
  95:C:/Users/Utente/Desktop/Tesi/Firmware_Software/DAVE project/S2GLP_Pulsed_Doppler/Libraries/XMCLib/inc\xmc_scu.h ****  *
  96:C:/Users/Utente/Desktop/Tesi/Firmware_Software/DAVE project/S2GLP_Pulsed_Doppler/Libraries/XMCLib/inc\xmc_scu.h ****  * Clock driver features:
  97:C:/Users/Utente/Desktop/Tesi/Firmware_Software/DAVE project/S2GLP_Pulsed_Doppler/Libraries/XMCLib/inc\xmc_scu.h ****  * -# Allows clock configuration using the structure XMC_SCU_CLOCK_CONFIG_t and API XMC_SCU_CLOCK_I
  98:C:/Users/Utente/Desktop/Tesi/Firmware_Software/DAVE project/S2GLP_Pulsed_Doppler/Libraries/XMCLib/inc\xmc_scu.h ****  \if XMC4
  99:C:/Users/Utente/Desktop/Tesi/Firmware_Software/DAVE project/S2GLP_Pulsed_Doppler/Libraries/XMCLib/inc\xmc_scu.h ****  * -# Provides structure XMC_SCU_CLOCK_SYSPLL_CONFIG_t for configuring the system PLL
 100:C:/Users/Utente/Desktop/Tesi/Firmware_Software/DAVE project/S2GLP_Pulsed_Doppler/Libraries/XMCLib/inc\xmc_scu.h ****  * -# Allows selection of clock source for system PLL, XMC_SCU_CLOCK_GetSystemPllClockSource()
 101:C:/Users/Utente/Desktop/Tesi/Firmware_Software/DAVE project/S2GLP_Pulsed_Doppler/Libraries/XMCLib/inc\xmc_scu.h ****  * -# Provides APIs for configuring different module clock frequencies XMC_SCU_CLOCK_SetWdtClockDiv
 102:C:/Users/Utente/Desktop/Tesi/Firmware_Software/DAVE project/S2GLP_Pulsed_Doppler/Libraries/XMCLib/inc\xmc_scu.h ****  * -# Allows selection of clock source for external output, XMC_SCU_CLOCK_SetExternalOutputClockSou
 103:C:/Users/Utente/Desktop/Tesi/Firmware_Software/DAVE project/S2GLP_Pulsed_Doppler/Libraries/XMCLib/inc\xmc_scu.h ****  * -# Provides APIs for enabling external high power oscillator and ultra low power oscillator, XMC
 104:C:/Users/Utente/Desktop/Tesi/Firmware_Software/DAVE project/S2GLP_Pulsed_Doppler/Libraries/XMCLib/inc\xmc_scu.h ****  * -# Provides APIs for getting various clock frequencies XMC_SCU_CLOCK_GetPeripheralClockFrequency
 105:C:/Users/Utente/Desktop/Tesi/Firmware_Software/DAVE project/S2GLP_Pulsed_Doppler/Libraries/XMCLib/inc\xmc_scu.h ****  XMC_SCU_CLOCK_GetCpuClockFrequency(), XMC_SCU_CLOCK_GetSystemClockFrequency()<br>
 106:C:/Users/Utente/Desktop/Tesi/Firmware_Software/DAVE project/S2GLP_Pulsed_Doppler/Libraries/XMCLib/inc\xmc_scu.h ****  \endif
 107:C:/Users/Utente/Desktop/Tesi/Firmware_Software/DAVE project/S2GLP_Pulsed_Doppler/Libraries/XMCLib/inc\xmc_scu.h ****  \if XMC1
 108:C:/Users/Utente/Desktop/Tesi/Firmware_Software/DAVE project/S2GLP_Pulsed_Doppler/Libraries/XMCLib/inc\xmc_scu.h ****  * -# Allows selection of peripheral clock frequency, XMC_SCU_CLOCK_SetFastPeripheralClockSource()
 109:C:/Users/Utente/Desktop/Tesi/Firmware_Software/DAVE project/S2GLP_Pulsed_Doppler/Libraries/XMCLib/inc\xmc_scu.h ****  * -# Provides API to get the peripheral clock frequency, XMC_SCU_CLOCK_GetFastPeripheralClockFrequ
 110:C:/Users/Utente/Desktop/Tesi/Firmware_Software/DAVE project/S2GLP_Pulsed_Doppler/Libraries/XMCLib/inc\xmc_scu.h ****  \endif
 111:C:/Users/Utente/Desktop/Tesi/Firmware_Software/DAVE project/S2GLP_Pulsed_Doppler/Libraries/XMCLib/inc\xmc_scu.h ****  *
 112:C:/Users/Utente/Desktop/Tesi/Firmware_Software/DAVE project/S2GLP_Pulsed_Doppler/Libraries/XMCLib/inc\xmc_scu.h ****  * Reset driver features:
 113:C:/Users/Utente/Desktop/Tesi/Firmware_Software/DAVE project/S2GLP_Pulsed_Doppler/Libraries/XMCLib/inc\xmc_scu.h ****  \if XMC4
 114:C:/Users/Utente/Desktop/Tesi/Firmware_Software/DAVE project/S2GLP_Pulsed_Doppler/Libraries/XMCLib/inc\xmc_scu.h ****  * -# Allows to handle peripheral reset XMC_SCU_RESET_AssertPeripheralReset(), XMC_SCU_RESET_Deasse
 115:C:/Users/Utente/Desktop/Tesi/Firmware_Software/DAVE project/S2GLP_Pulsed_Doppler/Libraries/XMCLib/inc\xmc_scu.h ****  * -# Allows configuration of NMI generation for selected events, XMC_SCU_INTERRUPT_EnableNmiReques
 116:C:/Users/Utente/Desktop/Tesi/Firmware_Software/DAVE project/S2GLP_Pulsed_Doppler/Libraries/XMCLib/inc\xmc_scu.h ****  \endif
 117:C:/Users/Utente/Desktop/Tesi/Firmware_Software/DAVE project/S2GLP_Pulsed_Doppler/Libraries/XMCLib/inc\xmc_scu.h ****  \if XMC1
 118:C:/Users/Utente/Desktop/Tesi/Firmware_Software/DAVE project/S2GLP_Pulsed_Doppler/Libraries/XMCLib/inc\xmc_scu.h ****  * -# Allows to trigger device reset XMC_SCU_RESET_AssertMasterReset()
 119:C:/Users/Utente/Desktop/Tesi/Firmware_Software/DAVE project/S2GLP_Pulsed_Doppler/Libraries/XMCLib/inc\xmc_scu.h ****  * -# Allows to configure multiple sources for reset, XMC_SCU_RESET_EnableResetRequest()
 120:C:/Users/Utente/Desktop/Tesi/Firmware_Software/DAVE project/S2GLP_Pulsed_Doppler/Libraries/XMCLib/inc\xmc_scu.h ****  \endif <br>
 121:C:/Users/Utente/Desktop/Tesi/Firmware_Software/DAVE project/S2GLP_Pulsed_Doppler/Libraries/XMCLib/inc\xmc_scu.h ****  *
 122:C:/Users/Utente/Desktop/Tesi/Firmware_Software/DAVE project/S2GLP_Pulsed_Doppler/Libraries/XMCLib/inc\xmc_scu.h ****  * Interrupt driver features:
 123:C:/Users/Utente/Desktop/Tesi/Firmware_Software/DAVE project/S2GLP_Pulsed_Doppler/Libraries/XMCLib/inc\xmc_scu.h ****  * -# Provides APIs for enabling/ disabling interrupt event generation XMC_SCU_INTERRUPT_EnableEven
 124:C:/Users/Utente/Desktop/Tesi/Firmware_Software/DAVE project/S2GLP_Pulsed_Doppler/Libraries/XMCLib/inc\xmc_scu.h ****  XMC_SCU_INTERRUPT_DisableEvent()
 125:C:/Users/Utente/Desktop/Tesi/Firmware_Software/DAVE project/S2GLP_Pulsed_Doppler/Libraries/XMCLib/inc\xmc_scu.h ****  * -# Provides API for registering callback function for events XMC_SCU_INTERRUPT_SetEventHandler()
 126:C:/Users/Utente/Desktop/Tesi/Firmware_Software/DAVE project/S2GLP_Pulsed_Doppler/Libraries/XMCLib/inc\xmc_scu.h ****  *
 127:C:/Users/Utente/Desktop/Tesi/Firmware_Software/DAVE project/S2GLP_Pulsed_Doppler/Libraries/XMCLib/inc\xmc_scu.h ****  \if XMC4
 128:C:/Users/Utente/Desktop/Tesi/Firmware_Software/DAVE project/S2GLP_Pulsed_Doppler/Libraries/XMCLib/inc\xmc_scu.h ****  * Hibernate driver features:
 129:C:/Users/Utente/Desktop/Tesi/Firmware_Software/DAVE project/S2GLP_Pulsed_Doppler/Libraries/XMCLib/inc\xmc_scu.h ****  * -# Allows configuration of hibernate domain XMC_SCU_HIB_EnableHibernateDomain(), XMC_SCU_HIB_Dis
 130:C:/Users/Utente/Desktop/Tesi/Firmware_Software/DAVE project/S2GLP_Pulsed_Doppler/Libraries/XMCLib/inc\xmc_scu.h ****  * -# Allows selection of standby clock source, XMC_SCU_HIB_SetStandbyClockSource()
 131:C:/Users/Utente/Desktop/Tesi/Firmware_Software/DAVE project/S2GLP_Pulsed_Doppler/Libraries/XMCLib/inc\xmc_scu.h ****  * -# Allows selection of RTC clock source, XMC_SCU_HIB_SetRtcClockSource()
 132:C:/Users/Utente/Desktop/Tesi/Firmware_Software/DAVE project/S2GLP_Pulsed_Doppler/Libraries/XMCLib/inc\xmc_scu.h ****  * -# Provides API for enabling slow internal clock used for backup clock, XMC_SCU_HIB_EnableIntern
 133:C:/Users/Utente/Desktop/Tesi/Firmware_Software/DAVE project/S2GLP_Pulsed_Doppler/Libraries/XMCLib/inc\xmc_scu.h ****  *
 134:C:/Users/Utente/Desktop/Tesi/Firmware_Software/DAVE project/S2GLP_Pulsed_Doppler/Libraries/XMCLib/inc\xmc_scu.h ****  * Trap driver features:
 135:C:/Users/Utente/Desktop/Tesi/Firmware_Software/DAVE project/S2GLP_Pulsed_Doppler/Libraries/XMCLib/inc\xmc_scu.h ****  * -# Allows handling of trap XMC_SCU_TRAP_Enable(), XMC_SCU_TRAP_GetStatus(), XMC_SCU_TRAP_Trigger
 136:C:/Users/Utente/Desktop/Tesi/Firmware_Software/DAVE project/S2GLP_Pulsed_Doppler/Libraries/XMCLib/inc\xmc_scu.h ****  *
 137:C:/Users/Utente/Desktop/Tesi/Firmware_Software/DAVE project/S2GLP_Pulsed_Doppler/Libraries/XMCLib/inc\xmc_scu.h ****  * Parity driver features:
 138:C:/Users/Utente/Desktop/Tesi/Firmware_Software/DAVE project/S2GLP_Pulsed_Doppler/Libraries/XMCLib/inc\xmc_scu.h ****  * -# Parity error generated by on-chip RAM can be monitored, XMC_SCU_PARITY_Enable(), XMC_SCU_PARI
 139:C:/Users/Utente/Desktop/Tesi/Firmware_Software/DAVE project/S2GLP_Pulsed_Doppler/Libraries/XMCLib/inc\xmc_scu.h ****  * -# Allows configuration of trap generation on detection of parity error, XMC_SCU_PARITY_EnableTr
 140:C:/Users/Utente/Desktop/Tesi/Firmware_Software/DAVE project/S2GLP_Pulsed_Doppler/Libraries/XMCLib/inc\xmc_scu.h ****  *
 141:C:/Users/Utente/Desktop/Tesi/Firmware_Software/DAVE project/S2GLP_Pulsed_Doppler/Libraries/XMCLib/inc\xmc_scu.h ****  * Power driver features:
 142:C:/Users/Utente/Desktop/Tesi/Firmware_Software/DAVE project/S2GLP_Pulsed_Doppler/Libraries/XMCLib/inc\xmc_scu.h ****  * -# Allows to power the USB module XMC_SCU_POWER_EnableUsb(), XMC_SCU_POWER_DisableUsb()
 143:C:/Users/Utente/Desktop/Tesi/Firmware_Software/DAVE project/S2GLP_Pulsed_Doppler/Libraries/XMCLib/inc\xmc_scu.h ****  \endif
 144:C:/Users/Utente/Desktop/Tesi/Firmware_Software/DAVE project/S2GLP_Pulsed_Doppler/Libraries/XMCLib/inc\xmc_scu.h ****  *
 145:C:/Users/Utente/Desktop/Tesi/Firmware_Software/DAVE project/S2GLP_Pulsed_Doppler/Libraries/XMCLib/inc\xmc_scu.h ****  * Miscellaneous features:
 146:C:/Users/Utente/Desktop/Tesi/Firmware_Software/DAVE project/S2GLP_Pulsed_Doppler/Libraries/XMCLib/inc\xmc_scu.h ****  * -# Allows to trigger multiple capture compare unit(CCU) channels to be started together XMC_SCU_
 147:C:/Users/Utente/Desktop/Tesi/Firmware_Software/DAVE project/S2GLP_Pulsed_Doppler/Libraries/XMCLib/inc\xmc_scu.h ****  \if XMC4
 148:C:/Users/Utente/Desktop/Tesi/Firmware_Software/DAVE project/S2GLP_Pulsed_Doppler/Libraries/XMCLib/inc\xmc_scu.h ****  * -# Enables configuration of out of range comparator (ORC) XMC_SCU_EnableOutOfRangeComparator()
 149:C:/Users/Utente/Desktop/Tesi/Firmware_Software/DAVE project/S2GLP_Pulsed_Doppler/Libraries/XMCLib/inc\xmc_scu.h ****  * -# Enables configuration of die temperature sensor XMC_SCU_EnableTemperatureSensor(), XMC_SCU_Ca
 150:C:/Users/Utente/Desktop/Tesi/Firmware_Software/DAVE project/S2GLP_Pulsed_Doppler/Libraries/XMCLib/inc\xmc_scu.h ****  * -# Enables configuration of device boot mode XMC_SCU_SetBootMode()<br>
 151:C:/Users/Utente/Desktop/Tesi/Firmware_Software/DAVE project/S2GLP_Pulsed_Doppler/Libraries/XMCLib/inc\xmc_scu.h ****  \endif
 152:C:/Users/Utente/Desktop/Tesi/Firmware_Software/DAVE project/S2GLP_Pulsed_Doppler/Libraries/XMCLib/inc\xmc_scu.h ****  \if XMC1
 153:C:/Users/Utente/Desktop/Tesi/Firmware_Software/DAVE project/S2GLP_Pulsed_Doppler/Libraries/XMCLib/inc\xmc_scu.h ****  * -# Enables configuration of die temperature sensor XMC_SCU_StartTempMeasurement(), XMC_SCU_SetRa
 154:C:/Users/Utente/Desktop/Tesi/Firmware_Software/DAVE project/S2GLP_Pulsed_Doppler/Libraries/XMCLib/inc\xmc_scu.h ****  * -# Allows configuring supply monitor unit using the structure XMC_SCU_SUPPLYMONITOR_t and API XM
 155:C:/Users/Utente/Desktop/Tesi/Firmware_Software/DAVE project/S2GLP_Pulsed_Doppler/Libraries/XMCLib/inc\xmc_scu.h ****  * -# Allows handling of protected bits XMC_SCU_LockProtectedBits(), XMC_SCU_UnlockProtectedBits()<
 156:C:/Users/Utente/Desktop/Tesi/Firmware_Software/DAVE project/S2GLP_Pulsed_Doppler/Libraries/XMCLib/inc\xmc_scu.h ****  \endif
 157:C:/Users/Utente/Desktop/Tesi/Firmware_Software/DAVE project/S2GLP_Pulsed_Doppler/Libraries/XMCLib/inc\xmc_scu.h ****  * @{
 158:C:/Users/Utente/Desktop/Tesi/Firmware_Software/DAVE project/S2GLP_Pulsed_Doppler/Libraries/XMCLib/inc\xmc_scu.h ****  */
 159:C:/Users/Utente/Desktop/Tesi/Firmware_Software/DAVE project/S2GLP_Pulsed_Doppler/Libraries/XMCLib/inc\xmc_scu.h ****  
 160:C:/Users/Utente/Desktop/Tesi/Firmware_Software/DAVE project/S2GLP_Pulsed_Doppler/Libraries/XMCLib/inc\xmc_scu.h **** /**************************************************************************************************
 161:C:/Users/Utente/Desktop/Tesi/Firmware_Software/DAVE project/S2GLP_Pulsed_Doppler/Libraries/XMCLib/inc\xmc_scu.h ****  * MACROS
 162:C:/Users/Utente/Desktop/Tesi/Firmware_Software/DAVE project/S2GLP_Pulsed_Doppler/Libraries/XMCLib/inc\xmc_scu.h ****  **************************************************************************************************
 163:C:/Users/Utente/Desktop/Tesi/Firmware_Software/DAVE project/S2GLP_Pulsed_Doppler/Libraries/XMCLib/inc\xmc_scu.h **** 
 164:C:/Users/Utente/Desktop/Tesi/Firmware_Software/DAVE project/S2GLP_Pulsed_Doppler/Libraries/XMCLib/inc\xmc_scu.h **** /**************************************************************************************************
 165:C:/Users/Utente/Desktop/Tesi/Firmware_Software/DAVE project/S2GLP_Pulsed_Doppler/Libraries/XMCLib/inc\xmc_scu.h ****  * ENUMS
 166:C:/Users/Utente/Desktop/Tesi/Firmware_Software/DAVE project/S2GLP_Pulsed_Doppler/Libraries/XMCLib/inc\xmc_scu.h ****  **************************************************************************************************
 167:C:/Users/Utente/Desktop/Tesi/Firmware_Software/DAVE project/S2GLP_Pulsed_Doppler/Libraries/XMCLib/inc\xmc_scu.h **** /**
 168:C:/Users/Utente/Desktop/Tesi/Firmware_Software/DAVE project/S2GLP_Pulsed_Doppler/Libraries/XMCLib/inc\xmc_scu.h ****  *  Defines the status of SCU API execution, used to verify the SCU related API calls.
 169:C:/Users/Utente/Desktop/Tesi/Firmware_Software/DAVE project/S2GLP_Pulsed_Doppler/Libraries/XMCLib/inc\xmc_scu.h ****  */
 170:C:/Users/Utente/Desktop/Tesi/Firmware_Software/DAVE project/S2GLP_Pulsed_Doppler/Libraries/XMCLib/inc\xmc_scu.h **** typedef enum XMC_SCU_STATUS 
 171:C:/Users/Utente/Desktop/Tesi/Firmware_Software/DAVE project/S2GLP_Pulsed_Doppler/Libraries/XMCLib/inc\xmc_scu.h **** {
 172:C:/Users/Utente/Desktop/Tesi/Firmware_Software/DAVE project/S2GLP_Pulsed_Doppler/Libraries/XMCLib/inc\xmc_scu.h ****   XMC_SCU_STATUS_OK   = 0UL, /**< SCU related operation successfully completed.*/
 173:C:/Users/Utente/Desktop/Tesi/Firmware_Software/DAVE project/S2GLP_Pulsed_Doppler/Libraries/XMCLib/inc\xmc_scu.h ****   XMC_SCU_STATUS_ERROR,      /**< SCU related operation failed. When API cannot fulfill request, th
 174:C:/Users/Utente/Desktop/Tesi/Firmware_Software/DAVE project/S2GLP_Pulsed_Doppler/Libraries/XMCLib/inc\xmc_scu.h ****   XMC_SCU_STATUS_BUSY,       /**< Cannot execute the SCU related operation request because
 175:C:/Users/Utente/Desktop/Tesi/Firmware_Software/DAVE project/S2GLP_Pulsed_Doppler/Libraries/XMCLib/inc\xmc_scu.h ****                                   another operation is in progress. \a XMC_SCU_STATUS_BUSY is retur
 176:C:/Users/Utente/Desktop/Tesi/Firmware_Software/DAVE project/S2GLP_Pulsed_Doppler/Libraries/XMCLib/inc\xmc_scu.h ****                                   processing another request. */
 177:C:/Users/Utente/Desktop/Tesi/Firmware_Software/DAVE project/S2GLP_Pulsed_Doppler/Libraries/XMCLib/inc\xmc_scu.h **** } XMC_SCU_STATUS_t;
 178:C:/Users/Utente/Desktop/Tesi/Firmware_Software/DAVE project/S2GLP_Pulsed_Doppler/Libraries/XMCLib/inc\xmc_scu.h **** 
 179:C:/Users/Utente/Desktop/Tesi/Firmware_Software/DAVE project/S2GLP_Pulsed_Doppler/Libraries/XMCLib/inc\xmc_scu.h **** 
 180:C:/Users/Utente/Desktop/Tesi/Firmware_Software/DAVE project/S2GLP_Pulsed_Doppler/Libraries/XMCLib/inc\xmc_scu.h **** /**************************************************************************************************
 181:C:/Users/Utente/Desktop/Tesi/Firmware_Software/DAVE project/S2GLP_Pulsed_Doppler/Libraries/XMCLib/inc\xmc_scu.h ****  * DATA TYPES
 182:C:/Users/Utente/Desktop/Tesi/Firmware_Software/DAVE project/S2GLP_Pulsed_Doppler/Libraries/XMCLib/inc\xmc_scu.h ****  **************************************************************************************************
 183:C:/Users/Utente/Desktop/Tesi/Firmware_Software/DAVE project/S2GLP_Pulsed_Doppler/Libraries/XMCLib/inc\xmc_scu.h **** 
 184:C:/Users/Utente/Desktop/Tesi/Firmware_Software/DAVE project/S2GLP_Pulsed_Doppler/Libraries/XMCLib/inc\xmc_scu.h **** /**
 185:C:/Users/Utente/Desktop/Tesi/Firmware_Software/DAVE project/S2GLP_Pulsed_Doppler/Libraries/XMCLib/inc\xmc_scu.h ****  * Function pointer type used for registering callback functions on SCU event occurrence.
 186:C:/Users/Utente/Desktop/Tesi/Firmware_Software/DAVE project/S2GLP_Pulsed_Doppler/Libraries/XMCLib/inc\xmc_scu.h ****  */
 187:C:/Users/Utente/Desktop/Tesi/Firmware_Software/DAVE project/S2GLP_Pulsed_Doppler/Libraries/XMCLib/inc\xmc_scu.h **** typedef void (*XMC_SCU_INTERRUPT_EVENT_HANDLER_t)(void);
 188:C:/Users/Utente/Desktop/Tesi/Firmware_Software/DAVE project/S2GLP_Pulsed_Doppler/Libraries/XMCLib/inc\xmc_scu.h **** 
 189:C:/Users/Utente/Desktop/Tesi/Firmware_Software/DAVE project/S2GLP_Pulsed_Doppler/Libraries/XMCLib/inc\xmc_scu.h **** /**************************************************************************************************
 190:C:/Users/Utente/Desktop/Tesi/Firmware_Software/DAVE project/S2GLP_Pulsed_Doppler/Libraries/XMCLib/inc\xmc_scu.h ****  * DEVICE EXTENSIONS
 191:C:/Users/Utente/Desktop/Tesi/Firmware_Software/DAVE project/S2GLP_Pulsed_Doppler/Libraries/XMCLib/inc\xmc_scu.h ****  **************************************************************************************************
 192:C:/Users/Utente/Desktop/Tesi/Firmware_Software/DAVE project/S2GLP_Pulsed_Doppler/Libraries/XMCLib/inc\xmc_scu.h **** 
 193:C:/Users/Utente/Desktop/Tesi/Firmware_Software/DAVE project/S2GLP_Pulsed_Doppler/Libraries/XMCLib/inc\xmc_scu.h **** #if (UC_FAMILY == XMC1)
 194:C:/Users/Utente/Desktop/Tesi/Firmware_Software/DAVE project/S2GLP_Pulsed_Doppler/Libraries/XMCLib/inc\xmc_scu.h **** #include <xmc1_scu.h>
 195:C:/Users/Utente/Desktop/Tesi/Firmware_Software/DAVE project/S2GLP_Pulsed_Doppler/Libraries/XMCLib/inc\xmc_scu.h **** #elif (UC_FAMILY == XMC4)
 196:C:/Users/Utente/Desktop/Tesi/Firmware_Software/DAVE project/S2GLP_Pulsed_Doppler/Libraries/XMCLib/inc\xmc_scu.h **** #include <xmc4_scu.h>
 197:C:/Users/Utente/Desktop/Tesi/Firmware_Software/DAVE project/S2GLP_Pulsed_Doppler/Libraries/XMCLib/inc\xmc_scu.h **** #else
 198:C:/Users/Utente/Desktop/Tesi/Firmware_Software/DAVE project/S2GLP_Pulsed_Doppler/Libraries/XMCLib/inc\xmc_scu.h **** #error "Unspecified chipset"
 199:C:/Users/Utente/Desktop/Tesi/Firmware_Software/DAVE project/S2GLP_Pulsed_Doppler/Libraries/XMCLib/inc\xmc_scu.h **** #endif
 200:C:/Users/Utente/Desktop/Tesi/Firmware_Software/DAVE project/S2GLP_Pulsed_Doppler/Libraries/XMCLib/inc\xmc_scu.h **** 
 201:C:/Users/Utente/Desktop/Tesi/Firmware_Software/DAVE project/S2GLP_Pulsed_Doppler/Libraries/XMCLib/inc\xmc_scu.h **** /**************************************************************************************************
 202:C:/Users/Utente/Desktop/Tesi/Firmware_Software/DAVE project/S2GLP_Pulsed_Doppler/Libraries/XMCLib/inc\xmc_scu.h ****  * API Prototypes
 203:C:/Users/Utente/Desktop/Tesi/Firmware_Software/DAVE project/S2GLP_Pulsed_Doppler/Libraries/XMCLib/inc\xmc_scu.h ****  **************************************************************************************************
 204:C:/Users/Utente/Desktop/Tesi/Firmware_Software/DAVE project/S2GLP_Pulsed_Doppler/Libraries/XMCLib/inc\xmc_scu.h **** 
 205:C:/Users/Utente/Desktop/Tesi/Firmware_Software/DAVE project/S2GLP_Pulsed_Doppler/Libraries/XMCLib/inc\xmc_scu.h **** #ifdef __cplusplus
 206:C:/Users/Utente/Desktop/Tesi/Firmware_Software/DAVE project/S2GLP_Pulsed_Doppler/Libraries/XMCLib/inc\xmc_scu.h **** extern "C" {
 207:C:/Users/Utente/Desktop/Tesi/Firmware_Software/DAVE project/S2GLP_Pulsed_Doppler/Libraries/XMCLib/inc\xmc_scu.h **** #endif
 208:C:/Users/Utente/Desktop/Tesi/Firmware_Software/DAVE project/S2GLP_Pulsed_Doppler/Libraries/XMCLib/inc\xmc_scu.h **** 
 209:C:/Users/Utente/Desktop/Tesi/Firmware_Software/DAVE project/S2GLP_Pulsed_Doppler/Libraries/XMCLib/inc\xmc_scu.h **** 
 210:C:/Users/Utente/Desktop/Tesi/Firmware_Software/DAVE project/S2GLP_Pulsed_Doppler/Libraries/XMCLib/inc\xmc_scu.h **** /**
 211:C:/Users/Utente/Desktop/Tesi/Firmware_Software/DAVE project/S2GLP_Pulsed_Doppler/Libraries/XMCLib/inc\xmc_scu.h ****  *
 212:C:/Users/Utente/Desktop/Tesi/Firmware_Software/DAVE project/S2GLP_Pulsed_Doppler/Libraries/XMCLib/inc\xmc_scu.h ****  * @param trigger    CCU slices to be triggered synchronously via software. The value is a bitmask 
 213:C:/Users/Utente/Desktop/Tesi/Firmware_Software/DAVE project/S2GLP_Pulsed_Doppler/Libraries/XMCLib/inc\xmc_scu.h ****  *                    in the register CCUCON. <br>
 214:C:/Users/Utente/Desktop/Tesi/Firmware_Software/DAVE project/S2GLP_Pulsed_Doppler/Libraries/XMCLib/inc\xmc_scu.h ****  *                    \b Range: Use type @ref XMC_SCU_CCU_TRIGGER_t for bitmask of individual CCU s
 215:C:/Users/Utente/Desktop/Tesi/Firmware_Software/DAVE project/S2GLP_Pulsed_Doppler/Libraries/XMCLib/inc\xmc_scu.h ****  *                    combined using \a OR operation.
 216:C:/Users/Utente/Desktop/Tesi/Firmware_Software/DAVE project/S2GLP_Pulsed_Doppler/Libraries/XMCLib/inc\xmc_scu.h ****  *
 217:C:/Users/Utente/Desktop/Tesi/Firmware_Software/DAVE project/S2GLP_Pulsed_Doppler/Libraries/XMCLib/inc\xmc_scu.h ****  * @return None
 218:C:/Users/Utente/Desktop/Tesi/Firmware_Software/DAVE project/S2GLP_Pulsed_Doppler/Libraries/XMCLib/inc\xmc_scu.h ****  *
 219:C:/Users/Utente/Desktop/Tesi/Firmware_Software/DAVE project/S2GLP_Pulsed_Doppler/Libraries/XMCLib/inc\xmc_scu.h ****  * \par<b>Description</b><br>
 220:C:/Users/Utente/Desktop/Tesi/Firmware_Software/DAVE project/S2GLP_Pulsed_Doppler/Libraries/XMCLib/inc\xmc_scu.h ****  * Generates active edge(low to high) trigger for multiple CCU units at the same time.\n\n
 221:C:/Users/Utente/Desktop/Tesi/Firmware_Software/DAVE project/S2GLP_Pulsed_Doppler/Libraries/XMCLib/inc\xmc_scu.h ****  * Before executing this API, all the required CCU timers should configure external start.
 222:C:/Users/Utente/Desktop/Tesi/Firmware_Software/DAVE project/S2GLP_Pulsed_Doppler/Libraries/XMCLib/inc\xmc_scu.h ****  * The edge of the start signal should be selected as active edge.
 223:C:/Users/Utente/Desktop/Tesi/Firmware_Software/DAVE project/S2GLP_Pulsed_Doppler/Libraries/XMCLib/inc\xmc_scu.h ****  * The input signal for the CCU slice should be selected as SCU input.
 224:C:/Users/Utente/Desktop/Tesi/Firmware_Software/DAVE project/S2GLP_Pulsed_Doppler/Libraries/XMCLib/inc\xmc_scu.h ****  * The above mentioned configurations can be made using the CCU LLD API XMC_CCU4_SLICE_StartConfig(
 225:C:/Users/Utente/Desktop/Tesi/Firmware_Software/DAVE project/S2GLP_Pulsed_Doppler/Libraries/XMCLib/inc\xmc_scu.h ****  * CCU timer slice should be started using XMC_CCU4_SLICE_StartTimer() before triggering 
 226:C:/Users/Utente/Desktop/Tesi/Firmware_Software/DAVE project/S2GLP_Pulsed_Doppler/Libraries/XMCLib/inc\xmc_scu.h ****  * the timer using this API.<BR>
 227:C:/Users/Utente/Desktop/Tesi/Firmware_Software/DAVE project/S2GLP_Pulsed_Doppler/Libraries/XMCLib/inc\xmc_scu.h ****  * \par<b>Related APIs:</b><BR>
 228:C:/Users/Utente/Desktop/Tesi/Firmware_Software/DAVE project/S2GLP_Pulsed_Doppler/Libraries/XMCLib/inc\xmc_scu.h ****  * XMC_CCU4_SLICE_StartConfig(), XMC_CCU4_SLICE_SetInput(), XMC_SCU_SetCcuTriggerLow()\n\n\n
 229:C:/Users/Utente/Desktop/Tesi/Firmware_Software/DAVE project/S2GLP_Pulsed_Doppler/Libraries/XMCLib/inc\xmc_scu.h ****  */
 230:C:/Users/Utente/Desktop/Tesi/Firmware_Software/DAVE project/S2GLP_Pulsed_Doppler/Libraries/XMCLib/inc\xmc_scu.h **** __STATIC_INLINE void XMC_SCU_SetCcuTriggerHigh(const uint32_t trigger)
 231:C:/Users/Utente/Desktop/Tesi/Firmware_Software/DAVE project/S2GLP_Pulsed_Doppler/Libraries/XMCLib/inc\xmc_scu.h **** {
 232:C:/Users/Utente/Desktop/Tesi/Firmware_Software/DAVE project/S2GLP_Pulsed_Doppler/Libraries/XMCLib/inc\xmc_scu.h ****   SCU_GENERAL->CCUCON |= (uint32_t)trigger;
 233:C:/Users/Utente/Desktop/Tesi/Firmware_Software/DAVE project/S2GLP_Pulsed_Doppler/Libraries/XMCLib/inc\xmc_scu.h **** }
 234:C:/Users/Utente/Desktop/Tesi/Firmware_Software/DAVE project/S2GLP_Pulsed_Doppler/Libraries/XMCLib/inc\xmc_scu.h **** 
 235:C:/Users/Utente/Desktop/Tesi/Firmware_Software/DAVE project/S2GLP_Pulsed_Doppler/Libraries/XMCLib/inc\xmc_scu.h **** /**
 236:C:/Users/Utente/Desktop/Tesi/Firmware_Software/DAVE project/S2GLP_Pulsed_Doppler/Libraries/XMCLib/inc\xmc_scu.h ****  *
 237:C:/Users/Utente/Desktop/Tesi/Firmware_Software/DAVE project/S2GLP_Pulsed_Doppler/Libraries/XMCLib/inc\xmc_scu.h ****  * @param trigger  CCU slices to be triggered synchronously via software. The value is a bitmask of
 238:C:/Users/Utente/Desktop/Tesi/Firmware_Software/DAVE project/S2GLP_Pulsed_Doppler/Libraries/XMCLib/inc\xmc_scu.h ****  *                    in the register CCUCON. <br>
 239:C:/Users/Utente/Desktop/Tesi/Firmware_Software/DAVE project/S2GLP_Pulsed_Doppler/Libraries/XMCLib/inc\xmc_scu.h ****  *                    \b Range: Use type @ref XMC_SCU_CCU_TRIGGER_t for bitmask of individual CCU s
 240:C:/Users/Utente/Desktop/Tesi/Firmware_Software/DAVE project/S2GLP_Pulsed_Doppler/Libraries/XMCLib/inc\xmc_scu.h ****  *                    combined using \a OR operation.
 241:C:/Users/Utente/Desktop/Tesi/Firmware_Software/DAVE project/S2GLP_Pulsed_Doppler/Libraries/XMCLib/inc\xmc_scu.h ****  *
 242:C:/Users/Utente/Desktop/Tesi/Firmware_Software/DAVE project/S2GLP_Pulsed_Doppler/Libraries/XMCLib/inc\xmc_scu.h ****  * @return None
 243:C:/Users/Utente/Desktop/Tesi/Firmware_Software/DAVE project/S2GLP_Pulsed_Doppler/Libraries/XMCLib/inc\xmc_scu.h ****  *
 244:C:/Users/Utente/Desktop/Tesi/Firmware_Software/DAVE project/S2GLP_Pulsed_Doppler/Libraries/XMCLib/inc\xmc_scu.h ****  * \par<b>Description</b><br>
 245:C:/Users/Utente/Desktop/Tesi/Firmware_Software/DAVE project/S2GLP_Pulsed_Doppler/Libraries/XMCLib/inc\xmc_scu.h ****  * Generates passive edge(high to low) trigger for multiple CCU units at the same time.\n\n
 246:C:/Users/Utente/Desktop/Tesi/Firmware_Software/DAVE project/S2GLP_Pulsed_Doppler/Libraries/XMCLib/inc\xmc_scu.h ****  * Before executing this API, all the required CCU timers should configure external start.
 247:C:/Users/Utente/Desktop/Tesi/Firmware_Software/DAVE project/S2GLP_Pulsed_Doppler/Libraries/XMCLib/inc\xmc_scu.h ****  * The edge of the start signal should be selected as passive edge.
 248:C:/Users/Utente/Desktop/Tesi/Firmware_Software/DAVE project/S2GLP_Pulsed_Doppler/Libraries/XMCLib/inc\xmc_scu.h ****  * The input signal for the CCU slice should be selected as SCU input.
 249:C:/Users/Utente/Desktop/Tesi/Firmware_Software/DAVE project/S2GLP_Pulsed_Doppler/Libraries/XMCLib/inc\xmc_scu.h ****  * The above mentioned configurations can be made using the CCU LLD API XMC_CCU4_SLICE_StartConfig(
 250:C:/Users/Utente/Desktop/Tesi/Firmware_Software/DAVE project/S2GLP_Pulsed_Doppler/Libraries/XMCLib/inc\xmc_scu.h ****  * CCU timer slice should be started using XMC_CCU4_SLICE_StartTimer() before triggering 
 251:C:/Users/Utente/Desktop/Tesi/Firmware_Software/DAVE project/S2GLP_Pulsed_Doppler/Libraries/XMCLib/inc\xmc_scu.h ****  * the timer using this API.<BR>
 252:C:/Users/Utente/Desktop/Tesi/Firmware_Software/DAVE project/S2GLP_Pulsed_Doppler/Libraries/XMCLib/inc\xmc_scu.h ****  * \par<b>Related APIs:</b><BR>
 253:C:/Users/Utente/Desktop/Tesi/Firmware_Software/DAVE project/S2GLP_Pulsed_Doppler/Libraries/XMCLib/inc\xmc_scu.h ****  * XMC_CCU4_SLICE_StartConfig(), XMC_CCU4_SLICE_SetInput(), XMC_SCU_SetCcuTriggerHigh()\n\n\n
 254:C:/Users/Utente/Desktop/Tesi/Firmware_Software/DAVE project/S2GLP_Pulsed_Doppler/Libraries/XMCLib/inc\xmc_scu.h ****  */
 255:C:/Users/Utente/Desktop/Tesi/Firmware_Software/DAVE project/S2GLP_Pulsed_Doppler/Libraries/XMCLib/inc\xmc_scu.h **** __STATIC_INLINE void XMC_SCU_SetCcuTriggerLow(const uint32_t trigger)
 256:C:/Users/Utente/Desktop/Tesi/Firmware_Software/DAVE project/S2GLP_Pulsed_Doppler/Libraries/XMCLib/inc\xmc_scu.h **** {
 257:C:/Users/Utente/Desktop/Tesi/Firmware_Software/DAVE project/S2GLP_Pulsed_Doppler/Libraries/XMCLib/inc\xmc_scu.h ****   SCU_GENERAL->CCUCON &= (uint32_t)~trigger;
 258:C:/Users/Utente/Desktop/Tesi/Firmware_Software/DAVE project/S2GLP_Pulsed_Doppler/Libraries/XMCLib/inc\xmc_scu.h **** }
 259:C:/Users/Utente/Desktop/Tesi/Firmware_Software/DAVE project/S2GLP_Pulsed_Doppler/Libraries/XMCLib/inc\xmc_scu.h **** 
 260:C:/Users/Utente/Desktop/Tesi/Firmware_Software/DAVE project/S2GLP_Pulsed_Doppler/Libraries/XMCLib/inc\xmc_scu.h **** /**
 261:C:/Users/Utente/Desktop/Tesi/Firmware_Software/DAVE project/S2GLP_Pulsed_Doppler/Libraries/XMCLib/inc\xmc_scu.h ****  *
 262:C:/Users/Utente/Desktop/Tesi/Firmware_Software/DAVE project/S2GLP_Pulsed_Doppler/Libraries/XMCLib/inc\xmc_scu.h ****  * @param config Pointer to structure holding the clock prescaler values and divider values for 
 263:C:/Users/Utente/Desktop/Tesi/Firmware_Software/DAVE project/S2GLP_Pulsed_Doppler/Libraries/XMCLib/inc\xmc_scu.h ****  *                configuring clock generators and clock tree.\n
 264:C:/Users/Utente/Desktop/Tesi/Firmware_Software/DAVE project/S2GLP_Pulsed_Doppler/Libraries/XMCLib/inc\xmc_scu.h ****  *                \b Range: Configure the members of structure @ref XMC_SCU_CLOCK_CONFIG_t for vari
 265:C:/Users/Utente/Desktop/Tesi/Firmware_Software/DAVE project/S2GLP_Pulsed_Doppler/Libraries/XMCLib/inc\xmc_scu.h ****  *                parameters of clock setup.
 266:C:/Users/Utente/Desktop/Tesi/Firmware_Software/DAVE project/S2GLP_Pulsed_Doppler/Libraries/XMCLib/inc\xmc_scu.h ****  *
 267:C:/Users/Utente/Desktop/Tesi/Firmware_Software/DAVE project/S2GLP_Pulsed_Doppler/Libraries/XMCLib/inc\xmc_scu.h ****  * @return None
 268:C:/Users/Utente/Desktop/Tesi/Firmware_Software/DAVE project/S2GLP_Pulsed_Doppler/Libraries/XMCLib/inc\xmc_scu.h ****  *
 269:C:/Users/Utente/Desktop/Tesi/Firmware_Software/DAVE project/S2GLP_Pulsed_Doppler/Libraries/XMCLib/inc\xmc_scu.h ****  * \par<b>Description</b><br>
 270:C:/Users/Utente/Desktop/Tesi/Firmware_Software/DAVE project/S2GLP_Pulsed_Doppler/Libraries/XMCLib/inc\xmc_scu.h ****  * Initializes clock generators and clock tree.\n\n
 271:C:/Users/Utente/Desktop/Tesi/Firmware_Software/DAVE project/S2GLP_Pulsed_Doppler/Libraries/XMCLib/inc\xmc_scu.h ****  * \if XMC1
 272:C:/Users/Utente/Desktop/Tesi/Firmware_Software/DAVE project/S2GLP_Pulsed_Doppler/Libraries/XMCLib/inc\xmc_scu.h ****  * Peripheral clock and system clock are configured based on the input configuration \a config.
 273:C:/Users/Utente/Desktop/Tesi/Firmware_Software/DAVE project/S2GLP_Pulsed_Doppler/Libraries/XMCLib/inc\xmc_scu.h ****  * The system clock frequency is tuned by configuring the FDIV and IDIV values of CLKCR register.
 274:C:/Users/Utente/Desktop/Tesi/Firmware_Software/DAVE project/S2GLP_Pulsed_Doppler/Libraries/XMCLib/inc\xmc_scu.h ****  * The values of FDIV and IDIV can be provided as part of input configuration.
 275:C:/Users/Utente/Desktop/Tesi/Firmware_Software/DAVE project/S2GLP_Pulsed_Doppler/Libraries/XMCLib/inc\xmc_scu.h ****  * The PCLK divider determines the ratio of peripheral clock to the system clock. 
 276:C:/Users/Utente/Desktop/Tesi/Firmware_Software/DAVE project/S2GLP_Pulsed_Doppler/Libraries/XMCLib/inc\xmc_scu.h ****  * The source of RTC clock is set based on the input configuration. 
 277:C:/Users/Utente/Desktop/Tesi/Firmware_Software/DAVE project/S2GLP_Pulsed_Doppler/Libraries/XMCLib/inc\xmc_scu.h ****  * \a SystemCoreClock variable will be updated with the value of
 278:C:/Users/Utente/Desktop/Tesi/Firmware_Software/DAVE project/S2GLP_Pulsed_Doppler/Libraries/XMCLib/inc\xmc_scu.h ****  * system clock frequency. Access to protected bit fields are handled internally.
 279:C:/Users/Utente/Desktop/Tesi/Firmware_Software/DAVE project/S2GLP_Pulsed_Doppler/Libraries/XMCLib/inc\xmc_scu.h ****  * \endif
 280:C:/Users/Utente/Desktop/Tesi/Firmware_Software/DAVE project/S2GLP_Pulsed_Doppler/Libraries/XMCLib/inc\xmc_scu.h ****  * \if XMC4
 281:C:/Users/Utente/Desktop/Tesi/Firmware_Software/DAVE project/S2GLP_Pulsed_Doppler/Libraries/XMCLib/inc\xmc_scu.h ****  * Enables the high precision oscillator(fOHP) input and configures the system and peripheral clock
 282:C:/Users/Utente/Desktop/Tesi/Firmware_Software/DAVE project/S2GLP_Pulsed_Doppler/Libraries/XMCLib/inc\xmc_scu.h ****  * Based on the system clock source selected in \a config, either fPLL or fOFI will be chosen as sy
 283:C:/Users/Utente/Desktop/Tesi/Firmware_Software/DAVE project/S2GLP_Pulsed_Doppler/Libraries/XMCLib/inc\xmc_scu.h ****  * Based on PLL mode(normal or prescaler mode) used, PLL ramps up in steps to achieve target freque
 284:C:/Users/Utente/Desktop/Tesi/Firmware_Software/DAVE project/S2GLP_Pulsed_Doppler/Libraries/XMCLib/inc\xmc_scu.h ****  * The clock dividers for CPU, CCU and peripheral clocks will be set based on the input configurati
 285:C:/Users/Utente/Desktop/Tesi/Firmware_Software/DAVE project/S2GLP_Pulsed_Doppler/Libraries/XMCLib/inc\xmc_scu.h ****  * The \a SystemCoreClock variable is set with the value of system clock frequency.
 286:C:/Users/Utente/Desktop/Tesi/Firmware_Software/DAVE project/S2GLP_Pulsed_Doppler/Libraries/XMCLib/inc\xmc_scu.h ****  * \endif
 287:C:/Users/Utente/Desktop/Tesi/Firmware_Software/DAVE project/S2GLP_Pulsed_Doppler/Libraries/XMCLib/inc\xmc_scu.h ****  * \par<b>Related APIs:</b><BR>
 288:C:/Users/Utente/Desktop/Tesi/Firmware_Software/DAVE project/S2GLP_Pulsed_Doppler/Libraries/XMCLib/inc\xmc_scu.h ****  * XMC_SCU_CLOCK_GetPeripheralClockFrequency(), XMC_SCU_CLOCK_GetCpuClockFrequency() \n\n\n
 289:C:/Users/Utente/Desktop/Tesi/Firmware_Software/DAVE project/S2GLP_Pulsed_Doppler/Libraries/XMCLib/inc\xmc_scu.h ****  */
 290:C:/Users/Utente/Desktop/Tesi/Firmware_Software/DAVE project/S2GLP_Pulsed_Doppler/Libraries/XMCLib/inc\xmc_scu.h **** void XMC_SCU_CLOCK_Init(const XMC_SCU_CLOCK_CONFIG_t *const config);
 291:C:/Users/Utente/Desktop/Tesi/Firmware_Software/DAVE project/S2GLP_Pulsed_Doppler/Libraries/XMCLib/inc\xmc_scu.h **** 
 292:C:/Users/Utente/Desktop/Tesi/Firmware_Software/DAVE project/S2GLP_Pulsed_Doppler/Libraries/XMCLib/inc\xmc_scu.h **** /**
 293:C:/Users/Utente/Desktop/Tesi/Firmware_Software/DAVE project/S2GLP_Pulsed_Doppler/Libraries/XMCLib/inc\xmc_scu.h ****  *
 294:C:/Users/Utente/Desktop/Tesi/Firmware_Software/DAVE project/S2GLP_Pulsed_Doppler/Libraries/XMCLib/inc\xmc_scu.h ****  * @param event  Bit mask of the event to enable. \b Range: Use type @ref XMC_SCU_INTERRUPT_EVENT_t
 295:C:/Users/Utente/Desktop/Tesi/Firmware_Software/DAVE project/S2GLP_Pulsed_Doppler/Libraries/XMCLib/inc\xmc_scu.h ****  *                for providing the input value. Multiple events can be combined using the \a OR op
 296:C:/Users/Utente/Desktop/Tesi/Firmware_Software/DAVE project/S2GLP_Pulsed_Doppler/Libraries/XMCLib/inc\xmc_scu.h ****  *
 297:C:/Users/Utente/Desktop/Tesi/Firmware_Software/DAVE project/S2GLP_Pulsed_Doppler/Libraries/XMCLib/inc\xmc_scu.h ****  * @return None
 298:C:/Users/Utente/Desktop/Tesi/Firmware_Software/DAVE project/S2GLP_Pulsed_Doppler/Libraries/XMCLib/inc\xmc_scu.h ****  *
 299:C:/Users/Utente/Desktop/Tesi/Firmware_Software/DAVE project/S2GLP_Pulsed_Doppler/Libraries/XMCLib/inc\xmc_scu.h ****  * \par<b>Description</b><br>
 300:C:/Users/Utente/Desktop/Tesi/Firmware_Software/DAVE project/S2GLP_Pulsed_Doppler/Libraries/XMCLib/inc\xmc_scu.h ****  * Enables the generation of interrupt for the input events.\n\n
 301:C:/Users/Utente/Desktop/Tesi/Firmware_Software/DAVE project/S2GLP_Pulsed_Doppler/Libraries/XMCLib/inc\xmc_scu.h ****  * The events are enabled by setting the respective bit fields in the SRMSK register. \n
 302:C:/Users/Utente/Desktop/Tesi/Firmware_Software/DAVE project/S2GLP_Pulsed_Doppler/Libraries/XMCLib/inc\xmc_scu.h ****  * Note: User should separately enable the NVIC node responsible for handling the SCU interrupt.
 303:C:/Users/Utente/Desktop/Tesi/Firmware_Software/DAVE project/S2GLP_Pulsed_Doppler/Libraries/XMCLib/inc\xmc_scu.h ****  * The interrupt will be generated when the respective event occurs.
 304:C:/Users/Utente/Desktop/Tesi/Firmware_Software/DAVE project/S2GLP_Pulsed_Doppler/Libraries/XMCLib/inc\xmc_scu.h ****  * \par<b>Related APIs:</b><BR>
 305:C:/Users/Utente/Desktop/Tesi/Firmware_Software/DAVE project/S2GLP_Pulsed_Doppler/Libraries/XMCLib/inc\xmc_scu.h ****  * NVIC_EnableIRQ(), XMC_SCU_INTERRUPT_DisableEvent()\n\n\n
 306:C:/Users/Utente/Desktop/Tesi/Firmware_Software/DAVE project/S2GLP_Pulsed_Doppler/Libraries/XMCLib/inc\xmc_scu.h ****  */
 307:C:/Users/Utente/Desktop/Tesi/Firmware_Software/DAVE project/S2GLP_Pulsed_Doppler/Libraries/XMCLib/inc\xmc_scu.h **** void XMC_SCU_INTERRUPT_EnableEvent(const XMC_SCU_INTERRUPT_EVENT_t event);
 308:C:/Users/Utente/Desktop/Tesi/Firmware_Software/DAVE project/S2GLP_Pulsed_Doppler/Libraries/XMCLib/inc\xmc_scu.h **** 
 309:C:/Users/Utente/Desktop/Tesi/Firmware_Software/DAVE project/S2GLP_Pulsed_Doppler/Libraries/XMCLib/inc\xmc_scu.h **** 
 310:C:/Users/Utente/Desktop/Tesi/Firmware_Software/DAVE project/S2GLP_Pulsed_Doppler/Libraries/XMCLib/inc\xmc_scu.h **** /**
 311:C:/Users/Utente/Desktop/Tesi/Firmware_Software/DAVE project/S2GLP_Pulsed_Doppler/Libraries/XMCLib/inc\xmc_scu.h ****  *
 312:C:/Users/Utente/Desktop/Tesi/Firmware_Software/DAVE project/S2GLP_Pulsed_Doppler/Libraries/XMCLib/inc\xmc_scu.h ****  * @param event  Bit mask of the event to disable. \b Range: Use type @ref XMC_SCU_INTERRUPT_EVENT_
 313:C:/Users/Utente/Desktop/Tesi/Firmware_Software/DAVE project/S2GLP_Pulsed_Doppler/Libraries/XMCLib/inc\xmc_scu.h ****  *                for providing the input value. Multiple events can be combined using the \a OR op
 314:C:/Users/Utente/Desktop/Tesi/Firmware_Software/DAVE project/S2GLP_Pulsed_Doppler/Libraries/XMCLib/inc\xmc_scu.h ****  *
 315:C:/Users/Utente/Desktop/Tesi/Firmware_Software/DAVE project/S2GLP_Pulsed_Doppler/Libraries/XMCLib/inc\xmc_scu.h ****  * @return None
 316:C:/Users/Utente/Desktop/Tesi/Firmware_Software/DAVE project/S2GLP_Pulsed_Doppler/Libraries/XMCLib/inc\xmc_scu.h ****  *
 317:C:/Users/Utente/Desktop/Tesi/Firmware_Software/DAVE project/S2GLP_Pulsed_Doppler/Libraries/XMCLib/inc\xmc_scu.h ****  * \par<b>Description</b><br>
 318:C:/Users/Utente/Desktop/Tesi/Firmware_Software/DAVE project/S2GLP_Pulsed_Doppler/Libraries/XMCLib/inc\xmc_scu.h ****  * Disables generation of interrupt on occurrence of the input event.\n\n
 319:C:/Users/Utente/Desktop/Tesi/Firmware_Software/DAVE project/S2GLP_Pulsed_Doppler/Libraries/XMCLib/inc\xmc_scu.h ****  * The events are disabled by resetting the respective bit fields in the SRMSK register. \n
 320:C:/Users/Utente/Desktop/Tesi/Firmware_Software/DAVE project/S2GLP_Pulsed_Doppler/Libraries/XMCLib/inc\xmc_scu.h ****  * \par<b>Related APIs:</b><BR>
 321:C:/Users/Utente/Desktop/Tesi/Firmware_Software/DAVE project/S2GLP_Pulsed_Doppler/Libraries/XMCLib/inc\xmc_scu.h ****  * NVIC_DisableIRQ(), XMC_SCU_INTERRUPT_EnableEvent()\n\n\n
 322:C:/Users/Utente/Desktop/Tesi/Firmware_Software/DAVE project/S2GLP_Pulsed_Doppler/Libraries/XMCLib/inc\xmc_scu.h ****  */
 323:C:/Users/Utente/Desktop/Tesi/Firmware_Software/DAVE project/S2GLP_Pulsed_Doppler/Libraries/XMCLib/inc\xmc_scu.h **** void XMC_SCU_INTERRUPT_DisableEvent(const XMC_SCU_INTERRUPT_EVENT_t event);
 324:C:/Users/Utente/Desktop/Tesi/Firmware_Software/DAVE project/S2GLP_Pulsed_Doppler/Libraries/XMCLib/inc\xmc_scu.h **** 
 325:C:/Users/Utente/Desktop/Tesi/Firmware_Software/DAVE project/S2GLP_Pulsed_Doppler/Libraries/XMCLib/inc\xmc_scu.h **** /**
 326:C:/Users/Utente/Desktop/Tesi/Firmware_Software/DAVE project/S2GLP_Pulsed_Doppler/Libraries/XMCLib/inc\xmc_scu.h ****  *
 327:C:/Users/Utente/Desktop/Tesi/Firmware_Software/DAVE project/S2GLP_Pulsed_Doppler/Libraries/XMCLib/inc\xmc_scu.h ****  * @param event Bit mask of the event to be triggered. \b Range: Use type @ref XMC_SCU_INTERRUPT_EV
 328:C:/Users/Utente/Desktop/Tesi/Firmware_Software/DAVE project/S2GLP_Pulsed_Doppler/Libraries/XMCLib/inc\xmc_scu.h ****  *                for providing the input value. Multiple events can be combined using the \a OR op
 329:C:/Users/Utente/Desktop/Tesi/Firmware_Software/DAVE project/S2GLP_Pulsed_Doppler/Libraries/XMCLib/inc\xmc_scu.h ****  *
 330:C:/Users/Utente/Desktop/Tesi/Firmware_Software/DAVE project/S2GLP_Pulsed_Doppler/Libraries/XMCLib/inc\xmc_scu.h ****  * @return None
 331:C:/Users/Utente/Desktop/Tesi/Firmware_Software/DAVE project/S2GLP_Pulsed_Doppler/Libraries/XMCLib/inc\xmc_scu.h ****  *
 332:C:/Users/Utente/Desktop/Tesi/Firmware_Software/DAVE project/S2GLP_Pulsed_Doppler/Libraries/XMCLib/inc\xmc_scu.h ****  * \par<b>Description</b><br>
 333:C:/Users/Utente/Desktop/Tesi/Firmware_Software/DAVE project/S2GLP_Pulsed_Doppler/Libraries/XMCLib/inc\xmc_scu.h ****  * Triggers the event as if the hardware raised it.\n\n
 334:C:/Users/Utente/Desktop/Tesi/Firmware_Software/DAVE project/S2GLP_Pulsed_Doppler/Libraries/XMCLib/inc\xmc_scu.h ****  * Event will be triggered by setting the respective bitfield in the SRSET register.\n
 335:C:/Users/Utente/Desktop/Tesi/Firmware_Software/DAVE project/S2GLP_Pulsed_Doppler/Libraries/XMCLib/inc\xmc_scu.h ****  * Note: User should enable the NVIC node that handles the respective event for interrupt generatio
 336:C:/Users/Utente/Desktop/Tesi/Firmware_Software/DAVE project/S2GLP_Pulsed_Doppler/Libraries/XMCLib/inc\xmc_scu.h ****  * \par<b>Related APIs:</b><BR>
 337:C:/Users/Utente/Desktop/Tesi/Firmware_Software/DAVE project/S2GLP_Pulsed_Doppler/Libraries/XMCLib/inc\xmc_scu.h ****  * NVIC_EnableIRQ(), XMC_SCU_INTERUPT_GetEventStatus(), XMC_SCU_INTERRUPT_ClearEventStatus() \n\n\n
 338:C:/Users/Utente/Desktop/Tesi/Firmware_Software/DAVE project/S2GLP_Pulsed_Doppler/Libraries/XMCLib/inc\xmc_scu.h ****  */
 339:C:/Users/Utente/Desktop/Tesi/Firmware_Software/DAVE project/S2GLP_Pulsed_Doppler/Libraries/XMCLib/inc\xmc_scu.h **** void XMC_SCU_INTERRUPT_TriggerEvent(const XMC_SCU_INTERRUPT_EVENT_t  event);
 340:C:/Users/Utente/Desktop/Tesi/Firmware_Software/DAVE project/S2GLP_Pulsed_Doppler/Libraries/XMCLib/inc\xmc_scu.h **** 
 341:C:/Users/Utente/Desktop/Tesi/Firmware_Software/DAVE project/S2GLP_Pulsed_Doppler/Libraries/XMCLib/inc\xmc_scu.h **** /**
 342:C:/Users/Utente/Desktop/Tesi/Firmware_Software/DAVE project/S2GLP_Pulsed_Doppler/Libraries/XMCLib/inc\xmc_scu.h ****  * @return uint32_t  Status of the SCU events.
 343:C:/Users/Utente/Desktop/Tesi/Firmware_Software/DAVE project/S2GLP_Pulsed_Doppler/Libraries/XMCLib/inc\xmc_scu.h ****  *
 344:C:/Users/Utente/Desktop/Tesi/Firmware_Software/DAVE project/S2GLP_Pulsed_Doppler/Libraries/XMCLib/inc\xmc_scu.h ****  * \par<b>Description</b><br>
 345:C:/Users/Utente/Desktop/Tesi/Firmware_Software/DAVE project/S2GLP_Pulsed_Doppler/Libraries/XMCLib/inc\xmc_scu.h ****  * Provides the status of all SCU events.\n\n
 346:C:/Users/Utente/Desktop/Tesi/Firmware_Software/DAVE project/S2GLP_Pulsed_Doppler/Libraries/XMCLib/inc\xmc_scu.h ****  * The status is read from the SRRAW register. To check the status of a particular 
 347:C:/Users/Utente/Desktop/Tesi/Firmware_Software/DAVE project/S2GLP_Pulsed_Doppler/Libraries/XMCLib/inc\xmc_scu.h ****  * event, the returned value should be masked with the bit mask of the event. The bitmask
 348:C:/Users/Utente/Desktop/Tesi/Firmware_Software/DAVE project/S2GLP_Pulsed_Doppler/Libraries/XMCLib/inc\xmc_scu.h ****  * of events can be obtained using the type @ref XMC_SCU_INTERRUPT_EVENT_t. Multiple events'
 349:C:/Users/Utente/Desktop/Tesi/Firmware_Software/DAVE project/S2GLP_Pulsed_Doppler/Libraries/XMCLib/inc\xmc_scu.h ****  * status can be checked by combining the bit masks using \a OR operation. 
 350:C:/Users/Utente/Desktop/Tesi/Firmware_Software/DAVE project/S2GLP_Pulsed_Doppler/Libraries/XMCLib/inc\xmc_scu.h ****  * After detecting the event, the event status should be cleared using software to detect the event
 351:C:/Users/Utente/Desktop/Tesi/Firmware_Software/DAVE project/S2GLP_Pulsed_Doppler/Libraries/XMCLib/inc\xmc_scu.h ****  * \par<b>Related APIs:</b><BR>
 352:C:/Users/Utente/Desktop/Tesi/Firmware_Software/DAVE project/S2GLP_Pulsed_Doppler/Libraries/XMCLib/inc\xmc_scu.h ****  * XMC_SCU_INTERRUPT_ClearEventStatus(), XMC_SCU_INTERRUPT_TriggerEvent(), XMC_SCU_INTERRUPT_SetEve
 353:C:/Users/Utente/Desktop/Tesi/Firmware_Software/DAVE project/S2GLP_Pulsed_Doppler/Libraries/XMCLib/inc\xmc_scu.h ****  */
 354:C:/Users/Utente/Desktop/Tesi/Firmware_Software/DAVE project/S2GLP_Pulsed_Doppler/Libraries/XMCLib/inc\xmc_scu.h **** XMC_SCU_INTERRUPT_EVENT_t XMC_SCU_INTERUPT_GetEventStatus(void);
 355:C:/Users/Utente/Desktop/Tesi/Firmware_Software/DAVE project/S2GLP_Pulsed_Doppler/Libraries/XMCLib/inc\xmc_scu.h **** 
 356:C:/Users/Utente/Desktop/Tesi/Firmware_Software/DAVE project/S2GLP_Pulsed_Doppler/Libraries/XMCLib/inc\xmc_scu.h **** /**
 357:C:/Users/Utente/Desktop/Tesi/Firmware_Software/DAVE project/S2GLP_Pulsed_Doppler/Libraries/XMCLib/inc\xmc_scu.h ****  *
 358:C:/Users/Utente/Desktop/Tesi/Firmware_Software/DAVE project/S2GLP_Pulsed_Doppler/Libraries/XMCLib/inc\xmc_scu.h ****  * @param event  Bit mask of the events to clear. \b Range: Use type @ref XMC_SCU_INTERRUPT_EVENT_t
 359:C:/Users/Utente/Desktop/Tesi/Firmware_Software/DAVE project/S2GLP_Pulsed_Doppler/Libraries/XMCLib/inc\xmc_scu.h ****  *                for providing the input value. Multiple events can be combined using the \a OR op
 360:C:/Users/Utente/Desktop/Tesi/Firmware_Software/DAVE project/S2GLP_Pulsed_Doppler/Libraries/XMCLib/inc\xmc_scu.h ****  *
 361:C:/Users/Utente/Desktop/Tesi/Firmware_Software/DAVE project/S2GLP_Pulsed_Doppler/Libraries/XMCLib/inc\xmc_scu.h ****  * @return None
 362:C:/Users/Utente/Desktop/Tesi/Firmware_Software/DAVE project/S2GLP_Pulsed_Doppler/Libraries/XMCLib/inc\xmc_scu.h ****  *
 363:C:/Users/Utente/Desktop/Tesi/Firmware_Software/DAVE project/S2GLP_Pulsed_Doppler/Libraries/XMCLib/inc\xmc_scu.h ****  * \par<b>Description</b><br>
 364:C:/Users/Utente/Desktop/Tesi/Firmware_Software/DAVE project/S2GLP_Pulsed_Doppler/Libraries/XMCLib/inc\xmc_scu.h ****  * Clears the event status bit in SRRAW register.\n\n
 365:C:/Users/Utente/Desktop/Tesi/Firmware_Software/DAVE project/S2GLP_Pulsed_Doppler/Libraries/XMCLib/inc\xmc_scu.h ****  * The events are cleared by writing value 1 to their bit positions in the SRCLR register.
 366:C:/Users/Utente/Desktop/Tesi/Firmware_Software/DAVE project/S2GLP_Pulsed_Doppler/Libraries/XMCLib/inc\xmc_scu.h ****  * The API can be used when polling method is used. After detecting the event, the event status
 367:C:/Users/Utente/Desktop/Tesi/Firmware_Software/DAVE project/S2GLP_Pulsed_Doppler/Libraries/XMCLib/inc\xmc_scu.h ****  * should be cleared using software to detect the event again.
 368:C:/Users/Utente/Desktop/Tesi/Firmware_Software/DAVE project/S2GLP_Pulsed_Doppler/Libraries/XMCLib/inc\xmc_scu.h ****  *
 369:C:/Users/Utente/Desktop/Tesi/Firmware_Software/DAVE project/S2GLP_Pulsed_Doppler/Libraries/XMCLib/inc\xmc_scu.h ****  * \par<b>Related APIs:</b><BR>
 370:C:/Users/Utente/Desktop/Tesi/Firmware_Software/DAVE project/S2GLP_Pulsed_Doppler/Libraries/XMCLib/inc\xmc_scu.h ****  * XMC_SCU_INTERUPT_GetEventStatus(), XMC_SCU_INTERRUPT_TriggerEvent() \n\n\n
 371:C:/Users/Utente/Desktop/Tesi/Firmware_Software/DAVE project/S2GLP_Pulsed_Doppler/Libraries/XMCLib/inc\xmc_scu.h ****  */
 372:C:/Users/Utente/Desktop/Tesi/Firmware_Software/DAVE project/S2GLP_Pulsed_Doppler/Libraries/XMCLib/inc\xmc_scu.h **** void XMC_SCU_INTERRUPT_ClearEventStatus(const XMC_SCU_INTERRUPT_EVENT_t event);
 373:C:/Users/Utente/Desktop/Tesi/Firmware_Software/DAVE project/S2GLP_Pulsed_Doppler/Libraries/XMCLib/inc\xmc_scu.h **** 
 374:C:/Users/Utente/Desktop/Tesi/Firmware_Software/DAVE project/S2GLP_Pulsed_Doppler/Libraries/XMCLib/inc\xmc_scu.h **** /**
 375:C:/Users/Utente/Desktop/Tesi/Firmware_Software/DAVE project/S2GLP_Pulsed_Doppler/Libraries/XMCLib/inc\xmc_scu.h ****  *
 376:C:/Users/Utente/Desktop/Tesi/Firmware_Software/DAVE project/S2GLP_Pulsed_Doppler/Libraries/XMCLib/inc\xmc_scu.h ****  * @return uint32_t  Status representing the reason for device reset.
 377:C:/Users/Utente/Desktop/Tesi/Firmware_Software/DAVE project/S2GLP_Pulsed_Doppler/Libraries/XMCLib/inc\xmc_scu.h ****  *
 378:C:/Users/Utente/Desktop/Tesi/Firmware_Software/DAVE project/S2GLP_Pulsed_Doppler/Libraries/XMCLib/inc\xmc_scu.h ****  * \par<b>Description</b><br>
 379:C:/Users/Utente/Desktop/Tesi/Firmware_Software/DAVE project/S2GLP_Pulsed_Doppler/Libraries/XMCLib/inc\xmc_scu.h ****  * Provides the value representing the reason for device reset.\n\n
 380:C:/Users/Utente/Desktop/Tesi/Firmware_Software/DAVE project/S2GLP_Pulsed_Doppler/Libraries/XMCLib/inc\xmc_scu.h ****  * The return value is an encoded word, which can indicate multiple reasons for the last reset. Eac
 381:C:/Users/Utente/Desktop/Tesi/Firmware_Software/DAVE project/S2GLP_Pulsed_Doppler/Libraries/XMCLib/inc\xmc_scu.h ****  * returned word is representative of a last reset cause. The returned value should be appropriatel
 382:C:/Users/Utente/Desktop/Tesi/Firmware_Software/DAVE project/S2GLP_Pulsed_Doppler/Libraries/XMCLib/inc\xmc_scu.h ****  * the cause of reset. 
 383:C:/Users/Utente/Desktop/Tesi/Firmware_Software/DAVE project/S2GLP_Pulsed_Doppler/Libraries/XMCLib/inc\xmc_scu.h ****  * The cause of the last reset gets automatically stored in 
 384:C:/Users/Utente/Desktop/Tesi/Firmware_Software/DAVE project/S2GLP_Pulsed_Doppler/Libraries/XMCLib/inc\xmc_scu.h ****  * the \a SCU_RSTSTAT register. The reset status shall be reset after each
 385:C:/Users/Utente/Desktop/Tesi/Firmware_Software/DAVE project/S2GLP_Pulsed_Doppler/Libraries/XMCLib/inc\xmc_scu.h ****  * startup in order to ensure consistent source indication after the next reset.
 386:C:/Users/Utente/Desktop/Tesi/Firmware_Software/DAVE project/S2GLP_Pulsed_Doppler/Libraries/XMCLib/inc\xmc_scu.h ****  * \b Range: The type @ref XMC_SCU_RESET_REASON_t can be used to get the bit masks of the reset cau
 387:C:/Users/Utente/Desktop/Tesi/Firmware_Software/DAVE project/S2GLP_Pulsed_Doppler/Libraries/XMCLib/inc\xmc_scu.h ****  *
 388:C:/Users/Utente/Desktop/Tesi/Firmware_Software/DAVE project/S2GLP_Pulsed_Doppler/Libraries/XMCLib/inc\xmc_scu.h ****  * \par<b>Related APIs:</b><BR>
 389:C:/Users/Utente/Desktop/Tesi/Firmware_Software/DAVE project/S2GLP_Pulsed_Doppler/Libraries/XMCLib/inc\xmc_scu.h ****  * XMC_SCU_RESET_ClearDeviceResetReason() \n\n\n
 390:C:/Users/Utente/Desktop/Tesi/Firmware_Software/DAVE project/S2GLP_Pulsed_Doppler/Libraries/XMCLib/inc\xmc_scu.h ****  */
 391:C:/Users/Utente/Desktop/Tesi/Firmware_Software/DAVE project/S2GLP_Pulsed_Doppler/Libraries/XMCLib/inc\xmc_scu.h **** __STATIC_INLINE uint32_t XMC_SCU_RESET_GetDeviceResetReason(void)
 392:C:/Users/Utente/Desktop/Tesi/Firmware_Software/DAVE project/S2GLP_Pulsed_Doppler/Libraries/XMCLib/inc\xmc_scu.h **** {
 393:C:/Users/Utente/Desktop/Tesi/Firmware_Software/DAVE project/S2GLP_Pulsed_Doppler/Libraries/XMCLib/inc\xmc_scu.h ****   return ((SCU_RESET->RSTSTAT) & SCU_RESET_RSTSTAT_RSTSTAT_Msk);
 394:C:/Users/Utente/Desktop/Tesi/Firmware_Software/DAVE project/S2GLP_Pulsed_Doppler/Libraries/XMCLib/inc\xmc_scu.h **** }
 395:C:/Users/Utente/Desktop/Tesi/Firmware_Software/DAVE project/S2GLP_Pulsed_Doppler/Libraries/XMCLib/inc\xmc_scu.h **** /**
 396:C:/Users/Utente/Desktop/Tesi/Firmware_Software/DAVE project/S2GLP_Pulsed_Doppler/Libraries/XMCLib/inc\xmc_scu.h ****  * @return None 
 397:C:/Users/Utente/Desktop/Tesi/Firmware_Software/DAVE project/S2GLP_Pulsed_Doppler/Libraries/XMCLib/inc\xmc_scu.h ****  *
 398:C:/Users/Utente/Desktop/Tesi/Firmware_Software/DAVE project/S2GLP_Pulsed_Doppler/Libraries/XMCLib/inc\xmc_scu.h ****  * \par<b>Description</b><br>
 399:C:/Users/Utente/Desktop/Tesi/Firmware_Software/DAVE project/S2GLP_Pulsed_Doppler/Libraries/XMCLib/inc\xmc_scu.h ****  * Clears the reset reason bits in the reset status register. \n\n
 400:C:/Users/Utente/Desktop/Tesi/Firmware_Software/DAVE project/S2GLP_Pulsed_Doppler/Libraries/XMCLib/inc\xmc_scu.h ****  * Clearing of the reset status information in the \a SCU_RSTSTAT register via register bit \a RSTC
 401:C:/Users/Utente/Desktop/Tesi/Firmware_Software/DAVE project/S2GLP_Pulsed_Doppler/Libraries/XMCLib/inc\xmc_scu.h ****  * recommended to ensure a clear indication of the cause of next reset.
 402:C:/Users/Utente/Desktop/Tesi/Firmware_Software/DAVE project/S2GLP_Pulsed_Doppler/Libraries/XMCLib/inc\xmc_scu.h ****  *
 403:C:/Users/Utente/Desktop/Tesi/Firmware_Software/DAVE project/S2GLP_Pulsed_Doppler/Libraries/XMCLib/inc\xmc_scu.h ****  * \par<b>Related APIs:</b><BR>
 404:C:/Users/Utente/Desktop/Tesi/Firmware_Software/DAVE project/S2GLP_Pulsed_Doppler/Libraries/XMCLib/inc\xmc_scu.h ****  * XMC_SCU_RESET_GetDeviceResetReason() \n\n\n
 405:C:/Users/Utente/Desktop/Tesi/Firmware_Software/DAVE project/S2GLP_Pulsed_Doppler/Libraries/XMCLib/inc\xmc_scu.h ****  */
 406:C:/Users/Utente/Desktop/Tesi/Firmware_Software/DAVE project/S2GLP_Pulsed_Doppler/Libraries/XMCLib/inc\xmc_scu.h **** __STATIC_INLINE void XMC_SCU_RESET_ClearDeviceResetReason(void)
 407:C:/Users/Utente/Desktop/Tesi/Firmware_Software/DAVE project/S2GLP_Pulsed_Doppler/Libraries/XMCLib/inc\xmc_scu.h **** {
 408:C:/Users/Utente/Desktop/Tesi/Firmware_Software/DAVE project/S2GLP_Pulsed_Doppler/Libraries/XMCLib/inc\xmc_scu.h ****   /* Clear RSTSTAT.RSTSTAT bitfield */
 409:C:/Users/Utente/Desktop/Tesi/Firmware_Software/DAVE project/S2GLP_Pulsed_Doppler/Libraries/XMCLib/inc\xmc_scu.h ****   SCU_RESET->RSTCLR = (uint32_t)SCU_RESET_RSTCLR_RSCLR_Msk;
 410:C:/Users/Utente/Desktop/Tesi/Firmware_Software/DAVE project/S2GLP_Pulsed_Doppler/Libraries/XMCLib/inc\xmc_scu.h **** }
 411:C:/Users/Utente/Desktop/Tesi/Firmware_Software/DAVE project/S2GLP_Pulsed_Doppler/Libraries/XMCLib/inc\xmc_scu.h ****  
 412:C:/Users/Utente/Desktop/Tesi/Firmware_Software/DAVE project/S2GLP_Pulsed_Doppler/Libraries/XMCLib/inc\xmc_scu.h **** /**
 413:C:/Users/Utente/Desktop/Tesi/Firmware_Software/DAVE project/S2GLP_Pulsed_Doppler/Libraries/XMCLib/inc\xmc_scu.h ****  * @return uint32_t  Value of CPU clock frequency.
 414:C:/Users/Utente/Desktop/Tesi/Firmware_Software/DAVE project/S2GLP_Pulsed_Doppler/Libraries/XMCLib/inc\xmc_scu.h ****  *
 415:C:/Users/Utente/Desktop/Tesi/Firmware_Software/DAVE project/S2GLP_Pulsed_Doppler/Libraries/XMCLib/inc\xmc_scu.h ****  * \par<b>Description</b><br>
 416:C:/Users/Utente/Desktop/Tesi/Firmware_Software/DAVE project/S2GLP_Pulsed_Doppler/Libraries/XMCLib/inc\xmc_scu.h ****  * Provides the vlaue of CPU clock frequency.\n\n
 417:C:/Users/Utente/Desktop/Tesi/Firmware_Software/DAVE project/S2GLP_Pulsed_Doppler/Libraries/XMCLib/inc\xmc_scu.h ****  * The value is stored in a global variable \a \b SystemCoreClock.
 418:C:/Users/Utente/Desktop/Tesi/Firmware_Software/DAVE project/S2GLP_Pulsed_Doppler/Libraries/XMCLib/inc\xmc_scu.h ****  * It is updated when the clock configuration is done using the SCU LLD APIs.
 419:C:/Users/Utente/Desktop/Tesi/Firmware_Software/DAVE project/S2GLP_Pulsed_Doppler/Libraries/XMCLib/inc\xmc_scu.h ****  * The value represents the frequency of clock used for CPU operation.
 420:C:/Users/Utente/Desktop/Tesi/Firmware_Software/DAVE project/S2GLP_Pulsed_Doppler/Libraries/XMCLib/inc\xmc_scu.h ****  * \b Range: Value is of type uint32_t, and gives the value of frequency in Hertz.
 421:C:/Users/Utente/Desktop/Tesi/Firmware_Software/DAVE project/S2GLP_Pulsed_Doppler/Libraries/XMCLib/inc\xmc_scu.h ****  *
 422:C:/Users/Utente/Desktop/Tesi/Firmware_Software/DAVE project/S2GLP_Pulsed_Doppler/Libraries/XMCLib/inc\xmc_scu.h ****  * \par<b>Related APIs:</b><BR>
 423:C:/Users/Utente/Desktop/Tesi/Firmware_Software/DAVE project/S2GLP_Pulsed_Doppler/Libraries/XMCLib/inc\xmc_scu.h ****  * XMC_SCU_CLOCK_GetPeripheralClockFrequency(), XMC_SCU_CLOCK_GatePeripheralClock() \n\n\n
 424:C:/Users/Utente/Desktop/Tesi/Firmware_Software/DAVE project/S2GLP_Pulsed_Doppler/Libraries/XMCLib/inc\xmc_scu.h ****  */
 425:C:/Users/Utente/Desktop/Tesi/Firmware_Software/DAVE project/S2GLP_Pulsed_Doppler/Libraries/XMCLib/inc\xmc_scu.h **** __STATIC_INLINE uint32_t XMC_SCU_CLOCK_GetCpuClockFrequency(void)
 426:C:/Users/Utente/Desktop/Tesi/Firmware_Software/DAVE project/S2GLP_Pulsed_Doppler/Libraries/XMCLib/inc\xmc_scu.h **** {
 427:C:/Users/Utente/Desktop/Tesi/Firmware_Software/DAVE project/S2GLP_Pulsed_Doppler/Libraries/XMCLib/inc\xmc_scu.h ****   return SystemCoreClock;
 1964              	 .loc 3 427 0
 1965 0002 044A     	 ldr r2,.L197+4
 1966              	.LBE151:
 1967              	.LBE150:
 1968              	 .loc 1 895 0
 1969 0004 5B69     	 ldr r3,[r3,#20]
 894:../Libraries/XMCLib/src/xmc4_scu.c ****   return (uint32_t)(XMC_SCU_CLOCK_GetCpuClockFrequency() >>
 1970              	 .loc 1 894 0
 1971 0006 1068     	 ldr r0,[r2]
 1972 0008 03F00103 	 and r3,r3,#1
 896:../Libraries/XMCLib/src/xmc4_scu.c **** }
 1973              	 .loc 1 896 0
 1974 000c D840     	 lsrs r0,r0,r3
 1975 000e 7047     	 bx lr
 1976              	.L198:
 1977              	 .align 2
 1978              	.L197:
 1979 0010 00460050 	 .word 1342195200
 1980 0014 00000000 	 .word SystemCoreClock
 1981              	 .cfi_endproc
 1982              	.LFE209:
 1984              	 .section .text.XMC_SCU_CLOCK_SetSystemClockSource,"ax",%progbits
 1985              	 .align 2
 1986              	 .global XMC_SCU_CLOCK_SetSystemClockSource
 1987              	 .thumb
 1988              	 .thumb_func
 1990              	XMC_SCU_CLOCK_SetSystemClockSource:
 1991              	.LFB210:
 897:../Libraries/XMCLib/src/xmc4_scu.c **** 
 898:../Libraries/XMCLib/src/xmc4_scu.c **** /* API to select fSYS */
 899:../Libraries/XMCLib/src/xmc4_scu.c **** void XMC_SCU_CLOCK_SetSystemClockSource(const XMC_SCU_CLOCK_SYSCLKSRC_t source)
 900:../Libraries/XMCLib/src/xmc4_scu.c **** {
 1992              	 .loc 1 900 0
 1993              	 .cfi_startproc
 1994              	 
 1995              	 
 1996              	 
 1997              	.LVL169:
 901:../Libraries/XMCLib/src/xmc4_scu.c ****   SCU_CLK->SYSCLKCR = (SCU_CLK->SYSCLKCR & ((uint32_t)~SCU_CLK_SYSCLKCR_SYSSEL_Msk)) |
 1998              	 .loc 1 901 0
 1999 0000 034A     	 ldr r2,.L200
 2000 0002 D368     	 ldr r3,[r2,#12]
 2001 0004 23F48033 	 bic r3,r3,#65536
 2002 0008 1843     	 orrs r0,r0,r3
 2003              	.LVL170:
 2004 000a D060     	 str r0,[r2,#12]
 2005 000c 7047     	 bx lr
 2006              	.L201:
 2007 000e 00BF     	 .align 2
 2008              	.L200:
 2009 0010 00460050 	 .word 1342195200
 2010              	 .cfi_endproc
 2011              	.LFE210:
 2013              	 .section .text.XMC_SCU_CLOCK_SetUsbClockSource,"ax",%progbits
 2014              	 .align 2
 2015              	 .global XMC_SCU_CLOCK_SetUsbClockSource
 2016              	 .thumb
 2017              	 .thumb_func
 2019              	XMC_SCU_CLOCK_SetUsbClockSource:
 2020              	.LFB211:
 902:../Libraries/XMCLib/src/xmc4_scu.c ****                       ((uint32_t)source);
 903:../Libraries/XMCLib/src/xmc4_scu.c **** }
 904:../Libraries/XMCLib/src/xmc4_scu.c **** 
 905:../Libraries/XMCLib/src/xmc4_scu.c **** /* API to select fUSB */
 906:../Libraries/XMCLib/src/xmc4_scu.c **** void XMC_SCU_CLOCK_SetUsbClockSource(const XMC_SCU_CLOCK_USBCLKSRC_t source)
 907:../Libraries/XMCLib/src/xmc4_scu.c **** {
 2021              	 .loc 1 907 0
 2022              	 .cfi_startproc
 2023              	 
 2024              	 
 2025              	 
 2026              	.LVL171:
 908:../Libraries/XMCLib/src/xmc4_scu.c ****   SCU_CLK->USBCLKCR = (SCU_CLK->USBCLKCR & ((uint32_t)~SCU_CLK_USBCLKCR_USBSEL_Msk)) |
 2027              	 .loc 1 908 0
 2028 0000 034A     	 ldr r2,.L203
 2029 0002 9369     	 ldr r3,[r2,#24]
 2030 0004 23F48033 	 bic r3,r3,#65536
 2031 0008 1843     	 orrs r0,r0,r3
 2032              	.LVL172:
 2033 000a 9061     	 str r0,[r2,#24]
 2034 000c 7047     	 bx lr
 2035              	.L204:
 2036 000e 00BF     	 .align 2
 2037              	.L203:
 2038 0010 00460050 	 .word 1342195200
 2039              	 .cfi_endproc
 2040              	.LFE211:
 2042              	 .section .text.XMC_SCU_CLOCK_SetWdtClockSource,"ax",%progbits
 2043              	 .align 2
 2044              	 .global XMC_SCU_CLOCK_SetWdtClockSource
 2045              	 .thumb
 2046              	 .thumb_func
 2048              	XMC_SCU_CLOCK_SetWdtClockSource:
 2049              	.LFB212:
 909:../Libraries/XMCLib/src/xmc4_scu.c ****                       ((uint32_t)source);
 910:../Libraries/XMCLib/src/xmc4_scu.c **** }
 911:../Libraries/XMCLib/src/xmc4_scu.c **** 
 912:../Libraries/XMCLib/src/xmc4_scu.c **** /* API to select fWDT */
 913:../Libraries/XMCLib/src/xmc4_scu.c **** void XMC_SCU_CLOCK_SetWdtClockSource(const XMC_SCU_CLOCK_WDTCLKSRC_t source)
 914:../Libraries/XMCLib/src/xmc4_scu.c **** {
 2050              	 .loc 1 914 0
 2051              	 .cfi_startproc
 2052              	 
 2053              	 
 2054              	 
 2055              	.LVL173:
 915:../Libraries/XMCLib/src/xmc4_scu.c ****   SCU_CLK->WDTCLKCR = (SCU_CLK->WDTCLKCR & ((uint32_t)~SCU_CLK_WDTCLKCR_WDTSEL_Msk)) |
 2056              	 .loc 1 915 0
 2057 0000 034A     	 ldr r2,.L206
 2058 0002 536A     	 ldr r3,[r2,#36]
 2059 0004 23F44033 	 bic r3,r3,#196608
 2060 0008 1843     	 orrs r0,r0,r3
 2061              	.LVL174:
 2062 000a 5062     	 str r0,[r2,#36]
 2063 000c 7047     	 bx lr
 2064              	.L207:
 2065 000e 00BF     	 .align 2
 2066              	.L206:
 2067 0010 00460050 	 .word 1342195200
 2068              	 .cfi_endproc
 2069              	.LFE212:
 2071              	 .section .text.XMC_SCU_CLOCK_SetExternalOutputClockSource,"ax",%progbits
 2072              	 .align 2
 2073              	 .global XMC_SCU_CLOCK_SetExternalOutputClockSource
 2074              	 .thumb
 2075              	 .thumb_func
 2077              	XMC_SCU_CLOCK_SetExternalOutputClockSource:
 2078              	.LFB213:
 916:../Libraries/XMCLib/src/xmc4_scu.c ****                       ((uint32_t)source);
 917:../Libraries/XMCLib/src/xmc4_scu.c **** }
 918:../Libraries/XMCLib/src/xmc4_scu.c **** 
 919:../Libraries/XMCLib/src/xmc4_scu.c **** /* API to select fEXT */
 920:../Libraries/XMCLib/src/xmc4_scu.c **** void XMC_SCU_CLOCK_SetExternalOutputClockSource(const XMC_SCU_CLOCK_EXTOUTCLKSRC_t source)
 921:../Libraries/XMCLib/src/xmc4_scu.c **** {
 2079              	 .loc 1 921 0
 2080              	 .cfi_startproc
 2081              	 
 2082              	 
 2083              	 
 2084              	.LVL175:
 922:../Libraries/XMCLib/src/xmc4_scu.c ****   SCU_CLK->EXTCLKCR = (SCU_CLK->EXTCLKCR & ((uint32_t)~SCU_CLK_EXTCLKCR_ECKSEL_Msk)) |
 2085              	 .loc 1 922 0
 2086 0000 034A     	 ldr r2,.L209
 2087 0002 936A     	 ldr r3,[r2,#40]
 2088 0004 23F00303 	 bic r3,r3,#3
 2089 0008 1843     	 orrs r0,r0,r3
 2090              	.LVL176:
 2091 000a 9062     	 str r0,[r2,#40]
 2092 000c 7047     	 bx lr
 2093              	.L210:
 2094 000e 00BF     	 .align 2
 2095              	.L209:
 2096 0010 00460050 	 .word 1342195200
 2097              	 .cfi_endproc
 2098              	.LFE213:
 2100              	 .section .text.XMC_SCU_CLOCK_SetSystemPllClockSource,"ax",%progbits
 2101              	 .align 2
 2102              	 .global XMC_SCU_CLOCK_SetSystemPllClockSource
 2103              	 .thumb
 2104              	 .thumb_func
 2106              	XMC_SCU_CLOCK_SetSystemPllClockSource:
 2107              	.LFB214:
 923:../Libraries/XMCLib/src/xmc4_scu.c ****                       ((uint32_t)source);
 924:../Libraries/XMCLib/src/xmc4_scu.c **** }
 925:../Libraries/XMCLib/src/xmc4_scu.c **** 
 926:../Libraries/XMCLib/src/xmc4_scu.c **** /* API to select fPLL */
 927:../Libraries/XMCLib/src/xmc4_scu.c **** void XMC_SCU_CLOCK_SetSystemPllClockSource(const XMC_SCU_CLOCK_SYSPLLCLKSRC_t source)
 928:../Libraries/XMCLib/src/xmc4_scu.c **** {
 2108              	 .loc 1 928 0
 2109              	 .cfi_startproc
 2110              	 
 2111              	 
 2112              	 
 2113              	.LVL177:
 2114              	.LBB154:
 2115              	.LBB155:
 929:../Libraries/XMCLib/src/xmc4_scu.c ****   /* Check input clock */
 930:../Libraries/XMCLib/src/xmc4_scu.c ****   if (source == XMC_SCU_CLOCK_SYSPLLCLKSRC_OSCHP) /* Select PLLClockSource */
 931:../Libraries/XMCLib/src/xmc4_scu.c ****   {
 932:../Libraries/XMCLib/src/xmc4_scu.c ****     SCU_PLL->PLLCON2 &= (uint32_t)~(SCU_PLL_PLLCON2_PINSEL_Msk | SCU_PLL_PLLCON2_K1INSEL_Msk);
 2116              	 .loc 1 932 0
 2117 0000 074A     	 ldr r2,.L215
 2118 0002 D368     	 ldr r3,[r2,#12]
 2119              	.LBE155:
 2120              	.LBE154:
 930:../Libraries/XMCLib/src/xmc4_scu.c ****   {
 2121              	 .loc 1 930 0
 2122 0004 28B1     	 cbz r0,.L214
 933:../Libraries/XMCLib/src/xmc4_scu.c ****   }
 934:../Libraries/XMCLib/src/xmc4_scu.c ****   else
 935:../Libraries/XMCLib/src/xmc4_scu.c ****   {
 936:../Libraries/XMCLib/src/xmc4_scu.c ****     SCU_PLL->PLLCON2 |= (uint32_t)(SCU_PLL_PLLCON2_PINSEL_Msk | SCU_PLL_PLLCON2_K1INSEL_Msk);
 2123              	 .loc 1 936 0
 2124 0006 43F48073 	 orr r3,r3,#256
 2125 000a 43F00103 	 orr r3,r3,#1
 2126 000e D360     	 str r3,[r2,#12]
 2127 0010 7047     	 bx lr
 2128              	.L214:
 2129              	.LVL178:
 2130              	.LBB157:
 2131              	.LBB156:
 932:../Libraries/XMCLib/src/xmc4_scu.c ****   }
 2132              	 .loc 1 932 0
 2133 0012 23F48073 	 bic r3,r3,#256
 2134 0016 23F00103 	 bic r3,r3,#1
 2135 001a D360     	 str r3,[r2,#12]
 2136 001c 7047     	 bx lr
 2137              	.L216:
 2138 001e 00BF     	 .align 2
 2139              	.L215:
 2140 0020 10470050 	 .word 1342195472
 2141              	.LBE156:
 2142              	.LBE157:
 2143              	 .cfi_endproc
 2144              	.LFE214:
 2146              	 .section .text.XMC_SCU_HIB_SetRtcClockSource,"ax",%progbits
 2147              	 .align 2
 2148              	 .global XMC_SCU_HIB_SetRtcClockSource
 2149              	 .thumb
 2150              	 .thumb_func
 2152              	XMC_SCU_HIB_SetRtcClockSource:
 2153              	.LFB215:
 937:../Libraries/XMCLib/src/xmc4_scu.c ****   }
 938:../Libraries/XMCLib/src/xmc4_scu.c **** }
 939:../Libraries/XMCLib/src/xmc4_scu.c **** 
 940:../Libraries/XMCLib/src/xmc4_scu.c **** /* API to select fRTC */
 941:../Libraries/XMCLib/src/xmc4_scu.c **** void XMC_SCU_HIB_SetRtcClockSource(const XMC_SCU_HIB_RTCCLKSRC_t source)
 942:../Libraries/XMCLib/src/xmc4_scu.c **** { 
 2154              	 .loc 1 942 0
 2155              	 .cfi_startproc
 2156              	 
 2157              	 
 2158              	 
 2159              	.LVL179:
 943:../Libraries/XMCLib/src/xmc4_scu.c ****   /* Wait until the update of HDCR register in hibernate domain is completed */
 944:../Libraries/XMCLib/src/xmc4_scu.c ****   while((SCU_GENERAL->MIRRSTS) & SCU_GENERAL_MIRRSTS_HDCR_Msk)
 2160              	 .loc 1 944 0
 2161 0000 054A     	 ldr r2,.L220
 2162              	.L218:
 2163              	 .loc 1 944 0 is_stmt 0 discriminator 1
 2164 0002 D2F8C430 	 ldr r3,[r2,#196]
 2165 0006 1B07     	 lsls r3,r3,#28
 2166 0008 FBD4     	 bmi .L218
 945:../Libraries/XMCLib/src/xmc4_scu.c ****   {
 946:../Libraries/XMCLib/src/xmc4_scu.c ****   }
 947:../Libraries/XMCLib/src/xmc4_scu.c **** 
 948:../Libraries/XMCLib/src/xmc4_scu.c ****   SCU_HIBERNATE->HDCR = (SCU_HIBERNATE->HDCR & ((uint32_t)~SCU_HIBERNATE_HDCR_RCS_Msk)) |
 2167              	 .loc 1 948 0 is_stmt 1
 2168 000a 044A     	 ldr r2,.L220+4
 2169 000c D368     	 ldr r3,[r2,#12]
 2170 000e 23F04003 	 bic r3,r3,#64
 2171 0012 1843     	 orrs r0,r0,r3
 2172              	.LVL180:
 2173 0014 D060     	 str r0,[r2,#12]
 2174 0016 7047     	 bx lr
 2175              	.L221:
 2176              	 .align 2
 2177              	.L220:
 2178 0018 00400050 	 .word 1342193664
 2179 001c 00430050 	 .word 1342194432
 2180              	 .cfi_endproc
 2181              	.LFE215:
 2183              	 .section .text.XMC_SCU_HIB_SetStandbyClockSource,"ax",%progbits
 2184              	 .align 2
 2185              	 .global XMC_SCU_HIB_SetStandbyClockSource
 2186              	 .thumb
 2187              	 .thumb_func
 2189              	XMC_SCU_HIB_SetStandbyClockSource:
 2190              	.LFB216:
 949:../Libraries/XMCLib/src/xmc4_scu.c ****                         ((uint32_t)source);
 950:../Libraries/XMCLib/src/xmc4_scu.c **** }
 951:../Libraries/XMCLib/src/xmc4_scu.c **** 
 952:../Libraries/XMCLib/src/xmc4_scu.c **** /* API to select fSTDBY */
 953:../Libraries/XMCLib/src/xmc4_scu.c **** void XMC_SCU_HIB_SetStandbyClockSource(const XMC_SCU_HIB_STDBYCLKSRC_t source)
 954:../Libraries/XMCLib/src/xmc4_scu.c **** {
 2191              	 .loc 1 954 0
 2192              	 .cfi_startproc
 2193              	 
 2194              	 
 2195              	 
 2196              	.LVL181:
 955:../Libraries/XMCLib/src/xmc4_scu.c ****   while((SCU_GENERAL->MIRRSTS) & SCU_GENERAL_MIRRSTS_HDCR_Msk)
 2197              	 .loc 1 955 0
 2198 0000 054A     	 ldr r2,.L225
 2199              	.L223:
 2200              	 .loc 1 955 0 is_stmt 0 discriminator 1
 2201 0002 D2F8C430 	 ldr r3,[r2,#196]
 2202 0006 1B07     	 lsls r3,r3,#28
 2203 0008 FBD4     	 bmi .L223
 956:../Libraries/XMCLib/src/xmc4_scu.c ****   {
 957:../Libraries/XMCLib/src/xmc4_scu.c ****     /* check SCU_MIRRSTS to ensure that no transfer over serial interface is pending */
 958:../Libraries/XMCLib/src/xmc4_scu.c ****   }
 959:../Libraries/XMCLib/src/xmc4_scu.c ****   SCU_HIBERNATE->HDCR = (SCU_HIBERNATE->HDCR & ((uint32_t)~SCU_HIBERNATE_HDCR_STDBYSEL_Msk)) |
 2204              	 .loc 1 959 0 is_stmt 1
 2205 000a 044A     	 ldr r2,.L225+4
 2206 000c D368     	 ldr r3,[r2,#12]
 2207 000e 23F08003 	 bic r3,r3,#128
 2208 0012 1843     	 orrs r0,r0,r3
 2209              	.LVL182:
 2210 0014 D060     	 str r0,[r2,#12]
 2211 0016 7047     	 bx lr
 2212              	.L226:
 2213              	 .align 2
 2214              	.L225:
 2215 0018 00400050 	 .word 1342193664
 2216 001c 00430050 	 .word 1342194432
 2217              	 .cfi_endproc
 2218              	.LFE216:
 2220              	 .section .text.XMC_SCU_CLOCK_SetSystemClockDivider,"ax",%progbits
 2221              	 .align 2
 2222              	 .global XMC_SCU_CLOCK_SetSystemClockDivider
 2223              	 .thumb
 2224              	 .thumb_func
 2226              	XMC_SCU_CLOCK_SetSystemClockDivider:
 2227              	.LFB217:
 960:../Libraries/XMCLib/src/xmc4_scu.c ****                         ((uint32_t)source);
 961:../Libraries/XMCLib/src/xmc4_scu.c **** }
 962:../Libraries/XMCLib/src/xmc4_scu.c **** 
 963:../Libraries/XMCLib/src/xmc4_scu.c **** /* API to program the divider placed between fsys and its parent */
 964:../Libraries/XMCLib/src/xmc4_scu.c **** void XMC_SCU_CLOCK_SetSystemClockDivider(const uint32_t divider)
 965:../Libraries/XMCLib/src/xmc4_scu.c **** {
 2228              	 .loc 1 965 0
 2229              	 .cfi_startproc
 2230              	 
 2231              	 
 2232              	 
 2233              	.LVL183:
 966:../Libraries/XMCLib/src/xmc4_scu.c ****   XMC_ASSERT("XMC_SCU_CLOCK_SetSystemClockDivider:Wrong clock divider value",
 967:../Libraries/XMCLib/src/xmc4_scu.c ****               (divider <= (SCU_CLK_SYSCLKCR_SYSDIV_Msk + 1UL)) );
 968:../Libraries/XMCLib/src/xmc4_scu.c **** 
 969:../Libraries/XMCLib/src/xmc4_scu.c ****   SCU_CLK->SYSCLKCR = (SCU_CLK->SYSCLKCR & ((uint32_t)~SCU_CLK_SYSCLKCR_SYSDIV_Msk)) |
 2234              	 .loc 1 969 0
 2235 0000 034A     	 ldr r2,.L228
 2236 0002 D368     	 ldr r3,[r2,#12]
 970:../Libraries/XMCLib/src/xmc4_scu.c ****                       ((uint32_t)(((uint32_t)(divider - 1UL)) << SCU_CLK_SYSCLKCR_SYSDIV_Pos));
 2237              	 .loc 1 970 0
 2238 0004 0138     	 subs r0,r0,#1
 2239              	.LVL184:
 969:../Libraries/XMCLib/src/xmc4_scu.c ****                       ((uint32_t)(((uint32_t)(divider - 1UL)) << SCU_CLK_SYSCLKCR_SYSDIV_Pos));
 2240              	 .loc 1 969 0
 2241 0006 23F0FF03 	 bic r3,r3,#255
 2242 000a 0343     	 orrs r3,r3,r0
 2243 000c D360     	 str r3,[r2,#12]
 2244 000e 7047     	 bx lr
 2245              	.L229:
 2246              	 .align 2
 2247              	.L228:
 2248 0010 00460050 	 .word 1342195200
 2249              	 .cfi_endproc
 2250              	.LFE217:
 2252              	 .section .text.XMC_SCU_CLOCK_SetCcuClockDivider,"ax",%progbits
 2253              	 .align 2
 2254              	 .global XMC_SCU_CLOCK_SetCcuClockDivider
 2255              	 .thumb
 2256              	 .thumb_func
 2258              	XMC_SCU_CLOCK_SetCcuClockDivider:
 2259              	.LFB218:
 971:../Libraries/XMCLib/src/xmc4_scu.c **** }
 972:../Libraries/XMCLib/src/xmc4_scu.c **** 
 973:../Libraries/XMCLib/src/xmc4_scu.c **** /* API to program the divider placed between fccu and its parent */
 974:../Libraries/XMCLib/src/xmc4_scu.c **** void XMC_SCU_CLOCK_SetCcuClockDivider(const uint32_t divider)
 975:../Libraries/XMCLib/src/xmc4_scu.c **** {
 2260              	 .loc 1 975 0
 2261              	 .cfi_startproc
 2262              	 
 2263              	 
 2264              	 
 2265              	.LVL185:
 976:../Libraries/XMCLib/src/xmc4_scu.c ****   XMC_ASSERT("XMC_SCU_CLOCK_SetCapcomClockDivider:Wrong clock divider value", (divider <= 2UL) );
 977:../Libraries/XMCLib/src/xmc4_scu.c **** 
 978:../Libraries/XMCLib/src/xmc4_scu.c ****   SCU_CLK->CCUCLKCR = (SCU_CLK->CCUCLKCR & ((uint32_t)~SCU_CLK_CCUCLKCR_CCUDIV_Msk)) |
 2266              	 .loc 1 978 0
 2267 0000 034A     	 ldr r2,.L231
 2268 0002 136A     	 ldr r3,[r2,#32]
 979:../Libraries/XMCLib/src/xmc4_scu.c ****                       (uint32_t)((uint32_t)(divider - 1UL) << SCU_CLK_CCUCLKCR_CCUDIV_Pos);
 2269              	 .loc 1 979 0
 2270 0004 0138     	 subs r0,r0,#1
 2271              	.LVL186:
 978:../Libraries/XMCLib/src/xmc4_scu.c ****                       (uint32_t)((uint32_t)(divider - 1UL) << SCU_CLK_CCUCLKCR_CCUDIV_Pos);
 2272              	 .loc 1 978 0
 2273 0006 23F00103 	 bic r3,r3,#1
 2274 000a 0343     	 orrs r3,r3,r0
 2275 000c 1362     	 str r3,[r2,#32]
 2276 000e 7047     	 bx lr
 2277              	.L232:
 2278              	 .align 2
 2279              	.L231:
 2280 0010 00460050 	 .word 1342195200
 2281              	 .cfi_endproc
 2282              	.LFE218:
 2284              	 .section .text.XMC_SCU_CLOCK_SetCpuClockDivider,"ax",%progbits
 2285              	 .align 2
 2286              	 .global XMC_SCU_CLOCK_SetCpuClockDivider
 2287              	 .thumb
 2288              	 .thumb_func
 2290              	XMC_SCU_CLOCK_SetCpuClockDivider:
 2291              	.LFB219:
 980:../Libraries/XMCLib/src/xmc4_scu.c **** }
 981:../Libraries/XMCLib/src/xmc4_scu.c **** 
 982:../Libraries/XMCLib/src/xmc4_scu.c **** /* API to program the divider placed between fcpu and its parent */
 983:../Libraries/XMCLib/src/xmc4_scu.c **** void XMC_SCU_CLOCK_SetCpuClockDivider(const uint32_t divider)
 984:../Libraries/XMCLib/src/xmc4_scu.c **** {
 2292              	 .loc 1 984 0
 2293              	 .cfi_startproc
 2294              	 
 2295              	 
 2296              	 
 2297              	.LVL187:
 985:../Libraries/XMCLib/src/xmc4_scu.c ****   XMC_ASSERT("XMC_SCU_CLOCK_SetCpuClockDivider:Wrong clock divider value", (divider <= 2UL) );
 986:../Libraries/XMCLib/src/xmc4_scu.c **** 
 987:../Libraries/XMCLib/src/xmc4_scu.c ****   SCU_CLK->CPUCLKCR = (SCU_CLK->CPUCLKCR & ((uint32_t)~SCU_CLK_CPUCLKCR_CPUDIV_Msk)) |
 2298              	 .loc 1 987 0
 2299 0000 034A     	 ldr r2,.L234
 2300 0002 1369     	 ldr r3,[r2,#16]
 988:../Libraries/XMCLib/src/xmc4_scu.c ****                       (uint32_t)((uint32_t)(divider - 1UL) << SCU_CLK_CPUCLKCR_CPUDIV_Pos);
 2301              	 .loc 1 988 0
 2302 0004 0138     	 subs r0,r0,#1
 2303              	.LVL188:
 987:../Libraries/XMCLib/src/xmc4_scu.c ****                       (uint32_t)((uint32_t)(divider - 1UL) << SCU_CLK_CPUCLKCR_CPUDIV_Pos);
 2304              	 .loc 1 987 0
 2305 0006 23F00103 	 bic r3,r3,#1
 2306 000a 0343     	 orrs r3,r3,r0
 2307 000c 1361     	 str r3,[r2,#16]
 2308 000e 7047     	 bx lr
 2309              	.L235:
 2310              	 .align 2
 2311              	.L234:
 2312 0010 00460050 	 .word 1342195200
 2313              	 .cfi_endproc
 2314              	.LFE219:
 2316              	 .section .text.XMC_SCU_CLOCK_SetPeripheralClockDivider,"ax",%progbits
 2317              	 .align 2
 2318              	 .global XMC_SCU_CLOCK_SetPeripheralClockDivider
 2319              	 .thumb
 2320              	 .thumb_func
 2322              	XMC_SCU_CLOCK_SetPeripheralClockDivider:
 2323              	.LFB220:
 989:../Libraries/XMCLib/src/xmc4_scu.c **** }
 990:../Libraries/XMCLib/src/xmc4_scu.c **** 
 991:../Libraries/XMCLib/src/xmc4_scu.c **** /* API to program the divider placed between fperiph and its parent */
 992:../Libraries/XMCLib/src/xmc4_scu.c **** void XMC_SCU_CLOCK_SetPeripheralClockDivider(const uint32_t divider)
 993:../Libraries/XMCLib/src/xmc4_scu.c **** {
 2324              	 .loc 1 993 0
 2325              	 .cfi_startproc
 2326              	 
 2327              	 
 2328              	 
 2329              	.LVL189:
 994:../Libraries/XMCLib/src/xmc4_scu.c ****   XMC_ASSERT("XMC_SCU_CLOCK_SetPeripheralClockDivider:Wrong clock divider value", (divider <= 2UL) 
 995:../Libraries/XMCLib/src/xmc4_scu.c **** 
 996:../Libraries/XMCLib/src/xmc4_scu.c ****   SCU_CLK->PBCLKCR = (SCU_CLK->PBCLKCR & ((uint32_t)~SCU_CLK_PBCLKCR_PBDIV_Msk)) |
 2330              	 .loc 1 996 0
 2331 0000 034A     	 ldr r2,.L237
 2332 0002 5369     	 ldr r3,[r2,#20]
 997:../Libraries/XMCLib/src/xmc4_scu.c ****                      ((uint32_t)((uint32_t)(divider - 1UL) << SCU_CLK_PBCLKCR_PBDIV_Pos));
 2333              	 .loc 1 997 0
 2334 0004 0138     	 subs r0,r0,#1
 2335              	.LVL190:
 996:../Libraries/XMCLib/src/xmc4_scu.c ****                      ((uint32_t)((uint32_t)(divider - 1UL) << SCU_CLK_PBCLKCR_PBDIV_Pos));
 2336              	 .loc 1 996 0
 2337 0006 23F00103 	 bic r3,r3,#1
 2338 000a 0343     	 orrs r3,r3,r0
 2339 000c 5361     	 str r3,[r2,#20]
 2340 000e 7047     	 bx lr
 2341              	.L238:
 2342              	 .align 2
 2343              	.L237:
 2344 0010 00460050 	 .word 1342195200
 2345              	 .cfi_endproc
 2346              	.LFE220:
 2348              	 .section .text.XMC_SCU_CLOCK_SetUsbClockDivider,"ax",%progbits
 2349              	 .align 2
 2350              	 .global XMC_SCU_CLOCK_SetUsbClockDivider
 2351              	 .thumb
 2352              	 .thumb_func
 2354              	XMC_SCU_CLOCK_SetUsbClockDivider:
 2355              	.LFB221:
 998:../Libraries/XMCLib/src/xmc4_scu.c **** }
 999:../Libraries/XMCLib/src/xmc4_scu.c **** 
1000:../Libraries/XMCLib/src/xmc4_scu.c **** /* API to program the divider placed between fsdmmc and its parent */
1001:../Libraries/XMCLib/src/xmc4_scu.c **** void XMC_SCU_CLOCK_SetUsbClockDivider(const uint32_t divider)
1002:../Libraries/XMCLib/src/xmc4_scu.c **** {
 2356              	 .loc 1 1002 0
 2357              	 .cfi_startproc
 2358              	 
 2359              	 
 2360              	 
 2361              	.LVL191:
1003:../Libraries/XMCLib/src/xmc4_scu.c ****   XMC_ASSERT("XMC_SCU_CLOCK_SetSdmmcClockDivider:Wrong clock divider value",
1004:../Libraries/XMCLib/src/xmc4_scu.c ****               (divider <= (SCU_CLK_USBCLKCR_USBDIV_Msk + 1UL)) );
1005:../Libraries/XMCLib/src/xmc4_scu.c **** 
1006:../Libraries/XMCLib/src/xmc4_scu.c ****   SCU_CLK->USBCLKCR = (SCU_CLK->USBCLKCR & ((uint32_t)~SCU_CLK_USBCLKCR_USBDIV_Msk)) |
 2362              	 .loc 1 1006 0
 2363 0000 034A     	 ldr r2,.L240
 2364 0002 9369     	 ldr r3,[r2,#24]
1007:../Libraries/XMCLib/src/xmc4_scu.c ****                       (uint32_t)((uint32_t)(divider - 1UL) << SCU_CLK_USBCLKCR_USBDIV_Pos); 
 2365              	 .loc 1 1007 0
 2366 0004 0138     	 subs r0,r0,#1
 2367              	.LVL192:
1006:../Libraries/XMCLib/src/xmc4_scu.c ****                       (uint32_t)((uint32_t)(divider - 1UL) << SCU_CLK_USBCLKCR_USBDIV_Pos); 
 2368              	 .loc 1 1006 0
 2369 0006 23F00703 	 bic r3,r3,#7
 2370 000a 0343     	 orrs r3,r3,r0
 2371 000c 9361     	 str r3,[r2,#24]
 2372 000e 7047     	 bx lr
 2373              	.L241:
 2374              	 .align 2
 2375              	.L240:
 2376 0010 00460050 	 .word 1342195200
 2377              	 .cfi_endproc
 2378              	.LFE221:
 2380              	 .section .text.XMC_SCU_CLOCK_SetEbuClockDivider,"ax",%progbits
 2381              	 .align 2
 2382              	 .global XMC_SCU_CLOCK_SetEbuClockDivider
 2383              	 .thumb
 2384              	 .thumb_func
 2386              	XMC_SCU_CLOCK_SetEbuClockDivider:
 2387              	.LFB222:
1008:../Libraries/XMCLib/src/xmc4_scu.c **** }
1009:../Libraries/XMCLib/src/xmc4_scu.c **** 
1010:../Libraries/XMCLib/src/xmc4_scu.c **** #if defined(EBU)
1011:../Libraries/XMCLib/src/xmc4_scu.c **** /* API to program the divider placed between febu and its parent */
1012:../Libraries/XMCLib/src/xmc4_scu.c **** void XMC_SCU_CLOCK_SetEbuClockDivider(const uint32_t divider)
1013:../Libraries/XMCLib/src/xmc4_scu.c **** {
 2388              	 .loc 1 1013 0
 2389              	 .cfi_startproc
 2390              	 
 2391              	 
 2392              	 
 2393              	.LVL193:
1014:../Libraries/XMCLib/src/xmc4_scu.c ****   XMC_ASSERT("XMC_SCU_CLOCK_SetEbuClockDivider:Wrong clock divider value",
1015:../Libraries/XMCLib/src/xmc4_scu.c ****               (divider <= (SCU_CLK_EBUCLKCR_EBUDIV_Msk + 1UL) ) );
1016:../Libraries/XMCLib/src/xmc4_scu.c **** 
1017:../Libraries/XMCLib/src/xmc4_scu.c ****   SCU_CLK->EBUCLKCR = (SCU_CLK->EBUCLKCR & ((uint32_t)~SCU_CLK_EBUCLKCR_EBUDIV_Msk)) |
 2394              	 .loc 1 1017 0
 2395 0000 034A     	 ldr r2,.L243
 2396 0002 D369     	 ldr r3,[r2,#28]
1018:../Libraries/XMCLib/src/xmc4_scu.c ****                       (uint32_t)(((uint32_t)(divider - 1UL)) << SCU_CLK_EBUCLKCR_EBUDIV_Pos);
 2397              	 .loc 1 1018 0
 2398 0004 0138     	 subs r0,r0,#1
 2399              	.LVL194:
1017:../Libraries/XMCLib/src/xmc4_scu.c ****                       (uint32_t)(((uint32_t)(divider - 1UL)) << SCU_CLK_EBUCLKCR_EBUDIV_Pos);
 2400              	 .loc 1 1017 0
 2401 0006 23F03F03 	 bic r3,r3,#63
 2402 000a 0343     	 orrs r3,r3,r0
 2403 000c D361     	 str r3,[r2,#28]
 2404 000e 7047     	 bx lr
 2405              	.L244:
 2406              	 .align 2
 2407              	.L243:
 2408 0010 00460050 	 .word 1342195200
 2409              	 .cfi_endproc
 2410              	.LFE222:
 2412              	 .section .text.XMC_SCU_CLOCK_SetWdtClockDivider,"ax",%progbits
 2413              	 .align 2
 2414              	 .global XMC_SCU_CLOCK_SetWdtClockDivider
 2415              	 .thumb
 2416              	 .thumb_func
 2418              	XMC_SCU_CLOCK_SetWdtClockDivider:
 2419              	.LFB223:
1019:../Libraries/XMCLib/src/xmc4_scu.c **** }
1020:../Libraries/XMCLib/src/xmc4_scu.c **** #endif
1021:../Libraries/XMCLib/src/xmc4_scu.c **** 
1022:../Libraries/XMCLib/src/xmc4_scu.c **** /* API to program the divider placed between fwdt and its parent */
1023:../Libraries/XMCLib/src/xmc4_scu.c **** void XMC_SCU_CLOCK_SetWdtClockDivider(const uint32_t divider)
1024:../Libraries/XMCLib/src/xmc4_scu.c **** {
 2420              	 .loc 1 1024 0
 2421              	 .cfi_startproc
 2422              	 
 2423              	 
 2424              	 
 2425              	.LVL195:
1025:../Libraries/XMCLib/src/xmc4_scu.c ****   XMC_ASSERT("XMC_SCU_CLOCK_SetWdtClockDivider:Wrong clock divider value",
1026:../Libraries/XMCLib/src/xmc4_scu.c ****               (divider <= (SCU_CLK_WDTCLKCR_WDTDIV_Msk + 1UL) ) );
1027:../Libraries/XMCLib/src/xmc4_scu.c **** 
1028:../Libraries/XMCLib/src/xmc4_scu.c ****   SCU_CLK->WDTCLKCR = (SCU_CLK->WDTCLKCR & ((uint32_t)~SCU_CLK_WDTCLKCR_WDTDIV_Msk)) |
 2426              	 .loc 1 1028 0
 2427 0000 034A     	 ldr r2,.L246
 2428 0002 536A     	 ldr r3,[r2,#36]
1029:../Libraries/XMCLib/src/xmc4_scu.c ****                       (uint32_t)(((uint32_t)(divider - 1UL)) << SCU_CLK_WDTCLKCR_WDTDIV_Pos);
 2429              	 .loc 1 1029 0
 2430 0004 0138     	 subs r0,r0,#1
 2431              	.LVL196:
1028:../Libraries/XMCLib/src/xmc4_scu.c ****                       (uint32_t)(((uint32_t)(divider - 1UL)) << SCU_CLK_WDTCLKCR_WDTDIV_Pos);
 2432              	 .loc 1 1028 0
 2433 0006 23F0FF03 	 bic r3,r3,#255
 2434 000a 0343     	 orrs r3,r3,r0
 2435 000c 5362     	 str r3,[r2,#36]
 2436 000e 7047     	 bx lr
 2437              	.L247:
 2438              	 .align 2
 2439              	.L246:
 2440 0010 00460050 	 .word 1342195200
 2441              	 .cfi_endproc
 2442              	.LFE223:
 2444              	 .section .text.XMC_SCU_CLOCK_SetExternalOutputClockDivider,"ax",%progbits
 2445              	 .align 2
 2446              	 .global XMC_SCU_CLOCK_SetExternalOutputClockDivider
 2447              	 .thumb
 2448              	 .thumb_func
 2450              	XMC_SCU_CLOCK_SetExternalOutputClockDivider:
 2451              	.LFB224:
1030:../Libraries/XMCLib/src/xmc4_scu.c **** }
1031:../Libraries/XMCLib/src/xmc4_scu.c **** 
1032:../Libraries/XMCLib/src/xmc4_scu.c **** /* API to program the divider placed between fext and its parent */
1033:../Libraries/XMCLib/src/xmc4_scu.c **** void XMC_SCU_CLOCK_SetExternalOutputClockDivider(const uint32_t divider)
1034:../Libraries/XMCLib/src/xmc4_scu.c **** {
 2452              	 .loc 1 1034 0
 2453              	 .cfi_startproc
 2454              	 
 2455              	 
 2456              	 
 2457              	.LVL197:
1035:../Libraries/XMCLib/src/xmc4_scu.c ****   XMC_ASSERT("XMC_SCU_CLOCK_SetExternalOutputClockDivider:Wrong clock divider value",
1036:../Libraries/XMCLib/src/xmc4_scu.c ****               (divider <= (SCU_CLK_EXTCLKCR_ECKDIV_Msk + 1UL) ) );
1037:../Libraries/XMCLib/src/xmc4_scu.c **** 
1038:../Libraries/XMCLib/src/xmc4_scu.c ****   SCU_CLK->EXTCLKCR = (SCU_CLK->EXTCLKCR & ((uint32_t)~SCU_CLK_EXTCLKCR_ECKDIV_Msk)) |
 2458              	 .loc 1 1038 0
 2459 0000 054A     	 ldr r2,.L249
 2460 0002 936A     	 ldr r3,[r2,#40]
 2461 0004 23F0FF73 	 bic r3,r3,#33423360
1039:../Libraries/XMCLib/src/xmc4_scu.c ****                       (uint32_t)(((uint32_t)(divider - 1UL)) << SCU_CLK_EXTCLKCR_ECKDIV_Pos);
 2462              	 .loc 1 1039 0
 2463 0008 0138     	 subs r0,r0,#1
 2464              	.LVL198:
1038:../Libraries/XMCLib/src/xmc4_scu.c ****                       (uint32_t)(((uint32_t)(divider - 1UL)) << SCU_CLK_EXTCLKCR_ECKDIV_Pos);
 2465              	 .loc 1 1038 0
 2466 000a 23F48033 	 bic r3,r3,#65536
 2467 000e 43EA0043 	 orr r3,r3,r0,lsl#16
 2468 0012 9362     	 str r3,[r2,#40]
 2469 0014 7047     	 bx lr
 2470              	.L250:
 2471 0016 00BF     	 .align 2
 2472              	.L249:
 2473 0018 00460050 	 .word 1342195200
 2474              	 .cfi_endproc
 2475              	.LFE224:
 2477              	 .section .text.XMC_SCU_CLOCK_EnableClock,"ax",%progbits
 2478              	 .align 2
 2479              	 .global XMC_SCU_CLOCK_EnableClock
 2480              	 .thumb
 2481              	 .thumb_func
 2483              	XMC_SCU_CLOCK_EnableClock:
 2484              	.LFB225:
1040:../Libraries/XMCLib/src/xmc4_scu.c **** }
1041:../Libraries/XMCLib/src/xmc4_scu.c **** 
1042:../Libraries/XMCLib/src/xmc4_scu.c **** #if defined(ECAT0)
1043:../Libraries/XMCLib/src/xmc4_scu.c **** /* API to configure the ECAT clock by setting the clock divider for the ECAT clock source */
1044:../Libraries/XMCLib/src/xmc4_scu.c **** void XMC_SCU_CLOCK_SetECATClockDivider(const uint32_t divider)
1045:../Libraries/XMCLib/src/xmc4_scu.c **** {
1046:../Libraries/XMCLib/src/xmc4_scu.c ****   SCU_CLK->ECATCLKCR = (SCU_CLK->ECATCLKCR & ~SCU_CLK_ECATCLKCR_ECADIV_Msk) |
1047:../Libraries/XMCLib/src/xmc4_scu.c ****                        (uint32_t)(((uint32_t)(divider - 1UL)) << SCU_CLK_ECATCLKCR_ECADIV_Pos);
1048:../Libraries/XMCLib/src/xmc4_scu.c **** }
1049:../Libraries/XMCLib/src/xmc4_scu.c **** #endif
1050:../Libraries/XMCLib/src/xmc4_scu.c **** 
1051:../Libraries/XMCLib/src/xmc4_scu.c **** /* API to enable a given module clock */
1052:../Libraries/XMCLib/src/xmc4_scu.c **** void XMC_SCU_CLOCK_EnableClock(const XMC_SCU_CLOCK_t clock)
1053:../Libraries/XMCLib/src/xmc4_scu.c **** {
 2485              	 .loc 1 1053 0
 2486              	 .cfi_startproc
 2487              	 
 2488              	 
 2489              	 
 2490              	.LVL199:
1054:../Libraries/XMCLib/src/xmc4_scu.c ****   SCU_CLK->CLKSET = ((uint32_t)clock);
 2491              	 .loc 1 1054 0
 2492 0000 014B     	 ldr r3,.L252
 2493 0002 5860     	 str r0,[r3,#4]
 2494 0004 7047     	 bx lr
 2495              	.L253:
 2496 0006 00BF     	 .align 2
 2497              	.L252:
 2498 0008 00460050 	 .word 1342195200
 2499              	 .cfi_endproc
 2500              	.LFE225:
 2502              	 .section .text.XMC_SCU_CLOCK_DisableClock,"ax",%progbits
 2503              	 .align 2
 2504              	 .global XMC_SCU_CLOCK_DisableClock
 2505              	 .thumb
 2506              	 .thumb_func
 2508              	XMC_SCU_CLOCK_DisableClock:
 2509              	.LFB226:
1055:../Libraries/XMCLib/src/xmc4_scu.c **** }
1056:../Libraries/XMCLib/src/xmc4_scu.c **** 
1057:../Libraries/XMCLib/src/xmc4_scu.c **** /* API to disable a given module clock */
1058:../Libraries/XMCLib/src/xmc4_scu.c **** void XMC_SCU_CLOCK_DisableClock(const XMC_SCU_CLOCK_t clock)
1059:../Libraries/XMCLib/src/xmc4_scu.c **** {
 2510              	 .loc 1 1059 0
 2511              	 .cfi_startproc
 2512              	 
 2513              	 
 2514              	 
 2515              	.LVL200:
1060:../Libraries/XMCLib/src/xmc4_scu.c ****   SCU_CLK->CLKCLR = ((uint32_t)clock);
 2516              	 .loc 1 1060 0
 2517 0000 014B     	 ldr r3,.L255
 2518 0002 9860     	 str r0,[r3,#8]
 2519 0004 7047     	 bx lr
 2520              	.L256:
 2521 0006 00BF     	 .align 2
 2522              	.L255:
 2523 0008 00460050 	 .word 1342195200
 2524              	 .cfi_endproc
 2525              	.LFE226:
 2527              	 .section .text.XMC_SCU_CLOCK_IsClockEnabled,"ax",%progbits
 2528              	 .align 2
 2529              	 .global XMC_SCU_CLOCK_IsClockEnabled
 2530              	 .thumb
 2531              	 .thumb_func
 2533              	XMC_SCU_CLOCK_IsClockEnabled:
 2534              	.LFB227:
1061:../Libraries/XMCLib/src/xmc4_scu.c **** }
1062:../Libraries/XMCLib/src/xmc4_scu.c **** 
1063:../Libraries/XMCLib/src/xmc4_scu.c **** /* API to determine if module clock of the given peripheral is enabled */
1064:../Libraries/XMCLib/src/xmc4_scu.c **** bool XMC_SCU_CLOCK_IsClockEnabled(const XMC_SCU_CLOCK_t clock)
1065:../Libraries/XMCLib/src/xmc4_scu.c **** {
 2535              	 .loc 1 1065 0
 2536              	 .cfi_startproc
 2537              	 
 2538              	 
 2539              	 
 2540              	.LVL201:
1066:../Libraries/XMCLib/src/xmc4_scu.c ****   return (bool)(SCU_CLK->CLKSTAT & ((uint32_t)clock));
 2541              	 .loc 1 1066 0
 2542 0000 034B     	 ldr r3,.L258
 2543 0002 1B68     	 ldr r3,[r3]
 2544 0004 1842     	 tst r0,r3
1067:../Libraries/XMCLib/src/xmc4_scu.c **** }
 2545              	 .loc 1 1067 0
 2546 0006 14BF     	 ite ne
 2547 0008 0120     	 movne r0,#1
 2548              	.LVL202:
 2549 000a 0020     	 moveq r0,#0
 2550 000c 7047     	 bx lr
 2551              	.L259:
 2552 000e 00BF     	 .align 2
 2553              	.L258:
 2554 0010 00460050 	 .word 1342195200
 2555              	 .cfi_endproc
 2556              	.LFE227:
 2558              	 .section .text.XMC_SCU_CLOCK_GatePeripheralClock,"ax",%progbits
 2559              	 .align 2
 2560              	 .global XMC_SCU_CLOCK_GatePeripheralClock
 2561              	 .thumb
 2562              	 .thumb_func
 2564              	XMC_SCU_CLOCK_GatePeripheralClock:
 2565              	.LFB228:
1068:../Libraries/XMCLib/src/xmc4_scu.c **** 
1069:../Libraries/XMCLib/src/xmc4_scu.c **** #if defined(CLOCK_GATING_SUPPORTED)
1070:../Libraries/XMCLib/src/xmc4_scu.c **** /* API to gate a given module clock */
1071:../Libraries/XMCLib/src/xmc4_scu.c **** void XMC_SCU_CLOCK_GatePeripheralClock(const XMC_SCU_PERIPHERAL_CLOCK_t peripheral)
1072:../Libraries/XMCLib/src/xmc4_scu.c **** {
 2566              	 .loc 1 1072 0
 2567              	 .cfi_startproc
 2568              	 
 2569              	 
 2570              	 
 2571              	.LVL203:
1073:../Libraries/XMCLib/src/xmc4_scu.c ****   uint32_t index = (peripheral & 0xf0000000UL) >> 28UL;
 2572              	 .loc 1 1073 0
 2573 0000 030F     	 lsrs r3,r0,#28
 2574              	.LVL204:
1074:../Libraries/XMCLib/src/xmc4_scu.c ****   uint32_t mask = (peripheral & (uint32_t)~0xf0000000UL);
1075:../Libraries/XMCLib/src/xmc4_scu.c **** 
1076:../Libraries/XMCLib/src/xmc4_scu.c ****   *(uint32_t *)((&(SCU_CLK->CGATSET0)) + (index * 3U)) = (uint32_t)mask;
 2575              	 .loc 1 1076 0
 2576 0002 03EB4303 	 add r3,r3,r3,lsl#1
 2577              	.LVL205:
 2578 0006 034A     	 ldr r2,.L261
1074:../Libraries/XMCLib/src/xmc4_scu.c ****   uint32_t mask = (peripheral & (uint32_t)~0xf0000000UL);
 2579              	 .loc 1 1074 0
 2580 0008 20F07040 	 bic r0,r0,#-268435456
 2581              	.LVL206:
 2582              	 .loc 1 1076 0
 2583 000c 42F82300 	 str r0,[r2,r3,lsl#2]
 2584 0010 7047     	 bx lr
 2585              	.L262:
 2586 0012 00BF     	 .align 2
 2587              	.L261:
 2588 0014 44460050 	 .word 1342195268
 2589              	 .cfi_endproc
 2590              	.LFE228:
 2592              	 .section .text.XMC_SCU_CLOCK_UngatePeripheralClock,"ax",%progbits
 2593              	 .align 2
 2594              	 .global XMC_SCU_CLOCK_UngatePeripheralClock
 2595              	 .thumb
 2596              	 .thumb_func
 2598              	XMC_SCU_CLOCK_UngatePeripheralClock:
 2599              	.LFB229:
1077:../Libraries/XMCLib/src/xmc4_scu.c **** }
1078:../Libraries/XMCLib/src/xmc4_scu.c **** 
1079:../Libraries/XMCLib/src/xmc4_scu.c **** /* API to ungate a given module clock */
1080:../Libraries/XMCLib/src/xmc4_scu.c **** void XMC_SCU_CLOCK_UngatePeripheralClock(const XMC_SCU_PERIPHERAL_CLOCK_t peripheral)
1081:../Libraries/XMCLib/src/xmc4_scu.c **** {
 2600              	 .loc 1 1081 0
 2601              	 .cfi_startproc
 2602              	 
 2603              	 
 2604              	 
 2605              	.LVL207:
1082:../Libraries/XMCLib/src/xmc4_scu.c ****   uint32_t index = (uint32_t)((peripheral & 0xf0000000UL) >> 28UL);
 2606              	 .loc 1 1082 0
 2607 0000 030F     	 lsrs r3,r0,#28
 2608              	.LVL208:
1083:../Libraries/XMCLib/src/xmc4_scu.c ****   uint32_t mask = (peripheral & (uint32_t)~0xf0000000UL);
1084:../Libraries/XMCLib/src/xmc4_scu.c **** 
1085:../Libraries/XMCLib/src/xmc4_scu.c ****   *(uint32_t *)(&(SCU_CLK->CGATCLR0) + (index * 3U)) = (uint32_t)mask;
 2609              	 .loc 1 1085 0
 2610 0002 03EB4303 	 add r3,r3,r3,lsl#1
 2611              	.LVL209:
 2612 0006 034A     	 ldr r2,.L264
1083:../Libraries/XMCLib/src/xmc4_scu.c ****   uint32_t mask = (peripheral & (uint32_t)~0xf0000000UL);
 2613              	 .loc 1 1083 0
 2614 0008 20F07040 	 bic r0,r0,#-268435456
 2615              	.LVL210:
 2616              	 .loc 1 1085 0
 2617 000c 42F82300 	 str r0,[r2,r3,lsl#2]
 2618 0010 7047     	 bx lr
 2619              	.L265:
 2620 0012 00BF     	 .align 2
 2621              	.L264:
 2622 0014 48460050 	 .word 1342195272
 2623              	 .cfi_endproc
 2624              	.LFE229:
 2626              	 .section .text.XMC_SCU_CLOCK_IsPeripheralClockGated,"ax",%progbits
 2627              	 .align 2
 2628              	 .global XMC_SCU_CLOCK_IsPeripheralClockGated
 2629              	 .thumb
 2630              	 .thumb_func
 2632              	XMC_SCU_CLOCK_IsPeripheralClockGated:
 2633              	.LFB230:
1086:../Libraries/XMCLib/src/xmc4_scu.c **** }
1087:../Libraries/XMCLib/src/xmc4_scu.c **** 
1088:../Libraries/XMCLib/src/xmc4_scu.c **** /* API to ungate a given module clock */
1089:../Libraries/XMCLib/src/xmc4_scu.c **** bool XMC_SCU_CLOCK_IsPeripheralClockGated(const XMC_SCU_PERIPHERAL_CLOCK_t peripheral)
1090:../Libraries/XMCLib/src/xmc4_scu.c **** {
 2634              	 .loc 1 1090 0
 2635              	 .cfi_startproc
 2636              	 
 2637              	 
 2638              	 
 2639              	.LVL211:
1091:../Libraries/XMCLib/src/xmc4_scu.c ****   uint32_t index = ((peripheral & 0xf0000000UL) >> 28UL);
 2640              	 .loc 1 1091 0
 2641 0000 030F     	 lsrs r3,r0,#28
 2642              	.LVL212:
1092:../Libraries/XMCLib/src/xmc4_scu.c ****   uint32_t mask = (peripheral & (uint32_t)~0xf0000000UL);
1093:../Libraries/XMCLib/src/xmc4_scu.c **** 
1094:../Libraries/XMCLib/src/xmc4_scu.c ****   return ((*(uint32_t *)(&(SCU_CLK->CGATSTAT0) + (index * 3U)) & mask) != 0U);
 2643              	 .loc 1 1094 0
 2644 0002 064A     	 ldr r2,.L267
 2645 0004 03EB4303 	 add r3,r3,r3,lsl#1
 2646              	.LVL213:
1092:../Libraries/XMCLib/src/xmc4_scu.c ****   uint32_t mask = (peripheral & (uint32_t)~0xf0000000UL);
 2647              	 .loc 1 1092 0
 2648 0008 20F07040 	 bic r0,r0,#-268435456
 2649              	.LVL214:
 2650              	 .loc 1 1094 0
 2651 000c 52F82330 	 ldr r3,[r2,r3,lsl#2]
 2652 0010 1842     	 tst r0,r3
1095:../Libraries/XMCLib/src/xmc4_scu.c **** }
 2653              	 .loc 1 1095 0
 2654 0012 14BF     	 ite ne
 2655 0014 0120     	 movne r0,#1
 2656              	.LVL215:
 2657 0016 0020     	 moveq r0,#0
 2658 0018 7047     	 bx lr
 2659              	.L268:
 2660 001a 00BF     	 .align 2
 2661              	.L267:
 2662 001c 40460050 	 .word 1342195264
 2663              	 .cfi_endproc
 2664              	.LFE230:
 2666              	 .section .text.XMC_SCU_POWER_GetEVR13Voltage,"ax",%progbits
 2667              	 .align 2
 2668              	 .global XMC_SCU_POWER_GetEVR13Voltage
 2669              	 .thumb
 2670              	 .thumb_func
 2672              	XMC_SCU_POWER_GetEVR13Voltage:
 2673              	.LFB231:
1096:../Libraries/XMCLib/src/xmc4_scu.c **** #endif
1097:../Libraries/XMCLib/src/xmc4_scu.c **** 
1098:../Libraries/XMCLib/src/xmc4_scu.c **** float XMC_SCU_POWER_GetEVR13Voltage(void)
1099:../Libraries/XMCLib/src/xmc4_scu.c **** {
 2674              	 .loc 1 1099 0
 2675              	 .cfi_startproc
 2676              	 
 2677              	 
 2678              	 
1100:../Libraries/XMCLib/src/xmc4_scu.c ****   return (SCU_POWER->EVRVADCSTAT & SCU_POWER_EVRVADCSTAT_VADC13V_Msk) * XMC_SCU_POWER_LSB13V;
 2679              	 .loc 1 1100 0
 2680 0000 064B     	 ldr r3,.L270
 2681 0002 9FED077A 	 flds s14,.L270+4
 2682 0006 5B69     	 ldr r3,[r3,#20]
 2683 0008 DBB2     	 uxtb r3,r3
 2684 000a 07EE903A 	 fmsr s15,r3
 2685 000e F8EEE77A 	 fsitos s15,s15
1101:../Libraries/XMCLib/src/xmc4_scu.c **** }
 2686              	 .loc 1 1101 0
 2687 0012 67EE877A 	 fmuls s15,s15,s14
 2688 0016 17EE900A 	 fmrs r0,s15
 2689 001a 7047     	 bx lr
 2690              	.L271:
 2691              	 .align 2
 2692              	.L270:
 2693 001c 00420050 	 .word 1342194176
 2694 0020 ED0DBE3B 	 .word 1002311149
 2695              	 .cfi_endproc
 2696              	.LFE231:
 2698              	 .section .text.XMC_SCU_POWER_GetEVR33Voltage,"ax",%progbits
 2699              	 .align 2
 2700              	 .global XMC_SCU_POWER_GetEVR33Voltage
 2701              	 .thumb
 2702              	 .thumb_func
 2704              	XMC_SCU_POWER_GetEVR33Voltage:
 2705              	.LFB232:
1102:../Libraries/XMCLib/src/xmc4_scu.c **** 
1103:../Libraries/XMCLib/src/xmc4_scu.c **** float XMC_SCU_POWER_GetEVR33Voltage(void)
1104:../Libraries/XMCLib/src/xmc4_scu.c **** {
 2706              	 .loc 1 1104 0
 2707              	 .cfi_startproc
 2708              	 
 2709              	 
 2710              	 
1105:../Libraries/XMCLib/src/xmc4_scu.c ****   return ((SCU_POWER->EVRVADCSTAT & SCU_POWER_EVRVADCSTAT_VADC33V_Msk) >> SCU_POWER_EVRVADCSTAT_VAD
 2711              	 .loc 1 1105 0
 2712 0000 074B     	 ldr r3,.L273
 2713 0002 9FED087A 	 flds s14,.L273+4
 2714 0006 5B69     	 ldr r3,[r3,#20]
 2715 0008 C3F30723 	 ubfx r3,r3,#8,#8
 2716 000c 07EE903A 	 fmsr s15,r3
 2717 0010 F8EEE77A 	 fsitos s15,s15
1106:../Libraries/XMCLib/src/xmc4_scu.c **** }
 2718              	 .loc 1 1106 0
 2719 0014 67EE877A 	 fmuls s15,s15,s14
 2720 0018 17EE900A 	 fmrs r0,s15
 2721 001c 7047     	 bx lr
 2722              	.L274:
 2723 001e 00BF     	 .align 2
 2724              	.L273:
 2725 0020 00420050 	 .word 1342194176
 2726 0024 EC51B83C 	 .word 1018712556
 2727              	 .cfi_endproc
 2728              	.LFE232:
 2730              	 .section .text.XMC_SCU_CLOCK_EnableUsbPll,"ax",%progbits
 2731              	 .align 2
 2732              	 .global XMC_SCU_CLOCK_EnableUsbPll
 2733              	 .thumb
 2734              	 .thumb_func
 2736              	XMC_SCU_CLOCK_EnableUsbPll:
 2737              	.LFB233:
1107:../Libraries/XMCLib/src/xmc4_scu.c **** 
1108:../Libraries/XMCLib/src/xmc4_scu.c **** /* API to enable USB PLL for USB clock */
1109:../Libraries/XMCLib/src/xmc4_scu.c **** void XMC_SCU_CLOCK_EnableUsbPll(void)
1110:../Libraries/XMCLib/src/xmc4_scu.c **** {
 2738              	 .loc 1 1110 0
 2739              	 .cfi_startproc
 2740              	 
 2741              	 
 2742              	 
1111:../Libraries/XMCLib/src/xmc4_scu.c ****   SCU_PLL->USBPLLCON &= (uint32_t)~(SCU_PLL_USBPLLCON_VCOPWD_Msk | SCU_PLL_USBPLLCON_PLLPWD_Msk);
 2743              	 .loc 1 1111 0
 2744 0000 034A     	 ldr r2,.L276
 2745 0002 5369     	 ldr r3,[r2,#20]
 2746 0004 23F48033 	 bic r3,r3,#65536
 2747 0008 23F00203 	 bic r3,r3,#2
 2748 000c 5361     	 str r3,[r2,#20]
 2749 000e 7047     	 bx lr
 2750              	.L277:
 2751              	 .align 2
 2752              	.L276:
 2753 0010 10470050 	 .word 1342195472
 2754              	 .cfi_endproc
 2755              	.LFE233:
 2757              	 .section .text.XMC_SCU_CLOCK_DisableUsbPll,"ax",%progbits
 2758              	 .align 2
 2759              	 .global XMC_SCU_CLOCK_DisableUsbPll
 2760              	 .thumb
 2761              	 .thumb_func
 2763              	XMC_SCU_CLOCK_DisableUsbPll:
 2764              	.LFB234:
1112:../Libraries/XMCLib/src/xmc4_scu.c **** }
1113:../Libraries/XMCLib/src/xmc4_scu.c **** 
1114:../Libraries/XMCLib/src/xmc4_scu.c **** /* API to disable USB PLL for USB clock */
1115:../Libraries/XMCLib/src/xmc4_scu.c **** void XMC_SCU_CLOCK_DisableUsbPll(void)
1116:../Libraries/XMCLib/src/xmc4_scu.c **** {
 2765              	 .loc 1 1116 0
 2766              	 .cfi_startproc
 2767              	 
 2768              	 
 2769              	 
1117:../Libraries/XMCLib/src/xmc4_scu.c ****   SCU_PLL->USBPLLCON |= (uint32_t)(SCU_PLL_USBPLLCON_VCOPWD_Msk | SCU_PLL_USBPLLCON_PLLPWD_Msk);
 2770              	 .loc 1 1117 0
 2771 0000 034A     	 ldr r2,.L279
 2772 0002 5369     	 ldr r3,[r2,#20]
 2773 0004 43F48033 	 orr r3,r3,#65536
 2774 0008 43F00203 	 orr r3,r3,#2
 2775 000c 5361     	 str r3,[r2,#20]
 2776 000e 7047     	 bx lr
 2777              	.L280:
 2778              	 .align 2
 2779              	.L279:
 2780 0010 10470050 	 .word 1342195472
 2781              	 .cfi_endproc
 2782              	.LFE234:
 2784              	 .section .text.XMC_SCU_CLOCK_StartUsbPll,"ax",%progbits
 2785              	 .align 2
 2786              	 .global XMC_SCU_CLOCK_StartUsbPll
 2787              	 .thumb
 2788              	 .thumb_func
 2790              	XMC_SCU_CLOCK_StartUsbPll:
 2791              	.LFB235:
1118:../Libraries/XMCLib/src/xmc4_scu.c **** }
1119:../Libraries/XMCLib/src/xmc4_scu.c **** 
1120:../Libraries/XMCLib/src/xmc4_scu.c **** /* API to configure USB PLL */
1121:../Libraries/XMCLib/src/xmc4_scu.c **** void XMC_SCU_CLOCK_StartUsbPll(uint32_t pdiv, uint32_t ndiv)
1122:../Libraries/XMCLib/src/xmc4_scu.c **** {
 2792              	 .loc 1 1122 0
 2793              	 .cfi_startproc
 2794              	 
 2795              	 
 2796              	 
 2797              	.LVL216:
1123:../Libraries/XMCLib/src/xmc4_scu.c ****   /* Go to bypass the USB PLL */
1124:../Libraries/XMCLib/src/xmc4_scu.c ****   SCU_PLL->USBPLLCON |= (uint32_t)SCU_PLL_USBPLLCON_VCOBYP_Msk;
 2798              	 .loc 1 1124 0
 2799 0000 0F4B     	 ldr r3,.L285
 2800 0002 5A69     	 ldr r2,[r3,#20]
 2801 0004 42F00102 	 orr r2,r2,#1
 2802 0008 5A61     	 str r2,[r3,#20]
1125:../Libraries/XMCLib/src/xmc4_scu.c **** 
1126:../Libraries/XMCLib/src/xmc4_scu.c ****   /* disconnect Oscillator from USB PLL */
1127:../Libraries/XMCLib/src/xmc4_scu.c ****   SCU_PLL->USBPLLCON |= (uint32_t)SCU_PLL_USBPLLCON_FINDIS_Msk;
 2803              	 .loc 1 1127 0
 2804 000a 5A69     	 ldr r2,[r3,#20]
1128:../Libraries/XMCLib/src/xmc4_scu.c **** 
1129:../Libraries/XMCLib/src/xmc4_scu.c ****   /* Setup Divider settings for USB PLL */
1130:../Libraries/XMCLib/src/xmc4_scu.c ****   SCU_PLL->USBPLLCON = (uint32_t)((uint32_t)((ndiv -1U) << SCU_PLL_USBPLLCON_NDIV_Pos) |
1131:../Libraries/XMCLib/src/xmc4_scu.c ****                        (uint32_t)((pdiv - 1U) << SCU_PLL_USBPLLCON_PDIV_Pos));
 2805              	 .loc 1 1131 0
 2806 000c 0138     	 subs r0,r0,#1
 2807              	.LVL217:
 2808 000e 0006     	 lsls r0,r0,#24
 2809              	.LVL218:
1130:../Libraries/XMCLib/src/xmc4_scu.c ****                        (uint32_t)((pdiv - 1U) << SCU_PLL_USBPLLCON_PDIV_Pos));
 2810              	 .loc 1 1130 0
 2811 0010 0139     	 subs r1,r1,#1
 2812              	.LVL219:
1127:../Libraries/XMCLib/src/xmc4_scu.c **** 
 2813              	 .loc 1 1127 0
 2814 0012 42F01002 	 orr r2,r2,#16
1130:../Libraries/XMCLib/src/xmc4_scu.c ****                        (uint32_t)((pdiv - 1U) << SCU_PLL_USBPLLCON_PDIV_Pos));
 2815              	 .loc 1 1130 0
 2816 0016 40EA0120 	 orr r0,r0,r1,lsl#8
1127:../Libraries/XMCLib/src/xmc4_scu.c **** 
 2817              	 .loc 1 1127 0
 2818 001a 5A61     	 str r2,[r3,#20]
1130:../Libraries/XMCLib/src/xmc4_scu.c ****                        (uint32_t)((pdiv - 1U) << SCU_PLL_USBPLLCON_PDIV_Pos));
 2819              	 .loc 1 1130 0
 2820 001c 5861     	 str r0,[r3,#20]
1132:../Libraries/XMCLib/src/xmc4_scu.c **** 
1133:../Libraries/XMCLib/src/xmc4_scu.c ****   /* Set OSCDISCDIS */
1134:../Libraries/XMCLib/src/xmc4_scu.c ****   SCU_PLL->USBPLLCON |= (uint32_t)SCU_PLL_USBPLLCON_OSCDISCDIS_Msk;
 2821              	 .loc 1 1134 0
 2822 001e 5A69     	 ldr r2,[r3,#20]
 2823 0020 42F04002 	 orr r2,r2,#64
 2824 0024 5A61     	 str r2,[r3,#20]
1135:../Libraries/XMCLib/src/xmc4_scu.c **** 
1136:../Libraries/XMCLib/src/xmc4_scu.c ****   /* connect Oscillator to USB PLL */
1137:../Libraries/XMCLib/src/xmc4_scu.c ****   SCU_PLL->USBPLLCON &= (uint32_t)~SCU_PLL_USBPLLCON_FINDIS_Msk;
 2825              	 .loc 1 1137 0
 2826 0026 5A69     	 ldr r2,[r3,#20]
 2827 0028 22F01002 	 bic r2,r2,#16
 2828 002c 5A61     	 str r2,[r3,#20]
1138:../Libraries/XMCLib/src/xmc4_scu.c **** 
1139:../Libraries/XMCLib/src/xmc4_scu.c ****   /* restart PLL Lock detection */
1140:../Libraries/XMCLib/src/xmc4_scu.c ****   SCU_PLL->USBPLLCON |= (uint32_t)SCU_PLL_USBPLLCON_RESLD_Msk;
 2829              	 .loc 1 1140 0
 2830 002e 5A69     	 ldr r2,[r3,#20]
 2831 0030 42F48022 	 orr r2,r2,#262144
 2832 0034 5A61     	 str r2,[r3,#20]
 2833              	.L282:
1141:../Libraries/XMCLib/src/xmc4_scu.c **** 
1142:../Libraries/XMCLib/src/xmc4_scu.c ****   while ((SCU_PLL->USBPLLSTAT & SCU_PLL_USBPLLSTAT_VCOLOCK_Msk) == 0U)
 2834              	 .loc 1 1142 0 discriminator 1
 2835 0036 1A69     	 ldr r2,[r3,#16]
 2836 0038 5207     	 lsls r2,r2,#29
 2837 003a FCD5     	 bpl .L282
1143:../Libraries/XMCLib/src/xmc4_scu.c ****   {
1144:../Libraries/XMCLib/src/xmc4_scu.c ****     /* wait for PLL Lock */
1145:../Libraries/XMCLib/src/xmc4_scu.c ****   }
1146:../Libraries/XMCLib/src/xmc4_scu.c **** 
1147:../Libraries/XMCLib/src/xmc4_scu.c **** }
 2838              	 .loc 1 1147 0
 2839 003c 7047     	 bx lr
 2840              	.L286:
 2841 003e 00BF     	 .align 2
 2842              	.L285:
 2843 0040 10470050 	 .word 1342195472
 2844              	 .cfi_endproc
 2845              	.LFE235:
 2847              	 .section .text.XMC_SCU_CLOCK_StopUsbPll,"ax",%progbits
 2848              	 .align 2
 2849              	 .global XMC_SCU_CLOCK_StopUsbPll
 2850              	 .thumb
 2851              	 .thumb_func
 2853              	XMC_SCU_CLOCK_StopUsbPll:
 2854              	.LFB236:
1148:../Libraries/XMCLib/src/xmc4_scu.c **** 
1149:../Libraries/XMCLib/src/xmc4_scu.c **** /* API to disable USB PLL operation */
1150:../Libraries/XMCLib/src/xmc4_scu.c **** void XMC_SCU_CLOCK_StopUsbPll(void)
1151:../Libraries/XMCLib/src/xmc4_scu.c **** {
 2855              	 .loc 1 1151 0
 2856              	 .cfi_startproc
 2857              	 
 2858              	 
 2859              	 
1152:../Libraries/XMCLib/src/xmc4_scu.c ****   SCU_PLL->USBPLLCON = (uint32_t)(SCU_PLL_USBPLLCON_VCOPWD_Msk | SCU_PLL_USBPLLCON_PLLPWD_Msk |
 2860              	 .loc 1 1152 0
 2861 0000 014B     	 ldr r3,.L288
 2862 0002 024A     	 ldr r2,.L288+4
 2863 0004 5A61     	 str r2,[r3,#20]
 2864 0006 7047     	 bx lr
 2865              	.L289:
 2866              	 .align 2
 2867              	.L288:
 2868 0008 10470050 	 .word 1342195472
 2869 000c 03000100 	 .word 65539
 2870              	 .cfi_endproc
 2871              	.LFE236:
 2873              	 .section .text.XMC_SCU_CLOCK_SetBackupClockCalibrationMode,"ax",%progbits
 2874              	 .align 2
 2875              	 .global XMC_SCU_CLOCK_SetBackupClockCalibrationMode
 2876              	 .thumb
 2877              	 .thumb_func
 2879              	XMC_SCU_CLOCK_SetBackupClockCalibrationMode:
 2880              	.LFB237:
1153:../Libraries/XMCLib/src/xmc4_scu.c ****                                   SCU_PLL_USBPLLCON_VCOBYP_Msk);
1154:../Libraries/XMCLib/src/xmc4_scu.c **** }
1155:../Libraries/XMCLib/src/xmc4_scu.c **** 
1156:../Libraries/XMCLib/src/xmc4_scu.c **** /* API to onfigure the calibration mode for internal oscillator */
1157:../Libraries/XMCLib/src/xmc4_scu.c **** void XMC_SCU_CLOCK_SetBackupClockCalibrationMode(XMC_SCU_CLOCK_FOFI_CALIBRATION_MODE_t mode)
1158:../Libraries/XMCLib/src/xmc4_scu.c **** {
 2881              	 .loc 1 1158 0
 2882              	 .cfi_startproc
 2883              	 
 2884              	 
 2885              	.LVL220:
1159:../Libraries/XMCLib/src/xmc4_scu.c ****   /* Enable factory calibration based trimming */
1160:../Libraries/XMCLib/src/xmc4_scu.c ****   SCU_PLL->PLLCON0 |= (uint32_t)SCU_PLL_PLLCON0_FOTR_Msk;
 2886              	 .loc 1 1160 0
 2887 0000 1A4A     	 ldr r2,.L307
 2888 0002 5368     	 ldr r3,[r2,#4]
1161:../Libraries/XMCLib/src/xmc4_scu.c **** 
1162:../Libraries/XMCLib/src/xmc4_scu.c ****   if (mode == XMC_SCU_CLOCK_FOFI_CALIBRATION_MODE_AUTOMATIC)
 2889              	 .loc 1 1162 0
 2890 0004 0128     	 cmp r0,#1
1160:../Libraries/XMCLib/src/xmc4_scu.c **** 
 2891              	 .loc 1 1160 0
 2892 0006 43F48013 	 orr r3,r3,#1048576
1158:../Libraries/XMCLib/src/xmc4_scu.c ****   /* Enable factory calibration based trimming */
 2893              	 .loc 1 1158 0
 2894 000a 10B5     	 push {r4,lr}
 2895              	.LCFI6:
 2896              	 .cfi_def_cfa_offset 8
 2897              	 .cfi_offset 4,-8
 2898              	 .cfi_offset 14,-4
1160:../Libraries/XMCLib/src/xmc4_scu.c **** 
 2899              	 .loc 1 1160 0
 2900 000c 5360     	 str r3,[r2,#4]
 2901              	 .loc 1 1162 0
 2902 000e 11D0     	 beq .L305
 2903 0010 174C     	 ldr r4,.L307+4
 2904              	.LVL221:
 2905              	.L291:
 2906              	.LBB162:
 2907              	.LBB163:
 212:../Libraries/XMCLib/src/xmc4_scu.c ****   delay =  delay * (uint32_t)(SystemCoreClock / FREQ_1MHZ);
 2908              	 .loc 1 212 0
 2909 0012 FFF7FEFF 	 bl SystemCoreClockUpdate
 2910              	.LVL222:
 213:../Libraries/XMCLib/src/xmc4_scu.c **** 
 2911              	 .loc 1 213 0
 2912 0016 2368     	 ldr r3,[r4]
 2913 0018 164A     	 ldr r2,.L307+8
 2914 001a A2FB0332 	 umull r3,r2,r2,r3
 2915 001e 920C     	 lsrs r2,r2,#18
 2916 0020 6423     	 movs r3,#100
 2917 0022 03FB02F2 	 mul r2,r3,r2
 2918              	.LVL223:
 215:../Libraries/XMCLib/src/xmc4_scu.c ****   {
 2919              	 .loc 1 215 0
 2920 0026 22B1     	 cbz r2,.L290
 2921 0028 0023     	 movs r3,#0
 2922              	.LVL224:
 2923              	.L295:
 217:../Libraries/XMCLib/src/xmc4_scu.c ****   }
 2924              	 .loc 1 217 0
 2925              	
 2926 002a 00BF     	 nop
 2927              	
 215:../Libraries/XMCLib/src/xmc4_scu.c ****   {
 2928              	 .loc 1 215 0
 2929              	 .thumb
 2930 002c 0133     	 adds r3,r3,#1
 2931              	.LVL225:
 2932 002e 9342     	 cmp r3,r2
 2933 0030 FBD1     	 bne .L295
 2934              	.LVL226:
 2935              	.L290:
 2936 0032 10BD     	 pop {r4,pc}
 2937              	.LVL227:
 2938              	.L305:
 2939              	.LBE163:
 2940              	.LBE162:
1163:../Libraries/XMCLib/src/xmc4_scu.c ****   {
1164:../Libraries/XMCLib/src/xmc4_scu.c ****     /* Disable factory calibration based trimming */
1165:../Libraries/XMCLib/src/xmc4_scu.c ****     SCU_PLL->PLLCON0 &= (uint32_t)~SCU_PLL_PLLCON0_FOTR_Msk;
 2941              	 .loc 1 1165 0
 2942 0034 5368     	 ldr r3,[r2,#4]
 2943              	.LBB164:
 2944              	.LBB165:
 213:../Libraries/XMCLib/src/xmc4_scu.c **** 
 2945              	 .loc 1 213 0
 2946 0036 0E4C     	 ldr r4,.L307+4
 2947              	.LBE165:
 2948              	.LBE164:
 2949              	 .loc 1 1165 0
 2950 0038 23F48013 	 bic r3,r3,#1048576
 2951 003c 5360     	 str r3,[r2,#4]
 2952              	.LVL228:
 2953              	.LBB167:
 2954              	.LBB166:
 212:../Libraries/XMCLib/src/xmc4_scu.c ****   delay =  delay * (uint32_t)(SystemCoreClock / FREQ_1MHZ);
 2955              	 .loc 1 212 0
 2956 003e FFF7FEFF 	 bl SystemCoreClockUpdate
 2957              	.LVL229:
 213:../Libraries/XMCLib/src/xmc4_scu.c **** 
 2958              	 .loc 1 213 0
 2959 0042 2368     	 ldr r3,[r4]
 2960 0044 0B4A     	 ldr r2,.L307+8
 2961 0046 A2FB0332 	 umull r3,r2,r2,r3
 2962 004a 920C     	 lsrs r2,r2,#18
 2963 004c 6423     	 movs r3,#100
 2964 004e 03FB02F2 	 mul r2,r3,r2
 2965              	.LVL230:
 215:../Libraries/XMCLib/src/xmc4_scu.c ****   {
 2966              	 .loc 1 215 0
 2967 0052 22B1     	 cbz r2,.L292
 2968 0054 0023     	 movs r3,#0
 2969              	.LVL231:
 2970              	.L293:
 217:../Libraries/XMCLib/src/xmc4_scu.c ****   }
 2971              	 .loc 1 217 0
 2972              	
 2973 0056 00BF     	 nop
 2974              	
 215:../Libraries/XMCLib/src/xmc4_scu.c ****   {
 2975              	 .loc 1 215 0
 2976              	 .thumb
 2977 0058 0133     	 adds r3,r3,#1
 2978              	.LVL232:
 2979 005a 9342     	 cmp r3,r2
 2980 005c FBD1     	 bne .L293
 2981              	.LVL233:
 2982              	.L292:
 2983              	.LBE166:
 2984              	.LBE167:
1166:../Libraries/XMCLib/src/xmc4_scu.c ****     XMC_SCU_lDelay(100UL);
1167:../Libraries/XMCLib/src/xmc4_scu.c **** 
1168:../Libraries/XMCLib/src/xmc4_scu.c ****     /* Enable automatic calibration */
1169:../Libraries/XMCLib/src/xmc4_scu.c ****     SCU_PLL->PLLCON0 |= (uint32_t)SCU_PLL_PLLCON0_AOTREN_Msk;
 2985              	 .loc 1 1169 0
 2986 005e 034A     	 ldr r2,.L307
 2987              	.LVL234:
 2988 0060 5368     	 ldr r3,[r2,#4]
 2989 0062 43F40023 	 orr r3,r3,#524288
 2990 0066 5360     	 str r3,[r2,#4]
 2991              	.LVL235:
 2992 0068 D3E7     	 b .L291
 2993              	.L308:
 2994 006a 00BF     	 .align 2
 2995              	.L307:
 2996 006c 10470050 	 .word 1342195472
 2997 0070 00000000 	 .word SystemCoreClock
 2998 0074 83DE1B43 	 .word 1125899907
 2999              	 .cfi_endproc
 3000              	.LFE237:
 3002              	 .section .text.XMC_SCU_POWER_EnableUsb,"ax",%progbits
 3003              	 .align 2
 3004              	 .global XMC_SCU_POWER_EnableUsb
 3005              	 .thumb
 3006              	 .thumb_func
 3008              	XMC_SCU_POWER_EnableUsb:
 3009              	.LFB238:
1170:../Libraries/XMCLib/src/xmc4_scu.c ****   }
1171:../Libraries/XMCLib/src/xmc4_scu.c **** 
1172:../Libraries/XMCLib/src/xmc4_scu.c ****   XMC_SCU_lDelay(100UL);
1173:../Libraries/XMCLib/src/xmc4_scu.c **** }
1174:../Libraries/XMCLib/src/xmc4_scu.c **** 
1175:../Libraries/XMCLib/src/xmc4_scu.c **** 
1176:../Libraries/XMCLib/src/xmc4_scu.c **** 
1177:../Libraries/XMCLib/src/xmc4_scu.c **** /* API to enable USB Phy and comparator */
1178:../Libraries/XMCLib/src/xmc4_scu.c **** void XMC_SCU_POWER_EnableUsb(void)
1179:../Libraries/XMCLib/src/xmc4_scu.c **** {
 3010              	 .loc 1 1179 0
 3011              	 .cfi_startproc
 3012              	 
 3013              	 
 3014              	 
1180:../Libraries/XMCLib/src/xmc4_scu.c **** #if defined(USB_OTG_SUPPORTED)
1181:../Libraries/XMCLib/src/xmc4_scu.c ****   SCU_POWER->PWRSET = (uint32_t)(SCU_POWER_PWRSET_USBOTGEN_Msk | SCU_POWER_PWRSET_USBPHYPDQ_Msk);
 3015              	 .loc 1 1181 0
 3016 0000 024B     	 ldr r3,.L310
 3017 0002 4FF44032 	 mov r2,#196608
 3018 0006 5A60     	 str r2,[r3,#4]
 3019 0008 7047     	 bx lr
 3020              	.L311:
 3021 000a 00BF     	 .align 2
 3022              	.L310:
 3023 000c 00420050 	 .word 1342194176
 3024              	 .cfi_endproc
 3025              	.LFE238:
 3027              	 .section .text.XMC_SCU_POWER_DisableUsb,"ax",%progbits
 3028              	 .align 2
 3029              	 .global XMC_SCU_POWER_DisableUsb
 3030              	 .thumb
 3031              	 .thumb_func
 3033              	XMC_SCU_POWER_DisableUsb:
 3034              	.LFB239:
1182:../Libraries/XMCLib/src/xmc4_scu.c **** #else
1183:../Libraries/XMCLib/src/xmc4_scu.c ****   SCU_POWER->PWRSET = (uint32_t)SCU_POWER_PWRSET_USBPHYPDQ_Msk;
1184:../Libraries/XMCLib/src/xmc4_scu.c **** #endif
1185:../Libraries/XMCLib/src/xmc4_scu.c **** }
1186:../Libraries/XMCLib/src/xmc4_scu.c **** 
1187:../Libraries/XMCLib/src/xmc4_scu.c **** /* API to power down USB Phy and comparator */
1188:../Libraries/XMCLib/src/xmc4_scu.c **** void XMC_SCU_POWER_DisableUsb(void)
1189:../Libraries/XMCLib/src/xmc4_scu.c **** {
 3035              	 .loc 1 1189 0
 3036              	 .cfi_startproc
 3037              	 
 3038              	 
 3039              	 
1190:../Libraries/XMCLib/src/xmc4_scu.c **** #if defined(USB_OTG_SUPPORTED)
1191:../Libraries/XMCLib/src/xmc4_scu.c ****   SCU_POWER->PWRCLR = (uint32_t)(SCU_POWER_PWRCLR_USBOTGEN_Msk | SCU_POWER_PWRSET_USBPHYPDQ_Msk);
 3040              	 .loc 1 1191 0
 3041 0000 024B     	 ldr r3,.L313
 3042 0002 4FF44032 	 mov r2,#196608
 3043 0006 9A60     	 str r2,[r3,#8]
 3044 0008 7047     	 bx lr
 3045              	.L314:
 3046 000a 00BF     	 .align 2
 3047              	.L313:
 3048 000c 00420050 	 .word 1342194176
 3049              	 .cfi_endproc
 3050              	.LFE239:
 3052              	 .section .text.XMC_SCU_CLOCK_IsUsbPllLocked,"ax",%progbits
 3053              	 .align 2
 3054              	 .global XMC_SCU_CLOCK_IsUsbPllLocked
 3055              	 .thumb
 3056              	 .thumb_func
 3058              	XMC_SCU_CLOCK_IsUsbPllLocked:
 3059              	.LFB240:
1192:../Libraries/XMCLib/src/xmc4_scu.c **** #else
1193:../Libraries/XMCLib/src/xmc4_scu.c ****   SCU_POWER->PWRCLR = (uint32_t)SCU_POWER_PWRCLR_USBPHYPDQ_Msk;
1194:../Libraries/XMCLib/src/xmc4_scu.c **** #endif    
1195:../Libraries/XMCLib/src/xmc4_scu.c **** }
1196:../Libraries/XMCLib/src/xmc4_scu.c **** 
1197:../Libraries/XMCLib/src/xmc4_scu.c **** /* API to check USB PLL is locked or not */
1198:../Libraries/XMCLib/src/xmc4_scu.c **** bool XMC_SCU_CLOCK_IsUsbPllLocked(void)
1199:../Libraries/XMCLib/src/xmc4_scu.c **** {
 3060              	 .loc 1 1199 0
 3061              	 .cfi_startproc
 3062              	 
 3063              	 
 3064              	 
1200:../Libraries/XMCLib/src/xmc4_scu.c ****   return (bool)((SCU_PLL->USBPLLSTAT & SCU_PLL_USBPLLSTAT_VCOLOCK_Msk) != 0UL);
 3065              	 .loc 1 1200 0
 3066 0000 024B     	 ldr r3,.L316
 3067 0002 1869     	 ldr r0,[r3,#16]
1201:../Libraries/XMCLib/src/xmc4_scu.c **** }
 3068              	 .loc 1 1201 0
 3069 0004 C0F38000 	 ubfx r0,r0,#2,#1
 3070 0008 7047     	 bx lr
 3071              	.L317:
 3072 000a 00BF     	 .align 2
 3073              	.L316:
 3074 000c 10470050 	 .word 1342195472
 3075              	 .cfi_endproc
 3076              	.LFE240:
 3078              	 .section .text.XMC_SCU_HIB_EnableHibernateDomain,"ax",%progbits
 3079              	 .align 2
 3080              	 .global XMC_SCU_HIB_EnableHibernateDomain
 3081              	 .thumb
 3082              	 .thumb_func
 3084              	XMC_SCU_HIB_EnableHibernateDomain:
 3085              	.LFB241:
1202:../Libraries/XMCLib/src/xmc4_scu.c **** 
1203:../Libraries/XMCLib/src/xmc4_scu.c **** /* API to power up the hibernation domain */
1204:../Libraries/XMCLib/src/xmc4_scu.c **** void XMC_SCU_HIB_EnableHibernateDomain(void)
1205:../Libraries/XMCLib/src/xmc4_scu.c **** {
 3086              	 .loc 1 1205 0
 3087              	 .cfi_startproc
 3088              	 
 3089              	 
 3090              	 
1206:../Libraries/XMCLib/src/xmc4_scu.c ****   /* Power up HIB domain if and only if it is currently powered down */
1207:../Libraries/XMCLib/src/xmc4_scu.c ****   if((SCU_POWER->PWRSTAT & SCU_POWER_PWRSTAT_HIBEN_Msk) == 0UL)
 3091              	 .loc 1 1207 0
 3092 0000 0A4A     	 ldr r2,.L329
 3093 0002 1368     	 ldr r3,[r2]
 3094 0004 DB07     	 lsls r3,r3,#31
 3095 0006 04D4     	 bmi .L323
1208:../Libraries/XMCLib/src/xmc4_scu.c ****   {
1209:../Libraries/XMCLib/src/xmc4_scu.c ****     SCU_POWER->PWRSET = (uint32_t)SCU_POWER_PWRSET_HIB_Msk;
 3096              	 .loc 1 1209 0
 3097 0008 0123     	 movs r3,#1
 3098 000a 5360     	 str r3,[r2,#4]
 3099              	.L322:
1210:../Libraries/XMCLib/src/xmc4_scu.c ****     
1211:../Libraries/XMCLib/src/xmc4_scu.c ****     while((SCU_POWER->PWRSTAT & SCU_POWER_PWRSTAT_HIBEN_Msk) == 0UL)
 3100              	 .loc 1 1211 0 discriminator 1
 3101 000c 1368     	 ldr r3,[r2]
 3102 000e D907     	 lsls r1,r3,#31
 3103 0010 FCD5     	 bpl .L322
 3104              	.L323:
1212:../Libraries/XMCLib/src/xmc4_scu.c ****     {
1213:../Libraries/XMCLib/src/xmc4_scu.c ****       /* wait until HIB domain is enabled */
1214:../Libraries/XMCLib/src/xmc4_scu.c ****     }    
1215:../Libraries/XMCLib/src/xmc4_scu.c ****   }
1216:../Libraries/XMCLib/src/xmc4_scu.c ****   
1217:../Libraries/XMCLib/src/xmc4_scu.c ****   /* Remove the reset only if HIB domain were in a state of reset */
1218:../Libraries/XMCLib/src/xmc4_scu.c ****   if((SCU_RESET->RSTSTAT) & SCU_RESET_RSTSTAT_HIBRS_Msk)
 3105              	 .loc 1 1218 0
 3106 0012 074A     	 ldr r2,.L329+4
 3107 0014 1368     	 ldr r3,[r2]
 3108 0016 9805     	 lsls r0,r3,#22
 3109 0018 06D5     	 bpl .L328
 3110              	.LBB170:
 3111              	.LBB171:
1219:../Libraries/XMCLib/src/xmc4_scu.c ****   {
1220:../Libraries/XMCLib/src/xmc4_scu.c ****     SCU_RESET->RSTCLR = (uint32_t)SCU_RESET_RSTCLR_HIBRS_Msk;
 3112              	 .loc 1 1220 0
 3113 001a 4FF40073 	 mov r3,#512
 3114 001e 9360     	 str r3,[r2,#8]
 3115              	.L324:
1221:../Libraries/XMCLib/src/xmc4_scu.c ****     while((SCU_RESET->RSTSTAT & SCU_RESET_RSTSTAT_HIBRS_Msk) != 0UL)
 3116              	 .loc 1 1221 0
 3117 0020 1368     	 ldr r3,[r2]
 3118 0022 9B05     	 lsls r3,r3,#22
 3119 0024 FCD4     	 bmi .L324
 3120 0026 7047     	 bx lr
 3121              	.L328:
 3122              	.LBE171:
 3123              	.LBE170:
 3124 0028 7047     	 bx lr
 3125              	.L330:
 3126 002a 00BF     	 .align 2
 3127              	.L329:
 3128 002c 00420050 	 .word 1342194176
 3129 0030 00440050 	 .word 1342194688
 3130              	 .cfi_endproc
 3131              	.LFE241:
 3133              	 .section .text.XMC_SCU_HIB_DisableHibernateDomain,"ax",%progbits
 3134              	 .align 2
 3135              	 .global XMC_SCU_HIB_DisableHibernateDomain
 3136              	 .thumb
 3137              	 .thumb_func
 3139              	XMC_SCU_HIB_DisableHibernateDomain:
 3140              	.LFB242:
1222:../Libraries/XMCLib/src/xmc4_scu.c ****     {
1223:../Libraries/XMCLib/src/xmc4_scu.c ****       /* wait until HIB domain is enabled */
1224:../Libraries/XMCLib/src/xmc4_scu.c ****     }
1225:../Libraries/XMCLib/src/xmc4_scu.c ****   }
1226:../Libraries/XMCLib/src/xmc4_scu.c **** }
1227:../Libraries/XMCLib/src/xmc4_scu.c **** 
1228:../Libraries/XMCLib/src/xmc4_scu.c **** /* API to power down the hibernation domain */
1229:../Libraries/XMCLib/src/xmc4_scu.c **** void XMC_SCU_HIB_DisableHibernateDomain(void)
1230:../Libraries/XMCLib/src/xmc4_scu.c **** {
 3141              	 .loc 1 1230 0
 3142              	 .cfi_startproc
 3143              	 
 3144              	 
 3145              	 
1231:../Libraries/XMCLib/src/xmc4_scu.c ****   /* Disable hibernate domain */   
1232:../Libraries/XMCLib/src/xmc4_scu.c ****   SCU_POWER->PWRCLR = (uint32_t)SCU_POWER_PWRCLR_HIB_Msk;
 3146              	 .loc 1 1232 0
 3147 0000 0349     	 ldr r1,.L332
1233:../Libraries/XMCLib/src/xmc4_scu.c ****   /* Reset of hibernate domain reset */  
1234:../Libraries/XMCLib/src/xmc4_scu.c ****   SCU_RESET->RSTSET = (uint32_t)SCU_RESET_RSTSET_HIBRS_Msk;
 3148              	 .loc 1 1234 0
 3149 0002 044B     	 ldr r3,.L332+4
1232:../Libraries/XMCLib/src/xmc4_scu.c ****   /* Reset of hibernate domain reset */  
 3150              	 .loc 1 1232 0
 3151 0004 0120     	 movs r0,#1
 3152              	 .loc 1 1234 0
 3153 0006 4FF40072 	 mov r2,#512
1232:../Libraries/XMCLib/src/xmc4_scu.c ****   /* Reset of hibernate domain reset */  
 3154              	 .loc 1 1232 0
 3155 000a 8860     	 str r0,[r1,#8]
 3156              	 .loc 1 1234 0
 3157 000c 5A60     	 str r2,[r3,#4]
 3158 000e 7047     	 bx lr
 3159              	.L333:
 3160              	 .align 2
 3161              	.L332:
 3162 0010 00420050 	 .word 1342194176
 3163 0014 00440050 	 .word 1342194688
 3164              	 .cfi_endproc
 3165              	.LFE242:
 3167              	 .section .text.XMC_SCU_HIB_IsHibernateDomainEnabled,"ax",%progbits
 3168              	 .align 2
 3169              	 .global XMC_SCU_HIB_IsHibernateDomainEnabled
 3170              	 .thumb
 3171              	 .thumb_func
 3173              	XMC_SCU_HIB_IsHibernateDomainEnabled:
 3174              	.LFB243:
1235:../Libraries/XMCLib/src/xmc4_scu.c **** }
1236:../Libraries/XMCLib/src/xmc4_scu.c **** 
1237:../Libraries/XMCLib/src/xmc4_scu.c **** /* API to check the hibernation domain is enabled or not */
1238:../Libraries/XMCLib/src/xmc4_scu.c **** bool XMC_SCU_HIB_IsHibernateDomainEnabled(void)
1239:../Libraries/XMCLib/src/xmc4_scu.c **** {
 3175              	 .loc 1 1239 0
 3176              	 .cfi_startproc
 3177              	 
 3178              	 
 3179              	 
1240:../Libraries/XMCLib/src/xmc4_scu.c ****   return ((bool)(SCU_POWER->PWRSTAT & SCU_POWER_PWRSTAT_HIBEN_Msk) && 
 3180              	 .loc 1 1240 0
 3181 0000 054B     	 ldr r3,.L337
 3182 0002 1868     	 ldr r0,[r3]
 3183 0004 10F00100 	 ands r0,r0,#1
 3184 0008 05D0     	 beq .L335
1241:../Libraries/XMCLib/src/xmc4_scu.c ****           !(bool)(SCU_RESET->RSTSTAT & SCU_RESET_RSTSTAT_HIBRS_Msk));
 3185              	 .loc 1 1241 0 discriminator 1
 3186 000a D3F80002 	 ldr r0,[r3,#512]
1240:../Libraries/XMCLib/src/xmc4_scu.c ****   return ((bool)(SCU_POWER->PWRSTAT & SCU_POWER_PWRSTAT_HIBEN_Msk) && 
 3187              	 .loc 1 1240 0 discriminator 1
 3188 000e 80F40070 	 eor r0,r0,#512
 3189 0012 C0F34020 	 ubfx r0,r0,#9,#1
 3190              	.L335:
1242:../Libraries/XMCLib/src/xmc4_scu.c **** }
 3191              	 .loc 1 1242 0 discriminator 6
 3192 0016 7047     	 bx lr
 3193              	.L338:
 3194              	 .align 2
 3195              	.L337:
 3196 0018 00420050 	 .word 1342194176
 3197              	 .cfi_endproc
 3198              	.LFE243:
 3200              	 .section .text.XMC_SCU_HIB_EnableInternalSlowClock,"ax",%progbits
 3201              	 .align 2
 3202              	 .global XMC_SCU_HIB_EnableInternalSlowClock
 3203              	 .thumb
 3204              	 .thumb_func
 3206              	XMC_SCU_HIB_EnableInternalSlowClock:
 3207              	.LFB244:
1243:../Libraries/XMCLib/src/xmc4_scu.c **** 
1244:../Libraries/XMCLib/src/xmc4_scu.c **** /* API to enable internal slow clock - fOSI (32.768kHz) in hibernate domain */
1245:../Libraries/XMCLib/src/xmc4_scu.c **** void XMC_SCU_HIB_EnableInternalSlowClock(void)
1246:../Libraries/XMCLib/src/xmc4_scu.c **** {
 3208              	 .loc 1 1246 0
 3209              	 .cfi_startproc
 3210              	 
 3211              	 
 3212              	 
1247:../Libraries/XMCLib/src/xmc4_scu.c ****   while((SCU_GENERAL->MIRRSTS) & SCU_GENERAL_MIRRSTS_OSCSICTRL_Msk)
 3213              	 .loc 1 1247 0
 3214 0000 054A     	 ldr r2,.L342
 3215              	.L340:
 3216              	 .loc 1 1247 0 is_stmt 0 discriminator 1
 3217 0002 D2F8C430 	 ldr r3,[r2,#196]
 3218 0006 9B06     	 lsls r3,r3,#26
 3219 0008 FBD4     	 bmi .L340
1248:../Libraries/XMCLib/src/xmc4_scu.c ****   {
1249:../Libraries/XMCLib/src/xmc4_scu.c ****     /* Wait until OSCSICTRL register in hibernate domain is ready to accept a write */  
1250:../Libraries/XMCLib/src/xmc4_scu.c ****   }
1251:../Libraries/XMCLib/src/xmc4_scu.c ****   SCU_HIBERNATE->OSCSICTRL &= (uint32_t)~(SCU_HIBERNATE_OSCSICTRL_PWD_Msk);
 3220              	 .loc 1 1251 0 is_stmt 1
 3221 000a 044A     	 ldr r2,.L342+4
 3222 000c 5369     	 ldr r3,[r2,#20]
 3223 000e 23F00103 	 bic r3,r3,#1
 3224 0012 5361     	 str r3,[r2,#20]
 3225 0014 7047     	 bx lr
 3226              	.L343:
 3227 0016 00BF     	 .align 2
 3228              	.L342:
 3229 0018 00400050 	 .word 1342193664
 3230 001c 00430050 	 .word 1342194432
 3231              	 .cfi_endproc
 3232              	.LFE244:
 3234              	 .section .text.XMC_SCU_HIB_DisableInternalSlowClock,"ax",%progbits
 3235              	 .align 2
 3236              	 .global XMC_SCU_HIB_DisableInternalSlowClock
 3237              	 .thumb
 3238              	 .thumb_func
 3240              	XMC_SCU_HIB_DisableInternalSlowClock:
 3241              	.LFB245:
1252:../Libraries/XMCLib/src/xmc4_scu.c **** }
1253:../Libraries/XMCLib/src/xmc4_scu.c **** 
1254:../Libraries/XMCLib/src/xmc4_scu.c **** /* API to disable internal slow clock - fOSI (32.768kHz) in hibernate domain */
1255:../Libraries/XMCLib/src/xmc4_scu.c **** void XMC_SCU_HIB_DisableInternalSlowClock(void)
1256:../Libraries/XMCLib/src/xmc4_scu.c **** {
 3242              	 .loc 1 1256 0
 3243              	 .cfi_startproc
 3244              	 
 3245              	 
 3246              	 
1257:../Libraries/XMCLib/src/xmc4_scu.c ****   while((SCU_GENERAL->MIRRSTS) & SCU_GENERAL_MIRRSTS_OSCSICTRL_Msk)
 3247              	 .loc 1 1257 0
 3248 0000 054A     	 ldr r2,.L347
 3249              	.L345:
 3250              	 .loc 1 1257 0 is_stmt 0 discriminator 1
 3251 0002 D2F8C430 	 ldr r3,[r2,#196]
 3252 0006 9B06     	 lsls r3,r3,#26
 3253 0008 FBD4     	 bmi .L345
1258:../Libraries/XMCLib/src/xmc4_scu.c ****   {
1259:../Libraries/XMCLib/src/xmc4_scu.c ****     /* Wait until OSCSICTRL register in hibernate domain is ready to accept a write */  
1260:../Libraries/XMCLib/src/xmc4_scu.c ****   }
1261:../Libraries/XMCLib/src/xmc4_scu.c ****   SCU_HIBERNATE->OSCSICTRL |= (uint32_t)SCU_HIBERNATE_OSCSICTRL_PWD_Msk;
 3254              	 .loc 1 1261 0 is_stmt 1
 3255 000a 044A     	 ldr r2,.L347+4
 3256 000c 5369     	 ldr r3,[r2,#20]
 3257 000e 43F00103 	 orr r3,r3,#1
 3258 0012 5361     	 str r3,[r2,#20]
 3259 0014 7047     	 bx lr
 3260              	.L348:
 3261 0016 00BF     	 .align 2
 3262              	.L347:
 3263 0018 00400050 	 .word 1342193664
 3264 001c 00430050 	 .word 1342194432
 3265              	 .cfi_endproc
 3266              	.LFE245:
 3268              	 .section .text.XMC_SCU_HIB_ClearEventStatus,"ax",%progbits
 3269              	 .align 2
 3270              	 .global XMC_SCU_HIB_ClearEventStatus
 3271              	 .thumb
 3272              	 .thumb_func
 3274              	XMC_SCU_HIB_ClearEventStatus:
 3275              	.LFB246:
1262:../Libraries/XMCLib/src/xmc4_scu.c **** }
1263:../Libraries/XMCLib/src/xmc4_scu.c **** 
1264:../Libraries/XMCLib/src/xmc4_scu.c **** void XMC_SCU_HIB_ClearEventStatus(int32_t event)
1265:../Libraries/XMCLib/src/xmc4_scu.c **** {
 3276              	 .loc 1 1265 0
 3277              	 .cfi_startproc
 3278              	 
 3279              	 
 3280              	 
 3281              	.LVL236:
1266:../Libraries/XMCLib/src/xmc4_scu.c ****   while((SCU_GENERAL->MIRRSTS) & SCU_GENERAL_MIRRSTS_HDCLR_Msk)
 3282              	 .loc 1 1266 0
 3283 0000 034A     	 ldr r2,.L352
 3284              	.L350:
 3285              	 .loc 1 1266 0 is_stmt 0 discriminator 1
 3286 0002 D2F8C430 	 ldr r3,[r2,#196]
 3287 0006 9B07     	 lsls r3,r3,#30
 3288 0008 FBD4     	 bmi .L350
1267:../Libraries/XMCLib/src/xmc4_scu.c ****   {
1268:../Libraries/XMCLib/src/xmc4_scu.c ****     /* Wait until HDCLR register in hibernate domain is ready to accept a write */  
1269:../Libraries/XMCLib/src/xmc4_scu.c ****   }
1270:../Libraries/XMCLib/src/xmc4_scu.c ****   SCU_HIBERNATE->HDCLR = event;
 3289              	 .loc 1 1270 0 is_stmt 1
 3290 000a 024B     	 ldr r3,.L352+4
 3291 000c 5860     	 str r0,[r3,#4]
 3292 000e 7047     	 bx lr
 3293              	.L353:
 3294              	 .align 2
 3295              	.L352:
 3296 0010 00400050 	 .word 1342193664
 3297 0014 00430050 	 .word 1342194432
 3298              	 .cfi_endproc
 3299              	.LFE246:
 3301              	 .section .text.XMC_SCU_HIB_TriggerEvent,"ax",%progbits
 3302              	 .align 2
 3303              	 .global XMC_SCU_HIB_TriggerEvent
 3304              	 .thumb
 3305              	 .thumb_func
 3307              	XMC_SCU_HIB_TriggerEvent:
 3308              	.LFB247:
1271:../Libraries/XMCLib/src/xmc4_scu.c **** }
1272:../Libraries/XMCLib/src/xmc4_scu.c **** 
1273:../Libraries/XMCLib/src/xmc4_scu.c **** void XMC_SCU_HIB_TriggerEvent(int32_t event)
1274:../Libraries/XMCLib/src/xmc4_scu.c **** {
 3309              	 .loc 1 1274 0
 3310              	 .cfi_startproc
 3311              	 
 3312              	 
 3313              	 
 3314              	.LVL237:
1275:../Libraries/XMCLib/src/xmc4_scu.c ****   while((SCU_GENERAL->MIRRSTS) & SCU_GENERAL_MIRRSTS_HDSET_Msk)
 3315              	 .loc 1 1275 0
 3316 0000 034A     	 ldr r2,.L357
 3317              	.L355:
 3318              	 .loc 1 1275 0 is_stmt 0 discriminator 1
 3319 0002 D2F8C430 	 ldr r3,[r2,#196]
 3320 0006 5B07     	 lsls r3,r3,#29
 3321 0008 FBD4     	 bmi .L355
1276:../Libraries/XMCLib/src/xmc4_scu.c ****   {
1277:../Libraries/XMCLib/src/xmc4_scu.c ****     /* Wait until HDSET register in hibernate domain is ready to accept a write */    
1278:../Libraries/XMCLib/src/xmc4_scu.c ****   }
1279:../Libraries/XMCLib/src/xmc4_scu.c ****   SCU_HIBERNATE->HDSET = event;
 3322              	 .loc 1 1279 0 is_stmt 1
 3323 000a 024B     	 ldr r3,.L357+4
 3324 000c 9860     	 str r0,[r3,#8]
 3325 000e 7047     	 bx lr
 3326              	.L358:
 3327              	 .align 2
 3328              	.L357:
 3329 0010 00400050 	 .word 1342193664
 3330 0014 00430050 	 .word 1342194432
 3331              	 .cfi_endproc
 3332              	.LFE247:
 3334              	 .section .text.XMC_SCU_HIB_EnableEvent,"ax",%progbits
 3335              	 .align 2
 3336              	 .global XMC_SCU_HIB_EnableEvent
 3337              	 .thumb
 3338              	 .thumb_func
 3340              	XMC_SCU_HIB_EnableEvent:
 3341              	.LFB248:
1280:../Libraries/XMCLib/src/xmc4_scu.c **** }
1281:../Libraries/XMCLib/src/xmc4_scu.c **** 
1282:../Libraries/XMCLib/src/xmc4_scu.c **** void XMC_SCU_HIB_EnableEvent(int32_t event)
1283:../Libraries/XMCLib/src/xmc4_scu.c **** {
 3342              	 .loc 1 1283 0
 3343              	 .cfi_startproc
 3344              	 
 3345              	 
 3346              	 
 3347              	.LVL238:
1284:../Libraries/XMCLib/src/xmc4_scu.c **** #if (defined(DOXYGEN) || (UC_SERIES == XMC44) || (UC_SERIES == XMC42) || (UC_SERIES == XMC41))
1285:../Libraries/XMCLib/src/xmc4_scu.c ****   event = ((event & XMC_SCU_HIB_EVENT_LPAC_VBAT_POSEDGE) << (SCU_HIBERNATE_HDCR_VBATHI_Pos - SCU_HI
1286:../Libraries/XMCLib/src/xmc4_scu.c ****   event = ((event & XMC_SCU_HIB_EVENT_LPAC_VBAT_NEGEDGE) << (SCU_HIBERNATE_HDCR_VBATLO_Pos - SCU_HI
1287:../Libraries/XMCLib/src/xmc4_scu.c ****   event = ((event & XMC_SCU_HIB_EVENT_LPAC_HIB_IO_0_POSEDGE) << (SCU_HIBERNATE_HDCR_AHIBIO0HI_Pos -
1288:../Libraries/XMCLib/src/xmc4_scu.c ****   event = ((event & XMC_SCU_HIB_EVENT_LPAC_HIB_IO_0_NEGEDGE) << (SCU_HIBERNATE_HDCR_AHIBIO0LO_Pos -
1289:../Libraries/XMCLib/src/xmc4_scu.c **** #if (defined(DOXYGEN) || ((UC_SERIES == XMC44) && (UC_PACKAGE == LQFP100)))
1290:../Libraries/XMCLib/src/xmc4_scu.c ****   event = ((event & XMC_SCU_HIB_EVENT_LPAC_HIB_IO_1_POSEDGE) << (SCU_HIBERNATE_HDCR_AHIBIO1HI_Pos -
1291:../Libraries/XMCLib/src/xmc4_scu.c ****   event = ((event & XMC_SCU_HIB_EVENT_LPAC_HIB_IO_1_NEGEDGE) << (SCU_HIBERNATE_HDCR_AHIBIO1LO_Pos -
1292:../Libraries/XMCLib/src/xmc4_scu.c **** #endif
1293:../Libraries/XMCLib/src/xmc4_scu.c **** #endif
1294:../Libraries/XMCLib/src/xmc4_scu.c **** 
1295:../Libraries/XMCLib/src/xmc4_scu.c ****   while((SCU_GENERAL->MIRRSTS) & SCU_GENERAL_MIRRSTS_HDCR_Msk)
 3348              	 .loc 1 1295 0
 3349 0000 044A     	 ldr r2,.L362
 3350              	.L360:
 3351              	 .loc 1 1295 0 is_stmt 0 discriminator 1
 3352 0002 D2F8C430 	 ldr r3,[r2,#196]
 3353 0006 1B07     	 lsls r3,r3,#28
 3354 0008 FBD4     	 bmi .L360
1296:../Libraries/XMCLib/src/xmc4_scu.c ****   {
1297:../Libraries/XMCLib/src/xmc4_scu.c ****     /* Wait until HDCR register in hibernate domain is ready to accept a write */    
1298:../Libraries/XMCLib/src/xmc4_scu.c ****   }
1299:../Libraries/XMCLib/src/xmc4_scu.c ****   SCU_HIBERNATE->HDCR |= event;
 3355              	 .loc 1 1299 0 is_stmt 1
 3356 000a 034A     	 ldr r2,.L362+4
 3357 000c D368     	 ldr r3,[r2,#12]
 3358 000e 1843     	 orrs r0,r0,r3
 3359              	.LVL239:
 3360 0010 D060     	 str r0,[r2,#12]
 3361 0012 7047     	 bx lr
 3362              	.L363:
 3363              	 .align 2
 3364              	.L362:
 3365 0014 00400050 	 .word 1342193664
 3366 0018 00430050 	 .word 1342194432
 3367              	 .cfi_endproc
 3368              	.LFE248:
 3370              	 .section .text.XMC_SCU_HIB_DisableEvent,"ax",%progbits
 3371              	 .align 2
 3372              	 .global XMC_SCU_HIB_DisableEvent
 3373              	 .thumb
 3374              	 .thumb_func
 3376              	XMC_SCU_HIB_DisableEvent:
 3377              	.LFB249:
1300:../Libraries/XMCLib/src/xmc4_scu.c **** }
1301:../Libraries/XMCLib/src/xmc4_scu.c **** 
1302:../Libraries/XMCLib/src/xmc4_scu.c **** void XMC_SCU_HIB_DisableEvent(int32_t event)
1303:../Libraries/XMCLib/src/xmc4_scu.c **** {
 3378              	 .loc 1 1303 0
 3379              	 .cfi_startproc
 3380              	 
 3381              	 
 3382              	 
 3383              	.LVL240:
1304:../Libraries/XMCLib/src/xmc4_scu.c **** #if (defined(DOXYGEN) || (UC_SERIES == XMC44) || (UC_SERIES == XMC42) || (UC_SERIES == XMC41))
1305:../Libraries/XMCLib/src/xmc4_scu.c ****   event = ((event & XMC_SCU_HIB_EVENT_LPAC_VBAT_POSEDGE) << (SCU_HIBERNATE_HDCR_VBATHI_Pos - SCU_HI
1306:../Libraries/XMCLib/src/xmc4_scu.c ****   event = ((event & XMC_SCU_HIB_EVENT_LPAC_VBAT_NEGEDGE) << (SCU_HIBERNATE_HDCR_VBATLO_Pos - SCU_HI
1307:../Libraries/XMCLib/src/xmc4_scu.c ****   event = ((event & XMC_SCU_HIB_EVENT_LPAC_HIB_IO_0_POSEDGE) << (SCU_HIBERNATE_HDCR_AHIBIO0HI_Pos -
1308:../Libraries/XMCLib/src/xmc4_scu.c ****   event = ((event & XMC_SCU_HIB_EVENT_LPAC_HIB_IO_0_NEGEDGE) << (SCU_HIBERNATE_HDCR_AHIBIO0LO_Pos -
1309:../Libraries/XMCLib/src/xmc4_scu.c **** #if (defined(DOXYGEN) || ((UC_SERIES == XMC44) && (UC_PACKAGE == LQFP100)))
1310:../Libraries/XMCLib/src/xmc4_scu.c ****   event = ((event & XMC_SCU_HIB_EVENT_LPAC_HIB_IO_1_POSEDGE) << (SCU_HIBERNATE_HDCR_AHIBIO1HI_Pos -
1311:../Libraries/XMCLib/src/xmc4_scu.c ****   event = ((event & XMC_SCU_HIB_EVENT_LPAC_HIB_IO_1_NEGEDGE) << (SCU_HIBERNATE_HDCR_AHIBIO1LO_Pos -
1312:../Libraries/XMCLib/src/xmc4_scu.c **** #endif
1313:../Libraries/XMCLib/src/xmc4_scu.c **** #endif
1314:../Libraries/XMCLib/src/xmc4_scu.c **** 
1315:../Libraries/XMCLib/src/xmc4_scu.c ****   while((SCU_GENERAL->MIRRSTS) & SCU_GENERAL_MIRRSTS_HDCR_Msk)
 3384              	 .loc 1 1315 0
 3385 0000 054A     	 ldr r2,.L367
 3386              	.L365:
 3387              	 .loc 1 1315 0 is_stmt 0 discriminator 1
 3388 0002 D2F8C430 	 ldr r3,[r2,#196]
 3389 0006 1B07     	 lsls r3,r3,#28
 3390 0008 FBD4     	 bmi .L365
1316:../Libraries/XMCLib/src/xmc4_scu.c ****   {
1317:../Libraries/XMCLib/src/xmc4_scu.c ****     /* Wait until HDCR register in hibernate domain is ready to accept a write */    
1318:../Libraries/XMCLib/src/xmc4_scu.c ****   }
1319:../Libraries/XMCLib/src/xmc4_scu.c ****   SCU_HIBERNATE->HDCR &= ~event;
 3391              	 .loc 1 1319 0 is_stmt 1
 3392 000a 044A     	 ldr r2,.L367+4
 3393 000c D368     	 ldr r3,[r2,#12]
 3394 000e 23EA0000 	 bic r0,r3,r0
 3395              	.LVL241:
 3396 0012 D060     	 str r0,[r2,#12]
 3397 0014 7047     	 bx lr
 3398              	.L368:
 3399 0016 00BF     	 .align 2
 3400              	.L367:
 3401 0018 00400050 	 .word 1342193664
 3402 001c 00430050 	 .word 1342194432
 3403              	 .cfi_endproc
 3404              	.LFE249:
 3406              	 .section .text.XMC_SCU_HIB_EnterHibernateState,"ax",%progbits
 3407              	 .align 2
 3408              	 .global XMC_SCU_HIB_EnterHibernateState
 3409              	 .thumb
 3410              	 .thumb_func
 3412              	XMC_SCU_HIB_EnterHibernateState:
 3413              	.LFB250:
1320:../Libraries/XMCLib/src/xmc4_scu.c **** }
1321:../Libraries/XMCLib/src/xmc4_scu.c **** 
1322:../Libraries/XMCLib/src/xmc4_scu.c **** void XMC_SCU_HIB_EnterHibernateState(void) 
1323:../Libraries/XMCLib/src/xmc4_scu.c **** {
 3414              	 .loc 1 1323 0
 3415              	 .cfi_startproc
 3416              	 
 3417              	 
 3418              	 
1324:../Libraries/XMCLib/src/xmc4_scu.c ****   while((SCU_GENERAL->MIRRSTS) & SCU_GENERAL_MIRRSTS_HDCR_Msk)
 3419              	 .loc 1 1324 0
 3420 0000 054A     	 ldr r2,.L372
 3421              	.L370:
 3422              	 .loc 1 1324 0 is_stmt 0 discriminator 1
 3423 0002 D2F8C430 	 ldr r3,[r2,#196]
 3424 0006 1B07     	 lsls r3,r3,#28
 3425 0008 FBD4     	 bmi .L370
1325:../Libraries/XMCLib/src/xmc4_scu.c ****   {
1326:../Libraries/XMCLib/src/xmc4_scu.c ****     /* Wait until HDCR register in hibernate domain is ready to accept a write */    
1327:../Libraries/XMCLib/src/xmc4_scu.c ****   }
1328:../Libraries/XMCLib/src/xmc4_scu.c ****   SCU_HIBERNATE->HDCR |= SCU_HIBERNATE_HDCR_HIB_Msk;
 3426              	 .loc 1 1328 0 is_stmt 1
 3427 000a 044A     	 ldr r2,.L372+4
 3428 000c D368     	 ldr r3,[r2,#12]
 3429 000e 43F01003 	 orr r3,r3,#16
 3430 0012 D360     	 str r3,[r2,#12]
 3431 0014 7047     	 bx lr
 3432              	.L373:
 3433 0016 00BF     	 .align 2
 3434              	.L372:
 3435 0018 00400050 	 .word 1342193664
 3436 001c 00430050 	 .word 1342194432
 3437              	 .cfi_endproc
 3438              	.LFE250:
 3440              	 .section .text.XMC_SCU_HIB_EnterHibernateStateEx,"ax",%progbits
 3441              	 .align 2
 3442              	 .global XMC_SCU_HIB_EnterHibernateStateEx
 3443              	 .thumb
 3444              	 .thumb_func
 3446              	XMC_SCU_HIB_EnterHibernateStateEx:
 3447              	.LFB251:
1329:../Libraries/XMCLib/src/xmc4_scu.c **** }
1330:../Libraries/XMCLib/src/xmc4_scu.c **** 
1331:../Libraries/XMCLib/src/xmc4_scu.c **** void XMC_SCU_HIB_EnterHibernateStateEx(XMC_SCU_HIB_HIBERNATE_MODE_t mode)
1332:../Libraries/XMCLib/src/xmc4_scu.c **** {
 3448              	 .loc 1 1332 0
 3449              	 .cfi_startproc
 3450              	 
 3451              	 
 3452              	 
 3453              	.LVL242:
1333:../Libraries/XMCLib/src/xmc4_scu.c ****   if (mode == XMC_SCU_HIB_HIBERNATE_MODE_EXTERNAL)
 3454              	 .loc 1 1333 0
 3455 0000 48B9     	 cbnz r0,.L374
 3456              	.LBB172:
 3457              	.LBB173:
1324:../Libraries/XMCLib/src/xmc4_scu.c ****   {
 3458              	 .loc 1 1324 0
 3459 0002 054A     	 ldr r2,.L378
 3460              	.L376:
 3461 0004 D2F8C430 	 ldr r3,[r2,#196]
 3462 0008 1B07     	 lsls r3,r3,#28
 3463 000a FBD4     	 bmi .L376
1328:../Libraries/XMCLib/src/xmc4_scu.c **** }
 3464              	 .loc 1 1328 0
 3465 000c 034A     	 ldr r2,.L378+4
 3466 000e D368     	 ldr r3,[r2,#12]
 3467 0010 43F01003 	 orr r3,r3,#16
 3468 0014 D360     	 str r3,[r2,#12]
 3469              	.L374:
 3470 0016 7047     	 bx lr
 3471              	.L379:
 3472              	 .align 2
 3473              	.L378:
 3474 0018 00400050 	 .word 1342193664
 3475 001c 00430050 	 .word 1342194432
 3476              	.LBE173:
 3477              	.LBE172:
 3478              	 .cfi_endproc
 3479              	.LFE251:
 3481              	 .section .text.XMC_SCU_HIB_SetWakeupTriggerInput,"ax",%progbits
 3482              	 .align 2
 3483              	 .global XMC_SCU_HIB_SetWakeupTriggerInput
 3484              	 .thumb
 3485              	 .thumb_func
 3487              	XMC_SCU_HIB_SetWakeupTriggerInput:
 3488              	.LFB252:
1334:../Libraries/XMCLib/src/xmc4_scu.c ****   {
1335:../Libraries/XMCLib/src/xmc4_scu.c ****     XMC_SCU_HIB_EnterHibernateState();
1336:../Libraries/XMCLib/src/xmc4_scu.c ****   }
1337:../Libraries/XMCLib/src/xmc4_scu.c **** #if ((UC_SERIES == XMC44) || (UC_SERIES == XMC42) || (UC_SERIES == XMC41))
1338:../Libraries/XMCLib/src/xmc4_scu.c ****   if (mode == XMC_SCU_HIB_HIBERNATE_MODE_INTERNAL)
1339:../Libraries/XMCLib/src/xmc4_scu.c ****   {
1340:../Libraries/XMCLib/src/xmc4_scu.c ****     while((SCU_GENERAL->MIRRSTS) & SCU_GENERAL_MIRRSTS_HINTSET_Msk)
1341:../Libraries/XMCLib/src/xmc4_scu.c ****     {
1342:../Libraries/XMCLib/src/xmc4_scu.c ****       /* Wait until HDCR register in hibernate domain is ready to accept a write */
1343:../Libraries/XMCLib/src/xmc4_scu.c ****     }
1344:../Libraries/XMCLib/src/xmc4_scu.c ****     SCU_HIBERNATE->HINTSET = SCU_HIBERNATE_HINTSET_HIBNINT_Msk;
1345:../Libraries/XMCLib/src/xmc4_scu.c ****   }
1346:../Libraries/XMCLib/src/xmc4_scu.c **** #endif
1347:../Libraries/XMCLib/src/xmc4_scu.c **** }
1348:../Libraries/XMCLib/src/xmc4_scu.c **** 
1349:../Libraries/XMCLib/src/xmc4_scu.c **** void XMC_SCU_HIB_SetWakeupTriggerInput(XMC_SCU_HIB_IO_t pin)
1350:../Libraries/XMCLib/src/xmc4_scu.c **** {
 3489              	 .loc 1 1350 0
 3490              	 .cfi_startproc
 3491              	 
 3492              	 
 3493              	 
 3494              	.LVL243:
1351:../Libraries/XMCLib/src/xmc4_scu.c ****   while((SCU_GENERAL->MIRRSTS) & SCU_GENERAL_MIRRSTS_HDCR_Msk)
 3495              	 .loc 1 1351 0
 3496 0000 074A     	 ldr r2,.L386
 3497              	.L381:
 3498              	 .loc 1 1351 0 is_stmt 0 discriminator 1
 3499 0002 D2F8C430 	 ldr r3,[r2,#196]
 3500 0006 1B07     	 lsls r3,r3,#28
 3501 0008 FBD4     	 bmi .L381
1352:../Libraries/XMCLib/src/xmc4_scu.c ****   {
1353:../Libraries/XMCLib/src/xmc4_scu.c ****     /* Wait until HDCR register in hibernate domain is ready to accept a write */    
1354:../Libraries/XMCLib/src/xmc4_scu.c ****   }
1355:../Libraries/XMCLib/src/xmc4_scu.c **** 
1356:../Libraries/XMCLib/src/xmc4_scu.c ****   if (pin == XMC_SCU_HIB_IO_0)
1357:../Libraries/XMCLib/src/xmc4_scu.c ****   {
1358:../Libraries/XMCLib/src/xmc4_scu.c ****     SCU_HIBERNATE->HDCR |= SCU_HIBERNATE_HDCR_WKUPSEL_Msk;
 3502              	 .loc 1 1358 0 is_stmt 1
 3503 000a 064A     	 ldr r2,.L386+4
 3504 000c D368     	 ldr r3,[r2,#12]
1356:../Libraries/XMCLib/src/xmc4_scu.c ****   {
 3505              	 .loc 1 1356 0
 3506 000e 18B1     	 cbz r0,.L385
1359:../Libraries/XMCLib/src/xmc4_scu.c ****   }
1360:../Libraries/XMCLib/src/xmc4_scu.c ****   else
1361:../Libraries/XMCLib/src/xmc4_scu.c ****   {
1362:../Libraries/XMCLib/src/xmc4_scu.c ****     SCU_HIBERNATE->HDCR &= ~SCU_HIBERNATE_HDCR_WKUPSEL_Msk; 
 3507              	 .loc 1 1362 0
 3508 0010 23F48073 	 bic r3,r3,#256
 3509 0014 D360     	 str r3,[r2,#12]
 3510 0016 7047     	 bx lr
 3511              	.L385:
1358:../Libraries/XMCLib/src/xmc4_scu.c ****   }
 3512              	 .loc 1 1358 0
 3513 0018 43F48073 	 orr r3,r3,#256
 3514 001c D360     	 str r3,[r2,#12]
 3515 001e 7047     	 bx lr
 3516              	.L387:
 3517              	 .align 2
 3518              	.L386:
 3519 0020 00400050 	 .word 1342193664
 3520 0024 00430050 	 .word 1342194432
 3521              	 .cfi_endproc
 3522              	.LFE252:
 3524              	 .section .text.XMC_SCU_HIB_SetPinMode,"ax",%progbits
 3525              	 .align 2
 3526              	 .global XMC_SCU_HIB_SetPinMode
 3527              	 .thumb
 3528              	 .thumb_func
 3530              	XMC_SCU_HIB_SetPinMode:
 3531              	.LFB253:
1363:../Libraries/XMCLib/src/xmc4_scu.c ****   }
1364:../Libraries/XMCLib/src/xmc4_scu.c **** }
1365:../Libraries/XMCLib/src/xmc4_scu.c **** 
1366:../Libraries/XMCLib/src/xmc4_scu.c **** void XMC_SCU_HIB_SetPinMode(XMC_SCU_HIB_IO_t pin, XMC_SCU_HIB_PIN_MODE_t mode)
1367:../Libraries/XMCLib/src/xmc4_scu.c **** {
 3532              	 .loc 1 1367 0
 3533              	 .cfi_startproc
 3534              	 
 3535              	 
 3536              	 
 3537              	.LVL244:
1368:../Libraries/XMCLib/src/xmc4_scu.c ****   while((SCU_GENERAL->MIRRSTS) & SCU_GENERAL_MIRRSTS_HDCR_Msk)
 3538              	 .loc 1 1368 0
 3539 0000 094A     	 ldr r2,.L392
 3540              	.L389:
 3541              	 .loc 1 1368 0 is_stmt 0 discriminator 1
 3542 0002 D2F8C430 	 ldr r3,[r2,#196]
 3543 0006 1B07     	 lsls r3,r3,#28
 3544 0008 FBD4     	 bmi .L389
1367:../Libraries/XMCLib/src/xmc4_scu.c ****   while((SCU_GENERAL->MIRRSTS) & SCU_GENERAL_MIRRSTS_HDCR_Msk)
 3545              	 .loc 1 1367 0 is_stmt 1
 3546 000a 10B4     	 push {r4}
 3547              	.LCFI7:
 3548              	 .cfi_def_cfa_offset 4
 3549              	 .cfi_offset 4,-4
1369:../Libraries/XMCLib/src/xmc4_scu.c ****   {
1370:../Libraries/XMCLib/src/xmc4_scu.c ****     /* Wait until HDCR register in hibernate domain is ready to accept a write */    
1371:../Libraries/XMCLib/src/xmc4_scu.c ****   }
1372:../Libraries/XMCLib/src/xmc4_scu.c ****   SCU_HIBERNATE->HDCR = (SCU_HIBERNATE->HDCR & ~(SCU_HIBERNATE_HDCR_HIBIO0SEL_Msk << (SCU_HIBERNATE
 3550              	 .loc 1 1372 0
 3551 000c 074C     	 ldr r4,.L392+4
 3552 000e 8000     	 lsls r0,r0,#2
 3553              	.LVL245:
 3554 0010 E268     	 ldr r2,[r4,#12]
 3555 0012 4FF47023 	 mov r3,#983040
 3556 0016 8340     	 lsls r3,r3,r0
1373:../Libraries/XMCLib/src/xmc4_scu.c ****                         (mode << (SCU_HIBERNATE_HDCR_HIBIOSEL_Size * pin));
 3557              	 .loc 1 1373 0
 3558 0018 8140     	 lsls r1,r1,r0
 3559              	.LVL246:
1372:../Libraries/XMCLib/src/xmc4_scu.c ****                         (mode << (SCU_HIBERNATE_HDCR_HIBIOSEL_Size * pin));
 3560              	 .loc 1 1372 0
 3561 001a 22EA0303 	 bic r3,r2,r3
 3562 001e 1943     	 orrs r1,r1,r3
 3563 0020 E160     	 str r1,[r4,#12]
1374:../Libraries/XMCLib/src/xmc4_scu.c **** }
 3564              	 .loc 1 1374 0
 3565 0022 5DF8044B 	 ldr r4,[sp],#4
 3566              	.LCFI8:
 3567              	 .cfi_restore 4
 3568              	 .cfi_def_cfa_offset 0
 3569 0026 7047     	 bx lr
 3570              	.L393:
 3571              	 .align 2
 3572              	.L392:
 3573 0028 00400050 	 .word 1342193664
 3574 002c 00430050 	 .word 1342194432
 3575              	 .cfi_endproc
 3576              	.LFE253:
 3578              	 .section .text.XMC_SCU_HIB_SetPinOutputLevel,"ax",%progbits
 3579              	 .align 2
 3580              	 .global XMC_SCU_HIB_SetPinOutputLevel
 3581              	 .thumb
 3582              	 .thumb_func
 3584              	XMC_SCU_HIB_SetPinOutputLevel:
 3585              	.LFB254:
1375:../Libraries/XMCLib/src/xmc4_scu.c **** 
1376:../Libraries/XMCLib/src/xmc4_scu.c **** void XMC_SCU_HIB_SetPinOutputLevel(XMC_SCU_HIB_IO_t pin, XMC_SCU_HIB_IO_OUTPUT_LEVEL_t level)
1377:../Libraries/XMCLib/src/xmc4_scu.c **** {
 3586              	 .loc 1 1377 0
 3587              	 .cfi_startproc
 3588              	 
 3589              	 
 3590              	 
 3591              	.LVL247:
1378:../Libraries/XMCLib/src/xmc4_scu.c ****   while((SCU_GENERAL->MIRRSTS) & SCU_GENERAL_MIRRSTS_HDCR_Msk)
 3592              	 .loc 1 1378 0
 3593 0000 094A     	 ldr r2,.L398
 3594              	.L395:
 3595              	 .loc 1 1378 0 is_stmt 0 discriminator 1
 3596 0002 D2F8C430 	 ldr r3,[r2,#196]
 3597 0006 1B07     	 lsls r3,r3,#28
 3598 0008 FBD4     	 bmi .L395
1377:../Libraries/XMCLib/src/xmc4_scu.c ****   while((SCU_GENERAL->MIRRSTS) & SCU_GENERAL_MIRRSTS_HDCR_Msk)
 3599              	 .loc 1 1377 0 is_stmt 1
 3600 000a 10B4     	 push {r4}
 3601              	.LCFI9:
 3602              	 .cfi_def_cfa_offset 4
 3603              	 .cfi_offset 4,-4
1379:../Libraries/XMCLib/src/xmc4_scu.c ****   {
1380:../Libraries/XMCLib/src/xmc4_scu.c ****     /* Wait until HDCR register in hibernate domain is ready to accept a write */    
1381:../Libraries/XMCLib/src/xmc4_scu.c ****   }
1382:../Libraries/XMCLib/src/xmc4_scu.c ****   SCU_HIBERNATE->HDCR = (SCU_HIBERNATE->HDCR & ~(SCU_HIBERNATE_HDCR_HIBIO0POL_Msk << pin)) |
 3604              	 .loc 1 1382 0
 3605 000c 074C     	 ldr r4,.L398+4
 3606 000e 4FF48053 	 mov r3,#4096
 3607 0012 E268     	 ldr r2,[r4,#12]
 3608 0014 8340     	 lsls r3,r3,r0
1383:../Libraries/XMCLib/src/xmc4_scu.c ****                         (level << pin);
 3609              	 .loc 1 1383 0
 3610 0016 8140     	 lsls r1,r1,r0
 3611              	.LVL248:
1382:../Libraries/XMCLib/src/xmc4_scu.c ****                         (level << pin);
 3612              	 .loc 1 1382 0
 3613 0018 22EA0303 	 bic r3,r2,r3
 3614 001c 1943     	 orrs r1,r1,r3
 3615 001e E160     	 str r1,[r4,#12]
1384:../Libraries/XMCLib/src/xmc4_scu.c **** }
 3616              	 .loc 1 1384 0
 3617 0020 5DF8044B 	 ldr r4,[sp],#4
 3618              	.LCFI10:
 3619              	 .cfi_restore 4
 3620              	 .cfi_def_cfa_offset 0
 3621 0024 7047     	 bx lr
 3622              	.L399:
 3623 0026 00BF     	 .align 2
 3624              	.L398:
 3625 0028 00400050 	 .word 1342193664
 3626 002c 00430050 	 .word 1342194432
 3627              	 .cfi_endproc
 3628              	.LFE254:
 3630              	 .section .text.XMC_SCU_HIB_SetInput0,"ax",%progbits
 3631              	 .align 2
 3632              	 .global XMC_SCU_HIB_SetInput0
 3633              	 .thumb
 3634              	 .thumb_func
 3636              	XMC_SCU_HIB_SetInput0:
 3637              	.LFB255:
1385:../Libraries/XMCLib/src/xmc4_scu.c **** 
1386:../Libraries/XMCLib/src/xmc4_scu.c **** void XMC_SCU_HIB_SetInput0(XMC_SCU_HIB_IO_t pin)
1387:../Libraries/XMCLib/src/xmc4_scu.c **** {
 3638              	 .loc 1 1387 0
 3639              	 .cfi_startproc
 3640              	 
 3641              	 
 3642              	 
 3643              	.LVL249:
1388:../Libraries/XMCLib/src/xmc4_scu.c ****   while((SCU_GENERAL->MIRRSTS) & SCU_GENERAL_MIRRSTS_HDCR_Msk)
 3644              	 .loc 1 1388 0
 3645 0000 074A     	 ldr r2,.L406
 3646              	.L401:
 3647              	 .loc 1 1388 0 is_stmt 0 discriminator 1
 3648 0002 D2F8C430 	 ldr r3,[r2,#196]
 3649 0006 1B07     	 lsls r3,r3,#28
 3650 0008 FBD4     	 bmi .L401
1389:../Libraries/XMCLib/src/xmc4_scu.c ****   {
1390:../Libraries/XMCLib/src/xmc4_scu.c ****     /* Wait until HDCR register in hibernate domain is ready to accept a write */    
1391:../Libraries/XMCLib/src/xmc4_scu.c ****   }
1392:../Libraries/XMCLib/src/xmc4_scu.c **** 
1393:../Libraries/XMCLib/src/xmc4_scu.c ****   if (pin == XMC_SCU_HIB_IO_0)
1394:../Libraries/XMCLib/src/xmc4_scu.c ****   {
1395:../Libraries/XMCLib/src/xmc4_scu.c ****     SCU_HIBERNATE->HDCR |= SCU_HIBERNATE_HDCR_GPI0SEL_Msk;
 3651              	 .loc 1 1395 0 is_stmt 1
 3652 000a 064A     	 ldr r2,.L406+4
 3653 000c D368     	 ldr r3,[r2,#12]
1393:../Libraries/XMCLib/src/xmc4_scu.c ****   {
 3654              	 .loc 1 1393 0
 3655 000e 18B1     	 cbz r0,.L405
1396:../Libraries/XMCLib/src/xmc4_scu.c ****   }
1397:../Libraries/XMCLib/src/xmc4_scu.c ****   else
1398:../Libraries/XMCLib/src/xmc4_scu.c ****   {
1399:../Libraries/XMCLib/src/xmc4_scu.c ****     SCU_HIBERNATE->HDCR &= ~SCU_HIBERNATE_HDCR_GPI0SEL_Msk; 
 3656              	 .loc 1 1399 0
 3657 0010 23F48063 	 bic r3,r3,#1024
 3658 0014 D360     	 str r3,[r2,#12]
 3659 0016 7047     	 bx lr
 3660              	.L405:
1395:../Libraries/XMCLib/src/xmc4_scu.c ****   }
 3661              	 .loc 1 1395 0
 3662 0018 43F48063 	 orr r3,r3,#1024
 3663 001c D360     	 str r3,[r2,#12]
 3664 001e 7047     	 bx lr
 3665              	.L407:
 3666              	 .align 2
 3667              	.L406:
 3668 0020 00400050 	 .word 1342193664
 3669 0024 00430050 	 .word 1342194432
 3670              	 .cfi_endproc
 3671              	.LFE255:
 3673              	 .section .text.XMC_SCU_HIB_SetSR0Input,"ax",%progbits
 3674              	 .align 2
 3675              	 .global XMC_SCU_HIB_SetSR0Input
 3676              	 .thumb
 3677              	 .thumb_func
 3679              	XMC_SCU_HIB_SetSR0Input:
 3680              	.LFB256:
1400:../Libraries/XMCLib/src/xmc4_scu.c ****   }
1401:../Libraries/XMCLib/src/xmc4_scu.c **** }
1402:../Libraries/XMCLib/src/xmc4_scu.c **** 
1403:../Libraries/XMCLib/src/xmc4_scu.c **** void XMC_SCU_HIB_SetSR0Input(XMC_SCU_HIB_SR0_INPUT_t input)
1404:../Libraries/XMCLib/src/xmc4_scu.c **** {
 3681              	 .loc 1 1404 0
 3682              	 .cfi_startproc
 3683              	 
 3684              	 
 3685              	 
 3686              	.LVL250:
1405:../Libraries/XMCLib/src/xmc4_scu.c ****   while((SCU_GENERAL->MIRRSTS) & SCU_GENERAL_MIRRSTS_HDCR_Msk)
 3687              	 .loc 1 1405 0
 3688 0000 054A     	 ldr r2,.L411
 3689              	.L409:
 3690              	 .loc 1 1405 0 is_stmt 0 discriminator 1
 3691 0002 D2F8C430 	 ldr r3,[r2,#196]
 3692 0006 1B07     	 lsls r3,r3,#28
 3693 0008 FBD4     	 bmi .L409
1406:../Libraries/XMCLib/src/xmc4_scu.c ****   {
1407:../Libraries/XMCLib/src/xmc4_scu.c ****     /* Wait until HDCR register in hibernate domain is ready to accept a write */
1408:../Libraries/XMCLib/src/xmc4_scu.c ****   }
1409:../Libraries/XMCLib/src/xmc4_scu.c **** #if ((UC_SERIES == XMC44) || (UC_SERIES == XMC42) || (UC_SERIES == XMC41))
1410:../Libraries/XMCLib/src/xmc4_scu.c ****   SCU_HIBERNATE->HDCR = (SCU_HIBERNATE->HDCR & (uint32_t)~(SCU_HIBERNATE_HDCR_GPI0SEL_Msk | SCU_HIB
1411:../Libraries/XMCLib/src/xmc4_scu.c **** #else
1412:../Libraries/XMCLib/src/xmc4_scu.c ****   SCU_HIBERNATE->HDCR = (SCU_HIBERNATE->HDCR & (uint32_t)~(SCU_HIBERNATE_HDCR_GPI0SEL_Msk)) | 
 3694              	 .loc 1 1412 0 is_stmt 1
 3695 000a 044A     	 ldr r2,.L411+4
 3696 000c D368     	 ldr r3,[r2,#12]
 3697 000e 23F48063 	 bic r3,r3,#1024
 3698 0012 1843     	 orrs r0,r0,r3
 3699              	.LVL251:
 3700 0014 D060     	 str r0,[r2,#12]
 3701 0016 7047     	 bx lr
 3702              	.L412:
 3703              	 .align 2
 3704              	.L411:
 3705 0018 00400050 	 .word 1342193664
 3706 001c 00430050 	 .word 1342194432
 3707              	 .cfi_endproc
 3708              	.LFE256:
 3710              	 .section .text.XMC_SCU_CLOCK_IsLowPowerOscillatorStable,"ax",%progbits
 3711              	 .align 2
 3712              	 .global XMC_SCU_CLOCK_IsLowPowerOscillatorStable
 3713              	 .thumb
 3714              	 .thumb_func
 3716              	XMC_SCU_CLOCK_IsLowPowerOscillatorStable:
 3717              	.LFB257:
1413:../Libraries/XMCLib/src/xmc4_scu.c **** #endif  
1414:../Libraries/XMCLib/src/xmc4_scu.c ****                         input;
1415:../Libraries/XMCLib/src/xmc4_scu.c **** }
1416:../Libraries/XMCLib/src/xmc4_scu.c **** 
1417:../Libraries/XMCLib/src/xmc4_scu.c **** #if ((UC_SERIES == XMC44) || (UC_SERIES == XMC42) || (UC_SERIES == XMC41))
1418:../Libraries/XMCLib/src/xmc4_scu.c **** 
1419:../Libraries/XMCLib/src/xmc4_scu.c **** #if ((UC_SERIES == XMC44) && (UC_PACKAGE == LQFP100))
1420:../Libraries/XMCLib/src/xmc4_scu.c **** void XMC_SCU_HIB_SetSR1Input(XMC_SCU_HIB_SR1_INPUT_t input)
1421:../Libraries/XMCLib/src/xmc4_scu.c **** {
1422:../Libraries/XMCLib/src/xmc4_scu.c ****   while((SCU_GENERAL->MIRRSTS) & SCU_GENERAL_MIRRSTS_HDCR_Msk)
1423:../Libraries/XMCLib/src/xmc4_scu.c ****   {
1424:../Libraries/XMCLib/src/xmc4_scu.c ****     /* Wait until HDCR register in hibernate domain is ready to accept a write */
1425:../Libraries/XMCLib/src/xmc4_scu.c ****   }
1426:../Libraries/XMCLib/src/xmc4_scu.c ****   SCU_HIBERNATE->HDCR = (SCU_HIBERNATE->HDCR & (uint32_t)~(SCU_HIBERNATE_HDCR_GPI0SEL_Msk | SCU_HIB
1427:../Libraries/XMCLib/src/xmc4_scu.c ****                         input;
1428:../Libraries/XMCLib/src/xmc4_scu.c **** }
1429:../Libraries/XMCLib/src/xmc4_scu.c **** #endif
1430:../Libraries/XMCLib/src/xmc4_scu.c **** 
1431:../Libraries/XMCLib/src/xmc4_scu.c **** void XMC_SCU_HIB_LPAC_SetInput(XMC_SCU_HIB_LPAC_INPUT_t input)
1432:../Libraries/XMCLib/src/xmc4_scu.c **** {
1433:../Libraries/XMCLib/src/xmc4_scu.c ****   while((SCU_GENERAL->MIRRSTS) & SCU_GENERAL_MIRRSTS_LPACCONF_Msk)
1434:../Libraries/XMCLib/src/xmc4_scu.c ****   {
1435:../Libraries/XMCLib/src/xmc4_scu.c ****     /* Wait until HDCR register in hibernate domain is ready to accept a write */
1436:../Libraries/XMCLib/src/xmc4_scu.c ****   }
1437:../Libraries/XMCLib/src/xmc4_scu.c ****   SCU_HIBERNATE->LPACCONF = (SCU_HIBERNATE->LPACCONF &  (uint32_t)~SCU_HIBERNATE_LPACCONF_CMPEN_Msk
1438:../Libraries/XMCLib/src/xmc4_scu.c ****                             input;
1439:../Libraries/XMCLib/src/xmc4_scu.c **** }
1440:../Libraries/XMCLib/src/xmc4_scu.c **** 
1441:../Libraries/XMCLib/src/xmc4_scu.c **** void XMC_SCU_HIB_LPAC_SetTrigger(XMC_SCU_HIB_LPAC_TRIGGER_t trigger)
1442:../Libraries/XMCLib/src/xmc4_scu.c **** {
1443:../Libraries/XMCLib/src/xmc4_scu.c ****   while((SCU_GENERAL->MIRRSTS) & SCU_GENERAL_MIRRSTS_LPACCONF_Msk)
1444:../Libraries/XMCLib/src/xmc4_scu.c ****   {
1445:../Libraries/XMCLib/src/xmc4_scu.c ****     /* Wait until HDCR register in hibernate domain is ready to accept a write */
1446:../Libraries/XMCLib/src/xmc4_scu.c ****   }
1447:../Libraries/XMCLib/src/xmc4_scu.c ****   SCU_HIBERNATE->LPACCONF = (SCU_HIBERNATE->LPACCONF &  (uint32_t)~SCU_HIBERNATE_LPACCONF_TRIGSEL_M
1448:../Libraries/XMCLib/src/xmc4_scu.c ****                             trigger;
1449:../Libraries/XMCLib/src/xmc4_scu.c **** }
1450:../Libraries/XMCLib/src/xmc4_scu.c **** 
1451:../Libraries/XMCLib/src/xmc4_scu.c **** void XMC_SCU_HIB_LPAC_SetTiming(bool enable_delay, uint16_t interval_count, uint8_t settle_count)
1452:../Libraries/XMCLib/src/xmc4_scu.c **** {
1453:../Libraries/XMCLib/src/xmc4_scu.c ****   uint32_t config = 0;
1454:../Libraries/XMCLib/src/xmc4_scu.c **** 
1455:../Libraries/XMCLib/src/xmc4_scu.c ****   if (enable_delay)
1456:../Libraries/XMCLib/src/xmc4_scu.c ****   {
1457:../Libraries/XMCLib/src/xmc4_scu.c ****     config = SCU_HIBERNATE_LPACCONF_CONVDEL_Msk;
1458:../Libraries/XMCLib/src/xmc4_scu.c ****   }
1459:../Libraries/XMCLib/src/xmc4_scu.c **** 
1460:../Libraries/XMCLib/src/xmc4_scu.c ****   config |= interval_count << SCU_HIBERNATE_LPACCONF_INTERVCNT_Pos;
1461:../Libraries/XMCLib/src/xmc4_scu.c ****   config |= settle_count << SCU_HIBERNATE_LPACCONF_SETTLECNT_Pos;
1462:../Libraries/XMCLib/src/xmc4_scu.c **** 
1463:../Libraries/XMCLib/src/xmc4_scu.c ****   while((SCU_GENERAL->MIRRSTS) & SCU_GENERAL_MIRRSTS_LPACCONF_Msk)
1464:../Libraries/XMCLib/src/xmc4_scu.c ****   {
1465:../Libraries/XMCLib/src/xmc4_scu.c ****     /* Wait until HDCR register in hibernate domain is ready to accept a write */
1466:../Libraries/XMCLib/src/xmc4_scu.c ****   }
1467:../Libraries/XMCLib/src/xmc4_scu.c **** 
1468:../Libraries/XMCLib/src/xmc4_scu.c ****   SCU_HIBERNATE->LPACCONF = (SCU_HIBERNATE->LPACCONF &  (uint32_t)~(SCU_HIBERNATE_LPACCONF_CONVDEL_
1469:../Libraries/XMCLib/src/xmc4_scu.c ****                                                                     SCU_HIBERNATE_LPACCONF_INTERVCN
1470:../Libraries/XMCLib/src/xmc4_scu.c ****                                                                     SCU_HIBERNATE_LPACCONF_SETTLECN
1471:../Libraries/XMCLib/src/xmc4_scu.c ****                             config;
1472:../Libraries/XMCLib/src/xmc4_scu.c **** 
1473:../Libraries/XMCLib/src/xmc4_scu.c **** }
1474:../Libraries/XMCLib/src/xmc4_scu.c **** 
1475:../Libraries/XMCLib/src/xmc4_scu.c **** void XMC_SCU_HIB_LPAC_SetVBATThresholds(uint8_t lower, uint8_t upper)
1476:../Libraries/XMCLib/src/xmc4_scu.c **** {
1477:../Libraries/XMCLib/src/xmc4_scu.c **** 
1478:../Libraries/XMCLib/src/xmc4_scu.c ****   while((SCU_GENERAL->MIRRSTS) & SCU_GENERAL_MIRRSTS_LPACTH0_Msk)
1479:../Libraries/XMCLib/src/xmc4_scu.c ****   {
1480:../Libraries/XMCLib/src/xmc4_scu.c ****     /* Wait until HDCR register in hibernate domain is ready to accept a write */
1481:../Libraries/XMCLib/src/xmc4_scu.c ****   }
1482:../Libraries/XMCLib/src/xmc4_scu.c **** 
1483:../Libraries/XMCLib/src/xmc4_scu.c ****   SCU_HIBERNATE->LPACTH0 = (lower << SCU_HIBERNATE_LPACTH0_VBATLO_Pos) | (upper << SCU_HIBERNATE_LP
1484:../Libraries/XMCLib/src/xmc4_scu.c **** 
1485:../Libraries/XMCLib/src/xmc4_scu.c **** 
1486:../Libraries/XMCLib/src/xmc4_scu.c **** 
1487:../Libraries/XMCLib/src/xmc4_scu.c **** }
1488:../Libraries/XMCLib/src/xmc4_scu.c **** 
1489:../Libraries/XMCLib/src/xmc4_scu.c **** void XMC_SCU_HIB_LPAC_SetHIBIO0Thresholds(uint8_t lower, uint8_t upper)
1490:../Libraries/XMCLib/src/xmc4_scu.c **** {
1491:../Libraries/XMCLib/src/xmc4_scu.c **** 
1492:../Libraries/XMCLib/src/xmc4_scu.c ****   while((SCU_GENERAL->MIRRSTS) & SCU_GENERAL_MIRRSTS_LPACTH1_Msk)
1493:../Libraries/XMCLib/src/xmc4_scu.c ****   {
1494:../Libraries/XMCLib/src/xmc4_scu.c ****     /* Wait until HDCR register in hibernate domain is ready to accept a write */
1495:../Libraries/XMCLib/src/xmc4_scu.c ****   }
1496:../Libraries/XMCLib/src/xmc4_scu.c **** 
1497:../Libraries/XMCLib/src/xmc4_scu.c ****   SCU_HIBERNATE->LPACTH1 = (SCU_HIBERNATE->LPACTH1 & (uint32_t)~(SCU_HIBERNATE_LPACTH1_AHIBIO0LO_Ms
1498:../Libraries/XMCLib/src/xmc4_scu.c ****                            (lower << SCU_HIBERNATE_LPACTH1_AHIBIO0LO_Pos) |
1499:../Libraries/XMCLib/src/xmc4_scu.c ****                            (upper << SCU_HIBERNATE_LPACTH1_AHIBIO0HI_Pos);
1500:../Libraries/XMCLib/src/xmc4_scu.c **** 
1501:../Libraries/XMCLib/src/xmc4_scu.c **** }
1502:../Libraries/XMCLib/src/xmc4_scu.c **** #if ((UC_SERIES == XMC44) && (UC_PACKAGE == LQFP100))
1503:../Libraries/XMCLib/src/xmc4_scu.c **** void XMC_SCU_HIB_LPAC_SetHIBIO1Thresholds(uint8_t lower, uint8_t upper)
1504:../Libraries/XMCLib/src/xmc4_scu.c **** {
1505:../Libraries/XMCLib/src/xmc4_scu.c **** 
1506:../Libraries/XMCLib/src/xmc4_scu.c ****   while((SCU_GENERAL->MIRRSTS) & SCU_GENERAL_MIRRSTS_LPACTH1_Msk)
1507:../Libraries/XMCLib/src/xmc4_scu.c ****   {
1508:../Libraries/XMCLib/src/xmc4_scu.c ****     /* Wait until HDCR register in hibernate domain is ready to accept a write */
1509:../Libraries/XMCLib/src/xmc4_scu.c ****   }
1510:../Libraries/XMCLib/src/xmc4_scu.c **** 
1511:../Libraries/XMCLib/src/xmc4_scu.c ****   SCU_HIBERNATE->LPACTH1 = (SCU_HIBERNATE->LPACTH1 & (uint32_t)~(SCU_HIBERNATE_LPACTH1_AHIBIO1LO_Ms
1512:../Libraries/XMCLib/src/xmc4_scu.c ****                            (lower << SCU_HIBERNATE_LPACTH1_AHIBIO1LO_Pos) |
1513:../Libraries/XMCLib/src/xmc4_scu.c ****                            (upper << SCU_HIBERNATE_LPACTH1_AHIBIO1HI_Pos);
1514:../Libraries/XMCLib/src/xmc4_scu.c **** 
1515:../Libraries/XMCLib/src/xmc4_scu.c **** }
1516:../Libraries/XMCLib/src/xmc4_scu.c **** #endif
1517:../Libraries/XMCLib/src/xmc4_scu.c **** int32_t XMC_SCU_HIB_LPAC_GetStatus(void)
1518:../Libraries/XMCLib/src/xmc4_scu.c **** {
1519:../Libraries/XMCLib/src/xmc4_scu.c ****   return SCU_HIBERNATE->LPACST;
1520:../Libraries/XMCLib/src/xmc4_scu.c **** }
1521:../Libraries/XMCLib/src/xmc4_scu.c **** 
1522:../Libraries/XMCLib/src/xmc4_scu.c **** void XMC_SCU_HIB_LPAC_ClearStatus(int32_t status)
1523:../Libraries/XMCLib/src/xmc4_scu.c **** {
1524:../Libraries/XMCLib/src/xmc4_scu.c ****   while((SCU_GENERAL->MIRRSTS) & SCU_GENERAL_MIRRSTS_LPACCLR_Msk)
1525:../Libraries/XMCLib/src/xmc4_scu.c ****   {
1526:../Libraries/XMCLib/src/xmc4_scu.c ****     /* Wait until LPACCLR register in hibernate domain is ready to accept a write */
1527:../Libraries/XMCLib/src/xmc4_scu.c ****   }
1528:../Libraries/XMCLib/src/xmc4_scu.c ****   SCU_HIBERNATE->LPACCLR = status;;
1529:../Libraries/XMCLib/src/xmc4_scu.c **** }
1530:../Libraries/XMCLib/src/xmc4_scu.c **** 
1531:../Libraries/XMCLib/src/xmc4_scu.c **** void XMC_SCU_HIB_LPAC_TriggerCompare(XMC_SCU_HIB_LPAC_INPUT_t input)
1532:../Libraries/XMCLib/src/xmc4_scu.c **** {
1533:../Libraries/XMCLib/src/xmc4_scu.c ****   while((SCU_GENERAL->MIRRSTS) & SCU_GENERAL_MIRRSTS_LPACSET_Msk)
1534:../Libraries/XMCLib/src/xmc4_scu.c ****   {
1535:../Libraries/XMCLib/src/xmc4_scu.c ****     /* Wait until LPACSET register in hibernate domain is ready to accept a write */
1536:../Libraries/XMCLib/src/xmc4_scu.c ****   }
1537:../Libraries/XMCLib/src/xmc4_scu.c **** 
1538:../Libraries/XMCLib/src/xmc4_scu.c ****   SCU_HIBERNATE->LPACSET = input;
1539:../Libraries/XMCLib/src/xmc4_scu.c **** }
1540:../Libraries/XMCLib/src/xmc4_scu.c **** 
1541:../Libraries/XMCLib/src/xmc4_scu.c **** #endif
1542:../Libraries/XMCLib/src/xmc4_scu.c **** 
1543:../Libraries/XMCLib/src/xmc4_scu.c **** bool XMC_SCU_CLOCK_IsLowPowerOscillatorStable(void)
1544:../Libraries/XMCLib/src/xmc4_scu.c **** {
 3718              	 .loc 1 1544 0
 3719              	 .cfi_startproc
 3720              	 
 3721              	 
 3722              	 
1545:../Libraries/XMCLib/src/xmc4_scu.c ****   return ((SCU_HIBERNATE->HDSTAT & SCU_HIBERNATE_HDSTAT_ULPWDG_Msk) == 0UL);
 3723              	 .loc 1 1545 0
 3724 0000 034B     	 ldr r3,.L414
 3725 0002 1868     	 ldr r0,[r3]
 3726 0004 80F00800 	 eor r0,r0,#8
1546:../Libraries/XMCLib/src/xmc4_scu.c **** }
 3727              	 .loc 1 1546 0
 3728 0008 C0F3C000 	 ubfx r0,r0,#3,#1
 3729 000c 7047     	 bx lr
 3730              	.L415:
 3731 000e 00BF     	 .align 2
 3732              	.L414:
 3733 0010 00430050 	 .word 1342194432
 3734              	 .cfi_endproc
 3735              	.LFE257:
 3737              	 .section .text.XMC_SCU_CLOCK_EnableLowPowerOscillator,"ax",%progbits
 3738              	 .align 2
 3739              	 .global XMC_SCU_CLOCK_EnableLowPowerOscillator
 3740              	 .thumb
 3741              	 .thumb_func
 3743              	XMC_SCU_CLOCK_EnableLowPowerOscillator:
 3744              	.LFB258:
1547:../Libraries/XMCLib/src/xmc4_scu.c **** 
1548:../Libraries/XMCLib/src/xmc4_scu.c **** /* API to configure the 32khz Ultra Low Power oscillator */
1549:../Libraries/XMCLib/src/xmc4_scu.c **** void XMC_SCU_CLOCK_EnableLowPowerOscillator(void)
1550:../Libraries/XMCLib/src/xmc4_scu.c **** {
 3745              	 .loc 1 1550 0
 3746              	 .cfi_startproc
 3747              	 
 3748              	 
 3749              	 
1551:../Libraries/XMCLib/src/xmc4_scu.c ****   /* Enable OSC_ULP */
1552:../Libraries/XMCLib/src/xmc4_scu.c ****   while((SCU_GENERAL->MIRRSTS) & SCU_GENERAL_MIRRSTS_OSCULCTRL_Msk)
 3750              	 .loc 1 1552 0
 3751 0000 104A     	 ldr r2,.L425
 3752              	.L417:
 3753              	 .loc 1 1552 0 is_stmt 0 discriminator 1
 3754 0002 D2F8C430 	 ldr r3,[r2,#196]
 3755 0006 1806     	 lsls r0,r3,#24
 3756 0008 FBD4     	 bmi .L417
1553:../Libraries/XMCLib/src/xmc4_scu.c ****   {
1554:../Libraries/XMCLib/src/xmc4_scu.c ****     /* Wait until no pending update to OSCULCTRL register in hibernate domain */
1555:../Libraries/XMCLib/src/xmc4_scu.c ****   }
1556:../Libraries/XMCLib/src/xmc4_scu.c ****   SCU_HIBERNATE->OSCULCTRL &= ~SCU_HIBERNATE_OSCULCTRL_MODE_Msk;
 3757              	 .loc 1 1556 0 is_stmt 1
 3758 000a 0F49     	 ldr r1,.L425+4
1557:../Libraries/XMCLib/src/xmc4_scu.c **** 
1558:../Libraries/XMCLib/src/xmc4_scu.c ****   /* Enable OSC_ULP Oscillator Watchdog*/
1559:../Libraries/XMCLib/src/xmc4_scu.c ****   while (SCU_GENERAL->MIRRSTS & SCU_GENERAL_MIRRSTS_HDCR_Msk)
 3759              	 .loc 1 1559 0
 3760 000c 0D4A     	 ldr r2,.L425
1556:../Libraries/XMCLib/src/xmc4_scu.c **** 
 3761              	 .loc 1 1556 0
 3762 000e CB69     	 ldr r3,[r1,#28]
 3763 0010 23F03003 	 bic r3,r3,#48
 3764 0014 CB61     	 str r3,[r1,#28]
 3765              	.L418:
 3766              	 .loc 1 1559 0 discriminator 1
 3767 0016 D2F8C430 	 ldr r3,[r2,#196]
 3768 001a 1907     	 lsls r1,r3,#28
 3769 001c FBD4     	 bmi .L418
1560:../Libraries/XMCLib/src/xmc4_scu.c ****   {
1561:../Libraries/XMCLib/src/xmc4_scu.c ****     /* check SCU_MIRRSTS to ensure that no transfer over serial interface is pending */
1562:../Libraries/XMCLib/src/xmc4_scu.c ****   }
1563:../Libraries/XMCLib/src/xmc4_scu.c ****   SCU_HIBERNATE->HDCR |= (uint32_t)SCU_HIBERNATE_HDCR_ULPWDGEN_Msk;
 3770              	 .loc 1 1563 0
 3771 001e 0A49     	 ldr r1,.L425+4
1564:../Libraries/XMCLib/src/xmc4_scu.c **** 
1565:../Libraries/XMCLib/src/xmc4_scu.c ****   /* Enable OSC_ULP Oscillator Watchdog*/
1566:../Libraries/XMCLib/src/xmc4_scu.c ****   while (SCU_GENERAL->MIRRSTS & SCU_GENERAL_MIRRSTS_HDSET_Msk)
 3772              	 .loc 1 1566 0
 3773 0020 084A     	 ldr r2,.L425
1563:../Libraries/XMCLib/src/xmc4_scu.c **** 
 3774              	 .loc 1 1563 0
 3775 0022 CB68     	 ldr r3,[r1,#12]
 3776 0024 43F00803 	 orr r3,r3,#8
 3777 0028 CB60     	 str r3,[r1,#12]
 3778              	.L419:
 3779              	 .loc 1 1566 0 discriminator 1
 3780 002a D2F8C430 	 ldr r3,[r2,#196]
 3781 002e 5B07     	 lsls r3,r3,#29
 3782 0030 FBD4     	 bmi .L419
1567:../Libraries/XMCLib/src/xmc4_scu.c ****   {
1568:../Libraries/XMCLib/src/xmc4_scu.c ****     /* check SCU_MIRRSTS to ensure that no transfer over serial interface is pending */
1569:../Libraries/XMCLib/src/xmc4_scu.c ****   }
1570:../Libraries/XMCLib/src/xmc4_scu.c ****   SCU_HIBERNATE->HDSET = (uint32_t)SCU_HIBERNATE_HDSET_ULPWDG_Msk;
 3783              	 .loc 1 1570 0
 3784 0032 054B     	 ldr r3,.L425+4
 3785              	.LBB176:
 3786              	.LBB177:
 428:C:/Users/Utente/Desktop/Tesi/Firmware_Software/DAVE project/S2GLP_Pulsed_Doppler/Libraries/XMCLib/inc\xmc_scu.h **** }
 429:C:/Users/Utente/Desktop/Tesi/Firmware_Software/DAVE project/S2GLP_Pulsed_Doppler/Libraries/XMCLib/inc\xmc_scu.h **** 
 430:C:/Users/Utente/Desktop/Tesi/Firmware_Software/DAVE project/S2GLP_Pulsed_Doppler/Libraries/XMCLib/inc\xmc_scu.h **** /**
 431:C:/Users/Utente/Desktop/Tesi/Firmware_Software/DAVE project/S2GLP_Pulsed_Doppler/Libraries/XMCLib/inc\xmc_scu.h ****  * @return uint32_t  Value of peripheral clock frequency in Hertz.
 432:C:/Users/Utente/Desktop/Tesi/Firmware_Software/DAVE project/S2GLP_Pulsed_Doppler/Libraries/XMCLib/inc\xmc_scu.h ****  *
 433:C:/Users/Utente/Desktop/Tesi/Firmware_Software/DAVE project/S2GLP_Pulsed_Doppler/Libraries/XMCLib/inc\xmc_scu.h ****  * \par<b>Description</b><br>
 434:C:/Users/Utente/Desktop/Tesi/Firmware_Software/DAVE project/S2GLP_Pulsed_Doppler/Libraries/XMCLib/inc\xmc_scu.h ****  * Provides the vlaue of clock frequency at which the peripherals are working.\n\n
 435:C:/Users/Utente/Desktop/Tesi/Firmware_Software/DAVE project/S2GLP_Pulsed_Doppler/Libraries/XMCLib/inc\xmc_scu.h ****  * The value is derived from the CPU frequency. \b Range: Value is of type uint32_t. It is represen
 436:C:/Users/Utente/Desktop/Tesi/Firmware_Software/DAVE project/S2GLP_Pulsed_Doppler/Libraries/XMCLib/inc\xmc_scu.h ****  * \par<b>Related APIs:</b><BR>
 437:C:/Users/Utente/Desktop/Tesi/Firmware_Software/DAVE project/S2GLP_Pulsed_Doppler/Libraries/XMCLib/inc\xmc_scu.h ****  * XMC_SCU_CLOCK_GetCpuClockFrequency(),XMC_SCU_CLOCK_GatePeripheralClock() \n\n\n
 438:C:/Users/Utente/Desktop/Tesi/Firmware_Software/DAVE project/S2GLP_Pulsed_Doppler/Libraries/XMCLib/inc\xmc_scu.h ****  */
 439:C:/Users/Utente/Desktop/Tesi/Firmware_Software/DAVE project/S2GLP_Pulsed_Doppler/Libraries/XMCLib/inc\xmc_scu.h **** uint32_t XMC_SCU_CLOCK_GetPeripheralClockFrequency(void); 
 440:C:/Users/Utente/Desktop/Tesi/Firmware_Software/DAVE project/S2GLP_Pulsed_Doppler/Libraries/XMCLib/inc\xmc_scu.h **** 
 441:C:/Users/Utente/Desktop/Tesi/Firmware_Software/DAVE project/S2GLP_Pulsed_Doppler/Libraries/XMCLib/inc\xmc_scu.h **** #if(UC_SERIES != XMC45)
 442:C:/Users/Utente/Desktop/Tesi/Firmware_Software/DAVE project/S2GLP_Pulsed_Doppler/Libraries/XMCLib/inc\xmc_scu.h ****  
 443:C:/Users/Utente/Desktop/Tesi/Firmware_Software/DAVE project/S2GLP_Pulsed_Doppler/Libraries/XMCLib/inc\xmc_scu.h **** /**
 444:C:/Users/Utente/Desktop/Tesi/Firmware_Software/DAVE project/S2GLP_Pulsed_Doppler/Libraries/XMCLib/inc\xmc_scu.h ****  *
 445:C:/Users/Utente/Desktop/Tesi/Firmware_Software/DAVE project/S2GLP_Pulsed_Doppler/Libraries/XMCLib/inc\xmc_scu.h ****  * @param  peripheral The peripheral for which the clock has to be gated. \b Range: Use type @ref X
 446:C:/Users/Utente/Desktop/Tesi/Firmware_Software/DAVE project/S2GLP_Pulsed_Doppler/Libraries/XMCLib/inc\xmc_scu.h ****  *                    to identify the peripheral clock to be gated.
 447:C:/Users/Utente/Desktop/Tesi/Firmware_Software/DAVE project/S2GLP_Pulsed_Doppler/Libraries/XMCLib/inc\xmc_scu.h ****  *
 448:C:/Users/Utente/Desktop/Tesi/Firmware_Software/DAVE project/S2GLP_Pulsed_Doppler/Libraries/XMCLib/inc\xmc_scu.h ****  * @return None
 449:C:/Users/Utente/Desktop/Tesi/Firmware_Software/DAVE project/S2GLP_Pulsed_Doppler/Libraries/XMCLib/inc\xmc_scu.h ****  *
 450:C:/Users/Utente/Desktop/Tesi/Firmware_Software/DAVE project/S2GLP_Pulsed_Doppler/Libraries/XMCLib/inc\xmc_scu.h ****  * \par<b>Description</b><br>
 451:C:/Users/Utente/Desktop/Tesi/Firmware_Software/DAVE project/S2GLP_Pulsed_Doppler/Libraries/XMCLib/inc\xmc_scu.h ****  * Blocks the supply of clock to the selected peripheral.\n\n
 452:C:/Users/Utente/Desktop/Tesi/Firmware_Software/DAVE project/S2GLP_Pulsed_Doppler/Libraries/XMCLib/inc\xmc_scu.h ****  * Clock gating helps in reducing the power consumption. User can selectively gate the clocks of un
 453:C:/Users/Utente/Desktop/Tesi/Firmware_Software/DAVE project/S2GLP_Pulsed_Doppler/Libraries/XMCLib/inc\xmc_scu.h ****  * \if XMC1
 454:C:/Users/Utente/Desktop/Tesi/Firmware_Software/DAVE project/S2GLP_Pulsed_Doppler/Libraries/XMCLib/inc\xmc_scu.h ****  * fPCLK is the source of clock to various peripherals. Some peripherals support clock gate. Such a
 455:C:/Users/Utente/Desktop/Tesi/Firmware_Software/DAVE project/S2GLP_Pulsed_Doppler/Libraries/XMCLib/inc\xmc_scu.h ****  * the clock supply for the selected peripheral.
 456:C:/Users/Utente/Desktop/Tesi/Firmware_Software/DAVE project/S2GLP_Pulsed_Doppler/Libraries/XMCLib/inc\xmc_scu.h ****  * Software can request for individual gating of such peripheral clocks by enabling the \a SCU_CGAT
 457:C:/Users/Utente/Desktop/Tesi/Firmware_Software/DAVE project/S2GLP_Pulsed_Doppler/Libraries/XMCLib/inc\xmc_scu.h ****  * register bit field. Every bit in \a SCU_CGATSET0 register is protected by the bit protection sch
 458:C:/Users/Utente/Desktop/Tesi/Firmware_Software/DAVE project/S2GLP_Pulsed_Doppler/Libraries/XMCLib/inc\xmc_scu.h ****  * bit fields are handled internally.
 459:C:/Users/Utente/Desktop/Tesi/Firmware_Software/DAVE project/S2GLP_Pulsed_Doppler/Libraries/XMCLib/inc\xmc_scu.h ****  * \endif
 460:C:/Users/Utente/Desktop/Tesi/Firmware_Software/DAVE project/S2GLP_Pulsed_Doppler/Libraries/XMCLib/inc\xmc_scu.h ****  * \if XMC4
 461:C:/Users/Utente/Desktop/Tesi/Firmware_Software/DAVE project/S2GLP_Pulsed_Doppler/Libraries/XMCLib/inc\xmc_scu.h ****  * fPERI is the source of clock to various peripherals. Some peripherals support clock gate. Such a
 462:C:/Users/Utente/Desktop/Tesi/Firmware_Software/DAVE project/S2GLP_Pulsed_Doppler/Libraries/XMCLib/inc\xmc_scu.h ****  * the clock supply for the selected peripheral.
 463:C:/Users/Utente/Desktop/Tesi/Firmware_Software/DAVE project/S2GLP_Pulsed_Doppler/Libraries/XMCLib/inc\xmc_scu.h ****  * Software can request for individual gating of such peripheral clocks by enabling one of the \a
 464:C:/Users/Utente/Desktop/Tesi/Firmware_Software/DAVE project/S2GLP_Pulsed_Doppler/Libraries/XMCLib/inc\xmc_scu.h ****  * SCU_CGATSET0, \a SCU_CGATSET1 or \a SCU_CGATSET2 register bitfields.
 465:C:/Users/Utente/Desktop/Tesi/Firmware_Software/DAVE project/S2GLP_Pulsed_Doppler/Libraries/XMCLib/inc\xmc_scu.h ****  * 
 466:C:/Users/Utente/Desktop/Tesi/Firmware_Software/DAVE project/S2GLP_Pulsed_Doppler/Libraries/XMCLib/inc\xmc_scu.h ****  * \endif
 467:C:/Users/Utente/Desktop/Tesi/Firmware_Software/DAVE project/S2GLP_Pulsed_Doppler/Libraries/XMCLib/inc\xmc_scu.h ****  * Note: Clock gating shall not be activated unless the module is in reset state. So use \a
 468:C:/Users/Utente/Desktop/Tesi/Firmware_Software/DAVE project/S2GLP_Pulsed_Doppler/Libraries/XMCLib/inc\xmc_scu.h ****  * XMC_SCU_CLOCK_IsPeripheralClockGated() API before enabling the gating of any peripheral.
 469:C:/Users/Utente/Desktop/Tesi/Firmware_Software/DAVE project/S2GLP_Pulsed_Doppler/Libraries/XMCLib/inc\xmc_scu.h ****  * \par<b>Related APIs:</b><BR>
 470:C:/Users/Utente/Desktop/Tesi/Firmware_Software/DAVE project/S2GLP_Pulsed_Doppler/Libraries/XMCLib/inc\xmc_scu.h ****  * XMC_SCU_CLOCK_IsPeripheralClockGated(), XMC_SCU_CLOCK_UngatePeripheralClock() \n\n\n
 471:C:/Users/Utente/Desktop/Tesi/Firmware_Software/DAVE project/S2GLP_Pulsed_Doppler/Libraries/XMCLib/inc\xmc_scu.h ****  */
 472:C:/Users/Utente/Desktop/Tesi/Firmware_Software/DAVE project/S2GLP_Pulsed_Doppler/Libraries/XMCLib/inc\xmc_scu.h **** void XMC_SCU_CLOCK_GatePeripheralClock(const XMC_SCU_PERIPHERAL_CLOCK_t peripheral);
 473:C:/Users/Utente/Desktop/Tesi/Firmware_Software/DAVE project/S2GLP_Pulsed_Doppler/Libraries/XMCLib/inc\xmc_scu.h ****  
 474:C:/Users/Utente/Desktop/Tesi/Firmware_Software/DAVE project/S2GLP_Pulsed_Doppler/Libraries/XMCLib/inc\xmc_scu.h **** /**
 475:C:/Users/Utente/Desktop/Tesi/Firmware_Software/DAVE project/S2GLP_Pulsed_Doppler/Libraries/XMCLib/inc\xmc_scu.h ****  *
 476:C:/Users/Utente/Desktop/Tesi/Firmware_Software/DAVE project/S2GLP_Pulsed_Doppler/Libraries/XMCLib/inc\xmc_scu.h ****  * @param  peripheral  The peripheral for which the clock has to be ungated. \b Range: Use type @re
 477:C:/Users/Utente/Desktop/Tesi/Firmware_Software/DAVE project/S2GLP_Pulsed_Doppler/Libraries/XMCLib/inc\xmc_scu.h ****  *                    to identify the peripheral.
 478:C:/Users/Utente/Desktop/Tesi/Firmware_Software/DAVE project/S2GLP_Pulsed_Doppler/Libraries/XMCLib/inc\xmc_scu.h ****  *
 479:C:/Users/Utente/Desktop/Tesi/Firmware_Software/DAVE project/S2GLP_Pulsed_Doppler/Libraries/XMCLib/inc\xmc_scu.h ****  * @return None
 480:C:/Users/Utente/Desktop/Tesi/Firmware_Software/DAVE project/S2GLP_Pulsed_Doppler/Libraries/XMCLib/inc\xmc_scu.h ****  *
 481:C:/Users/Utente/Desktop/Tesi/Firmware_Software/DAVE project/S2GLP_Pulsed_Doppler/Libraries/XMCLib/inc\xmc_scu.h ****  * \par<b>Description</b><br>
 482:C:/Users/Utente/Desktop/Tesi/Firmware_Software/DAVE project/S2GLP_Pulsed_Doppler/Libraries/XMCLib/inc\xmc_scu.h ****  * Enables the supply of clock to the selected peripheral.\n\n
 483:C:/Users/Utente/Desktop/Tesi/Firmware_Software/DAVE project/S2GLP_Pulsed_Doppler/Libraries/XMCLib/inc\xmc_scu.h ****  * By default when the device powers on, the peripheral clock will be gated for the 
 484:C:/Users/Utente/Desktop/Tesi/Firmware_Software/DAVE project/S2GLP_Pulsed_Doppler/Libraries/XMCLib/inc\xmc_scu.h ****  * peripherals that support clock gating.
 485:C:/Users/Utente/Desktop/Tesi/Firmware_Software/DAVE project/S2GLP_Pulsed_Doppler/Libraries/XMCLib/inc\xmc_scu.h ****  * The peripheral clock should be enabled before using it for any functionality.
 486:C:/Users/Utente/Desktop/Tesi/Firmware_Software/DAVE project/S2GLP_Pulsed_Doppler/Libraries/XMCLib/inc\xmc_scu.h ****  * \if XMC1
 487:C:/Users/Utente/Desktop/Tesi/Firmware_Software/DAVE project/S2GLP_Pulsed_Doppler/Libraries/XMCLib/inc\xmc_scu.h ****  * fPCLK is the source of clock to various peripherals. Some peripherals support clock gate.
 488:C:/Users/Utente/Desktop/Tesi/Firmware_Software/DAVE project/S2GLP_Pulsed_Doppler/Libraries/XMCLib/inc\xmc_scu.h ****  * Software can request for individual ungating of such peripheral clocks by setting respective bit
 489:C:/Users/Utente/Desktop/Tesi/Firmware_Software/DAVE project/S2GLP_Pulsed_Doppler/Libraries/XMCLib/inc\xmc_scu.h ****  * in the \a SCU_CGATCLR0 register.
 490:C:/Users/Utente/Desktop/Tesi/Firmware_Software/DAVE project/S2GLP_Pulsed_Doppler/Libraries/XMCLib/inc\xmc_scu.h ****  * \endif
 491:C:/Users/Utente/Desktop/Tesi/Firmware_Software/DAVE project/S2GLP_Pulsed_Doppler/Libraries/XMCLib/inc\xmc_scu.h ****  * \if XMC4
 492:C:/Users/Utente/Desktop/Tesi/Firmware_Software/DAVE project/S2GLP_Pulsed_Doppler/Libraries/XMCLib/inc\xmc_scu.h ****  * fPERI is the source of clock to various peripherals. Some peripherals support clock gate.
 493:C:/Users/Utente/Desktop/Tesi/Firmware_Software/DAVE project/S2GLP_Pulsed_Doppler/Libraries/XMCLib/inc\xmc_scu.h ****  * Software can request for individual ungating of such peripheral clocks by setting the respective
 494:C:/Users/Utente/Desktop/Tesi/Firmware_Software/DAVE project/S2GLP_Pulsed_Doppler/Libraries/XMCLib/inc\xmc_scu.h ****  * SCU_CGATCLR0, \a SCU_CGATCLR1 or \a SCU_CGATCLR2 registers.
 495:C:/Users/Utente/Desktop/Tesi/Firmware_Software/DAVE project/S2GLP_Pulsed_Doppler/Libraries/XMCLib/inc\xmc_scu.h ****  * \endif
 496:C:/Users/Utente/Desktop/Tesi/Firmware_Software/DAVE project/S2GLP_Pulsed_Doppler/Libraries/XMCLib/inc\xmc_scu.h ****  *
 497:C:/Users/Utente/Desktop/Tesi/Firmware_Software/DAVE project/S2GLP_Pulsed_Doppler/Libraries/XMCLib/inc\xmc_scu.h ****  * \par<b>Related APIs:</b><BR>
 498:C:/Users/Utente/Desktop/Tesi/Firmware_Software/DAVE project/S2GLP_Pulsed_Doppler/Libraries/XMCLib/inc\xmc_scu.h ****  * XMC_SCU_CLOCK_IsPeripheralClockGated(), XMC_SCU_CLOCK_GatePeripheralClock() \n\n\n
 499:C:/Users/Utente/Desktop/Tesi/Firmware_Software/DAVE project/S2GLP_Pulsed_Doppler/Libraries/XMCLib/inc\xmc_scu.h ****  */
 500:C:/Users/Utente/Desktop/Tesi/Firmware_Software/DAVE project/S2GLP_Pulsed_Doppler/Libraries/XMCLib/inc\xmc_scu.h **** void XMC_SCU_CLOCK_UngatePeripheralClock(const XMC_SCU_PERIPHERAL_CLOCK_t peripheral);
 501:C:/Users/Utente/Desktop/Tesi/Firmware_Software/DAVE project/S2GLP_Pulsed_Doppler/Libraries/XMCLib/inc\xmc_scu.h **** 
 502:C:/Users/Utente/Desktop/Tesi/Firmware_Software/DAVE project/S2GLP_Pulsed_Doppler/Libraries/XMCLib/inc\xmc_scu.h **** /**
 503:C:/Users/Utente/Desktop/Tesi/Firmware_Software/DAVE project/S2GLP_Pulsed_Doppler/Libraries/XMCLib/inc\xmc_scu.h ****  *
 504:C:/Users/Utente/Desktop/Tesi/Firmware_Software/DAVE project/S2GLP_Pulsed_Doppler/Libraries/XMCLib/inc\xmc_scu.h ****  * @param  peripheral  The peripheral for which the check for clock gating has to be done. 
 505:C:/Users/Utente/Desktop/Tesi/Firmware_Software/DAVE project/S2GLP_Pulsed_Doppler/Libraries/XMCLib/inc\xmc_scu.h ****  *                    \b Range: Use type @ref XMC_SCU_PERIPHERAL_CLOCK_t to identify the peripheral
 506:C:/Users/Utente/Desktop/Tesi/Firmware_Software/DAVE project/S2GLP_Pulsed_Doppler/Libraries/XMCLib/inc\xmc_scu.h ****  *
 507:C:/Users/Utente/Desktop/Tesi/Firmware_Software/DAVE project/S2GLP_Pulsed_Doppler/Libraries/XMCLib/inc\xmc_scu.h ****  * @return bool Status of the peripheral clock gating. \b Range: true if the peripheral clock is ga
 508:C:/Users/Utente/Desktop/Tesi/Firmware_Software/DAVE project/S2GLP_Pulsed_Doppler/Libraries/XMCLib/inc\xmc_scu.h ****  *              false if the peripheral clock ungated(gate de-asserted).
 509:C:/Users/Utente/Desktop/Tesi/Firmware_Software/DAVE project/S2GLP_Pulsed_Doppler/Libraries/XMCLib/inc\xmc_scu.h ****  *
 510:C:/Users/Utente/Desktop/Tesi/Firmware_Software/DAVE project/S2GLP_Pulsed_Doppler/Libraries/XMCLib/inc\xmc_scu.h ****  * \par<b>Description</b><br>
 511:C:/Users/Utente/Desktop/Tesi/Firmware_Software/DAVE project/S2GLP_Pulsed_Doppler/Libraries/XMCLib/inc\xmc_scu.h ****  * Gives the status of peripheral clock gating.\n\n
 512:C:/Users/Utente/Desktop/Tesi/Firmware_Software/DAVE project/S2GLP_Pulsed_Doppler/Libraries/XMCLib/inc\xmc_scu.h ****  * \if XMC1
 513:C:/Users/Utente/Desktop/Tesi/Firmware_Software/DAVE project/S2GLP_Pulsed_Doppler/Libraries/XMCLib/inc\xmc_scu.h ****  * Checks the status of peripheral clock gating using the register CGATSTAT0.
 514:C:/Users/Utente/Desktop/Tesi/Firmware_Software/DAVE project/S2GLP_Pulsed_Doppler/Libraries/XMCLib/inc\xmc_scu.h ****  * \endif
 515:C:/Users/Utente/Desktop/Tesi/Firmware_Software/DAVE project/S2GLP_Pulsed_Doppler/Libraries/XMCLib/inc\xmc_scu.h ****  * \if XMC4
 516:C:/Users/Utente/Desktop/Tesi/Firmware_Software/DAVE project/S2GLP_Pulsed_Doppler/Libraries/XMCLib/inc\xmc_scu.h ****  * Checks the status of peripheral clock gating using one of CGATSTAT0, CGATSTAT1 or CGATSTAT2 regi
 517:C:/Users/Utente/Desktop/Tesi/Firmware_Software/DAVE project/S2GLP_Pulsed_Doppler/Libraries/XMCLib/inc\xmc_scu.h ****  * \endif
 518:C:/Users/Utente/Desktop/Tesi/Firmware_Software/DAVE project/S2GLP_Pulsed_Doppler/Libraries/XMCLib/inc\xmc_scu.h ****  * It is recommended to use this API before
 519:C:/Users/Utente/Desktop/Tesi/Firmware_Software/DAVE project/S2GLP_Pulsed_Doppler/Libraries/XMCLib/inc\xmc_scu.h ****  * enabling the gating of any peripherals through \a XMC_SCU_CLOCK_GatePeripheralClock() API.
 520:C:/Users/Utente/Desktop/Tesi/Firmware_Software/DAVE project/S2GLP_Pulsed_Doppler/Libraries/XMCLib/inc\xmc_scu.h ****  *
 521:C:/Users/Utente/Desktop/Tesi/Firmware_Software/DAVE project/S2GLP_Pulsed_Doppler/Libraries/XMCLib/inc\xmc_scu.h ****  * \par<b>Related APIs:</b><BR>
 522:C:/Users/Utente/Desktop/Tesi/Firmware_Software/DAVE project/S2GLP_Pulsed_Doppler/Libraries/XMCLib/inc\xmc_scu.h ****  * XMC_SCU_CLOCK_UngatePeripheralClock(), XMC_SCU_CLOCK_GatePeripheralClock() \n\n\n
 523:C:/Users/Utente/Desktop/Tesi/Firmware_Software/DAVE project/S2GLP_Pulsed_Doppler/Libraries/XMCLib/inc\xmc_scu.h ****  */
 524:C:/Users/Utente/Desktop/Tesi/Firmware_Software/DAVE project/S2GLP_Pulsed_Doppler/Libraries/XMCLib/inc\xmc_scu.h **** bool XMC_SCU_CLOCK_IsPeripheralClockGated(const XMC_SCU_PERIPHERAL_CLOCK_t peripheral);
 525:C:/Users/Utente/Desktop/Tesi/Firmware_Software/DAVE project/S2GLP_Pulsed_Doppler/Libraries/XMCLib/inc\xmc_scu.h **** #endif
 526:C:/Users/Utente/Desktop/Tesi/Firmware_Software/DAVE project/S2GLP_Pulsed_Doppler/Libraries/XMCLib/inc\xmc_scu.h **** 
 527:C:/Users/Utente/Desktop/Tesi/Firmware_Software/DAVE project/S2GLP_Pulsed_Doppler/Libraries/XMCLib/inc\xmc_scu.h **** 
 528:C:/Users/Utente/Desktop/Tesi/Firmware_Software/DAVE project/S2GLP_Pulsed_Doppler/Libraries/XMCLib/inc\xmc_scu.h **** /**
 529:C:/Users/Utente/Desktop/Tesi/Firmware_Software/DAVE project/S2GLP_Pulsed_Doppler/Libraries/XMCLib/inc\xmc_scu.h ****  * @return  uint32_t  Status of the register mirror update.\n
 530:C:/Users/Utente/Desktop/Tesi/Firmware_Software/DAVE project/S2GLP_Pulsed_Doppler/Libraries/XMCLib/inc\xmc_scu.h ****  *                    \b Range: Use the bit mask of the SCU_GENERAL_MIRRSTS register for the mirror
 531:C:/Users/Utente/Desktop/Tesi/Firmware_Software/DAVE project/S2GLP_Pulsed_Doppler/Libraries/XMCLib/inc\xmc_scu.h ****  *                    interest. e.g.: SCU_GENERAL_MIRRSTS_RTC_CTR_Msk. Multiple update events can b
 532:C:/Users/Utente/Desktop/Tesi/Firmware_Software/DAVE project/S2GLP_Pulsed_Doppler/Libraries/XMCLib/inc\xmc_scu.h ****  *                    using \a OR operation.
 533:C:/Users/Utente/Desktop/Tesi/Firmware_Software/DAVE project/S2GLP_Pulsed_Doppler/Libraries/XMCLib/inc\xmc_scu.h ****  *
 534:C:/Users/Utente/Desktop/Tesi/Firmware_Software/DAVE project/S2GLP_Pulsed_Doppler/Libraries/XMCLib/inc\xmc_scu.h ****  * \par<b>Description</b><br>
 535:C:/Users/Utente/Desktop/Tesi/Firmware_Software/DAVE project/S2GLP_Pulsed_Doppler/Libraries/XMCLib/inc\xmc_scu.h ****  * Provides the status of hibernate domain register update, when the respective mirror registers ar
 536:C:/Users/Utente/Desktop/Tesi/Firmware_Software/DAVE project/S2GLP_Pulsed_Doppler/Libraries/XMCLib/inc\xmc_scu.h ****  * The hibernate domain is connected to the core domain via SPI serial communication. MIRRSTS is a 
 537:C:/Users/Utente/Desktop/Tesi/Firmware_Software/DAVE project/S2GLP_Pulsed_Doppler/Libraries/XMCLib/inc\xmc_scu.h ****  * representing the communication of changed value of a mirror register to its corresponding regist
 538:C:/Users/Utente/Desktop/Tesi/Firmware_Software/DAVE project/S2GLP_Pulsed_Doppler/Libraries/XMCLib/inc\xmc_scu.h ****  * hibernate domain. The bit fields of the register indicate
 539:C:/Users/Utente/Desktop/Tesi/Firmware_Software/DAVE project/S2GLP_Pulsed_Doppler/Libraries/XMCLib/inc\xmc_scu.h ****  * that a corresponding register of the hibernate domain is ready to accept a write or that the com
 540:C:/Users/Utente/Desktop/Tesi/Firmware_Software/DAVE project/S2GLP_Pulsed_Doppler/Libraries/XMCLib/inc\xmc_scu.h ****  * is busy with executing the previous operation.\n
 541:C:/Users/Utente/Desktop/Tesi/Firmware_Software/DAVE project/S2GLP_Pulsed_Doppler/Libraries/XMCLib/inc\xmc_scu.h ****  * Note: There is no hibernate domain in XMC1x devices. This register is retained for legacy purpos
 542:C:/Users/Utente/Desktop/Tesi/Firmware_Software/DAVE project/S2GLP_Pulsed_Doppler/Libraries/XMCLib/inc\xmc_scu.h ****  */
 543:C:/Users/Utente/Desktop/Tesi/Firmware_Software/DAVE project/S2GLP_Pulsed_Doppler/Libraries/XMCLib/inc\xmc_scu.h **** __STATIC_INLINE uint32_t XMC_SCU_GetMirrorStatus(void)
 544:C:/Users/Utente/Desktop/Tesi/Firmware_Software/DAVE project/S2GLP_Pulsed_Doppler/Libraries/XMCLib/inc\xmc_scu.h **** {
 545:C:/Users/Utente/Desktop/Tesi/Firmware_Software/DAVE project/S2GLP_Pulsed_Doppler/Libraries/XMCLib/inc\xmc_scu.h ****   return(SCU_GENERAL->MIRRSTS);
 3787              	 .loc 3 545 0
 3788 0034 034A     	 ldr r2,.L425
 3789              	.LBE177:
 3790              	.LBE176:
 3791              	 .loc 1 1570 0
 3792 0036 0821     	 movs r1,#8
 3793 0038 9960     	 str r1,[r3,#8]
 3794              	.L420:
 3795              	.LBB179:
 3796              	.LBB178:
 3797              	 .loc 3 545 0 discriminator 1
 3798 003a D2F8C430 	 ldr r3,[r2,#196]
 3799              	.LBE178:
 3800              	.LBE179:
1571:../Libraries/XMCLib/src/xmc4_scu.c **** 
1572:../Libraries/XMCLib/src/xmc4_scu.c ****   while (XMC_SCU_GetMirrorStatus() != 0)
 3801              	 .loc 1 1572 0 discriminator 1
 3802 003e 002B     	 cmp r3,#0
 3803 0040 FBD1     	 bne .L420
1573:../Libraries/XMCLib/src/xmc4_scu.c ****   {
1574:../Libraries/XMCLib/src/xmc4_scu.c ****     /* Wait until update of the stanby clock source is done in the HIB domain */    
1575:../Libraries/XMCLib/src/xmc4_scu.c ****   }
1576:../Libraries/XMCLib/src/xmc4_scu.c **** }
 3804              	 .loc 1 1576 0
 3805 0042 7047     	 bx lr
 3806              	.L426:
 3807              	 .align 2
 3808              	.L425:
 3809 0044 00400050 	 .word 1342193664
 3810 0048 00430050 	 .word 1342194432
 3811              	 .cfi_endproc
 3812              	.LFE258:
 3814              	 .section .text.XMC_SCU_CLOCK_DisableLowPowerOscillator,"ax",%progbits
 3815              	 .align 2
 3816              	 .global XMC_SCU_CLOCK_DisableLowPowerOscillator
 3817              	 .thumb
 3818              	 .thumb_func
 3820              	XMC_SCU_CLOCK_DisableLowPowerOscillator:
 3821              	.LFB259:
1577:../Libraries/XMCLib/src/xmc4_scu.c **** 
1578:../Libraries/XMCLib/src/xmc4_scu.c **** /* API to configure the 32khz Ultra Low Power oscillator */
1579:../Libraries/XMCLib/src/xmc4_scu.c **** void XMC_SCU_CLOCK_DisableLowPowerOscillator(void)
1580:../Libraries/XMCLib/src/xmc4_scu.c **** {
 3822              	 .loc 1 1580 0
 3823              	 .cfi_startproc
 3824              	 
 3825              	 
 3826              	 
1581:../Libraries/XMCLib/src/xmc4_scu.c ****   while((SCU_GENERAL->MIRRSTS) & SCU_GENERAL_MIRRSTS_OSCULCTRL_Msk)
 3827              	 .loc 1 1581 0
 3828 0000 054A     	 ldr r2,.L430
 3829              	.L428:
 3830              	 .loc 1 1581 0 is_stmt 0 discriminator 1
 3831 0002 D2F8C430 	 ldr r3,[r2,#196]
 3832 0006 1B06     	 lsls r3,r3,#24
 3833 0008 FBD4     	 bmi .L428
1582:../Libraries/XMCLib/src/xmc4_scu.c ****   {
1583:../Libraries/XMCLib/src/xmc4_scu.c ****     /* Wait until OSCULCTRL register in hibernate domain is ready to accept a write */    
1584:../Libraries/XMCLib/src/xmc4_scu.c ****   }
1585:../Libraries/XMCLib/src/xmc4_scu.c ****   SCU_HIBERNATE->OSCULCTRL |= (uint32_t)SCU_HIBERNATE_OSCULCTRL_MODE_Msk;
 3834              	 .loc 1 1585 0 is_stmt 1
 3835 000a 044A     	 ldr r2,.L430+4
 3836 000c D369     	 ldr r3,[r2,#28]
 3837 000e 43F03003 	 orr r3,r3,#48
 3838 0012 D361     	 str r3,[r2,#28]
 3839 0014 7047     	 bx lr
 3840              	.L431:
 3841 0016 00BF     	 .align 2
 3842              	.L430:
 3843 0018 00400050 	 .word 1342193664
 3844 001c 00430050 	 .word 1342194432
 3845              	 .cfi_endproc
 3846              	.LFE259:
 3848              	 .section .text.XMC_SCU_CLOCK_EnableLowPowerOscillatorGeneralPurposeInput,"ax",%progbits
 3849              	 .align 2
 3850              	 .global XMC_SCU_CLOCK_EnableLowPowerOscillatorGeneralPurposeInput
 3851              	 .thumb
 3852              	 .thumb_func
 3854              	XMC_SCU_CLOCK_EnableLowPowerOscillatorGeneralPurposeInput:
 3855              	.LFB260:
1586:../Libraries/XMCLib/src/xmc4_scu.c **** }
1587:../Libraries/XMCLib/src/xmc4_scu.c **** 
1588:../Libraries/XMCLib/src/xmc4_scu.c **** void XMC_SCU_CLOCK_EnableLowPowerOscillatorGeneralPurposeInput(void)
1589:../Libraries/XMCLib/src/xmc4_scu.c **** {
 3856              	 .loc 1 1589 0
 3857              	 .cfi_startproc
 3858              	 
 3859              	 
 3860              	 
1590:../Libraries/XMCLib/src/xmc4_scu.c ****   while((SCU_GENERAL->MIRRSTS) & SCU_GENERAL_MIRRSTS_OSCULCTRL_Msk)
 3861              	 .loc 1 1590 0
 3862 0000 054A     	 ldr r2,.L435
 3863              	.L433:
 3864              	 .loc 1 1590 0 is_stmt 0 discriminator 1
 3865 0002 D2F8C430 	 ldr r3,[r2,#196]
 3866 0006 1B06     	 lsls r3,r3,#24
 3867 0008 FBD4     	 bmi .L433
1591:../Libraries/XMCLib/src/xmc4_scu.c ****   {
1592:../Libraries/XMCLib/src/xmc4_scu.c ****     /* Wait until OSCULCTRL register in hibernate domain is ready to accept a write */    
1593:../Libraries/XMCLib/src/xmc4_scu.c ****   }
1594:../Libraries/XMCLib/src/xmc4_scu.c ****   SCU_HIBERNATE->OSCULCTRL |= SCU_HIBERNATE_OSCULCTRL_X1DEN_Msk | SCU_HIBERNATE_OSCULCTRL_MODE_Msk;
 3868              	 .loc 1 1594 0 is_stmt 1
 3869 000a 044A     	 ldr r2,.L435+4
 3870 000c D369     	 ldr r3,[r2,#28]
 3871 000e 43F03103 	 orr r3,r3,#49
 3872 0012 D361     	 str r3,[r2,#28]
 3873 0014 7047     	 bx lr
 3874              	.L436:
 3875 0016 00BF     	 .align 2
 3876              	.L435:
 3877 0018 00400050 	 .word 1342193664
 3878 001c 00430050 	 .word 1342194432
 3879              	 .cfi_endproc
 3880              	.LFE260:
 3882              	 .section .text.XMC_SCU_CLOCK_DisableLowPowerOscillatorGeneralPurposeInput,"ax",%progbits
 3883              	 .align 2
 3884              	 .global XMC_SCU_CLOCK_DisableLowPowerOscillatorGeneralPurposeInput
 3885              	 .thumb
 3886              	 .thumb_func
 3888              	XMC_SCU_CLOCK_DisableLowPowerOscillatorGeneralPurposeInput:
 3889              	.LFB261:
1595:../Libraries/XMCLib/src/xmc4_scu.c **** }
1596:../Libraries/XMCLib/src/xmc4_scu.c **** 
1597:../Libraries/XMCLib/src/xmc4_scu.c **** void XMC_SCU_CLOCK_DisableLowPowerOscillatorGeneralPurposeInput(void)
1598:../Libraries/XMCLib/src/xmc4_scu.c **** {
 3890              	 .loc 1 1598 0
 3891              	 .cfi_startproc
 3892              	 
 3893              	 
 3894              	 
1599:../Libraries/XMCLib/src/xmc4_scu.c ****   while((SCU_GENERAL->MIRRSTS) & SCU_GENERAL_MIRRSTS_OSCULCTRL_Msk)
 3895              	 .loc 1 1599 0
 3896 0000 064A     	 ldr r2,.L440
 3897              	.L438:
 3898              	 .loc 1 1599 0 is_stmt 0 discriminator 1
 3899 0002 D2F8C430 	 ldr r3,[r2,#196]
 3900 0006 1B06     	 lsls r3,r3,#24
 3901 0008 FBD4     	 bmi .L438
1600:../Libraries/XMCLib/src/xmc4_scu.c ****   {
1601:../Libraries/XMCLib/src/xmc4_scu.c ****     /* Wait until OSCULCTRL register in hibernate domain is ready to accept a write */    
1602:../Libraries/XMCLib/src/xmc4_scu.c ****   }
1603:../Libraries/XMCLib/src/xmc4_scu.c ****   SCU_HIBERNATE->OSCULCTRL = (SCU_HIBERNATE->OSCULCTRL & ~(uint32_t)(SCU_HIBERNATE_OSCULCTRL_X1DEN_
 3902              	 .loc 1 1603 0 is_stmt 1
 3903 000a 054A     	 ldr r2,.L440+4
 3904 000c D369     	 ldr r3,[r2,#28]
 3905 000e 23F03103 	 bic r3,r3,#49
 3906 0012 43F02003 	 orr r3,r3,#32
 3907 0016 D361     	 str r3,[r2,#28]
 3908 0018 7047     	 bx lr
 3909              	.L441:
 3910 001a 00BF     	 .align 2
 3911              	.L440:
 3912 001c 00400050 	 .word 1342193664
 3913 0020 00430050 	 .word 1342194432
 3914              	 .cfi_endproc
 3915              	.LFE261:
 3917              	 .section .text.XMC_SCU_CLOCK_GetLowPowerOscillatorGeneralPurposeInputStatus,"ax",%progbits
 3918              	 .align 2
 3919              	 .global XMC_SCU_CLOCK_GetLowPowerOscillatorGeneralPurposeInputStatus
 3920              	 .thumb
 3921              	 .thumb_func
 3923              	XMC_SCU_CLOCK_GetLowPowerOscillatorGeneralPurposeInputStatus:
 3924              	.LFB262:
1604:../Libraries/XMCLib/src/xmc4_scu.c ****                              (SCU_HIBERNATE_OSCULCTRL_MODE_OSC_POWER_DOWN << SCU_HIBERNATE_OSCULCTR
1605:../Libraries/XMCLib/src/xmc4_scu.c **** }
1606:../Libraries/XMCLib/src/xmc4_scu.c **** 
1607:../Libraries/XMCLib/src/xmc4_scu.c **** uint32_t XMC_SCU_CLOCK_GetLowPowerOscillatorGeneralPurposeInputStatus(void)
1608:../Libraries/XMCLib/src/xmc4_scu.c **** {
 3925              	 .loc 1 1608 0
 3926              	 .cfi_startproc
 3927              	 
 3928              	 
 3929              	 
1609:../Libraries/XMCLib/src/xmc4_scu.c ****   return (SCU_HIBERNATE->OSCULSTAT & SCU_HIBERNATE_OSCULSTAT_X1D_Msk);
 3930              	 .loc 1 1609 0
 3931 0000 024B     	 ldr r3,.L443
 3932 0002 9869     	 ldr r0,[r3,#24]
1610:../Libraries/XMCLib/src/xmc4_scu.c **** }
 3933              	 .loc 1 1610 0
 3934 0004 00F00100 	 and r0,r0,#1
 3935 0008 7047     	 bx lr
 3936              	.L444:
 3937 000a 00BF     	 .align 2
 3938              	.L443:
 3939 000c 00430050 	 .word 1342194432
 3940              	 .cfi_endproc
 3941              	.LFE262:
 3943              	 .section .text.XMC_SCU_CLOCK_EnableHighPerformanceOscillator,"ax",%progbits
 3944              	 .align 2
 3945              	 .global XMC_SCU_CLOCK_EnableHighPerformanceOscillator
 3946              	 .thumb
 3947              	 .thumb_func
 3949              	XMC_SCU_CLOCK_EnableHighPerformanceOscillator:
 3950              	.LFB263:
1611:../Libraries/XMCLib/src/xmc4_scu.c **** 
1612:../Libraries/XMCLib/src/xmc4_scu.c **** /* API to enable High Precision High Speed oscillator */
1613:../Libraries/XMCLib/src/xmc4_scu.c **** void XMC_SCU_CLOCK_EnableHighPerformanceOscillator(void)
1614:../Libraries/XMCLib/src/xmc4_scu.c **** {
 3951              	 .loc 1 1614 0
 3952              	 .cfi_startproc
 3953              	 
 3954              	 
 3955 0000 70B5     	 push {r4,r5,r6,lr}
 3956              	.LCFI11:
 3957              	 .cfi_def_cfa_offset 16
 3958              	 .cfi_offset 4,-16
 3959              	 .cfi_offset 5,-12
 3960              	 .cfi_offset 6,-8
 3961              	 .cfi_offset 14,-4
1615:../Libraries/XMCLib/src/xmc4_scu.c ****   SCU_PLL->PLLCON0 &= (uint32_t)~SCU_PLL_PLLCON0_PLLPWD_Msk;
 3962              	 .loc 1 1615 0
 3963 0002 0D4D     	 ldr r5,.L447
1616:../Libraries/XMCLib/src/xmc4_scu.c **** 
1617:../Libraries/XMCLib/src/xmc4_scu.c ****   SCU_OSC->OSCHPCTRL = (uint32_t)((SCU_OSC->OSCHPCTRL & ~(SCU_OSC_OSCHPCTRL_MODE_Msk | SCU_OSC_OSCH
 3964              	 .loc 1 1617 0
 3965 0004 0D4E     	 ldr r6,.L447+4
1615:../Libraries/XMCLib/src/xmc4_scu.c ****   SCU_PLL->PLLCON0 &= (uint32_t)~SCU_PLL_PLLCON0_PLLPWD_Msk;
 3966              	 .loc 1 1615 0
 3967 0006 6B68     	 ldr r3,[r5,#4]
 3968 0008 23F48033 	 bic r3,r3,#65536
 3969 000c 6B60     	 str r3,[r5,#4]
 3970              	 .loc 1 1617 0
 3971 000e 7468     	 ldr r4,[r6,#4]
1618:../Libraries/XMCLib/src/xmc4_scu.c ****                                   (((OSCHP_GetFrequency() / FOSCREF) - 1UL) << SCU_OSC_OSCHPCTRL_OS
 3972              	 .loc 1 1618 0
 3973 0010 FFF7FEFF 	 bl OSCHP_GetFrequency
 3974              	.LVL252:
 3975 0014 0A4B     	 ldr r3,.L447+8
 3976 0016 A3FB0030 	 umull r3,r0,r3,r0
 3977 001a 000D     	 lsrs r0,r0,#20
1617:../Libraries/XMCLib/src/xmc4_scu.c ****                                   (((OSCHP_GetFrequency() / FOSCREF) - 1UL) << SCU_OSC_OSCHPCTRL_OS
 3978              	 .loc 1 1617 0
 3979 001c 24F47023 	 bic r3,r4,#983040
 3980 0020 23F03003 	 bic r3,r3,#48
 3981              	 .loc 1 1618 0
 3982 0024 0138     	 subs r0,r0,#1
1617:../Libraries/XMCLib/src/xmc4_scu.c ****                                   (((OSCHP_GetFrequency() / FOSCREF) - 1UL) << SCU_OSC_OSCHPCTRL_OS
 3983              	 .loc 1 1617 0
 3984 0026 43EA0043 	 orr r3,r3,r0,lsl#16
 3985 002a 7360     	 str r3,[r6,#4]
1619:../Libraries/XMCLib/src/xmc4_scu.c **** 
1620:../Libraries/XMCLib/src/xmc4_scu.c ****   /* restart OSC Watchdog */
1621:../Libraries/XMCLib/src/xmc4_scu.c ****   SCU_PLL->PLLCON0 &= (uint32_t)~SCU_PLL_PLLCON0_OSCRES_Msk;
 3986              	 .loc 1 1621 0
 3987 002c 6B68     	 ldr r3,[r5,#4]
 3988 002e 23F40033 	 bic r3,r3,#131072
 3989 0032 6B60     	 str r3,[r5,#4]
 3990 0034 70BD     	 pop {r4,r5,r6,pc}
 3991              	.L448:
 3992 0036 00BF     	 .align 2
 3993              	.L447:
 3994 0038 10470050 	 .word 1342195472
 3995 003c 00470050 	 .word 1342195456
 3996 0040 6BCA5F6B 	 .word 1801439851
 3997              	 .cfi_endproc
 3998              	.LFE263:
 4000              	 .section .text.XMC_SCU_CLOCK_IsHighPerformanceOscillatorStable,"ax",%progbits
 4001              	 .align 2
 4002              	 .global XMC_SCU_CLOCK_IsHighPerformanceOscillatorStable
 4003              	 .thumb
 4004              	 .thumb_func
 4006              	XMC_SCU_CLOCK_IsHighPerformanceOscillatorStable:
 4007              	.LFB264:
1622:../Libraries/XMCLib/src/xmc4_scu.c **** }
1623:../Libraries/XMCLib/src/xmc4_scu.c **** 
1624:../Libraries/XMCLib/src/xmc4_scu.c **** bool XMC_SCU_CLOCK_IsHighPerformanceOscillatorStable(void)
1625:../Libraries/XMCLib/src/xmc4_scu.c **** {
 4008              	 .loc 1 1625 0
 4009              	 .cfi_startproc
 4010              	 
 4011              	 
 4012              	 
1626:../Libraries/XMCLib/src/xmc4_scu.c ****   return ((SCU_PLL->PLLSTAT & XMC_SCU_PLL_PLLSTAT_OSC_USABLE) == XMC_SCU_PLL_PLLSTAT_OSC_USABLE);
 4013              	 .loc 1 1626 0
 4014 0000 044B     	 ldr r3,.L450
 4015 0002 1868     	 ldr r0,[r3]
 4016 0004 00F46070 	 and r0,r0,#896
1627:../Libraries/XMCLib/src/xmc4_scu.c **** }
 4017              	 .loc 1 1627 0
 4018 0008 A0F56070 	 sub r0,r0,#896
 4019 000c B0FA80F0 	 clz r0,r0
 4020 0010 4009     	 lsrs r0,r0,#5
 4021 0012 7047     	 bx lr
 4022              	.L451:
 4023              	 .align 2
 4024              	.L450:
 4025 0014 10470050 	 .word 1342195472
 4026              	 .cfi_endproc
 4027              	.LFE264:
 4029              	 .section .text.XMC_SCU_CLOCK_DisableHighPerformanceOscillator,"ax",%progbits
 4030              	 .align 2
 4031              	 .global XMC_SCU_CLOCK_DisableHighPerformanceOscillator
 4032              	 .thumb
 4033              	 .thumb_func
 4035              	XMC_SCU_CLOCK_DisableHighPerformanceOscillator:
 4036              	.LFB265:
1628:../Libraries/XMCLib/src/xmc4_scu.c **** 
1629:../Libraries/XMCLib/src/xmc4_scu.c **** /* API to disable High Precision High Speed oscillator */
1630:../Libraries/XMCLib/src/xmc4_scu.c **** void XMC_SCU_CLOCK_DisableHighPerformanceOscillator(void)
1631:../Libraries/XMCLib/src/xmc4_scu.c **** {
 4037              	 .loc 1 1631 0
 4038              	 .cfi_startproc
 4039              	 
 4040              	 
 4041              	 
1632:../Libraries/XMCLib/src/xmc4_scu.c ****   SCU_OSC->OSCHPCTRL |= (uint32_t)SCU_OSC_OSCHPCTRL_MODE_Msk;
 4042              	 .loc 1 1632 0
 4043 0000 024A     	 ldr r2,.L453
 4044 0002 5368     	 ldr r3,[r2,#4]
 4045 0004 43F03003 	 orr r3,r3,#48
 4046 0008 5360     	 str r3,[r2,#4]
 4047 000a 7047     	 bx lr
 4048              	.L454:
 4049              	 .align 2
 4050              	.L453:
 4051 000c 00470050 	 .word 1342195456
 4052              	 .cfi_endproc
 4053              	.LFE265:
 4055              	 .section .text.XMC_SCU_CLOCK_EnableHighPerformanceOscillatorGeneralPurposeInput,"ax",%progbits
 4056              	 .align 2
 4057              	 .global XMC_SCU_CLOCK_EnableHighPerformanceOscillatorGeneralPurposeInput
 4058              	 .thumb
 4059              	 .thumb_func
 4061              	XMC_SCU_CLOCK_EnableHighPerformanceOscillatorGeneralPurposeInput:
 4062              	.LFB266:
1633:../Libraries/XMCLib/src/xmc4_scu.c **** }
1634:../Libraries/XMCLib/src/xmc4_scu.c **** 
1635:../Libraries/XMCLib/src/xmc4_scu.c **** void XMC_SCU_CLOCK_EnableHighPerformanceOscillatorGeneralPurposeInput(void)
1636:../Libraries/XMCLib/src/xmc4_scu.c **** {
 4063              	 .loc 1 1636 0
 4064              	 .cfi_startproc
 4065              	 
 4066              	 
 4067              	 
1637:../Libraries/XMCLib/src/xmc4_scu.c ****   SCU_OSC->OSCHPCTRL |= SCU_OSC_OSCHPCTRL_X1DEN_Msk;
 4068              	 .loc 1 1637 0
 4069 0000 024A     	 ldr r2,.L456
 4070 0002 5368     	 ldr r3,[r2,#4]
 4071 0004 43F00103 	 orr r3,r3,#1
 4072 0008 5360     	 str r3,[r2,#4]
 4073 000a 7047     	 bx lr
 4074              	.L457:
 4075              	 .align 2
 4076              	.L456:
 4077 000c 00470050 	 .word 1342195456
 4078              	 .cfi_endproc
 4079              	.LFE266:
 4081              	 .section .text.XMC_SCU_CLOCK_DisableHighPerformanceOscillatorGeneralPurposeInput,"ax",%progbits
 4082              	 .align 2
 4083              	 .global XMC_SCU_CLOCK_DisableHighPerformanceOscillatorGeneralPurposeInput
 4084              	 .thumb
 4085              	 .thumb_func
 4087              	XMC_SCU_CLOCK_DisableHighPerformanceOscillatorGeneralPurposeInput:
 4088              	.LFB267:
1638:../Libraries/XMCLib/src/xmc4_scu.c **** }
1639:../Libraries/XMCLib/src/xmc4_scu.c **** 
1640:../Libraries/XMCLib/src/xmc4_scu.c **** void XMC_SCU_CLOCK_DisableHighPerformanceOscillatorGeneralPurposeInput(void)
1641:../Libraries/XMCLib/src/xmc4_scu.c **** {
 4089              	 .loc 1 1641 0
 4090              	 .cfi_startproc
 4091              	 
 4092              	 
 4093              	 
1642:../Libraries/XMCLib/src/xmc4_scu.c ****   SCU_OSC->OSCHPCTRL &= ~SCU_OSC_OSCHPCTRL_X1DEN_Msk;
 4094              	 .loc 1 1642 0
 4095 0000 024A     	 ldr r2,.L459
 4096 0002 5368     	 ldr r3,[r2,#4]
 4097 0004 23F00103 	 bic r3,r3,#1
 4098 0008 5360     	 str r3,[r2,#4]
 4099 000a 7047     	 bx lr
 4100              	.L460:
 4101              	 .align 2
 4102              	.L459:
 4103 000c 00470050 	 .word 1342195456
 4104              	 .cfi_endproc
 4105              	.LFE267:
 4107              	 .section .text.XMC_SCU_CLOCK_GetHighPerformanceOscillatorGeneralPurposeInputStatus,"ax",%progbits
 4108              	 .align 2
 4109              	 .global XMC_SCU_CLOCK_GetHighPerformanceOscillatorGeneralPurposeInputStatus
 4110              	 .thumb
 4111              	 .thumb_func
 4113              	XMC_SCU_CLOCK_GetHighPerformanceOscillatorGeneralPurposeInputStatus:
 4114              	.LFB268:
1643:../Libraries/XMCLib/src/xmc4_scu.c **** }
1644:../Libraries/XMCLib/src/xmc4_scu.c **** 
1645:../Libraries/XMCLib/src/xmc4_scu.c **** uint32_t XMC_SCU_CLOCK_GetHighPerformanceOscillatorGeneralPurposeInputStatus(void)
1646:../Libraries/XMCLib/src/xmc4_scu.c **** {
 4115              	 .loc 1 1646 0
 4116              	 .cfi_startproc
 4117              	 
 4118              	 
 4119              	 
1647:../Libraries/XMCLib/src/xmc4_scu.c ****   return (SCU_OSC->OSCHPSTAT & SCU_OSC_OSCHPSTAT_X1D_Msk);
 4120              	 .loc 1 1647 0
 4121 0000 024B     	 ldr r3,.L462
 4122 0002 1868     	 ldr r0,[r3]
1648:../Libraries/XMCLib/src/xmc4_scu.c **** }
 4123              	 .loc 1 1648 0
 4124 0004 00F00100 	 and r0,r0,#1
 4125 0008 7047     	 bx lr
 4126              	.L463:
 4127 000a 00BF     	 .align 2
 4128              	.L462:
 4129 000c 00470050 	 .word 1342195456
 4130              	 .cfi_endproc
 4131              	.LFE268:
 4133              	 .section .text.XMC_SCU_CLOCK_EnableSystemPll,"ax",%progbits
 4134              	 .align 2
 4135              	 .global XMC_SCU_CLOCK_EnableSystemPll
 4136              	 .thumb
 4137              	 .thumb_func
 4139              	XMC_SCU_CLOCK_EnableSystemPll:
 4140              	.LFB269:
1649:../Libraries/XMCLib/src/xmc4_scu.c **** 
1650:../Libraries/XMCLib/src/xmc4_scu.c **** /* API to enable main PLL */
1651:../Libraries/XMCLib/src/xmc4_scu.c **** void XMC_SCU_CLOCK_EnableSystemPll(void)
1652:../Libraries/XMCLib/src/xmc4_scu.c **** {
 4141              	 .loc 1 1652 0
 4142              	 .cfi_startproc
 4143              	 
 4144              	 
 4145              	 
1653:../Libraries/XMCLib/src/xmc4_scu.c ****   SCU_PLL->PLLCON0 &= (uint32_t)~(SCU_PLL_PLLCON0_VCOPWD_Msk | SCU_PLL_PLLCON0_PLLPWD_Msk);
 4146              	 .loc 1 1653 0
 4147 0000 034A     	 ldr r2,.L465
 4148 0002 5368     	 ldr r3,[r2,#4]
 4149 0004 23F48033 	 bic r3,r3,#65536
 4150 0008 23F00203 	 bic r3,r3,#2
 4151 000c 5360     	 str r3,[r2,#4]
 4152 000e 7047     	 bx lr
 4153              	.L466:
 4154              	 .align 2
 4155              	.L465:
 4156 0010 10470050 	 .word 1342195472
 4157              	 .cfi_endproc
 4158              	.LFE269:
 4160              	 .section .text.XMC_SCU_CLOCK_DisableSystemPll,"ax",%progbits
 4161              	 .align 2
 4162              	 .global XMC_SCU_CLOCK_DisableSystemPll
 4163              	 .thumb
 4164              	 .thumb_func
 4166              	XMC_SCU_CLOCK_DisableSystemPll:
 4167              	.LFB270:
1654:../Libraries/XMCLib/src/xmc4_scu.c **** }
1655:../Libraries/XMCLib/src/xmc4_scu.c **** 
1656:../Libraries/XMCLib/src/xmc4_scu.c **** /* API to disable main PLL */
1657:../Libraries/XMCLib/src/xmc4_scu.c **** void XMC_SCU_CLOCK_DisableSystemPll(void)
1658:../Libraries/XMCLib/src/xmc4_scu.c **** {
 4168              	 .loc 1 1658 0
 4169              	 .cfi_startproc
 4170              	 
 4171              	 
 4172              	 
1659:../Libraries/XMCLib/src/xmc4_scu.c ****   SCU_PLL->PLLCON0 |= (uint32_t)(SCU_PLL_PLLCON0_VCOPWD_Msk | SCU_PLL_PLLCON0_PLLPWD_Msk);
 4173              	 .loc 1 1659 0
 4174 0000 034A     	 ldr r2,.L468
 4175 0002 5368     	 ldr r3,[r2,#4]
 4176 0004 43F48033 	 orr r3,r3,#65536
 4177 0008 43F00203 	 orr r3,r3,#2
 4178 000c 5360     	 str r3,[r2,#4]
 4179 000e 7047     	 bx lr
 4180              	.L469:
 4181              	 .align 2
 4182              	.L468:
 4183 0010 10470050 	 .word 1342195472
 4184              	 .cfi_endproc
 4185              	.LFE270:
 4187              	 .section .text.XMC_SCU_CLOCK_StartSystemPll,"ax",%progbits
 4188              	 .align 2
 4189              	 .global XMC_SCU_CLOCK_StartSystemPll
 4190              	 .thumb
 4191              	 .thumb_func
 4193              	XMC_SCU_CLOCK_StartSystemPll:
 4194              	.LFB271:
1660:../Libraries/XMCLib/src/xmc4_scu.c **** }
1661:../Libraries/XMCLib/src/xmc4_scu.c **** 
1662:../Libraries/XMCLib/src/xmc4_scu.c **** /* API to configure main PLL */
1663:../Libraries/XMCLib/src/xmc4_scu.c **** void XMC_SCU_CLOCK_StartSystemPll(XMC_SCU_CLOCK_SYSPLLCLKSRC_t source,
1664:../Libraries/XMCLib/src/xmc4_scu.c ****                                   XMC_SCU_CLOCK_SYSPLL_MODE_t mode,
1665:../Libraries/XMCLib/src/xmc4_scu.c ****                                   uint32_t pdiv,
1666:../Libraries/XMCLib/src/xmc4_scu.c ****                                   uint32_t ndiv,
1667:../Libraries/XMCLib/src/xmc4_scu.c ****                                   uint32_t kdiv)
1668:../Libraries/XMCLib/src/xmc4_scu.c **** {
 4195              	 .loc 1 1668 0
 4196              	 .cfi_startproc
 4197              	 
 4198              	 
 4199              	.LVL253:
 4200 0000 F0B5     	 push {r4,r5,r6,r7,lr}
 4201              	.LCFI12:
 4202              	 .cfi_def_cfa_offset 20
 4203              	 .cfi_offset 4,-20
 4204              	 .cfi_offset 5,-16
 4205              	 .cfi_offset 6,-12
 4206              	 .cfi_offset 7,-8
 4207              	 .cfi_offset 14,-4
 4208 0002 83B0     	 sub sp,sp,#12
 4209              	.LCFI13:
 4210              	 .cfi_def_cfa_offset 32
 4211              	.LBB200:
 4212              	.LBB201:
 4213              	.LBB202:
 4214              	.LBB203:
 932:../Libraries/XMCLib/src/xmc4_scu.c ****   }
 4215              	 .loc 1 932 0
 4216 0004 644C     	 ldr r4,.L509
 4217              	.LBE203:
 4218              	.LBE202:
 4219              	.LBE201:
 4220              	.LBE200:
 4221              	 .loc 1 1668 0
 4222 0006 089E     	 ldr r6,[sp,#32]
 4223              	.LBB212:
 4224              	.LBB208:
 930:../Libraries/XMCLib/src/xmc4_scu.c ****   {
 4225              	 .loc 1 930 0
 4226 0008 C0B1     	 cbz r0,.L506
 936:../Libraries/XMCLib/src/xmc4_scu.c ****   }
 4227              	 .loc 1 936 0
 4228 000a E068     	 ldr r0,[r4,#12]
 4229              	.LVL254:
 4230 000c 40F48070 	 orr r0,r0,#256
 4231 0010 40F00100 	 orr r0,r0,#1
 4232              	.LBE208:
 4233              	.LBE212:
1669:../Libraries/XMCLib/src/xmc4_scu.c **** 
1670:../Libraries/XMCLib/src/xmc4_scu.c ****   uint32_t vco_frequency; /* Q10.22, max VCO frequency = 520MHz */
1671:../Libraries/XMCLib/src/xmc4_scu.c ****   uint32_t kdiv_temp;
1672:../Libraries/XMCLib/src/xmc4_scu.c **** 
1673:../Libraries/XMCLib/src/xmc4_scu.c ****   XMC_SCU_CLOCK_SetSystemPllClockSource(source);
1674:../Libraries/XMCLib/src/xmc4_scu.c **** 
1675:../Libraries/XMCLib/src/xmc4_scu.c ****   if (mode == XMC_SCU_CLOCK_SYSPLL_MODE_NORMAL)
 4234              	 .loc 1 1675 0
 4235 0014 0129     	 cmp r1,#1
 4236              	.LBB213:
 4237              	.LBB209:
 936:../Libraries/XMCLib/src/xmc4_scu.c ****   }
 4238              	 .loc 1 936 0
 4239 0016 E060     	 str r0,[r4,#12]
 4240              	.LVL255:
 4241              	.LBE209:
 4242              	.LBE213:
 4243              	 .loc 1 1675 0
 4244 0018 00F08680 	 beq .L507
 4245              	.L473:
1676:../Libraries/XMCLib/src/xmc4_scu.c ****   {
1677:../Libraries/XMCLib/src/xmc4_scu.c ****     /* Calculate initial step to be close to fOFI */
1678:../Libraries/XMCLib/src/xmc4_scu.c ****     if (source == XMC_SCU_CLOCK_SYSPLLCLKSRC_OSCHP)
1679:../Libraries/XMCLib/src/xmc4_scu.c ****     {
1680:../Libraries/XMCLib/src/xmc4_scu.c ****       vco_frequency = (OSCHP_GetFrequency() / 1000000U) << 22;
1681:../Libraries/XMCLib/src/xmc4_scu.c ****     }
1682:../Libraries/XMCLib/src/xmc4_scu.c ****     else
1683:../Libraries/XMCLib/src/xmc4_scu.c ****     {
1684:../Libraries/XMCLib/src/xmc4_scu.c ****       vco_frequency = (OFI_FREQUENCY / 1000000U) << 22;
1685:../Libraries/XMCLib/src/xmc4_scu.c ****     }
1686:../Libraries/XMCLib/src/xmc4_scu.c ****     vco_frequency = ((vco_frequency * ndiv) / pdiv);
1687:../Libraries/XMCLib/src/xmc4_scu.c ****     kdiv_temp = (vco_frequency / (OFI_FREQUENCY / 1000000U)) >> 22;
1688:../Libraries/XMCLib/src/xmc4_scu.c **** 
1689:../Libraries/XMCLib/src/xmc4_scu.c ****     /* Switch to prescaler mode */
1690:../Libraries/XMCLib/src/xmc4_scu.c ****     SCU_PLL->PLLCON0 |= (uint32_t)SCU_PLL_PLLCON0_VCOBYP_Msk;
1691:../Libraries/XMCLib/src/xmc4_scu.c **** 
1692:../Libraries/XMCLib/src/xmc4_scu.c ****     /* disconnect Oscillator from PLL */
1693:../Libraries/XMCLib/src/xmc4_scu.c ****     SCU_PLL->PLLCON0 |= (uint32_t)SCU_PLL_PLLCON0_FINDIS_Msk;
1694:../Libraries/XMCLib/src/xmc4_scu.c **** 
1695:../Libraries/XMCLib/src/xmc4_scu.c ****     /* Setup divider settings for main PLL */
1696:../Libraries/XMCLib/src/xmc4_scu.c ****     SCU_PLL->PLLCON1 = (uint32_t)((SCU_PLL->PLLCON1 & ~(SCU_PLL_PLLCON1_NDIV_Msk | SCU_PLL_PLLCON1_
1697:../Libraries/XMCLib/src/xmc4_scu.c ****                                    SCU_PLL_PLLCON1_PDIV_Msk)) | ((ndiv - 1UL) << SCU_PLL_PLLCON1_ND
1698:../Libraries/XMCLib/src/xmc4_scu.c ****                                    ((kdiv_temp - 1UL) << SCU_PLL_PLLCON1_K2DIV_Pos) |
1699:../Libraries/XMCLib/src/xmc4_scu.c ****                                    ((pdiv - 1UL)<< SCU_PLL_PLLCON1_PDIV_Pos));
1700:../Libraries/XMCLib/src/xmc4_scu.c **** 
1701:../Libraries/XMCLib/src/xmc4_scu.c ****     /* Set OSCDISCDIS, OSC clock remains connected to the VCO in case of loss of lock */
1702:../Libraries/XMCLib/src/xmc4_scu.c ****     SCU_PLL->PLLCON0 |= (uint32_t)SCU_PLL_PLLCON0_OSCDISCDIS_Msk;
1703:../Libraries/XMCLib/src/xmc4_scu.c **** 
1704:../Libraries/XMCLib/src/xmc4_scu.c ****     /* connect Oscillator to PLL */
1705:../Libraries/XMCLib/src/xmc4_scu.c ****     SCU_PLL->PLLCON0 &= (uint32_t)~SCU_PLL_PLLCON0_FINDIS_Msk;
1706:../Libraries/XMCLib/src/xmc4_scu.c **** 
1707:../Libraries/XMCLib/src/xmc4_scu.c ****     /* restart PLL Lock detection */
1708:../Libraries/XMCLib/src/xmc4_scu.c ****     SCU_PLL->PLLCON0 |= (uint32_t)SCU_PLL_PLLCON0_RESLD_Msk;
1709:../Libraries/XMCLib/src/xmc4_scu.c ****     while ((SCU_PLL->PLLSTAT & SCU_PLL_PLLSTAT_VCOLOCK_Msk) == 0U)
1710:../Libraries/XMCLib/src/xmc4_scu.c ****     {
1711:../Libraries/XMCLib/src/xmc4_scu.c ****       /* wait for PLL Lock */
1712:../Libraries/XMCLib/src/xmc4_scu.c ****     }
1713:../Libraries/XMCLib/src/xmc4_scu.c **** 
1714:../Libraries/XMCLib/src/xmc4_scu.c ****     /* Switch to normal mode */
1715:../Libraries/XMCLib/src/xmc4_scu.c ****     SCU_PLL->PLLCON0 &= (uint32_t)~SCU_PLL_PLLCON0_VCOBYP_Msk;
1716:../Libraries/XMCLib/src/xmc4_scu.c ****     while ((SCU_PLL->PLLSTAT & SCU_PLL_PLLSTAT_VCOBYST_Msk) != 0U)
1717:../Libraries/XMCLib/src/xmc4_scu.c ****     {
1718:../Libraries/XMCLib/src/xmc4_scu.c ****       /* wait for normal mode */
1719:../Libraries/XMCLib/src/xmc4_scu.c ****     }
1720:../Libraries/XMCLib/src/xmc4_scu.c **** 
1721:../Libraries/XMCLib/src/xmc4_scu.c ****     /* Ramp up PLL frequency in steps */
1722:../Libraries/XMCLib/src/xmc4_scu.c ****     kdiv_temp = (vco_frequency / 60UL) >> 22;
1723:../Libraries/XMCLib/src/xmc4_scu.c ****     if (kdiv < kdiv_temp)
1724:../Libraries/XMCLib/src/xmc4_scu.c ****     {
1725:../Libraries/XMCLib/src/xmc4_scu.c ****       XMC_SCU_CLOCK_StepSystemPllFrequency(kdiv_temp);
1726:../Libraries/XMCLib/src/xmc4_scu.c ****     }
1727:../Libraries/XMCLib/src/xmc4_scu.c **** 
1728:../Libraries/XMCLib/src/xmc4_scu.c ****     kdiv_temp = (vco_frequency / 90UL) >> 22;
1729:../Libraries/XMCLib/src/xmc4_scu.c ****     if (kdiv < kdiv_temp)
1730:../Libraries/XMCLib/src/xmc4_scu.c ****     {
1731:../Libraries/XMCLib/src/xmc4_scu.c ****       XMC_SCU_CLOCK_StepSystemPllFrequency(kdiv_temp);
1732:../Libraries/XMCLib/src/xmc4_scu.c ****     }
1733:../Libraries/XMCLib/src/xmc4_scu.c **** 
1734:../Libraries/XMCLib/src/xmc4_scu.c ****     XMC_SCU_CLOCK_StepSystemPllFrequency(kdiv);
1735:../Libraries/XMCLib/src/xmc4_scu.c ****   }
1736:../Libraries/XMCLib/src/xmc4_scu.c ****   else
1737:../Libraries/XMCLib/src/xmc4_scu.c ****   {
1738:../Libraries/XMCLib/src/xmc4_scu.c ****     SCU_PLL->PLLCON1 = (uint32_t)((SCU_PLL->PLLCON1 & ~SCU_PLL_PLLCON1_K1DIV_Msk) |
 4246              	 .loc 1 1738 0
 4247 001c 5E4A     	 ldr r2,.L509
 4248              	.LVL256:
 4249 001e 9368     	 ldr r3,[r2,#8]
 4250              	.LVL257:
1739:../Libraries/XMCLib/src/xmc4_scu.c ****                        ((kdiv -1UL) << SCU_PLL_PLLCON1_K1DIV_Pos));
 4251              	 .loc 1 1739 0
 4252 0020 013E     	 subs r6,r6,#1
1738:../Libraries/XMCLib/src/xmc4_scu.c ****                        ((kdiv -1UL) << SCU_PLL_PLLCON1_K1DIV_Pos));
 4253              	 .loc 1 1738 0
 4254 0022 23F07F03 	 bic r3,r3,#127
 4255 0026 1E43     	 orrs r6,r6,r3
 4256 0028 9660     	 str r6,[r2,#8]
1740:../Libraries/XMCLib/src/xmc4_scu.c **** 
1741:../Libraries/XMCLib/src/xmc4_scu.c ****     /* Switch to prescaler mode */
1742:../Libraries/XMCLib/src/xmc4_scu.c ****     SCU_PLL->PLLCON0 |= (uint32_t)SCU_PLL_PLLCON0_VCOBYP_Msk;
 4257              	 .loc 1 1742 0
 4258 002a 5368     	 ldr r3,[r2,#4]
 4259 002c 43F00103 	 orr r3,r3,#1
 4260 0030 5360     	 str r3,[r2,#4]
 4261              	.L485:
1743:../Libraries/XMCLib/src/xmc4_scu.c **** 
1744:../Libraries/XMCLib/src/xmc4_scu.c ****     while ((SCU_PLL->PLLSTAT & SCU_PLL_PLLSTAT_VCOBYST_Msk) == 0U)
 4262              	 .loc 1 1744 0 discriminator 1
 4263 0032 1368     	 ldr r3,[r2]
 4264 0034 DB07     	 lsls r3,r3,#31
 4265 0036 FCD5     	 bpl .L485
 4266              	.LVL258:
 4267              	.L470:
1745:../Libraries/XMCLib/src/xmc4_scu.c ****     {
1746:../Libraries/XMCLib/src/xmc4_scu.c ****       /* wait for prescaler mode */
1747:../Libraries/XMCLib/src/xmc4_scu.c ****     }
1748:../Libraries/XMCLib/src/xmc4_scu.c ****   }
1749:../Libraries/XMCLib/src/xmc4_scu.c **** }
 4268              	 .loc 1 1749 0
 4269 0038 03B0     	 add sp,sp,#12
 4270              	.LCFI14:
 4271              	 .cfi_remember_state
 4272              	 .cfi_def_cfa_offset 20
 4273              	 
 4274 003a F0BD     	 pop {r4,r5,r6,r7,pc}
 4275              	.LVL259:
 4276              	.L506:
 4277              	.LCFI15:
 4278              	 .cfi_restore_state
 4279              	.LBB214:
 4280              	.LBB210:
 4281              	.LBB206:
 4282              	.LBB204:
 932:../Libraries/XMCLib/src/xmc4_scu.c ****   }
 4283              	 .loc 1 932 0
 4284 003c E068     	 ldr r0,[r4,#12]
 4285              	.LVL260:
 4286 003e 20F48070 	 bic r0,r0,#256
 4287 0042 20F00100 	 bic r0,r0,#1
 4288              	.LBE204:
 4289              	.LBE206:
 4290              	.LBE210:
 4291              	.LBE214:
1675:../Libraries/XMCLib/src/xmc4_scu.c ****   {
 4292              	 .loc 1 1675 0
 4293 0046 0129     	 cmp r1,#1
 4294              	.LBB215:
 4295              	.LBB211:
 4296              	.LBB207:
 4297              	.LBB205:
 932:../Libraries/XMCLib/src/xmc4_scu.c ****   }
 4298              	 .loc 1 932 0
 4299 0048 E060     	 str r0,[r4,#12]
 4300              	.LVL261:
 4301              	.LBE205:
 4302              	.LBE207:
 4303              	.LBE211:
 4304              	.LBE215:
1675:../Libraries/XMCLib/src/xmc4_scu.c ****   {
 4305              	 .loc 1 1675 0
 4306 004a E7D1     	 bne .L473
 4307 004c 8DE80C00 	 stmia sp,{r2,r3}
 4308              	.LVL262:
 4309              	.LBB216:
 4310              	.LBB217:
1680:../Libraries/XMCLib/src/xmc4_scu.c ****     }
 4311              	 .loc 1 1680 0
 4312 0050 FFF7FEFF 	 bl OSCHP_GetFrequency
 4313              	.LVL263:
 4314 0054 514D     	 ldr r5,.L509+4
 4315 0056 A5FB0035 	 umull r3,r5,r5,r0
 4316 005a 9DE80C00 	 ldmia sp,{r2,r3}
 4317 005e AD0C     	 lsrs r5,r5,#18
 4318 0060 AD05     	 lsls r5,r5,#22
 4319              	.LVL264:
 4320              	.L474:
1690:../Libraries/XMCLib/src/xmc4_scu.c **** 
 4321              	 .loc 1 1690 0
 4322 0062 4D49     	 ldr r1,.L509
1687:../Libraries/XMCLib/src/xmc4_scu.c **** 
 4323              	 .loc 1 1687 0
 4324 0064 4E4C     	 ldr r4,.L509+8
1690:../Libraries/XMCLib/src/xmc4_scu.c **** 
 4325              	 .loc 1 1690 0
 4326 0066 4F68     	 ldr r7,[r1,#4]
1696:../Libraries/XMCLib/src/xmc4_scu.c ****                                    SCU_PLL_PLLCON1_PDIV_Msk)) | ((ndiv - 1UL) << SCU_PLL_PLLCON1_ND
 4327              	 .loc 1 1696 0
 4328 0068 4E48     	 ldr r0,.L509+12
1690:../Libraries/XMCLib/src/xmc4_scu.c **** 
 4329              	 .loc 1 1690 0
 4330 006a 47F00107 	 orr r7,r7,#1
 4331 006e 4F60     	 str r7,[r1,#4]
1693:../Libraries/XMCLib/src/xmc4_scu.c **** 
 4332              	 .loc 1 1693 0
 4333 0070 4F68     	 ldr r7,[r1,#4]
 4334 0072 47F01007 	 orr r7,r7,#16
 4335 0076 4F60     	 str r7,[r1,#4]
1696:../Libraries/XMCLib/src/xmc4_scu.c ****                                    SCU_PLL_PLLCON1_PDIV_Msk)) | ((ndiv - 1UL) << SCU_PLL_PLLCON1_ND
 4336              	 .loc 1 1696 0
 4337 0078 D1F808E0 	 ldr lr,[r1,#8]
1686:../Libraries/XMCLib/src/xmc4_scu.c ****     kdiv_temp = (vco_frequency / (OFI_FREQUENCY / 1000000U)) >> 22;
 4338              	 .loc 1 1686 0
 4339 007c 03FB05F5 	 mul r5,r3,r5
 4340              	.LVL265:
1699:../Libraries/XMCLib/src/xmc4_scu.c **** 
 4341              	 .loc 1 1699 0
 4342 0080 571E     	 subs r7,r2,#1
1686:../Libraries/XMCLib/src/xmc4_scu.c ****     kdiv_temp = (vco_frequency / (OFI_FREQUENCY / 1000000U)) >> 22;
 4343              	 .loc 1 1686 0
 4344 0082 B5FBF2F5 	 udiv r5,r5,r2
 4345              	.LVL266:
1696:../Libraries/XMCLib/src/xmc4_scu.c ****                                    SCU_PLL_PLLCON1_PDIV_Msk)) | ((ndiv - 1UL) << SCU_PLL_PLLCON1_ND
 4346              	 .loc 1 1696 0
 4347 0086 0EEA0000 	 and r0,lr,r0
1687:../Libraries/XMCLib/src/xmc4_scu.c **** 
 4348              	 .loc 1 1687 0
 4349 008a A4FB0542 	 umull r4,r2,r4,r5
 4350 008e 40EA0760 	 orr r0,r0,r7,lsl#24
1697:../Libraries/XMCLib/src/xmc4_scu.c ****                                    ((kdiv_temp - 1UL) << SCU_PLL_PLLCON1_K2DIV_Pos) |
 4351              	 .loc 1 1697 0
 4352 0092 5C1E     	 subs r4,r3,#1
1687:../Libraries/XMCLib/src/xmc4_scu.c **** 
 4353              	 .loc 1 1687 0
 4354 0094 930E     	 lsrs r3,r2,#26
 4355 0096 40EA0420 	 orr r0,r0,r4,lsl#8
1698:../Libraries/XMCLib/src/xmc4_scu.c ****                                    ((pdiv - 1UL)<< SCU_PLL_PLLCON1_PDIV_Pos));
 4356              	 .loc 1 1698 0
 4357 009a 013B     	 subs r3,r3,#1
1696:../Libraries/XMCLib/src/xmc4_scu.c ****                                    SCU_PLL_PLLCON1_PDIV_Msk)) | ((ndiv - 1UL) << SCU_PLL_PLLCON1_ND
 4358              	 .loc 1 1696 0
 4359 009c 40EA0343 	 orr r3,r0,r3,lsl#16
 4360 00a0 8B60     	 str r3,[r1,#8]
1702:../Libraries/XMCLib/src/xmc4_scu.c **** 
 4361              	 .loc 1 1702 0
 4362 00a2 4B68     	 ldr r3,[r1,#4]
 4363 00a4 43F04003 	 orr r3,r3,#64
 4364 00a8 4B60     	 str r3,[r1,#4]
1705:../Libraries/XMCLib/src/xmc4_scu.c **** 
 4365              	 .loc 1 1705 0
 4366 00aa 4B68     	 ldr r3,[r1,#4]
 4367 00ac 23F01003 	 bic r3,r3,#16
 4368 00b0 4B60     	 str r3,[r1,#4]
1708:../Libraries/XMCLib/src/xmc4_scu.c ****     while ((SCU_PLL->PLLSTAT & SCU_PLL_PLLSTAT_VCOLOCK_Msk) == 0U)
 4369              	 .loc 1 1708 0
 4370 00b2 4B68     	 ldr r3,[r1,#4]
 4371 00b4 43F48023 	 orr r3,r3,#262144
 4372 00b8 4B60     	 str r3,[r1,#4]
 4373              	.L475:
1709:../Libraries/XMCLib/src/xmc4_scu.c ****     {
 4374              	 .loc 1 1709 0
 4375 00ba 0868     	 ldr r0,[r1]
 4376 00bc 364B     	 ldr r3,.L509
 4377 00be 4207     	 lsls r2,r0,#29
 4378 00c0 FBD5     	 bpl .L475
1715:../Libraries/XMCLib/src/xmc4_scu.c ****     while ((SCU_PLL->PLLSTAT & SCU_PLL_PLLSTAT_VCOBYST_Msk) != 0U)
 4379              	 .loc 1 1715 0
 4380 00c2 5A68     	 ldr r2,[r3,#4]
 4381 00c4 22F00102 	 bic r2,r2,#1
 4382 00c8 5A60     	 str r2,[r3,#4]
1716:../Libraries/XMCLib/src/xmc4_scu.c ****     {
 4383              	 .loc 1 1716 0
 4384 00ca 1946     	 mov r1,r3
 4385              	.L476:
 4386 00cc 0B68     	 ldr r3,[r1]
 4387 00ce 324A     	 ldr r2,.L509
 4388 00d0 13F00104 	 ands r4,r3,#1
 4389 00d4 FAD1     	 bne .L476
1722:../Libraries/XMCLib/src/xmc4_scu.c ****     if (kdiv < kdiv_temp)
 4390              	 .loc 1 1722 0
 4391 00d6 344B     	 ldr r3,.L509+16
 4392 00d8 A3FB0513 	 umull r1,r3,r3,r5
 4393 00dc DB0E     	 lsrs r3,r3,#27
 4394              	.LVL267:
1723:../Libraries/XMCLib/src/xmc4_scu.c ****     {
 4395              	 .loc 1 1723 0
 4396 00de 9E42     	 cmp r6,r3
 4397 00e0 3FD3     	 bcc .L477
 4398 00e2 324F     	 ldr r7,.L509+20
 4399              	.LVL268:
 4400              	.L480:
1728:../Libraries/XMCLib/src/xmc4_scu.c ****     if (kdiv < kdiv_temp)
 4401              	 .loc 1 1728 0
 4402 00e4 324B     	 ldr r3,.L509+24
 4403 00e6 6D08     	 lsrs r5,r5,#1
 4404              	.LVL269:
 4405 00e8 A3FB0523 	 umull r2,r3,r3,r5
 4406 00ec DB0E     	 lsrs r3,r3,#27
 4407              	.LVL270:
1729:../Libraries/XMCLib/src/xmc4_scu.c ****     {
 4408              	 .loc 1 1729 0
 4409 00ee 9E42     	 cmp r6,r3
 4410 00f0 1DD3     	 bcc .L508
 4411              	.LVL271:
 4412              	.L479:
 4413              	.LBB218:
 4414              	.LBB219:
1750:../Libraries/XMCLib/src/xmc4_scu.c **** 
1751:../Libraries/XMCLib/src/xmc4_scu.c **** /* API to stop main PLL operation */
1752:../Libraries/XMCLib/src/xmc4_scu.c **** void XMC_SCU_CLOCK_StopSystemPll(void)
1753:../Libraries/XMCLib/src/xmc4_scu.c **** {
1754:../Libraries/XMCLib/src/xmc4_scu.c ****   SCU_PLL->PLLCON0 |= (uint32_t)SCU_PLL_PLLCON0_PLLPWD_Msk;
1755:../Libraries/XMCLib/src/xmc4_scu.c **** }
1756:../Libraries/XMCLib/src/xmc4_scu.c **** 
1757:../Libraries/XMCLib/src/xmc4_scu.c **** /* API to step up/down the main PLL frequency */
1758:../Libraries/XMCLib/src/xmc4_scu.c **** void XMC_SCU_CLOCK_StepSystemPllFrequency(uint32_t kdiv)
1759:../Libraries/XMCLib/src/xmc4_scu.c **** {
1760:../Libraries/XMCLib/src/xmc4_scu.c ****   SCU_PLL->PLLCON1 = (uint32_t)((SCU_PLL->PLLCON1 & ~SCU_PLL_PLLCON1_K2DIV_Msk) |
 4415              	 .loc 1 1760 0
 4416 00f2 294A     	 ldr r2,.L509
 4417 00f4 9368     	 ldr r3,[r2,#8]
1761:../Libraries/XMCLib/src/xmc4_scu.c ****                      ((kdiv - 1UL) << SCU_PLL_PLLCON1_K2DIV_Pos));
 4418              	 .loc 1 1761 0
 4419 00f6 013E     	 subs r6,r6,#1
 4420              	.LVL272:
1760:../Libraries/XMCLib/src/xmc4_scu.c ****                      ((kdiv - 1UL) << SCU_PLL_PLLCON1_K2DIV_Pos));
 4421              	 .loc 1 1760 0
 4422 00f8 23F4FE03 	 bic r3,r3,#8323072
 4423 00fc 43EA0646 	 orr r6,r3,r6,lsl#16
 4424              	.LVL273:
 4425 0100 9660     	 str r6,[r2,#8]
 4426              	.LVL274:
 4427              	.LBB220:
 4428              	.LBB221:
 212:../Libraries/XMCLib/src/xmc4_scu.c ****   delay =  delay * (uint32_t)(SystemCoreClock / FREQ_1MHZ);
 4429              	 .loc 1 212 0
 4430 0102 FFF7FEFF 	 bl SystemCoreClockUpdate
 4431              	.LVL275:
 213:../Libraries/XMCLib/src/xmc4_scu.c **** 
 4432              	 .loc 1 213 0
 4433 0106 3B68     	 ldr r3,[r7]
 4434 0108 244A     	 ldr r2,.L509+4
 4435 010a A2FB0332 	 umull r3,r2,r2,r3
 4436 010e 920C     	 lsrs r2,r2,#18
 4437 0110 3223     	 movs r3,#50
 4438 0112 03FB02F2 	 mul r2,r3,r2
 4439              	.LVL276:
 215:../Libraries/XMCLib/src/xmc4_scu.c ****   {
 4440              	 .loc 1 215 0
 4441 0116 0023     	 movs r3,#0
 4442 0118 002A     	 cmp r2,#0
 4443 011a 8DD0     	 beq .L470
 4444              	.LVL277:
 4445              	.L482:
 217:../Libraries/XMCLib/src/xmc4_scu.c ****   }
 4446              	 .loc 1 217 0
 4447              	
 4448 011c 00BF     	 nop
 4449              	
 215:../Libraries/XMCLib/src/xmc4_scu.c ****   {
 4450              	 .loc 1 215 0
 4451              	 .thumb
 4452 011e 0133     	 adds r3,r3,#1
 4453              	.LVL278:
 4454 0120 9342     	 cmp r3,r2
 4455 0122 FBD1     	 bne .L482
 4456              	.LBE221:
 4457              	.LBE220:
 4458              	.LBE219:
 4459              	.LBE218:
 4460              	.LBE217:
 4461              	.LBE216:
1749:../Libraries/XMCLib/src/xmc4_scu.c **** 
 4462              	 .loc 1 1749 0
 4463 0124 03B0     	 add sp,sp,#12
 4464              	.LCFI16:
 4465              	 .cfi_remember_state
 4466              	 .cfi_def_cfa_offset 20
 4467              	 
 4468 0126 F0BD     	 pop {r4,r5,r6,r7,pc}
 4469              	.LVL279:
 4470              	.L507:
 4471              	.LCFI17:
 4472              	 .cfi_restore_state
 4473              	.LBB233:
 4474              	.LBB232:
1684:../Libraries/XMCLib/src/xmc4_scu.c ****     }
 4475              	 .loc 1 1684 0
 4476 0128 4FF0C065 	 mov r5,#100663296
 4477 012c 99E7     	 b .L474
 4478              	.LVL280:
 4479              	.L508:
 4480              	.LBB222:
 4481              	.LBB223:
1760:../Libraries/XMCLib/src/xmc4_scu.c ****                      ((kdiv - 1UL) << SCU_PLL_PLLCON1_K2DIV_Pos));
 4482              	 .loc 1 1760 0
 4483 012e 1A49     	 ldr r1,.L509
 4484 0130 8A68     	 ldr r2,[r1,#8]
 4485              	 .loc 1 1761 0
 4486 0132 013B     	 subs r3,r3,#1
 4487              	.LVL281:
1760:../Libraries/XMCLib/src/xmc4_scu.c ****                      ((kdiv - 1UL) << SCU_PLL_PLLCON1_K2DIV_Pos));
 4488              	 .loc 1 1760 0
 4489 0134 22F4FE02 	 bic r2,r2,#8323072
 4490 0138 42EA0343 	 orr r3,r2,r3,lsl#16
 4491              	.LVL282:
 4492 013c 8B60     	 str r3,[r1,#8]
 4493              	.LVL283:
 4494              	.LBB224:
 4495              	.LBB225:
 212:../Libraries/XMCLib/src/xmc4_scu.c ****   delay =  delay * (uint32_t)(SystemCoreClock / FREQ_1MHZ);
 4496              	 .loc 1 212 0
 4497 013e FFF7FEFF 	 bl SystemCoreClockUpdate
 4498              	.LVL284:
 213:../Libraries/XMCLib/src/xmc4_scu.c **** 
 4499              	 .loc 1 213 0
 4500 0142 3B68     	 ldr r3,[r7]
 4501 0144 154A     	 ldr r2,.L509+4
 4502 0146 A2FB0332 	 umull r3,r2,r2,r3
 4503 014a 920C     	 lsrs r2,r2,#18
 4504 014c 3223     	 movs r3,#50
 4505 014e 03FB02F2 	 mul r2,r3,r2
 4506              	.LVL285:
 215:../Libraries/XMCLib/src/xmc4_scu.c ****   {
 4507              	 .loc 1 215 0
 4508 0152 002A     	 cmp r2,#0
 4509 0154 CDD0     	 beq .L479
 4510 0156 0023     	 movs r3,#0
 4511              	.LVL286:
 4512              	.L484:
 217:../Libraries/XMCLib/src/xmc4_scu.c ****   }
 4513              	 .loc 1 217 0
 4514              	
 4515 0158 00BF     	 nop
 4516              	
 215:../Libraries/XMCLib/src/xmc4_scu.c ****   {
 4517              	 .loc 1 215 0
 4518              	 .thumb
 4519 015a 0133     	 adds r3,r3,#1
 4520              	.LVL287:
 4521 015c 9342     	 cmp r3,r2
 4522 015e FBD1     	 bne .L484
 4523 0160 C7E7     	 b .L479
 4524              	.LVL288:
 4525              	.L477:
 4526              	.LBE225:
 4527              	.LBE224:
 4528              	.LBE223:
 4529              	.LBE222:
 4530              	.LBB226:
 4531              	.LBB227:
1760:../Libraries/XMCLib/src/xmc4_scu.c ****                      ((kdiv - 1UL) << SCU_PLL_PLLCON1_K2DIV_Pos));
 4532              	 .loc 1 1760 0
 4533 0162 9168     	 ldr r1,[r2,#8]
 4534              	.LBB228:
 4535              	.LBB229:
 213:../Libraries/XMCLib/src/xmc4_scu.c **** 
 4536              	 .loc 1 213 0
 4537 0164 114F     	 ldr r7,.L509+20
 4538              	.LBE229:
 4539              	.LBE228:
1760:../Libraries/XMCLib/src/xmc4_scu.c ****                      ((kdiv - 1UL) << SCU_PLL_PLLCON1_K2DIV_Pos));
 4540              	 .loc 1 1760 0
 4541 0166 21F4FE01 	 bic r1,r1,#8323072
 4542              	 .loc 1 1761 0
 4543 016a 013B     	 subs r3,r3,#1
 4544              	.LVL289:
1760:../Libraries/XMCLib/src/xmc4_scu.c ****                      ((kdiv - 1UL) << SCU_PLL_PLLCON1_K2DIV_Pos));
 4545              	 .loc 1 1760 0
 4546 016c 41EA0343 	 orr r3,r1,r3,lsl#16
 4547 0170 9360     	 str r3,[r2,#8]
 4548              	.LVL290:
 4549              	.LBB231:
 4550              	.LBB230:
 212:../Libraries/XMCLib/src/xmc4_scu.c ****   delay =  delay * (uint32_t)(SystemCoreClock / FREQ_1MHZ);
 4551              	 .loc 1 212 0
 4552 0172 FFF7FEFF 	 bl SystemCoreClockUpdate
 4553              	.LVL291:
 213:../Libraries/XMCLib/src/xmc4_scu.c **** 
 4554              	 .loc 1 213 0
 4555 0176 3B68     	 ldr r3,[r7]
 4556 0178 084A     	 ldr r2,.L509+4
 4557 017a A2FB0332 	 umull r3,r2,r2,r3
 4558 017e 920C     	 lsrs r2,r2,#18
 4559 0180 3223     	 movs r3,#50
 4560 0182 03FB02F2 	 mul r2,r3,r2
 4561              	.LVL292:
 215:../Libraries/XMCLib/src/xmc4_scu.c ****   {
 4562              	 .loc 1 215 0
 4563 0186 002A     	 cmp r2,#0
 4564 0188 ACD0     	 beq .L480
 4565 018a 2346     	 mov r3,r4
 4566              	.LVL293:
 4567              	.L481:
 217:../Libraries/XMCLib/src/xmc4_scu.c ****   }
 4568              	 .loc 1 217 0
 4569              	
 4570 018c 00BF     	 nop
 4571              	
 215:../Libraries/XMCLib/src/xmc4_scu.c ****   {
 4572              	 .loc 1 215 0
 4573              	 .thumb
 4574 018e 0133     	 adds r3,r3,#1
 4575              	.LVL294:
 4576 0190 9342     	 cmp r3,r2
 4577 0192 FBD1     	 bne .L481
 4578 0194 A6E7     	 b .L480
 4579              	.L510:
 4580 0196 00BF     	 .align 2
 4581              	.L509:
 4582 0198 10470050 	 .word 1342195472
 4583 019c 83DE1B43 	 .word 1125899907
 4584 01a0 ABAAAAAA 	 .word -1431655765
 4585 01a4 FF8080F0 	 .word -260013825
 4586 01a8 89888888 	 .word -2004318071
 4587 01ac 00000000 	 .word SystemCoreClock
 4588 01b0 B7600BB6 	 .word -1240768329
 4589              	.LBE230:
 4590              	.LBE231:
 4591              	.LBE227:
 4592              	.LBE226:
 4593              	.LBE232:
 4594              	.LBE233:
 4595              	 .cfi_endproc
 4596              	.LFE271:
 4598              	 .section .text.XMC_SCU_CLOCK_Init,"ax",%progbits
 4599              	 .align 2
 4600              	 .global XMC_SCU_CLOCK_Init
 4601              	 .thumb
 4602              	 .thumb_func
 4604              	XMC_SCU_CLOCK_Init:
 4605              	.LFB184:
 500:../Libraries/XMCLib/src/xmc4_scu.c ****   XMC_ASSERT("", config->fsys_clkdiv != 0);
 4606              	 .loc 1 500 0
 4607              	 .cfi_startproc
 4608              	 
 4609              	 
 4610              	.LVL295:
 4611              	.LBB274:
 4612              	.LBB275:
 901:../Libraries/XMCLib/src/xmc4_scu.c ****                       ((uint32_t)source);
 4613              	 .loc 1 901 0
 4614 0000 7749     	 ldr r1,.L566
 4615              	.LBE275:
 4616              	.LBE274:
 4617              	.LBB278:
 4618              	.LBB279:
1207:../Libraries/XMCLib/src/xmc4_scu.c ****   {
 4619              	 .loc 1 1207 0
 4620 0002 784A     	 ldr r2,.L566+4
 4621              	.LBE279:
 4622              	.LBE278:
 4623              	.LBB285:
 4624              	.LBB276:
 901:../Libraries/XMCLib/src/xmc4_scu.c ****                       ((uint32_t)source);
 4625              	 .loc 1 901 0
 4626 0004 CB68     	 ldr r3,[r1,#12]
 4627              	.LBE276:
 4628              	.LBE285:
 500:../Libraries/XMCLib/src/xmc4_scu.c ****   XMC_ASSERT("", config->fsys_clkdiv != 0);
 4629              	 .loc 1 500 0
 4630 0006 F0B5     	 push {r4,r5,r6,r7,lr}
 4631              	.LCFI18:
 4632              	 .cfi_def_cfa_offset 20
 4633              	 .cfi_offset 4,-20
 4634              	 .cfi_offset 5,-16
 4635              	 .cfi_offset 6,-12
 4636              	 .cfi_offset 7,-8
 4637              	 .cfi_offset 14,-4
 4638              	.LBB286:
 4639              	.LBB277:
 901:../Libraries/XMCLib/src/xmc4_scu.c ****                       ((uint32_t)source);
 4640              	 .loc 1 901 0
 4641 0008 23F48033 	 bic r3,r3,#65536
 4642 000c CB60     	 str r3,[r1,#12]
 4643              	.LBE277:
 4644              	.LBE286:
 4645              	.LBB287:
 4646              	.LBB282:
1207:../Libraries/XMCLib/src/xmc4_scu.c ****   {
 4647              	 .loc 1 1207 0
 4648 000e 1368     	 ldr r3,[r2]
 4649              	.LBE282:
 4650              	.LBE287:
 500:../Libraries/XMCLib/src/xmc4_scu.c ****   XMC_ASSERT("", config->fsys_clkdiv != 0);
 4651              	 .loc 1 500 0
 4652 0010 0546     	 mov r5,r0
 4653              	.LBB288:
 4654              	.LBB283:
1207:../Libraries/XMCLib/src/xmc4_scu.c ****   {
 4655              	 .loc 1 1207 0
 4656 0012 D807     	 lsls r0,r3,#31
 4657              	.LVL296:
 4658              	.LBE283:
 4659              	.LBE288:
 500:../Libraries/XMCLib/src/xmc4_scu.c ****   XMC_ASSERT("", config->fsys_clkdiv != 0);
 4660              	 .loc 1 500 0
 4661 0014 83B0     	 sub sp,sp,#12
 4662              	.LCFI19:
 4663              	 .cfi_def_cfa_offset 32
 4664              	.LBB289:
 4665              	.LBB284:
1207:../Libraries/XMCLib/src/xmc4_scu.c ****   {
 4666              	 .loc 1 1207 0
 4667 0016 04D4     	 bmi .L516
1209:../Libraries/XMCLib/src/xmc4_scu.c ****     
 4668              	 .loc 1 1209 0
 4669 0018 0123     	 movs r3,#1
 4670 001a 5360     	 str r3,[r2,#4]
 4671              	.L515:
1211:../Libraries/XMCLib/src/xmc4_scu.c ****     {
 4672              	 .loc 1 1211 0
 4673 001c 1368     	 ldr r3,[r2]
 4674 001e DB07     	 lsls r3,r3,#31
 4675 0020 FCD5     	 bpl .L515
 4676              	.L516:
1218:../Libraries/XMCLib/src/xmc4_scu.c ****   {
 4677              	 .loc 1 1218 0
 4678 0022 714A     	 ldr r2,.L566+8
 4679 0024 1368     	 ldr r3,[r2]
 4680 0026 9905     	 lsls r1,r3,#22
 4681 0028 05D5     	 bpl .L514
 4682              	.LBB280:
 4683              	.LBB281:
1220:../Libraries/XMCLib/src/xmc4_scu.c ****     while((SCU_RESET->RSTSTAT & SCU_RESET_RSTSTAT_HIBRS_Msk) != 0UL)
 4684              	 .loc 1 1220 0
 4685 002a 4FF40073 	 mov r3,#512
 4686 002e 9360     	 str r3,[r2,#8]
 4687              	.L519:
1221:../Libraries/XMCLib/src/xmc4_scu.c ****     {
 4688              	 .loc 1 1221 0
 4689 0030 1368     	 ldr r3,[r2]
 4690 0032 9F05     	 lsls r7,r3,#22
 4691 0034 FCD4     	 bmi .L519
 4692              	.L514:
 4693              	.LBE281:
 4694              	.LBE280:
 4695              	.LBE284:
 4696              	.LBE289:
 527:../Libraries/XMCLib/src/xmc4_scu.c ****   {
 4697              	 .loc 1 527 0
 4698 0036 EB79     	 ldrb r3,[r5,#7]
 4699 0038 002B     	 cmp r3,#0
 4700 003a 40F09180 	 bne .L564
 4701              	.L518:
 533:../Libraries/XMCLib/src/xmc4_scu.c ****   while (XMC_SCU_GetMirrorStatus() != 0)
 4702              	 .loc 1 533 0
 4703 003e 687A     	 ldrb r0,[r5,#9]
 4704              	.LVL297:
 4705              	.LBB290:
 4706              	.LBB291:
 955:../Libraries/XMCLib/src/xmc4_scu.c ****   {
 4707              	 .loc 1 955 0
 4708 0040 6A4A     	 ldr r2,.L566+12
 4709              	.L520:
 4710 0042 D2F8C430 	 ldr r3,[r2,#196]
 4711 0046 1B07     	 lsls r3,r3,#28
 4712 0048 FBD4     	 bmi .L520
 959:../Libraries/XMCLib/src/xmc4_scu.c ****                         ((uint32_t)source);
 4713              	 .loc 1 959 0
 4714 004a 6949     	 ldr r1,.L566+16
 4715              	.LBE291:
 4716              	.LBE290:
 4717              	.LBB293:
 4718              	.LBB294:
 4719              	 .loc 3 545 0
 4720 004c 674B     	 ldr r3,.L566+12
 4721              	.LBE294:
 4722              	.LBE293:
 4723              	.LBB296:
 4724              	.LBB292:
 959:../Libraries/XMCLib/src/xmc4_scu.c ****                         ((uint32_t)source);
 4725              	 .loc 1 959 0
 4726 004e CA68     	 ldr r2,[r1,#12]
 4727 0050 22F08002 	 bic r2,r2,#128
 4728 0054 0243     	 orrs r2,r2,r0
 4729 0056 CA60     	 str r2,[r1,#12]
 4730              	.L525:
 4731              	.LBE292:
 4732              	.LBE296:
 4733              	.LBB297:
 4734              	.LBB295:
 4735              	 .loc 3 545 0 discriminator 1
 4736 0058 D3F8C440 	 ldr r4,[r3,#196]
 4737              	.LBE295:
 4738              	.LBE297:
 534:../Libraries/XMCLib/src/xmc4_scu.c ****   {
 4739              	 .loc 1 534 0 discriminator 1
 4740 005c 002C     	 cmp r4,#0
 4741 005e FBD1     	 bne .L525
 4742              	.LBB298:
 4743              	.LBB299:
1160:../Libraries/XMCLib/src/xmc4_scu.c **** 
 4744              	 .loc 1 1160 0
 4745 0060 644A     	 ldr r2,.L566+20
 4746              	.LBE299:
 4747              	.LBE298:
 539:../Libraries/XMCLib/src/xmc4_scu.c **** 
 4748              	 .loc 1 539 0
 4749 0062 297A     	 ldrb r1,[r5,#8]
 4750              	.LVL298:
 4751              	.LBB308:
 4752              	.LBB306:
1160:../Libraries/XMCLib/src/xmc4_scu.c **** 
 4753              	 .loc 1 1160 0
 4754 0064 5368     	 ldr r3,[r2,#4]
1162:../Libraries/XMCLib/src/xmc4_scu.c ****   {
 4755              	 .loc 1 1162 0
 4756 0066 0129     	 cmp r1,#1
1160:../Libraries/XMCLib/src/xmc4_scu.c **** 
 4757              	 .loc 1 1160 0
 4758 0068 43F48013 	 orr r3,r3,#1048576
 4759 006c 5360     	 str r3,[r2,#4]
1162:../Libraries/XMCLib/src/xmc4_scu.c ****   {
 4760              	 .loc 1 1162 0
 4761 006e 00F09D80 	 beq .L559
 4762 0072 614E     	 ldr r6,.L566+24
 4763              	.LVL299:
 4764              	.L526:
 4765              	.LBB300:
 4766              	.LBB301:
 212:../Libraries/XMCLib/src/xmc4_scu.c ****   delay =  delay * (uint32_t)(SystemCoreClock / FREQ_1MHZ);
 4767              	 .loc 1 212 0
 4768 0074 FFF7FEFF 	 bl SystemCoreClockUpdate
 4769              	.LVL300:
 213:../Libraries/XMCLib/src/xmc4_scu.c **** 
 4770              	 .loc 1 213 0
 4771 0078 3368     	 ldr r3,[r6]
 4772 007a 604A     	 ldr r2,.L566+28
 4773 007c A2FB0332 	 umull r3,r2,r2,r3
 4774 0080 920C     	 lsrs r2,r2,#18
 4775 0082 6423     	 movs r3,#100
 4776 0084 03FB02F2 	 mul r2,r3,r2
 4777              	.LVL301:
 215:../Libraries/XMCLib/src/xmc4_scu.c ****   {
 4778              	 .loc 1 215 0
 4779 0088 22B1     	 cbz r2,.L529
 4780 008a 0023     	 movs r3,#0
 4781              	.LVL302:
 4782              	.L530:
 217:../Libraries/XMCLib/src/xmc4_scu.c ****   }
 4783              	 .loc 1 217 0
 4784              	
 4785 008c 00BF     	 nop
 4786              	
 215:../Libraries/XMCLib/src/xmc4_scu.c ****   {
 4787              	 .loc 1 215 0
 4788              	 .thumb
 4789 008e 0133     	 adds r3,r3,#1
 4790              	.LVL303:
 4791 0090 9342     	 cmp r3,r2
 4792 0092 FBD1     	 bne .L530
 4793              	.LVL304:
 4794              	.L529:
 4795              	.LBE301:
 4796              	.LBE300:
 4797              	.LBE306:
 4798              	.LBE308:
 4799              	.LBB309:
 4800              	.LBB310:
 969:../Libraries/XMCLib/src/xmc4_scu.c ****                       ((uint32_t)(((uint32_t)(divider - 1UL)) << SCU_CLK_SYSCLKCR_SYSDIV_Pos));
 4801              	 .loc 1 969 0
 4802 0094 524B     	 ldr r3,.L566
 4803              	.LBE310:
 4804              	.LBE309:
 541:../Libraries/XMCLib/src/xmc4_scu.c ****   XMC_SCU_CLOCK_SetCpuClockDivider((uint32_t)config->fcpu_clkdiv);
 4805              	 .loc 1 541 0
 4806 0096 2C7C     	 ldrb r4,[r5,#16]
 4807              	.LVL305:
 4808              	.LBB313:
 4809              	.LBB311:
 969:../Libraries/XMCLib/src/xmc4_scu.c ****                       ((uint32_t)(((uint32_t)(divider - 1UL)) << SCU_CLK_SYSCLKCR_SYSDIV_Pos));
 4810              	 .loc 1 969 0
 4811 0098 DA68     	 ldr r2,[r3,#12]
 4812              	.LVL306:
 4813              	.LBE311:
 4814              	.LBE313:
 546:../Libraries/XMCLib/src/xmc4_scu.c ****   {
 4815              	 .loc 1 546 0
 4816 009a A879     	 ldrb r0,[r5,#6]
 4817              	.LBB314:
 4818              	.LBB312:
 969:../Libraries/XMCLib/src/xmc4_scu.c ****                       ((uint32_t)(((uint32_t)(divider - 1UL)) << SCU_CLK_SYSCLKCR_SYSDIV_Pos));
 4819              	 .loc 1 969 0
 4820 009c 22F0FF01 	 bic r1,r2,#255
 970:../Libraries/XMCLib/src/xmc4_scu.c **** }
 4821              	 .loc 1 970 0
 4822 00a0 621E     	 subs r2,r4,#1
 969:../Libraries/XMCLib/src/xmc4_scu.c ****                       ((uint32_t)(((uint32_t)(divider - 1UL)) << SCU_CLK_SYSCLKCR_SYSDIV_Pos));
 4823              	 .loc 1 969 0
 4824 00a2 0A43     	 orrs r2,r2,r1
 4825 00a4 DA60     	 str r2,[r3,#12]
 4826              	.LVL307:
 4827              	.LBE312:
 4828              	.LBE314:
 4829              	.LBB315:
 4830              	.LBB316:
 987:../Libraries/XMCLib/src/xmc4_scu.c ****                       (uint32_t)((uint32_t)(divider - 1UL) << SCU_CLK_CPUCLKCR_CPUDIV_Pos);
 4831              	 .loc 1 987 0
 4832 00a6 1A69     	 ldr r2,[r3,#16]
 4833              	.LBE316:
 4834              	.LBE315:
 542:../Libraries/XMCLib/src/xmc4_scu.c ****   XMC_SCU_CLOCK_SetCcuClockDivider((uint32_t)config->fccu_clkdiv);
 4835              	 .loc 1 542 0
 4836 00a8 6C7C     	 ldrb r4,[r5,#17]
 4837              	.LVL308:
 4838              	.LBB318:
 4839              	.LBB317:
 987:../Libraries/XMCLib/src/xmc4_scu.c ****                       (uint32_t)((uint32_t)(divider - 1UL) << SCU_CLK_CPUCLKCR_CPUDIV_Pos);
 4840              	 .loc 1 987 0
 4841 00aa 22F00101 	 bic r1,r2,#1
 988:../Libraries/XMCLib/src/xmc4_scu.c **** }
 4842              	 .loc 1 988 0
 4843 00ae 621E     	 subs r2,r4,#1
 987:../Libraries/XMCLib/src/xmc4_scu.c ****                       (uint32_t)((uint32_t)(divider - 1UL) << SCU_CLK_CPUCLKCR_CPUDIV_Pos);
 4844              	 .loc 1 987 0
 4845 00b0 0A43     	 orrs r2,r2,r1
 4846 00b2 1A61     	 str r2,[r3,#16]
 4847              	.LVL309:
 4848              	.LBE317:
 4849              	.LBE318:
 4850              	.LBB319:
 4851              	.LBB320:
 978:../Libraries/XMCLib/src/xmc4_scu.c ****                       (uint32_t)((uint32_t)(divider - 1UL) << SCU_CLK_CCUCLKCR_CCUDIV_Pos);
 4852              	 .loc 1 978 0
 4853 00b4 1A6A     	 ldr r2,[r3,#32]
 4854              	.LBE320:
 4855              	.LBE319:
 543:../Libraries/XMCLib/src/xmc4_scu.c ****   XMC_SCU_CLOCK_SetPeripheralClockDivider((uint32_t)config->fperipheral_clkdiv);
 4856              	 .loc 1 543 0
 4857 00b6 AC7C     	 ldrb r4,[r5,#18]
 4858              	.LVL310:
 4859              	.LBB322:
 4860              	.LBB321:
 978:../Libraries/XMCLib/src/xmc4_scu.c ****                       (uint32_t)((uint32_t)(divider - 1UL) << SCU_CLK_CCUCLKCR_CCUDIV_Pos);
 4861              	 .loc 1 978 0
 4862 00b8 22F00101 	 bic r1,r2,#1
 979:../Libraries/XMCLib/src/xmc4_scu.c **** }
 4863              	 .loc 1 979 0
 4864 00bc 621E     	 subs r2,r4,#1
 978:../Libraries/XMCLib/src/xmc4_scu.c ****                       (uint32_t)((uint32_t)(divider - 1UL) << SCU_CLK_CCUCLKCR_CCUDIV_Pos);
 4865              	 .loc 1 978 0
 4866 00be 0A43     	 orrs r2,r2,r1
 4867 00c0 1A62     	 str r2,[r3,#32]
 4868              	.LVL311:
 4869              	.LBE321:
 4870              	.LBE322:
 4871              	.LBB323:
 4872              	.LBB324:
 996:../Libraries/XMCLib/src/xmc4_scu.c ****                      ((uint32_t)((uint32_t)(divider - 1UL) << SCU_CLK_PBCLKCR_PBDIV_Pos));
 4873              	 .loc 1 996 0
 4874 00c2 5A69     	 ldr r2,[r3,#20]
 4875              	.LBE324:
 4876              	.LBE323:
 544:../Libraries/XMCLib/src/xmc4_scu.c **** 
 4877              	 .loc 1 544 0
 4878 00c4 EC7C     	 ldrb r4,[r5,#19]
 4879              	.LVL312:
 4880              	.LBB326:
 4881              	.LBB325:
 996:../Libraries/XMCLib/src/xmc4_scu.c ****                      ((uint32_t)((uint32_t)(divider - 1UL) << SCU_CLK_PBCLKCR_PBDIV_Pos));
 4882              	 .loc 1 996 0
 4883 00c6 22F00101 	 bic r1,r2,#1
 997:../Libraries/XMCLib/src/xmc4_scu.c **** }
 4884              	 .loc 1 997 0
 4885 00ca 621E     	 subs r2,r4,#1
 996:../Libraries/XMCLib/src/xmc4_scu.c ****                      ((uint32_t)((uint32_t)(divider - 1UL) << SCU_CLK_PBCLKCR_PBDIV_Pos));
 4886              	 .loc 1 996 0
 4887 00cc 0A43     	 orrs r2,r2,r1
 4888 00ce 5A61     	 str r2,[r3,#20]
 4889              	.LBE325:
 4890              	.LBE326:
 546:../Libraries/XMCLib/src/xmc4_scu.c ****   {
 4891              	 .loc 1 546 0
 4892 00d0 28BB     	 cbnz r0,.L531
 4893              	.LVL313:
 4894              	.L535:
 552:../Libraries/XMCLib/src/xmc4_scu.c ****   {
 4895              	 .loc 1 552 0
 4896 00d2 E978     	 ldrb r1,[r5,#3]
 4897 00d4 A1B9     	 cbnz r1,.L565
 4898              	.LBB327:
 4899              	.LBB328:
1659:../Libraries/XMCLib/src/xmc4_scu.c **** }
 4900              	 .loc 1 1659 0
 4901 00d6 474A     	 ldr r2,.L566+20
 4902 00d8 5368     	 ldr r3,[r2,#4]
 4903 00da 43F48033 	 orr r3,r3,#65536
 4904 00de 43F00203 	 orr r3,r3,#2
 4905 00e2 5360     	 str r3,[r2,#4]
 4906              	.L536:
 4907              	.LBE328:
 4908              	.LBE327:
 568:../Libraries/XMCLib/src/xmc4_scu.c ****   {
 4909              	 .loc 1 568 0
 4910 00e4 EB68     	 ldr r3,[r5,#12]
 4911 00e6 B3F5803F 	 cmp r3,#65536
 4912 00ea 04D1     	 bne .L537
 4913              	.LVL314:
 4914              	.LBB329:
 4915              	.LBB330:
 901:../Libraries/XMCLib/src/xmc4_scu.c ****                       ((uint32_t)source);
 4916              	 .loc 1 901 0
 4917 00ec 3C4A     	 ldr r2,.L566
 4918 00ee D368     	 ldr r3,[r2,#12]
 4919 00f0 43F48033 	 orr r3,r3,#65536
 4920 00f4 D360     	 str r3,[r2,#12]
 4921              	.LVL315:
 4922              	.L537:
 4923              	.LBE330:
 4924              	.LBE329:
 573:../Libraries/XMCLib/src/xmc4_scu.c **** 
 4925              	 .loc 1 573 0
 4926 00f6 03B0     	 add sp,sp,#12
 4927              	.LCFI20:
 4928              	 .cfi_remember_state
 4929              	 .cfi_def_cfa_offset 20
 4930              	 
 4931 00f8 BDE8F040 	 pop {r4,r5,r6,r7,lr}
 4932              	.LCFI21:
 4933              	 .cfi_restore 14
 4934              	 .cfi_restore 7
 4935              	 .cfi_restore 6
 4936              	 .cfi_restore 5
 4937              	 .cfi_restore 4
 4938              	 .cfi_def_cfa_offset 0
 4939              	.LVL316:
 572:../Libraries/XMCLib/src/xmc4_scu.c **** }
 4940              	 .loc 1 572 0
 4941 00fc FFF7FEBF 	 b SystemCoreClockUpdate
 4942              	.LVL317:
 4943              	.L565:
 4944              	.LCFI22:
 4945              	 .cfi_restore_state
 4946              	.LBB331:
 4947              	.LBB332:
1653:../Libraries/XMCLib/src/xmc4_scu.c **** }
 4948              	 .loc 1 1653 0
 4949 0100 3C4A     	 ldr r2,.L566+20
 4950              	.LBE332:
 4951              	.LBE331:
 560:../Libraries/XMCLib/src/xmc4_scu.c ****                                  config->syspll_config.mode,
 4952              	 .loc 1 560 0
 4953 0102 A888     	 ldrh r0,[r5,#4]
 4954              	.LBB334:
 4955              	.LBB333:
1653:../Libraries/XMCLib/src/xmc4_scu.c **** }
 4956              	 .loc 1 1653 0
 4957 0104 5368     	 ldr r3,[r2,#4]
 4958 0106 23F48033 	 bic r3,r3,#65536
 4959 010a 23F00203 	 bic r3,r3,#2
 4960 010e 5360     	 str r3,[r2,#4]
 4961              	.LBE333:
 4962              	.LBE334:
 560:../Libraries/XMCLib/src/xmc4_scu.c ****                                  config->syspll_config.mode,
 4963              	 .loc 1 560 0
 4964 0110 AC78     	 ldrb r4,[r5,#2]
 4965 0112 6A78     	 ldrb r2,[r5,#1]
 4966 0114 2B78     	 ldrb r3,[r5]
 4967 0116 0094     	 str r4,[sp]
 4968 0118 FFF7FEFF 	 bl XMC_SCU_CLOCK_StartSystemPll
 4969              	.LVL318:
 4970 011c E2E7     	 b .L536
 4971              	.LVL319:
 4972              	.L531:
 4973              	.LBB335:
 4974              	.LBB336:
1615:../Libraries/XMCLib/src/xmc4_scu.c **** 
 4975              	 .loc 1 1615 0
 4976 011e 354C     	 ldr r4,.L566+20
 4977              	.LVL320:
1617:../Libraries/XMCLib/src/xmc4_scu.c ****                                   (((OSCHP_GetFrequency() / FOSCREF) - 1UL) << SCU_OSC_OSCHPCTRL_OS
 4978              	 .loc 1 1617 0
 4979 0120 374F     	 ldr r7,.L566+32
1615:../Libraries/XMCLib/src/xmc4_scu.c **** 
 4980              	 .loc 1 1615 0
 4981 0122 6368     	 ldr r3,[r4,#4]
 4982 0124 23F48033 	 bic r3,r3,#65536
 4983 0128 6360     	 str r3,[r4,#4]
1617:../Libraries/XMCLib/src/xmc4_scu.c ****                                   (((OSCHP_GetFrequency() / FOSCREF) - 1UL) << SCU_OSC_OSCHPCTRL_OS
 4984              	 .loc 1 1617 0
 4985 012a 7E68     	 ldr r6,[r7,#4]
1618:../Libraries/XMCLib/src/xmc4_scu.c **** 
 4986              	 .loc 1 1618 0
 4987 012c FFF7FEFF 	 bl OSCHP_GetFrequency
 4988              	.LVL321:
 4989 0130 344A     	 ldr r2,.L566+36
 4990 0132 A2FB0032 	 umull r3,r2,r2,r0
 4991 0136 120D     	 lsrs r2,r2,#20
1617:../Libraries/XMCLib/src/xmc4_scu.c ****                                   (((OSCHP_GetFrequency() / FOSCREF) - 1UL) << SCU_OSC_OSCHPCTRL_OS
 4992              	 .loc 1 1617 0
 4993 0138 26F47023 	 bic r3,r6,#983040
1618:../Libraries/XMCLib/src/xmc4_scu.c **** 
 4994              	 .loc 1 1618 0
 4995 013c 013A     	 subs r2,r2,#1
1617:../Libraries/XMCLib/src/xmc4_scu.c ****                                   (((OSCHP_GetFrequency() / FOSCREF) - 1UL) << SCU_OSC_OSCHPCTRL_OS
 4996              	 .loc 1 1617 0
 4997 013e 23F03003 	 bic r3,r3,#48
 4998 0142 43EA0243 	 orr r3,r3,r2,lsl#16
 4999 0146 7B60     	 str r3,[r7,#4]
1621:../Libraries/XMCLib/src/xmc4_scu.c **** }
 5000              	 .loc 1 1621 0
 5001 0148 6368     	 ldr r3,[r4,#4]
 5002 014a 23F40033 	 bic r3,r3,#131072
 5003 014e 6360     	 str r3,[r4,#4]
 5004              	.LBE336:
 5005              	.LBE335:
 5006              	.LBB337:
 5007              	.LBB338:
1626:../Libraries/XMCLib/src/xmc4_scu.c **** }
 5008              	 .loc 1 1626 0
 5009 0150 2246     	 mov r2,r4
 5010              	.L534:
1626:../Libraries/XMCLib/src/xmc4_scu.c **** }
 5011              	 .loc 1 1626 0 is_stmt 0 discriminator 1
 5012 0152 1368     	 ldr r3,[r2]
 5013 0154 03F46073 	 and r3,r3,#896
 5014              	.LBE338:
 5015              	.LBE337:
 549:../Libraries/XMCLib/src/xmc4_scu.c ****   }
 5016              	 .loc 1 549 0 is_stmt 1 discriminator 1
 5017 0158 B3F5607F 	 cmp r3,#896
 5018 015c F9D1     	 bne .L534
 5019 015e B8E7     	 b .L535
 5020              	.L564:
 5021              	.LBB339:
 5022              	.LBB340:
1552:../Libraries/XMCLib/src/xmc4_scu.c ****   {
 5023              	 .loc 1 1552 0
 5024 0160 224A     	 ldr r2,.L566+12
 5025              	.L544:
 5026 0162 D2F8C430 	 ldr r3,[r2,#196]
 5027 0166 1E06     	 lsls r6,r3,#24
 5028 0168 FBD4     	 bmi .L544
1556:../Libraries/XMCLib/src/xmc4_scu.c **** 
 5029              	 .loc 1 1556 0
 5030 016a 2149     	 ldr r1,.L566+16
1559:../Libraries/XMCLib/src/xmc4_scu.c ****   {
 5031              	 .loc 1 1559 0
 5032 016c 1F4A     	 ldr r2,.L566+12
1556:../Libraries/XMCLib/src/xmc4_scu.c **** 
 5033              	 .loc 1 1556 0
 5034 016e CB69     	 ldr r3,[r1,#28]
 5035 0170 23F03003 	 bic r3,r3,#48
 5036 0174 CB61     	 str r3,[r1,#28]
 5037              	.L521:
1559:../Libraries/XMCLib/src/xmc4_scu.c ****   {
 5038              	 .loc 1 1559 0
 5039 0176 D2F8C430 	 ldr r3,[r2,#196]
 5040 017a 1C07     	 lsls r4,r3,#28
 5041 017c FBD4     	 bmi .L521
1563:../Libraries/XMCLib/src/xmc4_scu.c **** 
 5042              	 .loc 1 1563 0
 5043 017e 1C49     	 ldr r1,.L566+16
1566:../Libraries/XMCLib/src/xmc4_scu.c ****   {
 5044              	 .loc 1 1566 0
 5045 0180 1A4A     	 ldr r2,.L566+12
1563:../Libraries/XMCLib/src/xmc4_scu.c **** 
 5046              	 .loc 1 1563 0
 5047 0182 CB68     	 ldr r3,[r1,#12]
 5048 0184 43F00803 	 orr r3,r3,#8
 5049 0188 CB60     	 str r3,[r1,#12]
 5050              	.L522:
1566:../Libraries/XMCLib/src/xmc4_scu.c ****   {
 5051              	 .loc 1 1566 0
 5052 018a D2F8C430 	 ldr r3,[r2,#196]
 5053 018e 5807     	 lsls r0,r3,#29
 5054 0190 FBD4     	 bmi .L522
1570:../Libraries/XMCLib/src/xmc4_scu.c **** 
 5055              	 .loc 1 1570 0
 5056 0192 174B     	 ldr r3,.L566+16
 5057              	.LBB341:
 5058              	.LBB342:
 5059              	 .loc 3 545 0
 5060 0194 154A     	 ldr r2,.L566+12
 5061              	.LBE342:
 5062              	.LBE341:
1570:../Libraries/XMCLib/src/xmc4_scu.c **** 
 5063              	 .loc 1 1570 0
 5064 0196 0821     	 movs r1,#8
 5065 0198 9960     	 str r1,[r3,#8]
 5066              	.L523:
 5067              	.LBB344:
 5068              	.LBB343:
 5069              	 .loc 3 545 0
 5070 019a D2F8C430 	 ldr r3,[r2,#196]
 5071              	.LBE343:
 5072              	.LBE344:
1572:../Libraries/XMCLib/src/xmc4_scu.c ****   {
 5073              	 .loc 1 1572 0
 5074 019e 002B     	 cmp r3,#0
 5075 01a0 FBD1     	 bne .L523
 5076              	.LBE340:
 5077              	.LBE339:
 5078              	.LBB345:
 5079              	.LBB346:
1545:../Libraries/XMCLib/src/xmc4_scu.c **** }
 5080              	 .loc 1 1545 0
 5081 01a2 134A     	 ldr r2,.L566+16
 5082              	.L524:
1545:../Libraries/XMCLib/src/xmc4_scu.c **** }
 5083              	 .loc 1 1545 0 is_stmt 0 discriminator 1
 5084 01a4 1368     	 ldr r3,[r2]
 5085              	.LBE346:
 5086              	.LBE345:
 530:../Libraries/XMCLib/src/xmc4_scu.c ****   }
 5087              	 .loc 1 530 0 is_stmt 1 discriminator 1
 5088 01a6 1907     	 lsls r1,r3,#28
 5089 01a8 FCD4     	 bmi .L524
 5090 01aa 48E7     	 b .L518
 5091              	.LVL322:
 5092              	.L559:
 5093              	.LBB347:
 5094              	.LBB307:
1165:../Libraries/XMCLib/src/xmc4_scu.c ****     XMC_SCU_lDelay(100UL);
 5095              	 .loc 1 1165 0
 5096 01ac 5368     	 ldr r3,[r2,#4]
 5097              	.LBB302:
 5098              	.LBB303:
 213:../Libraries/XMCLib/src/xmc4_scu.c **** 
 5099              	 .loc 1 213 0
 5100 01ae 124E     	 ldr r6,.L566+24
 5101              	.LBE303:
 5102              	.LBE302:
1165:../Libraries/XMCLib/src/xmc4_scu.c ****     XMC_SCU_lDelay(100UL);
 5103              	 .loc 1 1165 0
 5104 01b0 23F48013 	 bic r3,r3,#1048576
 5105 01b4 5360     	 str r3,[r2,#4]
 5106              	.LVL323:
 5107              	.LBB305:
 5108              	.LBB304:
 212:../Libraries/XMCLib/src/xmc4_scu.c ****   delay =  delay * (uint32_t)(SystemCoreClock / FREQ_1MHZ);
 5109              	 .loc 1 212 0
 5110 01b6 FFF7FEFF 	 bl SystemCoreClockUpdate
 5111              	.LVL324:
 213:../Libraries/XMCLib/src/xmc4_scu.c **** 
 5112              	 .loc 1 213 0
 5113 01ba 104A     	 ldr r2,.L566+28
 5114 01bc 3368     	 ldr r3,[r6]
 5115 01be A2FB0323 	 umull r2,r3,r2,r3
 5116 01c2 9A0C     	 lsrs r2,r3,#18
 5117 01c4 6423     	 movs r3,#100
 5118 01c6 03FB02F3 	 mul r3,r3,r2
 5119              	.LVL325:
 215:../Libraries/XMCLib/src/xmc4_scu.c ****   {
 5120              	 .loc 1 215 0
 5121 01ca 1BB1     	 cbz r3,.L527
 5122              	.LVL326:
 5123              	.L528:
 217:../Libraries/XMCLib/src/xmc4_scu.c ****   }
 5124              	 .loc 1 217 0
 5125              	
 5126 01cc 00BF     	 nop
 5127              	
 215:../Libraries/XMCLib/src/xmc4_scu.c ****   {
 5128              	 .loc 1 215 0
 5129              	 .thumb
 5130 01ce 0134     	 adds r4,r4,#1
 5131              	.LVL327:
 5132 01d0 9C42     	 cmp r4,r3
 5133 01d2 FBD1     	 bne .L528
 5134              	.LVL328:
 5135              	.L527:
 5136              	.LBE304:
 5137              	.LBE305:
1169:../Libraries/XMCLib/src/xmc4_scu.c ****   }
 5138              	 .loc 1 1169 0
 5139 01d4 074A     	 ldr r2,.L566+20
 5140 01d6 5368     	 ldr r3,[r2,#4]
 5141              	.LVL329:
 5142 01d8 43F40023 	 orr r3,r3,#524288
 5143 01dc 5360     	 str r3,[r2,#4]
 5144              	.LVL330:
 5145 01de 49E7     	 b .L526
 5146              	.L567:
 5147              	 .align 2
 5148              	.L566:
 5149 01e0 00460050 	 .word 1342195200
 5150 01e4 00420050 	 .word 1342194176
 5151 01e8 00440050 	 .word 1342194688
 5152 01ec 00400050 	 .word 1342193664
 5153 01f0 00430050 	 .word 1342194432
 5154 01f4 10470050 	 .word 1342195472
 5155 01f8 00000000 	 .word SystemCoreClock
 5156 01fc 83DE1B43 	 .word 1125899907
 5157 0200 00470050 	 .word 1342195456
 5158 0204 6BCA5F6B 	 .word 1801439851
 5159              	.LBE307:
 5160              	.LBE347:
 5161              	 .cfi_endproc
 5162              	.LFE184:
 5164              	 .section .text.XMC_SCU_CLOCK_StopSystemPll,"ax",%progbits
 5165              	 .align 2
 5166              	 .global XMC_SCU_CLOCK_StopSystemPll
 5167              	 .thumb
 5168              	 .thumb_func
 5170              	XMC_SCU_CLOCK_StopSystemPll:
 5171              	.LFB272:
1753:../Libraries/XMCLib/src/xmc4_scu.c ****   SCU_PLL->PLLCON0 |= (uint32_t)SCU_PLL_PLLCON0_PLLPWD_Msk;
 5172              	 .loc 1 1753 0
 5173              	 .cfi_startproc
 5174              	 
 5175              	 
 5176              	 
1754:../Libraries/XMCLib/src/xmc4_scu.c **** }
 5177              	 .loc 1 1754 0
 5178 0000 024A     	 ldr r2,.L569
 5179 0002 5368     	 ldr r3,[r2,#4]
 5180 0004 43F48033 	 orr r3,r3,#65536
 5181 0008 5360     	 str r3,[r2,#4]
 5182 000a 7047     	 bx lr
 5183              	.L570:
 5184              	 .align 2
 5185              	.L569:
 5186 000c 10470050 	 .word 1342195472
 5187              	 .cfi_endproc
 5188              	.LFE272:
 5190              	 .section .text.XMC_SCU_CLOCK_StepSystemPllFrequency,"ax",%progbits
 5191              	 .align 2
 5192              	 .global XMC_SCU_CLOCK_StepSystemPllFrequency
 5193              	 .thumb
 5194              	 .thumb_func
 5196              	XMC_SCU_CLOCK_StepSystemPllFrequency:
 5197              	.LFB273:
1759:../Libraries/XMCLib/src/xmc4_scu.c ****   SCU_PLL->PLLCON1 = (uint32_t)((SCU_PLL->PLLCON1 & ~SCU_PLL_PLLCON1_K2DIV_Msk) |
 5198              	 .loc 1 1759 0
 5199              	 .cfi_startproc
 5200              	 
 5201              	 
 5202              	.LVL331:
1760:../Libraries/XMCLib/src/xmc4_scu.c ****                      ((kdiv - 1UL) << SCU_PLL_PLLCON1_K2DIV_Pos));
 5203              	 .loc 1 1760 0
 5204 0000 0D4A     	 ldr r2,.L579
1759:../Libraries/XMCLib/src/xmc4_scu.c ****   SCU_PLL->PLLCON1 = (uint32_t)((SCU_PLL->PLLCON1 & ~SCU_PLL_PLLCON1_K2DIV_Msk) |
 5205              	 .loc 1 1759 0
 5206 0002 08B5     	 push {r3,lr}
 5207              	.LCFI23:
 5208              	 .cfi_def_cfa_offset 8
 5209              	 .cfi_offset 3,-8
 5210              	 .cfi_offset 14,-4
1760:../Libraries/XMCLib/src/xmc4_scu.c ****                      ((kdiv - 1UL) << SCU_PLL_PLLCON1_K2DIV_Pos));
 5211              	 .loc 1 1760 0
 5212 0004 9368     	 ldr r3,[r2,#8]
 5213              	 .loc 1 1761 0
 5214 0006 0138     	 subs r0,r0,#1
 5215              	.LVL332:
1760:../Libraries/XMCLib/src/xmc4_scu.c ****                      ((kdiv - 1UL) << SCU_PLL_PLLCON1_K2DIV_Pos));
 5216              	 .loc 1 1760 0
 5217 0008 23F4FE03 	 bic r3,r3,#8323072
 5218 000c 43EA0043 	 orr r3,r3,r0,lsl#16
 5219 0010 9360     	 str r3,[r2,#8]
 5220              	.LVL333:
 5221              	.LBB350:
 5222              	.LBB351:
 212:../Libraries/XMCLib/src/xmc4_scu.c ****   delay =  delay * (uint32_t)(SystemCoreClock / FREQ_1MHZ);
 5223              	 .loc 1 212 0
 5224 0012 FFF7FEFF 	 bl SystemCoreClockUpdate
 5225              	.LVL334:
 213:../Libraries/XMCLib/src/xmc4_scu.c **** 
 5226              	 .loc 1 213 0
 5227 0016 094B     	 ldr r3,.L579+4
 5228 0018 094A     	 ldr r2,.L579+8
 5229 001a 1B68     	 ldr r3,[r3]
 5230 001c A2FB0332 	 umull r3,r2,r2,r3
 5231 0020 920C     	 lsrs r2,r2,#18
 5232 0022 3223     	 movs r3,#50
 5233 0024 03FB02F2 	 mul r2,r3,r2
 5234              	.LVL335:
 215:../Libraries/XMCLib/src/xmc4_scu.c ****   {
 5235              	 .loc 1 215 0
 5236 0028 22B1     	 cbz r2,.L571
 5237 002a 0023     	 movs r3,#0
 5238              	.LVL336:
 5239              	.L573:
 217:../Libraries/XMCLib/src/xmc4_scu.c ****   }
 5240              	 .loc 1 217 0
 5241              	
 5242 002c 00BF     	 nop
 5243              	
 215:../Libraries/XMCLib/src/xmc4_scu.c ****   {
 5244              	 .loc 1 215 0
 5245              	 .thumb
 5246 002e 0133     	 adds r3,r3,#1
 5247              	.LVL337:
 5248 0030 9342     	 cmp r3,r2
 5249 0032 FBD1     	 bne .L573
 5250              	.LVL338:
 5251              	.L571:
 5252 0034 08BD     	 pop {r3,pc}
 5253              	.L580:
 5254 0036 00BF     	 .align 2
 5255              	.L579:
 5256 0038 10470050 	 .word 1342195472
 5257 003c 00000000 	 .word SystemCoreClock
 5258 0040 83DE1B43 	 .word 1125899907
 5259              	.LBE351:
 5260              	.LBE350:
 5261              	 .cfi_endproc
 5262              	.LFE273:
 5264              	 .section .text.XMC_SCU_CLOCK_IsSystemPllLocked,"ax",%progbits
 5265              	 .align 2
 5266              	 .global XMC_SCU_CLOCK_IsSystemPllLocked
 5267              	 .thumb
 5268              	 .thumb_func
 5270              	XMC_SCU_CLOCK_IsSystemPllLocked:
 5271              	.LFB274:
1762:../Libraries/XMCLib/src/xmc4_scu.c **** 
1763:../Libraries/XMCLib/src/xmc4_scu.c ****   XMC_SCU_lDelay(50U);
1764:../Libraries/XMCLib/src/xmc4_scu.c **** }
1765:../Libraries/XMCLib/src/xmc4_scu.c **** 
1766:../Libraries/XMCLib/src/xmc4_scu.c **** /* API to check main PLL is locked or not */
1767:../Libraries/XMCLib/src/xmc4_scu.c **** bool XMC_SCU_CLOCK_IsSystemPllLocked(void)
1768:../Libraries/XMCLib/src/xmc4_scu.c **** {
 5272              	 .loc 1 1768 0
 5273              	 .cfi_startproc
 5274              	 
 5275              	 
 5276              	 
1769:../Libraries/XMCLib/src/xmc4_scu.c ****   return (bool)((SCU_PLL->PLLSTAT & SCU_PLL_PLLSTAT_VCOLOCK_Msk) != 0UL);
 5277              	 .loc 1 1769 0
 5278 0000 024B     	 ldr r3,.L582
 5279 0002 1868     	 ldr r0,[r3]
1770:../Libraries/XMCLib/src/xmc4_scu.c **** }
 5280              	 .loc 1 1770 0
 5281 0004 C0F38000 	 ubfx r0,r0,#2,#1
 5282 0008 7047     	 bx lr
 5283              	.L583:
 5284 000a 00BF     	 .align 2
 5285              	.L582:
 5286 000c 10470050 	 .word 1342195472
 5287              	 .cfi_endproc
 5288              	.LFE274:
 5290              	 .section .text.XMC_SCU_INTERRUPT_SetEventHandler,"ax",%progbits
 5291              	 .align 2
 5292              	 .global XMC_SCU_INTERRUPT_SetEventHandler
 5293              	 .thumb
 5294              	 .thumb_func
 5296              	XMC_SCU_INTERRUPT_SetEventHandler:
 5297              	.LFB275:
1771:../Libraries/XMCLib/src/xmc4_scu.c **** 
1772:../Libraries/XMCLib/src/xmc4_scu.c **** /*
1773:../Libraries/XMCLib/src/xmc4_scu.c ****  * API to assign the event handler function to be executed on occurrence of the selected event.
1774:../Libraries/XMCLib/src/xmc4_scu.c ****  */
1775:../Libraries/XMCLib/src/xmc4_scu.c **** XMC_SCU_STATUS_t XMC_SCU_INTERRUPT_SetEventHandler(const XMC_SCU_INTERRUPT_EVENT_t event,
1776:../Libraries/XMCLib/src/xmc4_scu.c ****                                                    const XMC_SCU_INTERRUPT_EVENT_HANDLER_t handler)
1777:../Libraries/XMCLib/src/xmc4_scu.c **** {
 5298              	 .loc 1 1777 0
 5299              	 .cfi_startproc
 5300              	 
 5301              	 
 5302              	 
 5303              	.LVL339:
1778:../Libraries/XMCLib/src/xmc4_scu.c ****   uint32_t index;
1779:../Libraries/XMCLib/src/xmc4_scu.c ****   XMC_SCU_STATUS_t status;
1780:../Libraries/XMCLib/src/xmc4_scu.c ****   
1781:../Libraries/XMCLib/src/xmc4_scu.c ****   index = 0U;
1782:../Libraries/XMCLib/src/xmc4_scu.c ****   while (((event & ((XMC_SCU_INTERRUPT_EVENT_t)1 << index)) == 0U) && (index < XMC_SCU_INTERRUPT_EV
 5304              	 .loc 1 1782 0
 5305 0000 10F00103 	 ands r3,r0,#1
 5306 0004 02D0     	 beq .L587
 5307 0006 0FE0     	 b .L589
 5308              	.LVL340:
 5309              	.L592:
 5310              	 .loc 1 1782 0 is_stmt 0 discriminator 1
 5311 0008 202B     	 cmp r3,#32
 5312 000a 0BD0     	 beq .L590
 5313              	.LVL341:
 5314              	.L587:
1783:../Libraries/XMCLib/src/xmc4_scu.c ****   {
1784:../Libraries/XMCLib/src/xmc4_scu.c ****     index++;
 5315              	 .loc 1 1784 0 is_stmt 1
 5316 000c 0133     	 adds r3,r3,#1
 5317              	.LVL342:
1782:../Libraries/XMCLib/src/xmc4_scu.c ****   {
 5318              	 .loc 1 1782 0
 5319 000e 20FA03F2 	 lsr r2,r0,r3
 5320 0012 D207     	 lsls r2,r2,#31
 5321 0014 F8D5     	 bpl .L592
1785:../Libraries/XMCLib/src/xmc4_scu.c ****   }
1786:../Libraries/XMCLib/src/xmc4_scu.c ****   
1787:../Libraries/XMCLib/src/xmc4_scu.c ****   if (index == XMC_SCU_INTERRUPT_EVENT_MAX)
 5322              	 .loc 1 1787 0
 5323 0016 202B     	 cmp r3,#32
 5324 0018 04D0     	 beq .L590
 5325              	.LVL343:
 5326              	.L585:
1788:../Libraries/XMCLib/src/xmc4_scu.c ****   {
1789:../Libraries/XMCLib/src/xmc4_scu.c ****     status = XMC_SCU_STATUS_ERROR;
1790:../Libraries/XMCLib/src/xmc4_scu.c ****   }
1791:../Libraries/XMCLib/src/xmc4_scu.c ****   else
1792:../Libraries/XMCLib/src/xmc4_scu.c ****   {
1793:../Libraries/XMCLib/src/xmc4_scu.c ****     event_handler_list[index] = handler;
 5327              	 .loc 1 1793 0
 5328 001a 044A     	 ldr r2,.L593
1794:../Libraries/XMCLib/src/xmc4_scu.c ****     status = XMC_SCU_STATUS_OK;      
 5329              	 .loc 1 1794 0
 5330 001c 0020     	 movs r0,#0
 5331              	.LVL344:
1793:../Libraries/XMCLib/src/xmc4_scu.c ****     status = XMC_SCU_STATUS_OK;      
 5332              	 .loc 1 1793 0
 5333 001e 42F82310 	 str r1,[r2,r3,lsl#2]
 5334              	.LVL345:
 5335 0022 7047     	 bx lr
 5336              	.LVL346:
 5337              	.L590:
1789:../Libraries/XMCLib/src/xmc4_scu.c ****   }
 5338              	 .loc 1 1789 0
 5339 0024 0120     	 movs r0,#1
 5340              	.LVL347:
1795:../Libraries/XMCLib/src/xmc4_scu.c ****   }
1796:../Libraries/XMCLib/src/xmc4_scu.c ****   
1797:../Libraries/XMCLib/src/xmc4_scu.c ****   return (status);
1798:../Libraries/XMCLib/src/xmc4_scu.c **** }
 5341              	 .loc 1 1798 0
 5342 0026 7047     	 bx lr
 5343              	.LVL348:
 5344              	.L589:
1781:../Libraries/XMCLib/src/xmc4_scu.c ****   while (((event & ((XMC_SCU_INTERRUPT_EVENT_t)1 << index)) == 0U) && (index < XMC_SCU_INTERRUPT_EV
 5345              	 .loc 1 1781 0
 5346 0028 0023     	 movs r3,#0
 5347 002a F6E7     	 b .L585
 5348              	.L594:
 5349              	 .align 2
 5350              	.L593:
 5351 002c 00000000 	 .word event_handler_list
 5352              	 .cfi_endproc
 5353              	.LFE275:
 5355              	 .section .text.XMC_SCU_IRQHandler,"ax",%progbits
 5356              	 .align 2
 5357              	 .global XMC_SCU_IRQHandler
 5358              	 .thumb
 5359              	 .thumb_func
 5361              	XMC_SCU_IRQHandler:
 5362              	.LFB276:
1799:../Libraries/XMCLib/src/xmc4_scu.c **** 
1800:../Libraries/XMCLib/src/xmc4_scu.c **** /*
1801:../Libraries/XMCLib/src/xmc4_scu.c ****  * API to execute callback functions for multiple events.
1802:../Libraries/XMCLib/src/xmc4_scu.c ****  */
1803:../Libraries/XMCLib/src/xmc4_scu.c **** void XMC_SCU_IRQHandler(uint32_t sr_num)
1804:../Libraries/XMCLib/src/xmc4_scu.c **** {
 5363              	 .loc 1 1804 0
 5364              	 .cfi_startproc
 5365              	 
 5366              	 
 5367              	.LVL349:
 5368              	.LBB352:
 5369              	.LBB353:
 242:../Libraries/XMCLib/src/xmc4_scu.c **** }
 5370              	 .loc 1 242 0
 5371 0000 0B4B     	 ldr r3,.L606
 5372              	.LBE353:
 5373              	.LBE352:
 5374              	 .loc 1 1804 0
 5375 0002 10B5     	 push {r4,lr}
 5376              	.LCFI24:
 5377              	 .cfi_def_cfa_offset 8
 5378              	 .cfi_offset 4,-8
 5379              	 .cfi_offset 14,-4
 5380              	.LBB355:
 5381              	.LBB354:
 242:../Libraries/XMCLib/src/xmc4_scu.c **** }
 5382              	 .loc 1 242 0
 5383 0004 5A68     	 ldr r2,[r3,#4]
 5384              	.LBE354:
 5385              	.LBE355:
1805:../Libraries/XMCLib/src/xmc4_scu.c ****   uint32_t index;
1806:../Libraries/XMCLib/src/xmc4_scu.c ****   XMC_SCU_INTERRUPT_EVENT_t event;
1807:../Libraries/XMCLib/src/xmc4_scu.c ****   XMC_SCU_INTERRUPT_EVENT_HANDLER_t event_handler;
1808:../Libraries/XMCLib/src/xmc4_scu.c ****   
1809:../Libraries/XMCLib/src/xmc4_scu.c ****   XMC_UNUSED_ARG(sr_num);
1810:../Libraries/XMCLib/src/xmc4_scu.c ****   
1811:../Libraries/XMCLib/src/xmc4_scu.c ****   index = 0U;
 5386              	 .loc 1 1811 0
 5387 0006 0024     	 movs r4,#0
 5388 0008 02E0     	 b .L599
 5389              	.LVL350:
 5390              	.L596:
1812:../Libraries/XMCLib/src/xmc4_scu.c ****   event = XMC_SCU_INTERUPT_GetEventStatus();
1813:../Libraries/XMCLib/src/xmc4_scu.c ****   while (index < XMC_SCU_INTERRUPT_EVENT_MAX)
1814:../Libraries/XMCLib/src/xmc4_scu.c ****   {    
1815:../Libraries/XMCLib/src/xmc4_scu.c ****     if ((event & ((XMC_SCU_INTERRUPT_EVENT_t)1 << index)) != 0U)
1816:../Libraries/XMCLib/src/xmc4_scu.c ****     {
1817:../Libraries/XMCLib/src/xmc4_scu.c ****       event_handler = event_handler_list[index];
1818:../Libraries/XMCLib/src/xmc4_scu.c ****       if (event_handler != NULL)
1819:../Libraries/XMCLib/src/xmc4_scu.c ****       {
1820:../Libraries/XMCLib/src/xmc4_scu.c ****           (event_handler)();
1821:../Libraries/XMCLib/src/xmc4_scu.c ****       }
1822:../Libraries/XMCLib/src/xmc4_scu.c ****       
1823:../Libraries/XMCLib/src/xmc4_scu.c ****       XMC_SCU_INTERRUPT_ClearEventStatus((uint32_t)(1UL << index));
1824:../Libraries/XMCLib/src/xmc4_scu.c ****       
1825:../Libraries/XMCLib/src/xmc4_scu.c ****       break;
1826:../Libraries/XMCLib/src/xmc4_scu.c ****     }   
1827:../Libraries/XMCLib/src/xmc4_scu.c ****     index++;    
 5391              	 .loc 1 1827 0
 5392 000a 0134     	 adds r4,r4,#1
 5393              	.LVL351:
1813:../Libraries/XMCLib/src/xmc4_scu.c ****   {    
 5394              	 .loc 1 1813 0
 5395 000c 202C     	 cmp r4,#32
 5396 000e 0DD0     	 beq .L605
 5397              	.LVL352:
 5398              	.L599:
1815:../Libraries/XMCLib/src/xmc4_scu.c ****     {
 5399              	 .loc 1 1815 0
 5400 0010 22FA04F3 	 lsr r3,r2,r4
 5401 0014 DB07     	 lsls r3,r3,#31
 5402 0016 F8D5     	 bpl .L596
1817:../Libraries/XMCLib/src/xmc4_scu.c ****       if (event_handler != NULL)
 5403              	 .loc 1 1817 0
 5404 0018 064B     	 ldr r3,.L606+4
 5405 001a 53F82430 	 ldr r3,[r3,r4,lsl#2]
 5406              	.LVL353:
1818:../Libraries/XMCLib/src/xmc4_scu.c ****       {
 5407              	 .loc 1 1818 0
 5408 001e 03B1     	 cbz r3,.L597
1820:../Libraries/XMCLib/src/xmc4_scu.c ****       }
 5409              	 .loc 1 1820 0
 5410 0020 9847     	 blx r3
 5411              	.LVL354:
 5412              	.L597:
1823:../Libraries/XMCLib/src/xmc4_scu.c ****       
 5413              	 .loc 1 1823 0
 5414 0022 0123     	 movs r3,#1
 5415              	.LBB356:
 5416              	.LBB357:
 248:../Libraries/XMCLib/src/xmc4_scu.c **** }
 5417              	 .loc 1 248 0
 5418 0024 024A     	 ldr r2,.L606
 5419              	.LBE357:
 5420              	.LBE356:
1823:../Libraries/XMCLib/src/xmc4_scu.c ****       
 5421              	 .loc 1 1823 0
 5422 0026 A340     	 lsls r3,r3,r4
 5423              	.LVL355:
 5424              	.LBB359:
 5425              	.LBB358:
 248:../Libraries/XMCLib/src/xmc4_scu.c **** }
 5426              	 .loc 1 248 0
 5427 0028 D360     	 str r3,[r2,#12]
 5428 002a 10BD     	 pop {r4,pc}
 5429              	.LVL356:
 5430              	.L605:
 5431 002c 10BD     	 pop {r4,pc}
 5432              	.LVL357:
 5433              	.L607:
 5434 002e 00BF     	 .align 2
 5435              	.L606:
 5436 0030 74400050 	 .word 1342193780
 5437 0034 00000000 	 .word event_handler_list
 5438              	.LBE358:
 5439              	.LBE359:
 5440              	 .cfi_endproc
 5441              	.LFE276:
 5443              	 .comm event_handler_list,128,4
 5444              	 .text
 5445              	.Letext0:
 5446              	 .file 4 "c:\\infineon\\tools\\dave ide\\4.5.0.202105191637\\eclipse\\arm-gcc-49\\arm-none-eabi\\include\\machine\\_default_types.h"
 5447              	 .file 5 "c:\\infineon\\tools\\dave ide\\4.5.0.202105191637\\eclipse\\arm-gcc-49\\arm-none-eabi\\include\\stdint.h"
 5448              	 .file 6 "C:/Users/Utente/Desktop/Tesi/Firmware_Software/DAVE project/S2GLP_Pulsed_Doppler/Libraries/CMSIS/Infineon/XMC4700_series/Include/XMC4700.h"
 5449              	 .file 7 "C:/Users/Utente/Desktop/Tesi/Firmware_Software/DAVE project/S2GLP_Pulsed_Doppler/Libraries/CMSIS/Include/core_cm4.h"
 5450              	 .file 8 "C:/Users/Utente/Desktop/Tesi/Firmware_Software/DAVE project/S2GLP_Pulsed_Doppler/Libraries/CMSIS/Infineon/XMC4700_series/Include/system_XMC4700.h"
DEFINED SYMBOLS
                            *ABS*:00000000 xmc4_scu.c
    {standard input}:20     .text.XMC_SCU_INTERRUPT_EnableEvent:00000000 $t
    {standard input}:25     .text.XMC_SCU_INTERRUPT_EnableEvent:00000000 XMC_SCU_INTERRUPT_EnableEvent
    {standard input}:44     .text.XMC_SCU_INTERRUPT_EnableEvent:0000000c $d
    {standard input}:49     .text.XMC_SCU_INTERRUPT_DisableEvent:00000000 $t
    {standard input}:54     .text.XMC_SCU_INTERRUPT_DisableEvent:00000000 XMC_SCU_INTERRUPT_DisableEvent
    {standard input}:72     .text.XMC_SCU_INTERRUPT_DisableEvent:0000000c $d
    {standard input}:77     .text.XMC_SCU_INTERRUPT_TriggerEvent:00000000 $t
    {standard input}:82     .text.XMC_SCU_INTERRUPT_TriggerEvent:00000000 XMC_SCU_INTERRUPT_TriggerEvent
    {standard input}:100    .text.XMC_SCU_INTERRUPT_TriggerEvent:0000000c $d
    {standard input}:105    .text.XMC_SCU_INTERUPT_GetEventStatus:00000000 $t
    {standard input}:110    .text.XMC_SCU_INTERUPT_GetEventStatus:00000000 XMC_SCU_INTERUPT_GetEventStatus
    {standard input}:125    .text.XMC_SCU_INTERUPT_GetEventStatus:00000008 $d
    {standard input}:130    .text.XMC_SCU_INTERRUPT_ClearEventStatus:00000000 $t
    {standard input}:135    .text.XMC_SCU_INTERRUPT_ClearEventStatus:00000000 XMC_SCU_INTERRUPT_ClearEventStatus
    {standard input}:150    .text.XMC_SCU_INTERRUPT_ClearEventStatus:00000008 $d
    {standard input}:155    .text.XMC_SCU_GetBootMode:00000000 $t
    {standard input}:160    .text.XMC_SCU_GetBootMode:00000000 XMC_SCU_GetBootMode
    {standard input}:176    .text.XMC_SCU_GetBootMode:0000000c $d
    {standard input}:181    .text.XMC_SCU_SetBootMode:00000000 $t
    {standard input}:186    .text.XMC_SCU_SetBootMode:00000000 XMC_SCU_SetBootMode
    {standard input}:201    .text.XMC_SCU_SetBootMode:00000008 $d
    {standard input}:206    .text.XMC_SCU_ReadGPR:00000000 $t
    {standard input}:211    .text.XMC_SCU_ReadGPR:00000000 XMC_SCU_ReadGPR
    {standard input}:230    .text.XMC_SCU_ReadGPR:0000000c $d
    {standard input}:235    .text.XMC_SCU_WriteGPR:00000000 $t
    {standard input}:240    .text.XMC_SCU_WriteGPR:00000000 XMC_SCU_WriteGPR
    {standard input}:258    .text.XMC_SCU_WriteGPR:0000000c $d
    {standard input}:263    .text.XMC_SCU_EnableOutOfRangeComparator:00000000 $t
    {standard input}:268    .text.XMC_SCU_EnableOutOfRangeComparator:00000000 XMC_SCU_EnableOutOfRangeComparator
    {standard input}:291    .text.XMC_SCU_DisableOutOfRangeComparator:00000000 $t
    {standard input}:296    .text.XMC_SCU_DisableOutOfRangeComparator:00000000 XMC_SCU_DisableOutOfRangeComparator
    {standard input}:319    .text.XMC_SCU_CalibrateTemperatureSensor:00000000 $t
    {standard input}:324    .text.XMC_SCU_CalibrateTemperatureSensor:00000000 XMC_SCU_CalibrateTemperatureSensor
    {standard input}:347    .text.XMC_SCU_CalibrateTemperatureSensor:00000014 $d
    {standard input}:352    .text.XMC_SCU_EnableTemperatureSensor:00000000 $t
    {standard input}:357    .text.XMC_SCU_EnableTemperatureSensor:00000000 XMC_SCU_EnableTemperatureSensor
    {standard input}:373    .text.XMC_SCU_EnableTemperatureSensor:00000010 $d
    {standard input}:378    .text.XMC_SCU_DisableTemperatureSensor:00000000 $t
    {standard input}:383    .text.XMC_SCU_DisableTemperatureSensor:00000000 XMC_SCU_DisableTemperatureSensor
    {standard input}:399    .text.XMC_SCU_DisableTemperatureSensor:00000010 $d
    {standard input}:404    .text.XMC_SCU_IsTemperatureSensorEnabled:00000000 $t
    {standard input}:409    .text.XMC_SCU_IsTemperatureSensorEnabled:00000000 XMC_SCU_IsTemperatureSensorEnabled
    {standard input}:426    .text.XMC_SCU_IsTemperatureSensorEnabled:00000010 $d
    {standard input}:431    .text.XMC_SCU_IsTemperatureSensorReady:00000000 $t
    {standard input}:436    .text.XMC_SCU_IsTemperatureSensorReady:00000000 XMC_SCU_IsTemperatureSensorReady
    {standard input}:452    .text.XMC_SCU_IsTemperatureSensorReady:0000000c $d
    {standard input}:457    .text.XMC_SCU_StartTemperatureMeasurement:00000000 $t
    {standard input}:462    .text.XMC_SCU_StartTemperatureMeasurement:00000000 XMC_SCU_StartTemperatureMeasurement
    {standard input}:510    .text.XMC_SCU_StartTemperatureMeasurement:00000024 $d
    {standard input}:515    .text.XMC_SCU_GetTemperatureMeasurement:00000000 $t
    {standard input}:520    .text.XMC_SCU_GetTemperatureMeasurement:00000000 XMC_SCU_GetTemperatureMeasurement
    {standard input}:549    .text.XMC_SCU_GetTemperatureMeasurement:00000018 $d
    {standard input}:554    .text.XMC_SCU_IsTemperatureSensorBusy:00000000 $t
    {standard input}:559    .text.XMC_SCU_IsTemperatureSensorBusy:00000000 XMC_SCU_IsTemperatureSensorBusy
    {standard input}:575    .text.XMC_SCU_IsTemperatureSensorBusy:0000000c $d
    {standard input}:580    .text.XMC_SCU_WriteToRetentionMemory:00000000 $t
    {standard input}:585    .text.XMC_SCU_WriteToRetentionMemory:00000000 XMC_SCU_WriteToRetentionMemory
    {standard input}:620    .text.XMC_SCU_WriteToRetentionMemory:00000020 $d
    {standard input}:625    .text.XMC_SCU_ReadFromRetentionMemory:00000000 $t
    {standard input}:630    .text.XMC_SCU_ReadFromRetentionMemory:00000000 XMC_SCU_ReadFromRetentionMemory
    {standard input}:662    .text.XMC_SCU_ReadFromRetentionMemory:0000001c $d
    {standard input}:667    .text.XMC_SCU_TRAP_Enable:00000000 $t
    {standard input}:672    .text.XMC_SCU_TRAP_Enable:00000000 XMC_SCU_TRAP_Enable
    {standard input}:690    .text.XMC_SCU_TRAP_Enable:0000000c $d
    {standard input}:695    .text.XMC_SCU_TRAP_Disable:00000000 $t
    {standard input}:700    .text.XMC_SCU_TRAP_Disable:00000000 XMC_SCU_TRAP_Disable
    {standard input}:718    .text.XMC_SCU_TRAP_Disable:0000000c $d
    {standard input}:723    .text.XMC_SCU_TRAP_GetStatus:00000000 $t
    {standard input}:728    .text.XMC_SCU_TRAP_GetStatus:00000000 XMC_SCU_TRAP_GetStatus
    {standard input}:743    .text.XMC_SCU_TRAP_GetStatus:00000008 $d
    {standard input}:748    .text.XMC_SCU_TRAP_Trigger:00000000 $t
    {standard input}:753    .text.XMC_SCU_TRAP_Trigger:00000000 XMC_SCU_TRAP_Trigger
    {standard input}:768    .text.XMC_SCU_TRAP_Trigger:00000008 $d
    {standard input}:773    .text.XMC_SCU_TRAP_ClearStatus:00000000 $t
    {standard input}:778    .text.XMC_SCU_TRAP_ClearStatus:00000000 XMC_SCU_TRAP_ClearStatus
    {standard input}:793    .text.XMC_SCU_TRAP_ClearStatus:00000008 $d
    {standard input}:798    .text.XMC_SCU_PARITY_ClearStatus:00000000 $t
    {standard input}:803    .text.XMC_SCU_PARITY_ClearStatus:00000000 XMC_SCU_PARITY_ClearStatus
    {standard input}:821    .text.XMC_SCU_PARITY_ClearStatus:0000000c $d
    {standard input}:826    .text.XMC_SCU_PARITY_GetStatus:00000000 $t
    {standard input}:831    .text.XMC_SCU_PARITY_GetStatus:00000000 XMC_SCU_PARITY_GetStatus
    {standard input}:846    .text.XMC_SCU_PARITY_GetStatus:00000008 $d
    {standard input}:851    .text.XMC_SCU_PARITY_Enable:00000000 $t
    {standard input}:856    .text.XMC_SCU_PARITY_Enable:00000000 XMC_SCU_PARITY_Enable
    {standard input}:874    .text.XMC_SCU_PARITY_Enable:0000000c $d
    {standard input}:879    .text.XMC_SCU_PARITY_Disable:00000000 $t
    {standard input}:884    .text.XMC_SCU_PARITY_Disable:00000000 XMC_SCU_PARITY_Disable
    {standard input}:902    .text.XMC_SCU_PARITY_Disable:0000000c $d
    {standard input}:907    .text.XMC_SCU_PARITY_EnableTrapGeneration:00000000 $t
    {standard input}:912    .text.XMC_SCU_PARITY_EnableTrapGeneration:00000000 XMC_SCU_PARITY_EnableTrapGeneration
    {standard input}:930    .text.XMC_SCU_PARITY_EnableTrapGeneration:0000000c $d
    {standard input}:935    .text.XMC_SCU_PARITY_DisableTrapGeneration:00000000 $t
    {standard input}:940    .text.XMC_SCU_PARITY_DisableTrapGeneration:00000000 XMC_SCU_PARITY_DisableTrapGeneration
    {standard input}:958    .text.XMC_SCU_PARITY_DisableTrapGeneration:0000000c $d
    {standard input}:963    .text.XMC_SCU_INTERRUPT_EnableNmiRequest:00000000 $t
    {standard input}:968    .text.XMC_SCU_INTERRUPT_EnableNmiRequest:00000000 XMC_SCU_INTERRUPT_EnableNmiRequest
    {standard input}:986    .text.XMC_SCU_INTERRUPT_EnableNmiRequest:0000000c $d
    {standard input}:991    .text.XMC_SCU_INTERRUPT_DisableNmiRequest:00000000 $t
    {standard input}:996    .text.XMC_SCU_INTERRUPT_DisableNmiRequest:00000000 XMC_SCU_INTERRUPT_DisableNmiRequest
    {standard input}:1014   .text.XMC_SCU_INTERRUPT_DisableNmiRequest:0000000c $d
    {standard input}:1019   .text.XMC_SCU_RESET_AssertPeripheralReset:00000000 $t
    {standard input}:1024   .text.XMC_SCU_RESET_AssertPeripheralReset:00000000 XMC_SCU_RESET_AssertPeripheralReset
    {standard input}:1048   .text.XMC_SCU_RESET_AssertPeripheralReset:00000014 $d
    {standard input}:1053   .text.XMC_SCU_RESET_DeassertPeripheralReset:00000000 $t
    {standard input}:1058   .text.XMC_SCU_RESET_DeassertPeripheralReset:00000000 XMC_SCU_RESET_DeassertPeripheralReset
    {standard input}:1082   .text.XMC_SCU_RESET_DeassertPeripheralReset:00000014 $d
    {standard input}:1087   .text.XMC_SCU_RESET_IsPeripheralResetAsserted:00000000 $t
    {standard input}:1092   .text.XMC_SCU_RESET_IsPeripheralResetAsserted:00000000 XMC_SCU_RESET_IsPeripheralResetAsserted
    {standard input}:1122   .text.XMC_SCU_RESET_IsPeripheralResetAsserted:0000001c $d
    {standard input}:1127   .text.XMC_SCU_CLOCK_GetSystemPllClockFrequency:00000000 $t
    {standard input}:1132   .text.XMC_SCU_CLOCK_GetSystemPllClockFrequency:00000000 XMC_SCU_CLOCK_GetSystemPllClockFrequency
    {standard input}:1215   .text.XMC_SCU_CLOCK_GetSystemPllClockFrequency:0000004c $d
    {standard input}:1223   .text.XMC_SCU_CLOCK_GetSystemPllClockSourceFrequency:00000000 $t
    {standard input}:1228   .text.XMC_SCU_CLOCK_GetSystemPllClockSourceFrequency:00000000 XMC_SCU_CLOCK_GetSystemPllClockSourceFrequency
    {standard input}:1252   .text.XMC_SCU_CLOCK_GetSystemPllClockSourceFrequency:00000010 $d
    {standard input}:1258   .text.XMC_SCU_CLOCK_GetUsbPllClockFrequency:00000000 $t
    {standard input}:1263   .text.XMC_SCU_CLOCK_GetUsbPllClockFrequency:00000000 XMC_SCU_CLOCK_GetUsbPllClockFrequency
    {standard input}:1306   .text.XMC_SCU_CLOCK_GetUsbPllClockFrequency:00000028 $d
    {standard input}:1311   .text.XMC_SCU_CLOCK_GetCcuClockFrequency:00000000 $t
    {standard input}:1316   .text.XMC_SCU_CLOCK_GetCcuClockFrequency:00000000 XMC_SCU_CLOCK_GetCcuClockFrequency
    {standard input}:1357   .text.XMC_SCU_CLOCK_GetCcuClockFrequency:00000018 $d
    {standard input}:1363   .text.XMC_SCU_CLOCK_GetUsbClockFrequency:00000000 $t
    {standard input}:1368   .text.XMC_SCU_CLOCK_GetUsbClockFrequency:00000000 XMC_SCU_CLOCK_GetUsbClockFrequency
    {standard input}:1509   .text.XMC_SCU_CLOCK_GetUsbClockFrequency:00000090 $d
    {standard input}:1520   .text.XMC_SCU_CLOCK_GetEbuClockFrequency:00000000 $t
    {standard input}:1525   .text.XMC_SCU_CLOCK_GetEbuClockFrequency:00000000 XMC_SCU_CLOCK_GetEbuClockFrequency
    {standard input}:1626   .text.XMC_SCU_CLOCK_GetEbuClockFrequency:00000058 $d
    {standard input}:1637   .text.XMC_SCU_CLOCK_GetWdtClockFrequency:00000000 $t
    {standard input}:1642   .text.XMC_SCU_CLOCK_GetWdtClockFrequency:00000000 XMC_SCU_CLOCK_GetWdtClockFrequency
    {standard input}:1759   .text.XMC_SCU_CLOCK_GetWdtClockFrequency:00000078 $d
    {standard input}:1770   .text.XMC_SCU_CLOCK_GetExternalOutputClockFrequency:00000000 $t
    {standard input}:1775   .text.XMC_SCU_CLOCK_GetExternalOutputClockFrequency:00000000 XMC_SCU_CLOCK_GetExternalOutputClockFrequency
    {standard input}:1935   .text.XMC_SCU_CLOCK_GetExternalOutputClockFrequency:000000a4 $d
    {standard input}:1947   .text.XMC_SCU_CLOCK_GetPeripheralClockFrequency:00000000 $t
    {standard input}:1952   .text.XMC_SCU_CLOCK_GetPeripheralClockFrequency:00000000 XMC_SCU_CLOCK_GetPeripheralClockFrequency
    {standard input}:1979   .text.XMC_SCU_CLOCK_GetPeripheralClockFrequency:00000010 $d
    {standard input}:1985   .text.XMC_SCU_CLOCK_SetSystemClockSource:00000000 $t
    {standard input}:1990   .text.XMC_SCU_CLOCK_SetSystemClockSource:00000000 XMC_SCU_CLOCK_SetSystemClockSource
    {standard input}:2009   .text.XMC_SCU_CLOCK_SetSystemClockSource:00000010 $d
    {standard input}:2014   .text.XMC_SCU_CLOCK_SetUsbClockSource:00000000 $t
    {standard input}:2019   .text.XMC_SCU_CLOCK_SetUsbClockSource:00000000 XMC_SCU_CLOCK_SetUsbClockSource
    {standard input}:2038   .text.XMC_SCU_CLOCK_SetUsbClockSource:00000010 $d
    {standard input}:2043   .text.XMC_SCU_CLOCK_SetWdtClockSource:00000000 $t
    {standard input}:2048   .text.XMC_SCU_CLOCK_SetWdtClockSource:00000000 XMC_SCU_CLOCK_SetWdtClockSource
    {standard input}:2067   .text.XMC_SCU_CLOCK_SetWdtClockSource:00000010 $d
    {standard input}:2072   .text.XMC_SCU_CLOCK_SetExternalOutputClockSource:00000000 $t
    {standard input}:2077   .text.XMC_SCU_CLOCK_SetExternalOutputClockSource:00000000 XMC_SCU_CLOCK_SetExternalOutputClockSource
    {standard input}:2096   .text.XMC_SCU_CLOCK_SetExternalOutputClockSource:00000010 $d
    {standard input}:2101   .text.XMC_SCU_CLOCK_SetSystemPllClockSource:00000000 $t
    {standard input}:2106   .text.XMC_SCU_CLOCK_SetSystemPllClockSource:00000000 XMC_SCU_CLOCK_SetSystemPllClockSource
    {standard input}:2140   .text.XMC_SCU_CLOCK_SetSystemPllClockSource:00000020 $d
    {standard input}:2147   .text.XMC_SCU_HIB_SetRtcClockSource:00000000 $t
    {standard input}:2152   .text.XMC_SCU_HIB_SetRtcClockSource:00000000 XMC_SCU_HIB_SetRtcClockSource
    {standard input}:2178   .text.XMC_SCU_HIB_SetRtcClockSource:00000018 $d
    {standard input}:2184   .text.XMC_SCU_HIB_SetStandbyClockSource:00000000 $t
    {standard input}:2189   .text.XMC_SCU_HIB_SetStandbyClockSource:00000000 XMC_SCU_HIB_SetStandbyClockSource
    {standard input}:2215   .text.XMC_SCU_HIB_SetStandbyClockSource:00000018 $d
    {standard input}:2221   .text.XMC_SCU_CLOCK_SetSystemClockDivider:00000000 $t
    {standard input}:2226   .text.XMC_SCU_CLOCK_SetSystemClockDivider:00000000 XMC_SCU_CLOCK_SetSystemClockDivider
    {standard input}:2248   .text.XMC_SCU_CLOCK_SetSystemClockDivider:00000010 $d
    {standard input}:2253   .text.XMC_SCU_CLOCK_SetCcuClockDivider:00000000 $t
    {standard input}:2258   .text.XMC_SCU_CLOCK_SetCcuClockDivider:00000000 XMC_SCU_CLOCK_SetCcuClockDivider
    {standard input}:2280   .text.XMC_SCU_CLOCK_SetCcuClockDivider:00000010 $d
    {standard input}:2285   .text.XMC_SCU_CLOCK_SetCpuClockDivider:00000000 $t
    {standard input}:2290   .text.XMC_SCU_CLOCK_SetCpuClockDivider:00000000 XMC_SCU_CLOCK_SetCpuClockDivider
    {standard input}:2312   .text.XMC_SCU_CLOCK_SetCpuClockDivider:00000010 $d
    {standard input}:2317   .text.XMC_SCU_CLOCK_SetPeripheralClockDivider:00000000 $t
    {standard input}:2322   .text.XMC_SCU_CLOCK_SetPeripheralClockDivider:00000000 XMC_SCU_CLOCK_SetPeripheralClockDivider
    {standard input}:2344   .text.XMC_SCU_CLOCK_SetPeripheralClockDivider:00000010 $d
    {standard input}:2349   .text.XMC_SCU_CLOCK_SetUsbClockDivider:00000000 $t
    {standard input}:2354   .text.XMC_SCU_CLOCK_SetUsbClockDivider:00000000 XMC_SCU_CLOCK_SetUsbClockDivider
    {standard input}:2376   .text.XMC_SCU_CLOCK_SetUsbClockDivider:00000010 $d
    {standard input}:2381   .text.XMC_SCU_CLOCK_SetEbuClockDivider:00000000 $t
    {standard input}:2386   .text.XMC_SCU_CLOCK_SetEbuClockDivider:00000000 XMC_SCU_CLOCK_SetEbuClockDivider
    {standard input}:2408   .text.XMC_SCU_CLOCK_SetEbuClockDivider:00000010 $d
    {standard input}:2413   .text.XMC_SCU_CLOCK_SetWdtClockDivider:00000000 $t
    {standard input}:2418   .text.XMC_SCU_CLOCK_SetWdtClockDivider:00000000 XMC_SCU_CLOCK_SetWdtClockDivider
    {standard input}:2440   .text.XMC_SCU_CLOCK_SetWdtClockDivider:00000010 $d
    {standard input}:2445   .text.XMC_SCU_CLOCK_SetExternalOutputClockDivider:00000000 $t
    {standard input}:2450   .text.XMC_SCU_CLOCK_SetExternalOutputClockDivider:00000000 XMC_SCU_CLOCK_SetExternalOutputClockDivider
    {standard input}:2473   .text.XMC_SCU_CLOCK_SetExternalOutputClockDivider:00000018 $d
    {standard input}:2478   .text.XMC_SCU_CLOCK_EnableClock:00000000 $t
    {standard input}:2483   .text.XMC_SCU_CLOCK_EnableClock:00000000 XMC_SCU_CLOCK_EnableClock
    {standard input}:2498   .text.XMC_SCU_CLOCK_EnableClock:00000008 $d
    {standard input}:2503   .text.XMC_SCU_CLOCK_DisableClock:00000000 $t
    {standard input}:2508   .text.XMC_SCU_CLOCK_DisableClock:00000000 XMC_SCU_CLOCK_DisableClock
    {standard input}:2523   .text.XMC_SCU_CLOCK_DisableClock:00000008 $d
    {standard input}:2528   .text.XMC_SCU_CLOCK_IsClockEnabled:00000000 $t
    {standard input}:2533   .text.XMC_SCU_CLOCK_IsClockEnabled:00000000 XMC_SCU_CLOCK_IsClockEnabled
    {standard input}:2554   .text.XMC_SCU_CLOCK_IsClockEnabled:00000010 $d
    {standard input}:2559   .text.XMC_SCU_CLOCK_GatePeripheralClock:00000000 $t
    {standard input}:2564   .text.XMC_SCU_CLOCK_GatePeripheralClock:00000000 XMC_SCU_CLOCK_GatePeripheralClock
    {standard input}:2588   .text.XMC_SCU_CLOCK_GatePeripheralClock:00000014 $d
    {standard input}:2593   .text.XMC_SCU_CLOCK_UngatePeripheralClock:00000000 $t
    {standard input}:2598   .text.XMC_SCU_CLOCK_UngatePeripheralClock:00000000 XMC_SCU_CLOCK_UngatePeripheralClock
    {standard input}:2622   .text.XMC_SCU_CLOCK_UngatePeripheralClock:00000014 $d
    {standard input}:2627   .text.XMC_SCU_CLOCK_IsPeripheralClockGated:00000000 $t
    {standard input}:2632   .text.XMC_SCU_CLOCK_IsPeripheralClockGated:00000000 XMC_SCU_CLOCK_IsPeripheralClockGated
    {standard input}:2662   .text.XMC_SCU_CLOCK_IsPeripheralClockGated:0000001c $d
    {standard input}:2667   .text.XMC_SCU_POWER_GetEVR13Voltage:00000000 $t
    {standard input}:2672   .text.XMC_SCU_POWER_GetEVR13Voltage:00000000 XMC_SCU_POWER_GetEVR13Voltage
    {standard input}:2693   .text.XMC_SCU_POWER_GetEVR13Voltage:0000001c $d
    {standard input}:2699   .text.XMC_SCU_POWER_GetEVR33Voltage:00000000 $t
    {standard input}:2704   .text.XMC_SCU_POWER_GetEVR33Voltage:00000000 XMC_SCU_POWER_GetEVR33Voltage
    {standard input}:2725   .text.XMC_SCU_POWER_GetEVR33Voltage:00000020 $d
    {standard input}:2731   .text.XMC_SCU_CLOCK_EnableUsbPll:00000000 $t
    {standard input}:2736   .text.XMC_SCU_CLOCK_EnableUsbPll:00000000 XMC_SCU_CLOCK_EnableUsbPll
    {standard input}:2753   .text.XMC_SCU_CLOCK_EnableUsbPll:00000010 $d
    {standard input}:2758   .text.XMC_SCU_CLOCK_DisableUsbPll:00000000 $t
    {standard input}:2763   .text.XMC_SCU_CLOCK_DisableUsbPll:00000000 XMC_SCU_CLOCK_DisableUsbPll
    {standard input}:2780   .text.XMC_SCU_CLOCK_DisableUsbPll:00000010 $d
    {standard input}:2785   .text.XMC_SCU_CLOCK_StartUsbPll:00000000 $t
    {standard input}:2790   .text.XMC_SCU_CLOCK_StartUsbPll:00000000 XMC_SCU_CLOCK_StartUsbPll
    {standard input}:2843   .text.XMC_SCU_CLOCK_StartUsbPll:00000040 $d
    {standard input}:2848   .text.XMC_SCU_CLOCK_StopUsbPll:00000000 $t
    {standard input}:2853   .text.XMC_SCU_CLOCK_StopUsbPll:00000000 XMC_SCU_CLOCK_StopUsbPll
    {standard input}:2868   .text.XMC_SCU_CLOCK_StopUsbPll:00000008 $d
    {standard input}:2874   .text.XMC_SCU_CLOCK_SetBackupClockCalibrationMode:00000000 $t
    {standard input}:2879   .text.XMC_SCU_CLOCK_SetBackupClockCalibrationMode:00000000 XMC_SCU_CLOCK_SetBackupClockCalibrationMode
    {standard input}:2996   .text.XMC_SCU_CLOCK_SetBackupClockCalibrationMode:0000006c $d
    {standard input}:3003   .text.XMC_SCU_POWER_EnableUsb:00000000 $t
    {standard input}:3008   .text.XMC_SCU_POWER_EnableUsb:00000000 XMC_SCU_POWER_EnableUsb
    {standard input}:3023   .text.XMC_SCU_POWER_EnableUsb:0000000c $d
    {standard input}:3028   .text.XMC_SCU_POWER_DisableUsb:00000000 $t
    {standard input}:3033   .text.XMC_SCU_POWER_DisableUsb:00000000 XMC_SCU_POWER_DisableUsb
    {standard input}:3048   .text.XMC_SCU_POWER_DisableUsb:0000000c $d
    {standard input}:3053   .text.XMC_SCU_CLOCK_IsUsbPllLocked:00000000 $t
    {standard input}:3058   .text.XMC_SCU_CLOCK_IsUsbPllLocked:00000000 XMC_SCU_CLOCK_IsUsbPllLocked
    {standard input}:3074   .text.XMC_SCU_CLOCK_IsUsbPllLocked:0000000c $d
    {standard input}:3079   .text.XMC_SCU_HIB_EnableHibernateDomain:00000000 $t
    {standard input}:3084   .text.XMC_SCU_HIB_EnableHibernateDomain:00000000 XMC_SCU_HIB_EnableHibernateDomain
    {standard input}:3128   .text.XMC_SCU_HIB_EnableHibernateDomain:0000002c $d
    {standard input}:3134   .text.XMC_SCU_HIB_DisableHibernateDomain:00000000 $t
    {standard input}:3139   .text.XMC_SCU_HIB_DisableHibernateDomain:00000000 XMC_SCU_HIB_DisableHibernateDomain
    {standard input}:3162   .text.XMC_SCU_HIB_DisableHibernateDomain:00000010 $d
    {standard input}:3168   .text.XMC_SCU_HIB_IsHibernateDomainEnabled:00000000 $t
    {standard input}:3173   .text.XMC_SCU_HIB_IsHibernateDomainEnabled:00000000 XMC_SCU_HIB_IsHibernateDomainEnabled
    {standard input}:3196   .text.XMC_SCU_HIB_IsHibernateDomainEnabled:00000018 $d
    {standard input}:3201   .text.XMC_SCU_HIB_EnableInternalSlowClock:00000000 $t
    {standard input}:3206   .text.XMC_SCU_HIB_EnableInternalSlowClock:00000000 XMC_SCU_HIB_EnableInternalSlowClock
    {standard input}:3229   .text.XMC_SCU_HIB_EnableInternalSlowClock:00000018 $d
    {standard input}:3235   .text.XMC_SCU_HIB_DisableInternalSlowClock:00000000 $t
    {standard input}:3240   .text.XMC_SCU_HIB_DisableInternalSlowClock:00000000 XMC_SCU_HIB_DisableInternalSlowClock
    {standard input}:3263   .text.XMC_SCU_HIB_DisableInternalSlowClock:00000018 $d
    {standard input}:3269   .text.XMC_SCU_HIB_ClearEventStatus:00000000 $t
    {standard input}:3274   .text.XMC_SCU_HIB_ClearEventStatus:00000000 XMC_SCU_HIB_ClearEventStatus
    {standard input}:3296   .text.XMC_SCU_HIB_ClearEventStatus:00000010 $d
    {standard input}:3302   .text.XMC_SCU_HIB_TriggerEvent:00000000 $t
    {standard input}:3307   .text.XMC_SCU_HIB_TriggerEvent:00000000 XMC_SCU_HIB_TriggerEvent
    {standard input}:3329   .text.XMC_SCU_HIB_TriggerEvent:00000010 $d
    {standard input}:3335   .text.XMC_SCU_HIB_EnableEvent:00000000 $t
    {standard input}:3340   .text.XMC_SCU_HIB_EnableEvent:00000000 XMC_SCU_HIB_EnableEvent
    {standard input}:3365   .text.XMC_SCU_HIB_EnableEvent:00000014 $d
    {standard input}:3371   .text.XMC_SCU_HIB_DisableEvent:00000000 $t
    {standard input}:3376   .text.XMC_SCU_HIB_DisableEvent:00000000 XMC_SCU_HIB_DisableEvent
    {standard input}:3401   .text.XMC_SCU_HIB_DisableEvent:00000018 $d
    {standard input}:3407   .text.XMC_SCU_HIB_EnterHibernateState:00000000 $t
    {standard input}:3412   .text.XMC_SCU_HIB_EnterHibernateState:00000000 XMC_SCU_HIB_EnterHibernateState
    {standard input}:3435   .text.XMC_SCU_HIB_EnterHibernateState:00000018 $d
    {standard input}:3441   .text.XMC_SCU_HIB_EnterHibernateStateEx:00000000 $t
    {standard input}:3446   .text.XMC_SCU_HIB_EnterHibernateStateEx:00000000 XMC_SCU_HIB_EnterHibernateStateEx
    {standard input}:3474   .text.XMC_SCU_HIB_EnterHibernateStateEx:00000018 $d
    {standard input}:3482   .text.XMC_SCU_HIB_SetWakeupTriggerInput:00000000 $t
    {standard input}:3487   .text.XMC_SCU_HIB_SetWakeupTriggerInput:00000000 XMC_SCU_HIB_SetWakeupTriggerInput
    {standard input}:3519   .text.XMC_SCU_HIB_SetWakeupTriggerInput:00000020 $d
    {standard input}:3525   .text.XMC_SCU_HIB_SetPinMode:00000000 $t
    {standard input}:3530   .text.XMC_SCU_HIB_SetPinMode:00000000 XMC_SCU_HIB_SetPinMode
    {standard input}:3573   .text.XMC_SCU_HIB_SetPinMode:00000028 $d
    {standard input}:3579   .text.XMC_SCU_HIB_SetPinOutputLevel:00000000 $t
    {standard input}:3584   .text.XMC_SCU_HIB_SetPinOutputLevel:00000000 XMC_SCU_HIB_SetPinOutputLevel
    {standard input}:3625   .text.XMC_SCU_HIB_SetPinOutputLevel:00000028 $d
    {standard input}:3631   .text.XMC_SCU_HIB_SetInput0:00000000 $t
    {standard input}:3636   .text.XMC_SCU_HIB_SetInput0:00000000 XMC_SCU_HIB_SetInput0
    {standard input}:3668   .text.XMC_SCU_HIB_SetInput0:00000020 $d
    {standard input}:3674   .text.XMC_SCU_HIB_SetSR0Input:00000000 $t
    {standard input}:3679   .text.XMC_SCU_HIB_SetSR0Input:00000000 XMC_SCU_HIB_SetSR0Input
    {standard input}:3705   .text.XMC_SCU_HIB_SetSR0Input:00000018 $d
    {standard input}:3711   .text.XMC_SCU_CLOCK_IsLowPowerOscillatorStable:00000000 $t
    {standard input}:3716   .text.XMC_SCU_CLOCK_IsLowPowerOscillatorStable:00000000 XMC_SCU_CLOCK_IsLowPowerOscillatorStable
    {standard input}:3733   .text.XMC_SCU_CLOCK_IsLowPowerOscillatorStable:00000010 $d
    {standard input}:3738   .text.XMC_SCU_CLOCK_EnableLowPowerOscillator:00000000 $t
    {standard input}:3743   .text.XMC_SCU_CLOCK_EnableLowPowerOscillator:00000000 XMC_SCU_CLOCK_EnableLowPowerOscillator
    {standard input}:3809   .text.XMC_SCU_CLOCK_EnableLowPowerOscillator:00000044 $d
    {standard input}:3815   .text.XMC_SCU_CLOCK_DisableLowPowerOscillator:00000000 $t
    {standard input}:3820   .text.XMC_SCU_CLOCK_DisableLowPowerOscillator:00000000 XMC_SCU_CLOCK_DisableLowPowerOscillator
    {standard input}:3843   .text.XMC_SCU_CLOCK_DisableLowPowerOscillator:00000018 $d
    {standard input}:3849   .text.XMC_SCU_CLOCK_EnableLowPowerOscillatorGeneralPurposeInput:00000000 $t
    {standard input}:3854   .text.XMC_SCU_CLOCK_EnableLowPowerOscillatorGeneralPurposeInput:00000000 XMC_SCU_CLOCK_EnableLowPowerOscillatorGeneralPurposeInput
    {standard input}:3877   .text.XMC_SCU_CLOCK_EnableLowPowerOscillatorGeneralPurposeInput:00000018 $d
    {standard input}:3883   .text.XMC_SCU_CLOCK_DisableLowPowerOscillatorGeneralPurposeInput:00000000 $t
    {standard input}:3888   .text.XMC_SCU_CLOCK_DisableLowPowerOscillatorGeneralPurposeInput:00000000 XMC_SCU_CLOCK_DisableLowPowerOscillatorGeneralPurposeInput
    {standard input}:3912   .text.XMC_SCU_CLOCK_DisableLowPowerOscillatorGeneralPurposeInput:0000001c $d
    {standard input}:3918   .text.XMC_SCU_CLOCK_GetLowPowerOscillatorGeneralPurposeInputStatus:00000000 $t
    {standard input}:3923   .text.XMC_SCU_CLOCK_GetLowPowerOscillatorGeneralPurposeInputStatus:00000000 XMC_SCU_CLOCK_GetLowPowerOscillatorGeneralPurposeInputStatus
    {standard input}:3939   .text.XMC_SCU_CLOCK_GetLowPowerOscillatorGeneralPurposeInputStatus:0000000c $d
    {standard input}:3944   .text.XMC_SCU_CLOCK_EnableHighPerformanceOscillator:00000000 $t
    {standard input}:3949   .text.XMC_SCU_CLOCK_EnableHighPerformanceOscillator:00000000 XMC_SCU_CLOCK_EnableHighPerformanceOscillator
    {standard input}:3994   .text.XMC_SCU_CLOCK_EnableHighPerformanceOscillator:00000038 $d
    {standard input}:4001   .text.XMC_SCU_CLOCK_IsHighPerformanceOscillatorStable:00000000 $t
    {standard input}:4006   .text.XMC_SCU_CLOCK_IsHighPerformanceOscillatorStable:00000000 XMC_SCU_CLOCK_IsHighPerformanceOscillatorStable
    {standard input}:4025   .text.XMC_SCU_CLOCK_IsHighPerformanceOscillatorStable:00000014 $d
    {standard input}:4030   .text.XMC_SCU_CLOCK_DisableHighPerformanceOscillator:00000000 $t
    {standard input}:4035   .text.XMC_SCU_CLOCK_DisableHighPerformanceOscillator:00000000 XMC_SCU_CLOCK_DisableHighPerformanceOscillator
    {standard input}:4051   .text.XMC_SCU_CLOCK_DisableHighPerformanceOscillator:0000000c $d
    {standard input}:4056   .text.XMC_SCU_CLOCK_EnableHighPerformanceOscillatorGeneralPurposeInput:00000000 $t
    {standard input}:4061   .text.XMC_SCU_CLOCK_EnableHighPerformanceOscillatorGeneralPurposeInput:00000000 XMC_SCU_CLOCK_EnableHighPerformanceOscillatorGeneralPurposeInput
    {standard input}:4077   .text.XMC_SCU_CLOCK_EnableHighPerformanceOscillatorGeneralPurposeInput:0000000c $d
    {standard input}:4082   .text.XMC_SCU_CLOCK_DisableHighPerformanceOscillatorGeneralPurposeInput:00000000 $t
    {standard input}:4087   .text.XMC_SCU_CLOCK_DisableHighPerformanceOscillatorGeneralPurposeInput:00000000 XMC_SCU_CLOCK_DisableHighPerformanceOscillatorGeneralPurposeInput
    {standard input}:4103   .text.XMC_SCU_CLOCK_DisableHighPerformanceOscillatorGeneralPurposeInput:0000000c $d
    {standard input}:4108   .text.XMC_SCU_CLOCK_GetHighPerformanceOscillatorGeneralPurposeInputStatus:00000000 $t
    {standard input}:4113   .text.XMC_SCU_CLOCK_GetHighPerformanceOscillatorGeneralPurposeInputStatus:00000000 XMC_SCU_CLOCK_GetHighPerformanceOscillatorGeneralPurposeInputStatus
    {standard input}:4129   .text.XMC_SCU_CLOCK_GetHighPerformanceOscillatorGeneralPurposeInputStatus:0000000c $d
    {standard input}:4134   .text.XMC_SCU_CLOCK_EnableSystemPll:00000000 $t
    {standard input}:4139   .text.XMC_SCU_CLOCK_EnableSystemPll:00000000 XMC_SCU_CLOCK_EnableSystemPll
    {standard input}:4156   .text.XMC_SCU_CLOCK_EnableSystemPll:00000010 $d
    {standard input}:4161   .text.XMC_SCU_CLOCK_DisableSystemPll:00000000 $t
    {standard input}:4166   .text.XMC_SCU_CLOCK_DisableSystemPll:00000000 XMC_SCU_CLOCK_DisableSystemPll
    {standard input}:4183   .text.XMC_SCU_CLOCK_DisableSystemPll:00000010 $d
    {standard input}:4188   .text.XMC_SCU_CLOCK_StartSystemPll:00000000 $t
    {standard input}:4193   .text.XMC_SCU_CLOCK_StartSystemPll:00000000 XMC_SCU_CLOCK_StartSystemPll
    {standard input}:4582   .text.XMC_SCU_CLOCK_StartSystemPll:00000198 $d
    {standard input}:4599   .text.XMC_SCU_CLOCK_Init:00000000 $t
    {standard input}:4604   .text.XMC_SCU_CLOCK_Init:00000000 XMC_SCU_CLOCK_Init
    {standard input}:5149   .text.XMC_SCU_CLOCK_Init:000001e0 $d
    {standard input}:5165   .text.XMC_SCU_CLOCK_StopSystemPll:00000000 $t
    {standard input}:5170   .text.XMC_SCU_CLOCK_StopSystemPll:00000000 XMC_SCU_CLOCK_StopSystemPll
    {standard input}:5186   .text.XMC_SCU_CLOCK_StopSystemPll:0000000c $d
    {standard input}:5191   .text.XMC_SCU_CLOCK_StepSystemPllFrequency:00000000 $t
    {standard input}:5196   .text.XMC_SCU_CLOCK_StepSystemPllFrequency:00000000 XMC_SCU_CLOCK_StepSystemPllFrequency
    {standard input}:5256   .text.XMC_SCU_CLOCK_StepSystemPllFrequency:00000038 $d
    {standard input}:5265   .text.XMC_SCU_CLOCK_IsSystemPllLocked:00000000 $t
    {standard input}:5270   .text.XMC_SCU_CLOCK_IsSystemPllLocked:00000000 XMC_SCU_CLOCK_IsSystemPllLocked
    {standard input}:5286   .text.XMC_SCU_CLOCK_IsSystemPllLocked:0000000c $d
    {standard input}:5291   .text.XMC_SCU_INTERRUPT_SetEventHandler:00000000 $t
    {standard input}:5296   .text.XMC_SCU_INTERRUPT_SetEventHandler:00000000 XMC_SCU_INTERRUPT_SetEventHandler
    {standard input}:5351   .text.XMC_SCU_INTERRUPT_SetEventHandler:0000002c $d
                            *COM*:00000080 event_handler_list
    {standard input}:5356   .text.XMC_SCU_IRQHandler:00000000 $t
    {standard input}:5361   .text.XMC_SCU_IRQHandler:00000000 XMC_SCU_IRQHandler
    {standard input}:5436   .text.XMC_SCU_IRQHandler:00000030 $d
                     .debug_frame:00000010 $d

UNDEFINED SYMBOLS
OSCHP_GetFrequency
SystemCoreClock
SystemCoreClockUpdate
