   1              	 .syntax unified
   2              	 .cpu cortex-m4
   3              	 .eabi_attribute 27,3
   4              	 .fpu fpv4-sp-d16
   5              	 .eabi_attribute 20,1
   6              	 .eabi_attribute 21,1
   7              	 .eabi_attribute 23,3
   8              	 .eabi_attribute 24,1
   9              	 .eabi_attribute 25,1
  10              	 .eabi_attribute 26,1
  11              	 .eabi_attribute 30,2
  12              	 .eabi_attribute 34,1
  13              	 .eabi_attribute 18,4
  14              	 .thumb
  15              	 .file "xmc_ccu4.c"
  16              	 .text
  17              	.Ltext0:
  18              	 .cfi_sections .debug_frame
  19              	 .section .text.XMC_CCU4_EnableModule,"ax",%progbits
  20              	 .align 2
  21              	 .global XMC_CCU4_EnableModule
  22              	 .thumb
  23              	 .thumb_func
  25              	XMC_CCU4_EnableModule:
  26              	.LFB207:
  27              	 .file 1 "../Libraries/XMCLib/src/xmc_ccu4.c"
   1:../Libraries/XMCLib/src/xmc_ccu4.c **** /**
   2:../Libraries/XMCLib/src/xmc_ccu4.c ****  * @file xmc_ccu4.c
   3:../Libraries/XMCLib/src/xmc_ccu4.c ****  * @date 2017-04-27
   4:../Libraries/XMCLib/src/xmc_ccu4.c ****  *
   5:../Libraries/XMCLib/src/xmc_ccu4.c ****  * @cond
   6:../Libraries/XMCLib/src/xmc_ccu4.c ****  **************************************************************************************************
   7:../Libraries/XMCLib/src/xmc_ccu4.c ****  * XMClib v2.1.16 - XMC Peripheral Driver Library 
   8:../Libraries/XMCLib/src/xmc_ccu4.c ****  *
   9:../Libraries/XMCLib/src/xmc_ccu4.c ****  * Copyright (c) 2015-2017, Infineon Technologies AG
  10:../Libraries/XMCLib/src/xmc_ccu4.c ****  * All rights reserved.                        
  11:../Libraries/XMCLib/src/xmc_ccu4.c ****  *                                             
  12:../Libraries/XMCLib/src/xmc_ccu4.c ****  * Redistribution and use in source and binary forms, with or without modification,are permitted pr
  13:../Libraries/XMCLib/src/xmc_ccu4.c ****  * following conditions are met:   
  14:../Libraries/XMCLib/src/xmc_ccu4.c ****  *                                                                              
  15:../Libraries/XMCLib/src/xmc_ccu4.c ****  * Redistributions of source code must retain the above copyright notice, this list of conditions a
  16:../Libraries/XMCLib/src/xmc_ccu4.c ****  * disclaimer.                        
  17:../Libraries/XMCLib/src/xmc_ccu4.c ****  * 
  18:../Libraries/XMCLib/src/xmc_ccu4.c ****  * Redistributions in binary form must reproduce the above copyright notice, this list of condition
  19:../Libraries/XMCLib/src/xmc_ccu4.c ****  * disclaimer in the documentation and/or other materials provided with the distribution.          
  20:../Libraries/XMCLib/src/xmc_ccu4.c ****  * 
  21:../Libraries/XMCLib/src/xmc_ccu4.c ****  * Neither the name of the copyright holders nor the names of its contributors may be used to endor
  22:../Libraries/XMCLib/src/xmc_ccu4.c ****  * products derived from this software without specific prior written permission.                  
  23:../Libraries/XMCLib/src/xmc_ccu4.c ****  *                                                                              
  24:../Libraries/XMCLib/src/xmc_ccu4.c ****  * THIS SOFTWARE IS PROVIDED BY THE COPYRIGHT HOLDERS AND CONTRIBUTORS "AS IS" AND ANY EXPRESS OR I
  25:../Libraries/XMCLib/src/xmc_ccu4.c ****  * INCLUDING, BUT NOT LIMITED TO, THE IMPLIED WARRANTIES OF MERCHANTABILITY AND FITNESS FOR A PARTI
  26:../Libraries/XMCLib/src/xmc_ccu4.c ****  * DISCLAIMED. IN NO EVENT SHALL THE COPYRIGHT HOLDER OR CONTRIBUTORS BE LIABLE  FOR ANY DIRECT, IN
  27:../Libraries/XMCLib/src/xmc_ccu4.c ****  * SPECIAL, EXEMPLARY, OR CONSEQUENTIAL DAMAGES (INCLUDING, BUT NOT LIMITED TO, PROCUREMENT OF SUBS
  28:../Libraries/XMCLib/src/xmc_ccu4.c ****  * SERVICES; LOSS OF USE, DATA, OR PROFITS; OR BUSINESS INTERRUPTION) HOWEVER CAUSED AND ON ANY THE
  29:../Libraries/XMCLib/src/xmc_ccu4.c ****  * WHETHER IN CONTRACT, STRICT LIABILITY,OR TORT (INCLUDING NEGLIGENCE OR OTHERWISE) ARISING IN ANY
  30:../Libraries/XMCLib/src/xmc_ccu4.c ****  * OF THIS SOFTWARE, EVEN IF ADVISED OF THE POSSIBILITY OF SUCH DAMAGE.                            
  31:../Libraries/XMCLib/src/xmc_ccu4.c ****  *                                                                              
  32:../Libraries/XMCLib/src/xmc_ccu4.c ****  * To improve the quality of the software, users are encouraged to share modifications, enhancement
  33:../Libraries/XMCLib/src/xmc_ccu4.c ****  * Infineon Technologies AG dave@infineon.com).                                                    
  34:../Libraries/XMCLib/src/xmc_ccu4.c ****  **************************************************************************************************
  35:../Libraries/XMCLib/src/xmc_ccu4.c ****  *
  36:../Libraries/XMCLib/src/xmc_ccu4.c ****  * Change History
  37:../Libraries/XMCLib/src/xmc_ccu4.c ****  * --------------
  38:../Libraries/XMCLib/src/xmc_ccu4.c ****  *
  39:../Libraries/XMCLib/src/xmc_ccu4.c ****  * 2015-02-20:
  40:../Libraries/XMCLib/src/xmc_ccu4.c ****  *     - Initial <br>
  41:../Libraries/XMCLib/src/xmc_ccu4.c ****  *
  42:../Libraries/XMCLib/src/xmc_ccu4.c ****  * 2015-06-20:
  43:../Libraries/XMCLib/src/xmc_ccu4.c ****  *     - Removed definition of GetDriverVersion API <br>
  44:../Libraries/XMCLib/src/xmc_ccu4.c ****  *
  45:../Libraries/XMCLib/src/xmc_ccu4.c ****  * 2015-07-01:
  46:../Libraries/XMCLib/src/xmc_ccu4.c ****  *     - In XMC_CCU4_SLICE_StartConfig(), Options in XMC_ASSERT check for start mode is corrected. 
  47:../Libraries/XMCLib/src/xmc_ccu4.c ****  *
  48:../Libraries/XMCLib/src/xmc_ccu4.c ****  * 2015-07-24:
  49:../Libraries/XMCLib/src/xmc_ccu4.c ****  *     - XMC_CCU4_SLICE_ConfigureStatusBitOverrideEvent() is updated to support XMC14 device. <br>
  50:../Libraries/XMCLib/src/xmc_ccu4.c ****  *
  51:../Libraries/XMCLib/src/xmc_ccu4.c ****  * 2015-08-17:
  52:../Libraries/XMCLib/src/xmc_ccu4.c ****  *     - Start of prescaler XMC_CCU4_StartPrescaler() is invoked in XMC_CCU4_Init() API. <br>
  53:../Libraries/XMCLib/src/xmc_ccu4.c ****  *     - Bug fix XMC_CCU4_SLICE_ConfigureEvent() during the level setting for XMC14 devices. <br>
  54:../Libraries/XMCLib/src/xmc_ccu4.c ****  *     - XMC_CCU4_EnableShadowTransfer() definition is removed, since the API is made as inline. <b
  55:../Libraries/XMCLib/src/xmc_ccu4.c ****  *
  56:../Libraries/XMCLib/src/xmc_ccu4.c ****  * 2015-10-07:
  57:../Libraries/XMCLib/src/xmc_ccu4.c ****  *     - XMC_CCU4_SLICE_GetEvent() is made as inline.
  58:../Libraries/XMCLib/src/xmc_ccu4.c ****  *     - DOC updates for the newly added APIs.
  59:../Libraries/XMCLib/src/xmc_ccu4.c ****  *
  60:../Libraries/XMCLib/src/xmc_ccu4.c ****  * 2017-02-25:
  61:../Libraries/XMCLib/src/xmc_ccu4.c ****  *     - XMC_CCU4_lAssertReset(), XMC_CCU4_lDeassertReset(), XMC_CCU4_lGateClock() and XMC_CCU4_lUn
  62:../Libraries/XMCLib/src/xmc_ccu4.c ****  *
  63:../Libraries/XMCLib/src/xmc_ccu4.c ****  * 2017-04-27:
  64:../Libraries/XMCLib/src/xmc_ccu4.c ****  *     - XMC_CCU4_SLICE_SetPrescaler() changed div_val parameter to type XMC_CCU4_SLICE_PRESCALER_t
  65:../Libraries/XMCLib/src/xmc_ccu4.c ****  *
  66:../Libraries/XMCLib/src/xmc_ccu4.c ****  * @endcond
  67:../Libraries/XMCLib/src/xmc_ccu4.c ****  */
  68:../Libraries/XMCLib/src/xmc_ccu4.c ****  
  69:../Libraries/XMCLib/src/xmc_ccu4.c **** /**************************************************************************************************
  70:../Libraries/XMCLib/src/xmc_ccu4.c ****  * HEADER FILES
  71:../Libraries/XMCLib/src/xmc_ccu4.c ****  **************************************************************************************************
  72:../Libraries/XMCLib/src/xmc_ccu4.c **** #include "xmc_ccu4.h"
  73:../Libraries/XMCLib/src/xmc_ccu4.c **** 
  74:../Libraries/XMCLib/src/xmc_ccu4.c **** #if defined(CCU40)
  75:../Libraries/XMCLib/src/xmc_ccu4.c **** #include "xmc_scu.h"
  76:../Libraries/XMCLib/src/xmc_ccu4.c **** /**************************************************************************************************
  77:../Libraries/XMCLib/src/xmc_ccu4.c ****  * MACROS
  78:../Libraries/XMCLib/src/xmc_ccu4.c ****  **************************************************************************************************
  79:../Libraries/XMCLib/src/xmc_ccu4.c **** #define XMC_CCU4_NUM_SLICES_PER_MODULE          (4U)
  80:../Libraries/XMCLib/src/xmc_ccu4.c **** #define XMC_CCU4_SLICE_DITHER_PERIOD_MASK       (1U)
  81:../Libraries/XMCLib/src/xmc_ccu4.c **** #define XMC_CCU4_SLICE_DITHER_DUTYCYCLE_MASK    (2U)
  82:../Libraries/XMCLib/src/xmc_ccu4.c **** #define XMC_CCU4_SLICE_EVENT_EDGE_CONFIG_MASK   (3U)
  83:../Libraries/XMCLib/src/xmc_ccu4.c **** #define XMC_CCU4_SLICE_EVENT_LEVEL_CONFIG_MASK  (1U)
  84:../Libraries/XMCLib/src/xmc_ccu4.c **** #define XMC_CCU4_SLICE_EVENT_FILTER_CONFIG_MASK (3U)
  85:../Libraries/XMCLib/src/xmc_ccu4.c **** #if defined(CCU4V3) /* Defined for XMC1400 devices only */
  86:../Libraries/XMCLib/src/xmc_ccu4.c **** #define XMC_CCU4_SLICE_EVENT_INPUT_CONFIG_MASK  CCU4_CC4_INS1_EV0IS_Msk
  87:../Libraries/XMCLib/src/xmc_ccu4.c **** #else
  88:../Libraries/XMCLib/src/xmc_ccu4.c **** #define XMC_CCU4_SLICE_EVENT_INPUT_CONFIG_MASK  CCU4_CC4_INS_EV0IS_Msk
  89:../Libraries/XMCLib/src/xmc_ccu4.c **** #endif
  90:../Libraries/XMCLib/src/xmc_ccu4.c **** #define XMC_CCU4_GIDLC_CLOCK_MASK               (15U)
  91:../Libraries/XMCLib/src/xmc_ccu4.c **** #define XMC_CCU4_GCSS_SLICE0_MASK               (1U)
  92:../Libraries/XMCLib/src/xmc_ccu4.c **** #define XMC_CCU4_GCSS_SLICE1_MASK               (16U)
  93:../Libraries/XMCLib/src/xmc_ccu4.c **** #define XMC_CCU4_GCSS_SLICE2_MASK               (256U)
  94:../Libraries/XMCLib/src/xmc_ccu4.c **** #define XMC_CCU4_GCSS_SLICE3_MASK               (4096U)
  95:../Libraries/XMCLib/src/xmc_ccu4.c **** 
  96:../Libraries/XMCLib/src/xmc_ccu4.c **** /** Macro to check if the clock selected enum passed is valid */
  97:../Libraries/XMCLib/src/xmc_ccu4.c **** #define XMC_CCU4_SLICE_CHECK_CLOCK(clock) \
  98:../Libraries/XMCLib/src/xmc_ccu4.c ****     ((clock == XMC_CCU4_CLOCK_SCU)        || \
  99:../Libraries/XMCLib/src/xmc_ccu4.c ****      (clock == XMC_CCU4_CLOCK_EXTERNAL_A) || \
 100:../Libraries/XMCLib/src/xmc_ccu4.c ****      (clock == XMC_CCU4_CLOCK_EXTERNAL_B) || \
 101:../Libraries/XMCLib/src/xmc_ccu4.c ****      (clock == XMC_CCU4_CLOCK_EXTERNAL_C))
 102:../Libraries/XMCLib/src/xmc_ccu4.c **** 
 103:../Libraries/XMCLib/src/xmc_ccu4.c **** /** Macro used to check if the event ID is valid*/
 104:../Libraries/XMCLib/src/xmc_ccu4.c **** #define XMC_CCU4_SLICE_CHECK_EVENT_ID(event_id) \
 105:../Libraries/XMCLib/src/xmc_ccu4.c ****     ((event_id == XMC_CCU4_SLICE_EVENT_NONE)|| \
 106:../Libraries/XMCLib/src/xmc_ccu4.c ****      (event_id == XMC_CCU4_SLICE_EVENT_0)   || \
 107:../Libraries/XMCLib/src/xmc_ccu4.c ****      (event_id == XMC_CCU4_SLICE_EVENT_1)   || \
 108:../Libraries/XMCLib/src/xmc_ccu4.c ****      (event_id == XMC_CCU4_SLICE_EVENT_2))
 109:../Libraries/XMCLib/src/xmc_ccu4.c **** 
 110:../Libraries/XMCLib/src/xmc_ccu4.c **** /** Macro used to check if the edge sensitivity is valid*/
 111:../Libraries/XMCLib/src/xmc_ccu4.c **** #define XMC_CCU4_SLICE_CHECK_EDGE_SENSITIVITY(edge) \
 112:../Libraries/XMCLib/src/xmc_ccu4.c ****     ((edge == XMC_CCU4_SLICE_EVENT_EDGE_SENSITIVITY_NONE)        || \
 113:../Libraries/XMCLib/src/xmc_ccu4.c ****      (edge == XMC_CCU4_SLICE_EVENT_EDGE_SENSITIVITY_RISING_EDGE) || \
 114:../Libraries/XMCLib/src/xmc_ccu4.c ****      (edge == XMC_CCU4_SLICE_EVENT_EDGE_SENSITIVITY_FALLING_EDGE)|| \
 115:../Libraries/XMCLib/src/xmc_ccu4.c ****      (edge == XMC_CCU4_SLICE_EVENT_EDGE_SENSITIVITY_DUAL_EDGE))
 116:../Libraries/XMCLib/src/xmc_ccu4.c **** 
 117:../Libraries/XMCLib/src/xmc_ccu4.c **** /** Macro used to check if the filter clock cycles are valid */
 118:../Libraries/XMCLib/src/xmc_ccu4.c **** #define XMC_CCU4_SLICE_CHECK_EVENT_FILTER(cycles) \
 119:../Libraries/XMCLib/src/xmc_ccu4.c ****     ((cycles == XMC_CCU4_SLICE_EVENT_FILTER_DISABLED) || \
 120:../Libraries/XMCLib/src/xmc_ccu4.c ****      (cycles == XMC_CCU4_SLICE_EVENT_FILTER_3_CYCLES) || \
 121:../Libraries/XMCLib/src/xmc_ccu4.c ****      (cycles == XMC_CCU4_SLICE_EVENT_FILTER_5_CYCLES) || \
 122:../Libraries/XMCLib/src/xmc_ccu4.c ****      (cycles == XMC_CCU4_SLICE_EVENT_FILTER_7_CYCLES))
 123:../Libraries/XMCLib/src/xmc_ccu4.c **** 
 124:../Libraries/XMCLib/src/xmc_ccu4.c **** /** Macro used to check if the Multi-channel input related action is valid*/
 125:../Libraries/XMCLib/src/xmc_ccu4.c **** #define XMC_CCU4_SLICE_CHECK_MCS_ACTION(mcs_action) \
 126:../Libraries/XMCLib/src/xmc_ccu4.c ****     ((mcs_action == XMC_CCU4_SLICE_MCMS_ACTION_TRANSFER_PR_CR)      || \
 127:../Libraries/XMCLib/src/xmc_ccu4.c ****      (mcs_action == XMC_CCU4_SLICE_MCMS_ACTION_TRANSFER_PR_CR_PCMP) || \
 128:../Libraries/XMCLib/src/xmc_ccu4.c ****      (mcs_action == XMC_CCU4_SLICE_MCMS_ACTION_TRANSFER_PR_CR_PCMP_DIT))
 129:../Libraries/XMCLib/src/xmc_ccu4.c **** 
 130:../Libraries/XMCLib/src/xmc_ccu4.c **** /** Macro used to check if the SR line is valid*/
 131:../Libraries/XMCLib/src/xmc_ccu4.c **** #define XMC_CCU4_SLICE_CHECK_SR_ID(id) \
 132:../Libraries/XMCLib/src/xmc_ccu4.c ****     ((id == XMC_CCU4_SLICE_SR_ID_0) || \
 133:../Libraries/XMCLib/src/xmc_ccu4.c ****      (id == XMC_CCU4_SLICE_SR_ID_1) || \
 134:../Libraries/XMCLib/src/xmc_ccu4.c ****      (id == XMC_CCU4_SLICE_SR_ID_2) || \
 135:../Libraries/XMCLib/src/xmc_ccu4.c ****      (id == XMC_CCU4_SLICE_SR_ID_3))
 136:../Libraries/XMCLib/src/xmc_ccu4.c **** 
 137:../Libraries/XMCLib/src/xmc_ccu4.c **** /** Macro to check if the end mode enum passed is valid */
 138:../Libraries/XMCLib/src/xmc_ccu4.c **** #define XMC_CCU4_CHECK_END_MODE(end_mode) \
 139:../Libraries/XMCLib/src/xmc_ccu4.c ****     ((end_mode == XMC_CCU4_SLICE_END_MODE_TIMER_STOP) || \
 140:../Libraries/XMCLib/src/xmc_ccu4.c ****      (end_mode == XMC_CCU4_SLICE_END_MODE_TIMER_CLEAR) || \
 141:../Libraries/XMCLib/src/xmc_ccu4.c ****      (end_mode == XMC_CCU4_SLICE_END_MODE_TIMER_STOP_CLEAR))
 142:../Libraries/XMCLib/src/xmc_ccu4.c **** 
 143:../Libraries/XMCLib/src/xmc_ccu4.c **** /**************************************************************************************************
 144:../Libraries/XMCLib/src/xmc_ccu4.c ****  * LOCAL ROUTINES
 145:../Libraries/XMCLib/src/xmc_ccu4.c ****  **************************************************************************************************
 146:../Libraries/XMCLib/src/xmc_ccu4.c **** #if defined(PERIPHERAL_RESET_SUPPORTED)
 147:../Libraries/XMCLib/src/xmc_ccu4.c **** __STATIC_INLINE void XMC_CCU4_lAssertReset(const XMC_CCU4_MODULE_t *const module)
 148:../Libraries/XMCLib/src/xmc_ccu4.c **** {
 149:../Libraries/XMCLib/src/xmc_ccu4.c ****   if (module == CCU40)
 150:../Libraries/XMCLib/src/xmc_ccu4.c ****   {
 151:../Libraries/XMCLib/src/xmc_ccu4.c ****     XMC_SCU_RESET_AssertPeripheralReset(XMC_SCU_PERIPHERAL_RESET_CCU40);
 152:../Libraries/XMCLib/src/xmc_ccu4.c ****   }
 153:../Libraries/XMCLib/src/xmc_ccu4.c **** #if defined(CCU41)
 154:../Libraries/XMCLib/src/xmc_ccu4.c ****   else if (module == CCU41)
 155:../Libraries/XMCLib/src/xmc_ccu4.c ****   {
 156:../Libraries/XMCLib/src/xmc_ccu4.c ****     XMC_SCU_RESET_AssertPeripheralReset(XMC_SCU_PERIPHERAL_RESET_CCU41);
 157:../Libraries/XMCLib/src/xmc_ccu4.c ****   }
 158:../Libraries/XMCLib/src/xmc_ccu4.c **** #endif
 159:../Libraries/XMCLib/src/xmc_ccu4.c **** #if defined(CCU42)
 160:../Libraries/XMCLib/src/xmc_ccu4.c ****   else if (module == CCU42)
 161:../Libraries/XMCLib/src/xmc_ccu4.c ****   {
 162:../Libraries/XMCLib/src/xmc_ccu4.c ****     XMC_SCU_RESET_AssertPeripheralReset(XMC_SCU_PERIPHERAL_RESET_CCU42);
 163:../Libraries/XMCLib/src/xmc_ccu4.c ****   }
 164:../Libraries/XMCLib/src/xmc_ccu4.c **** #endif
 165:../Libraries/XMCLib/src/xmc_ccu4.c **** #if defined(CCU43)
 166:../Libraries/XMCLib/src/xmc_ccu4.c ****   else if (module == CCU43)
 167:../Libraries/XMCLib/src/xmc_ccu4.c ****   {
 168:../Libraries/XMCLib/src/xmc_ccu4.c ****     XMC_SCU_RESET_AssertPeripheralReset(XMC_SCU_PERIPHERAL_RESET_CCU43);
 169:../Libraries/XMCLib/src/xmc_ccu4.c ****   }
 170:../Libraries/XMCLib/src/xmc_ccu4.c **** #endif
 171:../Libraries/XMCLib/src/xmc_ccu4.c ****   else
 172:../Libraries/XMCLib/src/xmc_ccu4.c ****   {
 173:../Libraries/XMCLib/src/xmc_ccu4.c ****     XMC_ASSERT("XMC_CCU4_lAssertReset:Invalid Module Pointer", 0);
 174:../Libraries/XMCLib/src/xmc_ccu4.c ****   }
 175:../Libraries/XMCLib/src/xmc_ccu4.c **** }
 176:../Libraries/XMCLib/src/xmc_ccu4.c **** 
 177:../Libraries/XMCLib/src/xmc_ccu4.c **** __STATIC_INLINE void XMC_CCU4_lDeassertReset(const XMC_CCU4_MODULE_t *const module)
 178:../Libraries/XMCLib/src/xmc_ccu4.c **** {
 179:../Libraries/XMCLib/src/xmc_ccu4.c ****   if (module == CCU40)
 180:../Libraries/XMCLib/src/xmc_ccu4.c ****   {
 181:../Libraries/XMCLib/src/xmc_ccu4.c ****     XMC_SCU_RESET_DeassertPeripheralReset(XMC_SCU_PERIPHERAL_RESET_CCU40);
 182:../Libraries/XMCLib/src/xmc_ccu4.c ****   }
 183:../Libraries/XMCLib/src/xmc_ccu4.c **** #if defined(CCU41)
 184:../Libraries/XMCLib/src/xmc_ccu4.c ****   else if (module == CCU41)
 185:../Libraries/XMCLib/src/xmc_ccu4.c ****   {
 186:../Libraries/XMCLib/src/xmc_ccu4.c ****     XMC_SCU_RESET_DeassertPeripheralReset(XMC_SCU_PERIPHERAL_RESET_CCU41);
 187:../Libraries/XMCLib/src/xmc_ccu4.c ****   }
 188:../Libraries/XMCLib/src/xmc_ccu4.c **** #endif
 189:../Libraries/XMCLib/src/xmc_ccu4.c **** #if defined(CCU42)
 190:../Libraries/XMCLib/src/xmc_ccu4.c ****   else if (module == CCU42)
 191:../Libraries/XMCLib/src/xmc_ccu4.c ****   {
 192:../Libraries/XMCLib/src/xmc_ccu4.c ****     XMC_SCU_RESET_DeassertPeripheralReset(XMC_SCU_PERIPHERAL_RESET_CCU42);
 193:../Libraries/XMCLib/src/xmc_ccu4.c ****   }
 194:../Libraries/XMCLib/src/xmc_ccu4.c **** #endif
 195:../Libraries/XMCLib/src/xmc_ccu4.c **** #if defined(CCU43)
 196:../Libraries/XMCLib/src/xmc_ccu4.c ****   else if (module == CCU43)
 197:../Libraries/XMCLib/src/xmc_ccu4.c ****   {
 198:../Libraries/XMCLib/src/xmc_ccu4.c ****     XMC_SCU_RESET_DeassertPeripheralReset(XMC_SCU_PERIPHERAL_RESET_CCU43);
 199:../Libraries/XMCLib/src/xmc_ccu4.c ****   }
 200:../Libraries/XMCLib/src/xmc_ccu4.c **** #endif
 201:../Libraries/XMCLib/src/xmc_ccu4.c ****   else
 202:../Libraries/XMCLib/src/xmc_ccu4.c ****   {
 203:../Libraries/XMCLib/src/xmc_ccu4.c ****     XMC_ASSERT("XMC_CCU4_lDeassertReset:Invalid Module Pointer", 0);
 204:../Libraries/XMCLib/src/xmc_ccu4.c ****   }
 205:../Libraries/XMCLib/src/xmc_ccu4.c **** }
 206:../Libraries/XMCLib/src/xmc_ccu4.c **** #endif
 207:../Libraries/XMCLib/src/xmc_ccu4.c **** 
 208:../Libraries/XMCLib/src/xmc_ccu4.c **** #if defined(CLOCK_GATING_SUPPORTED)
 209:../Libraries/XMCLib/src/xmc_ccu4.c **** __STATIC_INLINE void XMC_CCU4_lGateClock(const XMC_CCU4_MODULE_t *const module)
 210:../Libraries/XMCLib/src/xmc_ccu4.c **** {
 211:../Libraries/XMCLib/src/xmc_ccu4.c **** 
 212:../Libraries/XMCLib/src/xmc_ccu4.c ****   if (module == CCU40)
 213:../Libraries/XMCLib/src/xmc_ccu4.c ****   {
 214:../Libraries/XMCLib/src/xmc_ccu4.c ****     XMC_SCU_CLOCK_GatePeripheralClock(XMC_SCU_PERIPHERAL_CLOCK_CCU40);
 215:../Libraries/XMCLib/src/xmc_ccu4.c ****   }
 216:../Libraries/XMCLib/src/xmc_ccu4.c **** #if defined(CCU41)
 217:../Libraries/XMCLib/src/xmc_ccu4.c ****   else if (module == CCU41)
 218:../Libraries/XMCLib/src/xmc_ccu4.c ****   {
 219:../Libraries/XMCLib/src/xmc_ccu4.c ****     XMC_SCU_CLOCK_GatePeripheralClock(XMC_SCU_PERIPHERAL_CLOCK_CCU41);
 220:../Libraries/XMCLib/src/xmc_ccu4.c ****   }
 221:../Libraries/XMCLib/src/xmc_ccu4.c **** #endif
 222:../Libraries/XMCLib/src/xmc_ccu4.c **** #if defined(CCU42)
 223:../Libraries/XMCLib/src/xmc_ccu4.c ****   else if (module == CCU42)
 224:../Libraries/XMCLib/src/xmc_ccu4.c ****   {
 225:../Libraries/XMCLib/src/xmc_ccu4.c ****     XMC_SCU_CLOCK_GatePeripheralClock(XMC_SCU_PERIPHERAL_CLOCK_CCU42);
 226:../Libraries/XMCLib/src/xmc_ccu4.c ****   }
 227:../Libraries/XMCLib/src/xmc_ccu4.c **** #endif
 228:../Libraries/XMCLib/src/xmc_ccu4.c **** #if defined(CCU43)
 229:../Libraries/XMCLib/src/xmc_ccu4.c ****   else if (module == CCU43)
 230:../Libraries/XMCLib/src/xmc_ccu4.c ****   {
 231:../Libraries/XMCLib/src/xmc_ccu4.c ****     XMC_SCU_CLOCK_GatePeripheralClock(XMC_SCU_PERIPHERAL_CLOCK_CCU43);
 232:../Libraries/XMCLib/src/xmc_ccu4.c ****   }
 233:../Libraries/XMCLib/src/xmc_ccu4.c **** #endif
 234:../Libraries/XMCLib/src/xmc_ccu4.c ****   else
 235:../Libraries/XMCLib/src/xmc_ccu4.c ****   {
 236:../Libraries/XMCLib/src/xmc_ccu4.c ****     XMC_ASSERT("XMC_CCU4_lGateClock:Invalid Module Pointer", 0);
 237:../Libraries/XMCLib/src/xmc_ccu4.c ****   }
 238:../Libraries/XMCLib/src/xmc_ccu4.c **** }
 239:../Libraries/XMCLib/src/xmc_ccu4.c **** 
 240:../Libraries/XMCLib/src/xmc_ccu4.c **** __STATIC_INLINE void XMC_CCU4_lUngateClock(const XMC_CCU4_MODULE_t *const module)
 241:../Libraries/XMCLib/src/xmc_ccu4.c **** {
 242:../Libraries/XMCLib/src/xmc_ccu4.c ****   if (module == CCU40)
 243:../Libraries/XMCLib/src/xmc_ccu4.c ****   {
 244:../Libraries/XMCLib/src/xmc_ccu4.c ****     XMC_SCU_CLOCK_UngatePeripheralClock(XMC_SCU_PERIPHERAL_CLOCK_CCU40);
 245:../Libraries/XMCLib/src/xmc_ccu4.c ****   }
 246:../Libraries/XMCLib/src/xmc_ccu4.c **** #if defined(CCU41)
 247:../Libraries/XMCLib/src/xmc_ccu4.c ****   else if (module == CCU41)
 248:../Libraries/XMCLib/src/xmc_ccu4.c ****   {
 249:../Libraries/XMCLib/src/xmc_ccu4.c ****     XMC_SCU_CLOCK_UngatePeripheralClock(XMC_SCU_PERIPHERAL_CLOCK_CCU41);
 250:../Libraries/XMCLib/src/xmc_ccu4.c ****   }
 251:../Libraries/XMCLib/src/xmc_ccu4.c **** #endif
 252:../Libraries/XMCLib/src/xmc_ccu4.c **** #if defined(CCU42)
 253:../Libraries/XMCLib/src/xmc_ccu4.c ****   else if (module == CCU42)
 254:../Libraries/XMCLib/src/xmc_ccu4.c ****   {
 255:../Libraries/XMCLib/src/xmc_ccu4.c ****     XMC_SCU_CLOCK_UngatePeripheralClock(XMC_SCU_PERIPHERAL_CLOCK_CCU42);
 256:../Libraries/XMCLib/src/xmc_ccu4.c ****   }
 257:../Libraries/XMCLib/src/xmc_ccu4.c **** #endif
 258:../Libraries/XMCLib/src/xmc_ccu4.c **** #if defined(CCU43)
 259:../Libraries/XMCLib/src/xmc_ccu4.c ****   else if (module == CCU43)
 260:../Libraries/XMCLib/src/xmc_ccu4.c ****   {
 261:../Libraries/XMCLib/src/xmc_ccu4.c ****     XMC_SCU_CLOCK_UngatePeripheralClock(XMC_SCU_PERIPHERAL_CLOCK_CCU43);
 262:../Libraries/XMCLib/src/xmc_ccu4.c ****   }
 263:../Libraries/XMCLib/src/xmc_ccu4.c **** #endif
 264:../Libraries/XMCLib/src/xmc_ccu4.c ****   else
 265:../Libraries/XMCLib/src/xmc_ccu4.c ****   {
 266:../Libraries/XMCLib/src/xmc_ccu4.c ****     XMC_ASSERT("XMC_CCU4_lUngateClock:Invalid Module Pointer", 0);
 267:../Libraries/XMCLib/src/xmc_ccu4.c ****   }
 268:../Libraries/XMCLib/src/xmc_ccu4.c **** }
 269:../Libraries/XMCLib/src/xmc_ccu4.c **** #endif
 270:../Libraries/XMCLib/src/xmc_ccu4.c **** 
 271:../Libraries/XMCLib/src/xmc_ccu4.c **** #if defined (XMC_ASSERT_ENABLE)
 272:../Libraries/XMCLib/src/xmc_ccu4.c **** __STATIC_INLINE bool XMC_CCU4_SLICE_IsInputvalid(XMC_CCU4_SLICE_INPUT_t input)
 273:../Libraries/XMCLib/src/xmc_ccu4.c **** {
 274:../Libraries/XMCLib/src/xmc_ccu4.c **** #if (UC_SERIES == XMC14)
 275:../Libraries/XMCLib/src/xmc_ccu4.c ****   return (input < 48U);
 276:../Libraries/XMCLib/src/xmc_ccu4.c **** #else
 277:../Libraries/XMCLib/src/xmc_ccu4.c ****   return (input < 16U);
 278:../Libraries/XMCLib/src/xmc_ccu4.c **** #endif
 279:../Libraries/XMCLib/src/xmc_ccu4.c **** }
 280:../Libraries/XMCLib/src/xmc_ccu4.c **** #endif
 281:../Libraries/XMCLib/src/xmc_ccu4.c **** /**************************************************************************************************
 282:../Libraries/XMCLib/src/xmc_ccu4.c ****  * API IMPLEMENTATION
 283:../Libraries/XMCLib/src/xmc_ccu4.c ****  **************************************************************************************************
 284:../Libraries/XMCLib/src/xmc_ccu4.c **** 
 285:../Libraries/XMCLib/src/xmc_ccu4.c **** void XMC_CCU4_EnableModule(XMC_CCU4_MODULE_t *const module)
 286:../Libraries/XMCLib/src/xmc_ccu4.c **** {
  28              	 .loc 1 286 0
  29              	 .cfi_startproc
  30              	 
  31              	 
  32              	.LVL0:
  33 0000 10B5     	 push {r4,lr}
  34              	.LCFI0:
  35              	 .cfi_def_cfa_offset 8
  36              	 .cfi_offset 4,-8
  37              	 .cfi_offset 14,-4
  38              	 .loc 1 286 0
  39 0002 0446     	 mov r4,r0
 287:../Libraries/XMCLib/src/xmc_ccu4.c ****   XMC_ASSERT("XMC_CCU4_EnableModule:Invalid Module Pointer", XMC_CCU4_IsValidModule(module));
 288:../Libraries/XMCLib/src/xmc_ccu4.c **** 
 289:../Libraries/XMCLib/src/xmc_ccu4.c **** #if UC_FAMILY == XMC4
 290:../Libraries/XMCLib/src/xmc_ccu4.c ****   /* Enable CCU4 module clock */
 291:../Libraries/XMCLib/src/xmc_ccu4.c ****   XMC_SCU_CLOCK_EnableClock(XMC_SCU_CLOCK_CCU);
  40              	 .loc 1 291 0
  41 0004 1020     	 movs r0,#16
  42              	.LVL1:
  43 0006 FFF7FEFF 	 bl XMC_SCU_CLOCK_EnableClock
  44              	.LVL2:
  45              	.LBB10:
  46              	.LBB11:
 242:../Libraries/XMCLib/src/xmc_ccu4.c ****   {
  47              	 .loc 1 242 0
  48 000a 164B     	 ldr r3,.L12
  49 000c 9C42     	 cmp r4,r3
  50 000e 11D0     	 beq .L8
 247:../Libraries/XMCLib/src/xmc_ccu4.c ****   {
  51              	 .loc 1 247 0
  52 0010 154B     	 ldr r3,.L12+4
  53 0012 9C42     	 cmp r4,r3
  54 0014 16D0     	 beq .L9
 253:../Libraries/XMCLib/src/xmc_ccu4.c ****   {
  55              	 .loc 1 253 0
  56 0016 154B     	 ldr r3,.L12+8
  57 0018 9C42     	 cmp r4,r3
  58 001a 1BD0     	 beq .L10
 259:../Libraries/XMCLib/src/xmc_ccu4.c ****   {
  59              	 .loc 1 259 0
  60 001c 144B     	 ldr r3,.L12+12
  61 001e 9C42     	 cmp r4,r3
  62 0020 00D0     	 beq .L11
  63 0022 10BD     	 pop {r4,pc}
  64              	.LVL3:
  65              	.L11:
 261:../Libraries/XMCLib/src/xmc_ccu4.c ****   }
  66              	 .loc 1 261 0
  67 0024 1348     	 ldr r0,.L12+16
  68 0026 FFF7FEFF 	 bl XMC_SCU_CLOCK_UngatePeripheralClock
  69              	.LVL4:
  70              	.LBE11:
  71              	.LBE10:
  72              	.LBB15:
  73              	.LBB16:
 198:../Libraries/XMCLib/src/xmc_ccu4.c ****   }
  74              	 .loc 1 198 0
  75 002a 1248     	 ldr r0,.L12+16
  76              	.LBE16:
  77              	.LBE15:
 292:../Libraries/XMCLib/src/xmc_ccu4.c **** #endif
 293:../Libraries/XMCLib/src/xmc_ccu4.c ****   
 294:../Libraries/XMCLib/src/xmc_ccu4.c **** #if defined(CLOCK_GATING_SUPPORTED)
 295:../Libraries/XMCLib/src/xmc_ccu4.c ****   XMC_CCU4_lUngateClock(module);
 296:../Libraries/XMCLib/src/xmc_ccu4.c **** #endif
 297:../Libraries/XMCLib/src/xmc_ccu4.c **** 
 298:../Libraries/XMCLib/src/xmc_ccu4.c **** #if defined(PERIPHERAL_RESET_SUPPORTED)
 299:../Libraries/XMCLib/src/xmc_ccu4.c ****   XMC_CCU4_lDeassertReset(module);
 300:../Libraries/XMCLib/src/xmc_ccu4.c **** #endif
 301:../Libraries/XMCLib/src/xmc_ccu4.c **** }
  78              	 .loc 1 301 0
  79 002c BDE81040 	 pop {r4,lr}
  80              	.LCFI1:
  81              	 .cfi_remember_state
  82              	 .cfi_restore 14
  83              	 .cfi_restore 4
  84              	 .cfi_def_cfa_offset 0
  85              	.LVL5:
  86              	.LBB24:
  87              	.LBB17:
 198:../Libraries/XMCLib/src/xmc_ccu4.c ****   }
  88              	 .loc 1 198 0
  89 0030 FFF7FEBF 	 b XMC_SCU_RESET_DeassertPeripheralReset
  90              	.LVL6:
  91              	.L8:
  92              	.LCFI2:
  93              	 .cfi_restore_state
  94              	.LBE17:
  95              	.LBE24:
  96              	.LBB25:
  97              	.LBB12:
 244:../Libraries/XMCLib/src/xmc_ccu4.c ****   }
  98              	 .loc 1 244 0
  99 0034 0420     	 movs r0,#4
 100 0036 FFF7FEFF 	 bl XMC_SCU_CLOCK_UngatePeripheralClock
 101              	.LVL7:
 102              	.LBE12:
 103              	.LBE25:
 104              	.LBB26:
 105              	.LBB18:
 181:../Libraries/XMCLib/src/xmc_ccu4.c ****   }
 106              	 .loc 1 181 0
 107 003a 0420     	 movs r0,#4
 108              	.LBE18:
 109              	.LBE26:
 110              	 .loc 1 301 0
 111 003c BDE81040 	 pop {r4,lr}
 112              	.LCFI3:
 113              	 .cfi_remember_state
 114              	 .cfi_restore 14
 115              	 .cfi_restore 4
 116              	 .cfi_def_cfa_offset 0
 117              	.LVL8:
 118              	.LBB27:
 119              	.LBB19:
 181:../Libraries/XMCLib/src/xmc_ccu4.c ****   }
 120              	 .loc 1 181 0
 121 0040 FFF7FEBF 	 b XMC_SCU_RESET_DeassertPeripheralReset
 122              	.LVL9:
 123              	.L9:
 124              	.LCFI4:
 125              	 .cfi_restore_state
 126              	.LBE19:
 127              	.LBE27:
 128              	.LBB28:
 129              	.LBB13:
 249:../Libraries/XMCLib/src/xmc_ccu4.c ****   }
 130              	 .loc 1 249 0
 131 0044 0820     	 movs r0,#8
 132 0046 FFF7FEFF 	 bl XMC_SCU_CLOCK_UngatePeripheralClock
 133              	.LVL10:
 134              	.LBE13:
 135              	.LBE28:
 136              	.LBB29:
 137              	.LBB20:
 186:../Libraries/XMCLib/src/xmc_ccu4.c ****   }
 138              	 .loc 1 186 0
 139 004a 0820     	 movs r0,#8
 140              	.LBE20:
 141              	.LBE29:
 142              	 .loc 1 301 0
 143 004c BDE81040 	 pop {r4,lr}
 144              	.LCFI5:
 145              	 .cfi_remember_state
 146              	 .cfi_restore 14
 147              	 .cfi_restore 4
 148              	 .cfi_def_cfa_offset 0
 149              	.LVL11:
 150              	.LBB30:
 151              	.LBB21:
 186:../Libraries/XMCLib/src/xmc_ccu4.c ****   }
 152              	 .loc 1 186 0
 153 0050 FFF7FEBF 	 b XMC_SCU_RESET_DeassertPeripheralReset
 154              	.LVL12:
 155              	.L10:
 156              	.LCFI6:
 157              	 .cfi_restore_state
 158              	.LBE21:
 159              	.LBE30:
 160              	.LBB31:
 161              	.LBB14:
 255:../Libraries/XMCLib/src/xmc_ccu4.c ****   }
 162              	 .loc 1 255 0
 163 0054 1020     	 movs r0,#16
 164 0056 FFF7FEFF 	 bl XMC_SCU_CLOCK_UngatePeripheralClock
 165              	.LVL13:
 166              	.LBE14:
 167              	.LBE31:
 168              	.LBB32:
 169              	.LBB22:
 192:../Libraries/XMCLib/src/xmc_ccu4.c ****   }
 170              	 .loc 1 192 0
 171 005a 1020     	 movs r0,#16
 172              	.LBE22:
 173              	.LBE32:
 174              	 .loc 1 301 0
 175 005c BDE81040 	 pop {r4,lr}
 176              	.LCFI7:
 177              	 .cfi_restore 14
 178              	 .cfi_restore 4
 179              	 .cfi_def_cfa_offset 0
 180              	.LVL14:
 181              	.LBB33:
 182              	.LBB23:
 192:../Libraries/XMCLib/src/xmc_ccu4.c ****   }
 183              	 .loc 1 192 0
 184 0060 FFF7FEBF 	 b XMC_SCU_RESET_DeassertPeripheralReset
 185              	.LVL15:
 186              	.L13:
 187              	 .align 2
 188              	.L12:
 189 0064 00C00040 	 .word 1073790976
 190 0068 00000140 	 .word 1073807360
 191 006c 00400140 	 .word 1073823744
 192 0070 00400048 	 .word 1207975936
 193 0074 01000010 	 .word 268435457
 194              	.LBE23:
 195              	.LBE33:
 196              	 .cfi_endproc
 197              	.LFE207:
 199              	 .section .text.XMC_CCU4_DisableModule,"ax",%progbits
 200              	 .align 2
 201              	 .global XMC_CCU4_DisableModule
 202              	 .thumb
 203              	 .thumb_func
 205              	XMC_CCU4_DisableModule:
 206              	.LFB208:
 302:../Libraries/XMCLib/src/xmc_ccu4.c **** 
 303:../Libraries/XMCLib/src/xmc_ccu4.c **** void XMC_CCU4_DisableModule(XMC_CCU4_MODULE_t *const module)
 304:../Libraries/XMCLib/src/xmc_ccu4.c **** {
 207              	 .loc 1 304 0
 208              	 .cfi_startproc
 209              	 
 210              	 
 211              	.LVL16:
 212 0000 08B5     	 push {r3,lr}
 213              	.LCFI8:
 214              	 .cfi_def_cfa_offset 8
 215              	 .cfi_offset 3,-8
 216              	 .cfi_offset 14,-4
 217              	.LBB38:
 218              	.LBB39:
 149:../Libraries/XMCLib/src/xmc_ccu4.c ****   {
 219              	 .loc 1 149 0
 220 0002 164B     	 ldr r3,.L24
 221              	.LVL17:
 222 0004 9842     	 cmp r0,r3
 223 0006 11D0     	 beq .L20
 154:../Libraries/XMCLib/src/xmc_ccu4.c ****   {
 224              	 .loc 1 154 0
 225 0008 154B     	 ldr r3,.L24+4
 226 000a 9842     	 cmp r0,r3
 227 000c 16D0     	 beq .L21
 160:../Libraries/XMCLib/src/xmc_ccu4.c ****   {
 228              	 .loc 1 160 0
 229 000e 154B     	 ldr r3,.L24+8
 230 0010 9842     	 cmp r0,r3
 231 0012 1BD0     	 beq .L22
 166:../Libraries/XMCLib/src/xmc_ccu4.c ****   {
 232              	 .loc 1 166 0
 233 0014 144B     	 ldr r3,.L24+12
 234 0016 9842     	 cmp r0,r3
 235 0018 00D0     	 beq .L23
 236 001a 08BD     	 pop {r3,pc}
 237              	.L23:
 168:../Libraries/XMCLib/src/xmc_ccu4.c ****   }
 238              	 .loc 1 168 0
 239 001c 1348     	 ldr r0,.L24+16
 240              	.LVL18:
 241 001e FFF7FEFF 	 bl XMC_SCU_RESET_AssertPeripheralReset
 242              	.LVL19:
 243              	.LBE39:
 244              	.LBE38:
 245              	.LBB43:
 246              	.LBB44:
 231:../Libraries/XMCLib/src/xmc_ccu4.c ****   }
 247              	 .loc 1 231 0
 248 0022 1248     	 ldr r0,.L24+16
 249              	.LBE44:
 250              	.LBE43:
 305:../Libraries/XMCLib/src/xmc_ccu4.c ****   XMC_ASSERT("XMC_CCU4_DisableModule:Invalid Module Pointer", XMC_CCU4_IsValidModule(module));
 306:../Libraries/XMCLib/src/xmc_ccu4.c **** 
 307:../Libraries/XMCLib/src/xmc_ccu4.c **** #if defined(PERIPHERAL_RESET_SUPPORTED)
 308:../Libraries/XMCLib/src/xmc_ccu4.c ****   XMC_CCU4_lAssertReset(module);
 309:../Libraries/XMCLib/src/xmc_ccu4.c **** #endif
 310:../Libraries/XMCLib/src/xmc_ccu4.c ****   
 311:../Libraries/XMCLib/src/xmc_ccu4.c **** #if defined(CLOCK_GATING_SUPPORTED)
 312:../Libraries/XMCLib/src/xmc_ccu4.c ****   XMC_CCU4_lGateClock(module);
 313:../Libraries/XMCLib/src/xmc_ccu4.c **** #endif
 314:../Libraries/XMCLib/src/xmc_ccu4.c **** }
 251              	 .loc 1 314 0
 252 0024 BDE80840 	 pop {r3,lr}
 253              	.LCFI9:
 254              	 .cfi_remember_state
 255              	 .cfi_restore 14
 256              	 .cfi_restore 3
 257              	 .cfi_def_cfa_offset 0
 258              	.LBB52:
 259              	.LBB45:
 231:../Libraries/XMCLib/src/xmc_ccu4.c ****   }
 260              	 .loc 1 231 0
 261 0028 FFF7FEBF 	 b XMC_SCU_CLOCK_GatePeripheralClock
 262              	.LVL20:
 263              	.L20:
 264              	.LCFI10:
 265              	 .cfi_restore_state
 266              	.LBE45:
 267              	.LBE52:
 268              	.LBB53:
 269              	.LBB40:
 151:../Libraries/XMCLib/src/xmc_ccu4.c ****   }
 270              	 .loc 1 151 0
 271 002c 0420     	 movs r0,#4
 272              	.LVL21:
 273 002e FFF7FEFF 	 bl XMC_SCU_RESET_AssertPeripheralReset
 274              	.LVL22:
 275              	.LBE40:
 276              	.LBE53:
 277              	.LBB54:
 278              	.LBB46:
 214:../Libraries/XMCLib/src/xmc_ccu4.c ****   }
 279              	 .loc 1 214 0
 280 0032 0420     	 movs r0,#4
 281              	.LBE46:
 282              	.LBE54:
 283              	 .loc 1 314 0
 284 0034 BDE80840 	 pop {r3,lr}
 285              	.LCFI11:
 286              	 .cfi_remember_state
 287              	 .cfi_restore 14
 288              	 .cfi_restore 3
 289              	 .cfi_def_cfa_offset 0
 290              	.LBB55:
 291              	.LBB47:
 214:../Libraries/XMCLib/src/xmc_ccu4.c ****   }
 292              	 .loc 1 214 0
 293 0038 FFF7FEBF 	 b XMC_SCU_CLOCK_GatePeripheralClock
 294              	.LVL23:
 295              	.L21:
 296              	.LCFI12:
 297              	 .cfi_restore_state
 298              	.LBE47:
 299              	.LBE55:
 300              	.LBB56:
 301              	.LBB41:
 156:../Libraries/XMCLib/src/xmc_ccu4.c ****   }
 302              	 .loc 1 156 0
 303 003c 0820     	 movs r0,#8
 304              	.LVL24:
 305 003e FFF7FEFF 	 bl XMC_SCU_RESET_AssertPeripheralReset
 306              	.LVL25:
 307              	.LBE41:
 308              	.LBE56:
 309              	.LBB57:
 310              	.LBB48:
 219:../Libraries/XMCLib/src/xmc_ccu4.c ****   }
 311              	 .loc 1 219 0
 312 0042 0820     	 movs r0,#8
 313              	.LBE48:
 314              	.LBE57:
 315              	 .loc 1 314 0
 316 0044 BDE80840 	 pop {r3,lr}
 317              	.LCFI13:
 318              	 .cfi_remember_state
 319              	 .cfi_restore 14
 320              	 .cfi_restore 3
 321              	 .cfi_def_cfa_offset 0
 322              	.LBB58:
 323              	.LBB49:
 219:../Libraries/XMCLib/src/xmc_ccu4.c ****   }
 324              	 .loc 1 219 0
 325 0048 FFF7FEBF 	 b XMC_SCU_CLOCK_GatePeripheralClock
 326              	.LVL26:
 327              	.L22:
 328              	.LCFI14:
 329              	 .cfi_restore_state
 330              	.LBE49:
 331              	.LBE58:
 332              	.LBB59:
 333              	.LBB42:
 162:../Libraries/XMCLib/src/xmc_ccu4.c ****   }
 334              	 .loc 1 162 0
 335 004c 1020     	 movs r0,#16
 336              	.LVL27:
 337 004e FFF7FEFF 	 bl XMC_SCU_RESET_AssertPeripheralReset
 338              	.LVL28:
 339              	.LBE42:
 340              	.LBE59:
 341              	.LBB60:
 342              	.LBB50:
 225:../Libraries/XMCLib/src/xmc_ccu4.c ****   }
 343              	 .loc 1 225 0
 344 0052 1020     	 movs r0,#16
 345              	.LBE50:
 346              	.LBE60:
 347              	 .loc 1 314 0
 348 0054 BDE80840 	 pop {r3,lr}
 349              	.LCFI15:
 350              	 .cfi_restore 14
 351              	 .cfi_restore 3
 352              	 .cfi_def_cfa_offset 0
 353              	.LBB61:
 354              	.LBB51:
 225:../Libraries/XMCLib/src/xmc_ccu4.c ****   }
 355              	 .loc 1 225 0
 356 0058 FFF7FEBF 	 b XMC_SCU_CLOCK_GatePeripheralClock
 357              	.LVL29:
 358              	.L25:
 359              	 .align 2
 360              	.L24:
 361 005c 00C00040 	 .word 1073790976
 362 0060 00000140 	 .word 1073807360
 363 0064 00400140 	 .word 1073823744
 364 0068 00400048 	 .word 1207975936
 365 006c 01000010 	 .word 268435457
 366              	.LBE51:
 367              	.LBE61:
 368              	 .cfi_endproc
 369              	.LFE208:
 371              	 .section .text.XMC_CCU4_Init,"ax",%progbits
 372              	 .align 2
 373              	 .global XMC_CCU4_Init
 374              	 .thumb
 375              	 .thumb_func
 377              	XMC_CCU4_Init:
 378              	.LFB209:
 315:../Libraries/XMCLib/src/xmc_ccu4.c **** 
 316:../Libraries/XMCLib/src/xmc_ccu4.c **** /* API to initialize CCU4 global resources  */
 317:../Libraries/XMCLib/src/xmc_ccu4.c **** void XMC_CCU4_Init(XMC_CCU4_MODULE_t *const module, const XMC_CCU4_SLICE_MCMS_ACTION_t mcs_action)
 318:../Libraries/XMCLib/src/xmc_ccu4.c **** {
 379              	 .loc 1 318 0
 380              	 .cfi_startproc
 381              	 
 382              	 
 383              	.LVL30:
 384 0000 38B5     	 push {r3,r4,r5,lr}
 385              	.LCFI16:
 386              	 .cfi_def_cfa_offset 16
 387              	 .cfi_offset 3,-16
 388              	 .cfi_offset 4,-12
 389              	 .cfi_offset 5,-8
 390              	 .cfi_offset 14,-4
 391              	 .loc 1 318 0
 392 0002 0446     	 mov r4,r0
 393              	.LVL31:
 394              	.LBB70:
 395              	.LBB71:
 291:../Libraries/XMCLib/src/xmc_ccu4.c **** #endif
 396              	 .loc 1 291 0
 397 0004 1020     	 movs r0,#16
 398              	.LVL32:
 399              	.LBE71:
 400              	.LBE70:
 401              	 .loc 1 318 0
 402 0006 0D46     	 mov r5,r1
 403              	.LBB92:
 404              	.LBB90:
 291:../Libraries/XMCLib/src/xmc_ccu4.c **** #endif
 405              	 .loc 1 291 0
 406 0008 FFF7FEFF 	 bl XMC_SCU_CLOCK_EnableClock
 407              	.LVL33:
 408              	.LBB72:
 409              	.LBB73:
 242:../Libraries/XMCLib/src/xmc_ccu4.c ****   {
 410              	 .loc 1 242 0
 411 000c 194B     	 ldr r3,.L36
 412 000e 9C42     	 cmp r4,r3
 413 0010 1AD0     	 beq .L32
 247:../Libraries/XMCLib/src/xmc_ccu4.c ****   {
 414              	 .loc 1 247 0
 415 0012 194B     	 ldr r3,.L36+4
 416 0014 9C42     	 cmp r4,r3
 417 0016 1ED0     	 beq .L33
 253:../Libraries/XMCLib/src/xmc_ccu4.c ****   {
 418              	 .loc 1 253 0
 419 0018 184B     	 ldr r3,.L36+8
 420 001a 9C42     	 cmp r4,r3
 421 001c 22D0     	 beq .L34
 259:../Libraries/XMCLib/src/xmc_ccu4.c ****   {
 422              	 .loc 1 259 0
 423 001e 184B     	 ldr r3,.L36+12
 424 0020 9C42     	 cmp r4,r3
 425 0022 0AD0     	 beq .L35
 426              	.L28:
 427              	.LVL34:
 428              	.LBE73:
 429              	.LBE72:
 430              	.LBE90:
 431              	.LBE92:
 432              	.LBB93:
 433              	.LBB94:
 434              	 .file 2 "C:/Users/Utente/Desktop/Tesi/Firmware_Software/DAVE project/S2GLP_Pulsed_Doppler/Libraries/XMCLib/inc/xmc_ccu4.h"
   1:C:/Users/Utente/Desktop/Tesi/Firmware_Software/DAVE project/S2GLP_Pulsed_Doppler/Libraries/XMCLib/inc\xmc_ccu4.h **** /**
   2:C:/Users/Utente/Desktop/Tesi/Firmware_Software/DAVE project/S2GLP_Pulsed_Doppler/Libraries/XMCLib/inc\xmc_ccu4.h ****  * @file xmc_ccu4.h
   3:C:/Users/Utente/Desktop/Tesi/Firmware_Software/DAVE project/S2GLP_Pulsed_Doppler/Libraries/XMCLib/inc\xmc_ccu4.h ****  * @date 2017-04-27
   4:C:/Users/Utente/Desktop/Tesi/Firmware_Software/DAVE project/S2GLP_Pulsed_Doppler/Libraries/XMCLib/inc\xmc_ccu4.h ****  *
   5:C:/Users/Utente/Desktop/Tesi/Firmware_Software/DAVE project/S2GLP_Pulsed_Doppler/Libraries/XMCLib/inc\xmc_ccu4.h ****  * @cond
   6:C:/Users/Utente/Desktop/Tesi/Firmware_Software/DAVE project/S2GLP_Pulsed_Doppler/Libraries/XMCLib/inc\xmc_ccu4.h ****  **************************************************************************************************
   7:C:/Users/Utente/Desktop/Tesi/Firmware_Software/DAVE project/S2GLP_Pulsed_Doppler/Libraries/XMCLib/inc\xmc_ccu4.h ****  * XMClib v2.1.16 - XMC Peripheral Driver Library 
   8:C:/Users/Utente/Desktop/Tesi/Firmware_Software/DAVE project/S2GLP_Pulsed_Doppler/Libraries/XMCLib/inc\xmc_ccu4.h ****  *
   9:C:/Users/Utente/Desktop/Tesi/Firmware_Software/DAVE project/S2GLP_Pulsed_Doppler/Libraries/XMCLib/inc\xmc_ccu4.h ****  * Copyright (c) 2015-2017, Infineon Technologies AG
  10:C:/Users/Utente/Desktop/Tesi/Firmware_Software/DAVE project/S2GLP_Pulsed_Doppler/Libraries/XMCLib/inc\xmc_ccu4.h ****  * All rights reserved.                        
  11:C:/Users/Utente/Desktop/Tesi/Firmware_Software/DAVE project/S2GLP_Pulsed_Doppler/Libraries/XMCLib/inc\xmc_ccu4.h ****  *                                             
  12:C:/Users/Utente/Desktop/Tesi/Firmware_Software/DAVE project/S2GLP_Pulsed_Doppler/Libraries/XMCLib/inc\xmc_ccu4.h ****  * Redistribution and use in source and binary forms, with or without modification,are permitted pr
  13:C:/Users/Utente/Desktop/Tesi/Firmware_Software/DAVE project/S2GLP_Pulsed_Doppler/Libraries/XMCLib/inc\xmc_ccu4.h ****  * following conditions are met:   
  14:C:/Users/Utente/Desktop/Tesi/Firmware_Software/DAVE project/S2GLP_Pulsed_Doppler/Libraries/XMCLib/inc\xmc_ccu4.h ****  *                                                                              
  15:C:/Users/Utente/Desktop/Tesi/Firmware_Software/DAVE project/S2GLP_Pulsed_Doppler/Libraries/XMCLib/inc\xmc_ccu4.h ****  * Redistributions of source code must retain the above copyright notice, this list of conditions a
  16:C:/Users/Utente/Desktop/Tesi/Firmware_Software/DAVE project/S2GLP_Pulsed_Doppler/Libraries/XMCLib/inc\xmc_ccu4.h ****  * disclaimer.                        
  17:C:/Users/Utente/Desktop/Tesi/Firmware_Software/DAVE project/S2GLP_Pulsed_Doppler/Libraries/XMCLib/inc\xmc_ccu4.h ****  * 
  18:C:/Users/Utente/Desktop/Tesi/Firmware_Software/DAVE project/S2GLP_Pulsed_Doppler/Libraries/XMCLib/inc\xmc_ccu4.h ****  * Redistributions in binary form must reproduce the above copyright notice, this list of condition
  19:C:/Users/Utente/Desktop/Tesi/Firmware_Software/DAVE project/S2GLP_Pulsed_Doppler/Libraries/XMCLib/inc\xmc_ccu4.h ****  * disclaimer in the documentation and/or other materials provided with the distribution.          
  20:C:/Users/Utente/Desktop/Tesi/Firmware_Software/DAVE project/S2GLP_Pulsed_Doppler/Libraries/XMCLib/inc\xmc_ccu4.h ****  * 
  21:C:/Users/Utente/Desktop/Tesi/Firmware_Software/DAVE project/S2GLP_Pulsed_Doppler/Libraries/XMCLib/inc\xmc_ccu4.h ****  * Neither the name of the copyright holders nor the names of its contributors may be used to endor
  22:C:/Users/Utente/Desktop/Tesi/Firmware_Software/DAVE project/S2GLP_Pulsed_Doppler/Libraries/XMCLib/inc\xmc_ccu4.h ****  * products derived from this software without specific prior written permission.                  
  23:C:/Users/Utente/Desktop/Tesi/Firmware_Software/DAVE project/S2GLP_Pulsed_Doppler/Libraries/XMCLib/inc\xmc_ccu4.h ****  *                                                                              
  24:C:/Users/Utente/Desktop/Tesi/Firmware_Software/DAVE project/S2GLP_Pulsed_Doppler/Libraries/XMCLib/inc\xmc_ccu4.h ****  * THIS SOFTWARE IS PROVIDED BY THE COPYRIGHT HOLDERS AND CONTRIBUTORS "AS IS" AND ANY EXPRESS OR I
  25:C:/Users/Utente/Desktop/Tesi/Firmware_Software/DAVE project/S2GLP_Pulsed_Doppler/Libraries/XMCLib/inc\xmc_ccu4.h ****  * INCLUDING, BUT NOT LIMITED TO, THE IMPLIED WARRANTIES OF MERCHANTABILITY AND FITNESS FOR A PARTI
  26:C:/Users/Utente/Desktop/Tesi/Firmware_Software/DAVE project/S2GLP_Pulsed_Doppler/Libraries/XMCLib/inc\xmc_ccu4.h ****  * DISCLAIMED. IN NO EVENT SHALL THE COPYRIGHT HOLDER OR CONTRIBUTORS BE LIABLE  FOR ANY DIRECT, IN
  27:C:/Users/Utente/Desktop/Tesi/Firmware_Software/DAVE project/S2GLP_Pulsed_Doppler/Libraries/XMCLib/inc\xmc_ccu4.h ****  * SPECIAL, EXEMPLARY, OR CONSEQUENTIAL DAMAGES (INCLUDING, BUT NOT LIMITED TO, PROCUREMENT OF SUBS
  28:C:/Users/Utente/Desktop/Tesi/Firmware_Software/DAVE project/S2GLP_Pulsed_Doppler/Libraries/XMCLib/inc\xmc_ccu4.h ****  * SERVICES; LOSS OF USE, DATA, OR PROFITS; OR BUSINESS INTERRUPTION) HOWEVER CAUSED AND ON ANY THE
  29:C:/Users/Utente/Desktop/Tesi/Firmware_Software/DAVE project/S2GLP_Pulsed_Doppler/Libraries/XMCLib/inc\xmc_ccu4.h ****  * WHETHER IN CONTRACT, STRICT LIABILITY,OR TORT (INCLUDING NEGLIGENCE OR OTHERWISE) ARISING IN ANY
  30:C:/Users/Utente/Desktop/Tesi/Firmware_Software/DAVE project/S2GLP_Pulsed_Doppler/Libraries/XMCLib/inc\xmc_ccu4.h ****  * OF THIS SOFTWARE, EVEN IF ADVISED OF THE POSSIBILITY OF SUCH DAMAGE.                            
  31:C:/Users/Utente/Desktop/Tesi/Firmware_Software/DAVE project/S2GLP_Pulsed_Doppler/Libraries/XMCLib/inc\xmc_ccu4.h ****  *                                                                              
  32:C:/Users/Utente/Desktop/Tesi/Firmware_Software/DAVE project/S2GLP_Pulsed_Doppler/Libraries/XMCLib/inc\xmc_ccu4.h ****  * To improve the quality of the software, users are encouraged to share modifications, enhancement
  33:C:/Users/Utente/Desktop/Tesi/Firmware_Software/DAVE project/S2GLP_Pulsed_Doppler/Libraries/XMCLib/inc\xmc_ccu4.h ****  * Infineon Technologies AG dave@infineon.com).                                                    
  34:C:/Users/Utente/Desktop/Tesi/Firmware_Software/DAVE project/S2GLP_Pulsed_Doppler/Libraries/XMCLib/inc\xmc_ccu4.h ****  **************************************************************************************************
  35:C:/Users/Utente/Desktop/Tesi/Firmware_Software/DAVE project/S2GLP_Pulsed_Doppler/Libraries/XMCLib/inc\xmc_ccu4.h ****  *
  36:C:/Users/Utente/Desktop/Tesi/Firmware_Software/DAVE project/S2GLP_Pulsed_Doppler/Libraries/XMCLib/inc\xmc_ccu4.h ****  * Change History
  37:C:/Users/Utente/Desktop/Tesi/Firmware_Software/DAVE project/S2GLP_Pulsed_Doppler/Libraries/XMCLib/inc\xmc_ccu4.h ****  * --------------
  38:C:/Users/Utente/Desktop/Tesi/Firmware_Software/DAVE project/S2GLP_Pulsed_Doppler/Libraries/XMCLib/inc\xmc_ccu4.h ****  *
  39:C:/Users/Utente/Desktop/Tesi/Firmware_Software/DAVE project/S2GLP_Pulsed_Doppler/Libraries/XMCLib/inc\xmc_ccu4.h ****  * 2015-02-20:
  40:C:/Users/Utente/Desktop/Tesi/Firmware_Software/DAVE project/S2GLP_Pulsed_Doppler/Libraries/XMCLib/inc\xmc_ccu4.h ****  *     - Initial <br>
  41:C:/Users/Utente/Desktop/Tesi/Firmware_Software/DAVE project/S2GLP_Pulsed_Doppler/Libraries/XMCLib/inc\xmc_ccu4.h ****  *     - Documentation updates <br>
  42:C:/Users/Utente/Desktop/Tesi/Firmware_Software/DAVE project/S2GLP_Pulsed_Doppler/Libraries/XMCLib/inc\xmc_ccu4.h ****  *
  43:C:/Users/Utente/Desktop/Tesi/Firmware_Software/DAVE project/S2GLP_Pulsed_Doppler/Libraries/XMCLib/inc\xmc_ccu4.h ****  * 2015-06-20:
  44:C:/Users/Utente/Desktop/Tesi/Firmware_Software/DAVE project/S2GLP_Pulsed_Doppler/Libraries/XMCLib/inc\xmc_ccu4.h ****  *     - Removed version macros and declaration of GetDriverVersion API <br>
  45:C:/Users/Utente/Desktop/Tesi/Firmware_Software/DAVE project/S2GLP_Pulsed_Doppler/Libraries/XMCLib/inc\xmc_ccu4.h ****  *
  46:C:/Users/Utente/Desktop/Tesi/Firmware_Software/DAVE project/S2GLP_Pulsed_Doppler/Libraries/XMCLib/inc\xmc_ccu4.h ****  * 2015-07-22:
  47:C:/Users/Utente/Desktop/Tesi/Firmware_Software/DAVE project/S2GLP_Pulsed_Doppler/Libraries/XMCLib/inc\xmc_ccu4.h ****  *     - XMC_CCU4_SLICE_ConfigureStatusBitOverrideEvent() is updated to support XMC14 device. <br>
  48:C:/Users/Utente/Desktop/Tesi/Firmware_Software/DAVE project/S2GLP_Pulsed_Doppler/Libraries/XMCLib/inc\xmc_ccu4.h ****  *
  49:C:/Users/Utente/Desktop/Tesi/Firmware_Software/DAVE project/S2GLP_Pulsed_Doppler/Libraries/XMCLib/inc\xmc_ccu4.h ****  * 2015-08-17:
  50:C:/Users/Utente/Desktop/Tesi/Firmware_Software/DAVE project/S2GLP_Pulsed_Doppler/Libraries/XMCLib/inc\xmc_ccu4.h ****  *     - XMC_CCU4_SLICE_PRESCALER_t enum is added to set the prescaler divider. <br>
  51:C:/Users/Utente/Desktop/Tesi/Firmware_Software/DAVE project/S2GLP_Pulsed_Doppler/Libraries/XMCLib/inc\xmc_ccu4.h ****  *     - XMC_CCU4_SLICE_SHADOW_TRANSFER_MODE_t enum item names are updated according to the guideli
  52:C:/Users/Utente/Desktop/Tesi/Firmware_Software/DAVE project/S2GLP_Pulsed_Doppler/Libraries/XMCLib/inc\xmc_ccu4.h ****  *     - XMC_CCU4_EnableShadowTransfer() API is made as inline, to improve the speed. <br>
  53:C:/Users/Utente/Desktop/Tesi/Firmware_Software/DAVE project/S2GLP_Pulsed_Doppler/Libraries/XMCLib/inc\xmc_ccu4.h ****  *
  54:C:/Users/Utente/Desktop/Tesi/Firmware_Software/DAVE project/S2GLP_Pulsed_Doppler/Libraries/XMCLib/inc\xmc_ccu4.h ****  * 2015-09-29:
  55:C:/Users/Utente/Desktop/Tesi/Firmware_Software/DAVE project/S2GLP_Pulsed_Doppler/Libraries/XMCLib/inc\xmc_ccu4.h ****  *     - In XMC_CCU4_SLICE_EVENT_LEVEL_SENSITIVITY_t, two more enum items are added to support exte
  56:C:/Users/Utente/Desktop/Tesi/Firmware_Software/DAVE project/S2GLP_Pulsed_Doppler/Libraries/XMCLib/inc\xmc_ccu4.h ****  *       settings.
  57:C:/Users/Utente/Desktop/Tesi/Firmware_Software/DAVE project/S2GLP_Pulsed_Doppler/Libraries/XMCLib/inc\xmc_ccu4.h ****  *
  58:C:/Users/Utente/Desktop/Tesi/Firmware_Software/DAVE project/S2GLP_Pulsed_Doppler/Libraries/XMCLib/inc\xmc_ccu4.h ****  * 2015-10-07:
  59:C:/Users/Utente/Desktop/Tesi/Firmware_Software/DAVE project/S2GLP_Pulsed_Doppler/Libraries/XMCLib/inc\xmc_ccu4.h ****  *     - XMC_CCU4_SLICE_GetEvent() is made as inline.
  60:C:/Users/Utente/Desktop/Tesi/Firmware_Software/DAVE project/S2GLP_Pulsed_Doppler/Libraries/XMCLib/inc\xmc_ccu4.h ****  *     - XMC_CCU4_SLICE_MULTI_IRQ_ID_t is added to support the XMC_CCU4_SLICE_EnableMultipleEvents(
  61:C:/Users/Utente/Desktop/Tesi/Firmware_Software/DAVE project/S2GLP_Pulsed_Doppler/Libraries/XMCLib/inc\xmc_ccu4.h ****  *       XMC_CCU4_SLICE_DisableMultipleEvents() APIs.
  62:C:/Users/Utente/Desktop/Tesi/Firmware_Software/DAVE project/S2GLP_Pulsed_Doppler/Libraries/XMCLib/inc\xmc_ccu4.h ****  *     - DOC updates for the newly added APIs.
  63:C:/Users/Utente/Desktop/Tesi/Firmware_Software/DAVE project/S2GLP_Pulsed_Doppler/Libraries/XMCLib/inc\xmc_ccu4.h ****  *
  64:C:/Users/Utente/Desktop/Tesi/Firmware_Software/DAVE project/S2GLP_Pulsed_Doppler/Libraries/XMCLib/inc\xmc_ccu4.h ****  * 2016-03-09:
  65:C:/Users/Utente/Desktop/Tesi/Firmware_Software/DAVE project/S2GLP_Pulsed_Doppler/Libraries/XMCLib/inc\xmc_ccu4.h ****  *     - Optimization of write only registers 
  66:C:/Users/Utente/Desktop/Tesi/Firmware_Software/DAVE project/S2GLP_Pulsed_Doppler/Libraries/XMCLib/inc\xmc_ccu4.h ****  *
  67:C:/Users/Utente/Desktop/Tesi/Firmware_Software/DAVE project/S2GLP_Pulsed_Doppler/Libraries/XMCLib/inc\xmc_ccu4.h ****  * 2016-05-20:
  68:C:/Users/Utente/Desktop/Tesi/Firmware_Software/DAVE project/S2GLP_Pulsed_Doppler/Libraries/XMCLib/inc\xmc_ccu4.h ****  *     - Added XMC_CCU4_SLICE_StopClearTimer()
  69:C:/Users/Utente/Desktop/Tesi/Firmware_Software/DAVE project/S2GLP_Pulsed_Doppler/Libraries/XMCLib/inc\xmc_ccu4.h ****  *     - Changed implementation of XMC_CCU4_SLICE_StopTimer() and XMC_CCU4_SLICE_ClearTimer() to av
  70:C:/Users/Utente/Desktop/Tesi/Firmware_Software/DAVE project/S2GLP_Pulsed_Doppler/Libraries/XMCLib/inc\xmc_ccu4.h ****  *
  71:C:/Users/Utente/Desktop/Tesi/Firmware_Software/DAVE project/S2GLP_Pulsed_Doppler/Libraries/XMCLib/inc\xmc_ccu4.h ****  * 2017-04-27:
  72:C:/Users/Utente/Desktop/Tesi/Firmware_Software/DAVE project/S2GLP_Pulsed_Doppler/Libraries/XMCLib/inc\xmc_ccu4.h ****  *     - XMC_CCU4_SLICE_SetPrescaler() changed div_val parameter to type XMC_CCU4_SLICE_PRESCALER_t
  73:C:/Users/Utente/Desktop/Tesi/Firmware_Software/DAVE project/S2GLP_Pulsed_Doppler/Libraries/XMCLib/inc\xmc_ccu4.h ****  * 
  74:C:/Users/Utente/Desktop/Tesi/Firmware_Software/DAVE project/S2GLP_Pulsed_Doppler/Libraries/XMCLib/inc\xmc_ccu4.h ****  * @endcond
  75:C:/Users/Utente/Desktop/Tesi/Firmware_Software/DAVE project/S2GLP_Pulsed_Doppler/Libraries/XMCLib/inc\xmc_ccu4.h ****  */
  76:C:/Users/Utente/Desktop/Tesi/Firmware_Software/DAVE project/S2GLP_Pulsed_Doppler/Libraries/XMCLib/inc\xmc_ccu4.h **** 
  77:C:/Users/Utente/Desktop/Tesi/Firmware_Software/DAVE project/S2GLP_Pulsed_Doppler/Libraries/XMCLib/inc\xmc_ccu4.h **** #ifndef XMC_CCU4_H
  78:C:/Users/Utente/Desktop/Tesi/Firmware_Software/DAVE project/S2GLP_Pulsed_Doppler/Libraries/XMCLib/inc\xmc_ccu4.h **** #define XMC_CCU4_H
  79:C:/Users/Utente/Desktop/Tesi/Firmware_Software/DAVE project/S2GLP_Pulsed_Doppler/Libraries/XMCLib/inc\xmc_ccu4.h ****  
  80:C:/Users/Utente/Desktop/Tesi/Firmware_Software/DAVE project/S2GLP_Pulsed_Doppler/Libraries/XMCLib/inc\xmc_ccu4.h **** /**************************************************************************************************
  81:C:/Users/Utente/Desktop/Tesi/Firmware_Software/DAVE project/S2GLP_Pulsed_Doppler/Libraries/XMCLib/inc\xmc_ccu4.h ****  * HEADER FILES
  82:C:/Users/Utente/Desktop/Tesi/Firmware_Software/DAVE project/S2GLP_Pulsed_Doppler/Libraries/XMCLib/inc\xmc_ccu4.h ****  **************************************************************************************************
  83:C:/Users/Utente/Desktop/Tesi/Firmware_Software/DAVE project/S2GLP_Pulsed_Doppler/Libraries/XMCLib/inc\xmc_ccu4.h **** #include "xmc_common.h"
  84:C:/Users/Utente/Desktop/Tesi/Firmware_Software/DAVE project/S2GLP_Pulsed_Doppler/Libraries/XMCLib/inc\xmc_ccu4.h **** #if defined(CCU40)
  85:C:/Users/Utente/Desktop/Tesi/Firmware_Software/DAVE project/S2GLP_Pulsed_Doppler/Libraries/XMCLib/inc\xmc_ccu4.h **** 
  86:C:/Users/Utente/Desktop/Tesi/Firmware_Software/DAVE project/S2GLP_Pulsed_Doppler/Libraries/XMCLib/inc\xmc_ccu4.h **** #if UC_FAMILY == XMC1
  87:C:/Users/Utente/Desktop/Tesi/Firmware_Software/DAVE project/S2GLP_Pulsed_Doppler/Libraries/XMCLib/inc\xmc_ccu4.h ****  #include "xmc1_ccu4_map.h"
  88:C:/Users/Utente/Desktop/Tesi/Firmware_Software/DAVE project/S2GLP_Pulsed_Doppler/Libraries/XMCLib/inc\xmc_ccu4.h **** #endif
  89:C:/Users/Utente/Desktop/Tesi/Firmware_Software/DAVE project/S2GLP_Pulsed_Doppler/Libraries/XMCLib/inc\xmc_ccu4.h **** 
  90:C:/Users/Utente/Desktop/Tesi/Firmware_Software/DAVE project/S2GLP_Pulsed_Doppler/Libraries/XMCLib/inc\xmc_ccu4.h **** #if UC_FAMILY == XMC4
  91:C:/Users/Utente/Desktop/Tesi/Firmware_Software/DAVE project/S2GLP_Pulsed_Doppler/Libraries/XMCLib/inc\xmc_ccu4.h ****  #include "xmc4_ccu4_map.h"
  92:C:/Users/Utente/Desktop/Tesi/Firmware_Software/DAVE project/S2GLP_Pulsed_Doppler/Libraries/XMCLib/inc\xmc_ccu4.h **** #endif
  93:C:/Users/Utente/Desktop/Tesi/Firmware_Software/DAVE project/S2GLP_Pulsed_Doppler/Libraries/XMCLib/inc\xmc_ccu4.h **** 
  94:C:/Users/Utente/Desktop/Tesi/Firmware_Software/DAVE project/S2GLP_Pulsed_Doppler/Libraries/XMCLib/inc\xmc_ccu4.h **** /**
  95:C:/Users/Utente/Desktop/Tesi/Firmware_Software/DAVE project/S2GLP_Pulsed_Doppler/Libraries/XMCLib/inc\xmc_ccu4.h ****  * @addtogroup XMClib XMC Peripheral Library
  96:C:/Users/Utente/Desktop/Tesi/Firmware_Software/DAVE project/S2GLP_Pulsed_Doppler/Libraries/XMCLib/inc\xmc_ccu4.h ****  * @{
  97:C:/Users/Utente/Desktop/Tesi/Firmware_Software/DAVE project/S2GLP_Pulsed_Doppler/Libraries/XMCLib/inc\xmc_ccu4.h ****  */
  98:C:/Users/Utente/Desktop/Tesi/Firmware_Software/DAVE project/S2GLP_Pulsed_Doppler/Libraries/XMCLib/inc\xmc_ccu4.h ****  
  99:C:/Users/Utente/Desktop/Tesi/Firmware_Software/DAVE project/S2GLP_Pulsed_Doppler/Libraries/XMCLib/inc\xmc_ccu4.h **** /**
 100:C:/Users/Utente/Desktop/Tesi/Firmware_Software/DAVE project/S2GLP_Pulsed_Doppler/Libraries/XMCLib/inc\xmc_ccu4.h ****  * @addtogroup CCU4
 101:C:/Users/Utente/Desktop/Tesi/Firmware_Software/DAVE project/S2GLP_Pulsed_Doppler/Libraries/XMCLib/inc\xmc_ccu4.h ****  * @brief Capture Compare Unit 4 (CCU4) low level driver for XMC family of microcontrollers<br>
 102:C:/Users/Utente/Desktop/Tesi/Firmware_Software/DAVE project/S2GLP_Pulsed_Doppler/Libraries/XMCLib/inc\xmc_ccu4.h ****  *
 103:C:/Users/Utente/Desktop/Tesi/Firmware_Software/DAVE project/S2GLP_Pulsed_Doppler/Libraries/XMCLib/inc\xmc_ccu4.h ****  * The CCU4 peripheral is a major component for systems that need general purpose timers for signal
 104:C:/Users/Utente/Desktop/Tesi/Firmware_Software/DAVE project/S2GLP_Pulsed_Doppler/Libraries/XMCLib/inc\xmc_ccu4.h ****  * monitoring/conditioning and Pulse Width Modulation (PWM) signal generation. Power electronic con
 105:C:/Users/Utente/Desktop/Tesi/Firmware_Software/DAVE project/S2GLP_Pulsed_Doppler/Libraries/XMCLib/inc\xmc_ccu4.h ****  * switched mode power supplies or interruptible power supplies, can easily be implemented with the
 106:C:/Users/Utente/Desktop/Tesi/Firmware_Software/DAVE project/S2GLP_Pulsed_Doppler/Libraries/XMCLib/inc\xmc_ccu4.h ****  * CCU4 peripheral.\n
 107:C:/Users/Utente/Desktop/Tesi/Firmware_Software/DAVE project/S2GLP_Pulsed_Doppler/Libraries/XMCLib/inc\xmc_ccu4.h ****  * Each CCU4 module is comprised of four identical 16 bit Capture/Compare Timer slices, CC4y (where
 108:C:/Users/Utente/Desktop/Tesi/Firmware_Software/DAVE project/S2GLP_Pulsed_Doppler/Libraries/XMCLib/inc\xmc_ccu4.h ****  * timer slice can work in compare mode or in capture mode.
 109:C:/Users/Utente/Desktop/Tesi/Firmware_Software/DAVE project/S2GLP_Pulsed_Doppler/Libraries/XMCLib/inc\xmc_ccu4.h ****  *
 110:C:/Users/Utente/Desktop/Tesi/Firmware_Software/DAVE project/S2GLP_Pulsed_Doppler/Libraries/XMCLib/inc\xmc_ccu4.h ****  * APIs provided in this file cover the following functional blocks of CCU4:\n
 111:C:/Users/Utente/Desktop/Tesi/Firmware_Software/DAVE project/S2GLP_Pulsed_Doppler/Libraries/XMCLib/inc\xmc_ccu4.h ****  * -- Timer configuration, Capture configuration, Function/Event configuration, Interrupt configura
 112:C:/Users/Utente/Desktop/Tesi/Firmware_Software/DAVE project/S2GLP_Pulsed_Doppler/Libraries/XMCLib/inc\xmc_ccu4.h ****  * \par Note:
 113:C:/Users/Utente/Desktop/Tesi/Firmware_Software/DAVE project/S2GLP_Pulsed_Doppler/Libraries/XMCLib/inc\xmc_ccu4.h ****  * 1. SLICE (APIs prefixed with e.g. XMC_CCU4_SLICE_)
 114:C:/Users/Utente/Desktop/Tesi/Firmware_Software/DAVE project/S2GLP_Pulsed_Doppler/Libraries/XMCLib/inc\xmc_ccu4.h ****  * 2. Module (APIs are not having any prefix e.g. XMC_CCU4_)
 115:C:/Users/Utente/Desktop/Tesi/Firmware_Software/DAVE project/S2GLP_Pulsed_Doppler/Libraries/XMCLib/inc\xmc_ccu4.h ****  *
 116:C:/Users/Utente/Desktop/Tesi/Firmware_Software/DAVE project/S2GLP_Pulsed_Doppler/Libraries/XMCLib/inc\xmc_ccu4.h ****  * \par Timer(Compare mode) configuration:
 117:C:/Users/Utente/Desktop/Tesi/Firmware_Software/DAVE project/S2GLP_Pulsed_Doppler/Libraries/XMCLib/inc\xmc_ccu4.h ****  * This section of the LLD provides the configuration structure XMC_CCU4_SLICE_COMPARE_CONFIG_t and
 118:C:/Users/Utente/Desktop/Tesi/Firmware_Software/DAVE project/S2GLP_Pulsed_Doppler/Libraries/XMCLib/inc\xmc_ccu4.h ****  * function XMC_CCU4_SLICE_CompareInit().
 119:C:/Users/Utente/Desktop/Tesi/Firmware_Software/DAVE project/S2GLP_Pulsed_Doppler/Libraries/XMCLib/inc\xmc_ccu4.h ****  *
 120:C:/Users/Utente/Desktop/Tesi/Firmware_Software/DAVE project/S2GLP_Pulsed_Doppler/Libraries/XMCLib/inc\xmc_ccu4.h ****  * It can be used to:
 121:C:/Users/Utente/Desktop/Tesi/Firmware_Software/DAVE project/S2GLP_Pulsed_Doppler/Libraries/XMCLib/inc\xmc_ccu4.h ****  * -# Start and Stop the timer. (XMC_CCU4_SLICE_StartTimer(), XMC_CCU4_SLICE_StopTimer())
 122:C:/Users/Utente/Desktop/Tesi/Firmware_Software/DAVE project/S2GLP_Pulsed_Doppler/Libraries/XMCLib/inc\xmc_ccu4.h ****  * -# Update the period, compare, Dither, Prescaler  and Passive values. (XMC_CCU4_SLICE_SetTimerPe
 123:C:/Users/Utente/Desktop/Tesi/Firmware_Software/DAVE project/S2GLP_Pulsed_Doppler/Libraries/XMCLib/inc\xmc_ccu4.h ****  *    XMC_CCU4_SLICE_SetTimerCompareMatch(), XMC_CCU4_SLICE_SetPrescaler(), XMC_CCU4_SLICE_SetDithe
 124:C:/Users/Utente/Desktop/Tesi/Firmware_Software/DAVE project/S2GLP_Pulsed_Doppler/Libraries/XMCLib/inc\xmc_ccu4.h ****  *    XMC_CCU4_SLICE_SetPassiveLevel())
 125:C:/Users/Utente/Desktop/Tesi/Firmware_Software/DAVE project/S2GLP_Pulsed_Doppler/Libraries/XMCLib/inc\xmc_ccu4.h ****  * -# Enable the slices to support multichannel mode. (XMC_CCU4_SLICE_EnableMultiChannelMode())
 126:C:/Users/Utente/Desktop/Tesi/Firmware_Software/DAVE project/S2GLP_Pulsed_Doppler/Libraries/XMCLib/inc\xmc_ccu4.h ****  * 
 127:C:/Users/Utente/Desktop/Tesi/Firmware_Software/DAVE project/S2GLP_Pulsed_Doppler/Libraries/XMCLib/inc\xmc_ccu4.h ****  * \par Capture configuration:
 128:C:/Users/Utente/Desktop/Tesi/Firmware_Software/DAVE project/S2GLP_Pulsed_Doppler/Libraries/XMCLib/inc\xmc_ccu4.h ****  * This section of the LLD provides the configuration structure XMC_CCU4_SLICE_CAPTURE_CONFIG_t and
 129:C:/Users/Utente/Desktop/Tesi/Firmware_Software/DAVE project/S2GLP_Pulsed_Doppler/Libraries/XMCLib/inc\xmc_ccu4.h ****  * function XMC_CCU4_SLICE_CaptureInit().
 130:C:/Users/Utente/Desktop/Tesi/Firmware_Software/DAVE project/S2GLP_Pulsed_Doppler/Libraries/XMCLib/inc\xmc_ccu4.h ****  *
 131:C:/Users/Utente/Desktop/Tesi/Firmware_Software/DAVE project/S2GLP_Pulsed_Doppler/Libraries/XMCLib/inc\xmc_ccu4.h ****  * It can be used to:
 132:C:/Users/Utente/Desktop/Tesi/Firmware_Software/DAVE project/S2GLP_Pulsed_Doppler/Libraries/XMCLib/inc\xmc_ccu4.h ****  * -# Configure the capture functionality. (XMC_CCU4_SLICE_Capture0Config(), XMC_CCU4_SLICE_Capture
 133:C:/Users/Utente/Desktop/Tesi/Firmware_Software/DAVE project/S2GLP_Pulsed_Doppler/Libraries/XMCLib/inc\xmc_ccu4.h ****  * -# Read the captured values along with the status, which indicate the value is latest or not.
 134:C:/Users/Utente/Desktop/Tesi/Firmware_Software/DAVE project/S2GLP_Pulsed_Doppler/Libraries/XMCLib/inc\xmc_ccu4.h ****  *    (XMC_CCU4_SLICE_GetCaptureRegisterValue())
 135:C:/Users/Utente/Desktop/Tesi/Firmware_Software/DAVE project/S2GLP_Pulsed_Doppler/Libraries/XMCLib/inc\xmc_ccu4.h ****  * 
 136:C:/Users/Utente/Desktop/Tesi/Firmware_Software/DAVE project/S2GLP_Pulsed_Doppler/Libraries/XMCLib/inc\xmc_ccu4.h ****  * \par Function/Event configuration:
 137:C:/Users/Utente/Desktop/Tesi/Firmware_Software/DAVE project/S2GLP_Pulsed_Doppler/Libraries/XMCLib/inc\xmc_ccu4.h ****  * This section of the LLD provides the configuration structure XMC_CCU4_SLICE_EVENT_CONFIG_t.\n
 138:C:/Users/Utente/Desktop/Tesi/Firmware_Software/DAVE project/S2GLP_Pulsed_Doppler/Libraries/XMCLib/inc\xmc_ccu4.h ****  * 
 139:C:/Users/Utente/Desktop/Tesi/Firmware_Software/DAVE project/S2GLP_Pulsed_Doppler/Libraries/XMCLib/inc\xmc_ccu4.h ****  * It can be used to:
 140:C:/Users/Utente/Desktop/Tesi/Firmware_Software/DAVE project/S2GLP_Pulsed_Doppler/Libraries/XMCLib/inc\xmc_ccu4.h ****  * -# Enable and Disable the events. (XMC_CCU4_SLICE_EnableEvent(), XMC_CCU4_SLICE_DisableEvent())
 141:C:/Users/Utente/Desktop/Tesi/Firmware_Software/DAVE project/S2GLP_Pulsed_Doppler/Libraries/XMCLib/inc\xmc_ccu4.h ****  * -# Configure to start and stop the timer on external events.(XMC_CCU4_SLICE_StartConfig(), XMC_C
 142:C:/Users/Utente/Desktop/Tesi/Firmware_Software/DAVE project/S2GLP_Pulsed_Doppler/Libraries/XMCLib/inc\xmc_ccu4.h ****  * -# Modulation, external load and Gating of the timer output.(XMC_CCU4_SLICE_ModulationConfig(), 
 143:C:/Users/Utente/Desktop/Tesi/Firmware_Software/DAVE project/S2GLP_Pulsed_Doppler/Libraries/XMCLib/inc\xmc_ccu4.h ****  *    XMC_CCU4_SLICE_LoadConfig(), XMC_CCU4_SLICE_GateConfig())
 144:C:/Users/Utente/Desktop/Tesi/Firmware_Software/DAVE project/S2GLP_Pulsed_Doppler/Libraries/XMCLib/inc\xmc_ccu4.h ****  * -# Control the count direction of the timer based on the external event. (XMC_CCU4_SLICE_Directi
 145:C:/Users/Utente/Desktop/Tesi/Firmware_Software/DAVE project/S2GLP_Pulsed_Doppler/Libraries/XMCLib/inc\xmc_ccu4.h ****  * -# Count the external events.(XMC_CCU4_SLICE_CountConfig())
 146:C:/Users/Utente/Desktop/Tesi/Firmware_Software/DAVE project/S2GLP_Pulsed_Doppler/Libraries/XMCLib/inc\xmc_ccu4.h ****  * -# External Trap. Which can be used as protective feature.(XMC_CCU4_SLICE_EnableTrap(), XMC_CCU4
 147:C:/Users/Utente/Desktop/Tesi/Firmware_Software/DAVE project/S2GLP_Pulsed_Doppler/Libraries/XMCLib/inc\xmc_ccu4.h ****  *    XMC_CCU4_SLICE_TrapConfig())
 148:C:/Users/Utente/Desktop/Tesi/Firmware_Software/DAVE project/S2GLP_Pulsed_Doppler/Libraries/XMCLib/inc\xmc_ccu4.h ****  *
 149:C:/Users/Utente/Desktop/Tesi/Firmware_Software/DAVE project/S2GLP_Pulsed_Doppler/Libraries/XMCLib/inc\xmc_ccu4.h ****  * \par Interrupt configuration:
 150:C:/Users/Utente/Desktop/Tesi/Firmware_Software/DAVE project/S2GLP_Pulsed_Doppler/Libraries/XMCLib/inc\xmc_ccu4.h ****  * This section of the LLD provides the function to configure the interrupt node to each event (XMC
 151:C:/Users/Utente/Desktop/Tesi/Firmware_Software/DAVE project/S2GLP_Pulsed_Doppler/Libraries/XMCLib/inc\xmc_ccu4.h ****  * @{
 152:C:/Users/Utente/Desktop/Tesi/Firmware_Software/DAVE project/S2GLP_Pulsed_Doppler/Libraries/XMCLib/inc\xmc_ccu4.h ****  */
 153:C:/Users/Utente/Desktop/Tesi/Firmware_Software/DAVE project/S2GLP_Pulsed_Doppler/Libraries/XMCLib/inc\xmc_ccu4.h ****  
 154:C:/Users/Utente/Desktop/Tesi/Firmware_Software/DAVE project/S2GLP_Pulsed_Doppler/Libraries/XMCLib/inc\xmc_ccu4.h **** /**************************************************************************************************
 155:C:/Users/Utente/Desktop/Tesi/Firmware_Software/DAVE project/S2GLP_Pulsed_Doppler/Libraries/XMCLib/inc\xmc_ccu4.h ****  * MACROS
 156:C:/Users/Utente/Desktop/Tesi/Firmware_Software/DAVE project/S2GLP_Pulsed_Doppler/Libraries/XMCLib/inc\xmc_ccu4.h ****  **************************************************************************************************
 157:C:/Users/Utente/Desktop/Tesi/Firmware_Software/DAVE project/S2GLP_Pulsed_Doppler/Libraries/XMCLib/inc\xmc_ccu4.h **** /* Macro to check if the interrupt enum passed is valid */
 158:C:/Users/Utente/Desktop/Tesi/Firmware_Software/DAVE project/S2GLP_Pulsed_Doppler/Libraries/XMCLib/inc\xmc_ccu4.h **** #define XMC_CCU4_SLICE_CHECK_INTERRUPT(interrupt) \
 159:C:/Users/Utente/Desktop/Tesi/Firmware_Software/DAVE project/S2GLP_Pulsed_Doppler/Libraries/XMCLib/inc\xmc_ccu4.h ****     ((interrupt == XMC_CCU4_SLICE_IRQ_ID_PERIOD_MATCH)           || \
 160:C:/Users/Utente/Desktop/Tesi/Firmware_Software/DAVE project/S2GLP_Pulsed_Doppler/Libraries/XMCLib/inc\xmc_ccu4.h ****      (interrupt == XMC_CCU4_SLICE_IRQ_ID_ONE_MATCH)              || \
 161:C:/Users/Utente/Desktop/Tesi/Firmware_Software/DAVE project/S2GLP_Pulsed_Doppler/Libraries/XMCLib/inc\xmc_ccu4.h ****      (interrupt == XMC_CCU4_SLICE_IRQ_ID_COMPARE_MATCH_UP)  || \
 162:C:/Users/Utente/Desktop/Tesi/Firmware_Software/DAVE project/S2GLP_Pulsed_Doppler/Libraries/XMCLib/inc\xmc_ccu4.h ****      (interrupt == XMC_CCU4_SLICE_IRQ_ID_COMPARE_MATCH_DOWN)|| \
 163:C:/Users/Utente/Desktop/Tesi/Firmware_Software/DAVE project/S2GLP_Pulsed_Doppler/Libraries/XMCLib/inc\xmc_ccu4.h ****      (interrupt == XMC_CCU4_SLICE_IRQ_ID_EVENT0)                 || \
 164:C:/Users/Utente/Desktop/Tesi/Firmware_Software/DAVE project/S2GLP_Pulsed_Doppler/Libraries/XMCLib/inc\xmc_ccu4.h ****      (interrupt == XMC_CCU4_SLICE_IRQ_ID_EVENT1)                 || \
 165:C:/Users/Utente/Desktop/Tesi/Firmware_Software/DAVE project/S2GLP_Pulsed_Doppler/Libraries/XMCLib/inc\xmc_ccu4.h ****      (interrupt == XMC_CCU4_SLICE_IRQ_ID_EVENT2)                 || \
 166:C:/Users/Utente/Desktop/Tesi/Firmware_Software/DAVE project/S2GLP_Pulsed_Doppler/Libraries/XMCLib/inc\xmc_ccu4.h ****      (interrupt == XMC_CCU4_SLICE_IRQ_ID_TRAP))
 167:C:/Users/Utente/Desktop/Tesi/Firmware_Software/DAVE project/S2GLP_Pulsed_Doppler/Libraries/XMCLib/inc\xmc_ccu4.h **** 
 168:C:/Users/Utente/Desktop/Tesi/Firmware_Software/DAVE project/S2GLP_Pulsed_Doppler/Libraries/XMCLib/inc\xmc_ccu4.h **** /**************************************************************************************************
 169:C:/Users/Utente/Desktop/Tesi/Firmware_Software/DAVE project/S2GLP_Pulsed_Doppler/Libraries/XMCLib/inc\xmc_ccu4.h ****  * ENUMS
 170:C:/Users/Utente/Desktop/Tesi/Firmware_Software/DAVE project/S2GLP_Pulsed_Doppler/Libraries/XMCLib/inc\xmc_ccu4.h ****  **************************************************************************************************
 171:C:/Users/Utente/Desktop/Tesi/Firmware_Software/DAVE project/S2GLP_Pulsed_Doppler/Libraries/XMCLib/inc\xmc_ccu4.h **** 
 172:C:/Users/Utente/Desktop/Tesi/Firmware_Software/DAVE project/S2GLP_Pulsed_Doppler/Libraries/XMCLib/inc\xmc_ccu4.h **** /**
 173:C:/Users/Utente/Desktop/Tesi/Firmware_Software/DAVE project/S2GLP_Pulsed_Doppler/Libraries/XMCLib/inc\xmc_ccu4.h ****  * Typedef for CCU4 Global data structure
 174:C:/Users/Utente/Desktop/Tesi/Firmware_Software/DAVE project/S2GLP_Pulsed_Doppler/Libraries/XMCLib/inc\xmc_ccu4.h ****  */
 175:C:/Users/Utente/Desktop/Tesi/Firmware_Software/DAVE project/S2GLP_Pulsed_Doppler/Libraries/XMCLib/inc\xmc_ccu4.h **** typedef CCU4_GLOBAL_TypeDef XMC_CCU4_MODULE_t;
 176:C:/Users/Utente/Desktop/Tesi/Firmware_Software/DAVE project/S2GLP_Pulsed_Doppler/Libraries/XMCLib/inc\xmc_ccu4.h **** 
 177:C:/Users/Utente/Desktop/Tesi/Firmware_Software/DAVE project/S2GLP_Pulsed_Doppler/Libraries/XMCLib/inc\xmc_ccu4.h **** /**
 178:C:/Users/Utente/Desktop/Tesi/Firmware_Software/DAVE project/S2GLP_Pulsed_Doppler/Libraries/XMCLib/inc\xmc_ccu4.h ****  * Typedef for CCU4 Slice data structure
 179:C:/Users/Utente/Desktop/Tesi/Firmware_Software/DAVE project/S2GLP_Pulsed_Doppler/Libraries/XMCLib/inc\xmc_ccu4.h ****  */
 180:C:/Users/Utente/Desktop/Tesi/Firmware_Software/DAVE project/S2GLP_Pulsed_Doppler/Libraries/XMCLib/inc\xmc_ccu4.h **** typedef CCU4_CC4_TypeDef XMC_CCU4_SLICE_t;
 181:C:/Users/Utente/Desktop/Tesi/Firmware_Software/DAVE project/S2GLP_Pulsed_Doppler/Libraries/XMCLib/inc\xmc_ccu4.h **** 
 182:C:/Users/Utente/Desktop/Tesi/Firmware_Software/DAVE project/S2GLP_Pulsed_Doppler/Libraries/XMCLib/inc\xmc_ccu4.h **** /**
 183:C:/Users/Utente/Desktop/Tesi/Firmware_Software/DAVE project/S2GLP_Pulsed_Doppler/Libraries/XMCLib/inc\xmc_ccu4.h ****  *  Return Value of an API
 184:C:/Users/Utente/Desktop/Tesi/Firmware_Software/DAVE project/S2GLP_Pulsed_Doppler/Libraries/XMCLib/inc\xmc_ccu4.h ****  */ 
 185:C:/Users/Utente/Desktop/Tesi/Firmware_Software/DAVE project/S2GLP_Pulsed_Doppler/Libraries/XMCLib/inc\xmc_ccu4.h **** typedef enum XMC_CCU4_STATUS
 186:C:/Users/Utente/Desktop/Tesi/Firmware_Software/DAVE project/S2GLP_Pulsed_Doppler/Libraries/XMCLib/inc\xmc_ccu4.h **** {
 187:C:/Users/Utente/Desktop/Tesi/Firmware_Software/DAVE project/S2GLP_Pulsed_Doppler/Libraries/XMCLib/inc\xmc_ccu4.h ****   XMC_CCU4_STATUS_OK      = 0U, /**< API fulfils request */
 188:C:/Users/Utente/Desktop/Tesi/Firmware_Software/DAVE project/S2GLP_Pulsed_Doppler/Libraries/XMCLib/inc\xmc_ccu4.h ****   XMC_CCU4_STATUS_ERROR       , /**< API cannot fulfil the request */
 189:C:/Users/Utente/Desktop/Tesi/Firmware_Software/DAVE project/S2GLP_Pulsed_Doppler/Libraries/XMCLib/inc\xmc_ccu4.h ****   XMC_CCU4_STATUS_RUNNING     , /**< The timer slice is currently running */
 190:C:/Users/Utente/Desktop/Tesi/Firmware_Software/DAVE project/S2GLP_Pulsed_Doppler/Libraries/XMCLib/inc\xmc_ccu4.h ****   XMC_CCU4_STATUS_IDLE          /**< The timer slice is currently idle */
 191:C:/Users/Utente/Desktop/Tesi/Firmware_Software/DAVE project/S2GLP_Pulsed_Doppler/Libraries/XMCLib/inc\xmc_ccu4.h **** } XMC_CCU4_STATUS_t;
 192:C:/Users/Utente/Desktop/Tesi/Firmware_Software/DAVE project/S2GLP_Pulsed_Doppler/Libraries/XMCLib/inc\xmc_ccu4.h **** 
 193:C:/Users/Utente/Desktop/Tesi/Firmware_Software/DAVE project/S2GLP_Pulsed_Doppler/Libraries/XMCLib/inc\xmc_ccu4.h **** /**
 194:C:/Users/Utente/Desktop/Tesi/Firmware_Software/DAVE project/S2GLP_Pulsed_Doppler/Libraries/XMCLib/inc\xmc_ccu4.h ****  *  CCU4 module clock
 195:C:/Users/Utente/Desktop/Tesi/Firmware_Software/DAVE project/S2GLP_Pulsed_Doppler/Libraries/XMCLib/inc\xmc_ccu4.h ****  */ 
 196:C:/Users/Utente/Desktop/Tesi/Firmware_Software/DAVE project/S2GLP_Pulsed_Doppler/Libraries/XMCLib/inc\xmc_ccu4.h **** typedef enum XMC_CCU4_CLOCK
 197:C:/Users/Utente/Desktop/Tesi/Firmware_Software/DAVE project/S2GLP_Pulsed_Doppler/Libraries/XMCLib/inc\xmc_ccu4.h **** {
 198:C:/Users/Utente/Desktop/Tesi/Firmware_Software/DAVE project/S2GLP_Pulsed_Doppler/Libraries/XMCLib/inc\xmc_ccu4.h ****   XMC_CCU4_CLOCK_SCU        = 0U, /**< Select the fCCU as the clock */
 199:C:/Users/Utente/Desktop/Tesi/Firmware_Software/DAVE project/S2GLP_Pulsed_Doppler/Libraries/XMCLib/inc\xmc_ccu4.h ****   XMC_CCU4_CLOCK_EXTERNAL_A     , /**< External clock-A */
 200:C:/Users/Utente/Desktop/Tesi/Firmware_Software/DAVE project/S2GLP_Pulsed_Doppler/Libraries/XMCLib/inc\xmc_ccu4.h ****   XMC_CCU4_CLOCK_EXTERNAL_B     , /**< External clock-B */
 201:C:/Users/Utente/Desktop/Tesi/Firmware_Software/DAVE project/S2GLP_Pulsed_Doppler/Libraries/XMCLib/inc\xmc_ccu4.h ****   XMC_CCU4_CLOCK_EXTERNAL_C       /**< External clock-C */
 202:C:/Users/Utente/Desktop/Tesi/Firmware_Software/DAVE project/S2GLP_Pulsed_Doppler/Libraries/XMCLib/inc\xmc_ccu4.h **** } XMC_CCU4_CLOCK_t;
 203:C:/Users/Utente/Desktop/Tesi/Firmware_Software/DAVE project/S2GLP_Pulsed_Doppler/Libraries/XMCLib/inc\xmc_ccu4.h **** 
 204:C:/Users/Utente/Desktop/Tesi/Firmware_Software/DAVE project/S2GLP_Pulsed_Doppler/Libraries/XMCLib/inc\xmc_ccu4.h **** /**
 205:C:/Users/Utente/Desktop/Tesi/Firmware_Software/DAVE project/S2GLP_Pulsed_Doppler/Libraries/XMCLib/inc\xmc_ccu4.h ****  * CCU4 set the shadow transfer type for multichannel mode
 206:C:/Users/Utente/Desktop/Tesi/Firmware_Software/DAVE project/S2GLP_Pulsed_Doppler/Libraries/XMCLib/inc\xmc_ccu4.h ****  */
 207:C:/Users/Utente/Desktop/Tesi/Firmware_Software/DAVE project/S2GLP_Pulsed_Doppler/Libraries/XMCLib/inc\xmc_ccu4.h **** typedef enum XMC_CCU4_MULTI_CHANNEL_SHADOW_TRANSFER
 208:C:/Users/Utente/Desktop/Tesi/Firmware_Software/DAVE project/S2GLP_Pulsed_Doppler/Libraries/XMCLib/inc\xmc_ccu4.h **** {
 209:C:/Users/Utente/Desktop/Tesi/Firmware_Software/DAVE project/S2GLP_Pulsed_Doppler/Libraries/XMCLib/inc\xmc_ccu4.h ****   XMC_CCU4_MULTI_CHANNEL_SHADOW_TRANSFER_SW_SLICE0       = (uint32_t)0x4000000, /**< Shadow transfe
 210:C:/Users/Utente/Desktop/Tesi/Firmware_Software/DAVE project/S2GLP_Pulsed_Doppler/Libraries/XMCLib/inc\xmc_ccu4.h ****                                                                                      only for slice
 211:C:/Users/Utente/Desktop/Tesi/Firmware_Software/DAVE project/S2GLP_Pulsed_Doppler/Libraries/XMCLib/inc\xmc_ccu4.h ****   XMC_CCU4_MULTI_CHANNEL_SHADOW_TRANSFER_SW_MCSS_SLICE0  = (uint32_t)0x4000400, /**< Shadow transfe
 212:C:/Users/Utente/Desktop/Tesi/Firmware_Software/DAVE project/S2GLP_Pulsed_Doppler/Libraries/XMCLib/inc\xmc_ccu4.h ****                                                                                      and hardware f
 213:C:/Users/Utente/Desktop/Tesi/Firmware_Software/DAVE project/S2GLP_Pulsed_Doppler/Libraries/XMCLib/inc\xmc_ccu4.h ****   XMC_CCU4_MULTI_CHANNEL_SHADOW_TRANSFER_SW_SLICE1       = (uint32_t)0x8000000, /**< Shadow transfe
 214:C:/Users/Utente/Desktop/Tesi/Firmware_Software/DAVE project/S2GLP_Pulsed_Doppler/Libraries/XMCLib/inc\xmc_ccu4.h ****                                                                                      only for slice
 215:C:/Users/Utente/Desktop/Tesi/Firmware_Software/DAVE project/S2GLP_Pulsed_Doppler/Libraries/XMCLib/inc\xmc_ccu4.h ****   XMC_CCU4_MULTI_CHANNEL_SHADOW_TRANSFER_SW_MCSS_SLICE1  = (uint32_t)0x8000800, /**< Shadow transfe
 216:C:/Users/Utente/Desktop/Tesi/Firmware_Software/DAVE project/S2GLP_Pulsed_Doppler/Libraries/XMCLib/inc\xmc_ccu4.h ****                                                                                      and hardware f
 217:C:/Users/Utente/Desktop/Tesi/Firmware_Software/DAVE project/S2GLP_Pulsed_Doppler/Libraries/XMCLib/inc\xmc_ccu4.h ****   XMC_CCU4_MULTI_CHANNEL_SHADOW_TRANSFER_SW_SLICE2       = (uint32_t)0x10000000, /**< Shadow transf
 218:C:/Users/Utente/Desktop/Tesi/Firmware_Software/DAVE project/S2GLP_Pulsed_Doppler/Libraries/XMCLib/inc\xmc_ccu4.h ****                                                                                       only for slic
 219:C:/Users/Utente/Desktop/Tesi/Firmware_Software/DAVE project/S2GLP_Pulsed_Doppler/Libraries/XMCLib/inc\xmc_ccu4.h ****   XMC_CCU4_MULTI_CHANNEL_SHADOW_TRANSFER_SW_MCSS_SLICE2  = (uint32_t)0x10001000, /**< Shadow transf
 220:C:/Users/Utente/Desktop/Tesi/Firmware_Software/DAVE project/S2GLP_Pulsed_Doppler/Libraries/XMCLib/inc\xmc_ccu4.h ****                                                                                       and hardware 
 221:C:/Users/Utente/Desktop/Tesi/Firmware_Software/DAVE project/S2GLP_Pulsed_Doppler/Libraries/XMCLib/inc\xmc_ccu4.h ****   XMC_CCU4_MULTI_CHANNEL_SHADOW_TRANSFER_SW_SLICE3       = (uint32_t)0x20000000, /**< Shadow transf
 222:C:/Users/Utente/Desktop/Tesi/Firmware_Software/DAVE project/S2GLP_Pulsed_Doppler/Libraries/XMCLib/inc\xmc_ccu4.h ****                                                                                       only for slic
 223:C:/Users/Utente/Desktop/Tesi/Firmware_Software/DAVE project/S2GLP_Pulsed_Doppler/Libraries/XMCLib/inc\xmc_ccu4.h ****   XMC_CCU4_MULTI_CHANNEL_SHADOW_TRANSFER_SW_MCSS_SLICE3  = (uint32_t)0x20002000  /**< Shadow transf
 224:C:/Users/Utente/Desktop/Tesi/Firmware_Software/DAVE project/S2GLP_Pulsed_Doppler/Libraries/XMCLib/inc\xmc_ccu4.h ****                                                                                       and hardware 
 225:C:/Users/Utente/Desktop/Tesi/Firmware_Software/DAVE project/S2GLP_Pulsed_Doppler/Libraries/XMCLib/inc\xmc_ccu4.h **** } XMC_CCU4_MULTI_CHANNEL_SHADOW_TRANSFER_t;
 226:C:/Users/Utente/Desktop/Tesi/Firmware_Software/DAVE project/S2GLP_Pulsed_Doppler/Libraries/XMCLib/inc\xmc_ccu4.h **** 
 227:C:/Users/Utente/Desktop/Tesi/Firmware_Software/DAVE project/S2GLP_Pulsed_Doppler/Libraries/XMCLib/inc\xmc_ccu4.h **** /**
 228:C:/Users/Utente/Desktop/Tesi/Firmware_Software/DAVE project/S2GLP_Pulsed_Doppler/Libraries/XMCLib/inc\xmc_ccu4.h ****  *  Operational modes of CCU4 slice
 229:C:/Users/Utente/Desktop/Tesi/Firmware_Software/DAVE project/S2GLP_Pulsed_Doppler/Libraries/XMCLib/inc\xmc_ccu4.h ****  */ 
 230:C:/Users/Utente/Desktop/Tesi/Firmware_Software/DAVE project/S2GLP_Pulsed_Doppler/Libraries/XMCLib/inc\xmc_ccu4.h **** typedef enum XMC_CCU4_SLICE_MODE
 231:C:/Users/Utente/Desktop/Tesi/Firmware_Software/DAVE project/S2GLP_Pulsed_Doppler/Libraries/XMCLib/inc\xmc_ccu4.h **** {
 232:C:/Users/Utente/Desktop/Tesi/Firmware_Software/DAVE project/S2GLP_Pulsed_Doppler/Libraries/XMCLib/inc\xmc_ccu4.h ****   XMC_CCU4_SLICE_MODE_COMPARE  = 0U, /**< slice(CC4y) operates in Compare Mode */
 233:C:/Users/Utente/Desktop/Tesi/Firmware_Software/DAVE project/S2GLP_Pulsed_Doppler/Libraries/XMCLib/inc\xmc_ccu4.h ****   XMC_CCU4_SLICE_MODE_CAPTURE        /**< slice(CC4y) operates in Capture Mode */
 234:C:/Users/Utente/Desktop/Tesi/Firmware_Software/DAVE project/S2GLP_Pulsed_Doppler/Libraries/XMCLib/inc\xmc_ccu4.h **** } XMC_CCU4_SLICE_MODE_t;
 235:C:/Users/Utente/Desktop/Tesi/Firmware_Software/DAVE project/S2GLP_Pulsed_Doppler/Libraries/XMCLib/inc\xmc_ccu4.h **** 
 236:C:/Users/Utente/Desktop/Tesi/Firmware_Software/DAVE project/S2GLP_Pulsed_Doppler/Libraries/XMCLib/inc\xmc_ccu4.h **** /**
 237:C:/Users/Utente/Desktop/Tesi/Firmware_Software/DAVE project/S2GLP_Pulsed_Doppler/Libraries/XMCLib/inc\xmc_ccu4.h ****  *  Timer counting modes for the slice
 238:C:/Users/Utente/Desktop/Tesi/Firmware_Software/DAVE project/S2GLP_Pulsed_Doppler/Libraries/XMCLib/inc\xmc_ccu4.h ****  */ 
 239:C:/Users/Utente/Desktop/Tesi/Firmware_Software/DAVE project/S2GLP_Pulsed_Doppler/Libraries/XMCLib/inc\xmc_ccu4.h **** typedef enum XMC_CCU4_SLICE_TIMER_COUNT_MODE
 240:C:/Users/Utente/Desktop/Tesi/Firmware_Software/DAVE project/S2GLP_Pulsed_Doppler/Libraries/XMCLib/inc\xmc_ccu4.h **** {
 241:C:/Users/Utente/Desktop/Tesi/Firmware_Software/DAVE project/S2GLP_Pulsed_Doppler/Libraries/XMCLib/inc\xmc_ccu4.h ****   XMC_CCU4_SLICE_TIMER_COUNT_MODE_EA  = 0U, /**< Edge Aligned Mode */
 242:C:/Users/Utente/Desktop/Tesi/Firmware_Software/DAVE project/S2GLP_Pulsed_Doppler/Libraries/XMCLib/inc\xmc_ccu4.h ****   XMC_CCU4_SLICE_TIMER_COUNT_MODE_CA        /**< Center Aligned Mode */
 243:C:/Users/Utente/Desktop/Tesi/Firmware_Software/DAVE project/S2GLP_Pulsed_Doppler/Libraries/XMCLib/inc\xmc_ccu4.h **** } XMC_CCU4_SLICE_TIMER_COUNT_MODE_t;
 244:C:/Users/Utente/Desktop/Tesi/Firmware_Software/DAVE project/S2GLP_Pulsed_Doppler/Libraries/XMCLib/inc\xmc_ccu4.h **** 
 245:C:/Users/Utente/Desktop/Tesi/Firmware_Software/DAVE project/S2GLP_Pulsed_Doppler/Libraries/XMCLib/inc\xmc_ccu4.h **** /**
 246:C:/Users/Utente/Desktop/Tesi/Firmware_Software/DAVE project/S2GLP_Pulsed_Doppler/Libraries/XMCLib/inc\xmc_ccu4.h ****  *  Timer repetition mode for the slice
 247:C:/Users/Utente/Desktop/Tesi/Firmware_Software/DAVE project/S2GLP_Pulsed_Doppler/Libraries/XMCLib/inc\xmc_ccu4.h ****  */ 
 248:C:/Users/Utente/Desktop/Tesi/Firmware_Software/DAVE project/S2GLP_Pulsed_Doppler/Libraries/XMCLib/inc\xmc_ccu4.h **** typedef enum XMC_CCU4_SLICE_TIMER_REPEAT_MODE
 249:C:/Users/Utente/Desktop/Tesi/Firmware_Software/DAVE project/S2GLP_Pulsed_Doppler/Libraries/XMCLib/inc\xmc_ccu4.h **** {
 250:C:/Users/Utente/Desktop/Tesi/Firmware_Software/DAVE project/S2GLP_Pulsed_Doppler/Libraries/XMCLib/inc\xmc_ccu4.h ****   XMC_CCU4_SLICE_TIMER_REPEAT_MODE_REPEAT = 0U,  /**< Repetitive mode: continuous mode of operation
 251:C:/Users/Utente/Desktop/Tesi/Firmware_Software/DAVE project/S2GLP_Pulsed_Doppler/Libraries/XMCLib/inc\xmc_ccu4.h ****   XMC_CCU4_SLICE_TIMER_REPEAT_MODE_SINGLE        /**< Single shot mode: Once a Period match/One mat
 252:C:/Users/Utente/Desktop/Tesi/Firmware_Software/DAVE project/S2GLP_Pulsed_Doppler/Libraries/XMCLib/inc\xmc_ccu4.h ****                                                       occurs timer goes to idle state */
 253:C:/Users/Utente/Desktop/Tesi/Firmware_Software/DAVE project/S2GLP_Pulsed_Doppler/Libraries/XMCLib/inc\xmc_ccu4.h **** } XMC_CCU4_SLICE_TIMER_REPEAT_MODE_t;
 254:C:/Users/Utente/Desktop/Tesi/Firmware_Software/DAVE project/S2GLP_Pulsed_Doppler/Libraries/XMCLib/inc\xmc_ccu4.h **** 
 255:C:/Users/Utente/Desktop/Tesi/Firmware_Software/DAVE project/S2GLP_Pulsed_Doppler/Libraries/XMCLib/inc\xmc_ccu4.h **** /**
 256:C:/Users/Utente/Desktop/Tesi/Firmware_Software/DAVE project/S2GLP_Pulsed_Doppler/Libraries/XMCLib/inc\xmc_ccu4.h ****  * Timer counting direction for the CCU4 slice
 257:C:/Users/Utente/Desktop/Tesi/Firmware_Software/DAVE project/S2GLP_Pulsed_Doppler/Libraries/XMCLib/inc\xmc_ccu4.h ****  */ 
 258:C:/Users/Utente/Desktop/Tesi/Firmware_Software/DAVE project/S2GLP_Pulsed_Doppler/Libraries/XMCLib/inc\xmc_ccu4.h **** typedef enum XMC_CCU4_SLICE_TIMER_COUNT_DIR
 259:C:/Users/Utente/Desktop/Tesi/Firmware_Software/DAVE project/S2GLP_Pulsed_Doppler/Libraries/XMCLib/inc\xmc_ccu4.h **** {
 260:C:/Users/Utente/Desktop/Tesi/Firmware_Software/DAVE project/S2GLP_Pulsed_Doppler/Libraries/XMCLib/inc\xmc_ccu4.h ****   XMC_CCU4_SLICE_TIMER_COUNT_DIR_UP   = 0U, /**< Counting up */
 261:C:/Users/Utente/Desktop/Tesi/Firmware_Software/DAVE project/S2GLP_Pulsed_Doppler/Libraries/XMCLib/inc\xmc_ccu4.h ****   XMC_CCU4_SLICE_TIMER_COUNT_DIR_DOWN       /**< Counting down */
 262:C:/Users/Utente/Desktop/Tesi/Firmware_Software/DAVE project/S2GLP_Pulsed_Doppler/Libraries/XMCLib/inc\xmc_ccu4.h **** } XMC_CCU4_SLICE_TIMER_COUNT_DIR_t;
 263:C:/Users/Utente/Desktop/Tesi/Firmware_Software/DAVE project/S2GLP_Pulsed_Doppler/Libraries/XMCLib/inc\xmc_ccu4.h **** 
 264:C:/Users/Utente/Desktop/Tesi/Firmware_Software/DAVE project/S2GLP_Pulsed_Doppler/Libraries/XMCLib/inc\xmc_ccu4.h **** /**
 265:C:/Users/Utente/Desktop/Tesi/Firmware_Software/DAVE project/S2GLP_Pulsed_Doppler/Libraries/XMCLib/inc\xmc_ccu4.h ****  *  Capture mode register sets
 266:C:/Users/Utente/Desktop/Tesi/Firmware_Software/DAVE project/S2GLP_Pulsed_Doppler/Libraries/XMCLib/inc\xmc_ccu4.h ****  */ 
 267:C:/Users/Utente/Desktop/Tesi/Firmware_Software/DAVE project/S2GLP_Pulsed_Doppler/Libraries/XMCLib/inc\xmc_ccu4.h **** typedef enum XMC_CCU4_SLICE_CAP_REG_SET
 268:C:/Users/Utente/Desktop/Tesi/Firmware_Software/DAVE project/S2GLP_Pulsed_Doppler/Libraries/XMCLib/inc\xmc_ccu4.h **** {
 269:C:/Users/Utente/Desktop/Tesi/Firmware_Software/DAVE project/S2GLP_Pulsed_Doppler/Libraries/XMCLib/inc\xmc_ccu4.h ****   XMC_CCU4_SLICE_CAP_REG_SET_LOW  = 0U, /**< Capture register-0, Capture register-1 used */
 270:C:/Users/Utente/Desktop/Tesi/Firmware_Software/DAVE project/S2GLP_Pulsed_Doppler/Libraries/XMCLib/inc\xmc_ccu4.h ****   XMC_CCU4_SLICE_CAP_REG_SET_HIGH       /**< Capture register-2, Capture register-3 used */
 271:C:/Users/Utente/Desktop/Tesi/Firmware_Software/DAVE project/S2GLP_Pulsed_Doppler/Libraries/XMCLib/inc\xmc_ccu4.h **** } XMC_CCU4_SLICE_CAP_REG_SET_t;
 272:C:/Users/Utente/Desktop/Tesi/Firmware_Software/DAVE project/S2GLP_Pulsed_Doppler/Libraries/XMCLib/inc\xmc_ccu4.h **** 
 273:C:/Users/Utente/Desktop/Tesi/Firmware_Software/DAVE project/S2GLP_Pulsed_Doppler/Libraries/XMCLib/inc\xmc_ccu4.h **** /**
 274:C:/Users/Utente/Desktop/Tesi/Firmware_Software/DAVE project/S2GLP_Pulsed_Doppler/Libraries/XMCLib/inc\xmc_ccu4.h ****  *  Prescaler mode
 275:C:/Users/Utente/Desktop/Tesi/Firmware_Software/DAVE project/S2GLP_Pulsed_Doppler/Libraries/XMCLib/inc\xmc_ccu4.h ****  */ 
 276:C:/Users/Utente/Desktop/Tesi/Firmware_Software/DAVE project/S2GLP_Pulsed_Doppler/Libraries/XMCLib/inc\xmc_ccu4.h **** typedef enum XMC_CCU4_SLICE_PRESCALER_MODE
 277:C:/Users/Utente/Desktop/Tesi/Firmware_Software/DAVE project/S2GLP_Pulsed_Doppler/Libraries/XMCLib/inc\xmc_ccu4.h **** {
 278:C:/Users/Utente/Desktop/Tesi/Firmware_Software/DAVE project/S2GLP_Pulsed_Doppler/Libraries/XMCLib/inc\xmc_ccu4.h ****   XMC_CCU4_SLICE_PRESCALER_MODE_NORMAL = 0U, /**< Fixed division of module clock */
 279:C:/Users/Utente/Desktop/Tesi/Firmware_Software/DAVE project/S2GLP_Pulsed_Doppler/Libraries/XMCLib/inc\xmc_ccu4.h ****   XMC_CCU4_SLICE_PRESCALER_MODE_FLOAT        /**< Floating divider. */
 280:C:/Users/Utente/Desktop/Tesi/Firmware_Software/DAVE project/S2GLP_Pulsed_Doppler/Libraries/XMCLib/inc\xmc_ccu4.h **** } XMC_CCU4_SLICE_PRESCALER_MODE_t;
 281:C:/Users/Utente/Desktop/Tesi/Firmware_Software/DAVE project/S2GLP_Pulsed_Doppler/Libraries/XMCLib/inc\xmc_ccu4.h **** 
 282:C:/Users/Utente/Desktop/Tesi/Firmware_Software/DAVE project/S2GLP_Pulsed_Doppler/Libraries/XMCLib/inc\xmc_ccu4.h **** /**
 283:C:/Users/Utente/Desktop/Tesi/Firmware_Software/DAVE project/S2GLP_Pulsed_Doppler/Libraries/XMCLib/inc\xmc_ccu4.h ****  *  Timer output passive level
 284:C:/Users/Utente/Desktop/Tesi/Firmware_Software/DAVE project/S2GLP_Pulsed_Doppler/Libraries/XMCLib/inc\xmc_ccu4.h ****  */ 
 285:C:/Users/Utente/Desktop/Tesi/Firmware_Software/DAVE project/S2GLP_Pulsed_Doppler/Libraries/XMCLib/inc\xmc_ccu4.h **** typedef enum XMC_CCU4_SLICE_OUTPUT_PASSIVE_LEVEL
 286:C:/Users/Utente/Desktop/Tesi/Firmware_Software/DAVE project/S2GLP_Pulsed_Doppler/Libraries/XMCLib/inc\xmc_ccu4.h **** {
 287:C:/Users/Utente/Desktop/Tesi/Firmware_Software/DAVE project/S2GLP_Pulsed_Doppler/Libraries/XMCLib/inc\xmc_ccu4.h ****   XMC_CCU4_SLICE_OUTPUT_PASSIVE_LEVEL_LOW  = 0U, /**< Passive level = Low */
 288:C:/Users/Utente/Desktop/Tesi/Firmware_Software/DAVE project/S2GLP_Pulsed_Doppler/Libraries/XMCLib/inc\xmc_ccu4.h ****   XMC_CCU4_SLICE_OUTPUT_PASSIVE_LEVEL_HIGH       /**< Passive level = High */
 289:C:/Users/Utente/Desktop/Tesi/Firmware_Software/DAVE project/S2GLP_Pulsed_Doppler/Libraries/XMCLib/inc\xmc_ccu4.h **** } XMC_CCU4_SLICE_OUTPUT_PASSIVE_LEVEL_t;
 290:C:/Users/Utente/Desktop/Tesi/Firmware_Software/DAVE project/S2GLP_Pulsed_Doppler/Libraries/XMCLib/inc\xmc_ccu4.h **** 
 291:C:/Users/Utente/Desktop/Tesi/Firmware_Software/DAVE project/S2GLP_Pulsed_Doppler/Libraries/XMCLib/inc\xmc_ccu4.h **** /**
 292:C:/Users/Utente/Desktop/Tesi/Firmware_Software/DAVE project/S2GLP_Pulsed_Doppler/Libraries/XMCLib/inc\xmc_ccu4.h ****  * Timer clock Divider
 293:C:/Users/Utente/Desktop/Tesi/Firmware_Software/DAVE project/S2GLP_Pulsed_Doppler/Libraries/XMCLib/inc\xmc_ccu4.h ****  */
 294:C:/Users/Utente/Desktop/Tesi/Firmware_Software/DAVE project/S2GLP_Pulsed_Doppler/Libraries/XMCLib/inc\xmc_ccu4.h **** typedef enum XMC_CCU4_SLICE_PRESCALER
 295:C:/Users/Utente/Desktop/Tesi/Firmware_Software/DAVE project/S2GLP_Pulsed_Doppler/Libraries/XMCLib/inc\xmc_ccu4.h **** {
 296:C:/Users/Utente/Desktop/Tesi/Firmware_Software/DAVE project/S2GLP_Pulsed_Doppler/Libraries/XMCLib/inc\xmc_ccu4.h ****   XMC_CCU4_SLICE_PRESCALER_1  = 0U, /**< Slice Clock = fccu4 */
 297:C:/Users/Utente/Desktop/Tesi/Firmware_Software/DAVE project/S2GLP_Pulsed_Doppler/Libraries/XMCLib/inc\xmc_ccu4.h ****   XMC_CCU4_SLICE_PRESCALER_2      , /**< Slice Clock = fccu4/2 */
 298:C:/Users/Utente/Desktop/Tesi/Firmware_Software/DAVE project/S2GLP_Pulsed_Doppler/Libraries/XMCLib/inc\xmc_ccu4.h ****   XMC_CCU4_SLICE_PRESCALER_4      , /**< Slice Clock = fccu4/4 */
 299:C:/Users/Utente/Desktop/Tesi/Firmware_Software/DAVE project/S2GLP_Pulsed_Doppler/Libraries/XMCLib/inc\xmc_ccu4.h ****   XMC_CCU4_SLICE_PRESCALER_8      , /**< Slice Clock = fccu4/8 */
 300:C:/Users/Utente/Desktop/Tesi/Firmware_Software/DAVE project/S2GLP_Pulsed_Doppler/Libraries/XMCLib/inc\xmc_ccu4.h ****   XMC_CCU4_SLICE_PRESCALER_16     , /**< Slice Clock = fccu4/16 */
 301:C:/Users/Utente/Desktop/Tesi/Firmware_Software/DAVE project/S2GLP_Pulsed_Doppler/Libraries/XMCLib/inc\xmc_ccu4.h ****   XMC_CCU4_SLICE_PRESCALER_32     , /**< Slice Clock = fccu4/32 */
 302:C:/Users/Utente/Desktop/Tesi/Firmware_Software/DAVE project/S2GLP_Pulsed_Doppler/Libraries/XMCLib/inc\xmc_ccu4.h ****   XMC_CCU4_SLICE_PRESCALER_64     , /**< Slice Clock = fccu4/64 */
 303:C:/Users/Utente/Desktop/Tesi/Firmware_Software/DAVE project/S2GLP_Pulsed_Doppler/Libraries/XMCLib/inc\xmc_ccu4.h ****   XMC_CCU4_SLICE_PRESCALER_128    , /**< Slice Clock = fccu4/128 */
 304:C:/Users/Utente/Desktop/Tesi/Firmware_Software/DAVE project/S2GLP_Pulsed_Doppler/Libraries/XMCLib/inc\xmc_ccu4.h ****   XMC_CCU4_SLICE_PRESCALER_256    , /**< Slice Clock = fccu4/256 */
 305:C:/Users/Utente/Desktop/Tesi/Firmware_Software/DAVE project/S2GLP_Pulsed_Doppler/Libraries/XMCLib/inc\xmc_ccu4.h ****   XMC_CCU4_SLICE_PRESCALER_512    , /**< Slice Clock = fccu4/512 */
 306:C:/Users/Utente/Desktop/Tesi/Firmware_Software/DAVE project/S2GLP_Pulsed_Doppler/Libraries/XMCLib/inc\xmc_ccu4.h ****   XMC_CCU4_SLICE_PRESCALER_1024   , /**< Slice Clock = fccu4/1024 */
 307:C:/Users/Utente/Desktop/Tesi/Firmware_Software/DAVE project/S2GLP_Pulsed_Doppler/Libraries/XMCLib/inc\xmc_ccu4.h ****   XMC_CCU4_SLICE_PRESCALER_2048   , /**< Slice Clock = fccu4/2048 */
 308:C:/Users/Utente/Desktop/Tesi/Firmware_Software/DAVE project/S2GLP_Pulsed_Doppler/Libraries/XMCLib/inc\xmc_ccu4.h ****   XMC_CCU4_SLICE_PRESCALER_4096   , /**< Slice Clock = fccu4/4096 */
 309:C:/Users/Utente/Desktop/Tesi/Firmware_Software/DAVE project/S2GLP_Pulsed_Doppler/Libraries/XMCLib/inc\xmc_ccu4.h ****   XMC_CCU4_SLICE_PRESCALER_8192   , /**< Slice Clock = fccu4/8192 */
 310:C:/Users/Utente/Desktop/Tesi/Firmware_Software/DAVE project/S2GLP_Pulsed_Doppler/Libraries/XMCLib/inc\xmc_ccu4.h ****   XMC_CCU4_SLICE_PRESCALER_16384  , /**< Slice Clock = fccu4/16384 */
 311:C:/Users/Utente/Desktop/Tesi/Firmware_Software/DAVE project/S2GLP_Pulsed_Doppler/Libraries/XMCLib/inc\xmc_ccu4.h ****   XMC_CCU4_SLICE_PRESCALER_32768    /**< Slice Clock = fccu4/32768 */
 312:C:/Users/Utente/Desktop/Tesi/Firmware_Software/DAVE project/S2GLP_Pulsed_Doppler/Libraries/XMCLib/inc\xmc_ccu4.h **** } XMC_CCU4_SLICE_PRESCALER_t;
 313:C:/Users/Utente/Desktop/Tesi/Firmware_Software/DAVE project/S2GLP_Pulsed_Doppler/Libraries/XMCLib/inc\xmc_ccu4.h **** 
 314:C:/Users/Utente/Desktop/Tesi/Firmware_Software/DAVE project/S2GLP_Pulsed_Doppler/Libraries/XMCLib/inc\xmc_ccu4.h **** /**
 315:C:/Users/Utente/Desktop/Tesi/Firmware_Software/DAVE project/S2GLP_Pulsed_Doppler/Libraries/XMCLib/inc\xmc_ccu4.h ****  *  External Function list
 316:C:/Users/Utente/Desktop/Tesi/Firmware_Software/DAVE project/S2GLP_Pulsed_Doppler/Libraries/XMCLib/inc\xmc_ccu4.h ****  */ 
 317:C:/Users/Utente/Desktop/Tesi/Firmware_Software/DAVE project/S2GLP_Pulsed_Doppler/Libraries/XMCLib/inc\xmc_ccu4.h **** typedef enum XMC_CCU4_SLICE_FUNCTION
 318:C:/Users/Utente/Desktop/Tesi/Firmware_Software/DAVE project/S2GLP_Pulsed_Doppler/Libraries/XMCLib/inc\xmc_ccu4.h **** {
 319:C:/Users/Utente/Desktop/Tesi/Firmware_Software/DAVE project/S2GLP_Pulsed_Doppler/Libraries/XMCLib/inc\xmc_ccu4.h ****   XMC_CCU4_SLICE_FUNCTION_START           = 0U, /**< Start function */
 320:C:/Users/Utente/Desktop/Tesi/Firmware_Software/DAVE project/S2GLP_Pulsed_Doppler/Libraries/XMCLib/inc\xmc_ccu4.h ****   XMC_CCU4_SLICE_FUNCTION_STOP                , /**< Stop function */
 321:C:/Users/Utente/Desktop/Tesi/Firmware_Software/DAVE project/S2GLP_Pulsed_Doppler/Libraries/XMCLib/inc\xmc_ccu4.h ****   XMC_CCU4_SLICE_FUNCTION_CAPTURE_EVENT0      , /**< Capture Event-0 function, CCycapt0 signal is u
 322:C:/Users/Utente/Desktop/Tesi/Firmware_Software/DAVE project/S2GLP_Pulsed_Doppler/Libraries/XMCLib/inc\xmc_ccu4.h ****                                                      generation */
 323:C:/Users/Utente/Desktop/Tesi/Firmware_Software/DAVE project/S2GLP_Pulsed_Doppler/Libraries/XMCLib/inc\xmc_ccu4.h ****   XMC_CCU4_SLICE_FUNCTION_CAPTURE_EVENT1      , /**< Capture Event-1 function, CCycapt1 signal is u
 324:C:/Users/Utente/Desktop/Tesi/Firmware_Software/DAVE project/S2GLP_Pulsed_Doppler/Libraries/XMCLib/inc\xmc_ccu4.h ****                                                      generation */
 325:C:/Users/Utente/Desktop/Tesi/Firmware_Software/DAVE project/S2GLP_Pulsed_Doppler/Libraries/XMCLib/inc\xmc_ccu4.h ****   XMC_CCU4_SLICE_FUNCTION_GATING              , /**< Gating function */
 326:C:/Users/Utente/Desktop/Tesi/Firmware_Software/DAVE project/S2GLP_Pulsed_Doppler/Libraries/XMCLib/inc\xmc_ccu4.h ****   XMC_CCU4_SLICE_FUNCTION_DIRECTION           , /**< Direction function */
 327:C:/Users/Utente/Desktop/Tesi/Firmware_Software/DAVE project/S2GLP_Pulsed_Doppler/Libraries/XMCLib/inc\xmc_ccu4.h ****   XMC_CCU4_SLICE_FUNCTION_LOAD                , /**< Load function */
 328:C:/Users/Utente/Desktop/Tesi/Firmware_Software/DAVE project/S2GLP_Pulsed_Doppler/Libraries/XMCLib/inc\xmc_ccu4.h ****   XMC_CCU4_SLICE_FUNCTION_COUNT               , /**< Counting function */
 329:C:/Users/Utente/Desktop/Tesi/Firmware_Software/DAVE project/S2GLP_Pulsed_Doppler/Libraries/XMCLib/inc\xmc_ccu4.h ****   XMC_CCU4_SLICE_FUNCTION_OVERRIDE            , /**< Override function */
 330:C:/Users/Utente/Desktop/Tesi/Firmware_Software/DAVE project/S2GLP_Pulsed_Doppler/Libraries/XMCLib/inc\xmc_ccu4.h ****   XMC_CCU4_SLICE_FUNCTION_MODULATION          , /**< Modulation function */
 331:C:/Users/Utente/Desktop/Tesi/Firmware_Software/DAVE project/S2GLP_Pulsed_Doppler/Libraries/XMCLib/inc\xmc_ccu4.h ****   XMC_CCU4_SLICE_FUNCTION_TRAP                  /**< Trap function */
 332:C:/Users/Utente/Desktop/Tesi/Firmware_Software/DAVE project/S2GLP_Pulsed_Doppler/Libraries/XMCLib/inc\xmc_ccu4.h **** } XMC_CCU4_SLICE_FUNCTION_t;
 333:C:/Users/Utente/Desktop/Tesi/Firmware_Software/DAVE project/S2GLP_Pulsed_Doppler/Libraries/XMCLib/inc\xmc_ccu4.h **** 
 334:C:/Users/Utente/Desktop/Tesi/Firmware_Software/DAVE project/S2GLP_Pulsed_Doppler/Libraries/XMCLib/inc\xmc_ccu4.h **** /**
 335:C:/Users/Utente/Desktop/Tesi/Firmware_Software/DAVE project/S2GLP_Pulsed_Doppler/Libraries/XMCLib/inc\xmc_ccu4.h ****  *  External Event list
 336:C:/Users/Utente/Desktop/Tesi/Firmware_Software/DAVE project/S2GLP_Pulsed_Doppler/Libraries/XMCLib/inc\xmc_ccu4.h ****  */ 
 337:C:/Users/Utente/Desktop/Tesi/Firmware_Software/DAVE project/S2GLP_Pulsed_Doppler/Libraries/XMCLib/inc\xmc_ccu4.h **** typedef enum XMC_CCU4_SLICE_EVENT
 338:C:/Users/Utente/Desktop/Tesi/Firmware_Software/DAVE project/S2GLP_Pulsed_Doppler/Libraries/XMCLib/inc\xmc_ccu4.h **** {
 339:C:/Users/Utente/Desktop/Tesi/Firmware_Software/DAVE project/S2GLP_Pulsed_Doppler/Libraries/XMCLib/inc\xmc_ccu4.h ****   XMC_CCU4_SLICE_EVENT_NONE  = 0U, /**< None */
 340:C:/Users/Utente/Desktop/Tesi/Firmware_Software/DAVE project/S2GLP_Pulsed_Doppler/Libraries/XMCLib/inc\xmc_ccu4.h ****   XMC_CCU4_SLICE_EVENT_0         , /**< Event-0 */
 341:C:/Users/Utente/Desktop/Tesi/Firmware_Software/DAVE project/S2GLP_Pulsed_Doppler/Libraries/XMCLib/inc\xmc_ccu4.h ****   XMC_CCU4_SLICE_EVENT_1         , /**< Event-1 */
 342:C:/Users/Utente/Desktop/Tesi/Firmware_Software/DAVE project/S2GLP_Pulsed_Doppler/Libraries/XMCLib/inc\xmc_ccu4.h ****   XMC_CCU4_SLICE_EVENT_2           /**< Event-2 */
 343:C:/Users/Utente/Desktop/Tesi/Firmware_Software/DAVE project/S2GLP_Pulsed_Doppler/Libraries/XMCLib/inc\xmc_ccu4.h **** } XMC_CCU4_SLICE_EVENT_t;
 344:C:/Users/Utente/Desktop/Tesi/Firmware_Software/DAVE project/S2GLP_Pulsed_Doppler/Libraries/XMCLib/inc\xmc_ccu4.h **** 
 345:C:/Users/Utente/Desktop/Tesi/Firmware_Software/DAVE project/S2GLP_Pulsed_Doppler/Libraries/XMCLib/inc\xmc_ccu4.h **** /**
 346:C:/Users/Utente/Desktop/Tesi/Firmware_Software/DAVE project/S2GLP_Pulsed_Doppler/Libraries/XMCLib/inc\xmc_ccu4.h ****  *  External Event trigger criteria  - Edge sensitivity
 347:C:/Users/Utente/Desktop/Tesi/Firmware_Software/DAVE project/S2GLP_Pulsed_Doppler/Libraries/XMCLib/inc\xmc_ccu4.h ****  */ 
 348:C:/Users/Utente/Desktop/Tesi/Firmware_Software/DAVE project/S2GLP_Pulsed_Doppler/Libraries/XMCLib/inc\xmc_ccu4.h **** typedef enum XMC_CCU4_SLICE_EVENT_EDGE_SENSITIVITY
 349:C:/Users/Utente/Desktop/Tesi/Firmware_Software/DAVE project/S2GLP_Pulsed_Doppler/Libraries/XMCLib/inc\xmc_ccu4.h **** {
 350:C:/Users/Utente/Desktop/Tesi/Firmware_Software/DAVE project/S2GLP_Pulsed_Doppler/Libraries/XMCLib/inc\xmc_ccu4.h ****   XMC_CCU4_SLICE_EVENT_EDGE_SENSITIVITY_NONE         = 0U, /**< None */
 351:C:/Users/Utente/Desktop/Tesi/Firmware_Software/DAVE project/S2GLP_Pulsed_Doppler/Libraries/XMCLib/inc\xmc_ccu4.h ****   XMC_CCU4_SLICE_EVENT_EDGE_SENSITIVITY_RISING_EDGE      , /**< Rising Edge of the input signal gen
 352:C:/Users/Utente/Desktop/Tesi/Firmware_Software/DAVE project/S2GLP_Pulsed_Doppler/Libraries/XMCLib/inc\xmc_ccu4.h ****   XMC_CCU4_SLICE_EVENT_EDGE_SENSITIVITY_FALLING_EDGE     , /**< Falling Edge of the input signal ge
 353:C:/Users/Utente/Desktop/Tesi/Firmware_Software/DAVE project/S2GLP_Pulsed_Doppler/Libraries/XMCLib/inc\xmc_ccu4.h ****                                                                 trigger */
 354:C:/Users/Utente/Desktop/Tesi/Firmware_Software/DAVE project/S2GLP_Pulsed_Doppler/Libraries/XMCLib/inc\xmc_ccu4.h ****   XMC_CCU4_SLICE_EVENT_EDGE_SENSITIVITY_DUAL_EDGE          /**< Both Rising and Falling edges cause
 355:C:/Users/Utente/Desktop/Tesi/Firmware_Software/DAVE project/S2GLP_Pulsed_Doppler/Libraries/XMCLib/inc\xmc_ccu4.h **** } XMC_CCU4_SLICE_EVENT_EDGE_SENSITIVITY_t;
 356:C:/Users/Utente/Desktop/Tesi/Firmware_Software/DAVE project/S2GLP_Pulsed_Doppler/Libraries/XMCLib/inc\xmc_ccu4.h **** 
 357:C:/Users/Utente/Desktop/Tesi/Firmware_Software/DAVE project/S2GLP_Pulsed_Doppler/Libraries/XMCLib/inc\xmc_ccu4.h **** /**
 358:C:/Users/Utente/Desktop/Tesi/Firmware_Software/DAVE project/S2GLP_Pulsed_Doppler/Libraries/XMCLib/inc\xmc_ccu4.h ****  *  External Event trigger criteria  - Level sensitivity
 359:C:/Users/Utente/Desktop/Tesi/Firmware_Software/DAVE project/S2GLP_Pulsed_Doppler/Libraries/XMCLib/inc\xmc_ccu4.h ****  */ 
 360:C:/Users/Utente/Desktop/Tesi/Firmware_Software/DAVE project/S2GLP_Pulsed_Doppler/Libraries/XMCLib/inc\xmc_ccu4.h **** typedef enum XMC_CCU4_SLICE_EVENT_LEVEL_SENSITIVITY
 361:C:/Users/Utente/Desktop/Tesi/Firmware_Software/DAVE project/S2GLP_Pulsed_Doppler/Libraries/XMCLib/inc\xmc_ccu4.h **** {
 362:C:/Users/Utente/Desktop/Tesi/Firmware_Software/DAVE project/S2GLP_Pulsed_Doppler/Libraries/XMCLib/inc\xmc_ccu4.h ****   XMC_CCU4_SLICE_EVENT_LEVEL_SENSITIVITY_ACTIVE_HIGH = 0U, /**< Level sensitive functions react to 
 363:C:/Users/Utente/Desktop/Tesi/Firmware_Software/DAVE project/S2GLP_Pulsed_Doppler/Libraries/XMCLib/inc\xmc_ccu4.h ****   XMC_CCU4_SLICE_EVENT_LEVEL_SENSITIVITY_ACTIVE_LOW  = 1U, /**< Level sensitive functions react to 
 364:C:/Users/Utente/Desktop/Tesi/Firmware_Software/DAVE project/S2GLP_Pulsed_Doppler/Libraries/XMCLib/inc\xmc_ccu4.h ****   /* Below enum items can be utilised specific to the functionality */
 365:C:/Users/Utente/Desktop/Tesi/Firmware_Software/DAVE project/S2GLP_Pulsed_Doppler/Libraries/XMCLib/inc\xmc_ccu4.h ****   XMC_CCU4_SLICE_EVENT_LEVEL_SENSITIVITY_COUNT_UP_ON_LOW = 0U, /**< Timer counts up, during Low sta
 366:C:/Users/Utente/Desktop/Tesi/Firmware_Software/DAVE project/S2GLP_Pulsed_Doppler/Libraries/XMCLib/inc\xmc_ccu4.h ****   XMC_CCU4_SLICE_EVENT_LEVEL_SENSITIVITY_COUNT_UP_ON_HIGH = 1U /**< Timer counts up, during High st
 367:C:/Users/Utente/Desktop/Tesi/Firmware_Software/DAVE project/S2GLP_Pulsed_Doppler/Libraries/XMCLib/inc\xmc_ccu4.h **** } XMC_CCU4_SLICE_EVENT_LEVEL_SENSITIVITY_t;
 368:C:/Users/Utente/Desktop/Tesi/Firmware_Software/DAVE project/S2GLP_Pulsed_Doppler/Libraries/XMCLib/inc\xmc_ccu4.h **** 
 369:C:/Users/Utente/Desktop/Tesi/Firmware_Software/DAVE project/S2GLP_Pulsed_Doppler/Libraries/XMCLib/inc\xmc_ccu4.h **** /**
 370:C:/Users/Utente/Desktop/Tesi/Firmware_Software/DAVE project/S2GLP_Pulsed_Doppler/Libraries/XMCLib/inc\xmc_ccu4.h ****  *  Low pass filter Configuration. The External Event input should be stable for a selected number 
 371:C:/Users/Utente/Desktop/Tesi/Firmware_Software/DAVE project/S2GLP_Pulsed_Doppler/Libraries/XMCLib/inc\xmc_ccu4.h ****  */ 
 372:C:/Users/Utente/Desktop/Tesi/Firmware_Software/DAVE project/S2GLP_Pulsed_Doppler/Libraries/XMCLib/inc\xmc_ccu4.h **** typedef enum XMC_CCU4_SLICE_EVENT_FILTER
 373:C:/Users/Utente/Desktop/Tesi/Firmware_Software/DAVE project/S2GLP_Pulsed_Doppler/Libraries/XMCLib/inc\xmc_ccu4.h **** {
 374:C:/Users/Utente/Desktop/Tesi/Firmware_Software/DAVE project/S2GLP_Pulsed_Doppler/Libraries/XMCLib/inc\xmc_ccu4.h ****   XMC_CCU4_SLICE_EVENT_FILTER_DISABLED  = 0U, /**< No Low Pass Filter */
 375:C:/Users/Utente/Desktop/Tesi/Firmware_Software/DAVE project/S2GLP_Pulsed_Doppler/Libraries/XMCLib/inc\xmc_ccu4.h ****   XMC_CCU4_SLICE_EVENT_FILTER_3_CYCLES      , /**< 3 clock cycles */
 376:C:/Users/Utente/Desktop/Tesi/Firmware_Software/DAVE project/S2GLP_Pulsed_Doppler/Libraries/XMCLib/inc\xmc_ccu4.h ****   XMC_CCU4_SLICE_EVENT_FILTER_5_CYCLES      , /**< 5 clock cycles */
 377:C:/Users/Utente/Desktop/Tesi/Firmware_Software/DAVE project/S2GLP_Pulsed_Doppler/Libraries/XMCLib/inc\xmc_ccu4.h ****   XMC_CCU4_SLICE_EVENT_FILTER_7_CYCLES        /**< 7 clock cycles */
 378:C:/Users/Utente/Desktop/Tesi/Firmware_Software/DAVE project/S2GLP_Pulsed_Doppler/Libraries/XMCLib/inc\xmc_ccu4.h **** } XMC_CCU4_SLICE_EVENT_FILTER_t;
 379:C:/Users/Utente/Desktop/Tesi/Firmware_Software/DAVE project/S2GLP_Pulsed_Doppler/Libraries/XMCLib/inc\xmc_ccu4.h **** 
 380:C:/Users/Utente/Desktop/Tesi/Firmware_Software/DAVE project/S2GLP_Pulsed_Doppler/Libraries/XMCLib/inc\xmc_ccu4.h **** /**
 381:C:/Users/Utente/Desktop/Tesi/Firmware_Software/DAVE project/S2GLP_Pulsed_Doppler/Libraries/XMCLib/inc\xmc_ccu4.h ****  *  External Event Input list. This list depicts the possible input connections to the CCU4 slice.
 382:C:/Users/Utente/Desktop/Tesi/Firmware_Software/DAVE project/S2GLP_Pulsed_Doppler/Libraries/XMCLib/inc\xmc_ccu4.h ****  *  Interconnects are specific to each device.
 383:C:/Users/Utente/Desktop/Tesi/Firmware_Software/DAVE project/S2GLP_Pulsed_Doppler/Libraries/XMCLib/inc\xmc_ccu4.h ****  */ 
 384:C:/Users/Utente/Desktop/Tesi/Firmware_Software/DAVE project/S2GLP_Pulsed_Doppler/Libraries/XMCLib/inc\xmc_ccu4.h **** typedef uint8_t XMC_CCU4_SLICE_INPUT_t;
 385:C:/Users/Utente/Desktop/Tesi/Firmware_Software/DAVE project/S2GLP_Pulsed_Doppler/Libraries/XMCLib/inc\xmc_ccu4.h **** 
 386:C:/Users/Utente/Desktop/Tesi/Firmware_Software/DAVE project/S2GLP_Pulsed_Doppler/Libraries/XMCLib/inc\xmc_ccu4.h **** /**
 387:C:/Users/Utente/Desktop/Tesi/Firmware_Software/DAVE project/S2GLP_Pulsed_Doppler/Libraries/XMCLib/inc\xmc_ccu4.h ****  * Actions that can be performed upon detection of an external Timer STOP event
 388:C:/Users/Utente/Desktop/Tesi/Firmware_Software/DAVE project/S2GLP_Pulsed_Doppler/Libraries/XMCLib/inc\xmc_ccu4.h ****  */ 
 389:C:/Users/Utente/Desktop/Tesi/Firmware_Software/DAVE project/S2GLP_Pulsed_Doppler/Libraries/XMCLib/inc\xmc_ccu4.h **** typedef enum XMC_CCU4_SLICE_END_MODE
 390:C:/Users/Utente/Desktop/Tesi/Firmware_Software/DAVE project/S2GLP_Pulsed_Doppler/Libraries/XMCLib/inc\xmc_ccu4.h **** {
 391:C:/Users/Utente/Desktop/Tesi/Firmware_Software/DAVE project/S2GLP_Pulsed_Doppler/Libraries/XMCLib/inc\xmc_ccu4.h ****   XMC_CCU4_SLICE_END_MODE_TIMER_STOP       = 0U, /**< Stops the timer, without clearing TIMER regis
 392:C:/Users/Utente/Desktop/Tesi/Firmware_Software/DAVE project/S2GLP_Pulsed_Doppler/Libraries/XMCLib/inc\xmc_ccu4.h ****   XMC_CCU4_SLICE_END_MODE_TIMER_CLEAR          , /**< Without stopping timer, clears the TIMER regi
 393:C:/Users/Utente/Desktop/Tesi/Firmware_Software/DAVE project/S2GLP_Pulsed_Doppler/Libraries/XMCLib/inc\xmc_ccu4.h ****   XMC_CCU4_SLICE_END_MODE_TIMER_STOP_CLEAR       /**< Stops the timer and clears the TIMER register
 394:C:/Users/Utente/Desktop/Tesi/Firmware_Software/DAVE project/S2GLP_Pulsed_Doppler/Libraries/XMCLib/inc\xmc_ccu4.h **** } XMC_CCU4_SLICE_END_MODE_t;
 395:C:/Users/Utente/Desktop/Tesi/Firmware_Software/DAVE project/S2GLP_Pulsed_Doppler/Libraries/XMCLib/inc\xmc_ccu4.h **** 
 396:C:/Users/Utente/Desktop/Tesi/Firmware_Software/DAVE project/S2GLP_Pulsed_Doppler/Libraries/XMCLib/inc\xmc_ccu4.h **** /**
 397:C:/Users/Utente/Desktop/Tesi/Firmware_Software/DAVE project/S2GLP_Pulsed_Doppler/Libraries/XMCLib/inc\xmc_ccu4.h ****  *  Actions that can be performed upon detection of an external Timer START event
 398:C:/Users/Utente/Desktop/Tesi/Firmware_Software/DAVE project/S2GLP_Pulsed_Doppler/Libraries/XMCLib/inc\xmc_ccu4.h ****  */ 
 399:C:/Users/Utente/Desktop/Tesi/Firmware_Software/DAVE project/S2GLP_Pulsed_Doppler/Libraries/XMCLib/inc\xmc_ccu4.h **** typedef enum XMC_CCU4_SLICE_START_MODE
 400:C:/Users/Utente/Desktop/Tesi/Firmware_Software/DAVE project/S2GLP_Pulsed_Doppler/Libraries/XMCLib/inc\xmc_ccu4.h **** {
 401:C:/Users/Utente/Desktop/Tesi/Firmware_Software/DAVE project/S2GLP_Pulsed_Doppler/Libraries/XMCLib/inc\xmc_ccu4.h ****   XMC_CCU4_SLICE_START_MODE_TIMER_START       = 0U, /**< Start the timer from the current count of 
 402:C:/Users/Utente/Desktop/Tesi/Firmware_Software/DAVE project/S2GLP_Pulsed_Doppler/Libraries/XMCLib/inc\xmc_ccu4.h ****   XMC_CCU4_SLICE_START_MODE_TIMER_START_CLEAR       /**< Clears the TIMER register and start the ti
 403:C:/Users/Utente/Desktop/Tesi/Firmware_Software/DAVE project/S2GLP_Pulsed_Doppler/Libraries/XMCLib/inc\xmc_ccu4.h **** } XMC_CCU4_SLICE_START_MODE_t;
 404:C:/Users/Utente/Desktop/Tesi/Firmware_Software/DAVE project/S2GLP_Pulsed_Doppler/Libraries/XMCLib/inc\xmc_ccu4.h **** 
 405:C:/Users/Utente/Desktop/Tesi/Firmware_Software/DAVE project/S2GLP_Pulsed_Doppler/Libraries/XMCLib/inc\xmc_ccu4.h **** /**
 406:C:/Users/Utente/Desktop/Tesi/Firmware_Software/DAVE project/S2GLP_Pulsed_Doppler/Libraries/XMCLib/inc\xmc_ccu4.h ****  *  Modulation of timer output signals
 407:C:/Users/Utente/Desktop/Tesi/Firmware_Software/DAVE project/S2GLP_Pulsed_Doppler/Libraries/XMCLib/inc\xmc_ccu4.h ****  */ 
 408:C:/Users/Utente/Desktop/Tesi/Firmware_Software/DAVE project/S2GLP_Pulsed_Doppler/Libraries/XMCLib/inc\xmc_ccu4.h **** typedef enum XMC_CCU4_SLICE_MODULATION_MODE
 409:C:/Users/Utente/Desktop/Tesi/Firmware_Software/DAVE project/S2GLP_Pulsed_Doppler/Libraries/XMCLib/inc\xmc_ccu4.h **** {
 410:C:/Users/Utente/Desktop/Tesi/Firmware_Software/DAVE project/S2GLP_Pulsed_Doppler/Libraries/XMCLib/inc\xmc_ccu4.h ****   XMC_CCU4_SLICE_MODULATION_MODE_CLEAR_ST_OUT  = 0U, /**< Clear ST and OUT signals */
 411:C:/Users/Utente/Desktop/Tesi/Firmware_Software/DAVE project/S2GLP_Pulsed_Doppler/Libraries/XMCLib/inc\xmc_ccu4.h ****   XMC_CCU4_SLICE_MODULATION_MODE_CLEAR_OUT           /**< Clear only the OUT signal */
 412:C:/Users/Utente/Desktop/Tesi/Firmware_Software/DAVE project/S2GLP_Pulsed_Doppler/Libraries/XMCLib/inc\xmc_ccu4.h **** } XMC_CCU4_SLICE_MODULATION_MODE_t;
 413:C:/Users/Utente/Desktop/Tesi/Firmware_Software/DAVE project/S2GLP_Pulsed_Doppler/Libraries/XMCLib/inc\xmc_ccu4.h **** 
 414:C:/Users/Utente/Desktop/Tesi/Firmware_Software/DAVE project/S2GLP_Pulsed_Doppler/Libraries/XMCLib/inc\xmc_ccu4.h **** /**
 415:C:/Users/Utente/Desktop/Tesi/Firmware_Software/DAVE project/S2GLP_Pulsed_Doppler/Libraries/XMCLib/inc\xmc_ccu4.h ****  *  Trap exit mode
 416:C:/Users/Utente/Desktop/Tesi/Firmware_Software/DAVE project/S2GLP_Pulsed_Doppler/Libraries/XMCLib/inc\xmc_ccu4.h ****  */ 
 417:C:/Users/Utente/Desktop/Tesi/Firmware_Software/DAVE project/S2GLP_Pulsed_Doppler/Libraries/XMCLib/inc\xmc_ccu4.h **** typedef enum XMC_CCU4_SLICE_TRAP_EXIT_MODE
 418:C:/Users/Utente/Desktop/Tesi/Firmware_Software/DAVE project/S2GLP_Pulsed_Doppler/Libraries/XMCLib/inc\xmc_ccu4.h **** {
 419:C:/Users/Utente/Desktop/Tesi/Firmware_Software/DAVE project/S2GLP_Pulsed_Doppler/Libraries/XMCLib/inc\xmc_ccu4.h ****   XMC_CCU4_SLICE_TRAP_EXIT_MODE_AUTOMATIC = 0U, /**< Clear trap state as soon as the trap signal is
 420:C:/Users/Utente/Desktop/Tesi/Firmware_Software/DAVE project/S2GLP_Pulsed_Doppler/Libraries/XMCLib/inc\xmc_ccu4.h ****   XMC_CCU4_SLICE_TRAP_EXIT_MODE_SW              /**< Clear only when acknowledged by software */
 421:C:/Users/Utente/Desktop/Tesi/Firmware_Software/DAVE project/S2GLP_Pulsed_Doppler/Libraries/XMCLib/inc\xmc_ccu4.h **** } XMC_CCU4_SLICE_TRAP_EXIT_MODE_t;
 422:C:/Users/Utente/Desktop/Tesi/Firmware_Software/DAVE project/S2GLP_Pulsed_Doppler/Libraries/XMCLib/inc\xmc_ccu4.h **** 
 423:C:/Users/Utente/Desktop/Tesi/Firmware_Software/DAVE project/S2GLP_Pulsed_Doppler/Libraries/XMCLib/inc\xmc_ccu4.h **** /**
 424:C:/Users/Utente/Desktop/Tesi/Firmware_Software/DAVE project/S2GLP_Pulsed_Doppler/Libraries/XMCLib/inc\xmc_ccu4.h ****  *  Timer clear on capture
 425:C:/Users/Utente/Desktop/Tesi/Firmware_Software/DAVE project/S2GLP_Pulsed_Doppler/Libraries/XMCLib/inc\xmc_ccu4.h ****  */ 
 426:C:/Users/Utente/Desktop/Tesi/Firmware_Software/DAVE project/S2GLP_Pulsed_Doppler/Libraries/XMCLib/inc\xmc_ccu4.h **** typedef enum XMC_CCU4_SLICE_TIMER_CLEAR_MODE
 427:C:/Users/Utente/Desktop/Tesi/Firmware_Software/DAVE project/S2GLP_Pulsed_Doppler/Libraries/XMCLib/inc\xmc_ccu4.h **** {
 428:C:/Users/Utente/Desktop/Tesi/Firmware_Software/DAVE project/S2GLP_Pulsed_Doppler/Libraries/XMCLib/inc\xmc_ccu4.h ****   XMC_CCU4_SLICE_TIMER_CLEAR_MODE_NEVER    = 0U, /**< Never clear the timer on any capture event */
 429:C:/Users/Utente/Desktop/Tesi/Firmware_Software/DAVE project/S2GLP_Pulsed_Doppler/Libraries/XMCLib/inc\xmc_ccu4.h ****   XMC_CCU4_SLICE_TIMER_CLEAR_MODE_CAP_HIGH     , /**< Clear only when timer value has been captured
 430:C:/Users/Utente/Desktop/Tesi/Firmware_Software/DAVE project/S2GLP_Pulsed_Doppler/Libraries/XMCLib/inc\xmc_ccu4.h ****   XMC_CCU4_SLICE_TIMER_CLEAR_MODE_CAP_LOW      , /**< Clear only when timer value has been captured
 431:C:/Users/Utente/Desktop/Tesi/Firmware_Software/DAVE project/S2GLP_Pulsed_Doppler/Libraries/XMCLib/inc\xmc_ccu4.h ****   XMC_CCU4_SLICE_TIMER_CLEAR_MODE_ALWAYS         /**< Always clear the timer upon detection of any 
 432:C:/Users/Utente/Desktop/Tesi/Firmware_Software/DAVE project/S2GLP_Pulsed_Doppler/Libraries/XMCLib/inc\xmc_ccu4.h **** } XMC_CCU4_SLICE_TIMER_CLEAR_MODE_t;
 433:C:/Users/Utente/Desktop/Tesi/Firmware_Software/DAVE project/S2GLP_Pulsed_Doppler/Libraries/XMCLib/inc\xmc_ccu4.h **** 
 434:C:/Users/Utente/Desktop/Tesi/Firmware_Software/DAVE project/S2GLP_Pulsed_Doppler/Libraries/XMCLib/inc\xmc_ccu4.h **** /**
 435:C:/Users/Utente/Desktop/Tesi/Firmware_Software/DAVE project/S2GLP_Pulsed_Doppler/Libraries/XMCLib/inc\xmc_ccu4.h ****  *  Multi Channel Shadow transfer request configuration options
 436:C:/Users/Utente/Desktop/Tesi/Firmware_Software/DAVE project/S2GLP_Pulsed_Doppler/Libraries/XMCLib/inc\xmc_ccu4.h ****  */ 
 437:C:/Users/Utente/Desktop/Tesi/Firmware_Software/DAVE project/S2GLP_Pulsed_Doppler/Libraries/XMCLib/inc\xmc_ccu4.h **** typedef enum XMC_CCU4_SLICE_MCMS_ACTION
 438:C:/Users/Utente/Desktop/Tesi/Firmware_Software/DAVE project/S2GLP_Pulsed_Doppler/Libraries/XMCLib/inc\xmc_ccu4.h **** {
 439:C:/Users/Utente/Desktop/Tesi/Firmware_Software/DAVE project/S2GLP_Pulsed_Doppler/Libraries/XMCLib/inc\xmc_ccu4.h ****   XMC_CCU4_SLICE_MCMS_ACTION_TRANSFER_PR_CR          = 0U, /**< Transfer Compare and Period Shadow 
 440:C:/Users/Utente/Desktop/Tesi/Firmware_Software/DAVE project/S2GLP_Pulsed_Doppler/Libraries/XMCLib/inc\xmc_ccu4.h ****                                                                 the actual registers upon MCS xfer 
 441:C:/Users/Utente/Desktop/Tesi/Firmware_Software/DAVE project/S2GLP_Pulsed_Doppler/Libraries/XMCLib/inc\xmc_ccu4.h ****   XMC_CCU4_SLICE_MCMS_ACTION_TRANSFER_PR_CR_PCMP     = 1U, /**< Transfer Compare, Period and Presca
 442:C:/Users/Utente/Desktop/Tesi/Firmware_Software/DAVE project/S2GLP_Pulsed_Doppler/Libraries/XMCLib/inc\xmc_ccu4.h ****                                                                 register values to the actual regis
 443:C:/Users/Utente/Desktop/Tesi/Firmware_Software/DAVE project/S2GLP_Pulsed_Doppler/Libraries/XMCLib/inc\xmc_ccu4.h ****                                                                 request */
 444:C:/Users/Utente/Desktop/Tesi/Firmware_Software/DAVE project/S2GLP_Pulsed_Doppler/Libraries/XMCLib/inc\xmc_ccu4.h ****   XMC_CCU4_SLICE_MCMS_ACTION_TRANSFER_PR_CR_PCMP_DIT = 3U  /**< Transfer Compare, Period ,Prescaler
 445:C:/Users/Utente/Desktop/Tesi/Firmware_Software/DAVE project/S2GLP_Pulsed_Doppler/Libraries/XMCLib/inc\xmc_ccu4.h ****                                                                 Compare register values to the actu
 446:C:/Users/Utente/Desktop/Tesi/Firmware_Software/DAVE project/S2GLP_Pulsed_Doppler/Libraries/XMCLib/inc\xmc_ccu4.h ****                                                                 MCS xfer request */
 447:C:/Users/Utente/Desktop/Tesi/Firmware_Software/DAVE project/S2GLP_Pulsed_Doppler/Libraries/XMCLib/inc\xmc_ccu4.h **** } XMC_CCU4_SLICE_MCMS_ACTION_t;
 448:C:/Users/Utente/Desktop/Tesi/Firmware_Software/DAVE project/S2GLP_Pulsed_Doppler/Libraries/XMCLib/inc\xmc_ccu4.h **** 
 449:C:/Users/Utente/Desktop/Tesi/Firmware_Software/DAVE project/S2GLP_Pulsed_Doppler/Libraries/XMCLib/inc\xmc_ccu4.h **** /**
 450:C:/Users/Utente/Desktop/Tesi/Firmware_Software/DAVE project/S2GLP_Pulsed_Doppler/Libraries/XMCLib/inc\xmc_ccu4.h ****  * Available Interrupt Event Ids
 451:C:/Users/Utente/Desktop/Tesi/Firmware_Software/DAVE project/S2GLP_Pulsed_Doppler/Libraries/XMCLib/inc\xmc_ccu4.h ****  */ 
 452:C:/Users/Utente/Desktop/Tesi/Firmware_Software/DAVE project/S2GLP_Pulsed_Doppler/Libraries/XMCLib/inc\xmc_ccu4.h **** typedef enum XMC_CCU4_SLICE_IRQ_ID
 453:C:/Users/Utente/Desktop/Tesi/Firmware_Software/DAVE project/S2GLP_Pulsed_Doppler/Libraries/XMCLib/inc\xmc_ccu4.h **** {
 454:C:/Users/Utente/Desktop/Tesi/Firmware_Software/DAVE project/S2GLP_Pulsed_Doppler/Libraries/XMCLib/inc\xmc_ccu4.h ****   XMC_CCU4_SLICE_IRQ_ID_PERIOD_MATCH       = 0U , /**< Period match counting up */
 455:C:/Users/Utente/Desktop/Tesi/Firmware_Software/DAVE project/S2GLP_Pulsed_Doppler/Libraries/XMCLib/inc\xmc_ccu4.h ****   XMC_CCU4_SLICE_IRQ_ID_ONE_MATCH          = 1U , /**< Period match -> One match counting down */
 456:C:/Users/Utente/Desktop/Tesi/Firmware_Software/DAVE project/S2GLP_Pulsed_Doppler/Libraries/XMCLib/inc\xmc_ccu4.h ****   XMC_CCU4_SLICE_IRQ_ID_COMPARE_MATCH_UP   = 2U , /**< Compare match counting up */
 457:C:/Users/Utente/Desktop/Tesi/Firmware_Software/DAVE project/S2GLP_Pulsed_Doppler/Libraries/XMCLib/inc\xmc_ccu4.h ****   XMC_CCU4_SLICE_IRQ_ID_COMPARE_MATCH_DOWN = 3U , /**< Compare match counting down */
 458:C:/Users/Utente/Desktop/Tesi/Firmware_Software/DAVE project/S2GLP_Pulsed_Doppler/Libraries/XMCLib/inc\xmc_ccu4.h ****   XMC_CCU4_SLICE_IRQ_ID_EVENT0             = 8U , /**< Event-0 occurrence */
 459:C:/Users/Utente/Desktop/Tesi/Firmware_Software/DAVE project/S2GLP_Pulsed_Doppler/Libraries/XMCLib/inc\xmc_ccu4.h ****   XMC_CCU4_SLICE_IRQ_ID_EVENT1             = 9U , /**< Event-1 occurrence */
 460:C:/Users/Utente/Desktop/Tesi/Firmware_Software/DAVE project/S2GLP_Pulsed_Doppler/Libraries/XMCLib/inc\xmc_ccu4.h ****   XMC_CCU4_SLICE_IRQ_ID_EVENT2             = 10U, /**< Event-2 occurrence */
 461:C:/Users/Utente/Desktop/Tesi/Firmware_Software/DAVE project/S2GLP_Pulsed_Doppler/Libraries/XMCLib/inc\xmc_ccu4.h ****   XMC_CCU4_SLICE_IRQ_ID_TRAP               = 11U  /**< Trap occurrence */
 462:C:/Users/Utente/Desktop/Tesi/Firmware_Software/DAVE project/S2GLP_Pulsed_Doppler/Libraries/XMCLib/inc\xmc_ccu4.h **** } XMC_CCU4_SLICE_IRQ_ID_t;
 463:C:/Users/Utente/Desktop/Tesi/Firmware_Software/DAVE project/S2GLP_Pulsed_Doppler/Libraries/XMCLib/inc\xmc_ccu4.h **** 
 464:C:/Users/Utente/Desktop/Tesi/Firmware_Software/DAVE project/S2GLP_Pulsed_Doppler/Libraries/XMCLib/inc\xmc_ccu4.h **** /**
 465:C:/Users/Utente/Desktop/Tesi/Firmware_Software/DAVE project/S2GLP_Pulsed_Doppler/Libraries/XMCLib/inc\xmc_ccu4.h ****  * Available Interrupt Event Ids, which is added to support multi event APIs
 466:C:/Users/Utente/Desktop/Tesi/Firmware_Software/DAVE project/S2GLP_Pulsed_Doppler/Libraries/XMCLib/inc\xmc_ccu4.h ****  */
 467:C:/Users/Utente/Desktop/Tesi/Firmware_Software/DAVE project/S2GLP_Pulsed_Doppler/Libraries/XMCLib/inc\xmc_ccu4.h **** typedef enum XMC_CCU4_SLICE_MULTI_IRQ_ID
 468:C:/Users/Utente/Desktop/Tesi/Firmware_Software/DAVE project/S2GLP_Pulsed_Doppler/Libraries/XMCLib/inc\xmc_ccu4.h **** {
 469:C:/Users/Utente/Desktop/Tesi/Firmware_Software/DAVE project/S2GLP_Pulsed_Doppler/Libraries/XMCLib/inc\xmc_ccu4.h ****   XMC_CCU4_SLICE_MULTI_IRQ_ID_PERIOD_MATCH       = 0x1U,   /**< Period match counting up */
 470:C:/Users/Utente/Desktop/Tesi/Firmware_Software/DAVE project/S2GLP_Pulsed_Doppler/Libraries/XMCLib/inc\xmc_ccu4.h ****   XMC_CCU4_SLICE_MULTI_IRQ_ID_ONE_MATCH          = 0x2U,   /**< Period match -> One match counting 
 471:C:/Users/Utente/Desktop/Tesi/Firmware_Software/DAVE project/S2GLP_Pulsed_Doppler/Libraries/XMCLib/inc\xmc_ccu4.h ****   XMC_CCU4_SLICE_MULTI_IRQ_ID_COMPARE_MATCH_UP   = 0x4U,   /**< Compare match counting up */
 472:C:/Users/Utente/Desktop/Tesi/Firmware_Software/DAVE project/S2GLP_Pulsed_Doppler/Libraries/XMCLib/inc\xmc_ccu4.h ****   XMC_CCU4_SLICE_MULTI_IRQ_ID_COMPARE_MATCH_DOWN = 0x8U,   /**< Compare match counting down */
 473:C:/Users/Utente/Desktop/Tesi/Firmware_Software/DAVE project/S2GLP_Pulsed_Doppler/Libraries/XMCLib/inc\xmc_ccu4.h ****   XMC_CCU4_SLICE_MULTI_IRQ_ID_EVENT0             = 0x100U, /**< Event-0 occurrence */
 474:C:/Users/Utente/Desktop/Tesi/Firmware_Software/DAVE project/S2GLP_Pulsed_Doppler/Libraries/XMCLib/inc\xmc_ccu4.h ****   XMC_CCU4_SLICE_MULTI_IRQ_ID_EVENT1             = 0x200U, /**< Event-1 occurrence */
 475:C:/Users/Utente/Desktop/Tesi/Firmware_Software/DAVE project/S2GLP_Pulsed_Doppler/Libraries/XMCLib/inc\xmc_ccu4.h ****   XMC_CCU4_SLICE_MULTI_IRQ_ID_EVENT2             = 0x400U, /**< Event-2 occurrence */
 476:C:/Users/Utente/Desktop/Tesi/Firmware_Software/DAVE project/S2GLP_Pulsed_Doppler/Libraries/XMCLib/inc\xmc_ccu4.h **** } XMC_CCU4_SLICE_MULTI_IRQ_ID_t;
 477:C:/Users/Utente/Desktop/Tesi/Firmware_Software/DAVE project/S2GLP_Pulsed_Doppler/Libraries/XMCLib/inc\xmc_ccu4.h **** 
 478:C:/Users/Utente/Desktop/Tesi/Firmware_Software/DAVE project/S2GLP_Pulsed_Doppler/Libraries/XMCLib/inc\xmc_ccu4.h **** /**
 479:C:/Users/Utente/Desktop/Tesi/Firmware_Software/DAVE project/S2GLP_Pulsed_Doppler/Libraries/XMCLib/inc\xmc_ccu4.h ****  * Service Request Lines for CCU4. Event are mapped to these SR lines and these are used to generat
 480:C:/Users/Utente/Desktop/Tesi/Firmware_Software/DAVE project/S2GLP_Pulsed_Doppler/Libraries/XMCLib/inc\xmc_ccu4.h ****  */ 
 481:C:/Users/Utente/Desktop/Tesi/Firmware_Software/DAVE project/S2GLP_Pulsed_Doppler/Libraries/XMCLib/inc\xmc_ccu4.h **** typedef enum XMC_CCU4_SLICE_SR_ID
 482:C:/Users/Utente/Desktop/Tesi/Firmware_Software/DAVE project/S2GLP_Pulsed_Doppler/Libraries/XMCLib/inc\xmc_ccu4.h **** {
 483:C:/Users/Utente/Desktop/Tesi/Firmware_Software/DAVE project/S2GLP_Pulsed_Doppler/Libraries/XMCLib/inc\xmc_ccu4.h ****   XMC_CCU4_SLICE_SR_ID_0    = 0U, /**< Service Request Line-0 selected  */
 484:C:/Users/Utente/Desktop/Tesi/Firmware_Software/DAVE project/S2GLP_Pulsed_Doppler/Libraries/XMCLib/inc\xmc_ccu4.h ****   XMC_CCU4_SLICE_SR_ID_1        , /**< Service Request Line-1 selected  */
 485:C:/Users/Utente/Desktop/Tesi/Firmware_Software/DAVE project/S2GLP_Pulsed_Doppler/Libraries/XMCLib/inc\xmc_ccu4.h ****   XMC_CCU4_SLICE_SR_ID_2        , /**< Service Request Line-2 selected  */
 486:C:/Users/Utente/Desktop/Tesi/Firmware_Software/DAVE project/S2GLP_Pulsed_Doppler/Libraries/XMCLib/inc\xmc_ccu4.h ****   XMC_CCU4_SLICE_SR_ID_3          /**< Service Request Line-3 selected  */
 487:C:/Users/Utente/Desktop/Tesi/Firmware_Software/DAVE project/S2GLP_Pulsed_Doppler/Libraries/XMCLib/inc\xmc_ccu4.h **** } XMC_CCU4_SLICE_SR_ID_t;
 488:C:/Users/Utente/Desktop/Tesi/Firmware_Software/DAVE project/S2GLP_Pulsed_Doppler/Libraries/XMCLib/inc\xmc_ccu4.h **** 
 489:C:/Users/Utente/Desktop/Tesi/Firmware_Software/DAVE project/S2GLP_Pulsed_Doppler/Libraries/XMCLib/inc\xmc_ccu4.h **** /**
 490:C:/Users/Utente/Desktop/Tesi/Firmware_Software/DAVE project/S2GLP_Pulsed_Doppler/Libraries/XMCLib/inc\xmc_ccu4.h ****  *  Slice shadow transfer options.
 491:C:/Users/Utente/Desktop/Tesi/Firmware_Software/DAVE project/S2GLP_Pulsed_Doppler/Libraries/XMCLib/inc\xmc_ccu4.h ****  */
 492:C:/Users/Utente/Desktop/Tesi/Firmware_Software/DAVE project/S2GLP_Pulsed_Doppler/Libraries/XMCLib/inc\xmc_ccu4.h **** typedef enum XMC_CCU4_SHADOW_TRANSFER
 493:C:/Users/Utente/Desktop/Tesi/Firmware_Software/DAVE project/S2GLP_Pulsed_Doppler/Libraries/XMCLib/inc\xmc_ccu4.h **** {
 494:C:/Users/Utente/Desktop/Tesi/Firmware_Software/DAVE project/S2GLP_Pulsed_Doppler/Libraries/XMCLib/inc\xmc_ccu4.h ****   XMC_CCU4_SHADOW_TRANSFER_SLICE_0            = CCU4_GCSS_S0SE_Msk, /**< Transfer Period, Compare a
 495:C:/Users/Utente/Desktop/Tesi/Firmware_Software/DAVE project/S2GLP_Pulsed_Doppler/Libraries/XMCLib/inc\xmc_ccu4.h ****                                                                           shadow register values to
 496:C:/Users/Utente/Desktop/Tesi/Firmware_Software/DAVE project/S2GLP_Pulsed_Doppler/Libraries/XMCLib/inc\xmc_ccu4.h ****                                                                           SLICE-0 */
 497:C:/Users/Utente/Desktop/Tesi/Firmware_Software/DAVE project/S2GLP_Pulsed_Doppler/Libraries/XMCLib/inc\xmc_ccu4.h ****   XMC_CCU4_SHADOW_TRANSFER_DITHER_SLICE_0     = CCU4_GCSS_S0DSE_Msk, /**< Transfer Dither compare s
 498:C:/Users/Utente/Desktop/Tesi/Firmware_Software/DAVE project/S2GLP_Pulsed_Doppler/Libraries/XMCLib/inc\xmc_ccu4.h ****                                                                           to actual register for SL
 499:C:/Users/Utente/Desktop/Tesi/Firmware_Software/DAVE project/S2GLP_Pulsed_Doppler/Libraries/XMCLib/inc\xmc_ccu4.h ****   XMC_CCU4_SHADOW_TRANSFER_PRESCALER_SLICE_0  = CCU4_GCSS_S0PSE_Msk, /**< Transfer Prescaler shadow
 500:C:/Users/Utente/Desktop/Tesi/Firmware_Software/DAVE project/S2GLP_Pulsed_Doppler/Libraries/XMCLib/inc\xmc_ccu4.h ****                                                                           actual register for SLICE
 501:C:/Users/Utente/Desktop/Tesi/Firmware_Software/DAVE project/S2GLP_Pulsed_Doppler/Libraries/XMCLib/inc\xmc_ccu4.h ****   XMC_CCU4_SHADOW_TRANSFER_SLICE_1            = CCU4_GCSS_S1SE_Msk, /**< Transfer Period, Compare a
 502:C:/Users/Utente/Desktop/Tesi/Firmware_Software/DAVE project/S2GLP_Pulsed_Doppler/Libraries/XMCLib/inc\xmc_ccu4.h ****                                                                           shadow register values to
 503:C:/Users/Utente/Desktop/Tesi/Firmware_Software/DAVE project/S2GLP_Pulsed_Doppler/Libraries/XMCLib/inc\xmc_ccu4.h ****                                                                           SLICE-1 */
 504:C:/Users/Utente/Desktop/Tesi/Firmware_Software/DAVE project/S2GLP_Pulsed_Doppler/Libraries/XMCLib/inc\xmc_ccu4.h ****   XMC_CCU4_SHADOW_TRANSFER_DITHER_SLICE_1     = CCU4_GCSS_S1DSE_Msk, /**< Transfer Dither compare s
 505:C:/Users/Utente/Desktop/Tesi/Firmware_Software/DAVE project/S2GLP_Pulsed_Doppler/Libraries/XMCLib/inc\xmc_ccu4.h ****                                                                           to actual registers for S
 506:C:/Users/Utente/Desktop/Tesi/Firmware_Software/DAVE project/S2GLP_Pulsed_Doppler/Libraries/XMCLib/inc\xmc_ccu4.h ****   XMC_CCU4_SHADOW_TRANSFER_PRESCALER_SLICE_1  = CCU4_GCSS_S1PSE_Msk, /**< Transfer Prescaler shadow
 507:C:/Users/Utente/Desktop/Tesi/Firmware_Software/DAVE project/S2GLP_Pulsed_Doppler/Libraries/XMCLib/inc\xmc_ccu4.h ****                                                                           actual register for SLICE
 508:C:/Users/Utente/Desktop/Tesi/Firmware_Software/DAVE project/S2GLP_Pulsed_Doppler/Libraries/XMCLib/inc\xmc_ccu4.h ****   XMC_CCU4_SHADOW_TRANSFER_SLICE_2            = CCU4_GCSS_S2SE_Msk, /**< Transfer Period, Compare a
 509:C:/Users/Utente/Desktop/Tesi/Firmware_Software/DAVE project/S2GLP_Pulsed_Doppler/Libraries/XMCLib/inc\xmc_ccu4.h ****                                                                           shadow register values to
 510:C:/Users/Utente/Desktop/Tesi/Firmware_Software/DAVE project/S2GLP_Pulsed_Doppler/Libraries/XMCLib/inc\xmc_ccu4.h ****                                                                           SLICE-2 */
 511:C:/Users/Utente/Desktop/Tesi/Firmware_Software/DAVE project/S2GLP_Pulsed_Doppler/Libraries/XMCLib/inc\xmc_ccu4.h ****   XMC_CCU4_SHADOW_TRANSFER_DITHER_SLICE_2     = CCU4_GCSS_S2DSE_Msk, /**< Transfer Dither compare s
 512:C:/Users/Utente/Desktop/Tesi/Firmware_Software/DAVE project/S2GLP_Pulsed_Doppler/Libraries/XMCLib/inc\xmc_ccu4.h ****                                                                           to actual register for SL
 513:C:/Users/Utente/Desktop/Tesi/Firmware_Software/DAVE project/S2GLP_Pulsed_Doppler/Libraries/XMCLib/inc\xmc_ccu4.h ****   XMC_CCU4_SHADOW_TRANSFER_PRESCALER_SLICE_2  = CCU4_GCSS_S2PSE_Msk, /**< Transfer Prescaler shadow
 514:C:/Users/Utente/Desktop/Tesi/Firmware_Software/DAVE project/S2GLP_Pulsed_Doppler/Libraries/XMCLib/inc\xmc_ccu4.h ****                                                                           actual register for SLICE
 515:C:/Users/Utente/Desktop/Tesi/Firmware_Software/DAVE project/S2GLP_Pulsed_Doppler/Libraries/XMCLib/inc\xmc_ccu4.h ****   XMC_CCU4_SHADOW_TRANSFER_SLICE_3            = CCU4_GCSS_S3SE_Msk, /**< Transfer Period, Compare a
 516:C:/Users/Utente/Desktop/Tesi/Firmware_Software/DAVE project/S2GLP_Pulsed_Doppler/Libraries/XMCLib/inc\xmc_ccu4.h ****                                                                           shadow register values to
 517:C:/Users/Utente/Desktop/Tesi/Firmware_Software/DAVE project/S2GLP_Pulsed_Doppler/Libraries/XMCLib/inc\xmc_ccu4.h ****                                                                           SLICE-3 */
 518:C:/Users/Utente/Desktop/Tesi/Firmware_Software/DAVE project/S2GLP_Pulsed_Doppler/Libraries/XMCLib/inc\xmc_ccu4.h ****   XMC_CCU4_SHADOW_TRANSFER_DITHER_SLICE_3     = CCU4_GCSS_S3DSE_Msk, /**< Transfer Dither compare s
 519:C:/Users/Utente/Desktop/Tesi/Firmware_Software/DAVE project/S2GLP_Pulsed_Doppler/Libraries/XMCLib/inc\xmc_ccu4.h ****                                                                           to actual register for SL
 520:C:/Users/Utente/Desktop/Tesi/Firmware_Software/DAVE project/S2GLP_Pulsed_Doppler/Libraries/XMCLib/inc\xmc_ccu4.h ****   XMC_CCU4_SHADOW_TRANSFER_PRESCALER_SLICE_3  = CCU4_GCSS_S3PSE_Msk  /**< Transfer Prescaler shadow
 521:C:/Users/Utente/Desktop/Tesi/Firmware_Software/DAVE project/S2GLP_Pulsed_Doppler/Libraries/XMCLib/inc\xmc_ccu4.h ****                                                                           actual register for SLICE
 522:C:/Users/Utente/Desktop/Tesi/Firmware_Software/DAVE project/S2GLP_Pulsed_Doppler/Libraries/XMCLib/inc\xmc_ccu4.h **** } XMC_CCU4_SHADOW_TRANSFER_t;
 523:C:/Users/Utente/Desktop/Tesi/Firmware_Software/DAVE project/S2GLP_Pulsed_Doppler/Libraries/XMCLib/inc\xmc_ccu4.h **** 
 524:C:/Users/Utente/Desktop/Tesi/Firmware_Software/DAVE project/S2GLP_Pulsed_Doppler/Libraries/XMCLib/inc\xmc_ccu4.h **** #if defined(CCU4V3) || defined(DOXYGEN)/* Defined for XMC1400 devices only */
 525:C:/Users/Utente/Desktop/Tesi/Firmware_Software/DAVE project/S2GLP_Pulsed_Doppler/Libraries/XMCLib/inc\xmc_ccu4.h **** /**
 526:C:/Users/Utente/Desktop/Tesi/Firmware_Software/DAVE project/S2GLP_Pulsed_Doppler/Libraries/XMCLib/inc\xmc_ccu4.h ****  *  Slice shadow transfer mode options.
 527:C:/Users/Utente/Desktop/Tesi/Firmware_Software/DAVE project/S2GLP_Pulsed_Doppler/Libraries/XMCLib/inc\xmc_ccu4.h ****  * @note Only available for XMC1400 series
 528:C:/Users/Utente/Desktop/Tesi/Firmware_Software/DAVE project/S2GLP_Pulsed_Doppler/Libraries/XMCLib/inc\xmc_ccu4.h ****  */
 529:C:/Users/Utente/Desktop/Tesi/Firmware_Software/DAVE project/S2GLP_Pulsed_Doppler/Libraries/XMCLib/inc\xmc_ccu4.h **** typedef enum XMC_CCU4_SLICE_SHADOW_TRANSFER_MODE
 530:C:/Users/Utente/Desktop/Tesi/Firmware_Software/DAVE project/S2GLP_Pulsed_Doppler/Libraries/XMCLib/inc\xmc_ccu4.h **** {
 531:C:/Users/Utente/Desktop/Tesi/Firmware_Software/DAVE project/S2GLP_Pulsed_Doppler/Libraries/XMCLib/inc\xmc_ccu4.h ****   XMC_CCU4_SLICE_SHADOW_TRANSFER_MODE_IN_PERIOD_MATCH_AND_ONE_MATCH = 0U,  /**< Shadow transfer is 
 532:C:/Users/Utente/Desktop/Tesi/Firmware_Software/DAVE project/S2GLP_Pulsed_Doppler/Libraries/XMCLib/inc\xmc_ccu4.h ****                                                                                 One match. */
 533:C:/Users/Utente/Desktop/Tesi/Firmware_Software/DAVE project/S2GLP_Pulsed_Doppler/Libraries/XMCLib/inc\xmc_ccu4.h ****   XMC_CCU4_SLICE_SHADOW_TRANSFER_MODE_ONLY_IN_PERIOD_MATCH = 1U,  /**< Shadow transfer is done only
 534:C:/Users/Utente/Desktop/Tesi/Firmware_Software/DAVE project/S2GLP_Pulsed_Doppler/Libraries/XMCLib/inc\xmc_ccu4.h ****   XMC_CCU4_SLICE_SHADOW_TRANSFER_MODE_ONLY_IN_ONE_MATCH = 2U  /**< Shadow transfer is done only in 
 535:C:/Users/Utente/Desktop/Tesi/Firmware_Software/DAVE project/S2GLP_Pulsed_Doppler/Libraries/XMCLib/inc\xmc_ccu4.h **** } XMC_CCU4_SLICE_SHADOW_TRANSFER_MODE_t; 
 536:C:/Users/Utente/Desktop/Tesi/Firmware_Software/DAVE project/S2GLP_Pulsed_Doppler/Libraries/XMCLib/inc\xmc_ccu4.h ****   
 537:C:/Users/Utente/Desktop/Tesi/Firmware_Software/DAVE project/S2GLP_Pulsed_Doppler/Libraries/XMCLib/inc\xmc_ccu4.h ****   
 538:C:/Users/Utente/Desktop/Tesi/Firmware_Software/DAVE project/S2GLP_Pulsed_Doppler/Libraries/XMCLib/inc\xmc_ccu4.h **** /**
 539:C:/Users/Utente/Desktop/Tesi/Firmware_Software/DAVE project/S2GLP_Pulsed_Doppler/Libraries/XMCLib/inc\xmc_ccu4.h ****  *  Immediate write into configuration register
 540:C:/Users/Utente/Desktop/Tesi/Firmware_Software/DAVE project/S2GLP_Pulsed_Doppler/Libraries/XMCLib/inc\xmc_ccu4.h ****  *  @note Only available for XMC1400 series
 541:C:/Users/Utente/Desktop/Tesi/Firmware_Software/DAVE project/S2GLP_Pulsed_Doppler/Libraries/XMCLib/inc\xmc_ccu4.h ****  */
 542:C:/Users/Utente/Desktop/Tesi/Firmware_Software/DAVE project/S2GLP_Pulsed_Doppler/Libraries/XMCLib/inc\xmc_ccu4.h **** typedef enum XMC_CCU4_SLICE_WRITE_INTO
 543:C:/Users/Utente/Desktop/Tesi/Firmware_Software/DAVE project/S2GLP_Pulsed_Doppler/Libraries/XMCLib/inc\xmc_ccu4.h **** {
 544:C:/Users/Utente/Desktop/Tesi/Firmware_Software/DAVE project/S2GLP_Pulsed_Doppler/Libraries/XMCLib/inc\xmc_ccu4.h ****   XMC_CCU4_SLICE_WRITE_INTO_PERIOD_CONFIGURATION = CCU4_CC4_STC_IRPC_Msk,                  /**< Imm
 545:C:/Users/Utente/Desktop/Tesi/Firmware_Software/DAVE project/S2GLP_Pulsed_Doppler/Libraries/XMCLib/inc\xmc_ccu4.h ****                                                                                                 Wri
 546:C:/Users/Utente/Desktop/Tesi/Firmware_Software/DAVE project/S2GLP_Pulsed_Doppler/Libraries/XMCLib/inc\xmc_ccu4.h ****                                                                                                 Con
 547:C:/Users/Utente/Desktop/Tesi/Firmware_Software/DAVE project/S2GLP_Pulsed_Doppler/Libraries/XMCLib/inc\xmc_ccu4.h ****   XMC_CCU4_SLICE_WRITE_INTO_COMPARE_CONFIGURATION = CCU4_CC4_STC_IRCC_Msk,                 /**< Imm
 548:C:/Users/Utente/Desktop/Tesi/Firmware_Software/DAVE project/S2GLP_Pulsed_Doppler/Libraries/XMCLib/inc\xmc_ccu4.h ****                                                                                                 Wri
 549:C:/Users/Utente/Desktop/Tesi/Firmware_Software/DAVE project/S2GLP_Pulsed_Doppler/Libraries/XMCLib/inc\xmc_ccu4.h ****                                                                                                 Con
 550:C:/Users/Utente/Desktop/Tesi/Firmware_Software/DAVE project/S2GLP_Pulsed_Doppler/Libraries/XMCLib/inc\xmc_ccu4.h ****   XMC_CCU4_SLICE_WRITE_INTO_PASSIVE_LEVEL_CONFIGURATION = CCU4_CC4_STC_IRLC_Msk,           /**< Imm
 551:C:/Users/Utente/Desktop/Tesi/Firmware_Software/DAVE project/S2GLP_Pulsed_Doppler/Libraries/XMCLib/inc\xmc_ccu4.h ****                                                                                                 Wri
 552:C:/Users/Utente/Desktop/Tesi/Firmware_Software/DAVE project/S2GLP_Pulsed_Doppler/Libraries/XMCLib/inc\xmc_ccu4.h **** 	                                                                                            Config
 553:C:/Users/Utente/Desktop/Tesi/Firmware_Software/DAVE project/S2GLP_Pulsed_Doppler/Libraries/XMCLib/inc\xmc_ccu4.h ****   XMC_CCU4_SLICE_WRITE_INTO_DITHER_VALUE_CONFIGURATION = CCU4_CC4_STC_IRDC_Msk,            /**< Imm
 554:C:/Users/Utente/Desktop/Tesi/Firmware_Software/DAVE project/S2GLP_Pulsed_Doppler/Libraries/XMCLib/inc\xmc_ccu4.h ****                                                                                                 Wri
 555:C:/Users/Utente/Desktop/Tesi/Firmware_Software/DAVE project/S2GLP_Pulsed_Doppler/Libraries/XMCLib/inc\xmc_ccu4.h **** 	                                                                                            Config
 556:C:/Users/Utente/Desktop/Tesi/Firmware_Software/DAVE project/S2GLP_Pulsed_Doppler/Libraries/XMCLib/inc\xmc_ccu4.h ****   XMC_CCU4_SLICE_WRITE_INTO_FLOATING_PRESCALER_VALUE_CONFIGURATION = CCU4_CC4_STC_IRFC_Msk /**< Imm
 557:C:/Users/Utente/Desktop/Tesi/Firmware_Software/DAVE project/S2GLP_Pulsed_Doppler/Libraries/XMCLib/inc\xmc_ccu4.h ****                                                                                                 Wri
 558:C:/Users/Utente/Desktop/Tesi/Firmware_Software/DAVE project/S2GLP_Pulsed_Doppler/Libraries/XMCLib/inc\xmc_ccu4.h ****                                                                                                 Val
 559:C:/Users/Utente/Desktop/Tesi/Firmware_Software/DAVE project/S2GLP_Pulsed_Doppler/Libraries/XMCLib/inc\xmc_ccu4.h **** } XMC_CCU4_SLICE_WRITE_INTO_t;
 560:C:/Users/Utente/Desktop/Tesi/Firmware_Software/DAVE project/S2GLP_Pulsed_Doppler/Libraries/XMCLib/inc\xmc_ccu4.h **** 
 561:C:/Users/Utente/Desktop/Tesi/Firmware_Software/DAVE project/S2GLP_Pulsed_Doppler/Libraries/XMCLib/inc\xmc_ccu4.h **** 
 562:C:/Users/Utente/Desktop/Tesi/Firmware_Software/DAVE project/S2GLP_Pulsed_Doppler/Libraries/XMCLib/inc\xmc_ccu4.h **** /**
 563:C:/Users/Utente/Desktop/Tesi/Firmware_Software/DAVE project/S2GLP_Pulsed_Doppler/Libraries/XMCLib/inc\xmc_ccu4.h ****  *  Automatic Shadow Transfer request when writing into shadow register
 564:C:/Users/Utente/Desktop/Tesi/Firmware_Software/DAVE project/S2GLP_Pulsed_Doppler/Libraries/XMCLib/inc\xmc_ccu4.h ****  *  @note Only available for XMC1400 series
 565:C:/Users/Utente/Desktop/Tesi/Firmware_Software/DAVE project/S2GLP_Pulsed_Doppler/Libraries/XMCLib/inc\xmc_ccu4.h ****  */
 566:C:/Users/Utente/Desktop/Tesi/Firmware_Software/DAVE project/S2GLP_Pulsed_Doppler/Libraries/XMCLib/inc\xmc_ccu4.h **** typedef enum XMC_CCU4_SLICE_AUTOMAIC_SHADOW_TRANSFER_WRITE_INTO
 567:C:/Users/Utente/Desktop/Tesi/Firmware_Software/DAVE project/S2GLP_Pulsed_Doppler/Libraries/XMCLib/inc\xmc_ccu4.h **** {
 568:C:/Users/Utente/Desktop/Tesi/Firmware_Software/DAVE project/S2GLP_Pulsed_Doppler/Libraries/XMCLib/inc\xmc_ccu4.h ****   XMC_CCU4_SLICE_AUTOMAIC_SHADOW_TRANSFER_WRITE_INTO_PERIOD_SHADOW = CCU4_CC4_STC_ASPC_Msk,        
 569:C:/Users/Utente/Desktop/Tesi/Firmware_Software/DAVE project/S2GLP_Pulsed_Doppler/Libraries/XMCLib/inc\xmc_ccu4.h **** 	                                                                                                  
 570:C:/Users/Utente/Desktop/Tesi/Firmware_Software/DAVE project/S2GLP_Pulsed_Doppler/Libraries/XMCLib/inc\xmc_ccu4.h ****                                                                                                    
 571:C:/Users/Utente/Desktop/Tesi/Firmware_Software/DAVE project/S2GLP_Pulsed_Doppler/Libraries/XMCLib/inc\xmc_ccu4.h ****                                                                                                    
 572:C:/Users/Utente/Desktop/Tesi/Firmware_Software/DAVE project/S2GLP_Pulsed_Doppler/Libraries/XMCLib/inc\xmc_ccu4.h ****   XMC_CCU4_SLICE_AUTOMAIC_SHADOW_TRANSFER_WRITE_INTO_COMPARE_SHADOW = CCU4_CC4_STC_ASCC_Msk,       
 573:C:/Users/Utente/Desktop/Tesi/Firmware_Software/DAVE project/S2GLP_Pulsed_Doppler/Libraries/XMCLib/inc\xmc_ccu4.h **** 	                                                                                                  
 574:C:/Users/Utente/Desktop/Tesi/Firmware_Software/DAVE project/S2GLP_Pulsed_Doppler/Libraries/XMCLib/inc\xmc_ccu4.h **** 	                                                                                                  
 575:C:/Users/Utente/Desktop/Tesi/Firmware_Software/DAVE project/S2GLP_Pulsed_Doppler/Libraries/XMCLib/inc\xmc_ccu4.h **** 	                                                                                                  
 576:C:/Users/Utente/Desktop/Tesi/Firmware_Software/DAVE project/S2GLP_Pulsed_Doppler/Libraries/XMCLib/inc\xmc_ccu4.h ****   XMC_CCU4_SLICE_AUTOMAIC_SHADOW_TRANSFER_WRITE_INTO_PASSIVE_LEVEL = CCU4_CC4_STC_ASLC_Msk,        
 577:C:/Users/Utente/Desktop/Tesi/Firmware_Software/DAVE project/S2GLP_Pulsed_Doppler/Libraries/XMCLib/inc\xmc_ccu4.h **** 	                                                                                                  
 578:C:/Users/Utente/Desktop/Tesi/Firmware_Software/DAVE project/S2GLP_Pulsed_Doppler/Libraries/XMCLib/inc\xmc_ccu4.h ****                                                                                                    
 579:C:/Users/Utente/Desktop/Tesi/Firmware_Software/DAVE project/S2GLP_Pulsed_Doppler/Libraries/XMCLib/inc\xmc_ccu4.h ****   XMC_CCU4_SLICE_AUTOMAIC_SHADOW_TRANSFER_WRITE_INTO_DITHER_SHADOW = CCU4_CC4_STC_ASDC_Msk,        
 580:C:/Users/Utente/Desktop/Tesi/Firmware_Software/DAVE project/S2GLP_Pulsed_Doppler/Libraries/XMCLib/inc\xmc_ccu4.h ****                                                                                                    
 581:C:/Users/Utente/Desktop/Tesi/Firmware_Software/DAVE project/S2GLP_Pulsed_Doppler/Libraries/XMCLib/inc\xmc_ccu4.h ****                                                                                                    
 582:C:/Users/Utente/Desktop/Tesi/Firmware_Software/DAVE project/S2GLP_Pulsed_Doppler/Libraries/XMCLib/inc\xmc_ccu4.h ****   XMC_CCU4_SLICE_AUTOMAIC_SHADOW_TRANSFER_WRITE_INTO_FLOATING_PRESCALER_SHADOW = CCU4_CC4_STC_ASFC_
 583:C:/Users/Utente/Desktop/Tesi/Firmware_Software/DAVE project/S2GLP_Pulsed_Doppler/Libraries/XMCLib/inc\xmc_ccu4.h **** 	                                                                                                  
 584:C:/Users/Utente/Desktop/Tesi/Firmware_Software/DAVE project/S2GLP_Pulsed_Doppler/Libraries/XMCLib/inc\xmc_ccu4.h ****                                                                                                    
 585:C:/Users/Utente/Desktop/Tesi/Firmware_Software/DAVE project/S2GLP_Pulsed_Doppler/Libraries/XMCLib/inc\xmc_ccu4.h ****                                                                                                    
 586:C:/Users/Utente/Desktop/Tesi/Firmware_Software/DAVE project/S2GLP_Pulsed_Doppler/Libraries/XMCLib/inc\xmc_ccu4.h **** 
 587:C:/Users/Utente/Desktop/Tesi/Firmware_Software/DAVE project/S2GLP_Pulsed_Doppler/Libraries/XMCLib/inc\xmc_ccu4.h **** } XMC_CCU4_SLICE_AUTOMAIC_SHADOW_TRANSFER_WRITE_INTO_t;
 588:C:/Users/Utente/Desktop/Tesi/Firmware_Software/DAVE project/S2GLP_Pulsed_Doppler/Libraries/XMCLib/inc\xmc_ccu4.h **** #endif
 589:C:/Users/Utente/Desktop/Tesi/Firmware_Software/DAVE project/S2GLP_Pulsed_Doppler/Libraries/XMCLib/inc\xmc_ccu4.h **** /**
 590:C:/Users/Utente/Desktop/Tesi/Firmware_Software/DAVE project/S2GLP_Pulsed_Doppler/Libraries/XMCLib/inc\xmc_ccu4.h ****  *  Used to create Mask needed for Multi-channel Shadow transfer enable/disable
 591:C:/Users/Utente/Desktop/Tesi/Firmware_Software/DAVE project/S2GLP_Pulsed_Doppler/Libraries/XMCLib/inc\xmc_ccu4.h ****  */
 592:C:/Users/Utente/Desktop/Tesi/Firmware_Software/DAVE project/S2GLP_Pulsed_Doppler/Libraries/XMCLib/inc\xmc_ccu4.h **** typedef enum XMC_CCU4_SLICE_MASK
 593:C:/Users/Utente/Desktop/Tesi/Firmware_Software/DAVE project/S2GLP_Pulsed_Doppler/Libraries/XMCLib/inc\xmc_ccu4.h **** {
 594:C:/Users/Utente/Desktop/Tesi/Firmware_Software/DAVE project/S2GLP_Pulsed_Doppler/Libraries/XMCLib/inc\xmc_ccu4.h ****   XMC_CCU4_SLICE_MASK_SLICE_0  = 1U , /**< SLICE-0 */
 595:C:/Users/Utente/Desktop/Tesi/Firmware_Software/DAVE project/S2GLP_Pulsed_Doppler/Libraries/XMCLib/inc\xmc_ccu4.h ****   XMC_CCU4_SLICE_MASK_SLICE_1  = 2U , /**< SLICE-1 */
 596:C:/Users/Utente/Desktop/Tesi/Firmware_Software/DAVE project/S2GLP_Pulsed_Doppler/Libraries/XMCLib/inc\xmc_ccu4.h ****   XMC_CCU4_SLICE_MASK_SLICE_2  = 4U , /**< SLICE-2 */
 597:C:/Users/Utente/Desktop/Tesi/Firmware_Software/DAVE project/S2GLP_Pulsed_Doppler/Libraries/XMCLib/inc\xmc_ccu4.h ****   XMC_CCU4_SLICE_MASK_SLICE_3  = 8U   /**< SLICE-3 */
 598:C:/Users/Utente/Desktop/Tesi/Firmware_Software/DAVE project/S2GLP_Pulsed_Doppler/Libraries/XMCLib/inc\xmc_ccu4.h **** } XMC_CCU4_SLICE_MASK_t;
 599:C:/Users/Utente/Desktop/Tesi/Firmware_Software/DAVE project/S2GLP_Pulsed_Doppler/Libraries/XMCLib/inc\xmc_ccu4.h **** 
 600:C:/Users/Utente/Desktop/Tesi/Firmware_Software/DAVE project/S2GLP_Pulsed_Doppler/Libraries/XMCLib/inc\xmc_ccu4.h **** 
 601:C:/Users/Utente/Desktop/Tesi/Firmware_Software/DAVE project/S2GLP_Pulsed_Doppler/Libraries/XMCLib/inc\xmc_ccu4.h **** /**************************************************************************************************
 602:C:/Users/Utente/Desktop/Tesi/Firmware_Software/DAVE project/S2GLP_Pulsed_Doppler/Libraries/XMCLib/inc\xmc_ccu4.h ****  * DATA STRUCTURES
 603:C:/Users/Utente/Desktop/Tesi/Firmware_Software/DAVE project/S2GLP_Pulsed_Doppler/Libraries/XMCLib/inc\xmc_ccu4.h ****  **************************************************************************************************
 604:C:/Users/Utente/Desktop/Tesi/Firmware_Software/DAVE project/S2GLP_Pulsed_Doppler/Libraries/XMCLib/inc\xmc_ccu4.h **** 
 605:C:/Users/Utente/Desktop/Tesi/Firmware_Software/DAVE project/S2GLP_Pulsed_Doppler/Libraries/XMCLib/inc\xmc_ccu4.h **** /**
 606:C:/Users/Utente/Desktop/Tesi/Firmware_Software/DAVE project/S2GLP_Pulsed_Doppler/Libraries/XMCLib/inc\xmc_ccu4.h ****  *  Configuration data structure of an External Event(Event-0/1/2).
 607:C:/Users/Utente/Desktop/Tesi/Firmware_Software/DAVE project/S2GLP_Pulsed_Doppler/Libraries/XMCLib/inc\xmc_ccu4.h ****  *  Needed to configure the various aspects of an External Event.
 608:C:/Users/Utente/Desktop/Tesi/Firmware_Software/DAVE project/S2GLP_Pulsed_Doppler/Libraries/XMCLib/inc\xmc_ccu4.h ****  *  This structure will not connect the external event with an external function.
 609:C:/Users/Utente/Desktop/Tesi/Firmware_Software/DAVE project/S2GLP_Pulsed_Doppler/Libraries/XMCLib/inc\xmc_ccu4.h ****  */ 
 610:C:/Users/Utente/Desktop/Tesi/Firmware_Software/DAVE project/S2GLP_Pulsed_Doppler/Libraries/XMCLib/inc\xmc_ccu4.h **** typedef struct XMC_CCU4_SLICE_EVENT_CONFIG
 611:C:/Users/Utente/Desktop/Tesi/Firmware_Software/DAVE project/S2GLP_Pulsed_Doppler/Libraries/XMCLib/inc\xmc_ccu4.h **** {
 612:C:/Users/Utente/Desktop/Tesi/Firmware_Software/DAVE project/S2GLP_Pulsed_Doppler/Libraries/XMCLib/inc\xmc_ccu4.h ****   XMC_CCU4_SLICE_INPUT_t                   mapped_input; /**< Required input signal for the Event *
 613:C:/Users/Utente/Desktop/Tesi/Firmware_Software/DAVE project/S2GLP_Pulsed_Doppler/Libraries/XMCLib/inc\xmc_ccu4.h ****   XMC_CCU4_SLICE_EVENT_EDGE_SENSITIVITY_t  edge;         /**< Select the event edge of the input si
 614:C:/Users/Utente/Desktop/Tesi/Firmware_Software/DAVE project/S2GLP_Pulsed_Doppler/Libraries/XMCLib/inc\xmc_ccu4.h ****                                                               This is needed for an edge sensitive 
 615:C:/Users/Utente/Desktop/Tesi/Firmware_Software/DAVE project/S2GLP_Pulsed_Doppler/Libraries/XMCLib/inc\xmc_ccu4.h ****   XMC_CCU4_SLICE_EVENT_LEVEL_SENSITIVITY_t level;        /**< Select the event level of the input s
 616:C:/Users/Utente/Desktop/Tesi/Firmware_Software/DAVE project/S2GLP_Pulsed_Doppler/Libraries/XMCLib/inc\xmc_ccu4.h ****                                                               This is needed for an level sensitive
 617:C:/Users/Utente/Desktop/Tesi/Firmware_Software/DAVE project/S2GLP_Pulsed_Doppler/Libraries/XMCLib/inc\xmc_ccu4.h ****   XMC_CCU4_SLICE_EVENT_FILTER_t            duration;     /**< Low Pass filter duration in terms of 
 618:C:/Users/Utente/Desktop/Tesi/Firmware_Software/DAVE project/S2GLP_Pulsed_Doppler/Libraries/XMCLib/inc\xmc_ccu4.h **** } XMC_CCU4_SLICE_EVENT_CONFIG_t;
 619:C:/Users/Utente/Desktop/Tesi/Firmware_Software/DAVE project/S2GLP_Pulsed_Doppler/Libraries/XMCLib/inc\xmc_ccu4.h **** 
 620:C:/Users/Utente/Desktop/Tesi/Firmware_Software/DAVE project/S2GLP_Pulsed_Doppler/Libraries/XMCLib/inc\xmc_ccu4.h **** /*Anonymous structure/union guard start*/
 621:C:/Users/Utente/Desktop/Tesi/Firmware_Software/DAVE project/S2GLP_Pulsed_Doppler/Libraries/XMCLib/inc\xmc_ccu4.h **** #if defined(__CC_ARM)
 622:C:/Users/Utente/Desktop/Tesi/Firmware_Software/DAVE project/S2GLP_Pulsed_Doppler/Libraries/XMCLib/inc\xmc_ccu4.h ****   #pragma push
 623:C:/Users/Utente/Desktop/Tesi/Firmware_Software/DAVE project/S2GLP_Pulsed_Doppler/Libraries/XMCLib/inc\xmc_ccu4.h ****   #pragma anon_unions
 624:C:/Users/Utente/Desktop/Tesi/Firmware_Software/DAVE project/S2GLP_Pulsed_Doppler/Libraries/XMCLib/inc\xmc_ccu4.h **** #elif defined(__TASKING__)
 625:C:/Users/Utente/Desktop/Tesi/Firmware_Software/DAVE project/S2GLP_Pulsed_Doppler/Libraries/XMCLib/inc\xmc_ccu4.h ****   #pragma warning 586
 626:C:/Users/Utente/Desktop/Tesi/Firmware_Software/DAVE project/S2GLP_Pulsed_Doppler/Libraries/XMCLib/inc\xmc_ccu4.h **** #endif
 627:C:/Users/Utente/Desktop/Tesi/Firmware_Software/DAVE project/S2GLP_Pulsed_Doppler/Libraries/XMCLib/inc\xmc_ccu4.h **** 
 628:C:/Users/Utente/Desktop/Tesi/Firmware_Software/DAVE project/S2GLP_Pulsed_Doppler/Libraries/XMCLib/inc\xmc_ccu4.h **** /**
 629:C:/Users/Utente/Desktop/Tesi/Firmware_Software/DAVE project/S2GLP_Pulsed_Doppler/Libraries/XMCLib/inc\xmc_ccu4.h ****  *  Configuration data structure for CCU4 slice. Specifically configures the CCU4 slice to compare 
 630:C:/Users/Utente/Desktop/Tesi/Firmware_Software/DAVE project/S2GLP_Pulsed_Doppler/Libraries/XMCLib/inc\xmc_ccu4.h ****  *  This excludes event and function configuration.
 631:C:/Users/Utente/Desktop/Tesi/Firmware_Software/DAVE project/S2GLP_Pulsed_Doppler/Libraries/XMCLib/inc\xmc_ccu4.h ****  */ 
 632:C:/Users/Utente/Desktop/Tesi/Firmware_Software/DAVE project/S2GLP_Pulsed_Doppler/Libraries/XMCLib/inc\xmc_ccu4.h **** typedef struct XMC_CCU4_SLICE_COMPARE_CONFIG
 633:C:/Users/Utente/Desktop/Tesi/Firmware_Software/DAVE project/S2GLP_Pulsed_Doppler/Libraries/XMCLib/inc\xmc_ccu4.h **** {
 634:C:/Users/Utente/Desktop/Tesi/Firmware_Software/DAVE project/S2GLP_Pulsed_Doppler/Libraries/XMCLib/inc\xmc_ccu4.h ****   union
 635:C:/Users/Utente/Desktop/Tesi/Firmware_Software/DAVE project/S2GLP_Pulsed_Doppler/Libraries/XMCLib/inc\xmc_ccu4.h ****   {
 636:C:/Users/Utente/Desktop/Tesi/Firmware_Software/DAVE project/S2GLP_Pulsed_Doppler/Libraries/XMCLib/inc\xmc_ccu4.h ****     struct
 637:C:/Users/Utente/Desktop/Tesi/Firmware_Software/DAVE project/S2GLP_Pulsed_Doppler/Libraries/XMCLib/inc\xmc_ccu4.h ****     {
 638:C:/Users/Utente/Desktop/Tesi/Firmware_Software/DAVE project/S2GLP_Pulsed_Doppler/Libraries/XMCLib/inc\xmc_ccu4.h ****       uint32_t timer_mode : 1;         /**< Edge aligned or Centre Aligned.
 639:C:/Users/Utente/Desktop/Tesi/Firmware_Software/DAVE project/S2GLP_Pulsed_Doppler/Libraries/XMCLib/inc\xmc_ccu4.h ****                                              Accepts enum ::XMC_CCU4_SLICE_TIMER_COUNT_MODE_t */
 640:C:/Users/Utente/Desktop/Tesi/Firmware_Software/DAVE project/S2GLP_Pulsed_Doppler/Libraries/XMCLib/inc\xmc_ccu4.h ****       uint32_t monoshot : 1;           /**< Single shot or Continuous mode .
 641:C:/Users/Utente/Desktop/Tesi/Firmware_Software/DAVE project/S2GLP_Pulsed_Doppler/Libraries/XMCLib/inc\xmc_ccu4.h ****                                              Accepts enum :: XMC_CCU4_SLICE_TIMER_REPEAT_MODE_t*/
 642:C:/Users/Utente/Desktop/Tesi/Firmware_Software/DAVE project/S2GLP_Pulsed_Doppler/Libraries/XMCLib/inc\xmc_ccu4.h ****       uint32_t shadow_xfer_clear : 1;  /**< Should PR and CR shadow xfer happen when timer is clear
 643:C:/Users/Utente/Desktop/Tesi/Firmware_Software/DAVE project/S2GLP_Pulsed_Doppler/Libraries/XMCLib/inc\xmc_ccu4.h ****       uint32_t : 10;
 644:C:/Users/Utente/Desktop/Tesi/Firmware_Software/DAVE project/S2GLP_Pulsed_Doppler/Libraries/XMCLib/inc\xmc_ccu4.h ****       uint32_t dither_timer_period: 1; /**< Can the period of the timer dither? */
 645:C:/Users/Utente/Desktop/Tesi/Firmware_Software/DAVE project/S2GLP_Pulsed_Doppler/Libraries/XMCLib/inc\xmc_ccu4.h ****       uint32_t dither_duty_cycle : 1;  /**< Can the compare match of the timer dither? */
 646:C:/Users/Utente/Desktop/Tesi/Firmware_Software/DAVE project/S2GLP_Pulsed_Doppler/Libraries/XMCLib/inc\xmc_ccu4.h ****       uint32_t : 1;
 647:C:/Users/Utente/Desktop/Tesi/Firmware_Software/DAVE project/S2GLP_Pulsed_Doppler/Libraries/XMCLib/inc\xmc_ccu4.h ****       uint32_t prescaler_mode: 1;      /**< Normal or floating prescaler mode.
 648:C:/Users/Utente/Desktop/Tesi/Firmware_Software/DAVE project/S2GLP_Pulsed_Doppler/Libraries/XMCLib/inc\xmc_ccu4.h ****                                              Accepts enum :: XMC_CCU4_SLICE_PRESCALER_MODE_t*/
 649:C:/Users/Utente/Desktop/Tesi/Firmware_Software/DAVE project/S2GLP_Pulsed_Doppler/Libraries/XMCLib/inc\xmc_ccu4.h ****       uint32_t : 8;
 650:C:/Users/Utente/Desktop/Tesi/Firmware_Software/DAVE project/S2GLP_Pulsed_Doppler/Libraries/XMCLib/inc\xmc_ccu4.h ****       uint32_t mcm_enable : 1;         /**< Multi-Channel mode enable? */
 651:C:/Users/Utente/Desktop/Tesi/Firmware_Software/DAVE project/S2GLP_Pulsed_Doppler/Libraries/XMCLib/inc\xmc_ccu4.h ****       uint32_t : 6;
 652:C:/Users/Utente/Desktop/Tesi/Firmware_Software/DAVE project/S2GLP_Pulsed_Doppler/Libraries/XMCLib/inc\xmc_ccu4.h ****     };
 653:C:/Users/Utente/Desktop/Tesi/Firmware_Software/DAVE project/S2GLP_Pulsed_Doppler/Libraries/XMCLib/inc\xmc_ccu4.h ****     uint32_t tc;
 654:C:/Users/Utente/Desktop/Tesi/Firmware_Software/DAVE project/S2GLP_Pulsed_Doppler/Libraries/XMCLib/inc\xmc_ccu4.h ****   };
 655:C:/Users/Utente/Desktop/Tesi/Firmware_Software/DAVE project/S2GLP_Pulsed_Doppler/Libraries/XMCLib/inc\xmc_ccu4.h ****   uint32_t prescaler_initval : 4;      /**< Initial prescaler divider value 
 656:C:/Users/Utente/Desktop/Tesi/Firmware_Software/DAVE project/S2GLP_Pulsed_Doppler/Libraries/XMCLib/inc\xmc_ccu4.h ****                                             Accepts enum :: XMC_CCU4_SLICE_PRESCALER_t */
 657:C:/Users/Utente/Desktop/Tesi/Firmware_Software/DAVE project/S2GLP_Pulsed_Doppler/Libraries/XMCLib/inc\xmc_ccu4.h ****   uint32_t float_limit : 4;            /**< The max value which the prescaler divider can increment
 658:C:/Users/Utente/Desktop/Tesi/Firmware_Software/DAVE project/S2GLP_Pulsed_Doppler/Libraries/XMCLib/inc\xmc_ccu4.h ****   uint32_t dither_limit : 4;           /**< The value that determines the spreading of dithering */
 659:C:/Users/Utente/Desktop/Tesi/Firmware_Software/DAVE project/S2GLP_Pulsed_Doppler/Libraries/XMCLib/inc\xmc_ccu4.h ****   uint32_t passive_level : 1;          /**< Configuration of ST and OUT passive levels.
 660:C:/Users/Utente/Desktop/Tesi/Firmware_Software/DAVE project/S2GLP_Pulsed_Doppler/Libraries/XMCLib/inc\xmc_ccu4.h ****                                              Accepts enum :: XMC_CCU4_SLICE_OUTPUT_PASSIVE_LEVEL_t*
 661:C:/Users/Utente/Desktop/Tesi/Firmware_Software/DAVE project/S2GLP_Pulsed_Doppler/Libraries/XMCLib/inc\xmc_ccu4.h ****   uint32_t timer_concatenation : 1;    /**< Enables the concatenation of the timer if true.*/
 662:C:/Users/Utente/Desktop/Tesi/Firmware_Software/DAVE project/S2GLP_Pulsed_Doppler/Libraries/XMCLib/inc\xmc_ccu4.h **** } XMC_CCU4_SLICE_COMPARE_CONFIG_t;
 663:C:/Users/Utente/Desktop/Tesi/Firmware_Software/DAVE project/S2GLP_Pulsed_Doppler/Libraries/XMCLib/inc\xmc_ccu4.h **** 
 664:C:/Users/Utente/Desktop/Tesi/Firmware_Software/DAVE project/S2GLP_Pulsed_Doppler/Libraries/XMCLib/inc\xmc_ccu4.h **** /**
 665:C:/Users/Utente/Desktop/Tesi/Firmware_Software/DAVE project/S2GLP_Pulsed_Doppler/Libraries/XMCLib/inc\xmc_ccu4.h ****  *  Configuration data structure for CCU4 slice. Specifically configures the CCU4 slice to capture 
 666:C:/Users/Utente/Desktop/Tesi/Firmware_Software/DAVE project/S2GLP_Pulsed_Doppler/Libraries/XMCLib/inc\xmc_ccu4.h ****  *  This excludes event and function configuration.
 667:C:/Users/Utente/Desktop/Tesi/Firmware_Software/DAVE project/S2GLP_Pulsed_Doppler/Libraries/XMCLib/inc\xmc_ccu4.h ****  */ 
 668:C:/Users/Utente/Desktop/Tesi/Firmware_Software/DAVE project/S2GLP_Pulsed_Doppler/Libraries/XMCLib/inc\xmc_ccu4.h **** typedef struct XMC_CCU4_SLICE_CAPTURE_CONFIG
 669:C:/Users/Utente/Desktop/Tesi/Firmware_Software/DAVE project/S2GLP_Pulsed_Doppler/Libraries/XMCLib/inc\xmc_ccu4.h **** {
 670:C:/Users/Utente/Desktop/Tesi/Firmware_Software/DAVE project/S2GLP_Pulsed_Doppler/Libraries/XMCLib/inc\xmc_ccu4.h ****   union
 671:C:/Users/Utente/Desktop/Tesi/Firmware_Software/DAVE project/S2GLP_Pulsed_Doppler/Libraries/XMCLib/inc\xmc_ccu4.h ****   {
 672:C:/Users/Utente/Desktop/Tesi/Firmware_Software/DAVE project/S2GLP_Pulsed_Doppler/Libraries/XMCLib/inc\xmc_ccu4.h ****     struct
 673:C:/Users/Utente/Desktop/Tesi/Firmware_Software/DAVE project/S2GLP_Pulsed_Doppler/Libraries/XMCLib/inc\xmc_ccu4.h ****     {
 674:C:/Users/Utente/Desktop/Tesi/Firmware_Software/DAVE project/S2GLP_Pulsed_Doppler/Libraries/XMCLib/inc\xmc_ccu4.h ****       uint32_t : 4;
 675:C:/Users/Utente/Desktop/Tesi/Firmware_Software/DAVE project/S2GLP_Pulsed_Doppler/Libraries/XMCLib/inc\xmc_ccu4.h ****       uint32_t fifo_enable : 1;      /**< Should the capture registers be setup as a FIFO?(Extended
 676:C:/Users/Utente/Desktop/Tesi/Firmware_Software/DAVE project/S2GLP_Pulsed_Doppler/Libraries/XMCLib/inc\xmc_ccu4.h ****       uint32_t timer_clear_mode : 2; /**< How should the timer register be cleared upon detection o
 677:C:/Users/Utente/Desktop/Tesi/Firmware_Software/DAVE project/S2GLP_Pulsed_Doppler/Libraries/XMCLib/inc\xmc_ccu4.h ****                                           Accepts enum ::XMC_CCU4_SLICE_TIMER_CLEAR_MODE_t*/
 678:C:/Users/Utente/Desktop/Tesi/Firmware_Software/DAVE project/S2GLP_Pulsed_Doppler/Libraries/XMCLib/inc\xmc_ccu4.h ****       uint32_t : 4;
 679:C:/Users/Utente/Desktop/Tesi/Firmware_Software/DAVE project/S2GLP_Pulsed_Doppler/Libraries/XMCLib/inc\xmc_ccu4.h ****       uint32_t same_event : 1;       /**< Should the capture event for C1V/C0V and C3V/C2V be same 
 680:C:/Users/Utente/Desktop/Tesi/Firmware_Software/DAVE project/S2GLP_Pulsed_Doppler/Libraries/XMCLib/inc\xmc_ccu4.h ****       uint32_t ignore_full_flag : 1; /**< Should updates to capture registers follow full flag rule
 681:C:/Users/Utente/Desktop/Tesi/Firmware_Software/DAVE project/S2GLP_Pulsed_Doppler/Libraries/XMCLib/inc\xmc_ccu4.h ****       uint32_t : 3;
 682:C:/Users/Utente/Desktop/Tesi/Firmware_Software/DAVE project/S2GLP_Pulsed_Doppler/Libraries/XMCLib/inc\xmc_ccu4.h ****       uint32_t prescaler_mode: 1;    /**< Normal or floating prescaler Accepts enum :: XMC_CCU4_SLI
 683:C:/Users/Utente/Desktop/Tesi/Firmware_Software/DAVE project/S2GLP_Pulsed_Doppler/Libraries/XMCLib/inc\xmc_ccu4.h ****       uint32_t : 15;
 684:C:/Users/Utente/Desktop/Tesi/Firmware_Software/DAVE project/S2GLP_Pulsed_Doppler/Libraries/XMCLib/inc\xmc_ccu4.h ****     };
 685:C:/Users/Utente/Desktop/Tesi/Firmware_Software/DAVE project/S2GLP_Pulsed_Doppler/Libraries/XMCLib/inc\xmc_ccu4.h ****     uint32_t tc;
 686:C:/Users/Utente/Desktop/Tesi/Firmware_Software/DAVE project/S2GLP_Pulsed_Doppler/Libraries/XMCLib/inc\xmc_ccu4.h ****   };
 687:C:/Users/Utente/Desktop/Tesi/Firmware_Software/DAVE project/S2GLP_Pulsed_Doppler/Libraries/XMCLib/inc\xmc_ccu4.h ****   uint32_t prescaler_initval : 4;    /**< Prescaler divider value */
 688:C:/Users/Utente/Desktop/Tesi/Firmware_Software/DAVE project/S2GLP_Pulsed_Doppler/Libraries/XMCLib/inc\xmc_ccu4.h ****   uint32_t float_limit : 4;          /**< The max value which the prescaler divider can increment t
 689:C:/Users/Utente/Desktop/Tesi/Firmware_Software/DAVE project/S2GLP_Pulsed_Doppler/Libraries/XMCLib/inc\xmc_ccu4.h ****   uint32_t timer_concatenation : 1;  /**< Enables the concatenation of the timer */
 690:C:/Users/Utente/Desktop/Tesi/Firmware_Software/DAVE project/S2GLP_Pulsed_Doppler/Libraries/XMCLib/inc\xmc_ccu4.h **** } XMC_CCU4_SLICE_CAPTURE_CONFIG_t;
 691:C:/Users/Utente/Desktop/Tesi/Firmware_Software/DAVE project/S2GLP_Pulsed_Doppler/Libraries/XMCLib/inc\xmc_ccu4.h **** /*Anonymous structure/union guard end*/
 692:C:/Users/Utente/Desktop/Tesi/Firmware_Software/DAVE project/S2GLP_Pulsed_Doppler/Libraries/XMCLib/inc\xmc_ccu4.h **** #if defined(__CC_ARM)
 693:C:/Users/Utente/Desktop/Tesi/Firmware_Software/DAVE project/S2GLP_Pulsed_Doppler/Libraries/XMCLib/inc\xmc_ccu4.h ****   #pragma pop
 694:C:/Users/Utente/Desktop/Tesi/Firmware_Software/DAVE project/S2GLP_Pulsed_Doppler/Libraries/XMCLib/inc\xmc_ccu4.h **** #elif defined(__TASKING__)
 695:C:/Users/Utente/Desktop/Tesi/Firmware_Software/DAVE project/S2GLP_Pulsed_Doppler/Libraries/XMCLib/inc\xmc_ccu4.h ****   #pragma warning restore
 696:C:/Users/Utente/Desktop/Tesi/Firmware_Software/DAVE project/S2GLP_Pulsed_Doppler/Libraries/XMCLib/inc\xmc_ccu4.h **** #endif
 697:C:/Users/Utente/Desktop/Tesi/Firmware_Software/DAVE project/S2GLP_Pulsed_Doppler/Libraries/XMCLib/inc\xmc_ccu4.h **** /**************************************************************************************************
 698:C:/Users/Utente/Desktop/Tesi/Firmware_Software/DAVE project/S2GLP_Pulsed_Doppler/Libraries/XMCLib/inc\xmc_ccu4.h ****  * API Prototypes
 699:C:/Users/Utente/Desktop/Tesi/Firmware_Software/DAVE project/S2GLP_Pulsed_Doppler/Libraries/XMCLib/inc\xmc_ccu4.h ****  **************************************************************************************************
 700:C:/Users/Utente/Desktop/Tesi/Firmware_Software/DAVE project/S2GLP_Pulsed_Doppler/Libraries/XMCLib/inc\xmc_ccu4.h **** 
 701:C:/Users/Utente/Desktop/Tesi/Firmware_Software/DAVE project/S2GLP_Pulsed_Doppler/Libraries/XMCLib/inc\xmc_ccu4.h **** #ifdef __cplusplus
 702:C:/Users/Utente/Desktop/Tesi/Firmware_Software/DAVE project/S2GLP_Pulsed_Doppler/Libraries/XMCLib/inc\xmc_ccu4.h **** extern "C" {
 703:C:/Users/Utente/Desktop/Tesi/Firmware_Software/DAVE project/S2GLP_Pulsed_Doppler/Libraries/XMCLib/inc\xmc_ccu4.h **** #endif
 704:C:/Users/Utente/Desktop/Tesi/Firmware_Software/DAVE project/S2GLP_Pulsed_Doppler/Libraries/XMCLib/inc\xmc_ccu4.h **** 
 705:C:/Users/Utente/Desktop/Tesi/Firmware_Software/DAVE project/S2GLP_Pulsed_Doppler/Libraries/XMCLib/inc\xmc_ccu4.h **** __STATIC_INLINE bool XMC_CCU4_IsValidModule(const XMC_CCU4_MODULE_t *const module)
 706:C:/Users/Utente/Desktop/Tesi/Firmware_Software/DAVE project/S2GLP_Pulsed_Doppler/Libraries/XMCLib/inc\xmc_ccu4.h **** {
 707:C:/Users/Utente/Desktop/Tesi/Firmware_Software/DAVE project/S2GLP_Pulsed_Doppler/Libraries/XMCLib/inc\xmc_ccu4.h ****   bool tmp = false;
 708:C:/Users/Utente/Desktop/Tesi/Firmware_Software/DAVE project/S2GLP_Pulsed_Doppler/Libraries/XMCLib/inc\xmc_ccu4.h ****   
 709:C:/Users/Utente/Desktop/Tesi/Firmware_Software/DAVE project/S2GLP_Pulsed_Doppler/Libraries/XMCLib/inc\xmc_ccu4.h ****   tmp = (module == CCU40);
 710:C:/Users/Utente/Desktop/Tesi/Firmware_Software/DAVE project/S2GLP_Pulsed_Doppler/Libraries/XMCLib/inc\xmc_ccu4.h ****   
 711:C:/Users/Utente/Desktop/Tesi/Firmware_Software/DAVE project/S2GLP_Pulsed_Doppler/Libraries/XMCLib/inc\xmc_ccu4.h **** #if defined(CCU41) 
 712:C:/Users/Utente/Desktop/Tesi/Firmware_Software/DAVE project/S2GLP_Pulsed_Doppler/Libraries/XMCLib/inc\xmc_ccu4.h ****   tmp = tmp || (module == CCU41);
 713:C:/Users/Utente/Desktop/Tesi/Firmware_Software/DAVE project/S2GLP_Pulsed_Doppler/Libraries/XMCLib/inc\xmc_ccu4.h **** #endif
 714:C:/Users/Utente/Desktop/Tesi/Firmware_Software/DAVE project/S2GLP_Pulsed_Doppler/Libraries/XMCLib/inc\xmc_ccu4.h **** 
 715:C:/Users/Utente/Desktop/Tesi/Firmware_Software/DAVE project/S2GLP_Pulsed_Doppler/Libraries/XMCLib/inc\xmc_ccu4.h **** #if defined(CCU42)
 716:C:/Users/Utente/Desktop/Tesi/Firmware_Software/DAVE project/S2GLP_Pulsed_Doppler/Libraries/XMCLib/inc\xmc_ccu4.h ****   tmp = tmp || (module == CCU42);
 717:C:/Users/Utente/Desktop/Tesi/Firmware_Software/DAVE project/S2GLP_Pulsed_Doppler/Libraries/XMCLib/inc\xmc_ccu4.h **** #endif
 718:C:/Users/Utente/Desktop/Tesi/Firmware_Software/DAVE project/S2GLP_Pulsed_Doppler/Libraries/XMCLib/inc\xmc_ccu4.h **** 
 719:C:/Users/Utente/Desktop/Tesi/Firmware_Software/DAVE project/S2GLP_Pulsed_Doppler/Libraries/XMCLib/inc\xmc_ccu4.h **** #if defined(CCU43)
 720:C:/Users/Utente/Desktop/Tesi/Firmware_Software/DAVE project/S2GLP_Pulsed_Doppler/Libraries/XMCLib/inc\xmc_ccu4.h ****   tmp = tmp || (module == CCU43);
 721:C:/Users/Utente/Desktop/Tesi/Firmware_Software/DAVE project/S2GLP_Pulsed_Doppler/Libraries/XMCLib/inc\xmc_ccu4.h **** #endif
 722:C:/Users/Utente/Desktop/Tesi/Firmware_Software/DAVE project/S2GLP_Pulsed_Doppler/Libraries/XMCLib/inc\xmc_ccu4.h ****   
 723:C:/Users/Utente/Desktop/Tesi/Firmware_Software/DAVE project/S2GLP_Pulsed_Doppler/Libraries/XMCLib/inc\xmc_ccu4.h ****   return tmp;  
 724:C:/Users/Utente/Desktop/Tesi/Firmware_Software/DAVE project/S2GLP_Pulsed_Doppler/Libraries/XMCLib/inc\xmc_ccu4.h **** } 
 725:C:/Users/Utente/Desktop/Tesi/Firmware_Software/DAVE project/S2GLP_Pulsed_Doppler/Libraries/XMCLib/inc\xmc_ccu4.h **** 
 726:C:/Users/Utente/Desktop/Tesi/Firmware_Software/DAVE project/S2GLP_Pulsed_Doppler/Libraries/XMCLib/inc\xmc_ccu4.h **** __STATIC_INLINE bool XMC_CCU4_IsValidSlice(const XMC_CCU4_SLICE_t *const slice)
 727:C:/Users/Utente/Desktop/Tesi/Firmware_Software/DAVE project/S2GLP_Pulsed_Doppler/Libraries/XMCLib/inc\xmc_ccu4.h **** {
 728:C:/Users/Utente/Desktop/Tesi/Firmware_Software/DAVE project/S2GLP_Pulsed_Doppler/Libraries/XMCLib/inc\xmc_ccu4.h ****   bool tmp = false;
 729:C:/Users/Utente/Desktop/Tesi/Firmware_Software/DAVE project/S2GLP_Pulsed_Doppler/Libraries/XMCLib/inc\xmc_ccu4.h ****   
 730:C:/Users/Utente/Desktop/Tesi/Firmware_Software/DAVE project/S2GLP_Pulsed_Doppler/Libraries/XMCLib/inc\xmc_ccu4.h ****   tmp = (slice == CCU40_CC40);
 731:C:/Users/Utente/Desktop/Tesi/Firmware_Software/DAVE project/S2GLP_Pulsed_Doppler/Libraries/XMCLib/inc\xmc_ccu4.h **** #if defined(CCU40_CC41)  
 732:C:/Users/Utente/Desktop/Tesi/Firmware_Software/DAVE project/S2GLP_Pulsed_Doppler/Libraries/XMCLib/inc\xmc_ccu4.h ****   tmp = tmp || (slice == CCU40_CC41);
 733:C:/Users/Utente/Desktop/Tesi/Firmware_Software/DAVE project/S2GLP_Pulsed_Doppler/Libraries/XMCLib/inc\xmc_ccu4.h **** #endif
 734:C:/Users/Utente/Desktop/Tesi/Firmware_Software/DAVE project/S2GLP_Pulsed_Doppler/Libraries/XMCLib/inc\xmc_ccu4.h **** #if defined(CCU40_CC42)  
 735:C:/Users/Utente/Desktop/Tesi/Firmware_Software/DAVE project/S2GLP_Pulsed_Doppler/Libraries/XMCLib/inc\xmc_ccu4.h ****   tmp = tmp || (slice == CCU40_CC42);
 736:C:/Users/Utente/Desktop/Tesi/Firmware_Software/DAVE project/S2GLP_Pulsed_Doppler/Libraries/XMCLib/inc\xmc_ccu4.h **** #endif
 737:C:/Users/Utente/Desktop/Tesi/Firmware_Software/DAVE project/S2GLP_Pulsed_Doppler/Libraries/XMCLib/inc\xmc_ccu4.h **** #if defined(CCU40_CC43)  
 738:C:/Users/Utente/Desktop/Tesi/Firmware_Software/DAVE project/S2GLP_Pulsed_Doppler/Libraries/XMCLib/inc\xmc_ccu4.h ****   tmp = tmp || (slice == CCU40_CC43);
 739:C:/Users/Utente/Desktop/Tesi/Firmware_Software/DAVE project/S2GLP_Pulsed_Doppler/Libraries/XMCLib/inc\xmc_ccu4.h **** #endif
 740:C:/Users/Utente/Desktop/Tesi/Firmware_Software/DAVE project/S2GLP_Pulsed_Doppler/Libraries/XMCLib/inc\xmc_ccu4.h **** #if defined(CCU41)  
 741:C:/Users/Utente/Desktop/Tesi/Firmware_Software/DAVE project/S2GLP_Pulsed_Doppler/Libraries/XMCLib/inc\xmc_ccu4.h ****   tmp = tmp || (slice == CCU41_CC40);
 742:C:/Users/Utente/Desktop/Tesi/Firmware_Software/DAVE project/S2GLP_Pulsed_Doppler/Libraries/XMCLib/inc\xmc_ccu4.h **** #if defined(CCU41_CC41)  
 743:C:/Users/Utente/Desktop/Tesi/Firmware_Software/DAVE project/S2GLP_Pulsed_Doppler/Libraries/XMCLib/inc\xmc_ccu4.h ****   tmp = tmp || (slice == CCU41_CC41);
 744:C:/Users/Utente/Desktop/Tesi/Firmware_Software/DAVE project/S2GLP_Pulsed_Doppler/Libraries/XMCLib/inc\xmc_ccu4.h **** #endif
 745:C:/Users/Utente/Desktop/Tesi/Firmware_Software/DAVE project/S2GLP_Pulsed_Doppler/Libraries/XMCLib/inc\xmc_ccu4.h **** #if defined(CCU41_CC42)  
 746:C:/Users/Utente/Desktop/Tesi/Firmware_Software/DAVE project/S2GLP_Pulsed_Doppler/Libraries/XMCLib/inc\xmc_ccu4.h ****   tmp = tmp || (slice == CCU41_CC42);
 747:C:/Users/Utente/Desktop/Tesi/Firmware_Software/DAVE project/S2GLP_Pulsed_Doppler/Libraries/XMCLib/inc\xmc_ccu4.h **** #endif
 748:C:/Users/Utente/Desktop/Tesi/Firmware_Software/DAVE project/S2GLP_Pulsed_Doppler/Libraries/XMCLib/inc\xmc_ccu4.h **** #if defined(CCU41_CC43)  
 749:C:/Users/Utente/Desktop/Tesi/Firmware_Software/DAVE project/S2GLP_Pulsed_Doppler/Libraries/XMCLib/inc\xmc_ccu4.h ****   tmp = tmp || (slice == CCU41_CC43);
 750:C:/Users/Utente/Desktop/Tesi/Firmware_Software/DAVE project/S2GLP_Pulsed_Doppler/Libraries/XMCLib/inc\xmc_ccu4.h **** #endif
 751:C:/Users/Utente/Desktop/Tesi/Firmware_Software/DAVE project/S2GLP_Pulsed_Doppler/Libraries/XMCLib/inc\xmc_ccu4.h **** #endif 
 752:C:/Users/Utente/Desktop/Tesi/Firmware_Software/DAVE project/S2GLP_Pulsed_Doppler/Libraries/XMCLib/inc\xmc_ccu4.h **** #if defined(CCU42)  
 753:C:/Users/Utente/Desktop/Tesi/Firmware_Software/DAVE project/S2GLP_Pulsed_Doppler/Libraries/XMCLib/inc\xmc_ccu4.h ****   tmp = tmp || (slice == CCU42_CC40);
 754:C:/Users/Utente/Desktop/Tesi/Firmware_Software/DAVE project/S2GLP_Pulsed_Doppler/Libraries/XMCLib/inc\xmc_ccu4.h **** #if defined(CCU42_CC41)  
 755:C:/Users/Utente/Desktop/Tesi/Firmware_Software/DAVE project/S2GLP_Pulsed_Doppler/Libraries/XMCLib/inc\xmc_ccu4.h ****   tmp = tmp || (slice == CCU42_CC41);
 756:C:/Users/Utente/Desktop/Tesi/Firmware_Software/DAVE project/S2GLP_Pulsed_Doppler/Libraries/XMCLib/inc\xmc_ccu4.h **** #endif
 757:C:/Users/Utente/Desktop/Tesi/Firmware_Software/DAVE project/S2GLP_Pulsed_Doppler/Libraries/XMCLib/inc\xmc_ccu4.h **** #if defined(CCU42_CC42)  
 758:C:/Users/Utente/Desktop/Tesi/Firmware_Software/DAVE project/S2GLP_Pulsed_Doppler/Libraries/XMCLib/inc\xmc_ccu4.h ****   tmp = tmp || (slice == CCU42_CC42);
 759:C:/Users/Utente/Desktop/Tesi/Firmware_Software/DAVE project/S2GLP_Pulsed_Doppler/Libraries/XMCLib/inc\xmc_ccu4.h **** #endif
 760:C:/Users/Utente/Desktop/Tesi/Firmware_Software/DAVE project/S2GLP_Pulsed_Doppler/Libraries/XMCLib/inc\xmc_ccu4.h **** #if defined(CCU42_CC43)  
 761:C:/Users/Utente/Desktop/Tesi/Firmware_Software/DAVE project/S2GLP_Pulsed_Doppler/Libraries/XMCLib/inc\xmc_ccu4.h ****   tmp = tmp || (slice == CCU42_CC43);
 762:C:/Users/Utente/Desktop/Tesi/Firmware_Software/DAVE project/S2GLP_Pulsed_Doppler/Libraries/XMCLib/inc\xmc_ccu4.h **** #endif
 763:C:/Users/Utente/Desktop/Tesi/Firmware_Software/DAVE project/S2GLP_Pulsed_Doppler/Libraries/XMCLib/inc\xmc_ccu4.h **** #endif
 764:C:/Users/Utente/Desktop/Tesi/Firmware_Software/DAVE project/S2GLP_Pulsed_Doppler/Libraries/XMCLib/inc\xmc_ccu4.h **** #if defined(CCU43)  
 765:C:/Users/Utente/Desktop/Tesi/Firmware_Software/DAVE project/S2GLP_Pulsed_Doppler/Libraries/XMCLib/inc\xmc_ccu4.h ****   tmp = tmp || (slice == CCU43_CC40);
 766:C:/Users/Utente/Desktop/Tesi/Firmware_Software/DAVE project/S2GLP_Pulsed_Doppler/Libraries/XMCLib/inc\xmc_ccu4.h **** #if defined(CCU43_CC41)  
 767:C:/Users/Utente/Desktop/Tesi/Firmware_Software/DAVE project/S2GLP_Pulsed_Doppler/Libraries/XMCLib/inc\xmc_ccu4.h ****   tmp = tmp || (slice == CCU43_CC41);
 768:C:/Users/Utente/Desktop/Tesi/Firmware_Software/DAVE project/S2GLP_Pulsed_Doppler/Libraries/XMCLib/inc\xmc_ccu4.h **** #endif
 769:C:/Users/Utente/Desktop/Tesi/Firmware_Software/DAVE project/S2GLP_Pulsed_Doppler/Libraries/XMCLib/inc\xmc_ccu4.h **** #if defined(CCU43_CC42)  
 770:C:/Users/Utente/Desktop/Tesi/Firmware_Software/DAVE project/S2GLP_Pulsed_Doppler/Libraries/XMCLib/inc\xmc_ccu4.h ****   tmp = tmp || (slice == CCU43_CC42);
 771:C:/Users/Utente/Desktop/Tesi/Firmware_Software/DAVE project/S2GLP_Pulsed_Doppler/Libraries/XMCLib/inc\xmc_ccu4.h **** #endif
 772:C:/Users/Utente/Desktop/Tesi/Firmware_Software/DAVE project/S2GLP_Pulsed_Doppler/Libraries/XMCLib/inc\xmc_ccu4.h **** #if defined(CCU43_CC43)  
 773:C:/Users/Utente/Desktop/Tesi/Firmware_Software/DAVE project/S2GLP_Pulsed_Doppler/Libraries/XMCLib/inc\xmc_ccu4.h ****   tmp = tmp || (slice == CCU43_CC43);
 774:C:/Users/Utente/Desktop/Tesi/Firmware_Software/DAVE project/S2GLP_Pulsed_Doppler/Libraries/XMCLib/inc\xmc_ccu4.h **** #endif
 775:C:/Users/Utente/Desktop/Tesi/Firmware_Software/DAVE project/S2GLP_Pulsed_Doppler/Libraries/XMCLib/inc\xmc_ccu4.h **** #endif 
 776:C:/Users/Utente/Desktop/Tesi/Firmware_Software/DAVE project/S2GLP_Pulsed_Doppler/Libraries/XMCLib/inc\xmc_ccu4.h ****   
 777:C:/Users/Utente/Desktop/Tesi/Firmware_Software/DAVE project/S2GLP_Pulsed_Doppler/Libraries/XMCLib/inc\xmc_ccu4.h ****   return tmp;  
 778:C:/Users/Utente/Desktop/Tesi/Firmware_Software/DAVE project/S2GLP_Pulsed_Doppler/Libraries/XMCLib/inc\xmc_ccu4.h **** } 
 779:C:/Users/Utente/Desktop/Tesi/Firmware_Software/DAVE project/S2GLP_Pulsed_Doppler/Libraries/XMCLib/inc\xmc_ccu4.h **** 
 780:C:/Users/Utente/Desktop/Tesi/Firmware_Software/DAVE project/S2GLP_Pulsed_Doppler/Libraries/XMCLib/inc\xmc_ccu4.h **** /**
 781:C:/Users/Utente/Desktop/Tesi/Firmware_Software/DAVE project/S2GLP_Pulsed_Doppler/Libraries/XMCLib/inc\xmc_ccu4.h ****  * @param module Constant pointer to CCU4 module
 782:C:/Users/Utente/Desktop/Tesi/Firmware_Software/DAVE project/S2GLP_Pulsed_Doppler/Libraries/XMCLib/inc\xmc_ccu4.h ****  * @param mcs_action multi-channel shadow transfer request configuration
 783:C:/Users/Utente/Desktop/Tesi/Firmware_Software/DAVE project/S2GLP_Pulsed_Doppler/Libraries/XMCLib/inc\xmc_ccu4.h ****  * @return <BR>
 784:C:/Users/Utente/Desktop/Tesi/Firmware_Software/DAVE project/S2GLP_Pulsed_Doppler/Libraries/XMCLib/inc\xmc_ccu4.h ****  *    None<BR>
 785:C:/Users/Utente/Desktop/Tesi/Firmware_Software/DAVE project/S2GLP_Pulsed_Doppler/Libraries/XMCLib/inc\xmc_ccu4.h ****  *
 786:C:/Users/Utente/Desktop/Tesi/Firmware_Software/DAVE project/S2GLP_Pulsed_Doppler/Libraries/XMCLib/inc\xmc_ccu4.h ****  * \par<b>Description:</b><br>
 787:C:/Users/Utente/Desktop/Tesi/Firmware_Software/DAVE project/S2GLP_Pulsed_Doppler/Libraries/XMCLib/inc\xmc_ccu4.h ****  *  Initialization of global register GCTRL.<br>\n
 788:C:/Users/Utente/Desktop/Tesi/Firmware_Software/DAVE project/S2GLP_Pulsed_Doppler/Libraries/XMCLib/inc\xmc_ccu4.h ****  *  As part of module initialization, behaviour of the module upon detection
 789:C:/Users/Utente/Desktop/Tesi/Firmware_Software/DAVE project/S2GLP_Pulsed_Doppler/Libraries/XMCLib/inc\xmc_ccu4.h ****  *  Multi-Channel Mode trigger is configured. Will also invoke the XMC_CCU4_EnableModule().
 790:C:/Users/Utente/Desktop/Tesi/Firmware_Software/DAVE project/S2GLP_Pulsed_Doppler/Libraries/XMCLib/inc\xmc_ccu4.h ****  *  The API call would bring up the required CCU4 module and also initialize the module for
 791:C:/Users/Utente/Desktop/Tesi/Firmware_Software/DAVE project/S2GLP_Pulsed_Doppler/Libraries/XMCLib/inc\xmc_ccu4.h ****  *  the required multi-channel shadow transfer.
 792:C:/Users/Utente/Desktop/Tesi/Firmware_Software/DAVE project/S2GLP_Pulsed_Doppler/Libraries/XMCLib/inc\xmc_ccu4.h ****  *
 793:C:/Users/Utente/Desktop/Tesi/Firmware_Software/DAVE project/S2GLP_Pulsed_Doppler/Libraries/XMCLib/inc\xmc_ccu4.h ****  * \par<b>Related APIs:</b><br>
 794:C:/Users/Utente/Desktop/Tesi/Firmware_Software/DAVE project/S2GLP_Pulsed_Doppler/Libraries/XMCLib/inc\xmc_ccu4.h ****  * XMC_CCU4_SLICE_CompareInit()<BR> XMC_CCU4_SLICE_CaptureInit().
 795:C:/Users/Utente/Desktop/Tesi/Firmware_Software/DAVE project/S2GLP_Pulsed_Doppler/Libraries/XMCLib/inc\xmc_ccu4.h ****  */
 796:C:/Users/Utente/Desktop/Tesi/Firmware_Software/DAVE project/S2GLP_Pulsed_Doppler/Libraries/XMCLib/inc\xmc_ccu4.h **** void XMC_CCU4_Init(XMC_CCU4_MODULE_t *const module, const XMC_CCU4_SLICE_MCMS_ACTION_t mcs_action);
 797:C:/Users/Utente/Desktop/Tesi/Firmware_Software/DAVE project/S2GLP_Pulsed_Doppler/Libraries/XMCLib/inc\xmc_ccu4.h **** 
 798:C:/Users/Utente/Desktop/Tesi/Firmware_Software/DAVE project/S2GLP_Pulsed_Doppler/Libraries/XMCLib/inc\xmc_ccu4.h **** /**
 799:C:/Users/Utente/Desktop/Tesi/Firmware_Software/DAVE project/S2GLP_Pulsed_Doppler/Libraries/XMCLib/inc\xmc_ccu4.h ****  * @param module Constant pointer to CCU4 module
 800:C:/Users/Utente/Desktop/Tesi/Firmware_Software/DAVE project/S2GLP_Pulsed_Doppler/Libraries/XMCLib/inc\xmc_ccu4.h ****  * @param clock Choice of input clock to the module
 801:C:/Users/Utente/Desktop/Tesi/Firmware_Software/DAVE project/S2GLP_Pulsed_Doppler/Libraries/XMCLib/inc\xmc_ccu4.h ****  * @return <BR>
 802:C:/Users/Utente/Desktop/Tesi/Firmware_Software/DAVE project/S2GLP_Pulsed_Doppler/Libraries/XMCLib/inc\xmc_ccu4.h ****  *    None<BR>
 803:C:/Users/Utente/Desktop/Tesi/Firmware_Software/DAVE project/S2GLP_Pulsed_Doppler/Libraries/XMCLib/inc\xmc_ccu4.h ****  *
 804:C:/Users/Utente/Desktop/Tesi/Firmware_Software/DAVE project/S2GLP_Pulsed_Doppler/Libraries/XMCLib/inc\xmc_ccu4.h ****  * \par<b>Description:</b><br>
 805:C:/Users/Utente/Desktop/Tesi/Firmware_Software/DAVE project/S2GLP_Pulsed_Doppler/Libraries/XMCLib/inc\xmc_ccu4.h ****  *  Selects the Module Clock by configuring GCTRL.PCIS bits.<BR>\n
 806:C:/Users/Utente/Desktop/Tesi/Firmware_Software/DAVE project/S2GLP_Pulsed_Doppler/Libraries/XMCLib/inc\xmc_ccu4.h ****  *  There are 3 potential clock sources. This API helps to select the required clock source.
 807:C:/Users/Utente/Desktop/Tesi/Firmware_Software/DAVE project/S2GLP_Pulsed_Doppler/Libraries/XMCLib/inc\xmc_ccu4.h ****  *  Call to this API is valid after the XMC_CCU4_Init().
 808:C:/Users/Utente/Desktop/Tesi/Firmware_Software/DAVE project/S2GLP_Pulsed_Doppler/Libraries/XMCLib/inc\xmc_ccu4.h ****  *
 809:C:/Users/Utente/Desktop/Tesi/Firmware_Software/DAVE project/S2GLP_Pulsed_Doppler/Libraries/XMCLib/inc\xmc_ccu4.h ****  * \par<b>Related APIs:</b><br>
 810:C:/Users/Utente/Desktop/Tesi/Firmware_Software/DAVE project/S2GLP_Pulsed_Doppler/Libraries/XMCLib/inc\xmc_ccu4.h ****  * None.<BR>
 811:C:/Users/Utente/Desktop/Tesi/Firmware_Software/DAVE project/S2GLP_Pulsed_Doppler/Libraries/XMCLib/inc\xmc_ccu4.h ****  */
 812:C:/Users/Utente/Desktop/Tesi/Firmware_Software/DAVE project/S2GLP_Pulsed_Doppler/Libraries/XMCLib/inc\xmc_ccu4.h **** void XMC_CCU4_SetModuleClock(XMC_CCU4_MODULE_t *const module, const XMC_CCU4_CLOCK_t clock);
 813:C:/Users/Utente/Desktop/Tesi/Firmware_Software/DAVE project/S2GLP_Pulsed_Doppler/Libraries/XMCLib/inc\xmc_ccu4.h **** 
 814:C:/Users/Utente/Desktop/Tesi/Firmware_Software/DAVE project/S2GLP_Pulsed_Doppler/Libraries/XMCLib/inc\xmc_ccu4.h **** /**
 815:C:/Users/Utente/Desktop/Tesi/Firmware_Software/DAVE project/S2GLP_Pulsed_Doppler/Libraries/XMCLib/inc\xmc_ccu4.h ****  * @param module Constant pointer to CCU4 module
 816:C:/Users/Utente/Desktop/Tesi/Firmware_Software/DAVE project/S2GLP_Pulsed_Doppler/Libraries/XMCLib/inc\xmc_ccu4.h ****  * @return <BR>
 817:C:/Users/Utente/Desktop/Tesi/Firmware_Software/DAVE project/S2GLP_Pulsed_Doppler/Libraries/XMCLib/inc\xmc_ccu4.h ****  *    None<BR>
 818:C:/Users/Utente/Desktop/Tesi/Firmware_Software/DAVE project/S2GLP_Pulsed_Doppler/Libraries/XMCLib/inc\xmc_ccu4.h ****  *
 819:C:/Users/Utente/Desktop/Tesi/Firmware_Software/DAVE project/S2GLP_Pulsed_Doppler/Libraries/XMCLib/inc\xmc_ccu4.h ****  * \par<b>Description:</b><br>
 820:C:/Users/Utente/Desktop/Tesi/Firmware_Software/DAVE project/S2GLP_Pulsed_Doppler/Libraries/XMCLib/inc\xmc_ccu4.h ****  * Enables the CCU4 module and brings it to active state.<BR>\n
 821:C:/Users/Utente/Desktop/Tesi/Firmware_Software/DAVE project/S2GLP_Pulsed_Doppler/Libraries/XMCLib/inc\xmc_ccu4.h ****  * Also disables the gating of the clock signal (if applicable depending on the device being select
 822:C:/Users/Utente/Desktop/Tesi/Firmware_Software/DAVE project/S2GLP_Pulsed_Doppler/Libraries/XMCLib/inc\xmc_ccu4.h ****  * Invoke this API before any operations are done on the CCU4 module. Invoked from  XMC_CCU4_Init()
 823:C:/Users/Utente/Desktop/Tesi/Firmware_Software/DAVE project/S2GLP_Pulsed_Doppler/Libraries/XMCLib/inc\xmc_ccu4.h ****  *
 824:C:/Users/Utente/Desktop/Tesi/Firmware_Software/DAVE project/S2GLP_Pulsed_Doppler/Libraries/XMCLib/inc\xmc_ccu4.h ****  * \par<b>Related APIs:</b><br>
 825:C:/Users/Utente/Desktop/Tesi/Firmware_Software/DAVE project/S2GLP_Pulsed_Doppler/Libraries/XMCLib/inc\xmc_ccu4.h ****  * XMC_CCU4_SetModuleClock()<BR> XMC_CCU4_DisableModule()<BR> XMC_CCU4_StartPrescaler().
 826:C:/Users/Utente/Desktop/Tesi/Firmware_Software/DAVE project/S2GLP_Pulsed_Doppler/Libraries/XMCLib/inc\xmc_ccu4.h ****  */
 827:C:/Users/Utente/Desktop/Tesi/Firmware_Software/DAVE project/S2GLP_Pulsed_Doppler/Libraries/XMCLib/inc\xmc_ccu4.h **** void XMC_CCU4_EnableModule(XMC_CCU4_MODULE_t *const module);
 828:C:/Users/Utente/Desktop/Tesi/Firmware_Software/DAVE project/S2GLP_Pulsed_Doppler/Libraries/XMCLib/inc\xmc_ccu4.h **** 
 829:C:/Users/Utente/Desktop/Tesi/Firmware_Software/DAVE project/S2GLP_Pulsed_Doppler/Libraries/XMCLib/inc\xmc_ccu4.h **** /**
 830:C:/Users/Utente/Desktop/Tesi/Firmware_Software/DAVE project/S2GLP_Pulsed_Doppler/Libraries/XMCLib/inc\xmc_ccu4.h ****  * @param module Constant pointer to CCU4 module
 831:C:/Users/Utente/Desktop/Tesi/Firmware_Software/DAVE project/S2GLP_Pulsed_Doppler/Libraries/XMCLib/inc\xmc_ccu4.h ****  * @return <BR>
 832:C:/Users/Utente/Desktop/Tesi/Firmware_Software/DAVE project/S2GLP_Pulsed_Doppler/Libraries/XMCLib/inc\xmc_ccu4.h ****  *    None<BR>
 833:C:/Users/Utente/Desktop/Tesi/Firmware_Software/DAVE project/S2GLP_Pulsed_Doppler/Libraries/XMCLib/inc\xmc_ccu4.h ****  *
 834:C:/Users/Utente/Desktop/Tesi/Firmware_Software/DAVE project/S2GLP_Pulsed_Doppler/Libraries/XMCLib/inc\xmc_ccu4.h ****  * \par<b>Description:</b><br>
 835:C:/Users/Utente/Desktop/Tesi/Firmware_Software/DAVE project/S2GLP_Pulsed_Doppler/Libraries/XMCLib/inc\xmc_ccu4.h ****  * Brings the CCU4 module to reset state and enables gating of the clock signal(if applicable depen
 836:C:/Users/Utente/Desktop/Tesi/Firmware_Software/DAVE project/S2GLP_Pulsed_Doppler/Libraries/XMCLib/inc\xmc_ccu4.h ****  * on the device being selected).<BR>\n
 837:C:/Users/Utente/Desktop/Tesi/Firmware_Software/DAVE project/S2GLP_Pulsed_Doppler/Libraries/XMCLib/inc\xmc_ccu4.h ****  * Invoke this API when a CCU4 module needs to be disabled completely.
 838:C:/Users/Utente/Desktop/Tesi/Firmware_Software/DAVE project/S2GLP_Pulsed_Doppler/Libraries/XMCLib/inc\xmc_ccu4.h ****  * Any operation on the CCU4 module will have no effect after this API is called.
 839:C:/Users/Utente/Desktop/Tesi/Firmware_Software/DAVE project/S2GLP_Pulsed_Doppler/Libraries/XMCLib/inc\xmc_ccu4.h ****  *
 840:C:/Users/Utente/Desktop/Tesi/Firmware_Software/DAVE project/S2GLP_Pulsed_Doppler/Libraries/XMCLib/inc\xmc_ccu4.h ****  * \par<b>Related APIs:</b><br>
 841:C:/Users/Utente/Desktop/Tesi/Firmware_Software/DAVE project/S2GLP_Pulsed_Doppler/Libraries/XMCLib/inc\xmc_ccu4.h ****  * XMC_CCU4_EnableModule()<BR> XMC_CCU4_DisableModule().
 842:C:/Users/Utente/Desktop/Tesi/Firmware_Software/DAVE project/S2GLP_Pulsed_Doppler/Libraries/XMCLib/inc\xmc_ccu4.h ****  */
 843:C:/Users/Utente/Desktop/Tesi/Firmware_Software/DAVE project/S2GLP_Pulsed_Doppler/Libraries/XMCLib/inc\xmc_ccu4.h **** void XMC_CCU4_DisableModule(XMC_CCU4_MODULE_t *const module);
 844:C:/Users/Utente/Desktop/Tesi/Firmware_Software/DAVE project/S2GLP_Pulsed_Doppler/Libraries/XMCLib/inc\xmc_ccu4.h **** 
 845:C:/Users/Utente/Desktop/Tesi/Firmware_Software/DAVE project/S2GLP_Pulsed_Doppler/Libraries/XMCLib/inc\xmc_ccu4.h **** /**
 846:C:/Users/Utente/Desktop/Tesi/Firmware_Software/DAVE project/S2GLP_Pulsed_Doppler/Libraries/XMCLib/inc\xmc_ccu4.h ****  * @param module Constant pointer to CCU4 module
 847:C:/Users/Utente/Desktop/Tesi/Firmware_Software/DAVE project/S2GLP_Pulsed_Doppler/Libraries/XMCLib/inc\xmc_ccu4.h ****  * @return <BR>
 848:C:/Users/Utente/Desktop/Tesi/Firmware_Software/DAVE project/S2GLP_Pulsed_Doppler/Libraries/XMCLib/inc\xmc_ccu4.h ****  *    None<BR>
 849:C:/Users/Utente/Desktop/Tesi/Firmware_Software/DAVE project/S2GLP_Pulsed_Doppler/Libraries/XMCLib/inc\xmc_ccu4.h ****  *
 850:C:/Users/Utente/Desktop/Tesi/Firmware_Software/DAVE project/S2GLP_Pulsed_Doppler/Libraries/XMCLib/inc\xmc_ccu4.h ****  * \par<b>Description:</b><br>
 851:C:/Users/Utente/Desktop/Tesi/Firmware_Software/DAVE project/S2GLP_Pulsed_Doppler/Libraries/XMCLib/inc\xmc_ccu4.h ****  *  Starts the prescaler and restores clocks to the timer slices, by setting GIDLC.SPRB bit.<BR>\n
 852:C:/Users/Utente/Desktop/Tesi/Firmware_Software/DAVE project/S2GLP_Pulsed_Doppler/Libraries/XMCLib/inc\xmc_ccu4.h ****  *  Once the input to the prescaler has been chosen and the prescaler divider of all slices program
 853:C:/Users/Utente/Desktop/Tesi/Firmware_Software/DAVE project/S2GLP_Pulsed_Doppler/Libraries/XMCLib/inc\xmc_ccu4.h ****  *  the prescaler itself may be started. Invoke this  API after XMC_CCU4_Init()
 854:C:/Users/Utente/Desktop/Tesi/Firmware_Software/DAVE project/S2GLP_Pulsed_Doppler/Libraries/XMCLib/inc\xmc_ccu4.h ****  *  (Mandatory to fully initialize the module).Directly accessed register is GIDLC.
 855:C:/Users/Utente/Desktop/Tesi/Firmware_Software/DAVE project/S2GLP_Pulsed_Doppler/Libraries/XMCLib/inc\xmc_ccu4.h ****  *
 856:C:/Users/Utente/Desktop/Tesi/Firmware_Software/DAVE project/S2GLP_Pulsed_Doppler/Libraries/XMCLib/inc\xmc_ccu4.h ****  * \par<b>Related APIs:</b><br>
 857:C:/Users/Utente/Desktop/Tesi/Firmware_Software/DAVE project/S2GLP_Pulsed_Doppler/Libraries/XMCLib/inc\xmc_ccu4.h ****  * XMC_CCU4_Init()<BR> XMC_CCU4_EnableClock()<BR> XMC_CCU4_DisableClock()<BR> XMC_CCU4_StartPrescal
 858:C:/Users/Utente/Desktop/Tesi/Firmware_Software/DAVE project/S2GLP_Pulsed_Doppler/Libraries/XMCLib/inc\xmc_ccu4.h ****  * XMC_CCU4_StopPrescaler().
 859:C:/Users/Utente/Desktop/Tesi/Firmware_Software/DAVE project/S2GLP_Pulsed_Doppler/Libraries/XMCLib/inc\xmc_ccu4.h ****  */
 860:C:/Users/Utente/Desktop/Tesi/Firmware_Software/DAVE project/S2GLP_Pulsed_Doppler/Libraries/XMCLib/inc\xmc_ccu4.h **** __STATIC_INLINE void XMC_CCU4_StartPrescaler(XMC_CCU4_MODULE_t *const module)
 861:C:/Users/Utente/Desktop/Tesi/Firmware_Software/DAVE project/S2GLP_Pulsed_Doppler/Libraries/XMCLib/inc\xmc_ccu4.h **** {
 862:C:/Users/Utente/Desktop/Tesi/Firmware_Software/DAVE project/S2GLP_Pulsed_Doppler/Libraries/XMCLib/inc\xmc_ccu4.h ****   XMC_ASSERT("XMC_CCU4_StartPrescaler:Invalid Module Pointer", XMC_CCU4_IsValidModule(module));
 863:C:/Users/Utente/Desktop/Tesi/Firmware_Software/DAVE project/S2GLP_Pulsed_Doppler/Libraries/XMCLib/inc\xmc_ccu4.h ****   module->GIDLC |= (uint32_t) CCU4_GIDLC_SPRB_Msk;
 435              	 .loc 2 863 0
 436 0024 E368     	 ldr r3,[r4,#12]
 437 0026 43F48073 	 orr r3,r3,#256
 438 002a E360     	 str r3,[r4,#12]
 439              	.LBE94:
 440              	.LBE93:
 319:../Libraries/XMCLib/src/xmc_ccu4.c ****   uint32_t gctrl;
 320:../Libraries/XMCLib/src/xmc_ccu4.c ****   
 321:../Libraries/XMCLib/src/xmc_ccu4.c ****   XMC_ASSERT("XMC_CCU4_Init:Invalid module pointer", XMC_CCU4_IsValidModule(module));
 322:../Libraries/XMCLib/src/xmc_ccu4.c ****   XMC_ASSERT("XMC_CCU4_Init:Invalid mcs action", XMC_CCU4_SLICE_CHECK_MCS_ACTION(mcs_action));
 323:../Libraries/XMCLib/src/xmc_ccu4.c **** 
 324:../Libraries/XMCLib/src/xmc_ccu4.c ****   /* Enable CCU4 module */
 325:../Libraries/XMCLib/src/xmc_ccu4.c ****   XMC_CCU4_EnableModule(module);
 326:../Libraries/XMCLib/src/xmc_ccu4.c ****   /* Start the prescaler */
 327:../Libraries/XMCLib/src/xmc_ccu4.c ****   XMC_CCU4_StartPrescaler(module);
 328:../Libraries/XMCLib/src/xmc_ccu4.c ****   
 329:../Libraries/XMCLib/src/xmc_ccu4.c ****   gctrl = module->GCTRL;
 441              	 .loc 1 329 0
 442 002c 2168     	 ldr r1,[r4]
 443              	.LVL35:
 330:../Libraries/XMCLib/src/xmc_ccu4.c ****   gctrl &= ~((uint32_t) CCU4_GCTRL_MSDE_Msk);
 444              	 .loc 1 330 0
 445 002e 21F44041 	 bic r1,r1,#49152
 446              	.LVL36:
 331:../Libraries/XMCLib/src/xmc_ccu4.c ****   gctrl |= ((uint32_t) mcs_action) << CCU4_GCTRL_MSDE_Pos;
 447              	 .loc 1 331 0
 448 0032 41EA8531 	 orr r1,r1,r5,lsl#14
 449              	.LVL37:
 332:../Libraries/XMCLib/src/xmc_ccu4.c ****   
 333:../Libraries/XMCLib/src/xmc_ccu4.c ****   module->GCTRL = gctrl;
 450              	 .loc 1 333 0
 451 0036 2160     	 str r1,[r4]
 452 0038 38BD     	 pop {r3,r4,r5,pc}
 453              	.LVL38:
 454              	.L35:
 455              	.LBB95:
 456              	.LBB91:
 457              	.LBB78:
 458              	.LBB74:
 261:../Libraries/XMCLib/src/xmc_ccu4.c ****   }
 459              	 .loc 1 261 0
 460 003a 1248     	 ldr r0,.L36+16
 461 003c FFF7FEFF 	 bl XMC_SCU_CLOCK_UngatePeripheralClock
 462              	.LVL39:
 463              	.LBE74:
 464              	.LBE78:
 465              	.LBB79:
 466              	.LBB80:
 198:../Libraries/XMCLib/src/xmc_ccu4.c ****   }
 467              	 .loc 1 198 0
 468 0040 1048     	 ldr r0,.L36+16
 469 0042 FFF7FEFF 	 bl XMC_SCU_RESET_DeassertPeripheralReset
 470              	.LVL40:
 471 0046 EDE7     	 b .L28
 472              	.LVL41:
 473              	.L32:
 474              	.LBE80:
 475              	.LBE79:
 476              	.LBB84:
 477              	.LBB75:
 244:../Libraries/XMCLib/src/xmc_ccu4.c ****   }
 478              	 .loc 1 244 0
 479 0048 0420     	 movs r0,#4
 480 004a FFF7FEFF 	 bl XMC_SCU_CLOCK_UngatePeripheralClock
 481              	.LVL42:
 482              	.LBE75:
 483              	.LBE84:
 484              	.LBB85:
 485              	.LBB81:
 181:../Libraries/XMCLib/src/xmc_ccu4.c ****   }
 486              	 .loc 1 181 0
 487 004e 0420     	 movs r0,#4
 488 0050 FFF7FEFF 	 bl XMC_SCU_RESET_DeassertPeripheralReset
 489              	.LVL43:
 490 0054 E6E7     	 b .L28
 491              	.LVL44:
 492              	.L33:
 493              	.LBE81:
 494              	.LBE85:
 495              	.LBB86:
 496              	.LBB76:
 249:../Libraries/XMCLib/src/xmc_ccu4.c ****   }
 497              	 .loc 1 249 0
 498 0056 0820     	 movs r0,#8
 499 0058 FFF7FEFF 	 bl XMC_SCU_CLOCK_UngatePeripheralClock
 500              	.LVL45:
 501              	.LBE76:
 502              	.LBE86:
 503              	.LBB87:
 504              	.LBB82:
 186:../Libraries/XMCLib/src/xmc_ccu4.c ****   }
 505              	 .loc 1 186 0
 506 005c 0820     	 movs r0,#8
 507 005e FFF7FEFF 	 bl XMC_SCU_RESET_DeassertPeripheralReset
 508              	.LVL46:
 509 0062 DFE7     	 b .L28
 510              	.LVL47:
 511              	.L34:
 512              	.LBE82:
 513              	.LBE87:
 514              	.LBB88:
 515              	.LBB77:
 255:../Libraries/XMCLib/src/xmc_ccu4.c ****   }
 516              	 .loc 1 255 0
 517 0064 1020     	 movs r0,#16
 518 0066 FFF7FEFF 	 bl XMC_SCU_CLOCK_UngatePeripheralClock
 519              	.LVL48:
 520              	.LBE77:
 521              	.LBE88:
 522              	.LBB89:
 523              	.LBB83:
 192:../Libraries/XMCLib/src/xmc_ccu4.c ****   }
 524              	 .loc 1 192 0
 525 006a 1020     	 movs r0,#16
 526 006c FFF7FEFF 	 bl XMC_SCU_RESET_DeassertPeripheralReset
 527              	.LVL49:
 528 0070 D8E7     	 b .L28
 529              	.L37:
 530 0072 00BF     	 .align 2
 531              	.L36:
 532 0074 00C00040 	 .word 1073790976
 533 0078 00000140 	 .word 1073807360
 534 007c 00400140 	 .word 1073823744
 535 0080 00400048 	 .word 1207975936
 536 0084 01000010 	 .word 268435457
 537              	.LBE83:
 538              	.LBE89:
 539              	.LBE91:
 540              	.LBE95:
 541              	 .cfi_endproc
 542              	.LFE209:
 544              	 .section .text.XMC_CCU4_SetModuleClock,"ax",%progbits
 545              	 .align 2
 546              	 .global XMC_CCU4_SetModuleClock
 547              	 .thumb
 548              	 .thumb_func
 550              	XMC_CCU4_SetModuleClock:
 551              	.LFB210:
 334:../Libraries/XMCLib/src/xmc_ccu4.c **** }
 335:../Libraries/XMCLib/src/xmc_ccu4.c **** 
 336:../Libraries/XMCLib/src/xmc_ccu4.c **** /* API to select CCU4 module clock */
 337:../Libraries/XMCLib/src/xmc_ccu4.c **** void XMC_CCU4_SetModuleClock(XMC_CCU4_MODULE_t *const module, const XMC_CCU4_CLOCK_t clock)
 338:../Libraries/XMCLib/src/xmc_ccu4.c **** {
 552              	 .loc 1 338 0
 553              	 .cfi_startproc
 554              	 
 555              	 
 556              	 
 557              	.LVL50:
 339:../Libraries/XMCLib/src/xmc_ccu4.c ****   uint32_t gctrl;
 340:../Libraries/XMCLib/src/xmc_ccu4.c **** 
 341:../Libraries/XMCLib/src/xmc_ccu4.c ****   XMC_ASSERT("XMC_CCU4_SetModuleClock:Invalid Module Pointer", XMC_CCU4_IsValidModule(module));
 342:../Libraries/XMCLib/src/xmc_ccu4.c ****   XMC_ASSERT("XMC_CCU4_SetModuleClock:Invalid Module Clock", XMC_CCU4_SLICE_CHECK_CLOCK(clock));
 343:../Libraries/XMCLib/src/xmc_ccu4.c **** 
 344:../Libraries/XMCLib/src/xmc_ccu4.c ****   gctrl = module->GCTRL;
 558              	 .loc 1 344 0
 559 0000 0368     	 ldr r3,[r0]
 560              	.LVL51:
 345:../Libraries/XMCLib/src/xmc_ccu4.c ****   gctrl &= ~((uint32_t) CCU4_GCTRL_PCIS_Msk);
 561              	 .loc 1 345 0
 562 0002 23F03003 	 bic r3,r3,#48
 563              	.LVL52:
 346:../Libraries/XMCLib/src/xmc_ccu4.c ****   gctrl |= ((uint32_t) clock) << CCU4_GCTRL_PCIS_Pos;
 564              	 .loc 1 346 0
 565 0006 43EA0111 	 orr r1,r3,r1,lsl#4
 566              	.LVL53:
 347:../Libraries/XMCLib/src/xmc_ccu4.c ****   
 348:../Libraries/XMCLib/src/xmc_ccu4.c ****   module->GCTRL = gctrl;
 567              	 .loc 1 348 0
 568 000a 0160     	 str r1,[r0]
 569 000c 7047     	 bx lr
 570              	 .cfi_endproc
 571              	.LFE210:
 573 000e 00BF     	 .section .text.XMC_CCU4_SetMultiChannelShadowTransferMode,"ax",%progbits
 574              	 .align 2
 575              	 .global XMC_CCU4_SetMultiChannelShadowTransferMode
 576              	 .thumb
 577              	 .thumb_func
 579              	XMC_CCU4_SetMultiChannelShadowTransferMode:
 580              	.LFB211:
 349:../Libraries/XMCLib/src/xmc_ccu4.c **** }
 350:../Libraries/XMCLib/src/xmc_ccu4.c **** 
 351:../Libraries/XMCLib/src/xmc_ccu4.c **** /* API to configure the multichannel shadow transfer request via SW and via the CCU4x.MCSS input. *
 352:../Libraries/XMCLib/src/xmc_ccu4.c **** void XMC_CCU4_SetMultiChannelShadowTransferMode(XMC_CCU4_MODULE_t *const module, const uint32_t sli
 353:../Libraries/XMCLib/src/xmc_ccu4.c **** {
 581              	 .loc 1 353 0
 582              	 .cfi_startproc
 583              	 
 584              	 
 585              	 
 586              	.LVL54:
 354:../Libraries/XMCLib/src/xmc_ccu4.c ****   uint32_t gctrl;
 355:../Libraries/XMCLib/src/xmc_ccu4.c **** 
 356:../Libraries/XMCLib/src/xmc_ccu4.c ****   XMC_ASSERT("XMC_CCU4_SetMultiChannelShadowTransferMode:Invalid module Pointer", XMC_CCU4_IsValidM
 357:../Libraries/XMCLib/src/xmc_ccu4.c ****   
 358:../Libraries/XMCLib/src/xmc_ccu4.c ****   gctrl = module->GCTRL;
 587              	 .loc 1 358 0
 588 0000 0268     	 ldr r2,[r0]
 589              	.LVL55:
 359:../Libraries/XMCLib/src/xmc_ccu4.c ****   gctrl &= ~((uint32_t)slice_mode_msk >> 16U);
 360:../Libraries/XMCLib/src/xmc_ccu4.c ****   gctrl |= ((uint32_t)slice_mode_msk & 0xFFFFU);
 590              	 .loc 1 360 0
 591 0002 8BB2     	 uxth r3,r1
 359:../Libraries/XMCLib/src/xmc_ccu4.c ****   gctrl &= ~((uint32_t)slice_mode_msk >> 16U);
 592              	 .loc 1 359 0
 593 0004 22EA1141 	 bic r1,r2,r1,lsr#16
 594              	.LVL56:
 595              	 .loc 1 360 0
 596 0008 1943     	 orrs r1,r1,r3
 597              	.LVL57:
 361:../Libraries/XMCLib/src/xmc_ccu4.c ****   module->GCTRL = gctrl;
 598              	 .loc 1 361 0
 599 000a 0160     	 str r1,[r0]
 600 000c 7047     	 bx lr
 601              	 .cfi_endproc
 602              	.LFE211:
 604 000e 00BF     	 .section .text.XMC_CCU4_SLICE_CompareInit,"ax",%progbits
 605              	 .align 2
 606              	 .global XMC_CCU4_SLICE_CompareInit
 607              	 .thumb
 608              	 .thumb_func
 610              	XMC_CCU4_SLICE_CompareInit:
 611              	.LFB212:
 362:../Libraries/XMCLib/src/xmc_ccu4.c **** }
 363:../Libraries/XMCLib/src/xmc_ccu4.c **** 
 364:../Libraries/XMCLib/src/xmc_ccu4.c **** /* API to configure CC4 Slice as Timer */
 365:../Libraries/XMCLib/src/xmc_ccu4.c **** void XMC_CCU4_SLICE_CompareInit(XMC_CCU4_SLICE_t *const slice,
 366:../Libraries/XMCLib/src/xmc_ccu4.c ****                                 const XMC_CCU4_SLICE_COMPARE_CONFIG_t *const compare_init)
 367:../Libraries/XMCLib/src/xmc_ccu4.c **** {
 612              	 .loc 1 367 0
 613              	 .cfi_startproc
 614              	 
 615              	 
 616              	 
 617              	.LVL58:
 618 0000 70B4     	 push {r4,r5,r6}
 619              	.LCFI17:
 620              	 .cfi_def_cfa_offset 12
 621              	 .cfi_offset 4,-12
 622              	 .cfi_offset 5,-8
 623              	 .cfi_offset 6,-4
 368:../Libraries/XMCLib/src/xmc_ccu4.c ****   XMC_ASSERT("XMC_CCU4_SLICE_CompareInit:Invalid Slice Pointer", XMC_CCU4_IsValidSlice(slice));
 369:../Libraries/XMCLib/src/xmc_ccu4.c ****   XMC_ASSERT("XMC_CCU4_SLICE_CompareInit:Compare Init Pointer is NULL",
 370:../Libraries/XMCLib/src/xmc_ccu4.c ****              (XMC_CCU4_SLICE_COMPARE_CONFIG_t *) NULL != compare_init);
 371:../Libraries/XMCLib/src/xmc_ccu4.c **** 
 372:../Libraries/XMCLib/src/xmc_ccu4.c ****   /* Program the timer mode */
 373:../Libraries/XMCLib/src/xmc_ccu4.c ****   slice->TC = compare_init->tc;
 374:../Libraries/XMCLib/src/xmc_ccu4.c ****   /* Enable the timer concatenation */
 375:../Libraries/XMCLib/src/xmc_ccu4.c ****   slice->CMC = ((uint32_t) compare_init->timer_concatenation << CCU4_CC4_CMC_TCE_Pos);
 624              	 .loc 1 375 0
 625 0002 4B79     	 ldrb r3,[r1,#5]
 376:../Libraries/XMCLib/src/xmc_ccu4.c ****   /* Program initial prescaler divider value */
 377:../Libraries/XMCLib/src/xmc_ccu4.c ****   slice->PSC = (uint32_t) compare_init->prescaler_initval;
 626              	 .loc 1 377 0
 627 0004 0E79     	 ldrb r6,[r1,#4]
 373:../Libraries/XMCLib/src/xmc_ccu4.c ****   /* Enable the timer concatenation */
 628              	 .loc 1 373 0
 629 0006 0968     	 ldr r1,[r1]
 630              	.LVL59:
 631 0008 4161     	 str r1,[r0,#20]
 378:../Libraries/XMCLib/src/xmc_ccu4.c ****   /* Program the dither compare value */
 379:../Libraries/XMCLib/src/xmc_ccu4.c ****   slice->DITS = (uint32_t) compare_init->dither_limit;
 380:../Libraries/XMCLib/src/xmc_ccu4.c ****   /* Program timer output passive level */
 381:../Libraries/XMCLib/src/xmc_ccu4.c ****   slice->PSL = (uint32_t) compare_init->passive_level;
 632              	 .loc 1 381 0
 633 000a 1C46     	 mov r4,r3
 379:../Libraries/XMCLib/src/xmc_ccu4.c ****   /* Program timer output passive level */
 634              	 .loc 1 379 0
 635 000c 1D46     	 mov r5,r3
 382:../Libraries/XMCLib/src/xmc_ccu4.c ****   /* Program floating prescaler compare value */
 383:../Libraries/XMCLib/src/xmc_ccu4.c ****   slice->FPCS = (uint32_t) compare_init->float_limit;
 636              	 .loc 1 383 0
 637 000e 3246     	 mov r2,r6
 375:../Libraries/XMCLib/src/xmc_ccu4.c ****   /* Program initial prescaler divider value */
 638              	 .loc 1 375 0
 639 0010 C3F34013 	 ubfx r3,r3,#5,#1
 377:../Libraries/XMCLib/src/xmc_ccu4.c ****   /* Program the dither compare value */
 640              	 .loc 1 377 0
 641 0014 06F00F06 	 and r6,r6,#15
 379:../Libraries/XMCLib/src/xmc_ccu4.c ****   /* Program timer output passive level */
 642              	 .loc 1 379 0
 643 0018 05F00F05 	 and r5,r5,#15
 381:../Libraries/XMCLib/src/xmc_ccu4.c ****   /* Program floating prescaler compare value */
 644              	 .loc 1 381 0
 645 001c C4F30011 	 ubfx r1,r4,#4,#1
 375:../Libraries/XMCLib/src/xmc_ccu4.c ****   /* Program initial prescaler divider value */
 646              	 .loc 1 375 0
 647 0020 1B05     	 lsls r3,r3,#20
 648              	 .loc 1 383 0
 649 0022 1209     	 lsrs r2,r2,#4
 375:../Libraries/XMCLib/src/xmc_ccu4.c ****   /* Program initial prescaler divider value */
 650              	 .loc 1 375 0
 651 0024 4360     	 str r3,[r0,#4]
 377:../Libraries/XMCLib/src/xmc_ccu4.c ****   /* Program the dither compare value */
 652              	 .loc 1 377 0
 653 0026 4662     	 str r6,[r0,#36]
 379:../Libraries/XMCLib/src/xmc_ccu4.c ****   /* Program timer output passive level */
 654              	 .loc 1 379 0
 655 0028 0562     	 str r5,[r0,#32]
 381:../Libraries/XMCLib/src/xmc_ccu4.c ****   /* Program floating prescaler compare value */
 656              	 .loc 1 381 0
 657 002a 8161     	 str r1,[r0,#24]
 384:../Libraries/XMCLib/src/xmc_ccu4.c **** }
 658              	 .loc 1 384 0
 659 002c 70BC     	 pop {r4,r5,r6}
 660              	.LCFI18:
 661              	 .cfi_restore 6
 662              	 .cfi_restore 5
 663              	 .cfi_restore 4
 664              	 .cfi_def_cfa_offset 0
 383:../Libraries/XMCLib/src/xmc_ccu4.c **** }
 665              	 .loc 1 383 0
 666 002e C262     	 str r2,[r0,#44]
 667              	 .loc 1 384 0
 668 0030 7047     	 bx lr
 669              	 .cfi_endproc
 670              	.LFE212:
 672 0032 00BF     	 .section .text.XMC_CCU4_SLICE_CaptureInit,"ax",%progbits
 673              	 .align 2
 674              	 .global XMC_CCU4_SLICE_CaptureInit
 675              	 .thumb
 676              	 .thumb_func
 678              	XMC_CCU4_SLICE_CaptureInit:
 679              	.LFB213:
 385:../Libraries/XMCLib/src/xmc_ccu4.c **** 
 386:../Libraries/XMCLib/src/xmc_ccu4.c **** /* API to configure CC4 Slice for Capture */
 387:../Libraries/XMCLib/src/xmc_ccu4.c **** void XMC_CCU4_SLICE_CaptureInit(XMC_CCU4_SLICE_t *const slice,
 388:../Libraries/XMCLib/src/xmc_ccu4.c ****                             const XMC_CCU4_SLICE_CAPTURE_CONFIG_t *const capture_init)
 389:../Libraries/XMCLib/src/xmc_ccu4.c **** {
 680              	 .loc 1 389 0
 681              	 .cfi_startproc
 682              	 
 683              	 
 684              	 
 685              	.LVL60:
 686 0000 10B4     	 push {r4}
 687              	.LCFI19:
 688              	 .cfi_def_cfa_offset 4
 689              	 .cfi_offset 4,-4
 390:../Libraries/XMCLib/src/xmc_ccu4.c ****   XMC_ASSERT("XMC_CCU4_SLICE_CaptureInit:Invalid Slice Pointer", XMC_CCU4_IsValidSlice(slice));
 391:../Libraries/XMCLib/src/xmc_ccu4.c ****   XMC_ASSERT("XMC_CCU4_SLICE_CaptureInit:Capture Init Pointer is NULL",
 392:../Libraries/XMCLib/src/xmc_ccu4.c ****              (XMC_CCU4_SLICE_CAPTURE_CONFIG_t *) NULL != capture_init);
 393:../Libraries/XMCLib/src/xmc_ccu4.c **** 
 394:../Libraries/XMCLib/src/xmc_ccu4.c ****   /* Program the capture mode */
 395:../Libraries/XMCLib/src/xmc_ccu4.c ****   slice->TC = capture_init->tc;
 396:../Libraries/XMCLib/src/xmc_ccu4.c ****   /* Enable the timer concatenation */
 397:../Libraries/XMCLib/src/xmc_ccu4.c ****   slice->CMC = ((uint32_t)capture_init->timer_concatenation << CCU4_CC4_CMC_TCE_Pos);
 690              	 .loc 1 397 0
 691 0002 4B79     	 ldrb r3,[r1,#5]
 398:../Libraries/XMCLib/src/xmc_ccu4.c ****   /* Program initial prescaler divider value */
 399:../Libraries/XMCLib/src/xmc_ccu4.c ****   slice->PSC = (uint32_t) capture_init->prescaler_initval;
 692              	 .loc 1 399 0
 693 0004 0C79     	 ldrb r4,[r1,#4]
 395:../Libraries/XMCLib/src/xmc_ccu4.c ****   /* Enable the timer concatenation */
 694              	 .loc 1 395 0
 695 0006 0968     	 ldr r1,[r1]
 696              	.LVL61:
 697 0008 4161     	 str r1,[r0,#20]
 397:../Libraries/XMCLib/src/xmc_ccu4.c ****   /* Program initial prescaler divider value */
 698              	 .loc 1 397 0
 699 000a 03F00103 	 and r3,r3,#1
 700              	 .loc 1 399 0
 701 000e 04F00F01 	 and r1,r4,#15
 400:../Libraries/XMCLib/src/xmc_ccu4.c ****   /* Program initial floating prescaler compare value */
 401:../Libraries/XMCLib/src/xmc_ccu4.c ****   slice->FPCS = (uint32_t) capture_init->float_limit;
 702              	 .loc 1 401 0
 703 0012 2209     	 lsrs r2,r4,#4
 397:../Libraries/XMCLib/src/xmc_ccu4.c ****   /* Program initial prescaler divider value */
 704              	 .loc 1 397 0
 705 0014 1B05     	 lsls r3,r3,#20
 706 0016 4360     	 str r3,[r0,#4]
 402:../Libraries/XMCLib/src/xmc_ccu4.c **** }
 707              	 .loc 1 402 0
 708 0018 5DF8044B 	 ldr r4,[sp],#4
 709              	.LCFI20:
 710              	 .cfi_restore 4
 711              	 .cfi_def_cfa_offset 0
 399:../Libraries/XMCLib/src/xmc_ccu4.c ****   /* Program initial floating prescaler compare value */
 712              	 .loc 1 399 0
 713 001c 4162     	 str r1,[r0,#36]
 401:../Libraries/XMCLib/src/xmc_ccu4.c **** }
 714              	 .loc 1 401 0
 715 001e C262     	 str r2,[r0,#44]
 716              	 .loc 1 402 0
 717 0020 7047     	 bx lr
 718              	 .cfi_endproc
 719              	.LFE213:
 721 0022 00BF     	 .section .text.XMC_CCU4_SLICE_StartConfig,"ax",%progbits
 722              	 .align 2
 723              	 .global XMC_CCU4_SLICE_StartConfig
 724              	 .thumb
 725              	 .thumb_func
 727              	XMC_CCU4_SLICE_StartConfig:
 728              	.LFB214:
 403:../Libraries/XMCLib/src/xmc_ccu4.c **** 
 404:../Libraries/XMCLib/src/xmc_ccu4.c **** 
 405:../Libraries/XMCLib/src/xmc_ccu4.c **** /* API to configure the Start trigger function of a slice */
 406:../Libraries/XMCLib/src/xmc_ccu4.c **** void XMC_CCU4_SLICE_StartConfig(XMC_CCU4_SLICE_t *const slice,
 407:../Libraries/XMCLib/src/xmc_ccu4.c ****                             const XMC_CCU4_SLICE_EVENT_t event,
 408:../Libraries/XMCLib/src/xmc_ccu4.c ****                                 const XMC_CCU4_SLICE_START_MODE_t start_mode)
 409:../Libraries/XMCLib/src/xmc_ccu4.c **** {
 729              	 .loc 1 409 0
 730              	 .cfi_startproc
 731              	 
 732              	 
 733              	 
 734              	.LVL62:
 410:../Libraries/XMCLib/src/xmc_ccu4.c ****   uint32_t cmc;
 411:../Libraries/XMCLib/src/xmc_ccu4.c ****   uint32_t tc;
 412:../Libraries/XMCLib/src/xmc_ccu4.c ****   
 413:../Libraries/XMCLib/src/xmc_ccu4.c ****   XMC_ASSERT("XMC_CCU4_SLICE_StartConfig:Invalid Slice Pointer", XMC_CCU4_IsValidSlice(slice));
 414:../Libraries/XMCLib/src/xmc_ccu4.c ****   XMC_ASSERT("XMC_CCU4_SLICE_StartConfig:Invalid Event ID", XMC_CCU4_SLICE_CHECK_EVENT_ID(event));
 415:../Libraries/XMCLib/src/xmc_ccu4.c ****   XMC_ASSERT("XMC_CCU4_SLICE_StartConfig:Invalid Start Mode", 
 416:../Libraries/XMCLib/src/xmc_ccu4.c ****              ((start_mode == XMC_CCU4_SLICE_START_MODE_TIMER_START_CLEAR) ||\
 417:../Libraries/XMCLib/src/xmc_ccu4.c ****               (start_mode == XMC_CCU4_SLICE_START_MODE_TIMER_START)));
 418:../Libraries/XMCLib/src/xmc_ccu4.c ****   /* First, Bind the event with the stop function */
 419:../Libraries/XMCLib/src/xmc_ccu4.c ****   cmc = slice->CMC;
 735              	 .loc 1 419 0
 736 0000 4368     	 ldr r3,[r0,#4]
 737              	.LVL63:
 420:../Libraries/XMCLib/src/xmc_ccu4.c ****   cmc &= ~((uint32_t) CCU4_CC4_CMC_STRTS_Msk);
 738              	 .loc 1 420 0
 739 0002 23F00303 	 bic r3,r3,#3
 740              	.LVL64:
 421:../Libraries/XMCLib/src/xmc_ccu4.c ****   cmc |= ((uint32_t) event) << CCU4_CC4_CMC_STRTS_Pos;
 741              	 .loc 1 421 0
 742 0006 1943     	 orrs r1,r1,r3
 743              	.LVL65:
 422:../Libraries/XMCLib/src/xmc_ccu4.c **** 
 423:../Libraries/XMCLib/src/xmc_ccu4.c ****   slice->CMC = cmc;
 744              	 .loc 1 423 0
 745 0008 4160     	 str r1,[r0,#4]
 424:../Libraries/XMCLib/src/xmc_ccu4.c ****   
 425:../Libraries/XMCLib/src/xmc_ccu4.c ****   tc  = slice->TC;
 746              	 .loc 1 425 0
 747 000a 4369     	 ldr r3,[r0,#20]
 748              	.LVL66:
 426:../Libraries/XMCLib/src/xmc_ccu4.c ****   /* Next, Configure the start mode */
 427:../Libraries/XMCLib/src/xmc_ccu4.c ****   if (start_mode == XMC_CCU4_SLICE_START_MODE_TIMER_START_CLEAR)
 749              	 .loc 1 427 0
 750 000c 012A     	 cmp r2,#1
 428:../Libraries/XMCLib/src/xmc_ccu4.c ****   {
 429:../Libraries/XMCLib/src/xmc_ccu4.c ****     tc |= (uint32_t)CCU4_CC4_TC_STRM_Msk;
 751              	 .loc 1 429 0
 752 000e 0CBF     	 ite eq
 753 0010 43F48063 	 orreq r3,r3,#1024
 754              	.LVL67:
 430:../Libraries/XMCLib/src/xmc_ccu4.c ****   }
 431:../Libraries/XMCLib/src/xmc_ccu4.c ****   else
 432:../Libraries/XMCLib/src/xmc_ccu4.c ****   {
 433:../Libraries/XMCLib/src/xmc_ccu4.c ****     tc &= ~((uint32_t)CCU4_CC4_TC_STRM_Msk);
 755              	 .loc 1 433 0
 756 0014 23F48063 	 bicne r3,r3,#1024
 757              	.LVL68:
 434:../Libraries/XMCLib/src/xmc_ccu4.c ****   }
 435:../Libraries/XMCLib/src/xmc_ccu4.c ****   
 436:../Libraries/XMCLib/src/xmc_ccu4.c ****   slice->TC = tc;
 758              	 .loc 1 436 0
 759 0018 4361     	 str r3,[r0,#20]
 760 001a 7047     	 bx lr
 761              	 .cfi_endproc
 762              	.LFE214:
 764              	 .section .text.XMC_CCU4_SLICE_StopConfig,"ax",%progbits
 765              	 .align 2
 766              	 .global XMC_CCU4_SLICE_StopConfig
 767              	 .thumb
 768              	 .thumb_func
 770              	XMC_CCU4_SLICE_StopConfig:
 771              	.LFB215:
 437:../Libraries/XMCLib/src/xmc_ccu4.c **** }
 438:../Libraries/XMCLib/src/xmc_ccu4.c **** 
 439:../Libraries/XMCLib/src/xmc_ccu4.c **** /* API to configure the Stop trigger function of a slice */
 440:../Libraries/XMCLib/src/xmc_ccu4.c **** void XMC_CCU4_SLICE_StopConfig(XMC_CCU4_SLICE_t *const slice,
 441:../Libraries/XMCLib/src/xmc_ccu4.c ****                            const XMC_CCU4_SLICE_EVENT_t event,
 442:../Libraries/XMCLib/src/xmc_ccu4.c ****                                const XMC_CCU4_SLICE_END_MODE_t end_mode)
 443:../Libraries/XMCLib/src/xmc_ccu4.c **** {
 772              	 .loc 1 443 0
 773              	 .cfi_startproc
 774              	 
 775              	 
 776              	 
 777              	.LVL69:
 444:../Libraries/XMCLib/src/xmc_ccu4.c ****   uint32_t cmc;
 445:../Libraries/XMCLib/src/xmc_ccu4.c ****   uint32_t tc;
 446:../Libraries/XMCLib/src/xmc_ccu4.c ****   
 447:../Libraries/XMCLib/src/xmc_ccu4.c ****   XMC_ASSERT("XMC_CCU4_SLICE_StopConfig:Invalid Slice Pointer", XMC_CCU4_IsValidSlice(slice));
 448:../Libraries/XMCLib/src/xmc_ccu4.c ****   XMC_ASSERT("XMC_CCU4_SLICE_StopConfig:Invalid Event ID", XMC_CCU4_SLICE_CHECK_EVENT_ID(event));
 449:../Libraries/XMCLib/src/xmc_ccu4.c ****   XMC_ASSERT("XMC_CCU4_SLICE_StopConfig:Invalid Start Mode", XMC_CCU4_CHECK_END_MODE(end_mode));
 450:../Libraries/XMCLib/src/xmc_ccu4.c ****   
 451:../Libraries/XMCLib/src/xmc_ccu4.c ****   /* First, Bind the event with the stop function */
 452:../Libraries/XMCLib/src/xmc_ccu4.c ****   cmc = slice->CMC;
 778              	 .loc 1 452 0
 779 0000 4368     	 ldr r3,[r0,#4]
 780              	.LVL70:
 453:../Libraries/XMCLib/src/xmc_ccu4.c ****   cmc &= ~((uint32_t) CCU4_CC4_CMC_ENDS_Msk);
 781              	 .loc 1 453 0
 782 0002 23F00C03 	 bic r3,r3,#12
 783              	.LVL71:
 454:../Libraries/XMCLib/src/xmc_ccu4.c ****   cmc |= ((uint32_t) event) << CCU4_CC4_CMC_ENDS_Pos;
 784              	 .loc 1 454 0
 785 0006 43EA8101 	 orr r1,r3,r1,lsl#2
 786              	.LVL72:
 455:../Libraries/XMCLib/src/xmc_ccu4.c **** 
 456:../Libraries/XMCLib/src/xmc_ccu4.c ****   slice->CMC = cmc;
 787              	 .loc 1 456 0
 788 000a 4160     	 str r1,[r0,#4]
 457:../Libraries/XMCLib/src/xmc_ccu4.c ****   
 458:../Libraries/XMCLib/src/xmc_ccu4.c ****   /* Next, Configure the stop mode */
 459:../Libraries/XMCLib/src/xmc_ccu4.c ****   tc = slice->TC;
 789              	 .loc 1 459 0
 790 000c 4369     	 ldr r3,[r0,#20]
 791              	.LVL73:
 460:../Libraries/XMCLib/src/xmc_ccu4.c ****   tc &= ~((uint32_t) CCU4_CC4_TC_ENDM_Msk);
 792              	 .loc 1 460 0
 793 000e 23F44073 	 bic r3,r3,#768
 794              	.LVL74:
 461:../Libraries/XMCLib/src/xmc_ccu4.c ****   tc |= ((uint32_t) end_mode) << CCU4_CC4_TC_ENDM_Pos;
 795              	 .loc 1 461 0
 796 0012 43EA0222 	 orr r2,r3,r2,lsl#8
 797              	.LVL75:
 462:../Libraries/XMCLib/src/xmc_ccu4.c **** 
 463:../Libraries/XMCLib/src/xmc_ccu4.c ****   slice->TC = tc;
 798              	 .loc 1 463 0
 799 0016 4261     	 str r2,[r0,#20]
 800 0018 7047     	 bx lr
 801              	 .cfi_endproc
 802              	.LFE215:
 804 001a 00BF     	 .section .text.XMC_CCU4_SLICE_LoadConfig,"ax",%progbits
 805              	 .align 2
 806              	 .global XMC_CCU4_SLICE_LoadConfig
 807              	 .thumb
 808              	 .thumb_func
 810              	XMC_CCU4_SLICE_LoadConfig:
 811              	.LFB216:
 464:../Libraries/XMCLib/src/xmc_ccu4.c **** }
 465:../Libraries/XMCLib/src/xmc_ccu4.c **** 
 466:../Libraries/XMCLib/src/xmc_ccu4.c **** /* API to configure the Load trigger function of a slice */
 467:../Libraries/XMCLib/src/xmc_ccu4.c **** void XMC_CCU4_SLICE_LoadConfig(XMC_CCU4_SLICE_t *const slice, const XMC_CCU4_SLICE_EVENT_t event)
 468:../Libraries/XMCLib/src/xmc_ccu4.c **** {
 812              	 .loc 1 468 0
 813              	 .cfi_startproc
 814              	 
 815              	 
 816              	 
 817              	.LVL76:
 469:../Libraries/XMCLib/src/xmc_ccu4.c ****   uint32_t cmc;
 470:../Libraries/XMCLib/src/xmc_ccu4.c ****   
 471:../Libraries/XMCLib/src/xmc_ccu4.c ****   XMC_ASSERT("XMC_CCU4_SLICE_LoadConfig:Invalid Slice Pointer", XMC_CCU4_IsValidSlice(slice));
 472:../Libraries/XMCLib/src/xmc_ccu4.c ****   XMC_ASSERT("XMC_CCU4_SLICE_LoadConfig:Invalid Event ID", XMC_CCU4_SLICE_CHECK_EVENT_ID(event));
 473:../Libraries/XMCLib/src/xmc_ccu4.c ****   
 474:../Libraries/XMCLib/src/xmc_ccu4.c ****   /* Bind the event with the load function */
 475:../Libraries/XMCLib/src/xmc_ccu4.c ****   cmc = slice->CMC;
 818              	 .loc 1 475 0
 819 0000 4368     	 ldr r3,[r0,#4]
 820              	.LVL77:
 476:../Libraries/XMCLib/src/xmc_ccu4.c ****   cmc &= ~((uint32_t) CCU4_CC4_CMC_LDS_Msk);
 821              	 .loc 1 476 0
 822 0002 23F44053 	 bic r3,r3,#12288
 823              	.LVL78:
 477:../Libraries/XMCLib/src/xmc_ccu4.c ****   cmc |= ((uint32_t) event) << CCU4_CC4_CMC_LDS_Pos;
 824              	 .loc 1 477 0
 825 0006 43EA0131 	 orr r1,r3,r1,lsl#12
 826              	.LVL79:
 478:../Libraries/XMCLib/src/xmc_ccu4.c **** 
 479:../Libraries/XMCLib/src/xmc_ccu4.c ****   slice->CMC = cmc;
 827              	 .loc 1 479 0
 828 000a 4160     	 str r1,[r0,#4]
 829 000c 7047     	 bx lr
 830              	 .cfi_endproc
 831              	.LFE216:
 833 000e 00BF     	 .section .text.XMC_CCU4_SLICE_ModulationConfig,"ax",%progbits
 834              	 .align 2
 835              	 .global XMC_CCU4_SLICE_ModulationConfig
 836              	 .thumb
 837              	 .thumb_func
 839              	XMC_CCU4_SLICE_ModulationConfig:
 840              	.LFB217:
 480:../Libraries/XMCLib/src/xmc_ccu4.c **** }
 481:../Libraries/XMCLib/src/xmc_ccu4.c **** 
 482:../Libraries/XMCLib/src/xmc_ccu4.c **** /* API to configure the slice modulation function */
 483:../Libraries/XMCLib/src/xmc_ccu4.c **** void XMC_CCU4_SLICE_ModulationConfig(XMC_CCU4_SLICE_t *const slice,
 484:../Libraries/XMCLib/src/xmc_ccu4.c ****                                      const XMC_CCU4_SLICE_EVENT_t event,
 485:../Libraries/XMCLib/src/xmc_ccu4.c ****                                      const XMC_CCU4_SLICE_MODULATION_MODE_t mod_mode,
 486:../Libraries/XMCLib/src/xmc_ccu4.c ****                                      const bool synch_with_pwm)
 487:../Libraries/XMCLib/src/xmc_ccu4.c **** {
 841              	 .loc 1 487 0
 842              	 .cfi_startproc
 843              	 
 844              	 
 845              	 
 846              	.LVL80:
 847 0000 30B4     	 push {r4,r5}
 848              	.LCFI21:
 849              	 .cfi_def_cfa_offset 8
 850              	 .cfi_offset 4,-8
 851              	 .cfi_offset 5,-4
 488:../Libraries/XMCLib/src/xmc_ccu4.c ****   uint32_t cmc;
 489:../Libraries/XMCLib/src/xmc_ccu4.c ****   uint32_t tc;
 490:../Libraries/XMCLib/src/xmc_ccu4.c ****   
 491:../Libraries/XMCLib/src/xmc_ccu4.c ****   XMC_ASSERT("XMC_CCU4_SLICE_ModulationConfig:Invalid Slice Pointer", XMC_CCU4_IsValidSlice(slice))
 492:../Libraries/XMCLib/src/xmc_ccu4.c ****   XMC_ASSERT("XMC_CCU4_SLICE_ModulationConfig:Invalid Event ID", XMC_CCU4_SLICE_CHECK_EVENT_ID(even
 493:../Libraries/XMCLib/src/xmc_ccu4.c ****   XMC_ASSERT("XMC_CCU4_SLICE_ModulationConfig:Invalid Modulation Mode",
 494:../Libraries/XMCLib/src/xmc_ccu4.c ****              ((mod_mode == XMC_CCU4_SLICE_MODULATION_MODE_CLEAR_OUT) ||\
 495:../Libraries/XMCLib/src/xmc_ccu4.c ****               (mod_mode == XMC_CCU4_SLICE_MODULATION_MODE_CLEAR_ST_OUT)));
 496:../Libraries/XMCLib/src/xmc_ccu4.c ****   
 497:../Libraries/XMCLib/src/xmc_ccu4.c ****   tc  = slice->TC;
 852              	 .loc 1 497 0
 853 0002 4469     	 ldr r4,[r0,#20]
 854              	.LVL81:
 498:../Libraries/XMCLib/src/xmc_ccu4.c ****   cmc = slice->CMC;
 855              	 .loc 1 498 0
 856 0004 4568     	 ldr r5,[r0,#4]
 857              	.LVL82:
 499:../Libraries/XMCLib/src/xmc_ccu4.c ****   
 500:../Libraries/XMCLib/src/xmc_ccu4.c ****   /* First, Bind the event with the modulation function */
 501:../Libraries/XMCLib/src/xmc_ccu4.c ****   cmc &= ~((uint32_t) CCU4_CC4_CMC_MOS_Msk);
 858              	 .loc 1 501 0
 859 0006 25F44025 	 bic r5,r5,#786432
 860              	.LVL83:
 502:../Libraries/XMCLib/src/xmc_ccu4.c ****   cmc |= ((uint32_t) event) << CCU4_CC4_CMC_MOS_Pos;
 503:../Libraries/XMCLib/src/xmc_ccu4.c ****   slice->CMC = cmc;
 504:../Libraries/XMCLib/src/xmc_ccu4.c ****   
 505:../Libraries/XMCLib/src/xmc_ccu4.c ****   /* Next, Modulation mode */
 506:../Libraries/XMCLib/src/xmc_ccu4.c ****   if (mod_mode == XMC_CCU4_SLICE_MODULATION_MODE_CLEAR_OUT)
 861              	 .loc 1 506 0
 862 000a 012A     	 cmp r2,#1
 502:../Libraries/XMCLib/src/xmc_ccu4.c ****   cmc |= ((uint32_t) event) << CCU4_CC4_CMC_MOS_Pos;
 863              	 .loc 1 502 0
 864 000c 45EA8141 	 orr r1,r5,r1,lsl#18
 865              	.LVL84:
 503:../Libraries/XMCLib/src/xmc_ccu4.c ****   
 866              	 .loc 1 503 0
 867 0010 4160     	 str r1,[r0,#4]
 507:../Libraries/XMCLib/src/xmc_ccu4.c ****   {
 508:../Libraries/XMCLib/src/xmc_ccu4.c ****     tc |= (uint32_t) CCU4_CC4_TC_EMT_Msk;
 868              	 .loc 1 508 0
 869 0012 0CBF     	 ite eq
 870 0014 44F08074 	 orreq r4,r4,#16777216
 871              	.LVL85:
 509:../Libraries/XMCLib/src/xmc_ccu4.c ****   }
 510:../Libraries/XMCLib/src/xmc_ccu4.c ****   else
 511:../Libraries/XMCLib/src/xmc_ccu4.c ****   {
 512:../Libraries/XMCLib/src/xmc_ccu4.c ****     tc &= ~((uint32_t) CCU4_CC4_TC_EMT_Msk);
 872              	 .loc 1 512 0
 873 0018 24F08074 	 bicne r4,r4,#16777216
 874              	.LVL86:
 513:../Libraries/XMCLib/src/xmc_ccu4.c ****   }
 514:../Libraries/XMCLib/src/xmc_ccu4.c **** 
 515:../Libraries/XMCLib/src/xmc_ccu4.c ****   /* Synchronization of modulation effect with PWM cycle */
 516:../Libraries/XMCLib/src/xmc_ccu4.c ****   if (synch_with_pwm == (bool) true)
 875              	 .loc 1 516 0
 876 001c 23B9     	 cbnz r3,.L55
 517:../Libraries/XMCLib/src/xmc_ccu4.c ****   {
 518:../Libraries/XMCLib/src/xmc_ccu4.c ****     tc |= (uint32_t) CCU4_CC4_TC_EMS_Msk;
 519:../Libraries/XMCLib/src/xmc_ccu4.c ****   }
 520:../Libraries/XMCLib/src/xmc_ccu4.c ****   else
 521:../Libraries/XMCLib/src/xmc_ccu4.c ****   {
 522:../Libraries/XMCLib/src/xmc_ccu4.c ****     tc &= ~((uint32_t) CCU4_CC4_TC_EMS_Msk);
 877              	 .loc 1 522 0
 878 001e 24F40004 	 bic r4,r4,#8388608
 879              	.LVL87:
 523:../Libraries/XMCLib/src/xmc_ccu4.c ****   }
 524:../Libraries/XMCLib/src/xmc_ccu4.c ****   
 525:../Libraries/XMCLib/src/xmc_ccu4.c ****   slice->TC = tc;
 880              	 .loc 1 525 0
 881 0022 4461     	 str r4,[r0,#20]
 526:../Libraries/XMCLib/src/xmc_ccu4.c **** }
 882              	 .loc 1 526 0
 883 0024 30BC     	 pop {r4,r5}
 884              	.LCFI22:
 885              	 .cfi_remember_state
 886              	 .cfi_restore 5
 887              	 .cfi_restore 4
 888              	 .cfi_def_cfa_offset 0
 889              	.LVL88:
 890 0026 7047     	 bx lr
 891              	.LVL89:
 892              	.L55:
 893              	.LCFI23:
 894              	 .cfi_restore_state
 518:../Libraries/XMCLib/src/xmc_ccu4.c ****   }
 895              	 .loc 1 518 0
 896 0028 44F40004 	 orr r4,r4,#8388608
 897              	.LVL90:
 525:../Libraries/XMCLib/src/xmc_ccu4.c **** }
 898              	 .loc 1 525 0
 899 002c 4461     	 str r4,[r0,#20]
 900              	 .loc 1 526 0
 901 002e 30BC     	 pop {r4,r5}
 902              	.LCFI24:
 903              	 .cfi_restore 4
 904              	 .cfi_restore 5
 905              	 .cfi_def_cfa_offset 0
 906              	.LVL91:
 907 0030 7047     	 bx lr
 908              	 .cfi_endproc
 909              	.LFE217:
 911 0032 00BF     	 .section .text.XMC_CCU4_SLICE_CountConfig,"ax",%progbits
 912              	 .align 2
 913              	 .global XMC_CCU4_SLICE_CountConfig
 914              	 .thumb
 915              	 .thumb_func
 917              	XMC_CCU4_SLICE_CountConfig:
 918              	.LFB218:
 527:../Libraries/XMCLib/src/xmc_ccu4.c **** 
 528:../Libraries/XMCLib/src/xmc_ccu4.c **** /* API to configure the slice count function */
 529:../Libraries/XMCLib/src/xmc_ccu4.c **** void XMC_CCU4_SLICE_CountConfig(XMC_CCU4_SLICE_t *const slice, const XMC_CCU4_SLICE_EVENT_t event)
 530:../Libraries/XMCLib/src/xmc_ccu4.c **** {
 919              	 .loc 1 530 0
 920              	 .cfi_startproc
 921              	 
 922              	 
 923              	 
 924              	.LVL92:
 531:../Libraries/XMCLib/src/xmc_ccu4.c ****   uint32_t cmc;
 532:../Libraries/XMCLib/src/xmc_ccu4.c ****   
 533:../Libraries/XMCLib/src/xmc_ccu4.c ****   XMC_ASSERT("XMC_CCU4_SLICE_CountConfig:Invalid Slice Pointer", XMC_CCU4_IsValidSlice(slice));
 534:../Libraries/XMCLib/src/xmc_ccu4.c ****   XMC_ASSERT("XMC_CCU4_SLICE_CountConfig:Invalid Event ID", XMC_CCU4_SLICE_CHECK_EVENT_ID(event));
 535:../Libraries/XMCLib/src/xmc_ccu4.c **** 
 536:../Libraries/XMCLib/src/xmc_ccu4.c ****   /* Bind the event with the count function */
 537:../Libraries/XMCLib/src/xmc_ccu4.c ****   cmc = slice->CMC;
 925              	 .loc 1 537 0
 926 0000 4368     	 ldr r3,[r0,#4]
 927              	.LVL93:
 538:../Libraries/XMCLib/src/xmc_ccu4.c ****   cmc &= ~((uint32_t) CCU4_CC4_CMC_CNTS_Msk);
 928              	 .loc 1 538 0
 929 0002 23F44043 	 bic r3,r3,#49152
 930              	.LVL94:
 539:../Libraries/XMCLib/src/xmc_ccu4.c ****   cmc |= ((uint32_t) event) << CCU4_CC4_CMC_CNTS_Pos;
 931              	 .loc 1 539 0
 932 0006 43EA8131 	 orr r1,r3,r1,lsl#14
 933              	.LVL95:
 540:../Libraries/XMCLib/src/xmc_ccu4.c **** 
 541:../Libraries/XMCLib/src/xmc_ccu4.c ****   slice->CMC = cmc;
 934              	 .loc 1 541 0
 935 000a 4160     	 str r1,[r0,#4]
 936 000c 7047     	 bx lr
 937              	 .cfi_endproc
 938              	.LFE218:
 940 000e 00BF     	 .section .text.XMC_CCU4_SLICE_GateConfig,"ax",%progbits
 941              	 .align 2
 942              	 .global XMC_CCU4_SLICE_GateConfig
 943              	 .thumb
 944              	 .thumb_func
 946              	XMC_CCU4_SLICE_GateConfig:
 947              	.LFB219:
 542:../Libraries/XMCLib/src/xmc_ccu4.c **** }
 543:../Libraries/XMCLib/src/xmc_ccu4.c **** 
 544:../Libraries/XMCLib/src/xmc_ccu4.c **** /* API to configure slice gate function */
 545:../Libraries/XMCLib/src/xmc_ccu4.c **** void XMC_CCU4_SLICE_GateConfig(XMC_CCU4_SLICE_t *const slice, const XMC_CCU4_SLICE_EVENT_t event)
 546:../Libraries/XMCLib/src/xmc_ccu4.c **** {
 948              	 .loc 1 546 0
 949              	 .cfi_startproc
 950              	 
 951              	 
 952              	 
 953              	.LVL96:
 547:../Libraries/XMCLib/src/xmc_ccu4.c ****   uint32_t cmc;
 548:../Libraries/XMCLib/src/xmc_ccu4.c ****   
 549:../Libraries/XMCLib/src/xmc_ccu4.c ****   XMC_ASSERT("XMC_CCU4_SLICE_GateConfig:Invalid Slice Pointer", XMC_CCU4_IsValidSlice(slice));
 550:../Libraries/XMCLib/src/xmc_ccu4.c ****   XMC_ASSERT("XMC_CCU4_SLICE_GateConfig:Invalid Event ID", XMC_CCU4_SLICE_CHECK_EVENT_ID(event));
 551:../Libraries/XMCLib/src/xmc_ccu4.c ****   
 552:../Libraries/XMCLib/src/xmc_ccu4.c ****   /* Bind the event with the gate function */
 553:../Libraries/XMCLib/src/xmc_ccu4.c ****   cmc = slice->CMC;
 954              	 .loc 1 553 0
 955 0000 4368     	 ldr r3,[r0,#4]
 956              	.LVL97:
 554:../Libraries/XMCLib/src/xmc_ccu4.c ****   cmc &= ~((uint32_t) CCU4_CC4_CMC_GATES_Msk);
 957              	 .loc 1 554 0
 958 0002 23F44073 	 bic r3,r3,#768
 959              	.LVL98:
 555:../Libraries/XMCLib/src/xmc_ccu4.c ****   cmc |= ((uint32_t) event) << CCU4_CC4_CMC_GATES_Pos;
 960              	 .loc 1 555 0
 961 0006 43EA0121 	 orr r1,r3,r1,lsl#8
 962              	.LVL99:
 556:../Libraries/XMCLib/src/xmc_ccu4.c **** 
 557:../Libraries/XMCLib/src/xmc_ccu4.c ****   slice->CMC = cmc;
 963              	 .loc 1 557 0
 964 000a 4160     	 str r1,[r0,#4]
 965 000c 7047     	 bx lr
 966              	 .cfi_endproc
 967              	.LFE219:
 969 000e 00BF     	 .section .text.XMC_CCU4_SLICE_Capture0Config,"ax",%progbits
 970              	 .align 2
 971              	 .global XMC_CCU4_SLICE_Capture0Config
 972              	 .thumb
 973              	 .thumb_func
 975              	XMC_CCU4_SLICE_Capture0Config:
 976              	.LFB220:
 558:../Libraries/XMCLib/src/xmc_ccu4.c **** }
 559:../Libraries/XMCLib/src/xmc_ccu4.c **** 
 560:../Libraries/XMCLib/src/xmc_ccu4.c **** /* API to configure Capture-0 function */
 561:../Libraries/XMCLib/src/xmc_ccu4.c **** void XMC_CCU4_SLICE_Capture0Config(XMC_CCU4_SLICE_t *const slice, const XMC_CCU4_SLICE_EVENT_t even
 562:../Libraries/XMCLib/src/xmc_ccu4.c **** {
 977              	 .loc 1 562 0
 978              	 .cfi_startproc
 979              	 
 980              	 
 981              	 
 982              	.LVL100:
 563:../Libraries/XMCLib/src/xmc_ccu4.c ****   uint32_t cmc;
 564:../Libraries/XMCLib/src/xmc_ccu4.c ****   
 565:../Libraries/XMCLib/src/xmc_ccu4.c ****   XMC_ASSERT("XMC_CCU4_SLICE_Capture0Config:Invalid Slice Pointer", XMC_CCU4_IsValidSlice(slice));
 566:../Libraries/XMCLib/src/xmc_ccu4.c ****   XMC_ASSERT("XMC_CCU4_SLICE_Capture0Config:Invalid Event ID", XMC_CCU4_SLICE_CHECK_EVENT_ID(event)
 567:../Libraries/XMCLib/src/xmc_ccu4.c ****   
 568:../Libraries/XMCLib/src/xmc_ccu4.c ****   /* Bind the event with the gate function */
 569:../Libraries/XMCLib/src/xmc_ccu4.c ****   cmc = slice->CMC;
 983              	 .loc 1 569 0
 984 0000 4368     	 ldr r3,[r0,#4]
 985              	.LVL101:
 570:../Libraries/XMCLib/src/xmc_ccu4.c ****   cmc &= ~((uint32_t) CCU4_CC4_CMC_CAP0S_Msk);
 986              	 .loc 1 570 0
 987 0002 23F03003 	 bic r3,r3,#48
 988              	.LVL102:
 571:../Libraries/XMCLib/src/xmc_ccu4.c ****   cmc |= ((uint32_t) event) << CCU4_CC4_CMC_CAP0S_Pos;
 989              	 .loc 1 571 0
 990 0006 43EA0111 	 orr r1,r3,r1,lsl#4
 991              	.LVL103:
 572:../Libraries/XMCLib/src/xmc_ccu4.c **** 
 573:../Libraries/XMCLib/src/xmc_ccu4.c ****   slice->CMC = cmc;
 992              	 .loc 1 573 0
 993 000a 4160     	 str r1,[r0,#4]
 994 000c 7047     	 bx lr
 995              	 .cfi_endproc
 996              	.LFE220:
 998 000e 00BF     	 .section .text.XMC_CCU4_SLICE_Capture1Config,"ax",%progbits
 999              	 .align 2
 1000              	 .global XMC_CCU4_SLICE_Capture1Config
 1001              	 .thumb
 1002              	 .thumb_func
 1004              	XMC_CCU4_SLICE_Capture1Config:
 1005              	.LFB221:
 574:../Libraries/XMCLib/src/xmc_ccu4.c **** }
 575:../Libraries/XMCLib/src/xmc_ccu4.c **** 
 576:../Libraries/XMCLib/src/xmc_ccu4.c **** /* API to configure Capture-1 function */
 577:../Libraries/XMCLib/src/xmc_ccu4.c **** void XMC_CCU4_SLICE_Capture1Config(XMC_CCU4_SLICE_t *const slice, const XMC_CCU4_SLICE_EVENT_t even
 578:../Libraries/XMCLib/src/xmc_ccu4.c **** {
 1006              	 .loc 1 578 0
 1007              	 .cfi_startproc
 1008              	 
 1009              	 
 1010              	 
 1011              	.LVL104:
 579:../Libraries/XMCLib/src/xmc_ccu4.c ****   uint32_t cmc;
 580:../Libraries/XMCLib/src/xmc_ccu4.c ****   
 581:../Libraries/XMCLib/src/xmc_ccu4.c ****   XMC_ASSERT("XMC_CCU4_SLICE_Capture1Config:Invalid Slice Pointer", XMC_CCU4_IsValidSlice(slice));
 582:../Libraries/XMCLib/src/xmc_ccu4.c ****   XMC_ASSERT("XMC_CCU4_SLICE_Capture1Config:Invalid Event ID", XMC_CCU4_SLICE_CHECK_EVENT_ID(event)
 583:../Libraries/XMCLib/src/xmc_ccu4.c ****   
 584:../Libraries/XMCLib/src/xmc_ccu4.c ****   /* Bind the event with the gate function */
 585:../Libraries/XMCLib/src/xmc_ccu4.c ****   cmc = slice->CMC;
 1012              	 .loc 1 585 0
 1013 0000 4368     	 ldr r3,[r0,#4]
 1014              	.LVL105:
 586:../Libraries/XMCLib/src/xmc_ccu4.c ****   cmc &= ~((uint32_t) CCU4_CC4_CMC_CAP1S_Msk);
 1015              	 .loc 1 586 0
 1016 0002 23F0C003 	 bic r3,r3,#192
 1017              	.LVL106:
 587:../Libraries/XMCLib/src/xmc_ccu4.c ****   cmc |= ((uint32_t) event) << CCU4_CC4_CMC_CAP1S_Pos;
 1018              	 .loc 1 587 0
 1019 0006 43EA8111 	 orr r1,r3,r1,lsl#6
 1020              	.LVL107:
 588:../Libraries/XMCLib/src/xmc_ccu4.c **** 
 589:../Libraries/XMCLib/src/xmc_ccu4.c ****   slice->CMC = cmc;
 1021              	 .loc 1 589 0
 1022 000a 4160     	 str r1,[r0,#4]
 1023 000c 7047     	 bx lr
 1024              	 .cfi_endproc
 1025              	.LFE221:
 1027 000e 00BF     	 .section .text.XMC_CCU4_SLICE_DirectionConfig,"ax",%progbits
 1028              	 .align 2
 1029              	 .global XMC_CCU4_SLICE_DirectionConfig
 1030              	 .thumb
 1031              	 .thumb_func
 1033              	XMC_CCU4_SLICE_DirectionConfig:
 1034              	.LFB222:
 590:../Libraries/XMCLib/src/xmc_ccu4.c **** }
 591:../Libraries/XMCLib/src/xmc_ccu4.c **** 
 592:../Libraries/XMCLib/src/xmc_ccu4.c **** /* API to configure direction function */
 593:../Libraries/XMCLib/src/xmc_ccu4.c **** void XMC_CCU4_SLICE_DirectionConfig(XMC_CCU4_SLICE_t *const slice, const XMC_CCU4_SLICE_EVENT_t eve
 594:../Libraries/XMCLib/src/xmc_ccu4.c **** {
 1035              	 .loc 1 594 0
 1036              	 .cfi_startproc
 1037              	 
 1038              	 
 1039              	 
 1040              	.LVL108:
 595:../Libraries/XMCLib/src/xmc_ccu4.c ****   uint32_t cmc;
 596:../Libraries/XMCLib/src/xmc_ccu4.c ****   
 597:../Libraries/XMCLib/src/xmc_ccu4.c ****   XMC_ASSERT("XMC_CCU4_SLICE_DirectionConfig:Invalid Slice Pointer", XMC_CCU4_IsValidSlice(slice));
 598:../Libraries/XMCLib/src/xmc_ccu4.c ****   XMC_ASSERT("XMC_CCU4_SLICE_DirectionConfig:Invalid Event ID", XMC_CCU4_SLICE_CHECK_EVENT_ID(event
 599:../Libraries/XMCLib/src/xmc_ccu4.c ****   
 600:../Libraries/XMCLib/src/xmc_ccu4.c ****   /* Bind the event with the direction function */
 601:../Libraries/XMCLib/src/xmc_ccu4.c ****   cmc = slice->CMC;
 1041              	 .loc 1 601 0
 1042 0000 4368     	 ldr r3,[r0,#4]
 1043              	.LVL109:
 602:../Libraries/XMCLib/src/xmc_ccu4.c ****   cmc &= ~((uint32_t) CCU4_CC4_CMC_UDS_Msk);
 1044              	 .loc 1 602 0
 1045 0002 23F44063 	 bic r3,r3,#3072
 1046              	.LVL110:
 603:../Libraries/XMCLib/src/xmc_ccu4.c ****   cmc |= ((uint32_t) event) << CCU4_CC4_CMC_UDS_Pos;
 1047              	 .loc 1 603 0
 1048 0006 43EA8121 	 orr r1,r3,r1,lsl#10
 1049              	.LVL111:
 604:../Libraries/XMCLib/src/xmc_ccu4.c ****   
 605:../Libraries/XMCLib/src/xmc_ccu4.c ****   slice->CMC = cmc;
 1050              	 .loc 1 605 0
 1051 000a 4160     	 str r1,[r0,#4]
 1052 000c 7047     	 bx lr
 1053              	 .cfi_endproc
 1054              	.LFE222:
 1056 000e 00BF     	 .section .text.XMC_CCU4_SLICE_StatusBitOverrideConfig,"ax",%progbits
 1057              	 .align 2
 1058              	 .global XMC_CCU4_SLICE_StatusBitOverrideConfig
 1059              	 .thumb
 1060              	 .thumb_func
 1062              	XMC_CCU4_SLICE_StatusBitOverrideConfig:
 1063              	.LFB223:
 606:../Libraries/XMCLib/src/xmc_ccu4.c **** }
 607:../Libraries/XMCLib/src/xmc_ccu4.c **** 
 608:../Libraries/XMCLib/src/xmc_ccu4.c **** /* API to configure slice status bit override function */
 609:../Libraries/XMCLib/src/xmc_ccu4.c **** void XMC_CCU4_SLICE_StatusBitOverrideConfig(XMC_CCU4_SLICE_t *const slice)
 610:../Libraries/XMCLib/src/xmc_ccu4.c **** {
 1064              	 .loc 1 610 0
 1065              	 .cfi_startproc
 1066              	 
 1067              	 
 1068              	 
 1069              	.LVL112:
 611:../Libraries/XMCLib/src/xmc_ccu4.c ****   uint32_t cmc;
 612:../Libraries/XMCLib/src/xmc_ccu4.c ****   
 613:../Libraries/XMCLib/src/xmc_ccu4.c ****   XMC_ASSERT("XMC_CCU4_SLICE_StatusBitOverrideConfig:Invalid Slice Pointer", XMC_CCU4_IsValidSlice(
 614:../Libraries/XMCLib/src/xmc_ccu4.c ****   
 615:../Libraries/XMCLib/src/xmc_ccu4.c ****   /* Bind the event with the override function */
 616:../Libraries/XMCLib/src/xmc_ccu4.c ****   cmc = slice->CMC;
 1070              	 .loc 1 616 0
 1071 0000 4368     	 ldr r3,[r0,#4]
 1072              	.LVL113:
 617:../Libraries/XMCLib/src/xmc_ccu4.c ****   /* Map status bit trigger override to Event 1 & 
 618:../Libraries/XMCLib/src/xmc_ccu4.c ****          status bit value override to Event 2 */
 619:../Libraries/XMCLib/src/xmc_ccu4.c ****   cmc &= ~((uint32_t) CCU4_CC4_CMC_OFS_Msk);
 620:../Libraries/XMCLib/src/xmc_ccu4.c ****   cmc |= ((uint32_t) 1) << CCU4_CC4_CMC_OFS_Pos;
 1073              	 .loc 1 620 0
 1074 0002 43F48033 	 orr r3,r3,#65536
 1075              	.LVL114:
 621:../Libraries/XMCLib/src/xmc_ccu4.c **** 
 622:../Libraries/XMCLib/src/xmc_ccu4.c ****   slice->CMC = cmc;
 1076              	 .loc 1 622 0
 1077 0006 4360     	 str r3,[r0,#4]
 1078 0008 7047     	 bx lr
 1079              	 .cfi_endproc
 1080              	.LFE223:
 1082 000a 00BF     	 .section .text.XMC_CCU4_SLICE_TrapConfig,"ax",%progbits
 1083              	 .align 2
 1084              	 .global XMC_CCU4_SLICE_TrapConfig
 1085              	 .thumb
 1086              	 .thumb_func
 1088              	XMC_CCU4_SLICE_TrapConfig:
 1089              	.LFB224:
 623:../Libraries/XMCLib/src/xmc_ccu4.c **** }
 624:../Libraries/XMCLib/src/xmc_ccu4.c **** 
 625:../Libraries/XMCLib/src/xmc_ccu4.c **** /* API to configure trap function */
 626:../Libraries/XMCLib/src/xmc_ccu4.c **** void XMC_CCU4_SLICE_TrapConfig(XMC_CCU4_SLICE_t *const slice,
 627:../Libraries/XMCLib/src/xmc_ccu4.c ****                                const XMC_CCU4_SLICE_TRAP_EXIT_MODE_t exit_mode,
 628:../Libraries/XMCLib/src/xmc_ccu4.c ****                                const bool synch_with_pwm)
 629:../Libraries/XMCLib/src/xmc_ccu4.c **** {
 1090              	 .loc 1 629 0
 1091              	 .cfi_startproc
 1092              	 
 1093              	 
 1094              	 
 1095              	.LVL115:
 630:../Libraries/XMCLib/src/xmc_ccu4.c ****   uint32_t cmc;
 631:../Libraries/XMCLib/src/xmc_ccu4.c ****   uint32_t tc;
 632:../Libraries/XMCLib/src/xmc_ccu4.c ****   
 633:../Libraries/XMCLib/src/xmc_ccu4.c ****   XMC_ASSERT("XMC_CCU4_SLICE_TrapConfig:Invalid Slice Pointer", XMC_CCU4_IsValidSlice(slice));
 634:../Libraries/XMCLib/src/xmc_ccu4.c ****   XMC_ASSERT("XMC_CCU4_SLICE_TrapConfig:Invalid Exit Mode", ((exit_mode == XMC_CCU4_SLICE_TRAP_EXIT
 635:../Libraries/XMCLib/src/xmc_ccu4.c ****                                                              (exit_mode == XMC_CCU4_SLICE_TRAP_EXIT
 636:../Libraries/XMCLib/src/xmc_ccu4.c ****     
 637:../Libraries/XMCLib/src/xmc_ccu4.c ****   /* First, Map trap function to Event 2 */
 638:../Libraries/XMCLib/src/xmc_ccu4.c ****   cmc = slice->CMC;
 1096              	 .loc 1 638 0
 1097 0000 4368     	 ldr r3,[r0,#4]
 1098              	.LVL116:
 639:../Libraries/XMCLib/src/xmc_ccu4.c ****   cmc &= ~((uint32_t) CCU4_CC4_CMC_TS_Msk);
 640:../Libraries/XMCLib/src/xmc_ccu4.c ****   cmc |= ((uint32_t) 1) << CCU4_CC4_CMC_TS_Pos;
 1099              	 .loc 1 640 0
 1100 0002 43F40033 	 orr r3,r3,#131072
 1101              	.LVL117:
 641:../Libraries/XMCLib/src/xmc_ccu4.c ****   slice->CMC = cmc;
 1102              	 .loc 1 641 0
 1103 0006 4360     	 str r3,[r0,#4]
 642:../Libraries/XMCLib/src/xmc_ccu4.c ****   
 643:../Libraries/XMCLib/src/xmc_ccu4.c ****   /* Next, Configure synchronization option */
 644:../Libraries/XMCLib/src/xmc_ccu4.c ****   tc = slice->TC;
 1104              	 .loc 1 644 0
 1105 0008 4369     	 ldr r3,[r0,#20]
 1106              	.LVL118:
 645:../Libraries/XMCLib/src/xmc_ccu4.c **** 
 646:../Libraries/XMCLib/src/xmc_ccu4.c ****   if (synch_with_pwm == (bool) true)
 1107              	 .loc 1 646 0
 1108 000a 4AB1     	 cbz r2,.L63
 647:../Libraries/XMCLib/src/xmc_ccu4.c ****   {
 648:../Libraries/XMCLib/src/xmc_ccu4.c ****     tc |= (uint32_t) CCU4_CC4_TC_TRPSE_Msk;
 1109              	 .loc 1 648 0
 1110 000c 43F40013 	 orr r3,r3,#2097152
 1111              	.LVL119:
 1112              	.L64:
 649:../Libraries/XMCLib/src/xmc_ccu4.c ****   }
 650:../Libraries/XMCLib/src/xmc_ccu4.c ****   else
 651:../Libraries/XMCLib/src/xmc_ccu4.c ****   {
 652:../Libraries/XMCLib/src/xmc_ccu4.c ****     tc &= ~((uint32_t) CCU4_CC4_TC_TRPSE_Msk);
 653:../Libraries/XMCLib/src/xmc_ccu4.c ****   }
 654:../Libraries/XMCLib/src/xmc_ccu4.c ****   
 655:../Libraries/XMCLib/src/xmc_ccu4.c ****   /* Configure exit mode */
 656:../Libraries/XMCLib/src/xmc_ccu4.c ****   if (exit_mode == XMC_CCU4_SLICE_TRAP_EXIT_MODE_SW)
 1113              	 .loc 1 656 0
 1114 0010 0129     	 cmp r1,#1
 657:../Libraries/XMCLib/src/xmc_ccu4.c ****   {
 658:../Libraries/XMCLib/src/xmc_ccu4.c ****     tc |= (uint32_t) CCU4_CC4_TC_TRPSW_Msk;
 1115              	 .loc 1 658 0
 1116 0012 0CBF     	 ite eq
 1117 0014 43F48003 	 orreq r3,r3,#4194304
 1118              	.LVL120:
 659:../Libraries/XMCLib/src/xmc_ccu4.c ****   }
 660:../Libraries/XMCLib/src/xmc_ccu4.c ****   else
 661:../Libraries/XMCLib/src/xmc_ccu4.c ****   {
 662:../Libraries/XMCLib/src/xmc_ccu4.c ****     tc &= ~((uint32_t) CCU4_CC4_TC_TRPSW_Msk);
 1119              	 .loc 1 662 0
 1120 0018 23F48003 	 bicne r3,r3,#4194304
 1121              	.LVL121:
 663:../Libraries/XMCLib/src/xmc_ccu4.c ****   }
 664:../Libraries/XMCLib/src/xmc_ccu4.c ****   
 665:../Libraries/XMCLib/src/xmc_ccu4.c ****   slice->TC = tc;
 1122              	 .loc 1 665 0
 1123 001c 4361     	 str r3,[r0,#20]
 1124              	.LVL122:
 1125 001e 7047     	 bx lr
 1126              	.LVL123:
 1127              	.L63:
 652:../Libraries/XMCLib/src/xmc_ccu4.c ****   }
 1128              	 .loc 1 652 0
 1129 0020 23F40013 	 bic r3,r3,#2097152
 1130              	.LVL124:
 1131 0024 F4E7     	 b .L64
 1132              	 .cfi_endproc
 1133              	.LFE224:
 1135 0026 00BF     	 .section .text.XMC_CCU4_SLICE_ConfigureStatusBitOverrideEvent,"ax",%progbits
 1136              	 .align 2
 1137              	 .global XMC_CCU4_SLICE_ConfigureStatusBitOverrideEvent
 1138              	 .thumb
 1139              	 .thumb_func
 1141              	XMC_CCU4_SLICE_ConfigureStatusBitOverrideEvent:
 1142              	.LFB225:
 666:../Libraries/XMCLib/src/xmc_ccu4.c **** }
 667:../Libraries/XMCLib/src/xmc_ccu4.c **** 
 668:../Libraries/XMCLib/src/xmc_ccu4.c **** /* API to configure a slice Status Bit Override event */
 669:../Libraries/XMCLib/src/xmc_ccu4.c **** void XMC_CCU4_SLICE_ConfigureStatusBitOverrideEvent(XMC_CCU4_SLICE_t *const slice,
 670:../Libraries/XMCLib/src/xmc_ccu4.c ****                                                     const XMC_CCU4_SLICE_EVENT_CONFIG_t *const ev1_
 671:../Libraries/XMCLib/src/xmc_ccu4.c ****                                                     const XMC_CCU4_SLICE_EVENT_CONFIG_t *const ev2_
 672:../Libraries/XMCLib/src/xmc_ccu4.c **** {
 1143              	 .loc 1 672 0
 1144              	 .cfi_startproc
 1145              	 
 1146              	 
 1147              	.LVL125:
 1148 0000 F0B5     	 push {r4,r5,r6,r7,lr}
 1149              	.LCFI25:
 1150              	 .cfi_def_cfa_offset 20
 1151              	 .cfi_offset 4,-20
 1152              	 .cfi_offset 5,-16
 1153              	 .cfi_offset 6,-12
 1154              	 .cfi_offset 7,-8
 1155              	 .cfi_offset 14,-4
 673:../Libraries/XMCLib/src/xmc_ccu4.c ****   uint32_t ins;
 674:../Libraries/XMCLib/src/xmc_ccu4.c **** 
 675:../Libraries/XMCLib/src/xmc_ccu4.c ****   XMC_ASSERT("XMC_CCU4_SLICE_ConfigureStatusBitOverrideEvent:Invalid Slice Pointer", XMC_CCU4_IsVal
 676:../Libraries/XMCLib/src/xmc_ccu4.c ****   XMC_ASSERT("XMC_CCU4_SLICE_ConfigureStatusBitOverrideEvent:Invalid Input",
 677:../Libraries/XMCLib/src/xmc_ccu4.c ****          XMC_CCU4_SLICE_IsInputvalid(ev1_config->mapped_input));
 678:../Libraries/XMCLib/src/xmc_ccu4.c ****   XMC_ASSERT("XMC_CCU4_SLICE_ConfigureStatusBitOverrideEvent:Invalid Edge Sensitivity",
 679:../Libraries/XMCLib/src/xmc_ccu4.c ****              XMC_CCU4_SLICE_CHECK_EDGE_SENSITIVITY(ev1_config->edge));
 680:../Libraries/XMCLib/src/xmc_ccu4.c ****   XMC_ASSERT("XMC_CCU4_SLICE_ConfigureStatusBitOverrideEvent:Invalid Level Sensitivity",
 681:../Libraries/XMCLib/src/xmc_ccu4.c ****              ((ev1_config->level == XMC_CCU4_SLICE_EVENT_LEVEL_SENSITIVITY_ACTIVE_HIGH) ||\
 682:../Libraries/XMCLib/src/xmc_ccu4.c ****               (ev1_config->level == XMC_CCU4_SLICE_EVENT_LEVEL_SENSITIVITY_ACTIVE_LOW)));
 683:../Libraries/XMCLib/src/xmc_ccu4.c ****   XMC_ASSERT("XMC_CCU4_SLICE_ConfigureStatusBitOverrideEvent:Invalid Debounce Period",
 684:../Libraries/XMCLib/src/xmc_ccu4.c ****              XMC_CCU4_SLICE_CHECK_EVENT_FILTER(ev1_config->duration));
 685:../Libraries/XMCLib/src/xmc_ccu4.c ****   XMC_ASSERT("XMC_CCU4_SLICE_ConfigureStatusBitOverrideEvent:Invalid Input",
 686:../Libraries/XMCLib/src/xmc_ccu4.c ****          XMC_CCU4_SLICE_IsInputvalid(ev2_config->mapped_input));
 687:../Libraries/XMCLib/src/xmc_ccu4.c ****   XMC_ASSERT("XMC_CCU4_SLICE_ConfigureStatusBitOverrideEvent:Invalid Edge Sensitivity",
 688:../Libraries/XMCLib/src/xmc_ccu4.c ****              XMC_CCU4_SLICE_CHECK_EDGE_SENSITIVITY(ev2_config->edge));
 689:../Libraries/XMCLib/src/xmc_ccu4.c ****   XMC_ASSERT("XMC_CCU4_SLICE_ConfigureStatusBitOverrideEvent:Invalid Level Sensitivity",
 690:../Libraries/XMCLib/src/xmc_ccu4.c ****              ((ev2_config->level == XMC_CCU4_SLICE_EVENT_LEVEL_SENSITIVITY_ACTIVE_HIGH) ||\
 691:../Libraries/XMCLib/src/xmc_ccu4.c ****               (ev2_config->level == XMC_CCU4_SLICE_EVENT_LEVEL_SENSITIVITY_ACTIVE_LOW)));
 692:../Libraries/XMCLib/src/xmc_ccu4.c ****   XMC_ASSERT("XMC_CCU4_SLICE_ConfigureStatusBitOverrideEvent:Invalid Debounce Period", 
 693:../Libraries/XMCLib/src/xmc_ccu4.c ****              XMC_CCU4_SLICE_CHECK_EVENT_FILTER(ev2_config->duration));
 694:../Libraries/XMCLib/src/xmc_ccu4.c **** #if defined(CCU4V3) /* Defined for XMC1400 devices only */
 695:../Libraries/XMCLib/src/xmc_ccu4.c ****   ins = slice->INS2;
 696:../Libraries/XMCLib/src/xmc_ccu4.c **** 
 697:../Libraries/XMCLib/src/xmc_ccu4.c ****   /* Configure the edge sensitivity for event 1 */
 698:../Libraries/XMCLib/src/xmc_ccu4.c ****   ins &= ~(((uint32_t) XMC_CCU4_SLICE_EVENT_EDGE_CONFIG_MASK) << CCU4_CC4_INS2_EV1EM_Pos);
 699:../Libraries/XMCLib/src/xmc_ccu4.c ****   ins |= ((uint32_t) ev1_config->edge) << CCU4_CC4_INS2_EV1EM_Pos;
 700:../Libraries/XMCLib/src/xmc_ccu4.c ****   
 701:../Libraries/XMCLib/src/xmc_ccu4.c ****   /* Configure the edge sensitivity for event 2 */
 702:../Libraries/XMCLib/src/xmc_ccu4.c ****   ins &= ~(((uint32_t) XMC_CCU4_SLICE_EVENT_EDGE_CONFIG_MASK) << CCU4_CC4_INS2_EV2EM_Pos);
 703:../Libraries/XMCLib/src/xmc_ccu4.c ****   ins |= ((uint32_t) ev2_config->edge) << CCU4_CC4_INS2_EV2EM_Pos;
 704:../Libraries/XMCLib/src/xmc_ccu4.c ****   
 705:../Libraries/XMCLib/src/xmc_ccu4.c ****   /* Configure the level sensitivity for event 1 */
 706:../Libraries/XMCLib/src/xmc_ccu4.c ****   ins &= ~(((uint32_t) XMC_CCU4_SLICE_EVENT_LEVEL_CONFIG_MASK) << CCU4_CC4_INS2_EV1LM_Pos);
 707:../Libraries/XMCLib/src/xmc_ccu4.c ****   ins |= ((uint32_t) ev1_config->level) << CCU4_CC4_INS2_EV1LM_Pos;
 708:../Libraries/XMCLib/src/xmc_ccu4.c ****   
 709:../Libraries/XMCLib/src/xmc_ccu4.c ****   /* Configure the level sensitivity for event 2 */
 710:../Libraries/XMCLib/src/xmc_ccu4.c ****   ins &= ~(((uint32_t) XMC_CCU4_SLICE_EVENT_LEVEL_CONFIG_MASK) << CCU4_CC4_INS2_EV2LM_Pos);
 711:../Libraries/XMCLib/src/xmc_ccu4.c ****   ins |= ((uint32_t) ev2_config->level) << CCU4_CC4_INS2_EV2LM_Pos;
 712:../Libraries/XMCLib/src/xmc_ccu4.c ****   
 713:../Libraries/XMCLib/src/xmc_ccu4.c ****   /* Configure the debounce filter for event 1 */
 714:../Libraries/XMCLib/src/xmc_ccu4.c ****   ins &= ~(((uint32_t) XMC_CCU4_SLICE_EVENT_FILTER_CONFIG_MASK) << CCU4_CC4_INS2_LPF1M_Pos);
 715:../Libraries/XMCLib/src/xmc_ccu4.c ****   ins |= ((uint32_t) ev1_config->duration) << CCU4_CC4_INS2_LPF1M_Pos;
 716:../Libraries/XMCLib/src/xmc_ccu4.c **** 
 717:../Libraries/XMCLib/src/xmc_ccu4.c ****   /* Configure the debounce filter for event 2 */
 718:../Libraries/XMCLib/src/xmc_ccu4.c ****   ins &= ~(((uint32_t) XMC_CCU4_SLICE_EVENT_FILTER_CONFIG_MASK) << CCU4_CC4_INS2_LPF2M_Pos);
 719:../Libraries/XMCLib/src/xmc_ccu4.c ****   ins |= ((uint32_t) ev2_config->duration) << CCU4_CC4_INS2_LPF2M_Pos;
 720:../Libraries/XMCLib/src/xmc_ccu4.c ****   
 721:../Libraries/XMCLib/src/xmc_ccu4.c ****   slice->INS2 = ins;
 722:../Libraries/XMCLib/src/xmc_ccu4.c ****   
 723:../Libraries/XMCLib/src/xmc_ccu4.c ****   ins = slice->INS1;
 724:../Libraries/XMCLib/src/xmc_ccu4.c ****   
 725:../Libraries/XMCLib/src/xmc_ccu4.c ****   /* Next, the input for Event1 */
 726:../Libraries/XMCLib/src/xmc_ccu4.c ****   ins &= ~(((uint32_t) XMC_CCU4_SLICE_EVENT_INPUT_CONFIG_MASK) << CCU4_CC4_INS1_EV1IS_Pos);
 727:../Libraries/XMCLib/src/xmc_ccu4.c ****   ins |= ((uint32_t) ev1_config->mapped_input) << CCU4_CC4_INS1_EV1IS_Pos;
 728:../Libraries/XMCLib/src/xmc_ccu4.c **** 
 729:../Libraries/XMCLib/src/xmc_ccu4.c ****   /* Finally, the input for Event2 */
 730:../Libraries/XMCLib/src/xmc_ccu4.c ****   ins &= ~(((uint32_t) XMC_CCU4_SLICE_EVENT_INPUT_CONFIG_MASK) << CCU4_CC4_INS1_EV2IS_Pos);
 731:../Libraries/XMCLib/src/xmc_ccu4.c ****   ins |= ((uint32_t) ev2_config->mapped_input) << CCU4_CC4_INS1_EV2IS_Pos;
 732:../Libraries/XMCLib/src/xmc_ccu4.c ****   
 733:../Libraries/XMCLib/src/xmc_ccu4.c ****   slice->INS1 = ins;
 734:../Libraries/XMCLib/src/xmc_ccu4.c **** #else
 735:../Libraries/XMCLib/src/xmc_ccu4.c ****   ins = slice->INS;
 1156              	 .loc 1 735 0
 1157 0002 0368     	 ldr r3,[r0]
 1158              	.LVL126:
 736:../Libraries/XMCLib/src/xmc_ccu4.c **** 
 737:../Libraries/XMCLib/src/xmc_ccu4.c ****   /* Configure the edge sensitivity for event 1 */
 738:../Libraries/XMCLib/src/xmc_ccu4.c ****   ins &= ~(((uint32_t) XMC_CCU4_SLICE_EVENT_EDGE_CONFIG_MASK) << CCU4_CC4_INS_EV1EM_Pos);
 739:../Libraries/XMCLib/src/xmc_ccu4.c ****   ins |= ((uint32_t) ev1_config->edge) << CCU4_CC4_INS_EV1EM_Pos;
 1159              	 .loc 1 739 0
 1160 0004 4E78     	 ldrb r6,[r1,#1]
 740:../Libraries/XMCLib/src/xmc_ccu4.c ****   
 741:../Libraries/XMCLib/src/xmc_ccu4.c ****   /* Configure the edge sensitivity for event 2 */
 742:../Libraries/XMCLib/src/xmc_ccu4.c ****   ins &= ~(((uint32_t) XMC_CCU4_SLICE_EVENT_EDGE_CONFIG_MASK) << CCU4_CC4_INS_EV2EM_Pos);
 743:../Libraries/XMCLib/src/xmc_ccu4.c ****   ins |= ((uint32_t) ev2_config->edge) << CCU4_CC4_INS_EV2EM_Pos;
 744:../Libraries/XMCLib/src/xmc_ccu4.c ****   
 745:../Libraries/XMCLib/src/xmc_ccu4.c ****   /* Configure the level sensitivity for event 1 */
 746:../Libraries/XMCLib/src/xmc_ccu4.c ****   ins &= ~(((uint32_t) XMC_CCU4_SLICE_EVENT_LEVEL_CONFIG_MASK) << CCU4_CC4_INS_EV1LM_Pos);
 747:../Libraries/XMCLib/src/xmc_ccu4.c ****   ins |= ((uint32_t) ev1_config->level) << CCU4_CC4_INS_EV1LM_Pos;
 1161              	 .loc 1 747 0
 1162 0006 91F802E0 	 ldrb lr,[r1,#2]
 748:../Libraries/XMCLib/src/xmc_ccu4.c ****   
 749:../Libraries/XMCLib/src/xmc_ccu4.c ****   /* Configure the level sensitivity for event 2 */
 750:../Libraries/XMCLib/src/xmc_ccu4.c ****   ins &= ~(((uint32_t) XMC_CCU4_SLICE_EVENT_LEVEL_CONFIG_MASK) << CCU4_CC4_INS_EV2LM_Pos);
 751:../Libraries/XMCLib/src/xmc_ccu4.c ****   ins |= ((uint32_t) ev2_config->level) << CCU4_CC4_INS_EV2LM_Pos;
 752:../Libraries/XMCLib/src/xmc_ccu4.c ****   
 753:../Libraries/XMCLib/src/xmc_ccu4.c ****   /* Configure the debounce filter for event 1 */
 754:../Libraries/XMCLib/src/xmc_ccu4.c ****   ins &= ~(((uint32_t) XMC_CCU4_SLICE_EVENT_FILTER_CONFIG_MASK) << CCU4_CC4_INS_LPF1M_Pos);
 755:../Libraries/XMCLib/src/xmc_ccu4.c ****   ins |= ((uint32_t) ev1_config->duration) << CCU4_CC4_INS_LPF1M_Pos;
 1163              	 .loc 1 755 0
 1164 000a CF78     	 ldrb r7,[r1,#3]
 756:../Libraries/XMCLib/src/xmc_ccu4.c **** 
 757:../Libraries/XMCLib/src/xmc_ccu4.c ****   /* Configure the debounce filter for event 2 */
 758:../Libraries/XMCLib/src/xmc_ccu4.c ****   ins &= ~(((uint32_t) XMC_CCU4_SLICE_EVENT_FILTER_CONFIG_MASK) << CCU4_CC4_INS_LPF2M_Pos);
 759:../Libraries/XMCLib/src/xmc_ccu4.c ****   ins |= ((uint32_t) ev2_config->duration) << CCU4_CC4_INS_LPF2M_Pos;
