   1              	 .syntax unified
   2              	 .cpu cortex-m4
   3              	 .eabi_attribute 27,3
   4              	 .fpu fpv4-sp-d16
   5              	 .eabi_attribute 20,1
   6              	 .eabi_attribute 21,1
   7              	 .eabi_attribute 23,3
   8              	 .eabi_attribute 24,1
   9              	 .eabi_attribute 25,1
  10              	 .eabi_attribute 26,1
  11              	 .eabi_attribute 30,2
  12              	 .eabi_attribute 34,1
  13              	 .eabi_attribute 18,4
  14              	 .thumb
  15              	 .file "xmc_wdt.c"
  16              	 .text
  17              	.Ltext0:
  18              	 .cfi_sections .debug_frame
  19              	 .section .text.XMC_WDT_Enable,"ax",%progbits
  20              	 .align 2
  21              	 .global XMC_WDT_Enable
  22              	 .thumb
  23              	 .thumb_func
  25              	XMC_WDT_Enable:
  26              	.LFB171:
  27              	 .file 1 "../Libraries/XMCLib/src/xmc_wdt.c"
   1:../Libraries/XMCLib/src/xmc_wdt.c **** /**
   2:../Libraries/XMCLib/src/xmc_wdt.c ****  * @file xmc_wdt.c
   3:../Libraries/XMCLib/src/xmc_wdt.c ****  * @date 2015-06-20
   4:../Libraries/XMCLib/src/xmc_wdt.c ****  *
   5:../Libraries/XMCLib/src/xmc_wdt.c ****  * @cond
   6:../Libraries/XMCLib/src/xmc_wdt.c ****  **************************************************************************************************
   7:../Libraries/XMCLib/src/xmc_wdt.c ****  * XMClib v2.1.16 - XMC Peripheral Driver Library
   8:../Libraries/XMCLib/src/xmc_wdt.c ****  *
   9:../Libraries/XMCLib/src/xmc_wdt.c ****  * Copyright (c) 2015-2017, Infineon Technologies AG
  10:../Libraries/XMCLib/src/xmc_wdt.c ****  * All rights reserved.                        
  11:../Libraries/XMCLib/src/xmc_wdt.c ****  *                                             
  12:../Libraries/XMCLib/src/xmc_wdt.c ****  * Redistribution and use in source and binary forms, with or without modification,are permitted pr
  13:../Libraries/XMCLib/src/xmc_wdt.c ****  * following conditions are met:   
  14:../Libraries/XMCLib/src/xmc_wdt.c ****  *                                                                              
  15:../Libraries/XMCLib/src/xmc_wdt.c ****  * Redistributions of source code must retain the above copyright notice, this list of conditions a
  16:../Libraries/XMCLib/src/xmc_wdt.c ****  * disclaimer.                        
  17:../Libraries/XMCLib/src/xmc_wdt.c ****  * 
  18:../Libraries/XMCLib/src/xmc_wdt.c ****  * Redistributions in binary form must reproduce the above copyright notice, this list of condition
  19:../Libraries/XMCLib/src/xmc_wdt.c ****  * disclaimer in the documentation and/or other materials provided with the distribution.          
  20:../Libraries/XMCLib/src/xmc_wdt.c ****  * 
  21:../Libraries/XMCLib/src/xmc_wdt.c ****  * Neither the name of the copyright holders nor the names of its contributors may be used to endor
  22:../Libraries/XMCLib/src/xmc_wdt.c ****  * products derived from this software without specific prior written permission.                  
  23:../Libraries/XMCLib/src/xmc_wdt.c ****  *                                                                              
  24:../Libraries/XMCLib/src/xmc_wdt.c ****  * THIS SOFTWARE IS PROVIDED BY THE COPYRIGHT HOLDERS AND CONTRIBUTORS "AS IS" AND ANY EXPRESS OR I
  25:../Libraries/XMCLib/src/xmc_wdt.c ****  * INCLUDING, BUT NOT LIMITED TO, THE IMPLIED WARRANTIES OF MERCHANTABILITY AND FITNESS FOR A PARTI
  26:../Libraries/XMCLib/src/xmc_wdt.c ****  * DISCLAIMED. IN NO EVENT SHALL THE COPYRIGHT HOLDER OR CONTRIBUTORS BE LIABLE  FOR ANY DIRECT, IN
  27:../Libraries/XMCLib/src/xmc_wdt.c ****  * SPECIAL, EXEMPLARY, OR CONSEQUENTIAL DAMAGES (INCLUDING, BUT NOT LIMITED TO, PROCUREMENT OF SUBS
  28:../Libraries/XMCLib/src/xmc_wdt.c ****  * SERVICES; LOSS OF USE, DATA, OR PROFITS; OR BUSINESS INTERRUPTION) HOWEVER CAUSED AND ON ANY THE
  29:../Libraries/XMCLib/src/xmc_wdt.c ****  * WHETHER IN CONTRACT, STRICT LIABILITY,OR TORT (INCLUDING NEGLIGENCE OR OTHERWISE) ARISING IN ANY
  30:../Libraries/XMCLib/src/xmc_wdt.c ****  * OF THIS SOFTWARE, EVEN IF ADVISED OF THE POSSIBILITY OF SUCH DAMAGE.                            
  31:../Libraries/XMCLib/src/xmc_wdt.c ****  *                                                                              
  32:../Libraries/XMCLib/src/xmc_wdt.c ****  * To improve the quality of the software, users are encouraged to share modifications, enhancement
  33:../Libraries/XMCLib/src/xmc_wdt.c ****  * Infineon Technologies AG dave@infineon.com).                                                    
  34:../Libraries/XMCLib/src/xmc_wdt.c ****  **************************************************************************************************
  35:../Libraries/XMCLib/src/xmc_wdt.c ****  *
  36:../Libraries/XMCLib/src/xmc_wdt.c ****  * Change History
  37:../Libraries/XMCLib/src/xmc_wdt.c ****  * --------------
  38:../Libraries/XMCLib/src/xmc_wdt.c ****  *
  39:../Libraries/XMCLib/src/xmc_wdt.c ****  * 2015-02-20:
  40:../Libraries/XMCLib/src/xmc_wdt.c ****  *     - Initial <br>
  41:../Libraries/XMCLib/src/xmc_wdt.c ****  *
  42:../Libraries/XMCLib/src/xmc_wdt.c ****  * 2015-06-20:
  43:../Libraries/XMCLib/src/xmc_wdt.c ****  *     - Removed definition of GetDriverVersion API <br>
  44:../Libraries/XMCLib/src/xmc_wdt.c ****  *
  45:../Libraries/XMCLib/src/xmc_wdt.c ****  * @endcond
  46:../Libraries/XMCLib/src/xmc_wdt.c ****  */
  47:../Libraries/XMCLib/src/xmc_wdt.c ****  
  48:../Libraries/XMCLib/src/xmc_wdt.c **** /**************************************************************************************************
  49:../Libraries/XMCLib/src/xmc_wdt.c ****  * HEADER FILES
  50:../Libraries/XMCLib/src/xmc_wdt.c ****  **************************************************************************************************
  51:../Libraries/XMCLib/src/xmc_wdt.c **** #include "xmc_wdt.h"
  52:../Libraries/XMCLib/src/xmc_wdt.c **** #include "xmc_scu.h"
  53:../Libraries/XMCLib/src/xmc_wdt.c **** 
  54:../Libraries/XMCLib/src/xmc_wdt.c **** /**************************************************************************************************
  55:../Libraries/XMCLib/src/xmc_wdt.c ****  * API IMPLEMENTATION
  56:../Libraries/XMCLib/src/xmc_wdt.c ****   *************************************************************************************************
  57:../Libraries/XMCLib/src/xmc_wdt.c **** 
  58:../Libraries/XMCLib/src/xmc_wdt.c **** /* Enables watchdog clock and releases watchdog reset. */
  59:../Libraries/XMCLib/src/xmc_wdt.c **** void XMC_WDT_Enable(void)
  60:../Libraries/XMCLib/src/xmc_wdt.c **** {
  28              	 .loc 1 60 0
  29              	 .cfi_startproc
  30              	 
  31              	 
  32 0000 10B5     	 push {r4,lr}
  33              	.LCFI0:
  34              	 .cfi_def_cfa_offset 8
  35              	 .cfi_offset 4,-8
  36              	 .cfi_offset 14,-4
  61:../Libraries/XMCLib/src/xmc_wdt.c **** #if UC_FAMILY == XMC4
  62:../Libraries/XMCLib/src/xmc_wdt.c ****   XMC_SCU_CLOCK_EnableClock(XMC_SCU_CLOCK_WDT);
  63:../Libraries/XMCLib/src/xmc_wdt.c **** #endif
  64:../Libraries/XMCLib/src/xmc_wdt.c **** 
  65:../Libraries/XMCLib/src/xmc_wdt.c **** #if defined(CLOCK_GATING_SUPPORTED)
  66:../Libraries/XMCLib/src/xmc_wdt.c ****   XMC_SCU_CLOCK_UngatePeripheralClock(XMC_SCU_PERIPHERAL_CLOCK_WDT);
  37              	 .loc 1 66 0
  38 0002 064C     	 ldr r4,.L3
  62:../Libraries/XMCLib/src/xmc_wdt.c **** #endif
  39              	 .loc 1 62 0
  40 0004 2020     	 movs r0,#32
  41 0006 FFF7FEFF 	 bl XMC_SCU_CLOCK_EnableClock
  42              	.LVL0:
  43              	 .loc 1 66 0
  44 000a 2046     	 mov r0,r4
  45 000c FFF7FEFF 	 bl XMC_SCU_CLOCK_UngatePeripheralClock
  46              	.LVL1:
  67:../Libraries/XMCLib/src/xmc_wdt.c **** #endif
  68:../Libraries/XMCLib/src/xmc_wdt.c **** #if defined(PERIPHERAL_RESET_SUPPORTED)
  69:../Libraries/XMCLib/src/xmc_wdt.c ****   XMC_SCU_RESET_DeassertPeripheralReset(XMC_SCU_PERIPHERAL_RESET_WDT);
  47              	 .loc 1 69 0
  48 0010 2046     	 mov r0,r4
  70:../Libraries/XMCLib/src/xmc_wdt.c **** #endif  
  71:../Libraries/XMCLib/src/xmc_wdt.c **** }
  49              	 .loc 1 71 0
  50 0012 BDE81040 	 pop {r4,lr}
  51              	.LCFI1:
  52              	 .cfi_restore 14
  53              	 .cfi_restore 4
  54              	 .cfi_def_cfa_offset 0
  69:../Libraries/XMCLib/src/xmc_wdt.c **** #endif  
  55              	 .loc 1 69 0
  56 0016 FFF7FEBF 	 b XMC_SCU_RESET_DeassertPeripheralReset
  57              	.LVL2:
  58              	.L4:
  59 001a 00BF     	 .align 2
  60              	.L3:
  61 001c 02000020 	 .word 536870914
  62              	 .cfi_endproc
  63              	.LFE171:
  65              	 .section .text.XMC_WDT_Disable,"ax",%progbits
  66              	 .align 2
  67              	 .global XMC_WDT_Disable
  68              	 .thumb
  69              	 .thumb_func
  71              	XMC_WDT_Disable:
  72              	.LFB172:
  72:../Libraries/XMCLib/src/xmc_wdt.c **** 
  73:../Libraries/XMCLib/src/xmc_wdt.c **** /* Disables watchdog clock and resets watchdog. */
  74:../Libraries/XMCLib/src/xmc_wdt.c **** void XMC_WDT_Disable(void)
  75:../Libraries/XMCLib/src/xmc_wdt.c **** {
  73              	 .loc 1 75 0
  74              	 .cfi_startproc
  75              	 
  76              	 
  77 0000 10B5     	 push {r4,lr}
  78              	.LCFI2:
  79              	 .cfi_def_cfa_offset 8
  80              	 .cfi_offset 4,-8
  81              	 .cfi_offset 14,-4
  76:../Libraries/XMCLib/src/xmc_wdt.c **** #if defined(PERIPHERAL_RESET_SUPPORTED)
  77:../Libraries/XMCLib/src/xmc_wdt.c ****   XMC_SCU_RESET_AssertPeripheralReset(XMC_SCU_PERIPHERAL_RESET_WDT);
  82              	 .loc 1 77 0
  83 0002 064C     	 ldr r4,.L7
  84 0004 2046     	 mov r0,r4
  85 0006 FFF7FEFF 	 bl XMC_SCU_RESET_AssertPeripheralReset
  86              	.LVL3:
  78:../Libraries/XMCLib/src/xmc_wdt.c **** #endif  
  79:../Libraries/XMCLib/src/xmc_wdt.c **** #if defined(CLOCK_GATING_SUPPORTED)
  80:../Libraries/XMCLib/src/xmc_wdt.c ****   XMC_SCU_CLOCK_GatePeripheralClock(XMC_SCU_PERIPHERAL_CLOCK_WDT); 
  87              	 .loc 1 80 0
  88 000a 2046     	 mov r0,r4
  89 000c FFF7FEFF 	 bl XMC_SCU_CLOCK_GatePeripheralClock
  90              	.LVL4:
  81:../Libraries/XMCLib/src/xmc_wdt.c **** #endif
  82:../Libraries/XMCLib/src/xmc_wdt.c **** 
  83:../Libraries/XMCLib/src/xmc_wdt.c **** #if UC_FAMILY == XMC4
  84:../Libraries/XMCLib/src/xmc_wdt.c ****   XMC_SCU_CLOCK_DisableClock(XMC_SCU_CLOCK_WDT);
  91              	 .loc 1 84 0
  92 0010 2020     	 movs r0,#32
  85:../Libraries/XMCLib/src/xmc_wdt.c **** #endif
  86:../Libraries/XMCLib/src/xmc_wdt.c **** }
  93              	 .loc 1 86 0
  94 0012 BDE81040 	 pop {r4,lr}
  95              	.LCFI3:
  96              	 .cfi_restore 14
  97              	 .cfi_restore 4
  98              	 .cfi_def_cfa_offset 0
  84:../Libraries/XMCLib/src/xmc_wdt.c **** #endif
  99              	 .loc 1 84 0
 100 0016 FFF7FEBF 	 b XMC_SCU_CLOCK_DisableClock
 101              	.LVL5:
 102              	.L8:
 103 001a 00BF     	 .align 2
 104              	.L7:
 105 001c 02000020 	 .word 536870914
 106              	 .cfi_endproc
 107              	.LFE172:
 109              	 .section .text.XMC_WDT_Init,"ax",%progbits
 110              	 .align 2
 111              	 .global XMC_WDT_Init
 112              	 .thumb
 113              	 .thumb_func
 115              	XMC_WDT_Init:
 116              	.LFB173:
  87:../Libraries/XMCLib/src/xmc_wdt.c **** /* Initializes and configures watchdog with configuration data pointed by \a config. */
  88:../Libraries/XMCLib/src/xmc_wdt.c **** void XMC_WDT_Init(const XMC_WDT_CONFIG_t *const config)
  89:../Libraries/XMCLib/src/xmc_wdt.c **** {
 117              	 .loc 1 89 0
 118              	 .cfi_startproc
 119              	 
 120              	 
 121              	.LVL6:
 122 0000 38B5     	 push {r3,r4,r5,lr}
 123              	.LCFI4:
 124              	 .cfi_def_cfa_offset 16
 125              	 .cfi_offset 3,-16
 126              	 .cfi_offset 4,-12
 127              	 .cfi_offset 5,-8
 128              	 .cfi_offset 14,-4
 129              	.LBB4:
 130              	.LBB5:
  66:../Libraries/XMCLib/src/xmc_wdt.c **** #endif
 131              	 .loc 1 66 0
 132 0002 094D     	 ldr r5,.L11
 133              	.LBE5:
 134              	.LBE4:
 135              	 .loc 1 89 0
 136 0004 0446     	 mov r4,r0
 137              	.LBB7:
 138              	.LBB6:
  62:../Libraries/XMCLib/src/xmc_wdt.c **** #endif
 139              	 .loc 1 62 0
 140 0006 2020     	 movs r0,#32
 141              	.LVL7:
 142 0008 FFF7FEFF 	 bl XMC_SCU_CLOCK_EnableClock
 143              	.LVL8:
  66:../Libraries/XMCLib/src/xmc_wdt.c **** #endif
 144              	 .loc 1 66 0
 145 000c 2846     	 mov r0,r5
 146 000e FFF7FEFF 	 bl XMC_SCU_CLOCK_UngatePeripheralClock
 147              	.LVL9:
  69:../Libraries/XMCLib/src/xmc_wdt.c **** #endif  
 148              	 .loc 1 69 0
 149 0012 2846     	 mov r0,r5
 150 0014 FFF7FEFF 	 bl XMC_SCU_RESET_DeassertPeripheralReset
 151              	.LVL10:
 152              	.LBE6:
 153              	.LBE7:
  90:../Libraries/XMCLib/src/xmc_wdt.c ****   XMC_WDT_Enable();
  91:../Libraries/XMCLib/src/xmc_wdt.c ****   WDT->CTR = config->wdt_ctr;
 154              	 .loc 1 91 0
 155 0018 044B     	 ldr r3,.L11+4
 156 001a A268     	 ldr r2,[r4,#8]
 157 001c 5A60     	 str r2,[r3,#4]
  92:../Libraries/XMCLib/src/xmc_wdt.c ****   WDT->WLB = config->window_lower_bound;
 158              	 .loc 1 92 0
 159 001e 6268     	 ldr r2,[r4,#4]
 160 0020 1A61     	 str r2,[r3,#16]
  93:../Libraries/XMCLib/src/xmc_wdt.c ****   WDT->WUB = config->window_upper_bound;
 161              	 .loc 1 93 0
 162 0022 2268     	 ldr r2,[r4]
 163 0024 5A61     	 str r2,[r3,#20]
 164 0026 38BD     	 pop {r3,r4,r5,pc}
 165              	.LVL11:
 166              	.L12:
 167              	 .align 2
 168              	.L11:
 169 0028 02000020 	 .word 536870914
 170 002c 00800050 	 .word 1342210048
 171              	 .cfi_endproc
 172              	.LFE173:
 174              	 .text
 175              	.Letext0:
 176              	 .file 2 "c:\\infineon\\tools\\dave ide\\4.5.0.202105191637\\eclipse\\arm-gcc-49\\arm-none-eabi\\include\\machine\\_default_types.h"
 177              	 .file 3 "c:\\infineon\\tools\\dave ide\\4.5.0.202105191637\\eclipse\\arm-gcc-49\\arm-none-eabi\\include\\stdint.h"
 178              	 .file 4 "C:/Users/Utente/Desktop/Tesi/Firmware_Software/DAVE project/S2GLP_Pulsed_Doppler/Libraries/CMSIS/Infineon/XMC4700_series/Include/XMC4700.h"
 179              	 .file 5 "C:/Users/Utente/Desktop/Tesi/Firmware_Software/DAVE project/S2GLP_Pulsed_Doppler/Libraries/XMCLib/inc/xmc4_scu.h"
 180              	 .file 6 "C:/Users/Utente/Desktop/Tesi/Firmware_Software/DAVE project/S2GLP_Pulsed_Doppler/Libraries/XMCLib/inc/xmc_wdt.h"
 181              	 .file 7 "C:/Users/Utente/Desktop/Tesi/Firmware_Software/DAVE project/S2GLP_Pulsed_Doppler/Libraries/CMSIS/Include/core_cm4.h"
 182              	 .file 8 "C:/Users/Utente/Desktop/Tesi/Firmware_Software/DAVE project/S2GLP_Pulsed_Doppler/Libraries/CMSIS/Infineon/XMC4700_series/Include/system_XMC4700.h"
 183              	 .file 9 "C:/Users/Utente/Desktop/Tesi/Firmware_Software/DAVE project/S2GLP_Pulsed_Doppler/Libraries/XMCLib/inc/xmc_scu.h"