   1              	 .syntax unified
   2              	 .cpu cortex-m4
   3              	 .eabi_attribute 27,3
   4              	 .fpu fpv4-sp-d16
   5              	 .eabi_attribute 20,1
   6              	 .eabi_attribute 21,1
   7              	 .eabi_attribute 23,3
   8              	 .eabi_attribute 24,1
   9              	 .eabi_attribute 25,1
  10              	 .eabi_attribute 26,1
  11              	 .eabi_attribute 30,2
  12              	 .eabi_attribute 34,1
  13              	 .eabi_attribute 18,4
  14              	 .thumb
  15              	 .file "xmc_dac.c"
  16              	 .text
  17              	.Ltext0:
  18              	 .cfi_sections .debug_frame
  19              	 .section .text.XMC_DAC_Enable,"ax",%progbits
  20              	 .align 2
  21              	 .global XMC_DAC_Enable
  22              	 .thumb
  23              	 .thumb_func
  25              	XMC_DAC_Enable:
  26              	.LFB190:
  27              	 .file 1 "../Libraries/XMCLib/src/xmc_dac.c"
   1:../Libraries/XMCLib/src/xmc_dac.c **** /**
   2:../Libraries/XMCLib/src/xmc_dac.c ****  * @file xmc_dac.c
   3:../Libraries/XMCLib/src/xmc_dac.c ****  * @date 2015-06-19
   4:../Libraries/XMCLib/src/xmc_dac.c ****  *
   5:../Libraries/XMCLib/src/xmc_dac.c ****  * @cond
   6:../Libraries/XMCLib/src/xmc_dac.c ****  **********************************************************************************
   7:../Libraries/XMCLib/src/xmc_dac.c ****  * XMClib v2.1.16 - XMC Peripheral Driver Library 
   8:../Libraries/XMCLib/src/xmc_dac.c ****  *
   9:../Libraries/XMCLib/src/xmc_dac.c ****  * Copyright (c) 2015-2017, Infineon Technologies AG
  10:../Libraries/XMCLib/src/xmc_dac.c ****  * All rights reserved.                        
  11:../Libraries/XMCLib/src/xmc_dac.c ****  *                                             
  12:../Libraries/XMCLib/src/xmc_dac.c ****  * Redistribution and use in source and binary forms, with or without           
  13:../Libraries/XMCLib/src/xmc_dac.c ****  * modification,are permitted provided that the following conditions are met:   
  14:../Libraries/XMCLib/src/xmc_dac.c ****  *                                                                              
  15:../Libraries/XMCLib/src/xmc_dac.c ****  *   Redistributions of source code must retain the above copyright notice,      
  16:../Libraries/XMCLib/src/xmc_dac.c ****  *   this list of conditions and the following disclaimer.                        
  17:../Libraries/XMCLib/src/xmc_dac.c ****  * 
  18:../Libraries/XMCLib/src/xmc_dac.c ****  *   Redistributions in binary form must reproduce the above copyright notice,   
  19:../Libraries/XMCLib/src/xmc_dac.c ****  *   this list of conditions and the following disclaimer in the documentation    
  20:../Libraries/XMCLib/src/xmc_dac.c ****  *   and/or other materials provided with the distribution.                       
  21:../Libraries/XMCLib/src/xmc_dac.c ****  * 
  22:../Libraries/XMCLib/src/xmc_dac.c ****  *   Neither the name of the copyright holders nor the names of its contributors 
  23:../Libraries/XMCLib/src/xmc_dac.c ****  *   may be used to endorse or promote products derived from this software without
  24:../Libraries/XMCLib/src/xmc_dac.c ****  *   specific prior written permission.                                           
  25:../Libraries/XMCLib/src/xmc_dac.c ****  *                                                                              
  26:../Libraries/XMCLib/src/xmc_dac.c ****  * THIS SOFTWARE IS PROVIDED BY THE COPYRIGHT HOLDERS AND CONTRIBUTORS "AS IS"  
  27:../Libraries/XMCLib/src/xmc_dac.c ****  * AND ANY EXPRESS OR IMPLIED WARRANTIES, INCLUDING, BUT NOT LIMITED TO, THE    
  28:../Libraries/XMCLib/src/xmc_dac.c ****  * IMPLIED WARRANTIES OF MERCHANTABILITY AND FITNESS FOR A PARTICULAR PURPOSE   
  29:../Libraries/XMCLib/src/xmc_dac.c ****  * ARE  DISCLAIMED. IN NO EVENT SHALL THE COPYRIGHT HOLDER OR CONTRIBUTORS BE   
  30:../Libraries/XMCLib/src/xmc_dac.c ****  * LIABLE  FOR ANY DIRECT, INDIRECT, INCIDENTAL, SPECIAL, EXEMPLARY, OR         
  31:../Libraries/XMCLib/src/xmc_dac.c ****  * CONSEQUENTIAL DAMAGES (INCLUDING, BUT NOT LIMITED TO, PROCUREMENT OF         
  32:../Libraries/XMCLib/src/xmc_dac.c ****  * SUBSTITUTE GOODS OR  SERVICES; LOSS OF USE, DATA, OR PROFITS; OR BUSINESS    
  33:../Libraries/XMCLib/src/xmc_dac.c ****  * INTERRUPTION) HOWEVER CAUSED AND ON ANY THEORY OF LIABILITY, WHETHER IN      
  34:../Libraries/XMCLib/src/xmc_dac.c ****  * CONTRACT, STRICT LIABILITY,OR TORT (INCLUDING NEGLIGENCE OR OTHERWISE)       
  35:../Libraries/XMCLib/src/xmc_dac.c ****  * ARISING IN ANY WAY OUT OF THE USE OF THIS SOFTWARE, EVEN IF ADVISED OF THE   
  36:../Libraries/XMCLib/src/xmc_dac.c ****  * POSSIBILITY OF SUCH DAMAGE.                                                  
  37:../Libraries/XMCLib/src/xmc_dac.c ****  *                                                                              
  38:../Libraries/XMCLib/src/xmc_dac.c ****  * To improve the quality of the software, users are encouraged to share        
  39:../Libraries/XMCLib/src/xmc_dac.c ****  * modifications, enhancements or bug fixes with Infineon Technologies AG       
  40:../Libraries/XMCLib/src/xmc_dac.c ****  * dave@infineon.com).                                                          
  41:../Libraries/XMCLib/src/xmc_dac.c ****  **********************************************************************************
  42:../Libraries/XMCLib/src/xmc_dac.c ****  *
  43:../Libraries/XMCLib/src/xmc_dac.c ****  * Change History
  44:../Libraries/XMCLib/src/xmc_dac.c ****  * --------------
  45:../Libraries/XMCLib/src/xmc_dac.c ****  *
  46:../Libraries/XMCLib/src/xmc_dac.c ****  * 2015-02-18:
  47:../Libraries/XMCLib/src/xmc_dac.c ****  *     - Initial version
  48:../Libraries/XMCLib/src/xmc_dac.c ****  *
  49:../Libraries/XMCLib/src/xmc_dac.c ****  * 2015-06-19:
  50:../Libraries/XMCLib/src/xmc_dac.c ****  *     - Removed GetDriverVersion API
  51:../Libraries/XMCLib/src/xmc_dac.c ****  * @endcond 
  52:../Libraries/XMCLib/src/xmc_dac.c ****  *
  53:../Libraries/XMCLib/src/xmc_dac.c ****  */
  54:../Libraries/XMCLib/src/xmc_dac.c **** 
  55:../Libraries/XMCLib/src/xmc_dac.c **** /*******************************************************************************
  56:../Libraries/XMCLib/src/xmc_dac.c ****  * HEADER FILES
  57:../Libraries/XMCLib/src/xmc_dac.c ****  *******************************************************************************/
  58:../Libraries/XMCLib/src/xmc_dac.c **** 
  59:../Libraries/XMCLib/src/xmc_dac.c **** #include <xmc_dac.h>
  60:../Libraries/XMCLib/src/xmc_dac.c **** #include <xmc_scu.h>
  61:../Libraries/XMCLib/src/xmc_dac.c **** 
  62:../Libraries/XMCLib/src/xmc_dac.c **** /* DAC peripheral is not available on XMC1X devices. */
  63:../Libraries/XMCLib/src/xmc_dac.c **** #if defined(DAC)
  64:../Libraries/XMCLib/src/xmc_dac.c **** 
  65:../Libraries/XMCLib/src/xmc_dac.c **** /*******************************************************************************
  66:../Libraries/XMCLib/src/xmc_dac.c ****  * MACROS
  67:../Libraries/XMCLib/src/xmc_dac.c ****  *******************************************************************************/
  68:../Libraries/XMCLib/src/xmc_dac.c **** 
  69:../Libraries/XMCLib/src/xmc_dac.c **** #define XMC_DAC_MIN_FREQ_DIVIDER (16U)
  70:../Libraries/XMCLib/src/xmc_dac.c **** #define XMC_DAC_MAX_FREQ_DIVIDER (1048576U)
  71:../Libraries/XMCLib/src/xmc_dac.c **** #define XMC_DAC_DAC0PATL_PAT_BITSIZE (5U)
  72:../Libraries/XMCLib/src/xmc_dac.c **** 
  73:../Libraries/XMCLib/src/xmc_dac.c **** /*******************************************************************************
  74:../Libraries/XMCLib/src/xmc_dac.c ****  * API IMPLEMENTATION
  75:../Libraries/XMCLib/src/xmc_dac.c ****  *******************************************************************************/
  76:../Libraries/XMCLib/src/xmc_dac.c **** 
  77:../Libraries/XMCLib/src/xmc_dac.c **** /* API to enable the DAC module */
  78:../Libraries/XMCLib/src/xmc_dac.c **** void XMC_DAC_Enable(XMC_DAC_t *const dac)
  79:../Libraries/XMCLib/src/xmc_dac.c **** {
  28              	 .loc 1 79 0
  29              	 .cfi_startproc
  30              	 
  31              	 
  32              	.LVL0:
  33 0000 10B5     	 push {r4,lr}
  34              	.LCFI0:
  35              	 .cfi_def_cfa_offset 8
  36              	 .cfi_offset 4,-8
  37              	 .cfi_offset 14,-4
  80:../Libraries/XMCLib/src/xmc_dac.c ****   XMC_UNUSED_ARG(dac);
  81:../Libraries/XMCLib/src/xmc_dac.c ****   
  82:../Libraries/XMCLib/src/xmc_dac.c **** #if defined(CLOCK_GATING_SUPPORTED)
  83:../Libraries/XMCLib/src/xmc_dac.c ****   XMC_SCU_CLOCK_UngatePeripheralClock(XMC_SCU_PERIPHERAL_CLOCK_DAC);
  38              	 .loc 1 83 0
  39 0002 044C     	 ldr r4,.L3
  40 0004 2046     	 mov r0,r4
  41              	.LVL1:
  42 0006 FFF7FEFF 	 bl XMC_SCU_CLOCK_UngatePeripheralClock
  43              	.LVL2:
  84:../Libraries/XMCLib/src/xmc_dac.c **** #endif
  85:../Libraries/XMCLib/src/xmc_dac.c ****   XMC_SCU_RESET_DeassertPeripheralReset(XMC_SCU_PERIPHERAL_RESET_DAC);
  44              	 .loc 1 85 0
  45 000a 2046     	 mov r0,r4
  86:../Libraries/XMCLib/src/xmc_dac.c **** }
  46              	 .loc 1 86 0
  47 000c BDE81040 	 pop {r4,lr}
  48              	.LCFI1:
  49              	 .cfi_restore 14
  50              	 .cfi_restore 4
  51              	 .cfi_def_cfa_offset 0
  85:../Libraries/XMCLib/src/xmc_dac.c **** }
  52              	 .loc 1 85 0
  53 0010 FFF7FEBF 	 b XMC_SCU_RESET_DeassertPeripheralReset
  54              	.LVL3:
  55              	.L4:
  56              	 .align 2
  57              	.L3:
  58 0014 20000010 	 .word 268435488
  59              	 .cfi_endproc
  60              	.LFE190:
  62              	 .section .text.XMC_DAC_Disable,"ax",%progbits
  63              	 .align 2
  64              	 .global XMC_DAC_Disable
  65              	 .thumb
  66              	 .thumb_func
  68              	XMC_DAC_Disable:
  69              	.LFB191:
  87:../Libraries/XMCLib/src/xmc_dac.c **** 
  88:../Libraries/XMCLib/src/xmc_dac.c **** /* API to disable the DAC module */
  89:../Libraries/XMCLib/src/xmc_dac.c **** void XMC_DAC_Disable(XMC_DAC_t *const dac)
  90:../Libraries/XMCLib/src/xmc_dac.c **** {
  70              	 .loc 1 90 0
  71              	 .cfi_startproc
  72              	 
  73              	 
  74              	.LVL4:
  75 0000 10B5     	 push {r4,lr}
  76              	.LCFI2:
  77              	 .cfi_def_cfa_offset 8
  78              	 .cfi_offset 4,-8
  79              	 .cfi_offset 14,-4
  91:../Libraries/XMCLib/src/xmc_dac.c ****   XMC_UNUSED_ARG(dac);
  92:../Libraries/XMCLib/src/xmc_dac.c **** 
  93:../Libraries/XMCLib/src/xmc_dac.c ****   XMC_SCU_RESET_AssertPeripheralReset(XMC_SCU_PERIPHERAL_RESET_DAC);
  80              	 .loc 1 93 0
  81 0002 044C     	 ldr r4,.L7
  82 0004 2046     	 mov r0,r4
  83              	.LVL5:
  84 0006 FFF7FEFF 	 bl XMC_SCU_RESET_AssertPeripheralReset
  85              	.LVL6:
  94:../Libraries/XMCLib/src/xmc_dac.c **** #if defined(CLOCK_GATING_SUPPORTED)
  95:../Libraries/XMCLib/src/xmc_dac.c ****   XMC_SCU_CLOCK_GatePeripheralClock(XMC_SCU_PERIPHERAL_CLOCK_DAC);
  86              	 .loc 1 95 0
  87 000a 2046     	 mov r0,r4
  96:../Libraries/XMCLib/src/xmc_dac.c **** #endif
  97:../Libraries/XMCLib/src/xmc_dac.c **** }
  88              	 .loc 1 97 0
  89 000c BDE81040 	 pop {r4,lr}
  90              	.LCFI3:
  91              	 .cfi_restore 14
  92              	 .cfi_restore 4
  93              	 .cfi_def_cfa_offset 0
  95:../Libraries/XMCLib/src/xmc_dac.c **** #endif
  94              	 .loc 1 95 0
  95 0010 FFF7FEBF 	 b XMC_SCU_CLOCK_GatePeripheralClock
  96              	.LVL7:
  97              	.L8:
  98              	 .align 2
  99              	.L7:
 100 0014 20000010 	 .word 268435488
 101              	 .cfi_endproc
 102              	.LFE191:
 104              	 .section .text.XMC_DAC_IsEnabled,"ax",%progbits
 105              	 .align 2
 106              	 .global XMC_DAC_IsEnabled
 107              	 .thumb
 108              	 .thumb_func
 110              	XMC_DAC_IsEnabled:
 111              	.LFB192:
  98:../Libraries/XMCLib/src/xmc_dac.c **** 
  99:../Libraries/XMCLib/src/xmc_dac.c **** /* API to check whether DAC is enabled */
 100:../Libraries/XMCLib/src/xmc_dac.c **** bool XMC_DAC_IsEnabled(const XMC_DAC_t *const dac)
 101:../Libraries/XMCLib/src/xmc_dac.c **** {
 112              	 .loc 1 101 0
 113              	 .cfi_startproc
 114              	 
 115              	 
 116              	.LVL8:
 117 0000 08B5     	 push {r3,lr}
 118              	.LCFI4:
 119              	 .cfi_def_cfa_offset 8
 120              	 .cfi_offset 3,-8
 121              	 .cfi_offset 14,-4
 102:../Libraries/XMCLib/src/xmc_dac.c ****   bool status;
 103:../Libraries/XMCLib/src/xmc_dac.c **** 
 104:../Libraries/XMCLib/src/xmc_dac.c ****   XMC_UNUSED_ARG(dac);
 105:../Libraries/XMCLib/src/xmc_dac.c **** 
 106:../Libraries/XMCLib/src/xmc_dac.c ****   status = XMC_SCU_RESET_IsPeripheralResetAsserted(XMC_SCU_PERIPHERAL_RESET_DAC);
 122              	 .loc 1 106 0
 123 0002 0348     	 ldr r0,.L11
 124              	.LVL9:
 125 0004 FFF7FEFF 	 bl XMC_SCU_RESET_IsPeripheralResetAsserted
 126              	.LVL10:
 107:../Libraries/XMCLib/src/xmc_dac.c ****   if(status == true)
 127              	 .loc 1 107 0
 128 0008 80F00100 	 eor r0,r0,#1
 129              	.LVL11:
 108:../Libraries/XMCLib/src/xmc_dac.c ****   {
 109:../Libraries/XMCLib/src/xmc_dac.c ****     status = false;
 110:../Libraries/XMCLib/src/xmc_dac.c ****   }
 111:../Libraries/XMCLib/src/xmc_dac.c ****   else
 112:../Libraries/XMCLib/src/xmc_dac.c ****   {
 113:../Libraries/XMCLib/src/xmc_dac.c ****     status = true;
 114:../Libraries/XMCLib/src/xmc_dac.c ****   }
 115:../Libraries/XMCLib/src/xmc_dac.c ****   return (status);
 116:../Libraries/XMCLib/src/xmc_dac.c **** }
 130              	 .loc 1 116 0
 131 000c C0B2     	 uxtb r0,r0
 132 000e 08BD     	 pop {r3,pc}
 133              	.L12:
 134              	 .align 2
 135              	.L11:
 136 0010 20000010 	 .word 268435488
 137              	 .cfi_endproc
 138              	.LFE192:
 140              	 .section .text.XMC_DAC_CH_Init,"ax",%progbits
 141              	 .align 2
 142              	 .global XMC_DAC_CH_Init
 143              	 .thumb
 144              	 .thumb_func
 146              	XMC_DAC_CH_Init:
 147              	.LFB193:
 117:../Libraries/XMCLib/src/xmc_dac.c **** 
 118:../Libraries/XMCLib/src/xmc_dac.c **** /* API to initialize DAC channel configuration */
 119:../Libraries/XMCLib/src/xmc_dac.c **** void XMC_DAC_CH_Init(XMC_DAC_t *const dac, const uint8_t channel, const XMC_DAC_CH_CONFIG_t *const 
 120:../Libraries/XMCLib/src/xmc_dac.c **** {
 148              	 .loc 1 120 0
 149              	 .cfi_startproc
 150              	 
 151              	 
 152              	.LVL12:
 153 0000 70B5     	 push {r4,r5,r6,lr}
 154              	.LCFI5:
 155              	 .cfi_def_cfa_offset 16
 156              	 .cfi_offset 4,-16
 157              	 .cfi_offset 5,-12
 158              	 .cfi_offset 6,-8
 159              	 .cfi_offset 14,-4
 160              	 .loc 1 120 0
 161 0002 0446     	 mov r4,r0
 162              	.LVL13:
 163              	.LBB48:
 164              	.LBB49:
  83:../Libraries/XMCLib/src/xmc_dac.c **** #endif
 165              	 .loc 1 83 0
 166 0004 0A48     	 ldr r0,.L17
 167              	.LVL14:
 168              	.LBE49:
 169              	.LBE48:
 170              	 .loc 1 120 0
 171 0006 0D46     	 mov r5,r1
 172 0008 1646     	 mov r6,r2
 173              	.LBB51:
 174              	.LBB50:
  83:../Libraries/XMCLib/src/xmc_dac.c **** #endif
 175              	 .loc 1 83 0
 176 000a FFF7FEFF 	 bl XMC_SCU_CLOCK_UngatePeripheralClock
 177              	.LVL15:
  85:../Libraries/XMCLib/src/xmc_dac.c **** }
 178              	 .loc 1 85 0
 179 000e 0848     	 ldr r0,.L17
 180 0010 FFF7FEFF 	 bl XMC_SCU_RESET_DeassertPeripheralReset
 181              	.LVL16:
 182 0014 04EBC500 	 add r0,r4,r5,lsl#3
 183              	.LBE50:
 184              	.LBE51:
 121:../Libraries/XMCLib/src/xmc_dac.c ****   XMC_DAC_Enable(dac);
 122:../Libraries/XMCLib/src/xmc_dac.c **** 
 123:../Libraries/XMCLib/src/xmc_dac.c ****   dac->DACCFG[channel].low = config->cfg0;
 185              	 .loc 1 123 0
 186 0018 3368     	 ldr r3,[r6]
 187 001a 4360     	 str r3,[r0,#4]
 124:../Libraries/XMCLib/src/xmc_dac.c ****   dac->DACCFG[channel].high = config->cfg1;
 188              	 .loc 1 124 0
 189 001c 7368     	 ldr r3,[r6,#4]
 190 001e 8360     	 str r3,[r0,#8]
 125:../Libraries/XMCLib/src/xmc_dac.c ****   if (channel < XMC_DAC_NO_CHANNELS)
 191              	 .loc 1 125 0
 192 0020 012D     	 cmp r5,#1
 193 0022 03D8     	 bhi .L13
 194              	.LVL17:
 195              	.LBB52:
 196              	.LBB53:
 197              	 .file 2 "C:/Users/Utente/Desktop/Tesi/Firmware_Software/DAVE project/S2GLP_Pulsed_Doppler/Libraries/XMCLib/inc/xmc_dac.h"
   1:C:/Users/Utente/Desktop/Tesi/Firmware_Software/DAVE project/S2GLP_Pulsed_Doppler/Libraries/XMCLib/inc\xmc_dac.h **** /**
   2:C:/Users/Utente/Desktop/Tesi/Firmware_Software/DAVE project/S2GLP_Pulsed_Doppler/Libraries/XMCLib/inc\xmc_dac.h ****  * @file xmc_dac.h
   3:C:/Users/Utente/Desktop/Tesi/Firmware_Software/DAVE project/S2GLP_Pulsed_Doppler/Libraries/XMCLib/inc\xmc_dac.h ****  * @date 2015-08-31
   4:C:/Users/Utente/Desktop/Tesi/Firmware_Software/DAVE project/S2GLP_Pulsed_Doppler/Libraries/XMCLib/inc\xmc_dac.h ****  *
   5:C:/Users/Utente/Desktop/Tesi/Firmware_Software/DAVE project/S2GLP_Pulsed_Doppler/Libraries/XMCLib/inc\xmc_dac.h ****  * @cond
   6:C:/Users/Utente/Desktop/Tesi/Firmware_Software/DAVE project/S2GLP_Pulsed_Doppler/Libraries/XMCLib/inc\xmc_dac.h ****  **********************************************************************************
   7:C:/Users/Utente/Desktop/Tesi/Firmware_Software/DAVE project/S2GLP_Pulsed_Doppler/Libraries/XMCLib/inc\xmc_dac.h ****  * XMClib v2.1.16 - XMC Peripheral Driver Library 
   8:C:/Users/Utente/Desktop/Tesi/Firmware_Software/DAVE project/S2GLP_Pulsed_Doppler/Libraries/XMCLib/inc\xmc_dac.h ****  *
   9:C:/Users/Utente/Desktop/Tesi/Firmware_Software/DAVE project/S2GLP_Pulsed_Doppler/Libraries/XMCLib/inc\xmc_dac.h ****  * Copyright (c) 2015-2017, Infineon Technologies AG
  10:C:/Users/Utente/Desktop/Tesi/Firmware_Software/DAVE project/S2GLP_Pulsed_Doppler/Libraries/XMCLib/inc\xmc_dac.h ****  * All rights reserved.                        
  11:C:/Users/Utente/Desktop/Tesi/Firmware_Software/DAVE project/S2GLP_Pulsed_Doppler/Libraries/XMCLib/inc\xmc_dac.h ****  *                                             
  12:C:/Users/Utente/Desktop/Tesi/Firmware_Software/DAVE project/S2GLP_Pulsed_Doppler/Libraries/XMCLib/inc\xmc_dac.h ****  * Redistribution and use in source and binary forms, with or without           
  13:C:/Users/Utente/Desktop/Tesi/Firmware_Software/DAVE project/S2GLP_Pulsed_Doppler/Libraries/XMCLib/inc\xmc_dac.h ****  * modification,are permitted provided that the following conditions are met:   
  14:C:/Users/Utente/Desktop/Tesi/Firmware_Software/DAVE project/S2GLP_Pulsed_Doppler/Libraries/XMCLib/inc\xmc_dac.h ****  *                                                                              
  15:C:/Users/Utente/Desktop/Tesi/Firmware_Software/DAVE project/S2GLP_Pulsed_Doppler/Libraries/XMCLib/inc\xmc_dac.h ****  *   Redistributions of source code must retain the above copyright notice,      
  16:C:/Users/Utente/Desktop/Tesi/Firmware_Software/DAVE project/S2GLP_Pulsed_Doppler/Libraries/XMCLib/inc\xmc_dac.h ****  *   this list of conditions and the following disclaimer.                        
  17:C:/Users/Utente/Desktop/Tesi/Firmware_Software/DAVE project/S2GLP_Pulsed_Doppler/Libraries/XMCLib/inc\xmc_dac.h ****  * 
  18:C:/Users/Utente/Desktop/Tesi/Firmware_Software/DAVE project/S2GLP_Pulsed_Doppler/Libraries/XMCLib/inc\xmc_dac.h ****  *   Redistributions in binary form must reproduce the above copyright notice,   
  19:C:/Users/Utente/Desktop/Tesi/Firmware_Software/DAVE project/S2GLP_Pulsed_Doppler/Libraries/XMCLib/inc\xmc_dac.h ****  *   this list of conditions and the following disclaimer in the documentation    
  20:C:/Users/Utente/Desktop/Tesi/Firmware_Software/DAVE project/S2GLP_Pulsed_Doppler/Libraries/XMCLib/inc\xmc_dac.h ****  *   and/or other materials provided with the distribution.                       
  21:C:/Users/Utente/Desktop/Tesi/Firmware_Software/DAVE project/S2GLP_Pulsed_Doppler/Libraries/XMCLib/inc\xmc_dac.h ****  * 
  22:C:/Users/Utente/Desktop/Tesi/Firmware_Software/DAVE project/S2GLP_Pulsed_Doppler/Libraries/XMCLib/inc\xmc_dac.h ****  *   Neither the name of the copyright holders nor the names of its contributors 
  23:C:/Users/Utente/Desktop/Tesi/Firmware_Software/DAVE project/S2GLP_Pulsed_Doppler/Libraries/XMCLib/inc\xmc_dac.h ****  *   may be used to endorse or promote products derived from this software without
  24:C:/Users/Utente/Desktop/Tesi/Firmware_Software/DAVE project/S2GLP_Pulsed_Doppler/Libraries/XMCLib/inc\xmc_dac.h ****  *   specific prior written permission.                                           
  25:C:/Users/Utente/Desktop/Tesi/Firmware_Software/DAVE project/S2GLP_Pulsed_Doppler/Libraries/XMCLib/inc\xmc_dac.h ****  *                                                                              
  26:C:/Users/Utente/Desktop/Tesi/Firmware_Software/DAVE project/S2GLP_Pulsed_Doppler/Libraries/XMCLib/inc\xmc_dac.h ****  * THIS SOFTWARE IS PROVIDED BY THE COPYRIGHT HOLDERS AND CONTRIBUTORS "AS IS"  
  27:C:/Users/Utente/Desktop/Tesi/Firmware_Software/DAVE project/S2GLP_Pulsed_Doppler/Libraries/XMCLib/inc\xmc_dac.h ****  * AND ANY EXPRESS OR IMPLIED WARRANTIES, INCLUDING, BUT NOT LIMITED TO, THE    
  28:C:/Users/Utente/Desktop/Tesi/Firmware_Software/DAVE project/S2GLP_Pulsed_Doppler/Libraries/XMCLib/inc\xmc_dac.h ****  * IMPLIED WARRANTIES OF MERCHANTABILITY AND FITNESS FOR A PARTICULAR PURPOSE   
  29:C:/Users/Utente/Desktop/Tesi/Firmware_Software/DAVE project/S2GLP_Pulsed_Doppler/Libraries/XMCLib/inc\xmc_dac.h ****  * ARE  DISCLAIMED. IN NO EVENT SHALL THE COPYRIGHT HOLDER OR CONTRIBUTORS BE   
  30:C:/Users/Utente/Desktop/Tesi/Firmware_Software/DAVE project/S2GLP_Pulsed_Doppler/Libraries/XMCLib/inc\xmc_dac.h ****  * LIABLE  FOR ANY DIRECT, INDIRECT, INCIDENTAL, SPECIAL, EXEMPLARY, OR         
  31:C:/Users/Utente/Desktop/Tesi/Firmware_Software/DAVE project/S2GLP_Pulsed_Doppler/Libraries/XMCLib/inc\xmc_dac.h ****  * CONSEQUENTIAL DAMAGES (INCLUDING, BUT NOT LIMITED TO, PROCUREMENT OF         
  32:C:/Users/Utente/Desktop/Tesi/Firmware_Software/DAVE project/S2GLP_Pulsed_Doppler/Libraries/XMCLib/inc\xmc_dac.h ****  * SUBSTITUTE GOODS OR  SERVICES; LOSS OF USE, DATA, OR PROFITS; OR BUSINESS    
  33:C:/Users/Utente/Desktop/Tesi/Firmware_Software/DAVE project/S2GLP_Pulsed_Doppler/Libraries/XMCLib/inc\xmc_dac.h ****  * INTERRUPTION) HOWEVER CAUSED AND ON ANY THEORY OF LIABILITY, WHETHER IN      
  34:C:/Users/Utente/Desktop/Tesi/Firmware_Software/DAVE project/S2GLP_Pulsed_Doppler/Libraries/XMCLib/inc\xmc_dac.h ****  * CONTRACT, STRICT LIABILITY,OR TORT (INCLUDING NEGLIGENCE OR OTHERWISE)       
  35:C:/Users/Utente/Desktop/Tesi/Firmware_Software/DAVE project/S2GLP_Pulsed_Doppler/Libraries/XMCLib/inc\xmc_dac.h ****  * ARISING IN ANY WAY OUT OF THE USE OF THIS SOFTWARE, EVEN IF ADVISED OF THE   
  36:C:/Users/Utente/Desktop/Tesi/Firmware_Software/DAVE project/S2GLP_Pulsed_Doppler/Libraries/XMCLib/inc\xmc_dac.h ****  * POSSIBILITY OF SUCH DAMAGE.                                                  
  37:C:/Users/Utente/Desktop/Tesi/Firmware_Software/DAVE project/S2GLP_Pulsed_Doppler/Libraries/XMCLib/inc\xmc_dac.h ****  *                                                                              
  38:C:/Users/Utente/Desktop/Tesi/Firmware_Software/DAVE project/S2GLP_Pulsed_Doppler/Libraries/XMCLib/inc\xmc_dac.h ****  * To improve the quality of the software, users are encouraged to share        
  39:C:/Users/Utente/Desktop/Tesi/Firmware_Software/DAVE project/S2GLP_Pulsed_Doppler/Libraries/XMCLib/inc\xmc_dac.h ****  * modifications, enhancements or bug fixes with Infineon Technologies AG       
  40:C:/Users/Utente/Desktop/Tesi/Firmware_Software/DAVE project/S2GLP_Pulsed_Doppler/Libraries/XMCLib/inc\xmc_dac.h ****  * dave@infineon.com).                                                          
  41:C:/Users/Utente/Desktop/Tesi/Firmware_Software/DAVE project/S2GLP_Pulsed_Doppler/Libraries/XMCLib/inc\xmc_dac.h ****  **********************************************************************************
  42:C:/Users/Utente/Desktop/Tesi/Firmware_Software/DAVE project/S2GLP_Pulsed_Doppler/Libraries/XMCLib/inc\xmc_dac.h ****  *
  43:C:/Users/Utente/Desktop/Tesi/Firmware_Software/DAVE project/S2GLP_Pulsed_Doppler/Libraries/XMCLib/inc\xmc_dac.h ****  * Change History
  44:C:/Users/Utente/Desktop/Tesi/Firmware_Software/DAVE project/S2GLP_Pulsed_Doppler/Libraries/XMCLib/inc\xmc_dac.h ****  * --------------
  45:C:/Users/Utente/Desktop/Tesi/Firmware_Software/DAVE project/S2GLP_Pulsed_Doppler/Libraries/XMCLib/inc\xmc_dac.h ****  *
  46:C:/Users/Utente/Desktop/Tesi/Firmware_Software/DAVE project/S2GLP_Pulsed_Doppler/Libraries/XMCLib/inc\xmc_dac.h ****  * 2015-02-18:
  47:C:/Users/Utente/Desktop/Tesi/Firmware_Software/DAVE project/S2GLP_Pulsed_Doppler/Libraries/XMCLib/inc\xmc_dac.h ****  *     - Initial version
  48:C:/Users/Utente/Desktop/Tesi/Firmware_Software/DAVE project/S2GLP_Pulsed_Doppler/Libraries/XMCLib/inc\xmc_dac.h ****  *      
  49:C:/Users/Utente/Desktop/Tesi/Firmware_Software/DAVE project/S2GLP_Pulsed_Doppler/Libraries/XMCLib/inc\xmc_dac.h ****  * 2015-02-20:
  50:C:/Users/Utente/Desktop/Tesi/Firmware_Software/DAVE project/S2GLP_Pulsed_Doppler/Libraries/XMCLib/inc\xmc_dac.h ****  *     - Driver description added
  51:C:/Users/Utente/Desktop/Tesi/Firmware_Software/DAVE project/S2GLP_Pulsed_Doppler/Libraries/XMCLib/inc\xmc_dac.h ****  *
  52:C:/Users/Utente/Desktop/Tesi/Firmware_Software/DAVE project/S2GLP_Pulsed_Doppler/Libraries/XMCLib/inc\xmc_dac.h ****  * 2015-06-19:
  53:C:/Users/Utente/Desktop/Tesi/Firmware_Software/DAVE project/S2GLP_Pulsed_Doppler/Libraries/XMCLib/inc\xmc_dac.h ****  *     - Removed version macros and declaration of GetDriverVersion API
  54:C:/Users/Utente/Desktop/Tesi/Firmware_Software/DAVE project/S2GLP_Pulsed_Doppler/Libraries/XMCLib/inc\xmc_dac.h ****  *
  55:C:/Users/Utente/Desktop/Tesi/Firmware_Software/DAVE project/S2GLP_Pulsed_Doppler/Libraries/XMCLib/inc\xmc_dac.h ****  * 2015-08-31:
  56:C:/Users/Utente/Desktop/Tesi/Firmware_Software/DAVE project/S2GLP_Pulsed_Doppler/Libraries/XMCLib/inc\xmc_dac.h ****  *     - Help document updated
  57:C:/Users/Utente/Desktop/Tesi/Firmware_Software/DAVE project/S2GLP_Pulsed_Doppler/Libraries/XMCLib/inc\xmc_dac.h ****  * @endcond 
  58:C:/Users/Utente/Desktop/Tesi/Firmware_Software/DAVE project/S2GLP_Pulsed_Doppler/Libraries/XMCLib/inc\xmc_dac.h ****  *
  59:C:/Users/Utente/Desktop/Tesi/Firmware_Software/DAVE project/S2GLP_Pulsed_Doppler/Libraries/XMCLib/inc\xmc_dac.h ****  */
  60:C:/Users/Utente/Desktop/Tesi/Firmware_Software/DAVE project/S2GLP_Pulsed_Doppler/Libraries/XMCLib/inc\xmc_dac.h **** 
  61:C:/Users/Utente/Desktop/Tesi/Firmware_Software/DAVE project/S2GLP_Pulsed_Doppler/Libraries/XMCLib/inc\xmc_dac.h **** #ifndef XMC_DAC_H
  62:C:/Users/Utente/Desktop/Tesi/Firmware_Software/DAVE project/S2GLP_Pulsed_Doppler/Libraries/XMCLib/inc\xmc_dac.h **** #define XMC_DAC_H
  63:C:/Users/Utente/Desktop/Tesi/Firmware_Software/DAVE project/S2GLP_Pulsed_Doppler/Libraries/XMCLib/inc\xmc_dac.h **** 
  64:C:/Users/Utente/Desktop/Tesi/Firmware_Software/DAVE project/S2GLP_Pulsed_Doppler/Libraries/XMCLib/inc\xmc_dac.h **** /*******************************************************************************
  65:C:/Users/Utente/Desktop/Tesi/Firmware_Software/DAVE project/S2GLP_Pulsed_Doppler/Libraries/XMCLib/inc\xmc_dac.h ****  * HEADER FILES
  66:C:/Users/Utente/Desktop/Tesi/Firmware_Software/DAVE project/S2GLP_Pulsed_Doppler/Libraries/XMCLib/inc\xmc_dac.h ****  *******************************************************************************/
  67:C:/Users/Utente/Desktop/Tesi/Firmware_Software/DAVE project/S2GLP_Pulsed_Doppler/Libraries/XMCLib/inc\xmc_dac.h **** 
  68:C:/Users/Utente/Desktop/Tesi/Firmware_Software/DAVE project/S2GLP_Pulsed_Doppler/Libraries/XMCLib/inc\xmc_dac.h **** #include <xmc_common.h>
  69:C:/Users/Utente/Desktop/Tesi/Firmware_Software/DAVE project/S2GLP_Pulsed_Doppler/Libraries/XMCLib/inc\xmc_dac.h **** 
  70:C:/Users/Utente/Desktop/Tesi/Firmware_Software/DAVE project/S2GLP_Pulsed_Doppler/Libraries/XMCLib/inc\xmc_dac.h **** /* DAC peripheral is not available on XMC1X devices. */
  71:C:/Users/Utente/Desktop/Tesi/Firmware_Software/DAVE project/S2GLP_Pulsed_Doppler/Libraries/XMCLib/inc\xmc_dac.h **** #if defined(DAC)
  72:C:/Users/Utente/Desktop/Tesi/Firmware_Software/DAVE project/S2GLP_Pulsed_Doppler/Libraries/XMCLib/inc\xmc_dac.h **** 
  73:C:/Users/Utente/Desktop/Tesi/Firmware_Software/DAVE project/S2GLP_Pulsed_Doppler/Libraries/XMCLib/inc\xmc_dac.h **** /**
  74:C:/Users/Utente/Desktop/Tesi/Firmware_Software/DAVE project/S2GLP_Pulsed_Doppler/Libraries/XMCLib/inc\xmc_dac.h ****  * @addtogroup XMClib
  75:C:/Users/Utente/Desktop/Tesi/Firmware_Software/DAVE project/S2GLP_Pulsed_Doppler/Libraries/XMCLib/inc\xmc_dac.h ****  * @{
  76:C:/Users/Utente/Desktop/Tesi/Firmware_Software/DAVE project/S2GLP_Pulsed_Doppler/Libraries/XMCLib/inc\xmc_dac.h ****  */
  77:C:/Users/Utente/Desktop/Tesi/Firmware_Software/DAVE project/S2GLP_Pulsed_Doppler/Libraries/XMCLib/inc\xmc_dac.h **** 
  78:C:/Users/Utente/Desktop/Tesi/Firmware_Software/DAVE project/S2GLP_Pulsed_Doppler/Libraries/XMCLib/inc\xmc_dac.h **** /**
  79:C:/Users/Utente/Desktop/Tesi/Firmware_Software/DAVE project/S2GLP_Pulsed_Doppler/Libraries/XMCLib/inc\xmc_dac.h ****  * @addtogroup DAC
  80:C:/Users/Utente/Desktop/Tesi/Firmware_Software/DAVE project/S2GLP_Pulsed_Doppler/Libraries/XMCLib/inc\xmc_dac.h ****  * @{
  81:C:/Users/Utente/Desktop/Tesi/Firmware_Software/DAVE project/S2GLP_Pulsed_Doppler/Libraries/XMCLib/inc\xmc_dac.h ****  *
  82:C:/Users/Utente/Desktop/Tesi/Firmware_Software/DAVE project/S2GLP_Pulsed_Doppler/Libraries/XMCLib/inc\xmc_dac.h ****  * @brief Digital to Analog Converter (DAC) driver for XMC 4000 microcontroller family. <br>
  83:C:/Users/Utente/Desktop/Tesi/Firmware_Software/DAVE project/S2GLP_Pulsed_Doppler/Libraries/XMCLib/inc\xmc_dac.h ****  *
  84:C:/Users/Utente/Desktop/Tesi/Firmware_Software/DAVE project/S2GLP_Pulsed_Doppler/Libraries/XMCLib/inc\xmc_dac.h ****  * DAC driver uses DAC peripheral to convert digital value to analog value. XMC4000 microcontroller
  85:C:/Users/Utente/Desktop/Tesi/Firmware_Software/DAVE project/S2GLP_Pulsed_Doppler/Libraries/XMCLib/inc\xmc_dac.h ****  * and maximum conversion rate of 2MHz with full accuracy and 5MHz with reduced accuracy.
  86:C:/Users/Utente/Desktop/Tesi/Firmware_Software/DAVE project/S2GLP_Pulsed_Doppler/Libraries/XMCLib/inc\xmc_dac.h ****  * It consists of inbuilt pattern generator, ramp generator and noise generator modes. Additionally
  87:C:/Users/Utente/Desktop/Tesi/Firmware_Software/DAVE project/S2GLP_Pulsed_Doppler/Libraries/XMCLib/inc\xmc_dac.h ****  * in single value mode and in data mode.
  88:C:/Users/Utente/Desktop/Tesi/Firmware_Software/DAVE project/S2GLP_Pulsed_Doppler/Libraries/XMCLib/inc\xmc_dac.h ****  * It has DMA handling capability to generate custom waveforms in data mode without CPU interventio
  89:C:/Users/Utente/Desktop/Tesi/Firmware_Software/DAVE project/S2GLP_Pulsed_Doppler/Libraries/XMCLib/inc\xmc_dac.h ****  *
  90:C:/Users/Utente/Desktop/Tesi/Firmware_Software/DAVE project/S2GLP_Pulsed_Doppler/Libraries/XMCLib/inc\xmc_dac.h ****  * DAC driver features:
  91:C:/Users/Utente/Desktop/Tesi/Firmware_Software/DAVE project/S2GLP_Pulsed_Doppler/Libraries/XMCLib/inc\xmc_dac.h ****  * -#  Configuration structure XMC_DAC_CH_CONFIG_t and initialization function XMC_DAC_CH_Init() to
  92:C:/Users/Utente/Desktop/Tesi/Firmware_Software/DAVE project/S2GLP_Pulsed_Doppler/Libraries/XMCLib/inc\xmc_dac.h ****  * -#  Pattern Generator Mode:
  93:C:/Users/Utente/Desktop/Tesi/Firmware_Software/DAVE project/S2GLP_Pulsed_Doppler/Libraries/XMCLib/inc\xmc_dac.h ****  * 	- DAC is configured in pattern generator mode using XMC_DAC_CH_StartPatternMode()
  94:C:/Users/Utente/Desktop/Tesi/Firmware_Software/DAVE project/S2GLP_Pulsed_Doppler/Libraries/XMCLib/inc\xmc_dac.h ****  * 	- XMC_DAC_CH_SetPattern() is used to set the waveform pattern values in pattern register for on
  95:C:/Users/Utente/Desktop/Tesi/Firmware_Software/DAVE project/S2GLP_Pulsed_Doppler/Libraries/XMCLib/inc\xmc_dac.h ****  * 	- Allows to change the trigger frequency using XMC_DAC_CH_SetPatternFrequency()
  96:C:/Users/Utente/Desktop/Tesi/Firmware_Software/DAVE project/S2GLP_Pulsed_Doppler/Libraries/XMCLib/inc\xmc_dac.h ****  * -#  Single Value Mode:
  97:C:/Users/Utente/Desktop/Tesi/Firmware_Software/DAVE project/S2GLP_Pulsed_Doppler/Libraries/XMCLib/inc\xmc_dac.h ****  * 	- DAC is configured in single value mode using XMC_DAC_CH_StartSingleValueMode()
  98:C:/Users/Utente/Desktop/Tesi/Firmware_Software/DAVE project/S2GLP_Pulsed_Doppler/Libraries/XMCLib/inc\xmc_dac.h ****  * 	- Allows to change the trigger frequency using XMC_DAC_CH_SetFrequency()
  99:C:/Users/Utente/Desktop/Tesi/Firmware_Software/DAVE project/S2GLP_Pulsed_Doppler/Libraries/XMCLib/inc\xmc_dac.h ****  * -# Data Mode:
 100:C:/Users/Utente/Desktop/Tesi/Firmware_Software/DAVE project/S2GLP_Pulsed_Doppler/Libraries/XMCLib/inc\xmc_dac.h ****  * 	- DAC is configured in data mode using XMC_DAC_CH_StartDataMode()
 101:C:/Users/Utente/Desktop/Tesi/Firmware_Software/DAVE project/S2GLP_Pulsed_Doppler/Libraries/XMCLib/inc\xmc_dac.h ****  * 	- Allows to change the trigger frequency using XMC_DAC_CH_SetFrequency()
 102:C:/Users/Utente/Desktop/Tesi/Firmware_Software/DAVE project/S2GLP_Pulsed_Doppler/Libraries/XMCLib/inc\xmc_dac.h ****  * -# Ramp Mode:
 103:C:/Users/Utente/Desktop/Tesi/Firmware_Software/DAVE project/S2GLP_Pulsed_Doppler/Libraries/XMCLib/inc\xmc_dac.h ****  *  - DAC is configured in ramp generator mode using XMC_DAC_CH_StartRampMode()
 104:C:/Users/Utente/Desktop/Tesi/Firmware_Software/DAVE project/S2GLP_Pulsed_Doppler/Libraries/XMCLib/inc\xmc_dac.h ****  *  - Allows to change the trigger frequency using XMC_DAC_CH_SetRampFrequency()
 105:C:/Users/Utente/Desktop/Tesi/Firmware_Software/DAVE project/S2GLP_Pulsed_Doppler/Libraries/XMCLib/inc\xmc_dac.h ****  *  - Allows to set the start and stop values of the ramp using XMC_DAC_CH_SetRampStart() and XMC_D
 106:C:/Users/Utente/Desktop/Tesi/Firmware_Software/DAVE project/S2GLP_Pulsed_Doppler/Libraries/XMCLib/inc\xmc_dac.h ****  * -# Noise Mode:
 107:C:/Users/Utente/Desktop/Tesi/Firmware_Software/DAVE project/S2GLP_Pulsed_Doppler/Libraries/XMCLib/inc\xmc_dac.h ****  * 	- DAC is configured in noise mode using XMC_DAC_CH_StartNoiseMode()
 108:C:/Users/Utente/Desktop/Tesi/Firmware_Software/DAVE project/S2GLP_Pulsed_Doppler/Libraries/XMCLib/inc\xmc_dac.h ****  * 	- Allows to change the trigger frequency using XMC_DAC_CH_SetFrequency()
 109:C:/Users/Utente/Desktop/Tesi/Firmware_Software/DAVE project/S2GLP_Pulsed_Doppler/Libraries/XMCLib/inc\xmc_dac.h ****  * -# Allows to change the scale, offset dynamically using XMC_DAC_CH_SetOutputScale() and XMC_DAC_
 110:C:/Users/Utente/Desktop/Tesi/Firmware_Software/DAVE project/S2GLP_Pulsed_Doppler/Libraries/XMCLib/inc\xmc_dac.h ****  * -# Allows to select one of the eight possible trigger sources using XMC_DAC_CH_SetTrigger()
 111:C:/Users/Utente/Desktop/Tesi/Firmware_Software/DAVE project/S2GLP_Pulsed_Doppler/Libraries/XMCLib/inc\xmc_dac.h ****  * -# 2 DAC channels can be used in synchronization in single value mode and data mode to generate 
 112:C:/Users/Utente/Desktop/Tesi/Firmware_Software/DAVE project/S2GLP_Pulsed_Doppler/Libraries/XMCLib/inc\xmc_dac.h ****  */
 113:C:/Users/Utente/Desktop/Tesi/Firmware_Software/DAVE project/S2GLP_Pulsed_Doppler/Libraries/XMCLib/inc\xmc_dac.h **** 
 114:C:/Users/Utente/Desktop/Tesi/Firmware_Software/DAVE project/S2GLP_Pulsed_Doppler/Libraries/XMCLib/inc\xmc_dac.h **** /*******************************************************************************
 115:C:/Users/Utente/Desktop/Tesi/Firmware_Software/DAVE project/S2GLP_Pulsed_Doppler/Libraries/XMCLib/inc\xmc_dac.h ****  * MACROS
 116:C:/Users/Utente/Desktop/Tesi/Firmware_Software/DAVE project/S2GLP_Pulsed_Doppler/Libraries/XMCLib/inc\xmc_dac.h ****  *******************************************************************************/
 117:C:/Users/Utente/Desktop/Tesi/Firmware_Software/DAVE project/S2GLP_Pulsed_Doppler/Libraries/XMCLib/inc\xmc_dac.h **** 
 118:C:/Users/Utente/Desktop/Tesi/Firmware_Software/DAVE project/S2GLP_Pulsed_Doppler/Libraries/XMCLib/inc\xmc_dac.h **** #define XMC_DAC0 ((XMC_DAC_t *)DAC_BASE)         /**< DAC module register base */
 119:C:/Users/Utente/Desktop/Tesi/Firmware_Software/DAVE project/S2GLP_Pulsed_Doppler/Libraries/XMCLib/inc\xmc_dac.h **** 
 120:C:/Users/Utente/Desktop/Tesi/Firmware_Software/DAVE project/S2GLP_Pulsed_Doppler/Libraries/XMCLib/inc\xmc_dac.h **** #define XMC_DAC_DACCFG_NEGATE_Msk (0x10000000UL) /*< DAC negation enable mask in XMC44 device */
 121:C:/Users/Utente/Desktop/Tesi/Firmware_Software/DAVE project/S2GLP_Pulsed_Doppler/Libraries/XMCLib/inc\xmc_dac.h **** #define XMC_DAC_NO_CHANNELS (2U)                 /**< DAC maximum channels */
 122:C:/Users/Utente/Desktop/Tesi/Firmware_Software/DAVE project/S2GLP_Pulsed_Doppler/Libraries/XMCLib/inc\xmc_dac.h **** #define XMC_DAC_SAMPLES_PER_PERIOD (32U)         /**< DAC samples per period in pattern mode */
 123:C:/Users/Utente/Desktop/Tesi/Firmware_Software/DAVE project/S2GLP_Pulsed_Doppler/Libraries/XMCLib/inc\xmc_dac.h **** 
 124:C:/Users/Utente/Desktop/Tesi/Firmware_Software/DAVE project/S2GLP_Pulsed_Doppler/Libraries/XMCLib/inc\xmc_dac.h **** #define XMC_DAC_PATTERN_TRIANGLE  {0U, 4U, 8U, 12U, 16U, 19U, 23U, 27U, 31U} /**< First quarter Tri
 125:C:/Users/Utente/Desktop/Tesi/Firmware_Software/DAVE project/S2GLP_Pulsed_Doppler/Libraries/XMCLib/inc\xmc_dac.h **** #define XMC_DAC_PATTERN_SINE      {0U, 6U, 12U, 17U, 22U, 26U, 29U, 30U, 31U} /**< First quarter Si
 126:C:/Users/Utente/Desktop/Tesi/Firmware_Software/DAVE project/S2GLP_Pulsed_Doppler/Libraries/XMCLib/inc\xmc_dac.h **** #define XMC_DAC_PATTERN_RECTANGLE {31U, 31U, 31U, 31U, 31U, 31U, 31U, 31U, 31U} /**< First quarter 
 127:C:/Users/Utente/Desktop/Tesi/Firmware_Software/DAVE project/S2GLP_Pulsed_Doppler/Libraries/XMCLib/inc\xmc_dac.h **** 
 128:C:/Users/Utente/Desktop/Tesi/Firmware_Software/DAVE project/S2GLP_Pulsed_Doppler/Libraries/XMCLib/inc\xmc_dac.h **** #define XMC_DAC_IS_DAC_VALID(PTR)            ((PTR) == XMC_DAC0)
 129:C:/Users/Utente/Desktop/Tesi/Firmware_Software/DAVE project/S2GLP_Pulsed_Doppler/Libraries/XMCLib/inc\xmc_dac.h **** #define XMC_DAC_IS_CHANNEL_VALID(CH)         (CH < XMC_DAC_NO_CHANNELS)
 130:C:/Users/Utente/Desktop/Tesi/Firmware_Software/DAVE project/S2GLP_Pulsed_Doppler/Libraries/XMCLib/inc\xmc_dac.h **** #define XMC_DAC_IS_TRIGGER_VALID(TRIGGER)    ((TRIGGER == XMC_DAC_CH_TRIGGER_INTERNAL) ||\
 131:C:/Users/Utente/Desktop/Tesi/Firmware_Software/DAVE project/S2GLP_Pulsed_Doppler/Libraries/XMCLib/inc\xmc_dac.h ****                                               (TRIGGER == XMC_DAC_CH_TRIGGER_EXTERNAL_CCU80_SR1) ||
 132:C:/Users/Utente/Desktop/Tesi/Firmware_Software/DAVE project/S2GLP_Pulsed_Doppler/Libraries/XMCLib/inc\xmc_dac.h ****                                               (TRIGGER == XMC_DAC_CH_TRIGGER_EXTERNAL_CCU40_SR1) ||
 133:C:/Users/Utente/Desktop/Tesi/Firmware_Software/DAVE project/S2GLP_Pulsed_Doppler/Libraries/XMCLib/inc\xmc_dac.h ****                                               (TRIGGER == XMC_DAC_CH_TRIGGER_EXTERNAL_CCU41_SR1) ||
 134:C:/Users/Utente/Desktop/Tesi/Firmware_Software/DAVE project/S2GLP_Pulsed_Doppler/Libraries/XMCLib/inc\xmc_dac.h ****                                               (TRIGGER == XMC_DAC_CH_TRIGGER_EXTERNAL_P2_9) ||\
 135:C:/Users/Utente/Desktop/Tesi/Firmware_Software/DAVE project/S2GLP_Pulsed_Doppler/Libraries/XMCLib/inc\xmc_dac.h ****                                               (TRIGGER == XMC_DAC_CH_TRIGGER_EXTERNAL_P2_8) ||\
 136:C:/Users/Utente/Desktop/Tesi/Firmware_Software/DAVE project/S2GLP_Pulsed_Doppler/Libraries/XMCLib/inc\xmc_dac.h ****                                               (TRIGGER == XMC_DAC_CH_TRIGGER_EXTERNAL_U0C0_DX1INS) 
 137:C:/Users/Utente/Desktop/Tesi/Firmware_Software/DAVE project/S2GLP_Pulsed_Doppler/Libraries/XMCLib/inc\xmc_dac.h ****                                               (TRIGGER == XMC_DAC_CH_TRIGGER_EXTERNAL_U1C0_DX1INS) 
 138:C:/Users/Utente/Desktop/Tesi/Firmware_Software/DAVE project/S2GLP_Pulsed_Doppler/Libraries/XMCLib/inc\xmc_dac.h ****                                               (TRIGGER == XMC_DAC_CH_TRIGGER_SOFTWARE))
 139:C:/Users/Utente/Desktop/Tesi/Firmware_Software/DAVE project/S2GLP_Pulsed_Doppler/Libraries/XMCLib/inc\xmc_dac.h **** #define XMC_DAC_IS_MODE_VALID(MODE)          ((MODE == XMC_DAC_CH_MODE_IDLE) ||\
 140:C:/Users/Utente/Desktop/Tesi/Firmware_Software/DAVE project/S2GLP_Pulsed_Doppler/Libraries/XMCLib/inc\xmc_dac.h ****                                               (MODE == XMC_DAC_CH_MODE_SINGLE) ||\
 141:C:/Users/Utente/Desktop/Tesi/Firmware_Software/DAVE project/S2GLP_Pulsed_Doppler/Libraries/XMCLib/inc\xmc_dac.h ****                                               (MODE == XMC_DAC_CH_MODE_DATA) ||\
 142:C:/Users/Utente/Desktop/Tesi/Firmware_Software/DAVE project/S2GLP_Pulsed_Doppler/Libraries/XMCLib/inc\xmc_dac.h ****                                               (MODE == XMC_DAC_CH_MODE_PATTERN) ||\
 143:C:/Users/Utente/Desktop/Tesi/Firmware_Software/DAVE project/S2GLP_Pulsed_Doppler/Libraries/XMCLib/inc\xmc_dac.h ****                                               (MODE == XMC_DAC_CH_MODE_NOISE) ||\
 144:C:/Users/Utente/Desktop/Tesi/Firmware_Software/DAVE project/S2GLP_Pulsed_Doppler/Libraries/XMCLib/inc\xmc_dac.h ****                                               (MODE == XMC_DAC_CH_MODE_RAMP))
 145:C:/Users/Utente/Desktop/Tesi/Firmware_Software/DAVE project/S2GLP_Pulsed_Doppler/Libraries/XMCLib/inc\xmc_dac.h **** #define XMC_DAC_IS_OUTPUT_SCALE_VALID(SCALE) ((SCALE == XMC_DAC_CH_OUTPUT_SCALE_NONE) ||\
 146:C:/Users/Utente/Desktop/Tesi/Firmware_Software/DAVE project/S2GLP_Pulsed_Doppler/Libraries/XMCLib/inc\xmc_dac.h ****                                               (SCALE == XMC_DAC_CH_OUTPUT_SCALE_MUL_2) ||\
 147:C:/Users/Utente/Desktop/Tesi/Firmware_Software/DAVE project/S2GLP_Pulsed_Doppler/Libraries/XMCLib/inc\xmc_dac.h ****                                               (SCALE == XMC_DAC_CH_OUTPUT_SCALE_MUL_4) ||\
 148:C:/Users/Utente/Desktop/Tesi/Firmware_Software/DAVE project/S2GLP_Pulsed_Doppler/Libraries/XMCLib/inc\xmc_dac.h ****                                               (SCALE == XMC_DAC_CH_OUTPUT_SCALE_MUL_8) ||\
 149:C:/Users/Utente/Desktop/Tesi/Firmware_Software/DAVE project/S2GLP_Pulsed_Doppler/Libraries/XMCLib/inc\xmc_dac.h ****                                               (SCALE == XMC_DAC_CH_OUTPUT_SCALE_MUL_16) ||\
 150:C:/Users/Utente/Desktop/Tesi/Firmware_Software/DAVE project/S2GLP_Pulsed_Doppler/Libraries/XMCLib/inc\xmc_dac.h ****                                               (SCALE == XMC_DAC_CH_OUTPUT_SCALE_MUL_32) ||\
 151:C:/Users/Utente/Desktop/Tesi/Firmware_Software/DAVE project/S2GLP_Pulsed_Doppler/Libraries/XMCLib/inc\xmc_dac.h ****                                               (SCALE == XMC_DAC_CH_OUTPUT_SCALE_MUL_64) ||\
 152:C:/Users/Utente/Desktop/Tesi/Firmware_Software/DAVE project/S2GLP_Pulsed_Doppler/Libraries/XMCLib/inc\xmc_dac.h ****                                               (SCALE == XMC_DAC_CH_OUTPUT_SCALE_MUL_128) ||\
 153:C:/Users/Utente/Desktop/Tesi/Firmware_Software/DAVE project/S2GLP_Pulsed_Doppler/Libraries/XMCLib/inc\xmc_dac.h ****                                               (SCALE == XMC_DAC_CH_OUTPUT_SCALE_DIV_2) ||\
 154:C:/Users/Utente/Desktop/Tesi/Firmware_Software/DAVE project/S2GLP_Pulsed_Doppler/Libraries/XMCLib/inc\xmc_dac.h ****                                               (SCALE == XMC_DAC_CH_OUTPUT_SCALE_DIV_4) ||\
 155:C:/Users/Utente/Desktop/Tesi/Firmware_Software/DAVE project/S2GLP_Pulsed_Doppler/Libraries/XMCLib/inc\xmc_dac.h ****                                               (SCALE == XMC_DAC_CH_OUTPUT_SCALE_DIV_8) ||\
 156:C:/Users/Utente/Desktop/Tesi/Firmware_Software/DAVE project/S2GLP_Pulsed_Doppler/Libraries/XMCLib/inc\xmc_dac.h ****                                               (SCALE == XMC_DAC_CH_OUTPUT_SCALE_DIV_16) ||\
 157:C:/Users/Utente/Desktop/Tesi/Firmware_Software/DAVE project/S2GLP_Pulsed_Doppler/Libraries/XMCLib/inc\xmc_dac.h ****                                               (SCALE == XMC_DAC_CH_OUTPUT_SCALE_DIV_32) ||\
 158:C:/Users/Utente/Desktop/Tesi/Firmware_Software/DAVE project/S2GLP_Pulsed_Doppler/Libraries/XMCLib/inc\xmc_dac.h ****                                               (SCALE == XMC_DAC_CH_OUTPUT_SCALE_DIV_64) ||\
 159:C:/Users/Utente/Desktop/Tesi/Firmware_Software/DAVE project/S2GLP_Pulsed_Doppler/Libraries/XMCLib/inc\xmc_dac.h ****                                               (SCALE == XMC_DAC_CH_OUTPUT_SCALE_DIV_128))
 160:C:/Users/Utente/Desktop/Tesi/Firmware_Software/DAVE project/S2GLP_Pulsed_Doppler/Libraries/XMCLib/inc\xmc_dac.h ****                                             
 161:C:/Users/Utente/Desktop/Tesi/Firmware_Software/DAVE project/S2GLP_Pulsed_Doppler/Libraries/XMCLib/inc\xmc_dac.h **** 
 162:C:/Users/Utente/Desktop/Tesi/Firmware_Software/DAVE project/S2GLP_Pulsed_Doppler/Libraries/XMCLib/inc\xmc_dac.h **** /*******************************************************************************
 163:C:/Users/Utente/Desktop/Tesi/Firmware_Software/DAVE project/S2GLP_Pulsed_Doppler/Libraries/XMCLib/inc\xmc_dac.h ****  * ENUMS
 164:C:/Users/Utente/Desktop/Tesi/Firmware_Software/DAVE project/S2GLP_Pulsed_Doppler/Libraries/XMCLib/inc\xmc_dac.h ****  *******************************************************************************/
 165:C:/Users/Utente/Desktop/Tesi/Firmware_Software/DAVE project/S2GLP_Pulsed_Doppler/Libraries/XMCLib/inc\xmc_dac.h **** 
 166:C:/Users/Utente/Desktop/Tesi/Firmware_Software/DAVE project/S2GLP_Pulsed_Doppler/Libraries/XMCLib/inc\xmc_dac.h **** /**
 167:C:/Users/Utente/Desktop/Tesi/Firmware_Software/DAVE project/S2GLP_Pulsed_Doppler/Libraries/XMCLib/inc\xmc_dac.h ****  * Return types of the API's
 168:C:/Users/Utente/Desktop/Tesi/Firmware_Software/DAVE project/S2GLP_Pulsed_Doppler/Libraries/XMCLib/inc\xmc_dac.h ****  */
 169:C:/Users/Utente/Desktop/Tesi/Firmware_Software/DAVE project/S2GLP_Pulsed_Doppler/Libraries/XMCLib/inc\xmc_dac.h **** typedef enum XMC_DAC_CH_STATUS
 170:C:/Users/Utente/Desktop/Tesi/Firmware_Software/DAVE project/S2GLP_Pulsed_Doppler/Libraries/XMCLib/inc\xmc_dac.h **** {
 171:C:/Users/Utente/Desktop/Tesi/Firmware_Software/DAVE project/S2GLP_Pulsed_Doppler/Libraries/XMCLib/inc\xmc_dac.h ****   XMC_DAC_CH_STATUS_OK              = 0U, /**< Status is ok, no error detected */
 172:C:/Users/Utente/Desktop/Tesi/Firmware_Software/DAVE project/S2GLP_Pulsed_Doppler/Libraries/XMCLib/inc\xmc_dac.h ****   XMC_DAC_CH_STATUS_ERROR           = 1U, /**< Error detected */
 173:C:/Users/Utente/Desktop/Tesi/Firmware_Software/DAVE project/S2GLP_Pulsed_Doppler/Libraries/XMCLib/inc\xmc_dac.h ****   XMC_DAC_CH_STATUS_BUSY            = 2U, /**< DAC is busy */
 174:C:/Users/Utente/Desktop/Tesi/Firmware_Software/DAVE project/S2GLP_Pulsed_Doppler/Libraries/XMCLib/inc\xmc_dac.h ****   XMC_DAC_CH_STATUS_ERROR_FREQ2LOW  = 3U, /**< Frequency can't be configured. Frequency is to low. 
 175:C:/Users/Utente/Desktop/Tesi/Firmware_Software/DAVE project/S2GLP_Pulsed_Doppler/Libraries/XMCLib/inc\xmc_dac.h ****   XMC_DAC_CH_STATUS_ERROR_FREQ2HIGH = 4U  /**< Frequency can't be configured. Frequency is to high.
 176:C:/Users/Utente/Desktop/Tesi/Firmware_Software/DAVE project/S2GLP_Pulsed_Doppler/Libraries/XMCLib/inc\xmc_dac.h **** } XMC_DAC_CH_STATUS_t;
 177:C:/Users/Utente/Desktop/Tesi/Firmware_Software/DAVE project/S2GLP_Pulsed_Doppler/Libraries/XMCLib/inc\xmc_dac.h **** 
 178:C:/Users/Utente/Desktop/Tesi/Firmware_Software/DAVE project/S2GLP_Pulsed_Doppler/Libraries/XMCLib/inc\xmc_dac.h **** /**
 179:C:/Users/Utente/Desktop/Tesi/Firmware_Software/DAVE project/S2GLP_Pulsed_Doppler/Libraries/XMCLib/inc\xmc_dac.h ****  * Operating modes of DAC
 180:C:/Users/Utente/Desktop/Tesi/Firmware_Software/DAVE project/S2GLP_Pulsed_Doppler/Libraries/XMCLib/inc\xmc_dac.h ****  */
 181:C:/Users/Utente/Desktop/Tesi/Firmware_Software/DAVE project/S2GLP_Pulsed_Doppler/Libraries/XMCLib/inc\xmc_dac.h **** typedef enum XMC_DAC_CH_MODE
 182:C:/Users/Utente/Desktop/Tesi/Firmware_Software/DAVE project/S2GLP_Pulsed_Doppler/Libraries/XMCLib/inc\xmc_dac.h **** {
 183:C:/Users/Utente/Desktop/Tesi/Firmware_Software/DAVE project/S2GLP_Pulsed_Doppler/Libraries/XMCLib/inc\xmc_dac.h ****   XMC_DAC_CH_MODE_IDLE    = 0x0U << DAC_DAC0CFG0_MODE_Pos,    /**< DAC is disabled */
 184:C:/Users/Utente/Desktop/Tesi/Firmware_Software/DAVE project/S2GLP_Pulsed_Doppler/Libraries/XMCLib/inc\xmc_dac.h ****   XMC_DAC_CH_MODE_SINGLE  = 0x1U << DAC_DAC0CFG0_MODE_Pos,    /**< Single value mode - single data 
 185:C:/Users/Utente/Desktop/Tesi/Firmware_Software/DAVE project/S2GLP_Pulsed_Doppler/Libraries/XMCLib/inc\xmc_dac.h ****   XMC_DAC_CH_MODE_DATA    = 0x2U << DAC_DAC0CFG0_MODE_Pos,    /**< Data mode - continuous data proc
 186:C:/Users/Utente/Desktop/Tesi/Firmware_Software/DAVE project/S2GLP_Pulsed_Doppler/Libraries/XMCLib/inc\xmc_dac.h ****   XMC_DAC_CH_MODE_PATTERN = 0x3U << DAC_DAC0CFG0_MODE_Pos,    /**< Pattern mode - inbuilt pattern w
 187:C:/Users/Utente/Desktop/Tesi/Firmware_Software/DAVE project/S2GLP_Pulsed_Doppler/Libraries/XMCLib/inc\xmc_dac.h ****                                                                    Sine, Triangle, Rectangle */
 188:C:/Users/Utente/Desktop/Tesi/Firmware_Software/DAVE project/S2GLP_Pulsed_Doppler/Libraries/XMCLib/inc\xmc_dac.h ****   XMC_DAC_CH_MODE_NOISE   = 0x4U << DAC_DAC0CFG0_MODE_Pos,    /**< Noise mode - pseudo-random noise
 189:C:/Users/Utente/Desktop/Tesi/Firmware_Software/DAVE project/S2GLP_Pulsed_Doppler/Libraries/XMCLib/inc\xmc_dac.h ****   XMC_DAC_CH_MODE_RAMP    = 0x5U << DAC_DAC0CFG0_MODE_Pos     /**< Ramp mode - ramp generation */
 190:C:/Users/Utente/Desktop/Tesi/Firmware_Software/DAVE project/S2GLP_Pulsed_Doppler/Libraries/XMCLib/inc\xmc_dac.h **** } XMC_DAC_CH_MODE_t;
 191:C:/Users/Utente/Desktop/Tesi/Firmware_Software/DAVE project/S2GLP_Pulsed_Doppler/Libraries/XMCLib/inc\xmc_dac.h **** 
 192:C:/Users/Utente/Desktop/Tesi/Firmware_Software/DAVE project/S2GLP_Pulsed_Doppler/Libraries/XMCLib/inc\xmc_dac.h **** /**
 193:C:/Users/Utente/Desktop/Tesi/Firmware_Software/DAVE project/S2GLP_Pulsed_Doppler/Libraries/XMCLib/inc\xmc_dac.h ****  * Trigger sources for the data update
 194:C:/Users/Utente/Desktop/Tesi/Firmware_Software/DAVE project/S2GLP_Pulsed_Doppler/Libraries/XMCLib/inc\xmc_dac.h ****  */
 195:C:/Users/Utente/Desktop/Tesi/Firmware_Software/DAVE project/S2GLP_Pulsed_Doppler/Libraries/XMCLib/inc\xmc_dac.h **** typedef enum XMC_DAC_CH_TRIGGER
 196:C:/Users/Utente/Desktop/Tesi/Firmware_Software/DAVE project/S2GLP_Pulsed_Doppler/Libraries/XMCLib/inc\xmc_dac.h **** {
 197:C:/Users/Utente/Desktop/Tesi/Firmware_Software/DAVE project/S2GLP_Pulsed_Doppler/Libraries/XMCLib/inc\xmc_dac.h ****   XMC_DAC_CH_TRIGGER_INTERNAL =
 198:C:/Users/Utente/Desktop/Tesi/Firmware_Software/DAVE project/S2GLP_Pulsed_Doppler/Libraries/XMCLib/inc\xmc_dac.h ****       (0x0U << DAC_DAC0CFG1_TRIGMOD_Pos),                                      /**< Internal trigge
 199:C:/Users/Utente/Desktop/Tesi/Firmware_Software/DAVE project/S2GLP_Pulsed_Doppler/Libraries/XMCLib/inc\xmc_dac.h ****   XMC_DAC_CH_TRIGGER_EXTERNAL_CCU80_SR1 =
 200:C:/Users/Utente/Desktop/Tesi/Firmware_Software/DAVE project/S2GLP_Pulsed_Doppler/Libraries/XMCLib/inc\xmc_dac.h ****       (0x1U << DAC_DAC0CFG1_TRIGMOD_Pos) | 0x0U,                               /**< External trigge
 201:C:/Users/Utente/Desktop/Tesi/Firmware_Software/DAVE project/S2GLP_Pulsed_Doppler/Libraries/XMCLib/inc\xmc_dac.h ****   XMC_DAC_CH_TRIGGER_EXTERNAL_CCU40_SR1 =
 202:C:/Users/Utente/Desktop/Tesi/Firmware_Software/DAVE project/S2GLP_Pulsed_Doppler/Libraries/XMCLib/inc\xmc_dac.h ****       (0x1U << DAC_DAC0CFG1_TRIGMOD_Pos) | (0x2U << DAC_DAC0CFG1_TRIGSEL_Pos), /**< External trigge
 203:C:/Users/Utente/Desktop/Tesi/Firmware_Software/DAVE project/S2GLP_Pulsed_Doppler/Libraries/XMCLib/inc\xmc_dac.h ****   XMC_DAC_CH_TRIGGER_EXTERNAL_CCU41_SR1 =
 204:C:/Users/Utente/Desktop/Tesi/Firmware_Software/DAVE project/S2GLP_Pulsed_Doppler/Libraries/XMCLib/inc\xmc_dac.h ****       (0x1U << DAC_DAC0CFG1_TRIGMOD_Pos) | (0x3U << DAC_DAC0CFG1_TRIGSEL_Pos), /**< External trigge
 205:C:/Users/Utente/Desktop/Tesi/Firmware_Software/DAVE project/S2GLP_Pulsed_Doppler/Libraries/XMCLib/inc\xmc_dac.h ****   XMC_DAC_CH_TRIGGER_EXTERNAL_P2_9 =
 206:C:/Users/Utente/Desktop/Tesi/Firmware_Software/DAVE project/S2GLP_Pulsed_Doppler/Libraries/XMCLib/inc\xmc_dac.h ****       (0x1U << DAC_DAC0CFG1_TRIGMOD_Pos) | (0x4U << DAC_DAC0CFG1_TRIGSEL_Pos), /**< External trigge
 207:C:/Users/Utente/Desktop/Tesi/Firmware_Software/DAVE project/S2GLP_Pulsed_Doppler/Libraries/XMCLib/inc\xmc_dac.h ****   XMC_DAC_CH_TRIGGER_EXTERNAL_P2_8 =
 208:C:/Users/Utente/Desktop/Tesi/Firmware_Software/DAVE project/S2GLP_Pulsed_Doppler/Libraries/XMCLib/inc\xmc_dac.h ****       (0x1U << DAC_DAC0CFG1_TRIGMOD_Pos) | (0x5U << DAC_DAC0CFG1_TRIGSEL_Pos), /**< External trigge
 209:C:/Users/Utente/Desktop/Tesi/Firmware_Software/DAVE project/S2GLP_Pulsed_Doppler/Libraries/XMCLib/inc\xmc_dac.h ****   XMC_DAC_CH_TRIGGER_EXTERNAL_U0C0_DX1INS =
 210:C:/Users/Utente/Desktop/Tesi/Firmware_Software/DAVE project/S2GLP_Pulsed_Doppler/Libraries/XMCLib/inc\xmc_dac.h ****       (0x1U << DAC_DAC0CFG1_TRIGMOD_Pos) | (0x6U << DAC_DAC0CFG1_TRIGSEL_Pos), /**< External trigge
 211:C:/Users/Utente/Desktop/Tesi/Firmware_Software/DAVE project/S2GLP_Pulsed_Doppler/Libraries/XMCLib/inc\xmc_dac.h ****   XMC_DAC_CH_TRIGGER_EXTERNAL_U1C0_DX1INS =
 212:C:/Users/Utente/Desktop/Tesi/Firmware_Software/DAVE project/S2GLP_Pulsed_Doppler/Libraries/XMCLib/inc\xmc_dac.h ****       (0x1U << DAC_DAC0CFG1_TRIGMOD_Pos) | (0x7U << DAC_DAC0CFG1_TRIGSEL_Pos), /**< External trigge
 213:C:/Users/Utente/Desktop/Tesi/Firmware_Software/DAVE project/S2GLP_Pulsed_Doppler/Libraries/XMCLib/inc\xmc_dac.h ****   XMC_DAC_CH_TRIGGER_SOFTWARE =
 214:C:/Users/Utente/Desktop/Tesi/Firmware_Software/DAVE project/S2GLP_Pulsed_Doppler/Libraries/XMCLib/inc\xmc_dac.h ****       (0x2U << DAC_DAC0CFG1_TRIGMOD_Pos)                                       /**< Software trigge
 215:C:/Users/Utente/Desktop/Tesi/Firmware_Software/DAVE project/S2GLP_Pulsed_Doppler/Libraries/XMCLib/inc\xmc_dac.h **** } XMC_DAC_CH_TRIGGER_t;
 216:C:/Users/Utente/Desktop/Tesi/Firmware_Software/DAVE project/S2GLP_Pulsed_Doppler/Libraries/XMCLib/inc\xmc_dac.h **** 
 217:C:/Users/Utente/Desktop/Tesi/Firmware_Software/DAVE project/S2GLP_Pulsed_Doppler/Libraries/XMCLib/inc\xmc_dac.h **** /**
 218:C:/Users/Utente/Desktop/Tesi/Firmware_Software/DAVE project/S2GLP_Pulsed_Doppler/Libraries/XMCLib/inc\xmc_dac.h ****  * Data type of the input data
 219:C:/Users/Utente/Desktop/Tesi/Firmware_Software/DAVE project/S2GLP_Pulsed_Doppler/Libraries/XMCLib/inc\xmc_dac.h ****  */
 220:C:/Users/Utente/Desktop/Tesi/Firmware_Software/DAVE project/S2GLP_Pulsed_Doppler/Libraries/XMCLib/inc\xmc_dac.h **** typedef enum XMC_DAC_CH_DATA_TYPE
 221:C:/Users/Utente/Desktop/Tesi/Firmware_Software/DAVE project/S2GLP_Pulsed_Doppler/Libraries/XMCLib/inc\xmc_dac.h **** {
 222:C:/Users/Utente/Desktop/Tesi/Firmware_Software/DAVE project/S2GLP_Pulsed_Doppler/Libraries/XMCLib/inc\xmc_dac.h ****   XMC_DAC_CH_DATA_TYPE_UNSIGNED = 0U , /**< input data is unsigned */
 223:C:/Users/Utente/Desktop/Tesi/Firmware_Software/DAVE project/S2GLP_Pulsed_Doppler/Libraries/XMCLib/inc\xmc_dac.h ****   XMC_DAC_CH_DATA_TYPE_SIGNED = 1U     /**< input data is signed */
 224:C:/Users/Utente/Desktop/Tesi/Firmware_Software/DAVE project/S2GLP_Pulsed_Doppler/Libraries/XMCLib/inc\xmc_dac.h **** } XMC_DAC_CH_DATA_TYPE_t;
 225:C:/Users/Utente/Desktop/Tesi/Firmware_Software/DAVE project/S2GLP_Pulsed_Doppler/Libraries/XMCLib/inc\xmc_dac.h **** 
 226:C:/Users/Utente/Desktop/Tesi/Firmware_Software/DAVE project/S2GLP_Pulsed_Doppler/Libraries/XMCLib/inc\xmc_dac.h **** /**
 227:C:/Users/Utente/Desktop/Tesi/Firmware_Software/DAVE project/S2GLP_Pulsed_Doppler/Libraries/XMCLib/inc\xmc_dac.h ****  * Scaling of the input data
 228:C:/Users/Utente/Desktop/Tesi/Firmware_Software/DAVE project/S2GLP_Pulsed_Doppler/Libraries/XMCLib/inc\xmc_dac.h ****  */
 229:C:/Users/Utente/Desktop/Tesi/Firmware_Software/DAVE project/S2GLP_Pulsed_Doppler/Libraries/XMCLib/inc\xmc_dac.h **** typedef enum XMC_DAC_CH_OUTPUT_SCALE
 230:C:/Users/Utente/Desktop/Tesi/Firmware_Software/DAVE project/S2GLP_Pulsed_Doppler/Libraries/XMCLib/inc\xmc_dac.h **** {
 231:C:/Users/Utente/Desktop/Tesi/Firmware_Software/DAVE project/S2GLP_Pulsed_Doppler/Libraries/XMCLib/inc\xmc_dac.h ****   XMC_DAC_CH_OUTPUT_SCALE_NONE =
 232:C:/Users/Utente/Desktop/Tesi/Firmware_Software/DAVE project/S2GLP_Pulsed_Doppler/Libraries/XMCLib/inc\xmc_dac.h ****       0x0U,                                                                   /**< No scaling */
 233:C:/Users/Utente/Desktop/Tesi/Firmware_Software/DAVE project/S2GLP_Pulsed_Doppler/Libraries/XMCLib/inc\xmc_dac.h ****   XMC_DAC_CH_OUTPUT_SCALE_MUL_2 =
 234:C:/Users/Utente/Desktop/Tesi/Firmware_Software/DAVE project/S2GLP_Pulsed_Doppler/Libraries/XMCLib/inc\xmc_dac.h ****       (0x1U << DAC_DAC0CFG1_MULDIV_Pos) | (0x1U << DAC_DAC0CFG1_SCALE_Pos),   /**< multiplied by 2 
 235:C:/Users/Utente/Desktop/Tesi/Firmware_Software/DAVE project/S2GLP_Pulsed_Doppler/Libraries/XMCLib/inc\xmc_dac.h ****   XMC_DAC_CH_OUTPUT_SCALE_MUL_4 =
 236:C:/Users/Utente/Desktop/Tesi/Firmware_Software/DAVE project/S2GLP_Pulsed_Doppler/Libraries/XMCLib/inc\xmc_dac.h ****       (0x1U << DAC_DAC0CFG1_MULDIV_Pos) | (0x2U << DAC_DAC0CFG1_SCALE_Pos),   /**< multiplied by 4 
 237:C:/Users/Utente/Desktop/Tesi/Firmware_Software/DAVE project/S2GLP_Pulsed_Doppler/Libraries/XMCLib/inc\xmc_dac.h ****   XMC_DAC_CH_OUTPUT_SCALE_MUL_8 =
 238:C:/Users/Utente/Desktop/Tesi/Firmware_Software/DAVE project/S2GLP_Pulsed_Doppler/Libraries/XMCLib/inc\xmc_dac.h ****       (0x1U << DAC_DAC0CFG1_MULDIV_Pos) | (0x3U << DAC_DAC0CFG1_SCALE_Pos),   /**< multiplied by 8 
 239:C:/Users/Utente/Desktop/Tesi/Firmware_Software/DAVE project/S2GLP_Pulsed_Doppler/Libraries/XMCLib/inc\xmc_dac.h ****   XMC_DAC_CH_OUTPUT_SCALE_MUL_16 =
 240:C:/Users/Utente/Desktop/Tesi/Firmware_Software/DAVE project/S2GLP_Pulsed_Doppler/Libraries/XMCLib/inc\xmc_dac.h ****       (0x1U << DAC_DAC0CFG1_MULDIV_Pos) | (0x4U << DAC_DAC0CFG1_SCALE_Pos),   /**< multiplied by 16
 241:C:/Users/Utente/Desktop/Tesi/Firmware_Software/DAVE project/S2GLP_Pulsed_Doppler/Libraries/XMCLib/inc\xmc_dac.h ****   XMC_DAC_CH_OUTPUT_SCALE_MUL_32 =
 242:C:/Users/Utente/Desktop/Tesi/Firmware_Software/DAVE project/S2GLP_Pulsed_Doppler/Libraries/XMCLib/inc\xmc_dac.h ****       (0x1U << DAC_DAC0CFG1_MULDIV_Pos) | (0x5U << DAC_DAC0CFG1_SCALE_Pos),   /**< multiplied by 32
 243:C:/Users/Utente/Desktop/Tesi/Firmware_Software/DAVE project/S2GLP_Pulsed_Doppler/Libraries/XMCLib/inc\xmc_dac.h ****   XMC_DAC_CH_OUTPUT_SCALE_MUL_64 =
 244:C:/Users/Utente/Desktop/Tesi/Firmware_Software/DAVE project/S2GLP_Pulsed_Doppler/Libraries/XMCLib/inc\xmc_dac.h ****       (0x1U << DAC_DAC0CFG1_MULDIV_Pos) | (0x6U << DAC_DAC0CFG1_SCALE_Pos),   /**< multiplied by 64
 245:C:/Users/Utente/Desktop/Tesi/Firmware_Software/DAVE project/S2GLP_Pulsed_Doppler/Libraries/XMCLib/inc\xmc_dac.h ****   XMC_DAC_CH_OUTPUT_SCALE_MUL_128 =
 246:C:/Users/Utente/Desktop/Tesi/Firmware_Software/DAVE project/S2GLP_Pulsed_Doppler/Libraries/XMCLib/inc\xmc_dac.h ****       (0x1U << DAC_DAC0CFG1_MULDIV_Pos) | (0x7U << DAC_DAC0CFG1_SCALE_Pos),   /**< multiplied by 12
 247:C:/Users/Utente/Desktop/Tesi/Firmware_Software/DAVE project/S2GLP_Pulsed_Doppler/Libraries/XMCLib/inc\xmc_dac.h ****   XMC_DAC_CH_OUTPUT_SCALE_DIV_2 =
 248:C:/Users/Utente/Desktop/Tesi/Firmware_Software/DAVE project/S2GLP_Pulsed_Doppler/Libraries/XMCLib/inc\xmc_dac.h ****       0x1U << DAC_DAC0CFG1_SCALE_Pos,                                         /**< divided by 2 */
 249:C:/Users/Utente/Desktop/Tesi/Firmware_Software/DAVE project/S2GLP_Pulsed_Doppler/Libraries/XMCLib/inc\xmc_dac.h ****   XMC_DAC_CH_OUTPUT_SCALE_DIV_4 =
 250:C:/Users/Utente/Desktop/Tesi/Firmware_Software/DAVE project/S2GLP_Pulsed_Doppler/Libraries/XMCLib/inc\xmc_dac.h ****       0x2U << DAC_DAC0CFG1_SCALE_Pos,                                         /**< divided by 4 */
 251:C:/Users/Utente/Desktop/Tesi/Firmware_Software/DAVE project/S2GLP_Pulsed_Doppler/Libraries/XMCLib/inc\xmc_dac.h ****   XMC_DAC_CH_OUTPUT_SCALE_DIV_8 =
 252:C:/Users/Utente/Desktop/Tesi/Firmware_Software/DAVE project/S2GLP_Pulsed_Doppler/Libraries/XMCLib/inc\xmc_dac.h ****       0x3U << DAC_DAC0CFG1_SCALE_Pos,                                         /**< divided by 8 */
 253:C:/Users/Utente/Desktop/Tesi/Firmware_Software/DAVE project/S2GLP_Pulsed_Doppler/Libraries/XMCLib/inc\xmc_dac.h ****   XMC_DAC_CH_OUTPUT_SCALE_DIV_16 =
 254:C:/Users/Utente/Desktop/Tesi/Firmware_Software/DAVE project/S2GLP_Pulsed_Doppler/Libraries/XMCLib/inc\xmc_dac.h ****       0x4U << DAC_DAC0CFG1_SCALE_Pos,                                         /**< divided by 16 */
 255:C:/Users/Utente/Desktop/Tesi/Firmware_Software/DAVE project/S2GLP_Pulsed_Doppler/Libraries/XMCLib/inc\xmc_dac.h ****   XMC_DAC_CH_OUTPUT_SCALE_DIV_32 =
 256:C:/Users/Utente/Desktop/Tesi/Firmware_Software/DAVE project/S2GLP_Pulsed_Doppler/Libraries/XMCLib/inc\xmc_dac.h ****       0x5U << DAC_DAC0CFG1_SCALE_Pos,                                         /**< divided by 32 */
 257:C:/Users/Utente/Desktop/Tesi/Firmware_Software/DAVE project/S2GLP_Pulsed_Doppler/Libraries/XMCLib/inc\xmc_dac.h ****   XMC_DAC_CH_OUTPUT_SCALE_DIV_64 =
 258:C:/Users/Utente/Desktop/Tesi/Firmware_Software/DAVE project/S2GLP_Pulsed_Doppler/Libraries/XMCLib/inc\xmc_dac.h ****       0x6U << DAC_DAC0CFG1_SCALE_Pos,                                         /**< divided by 64 */
 259:C:/Users/Utente/Desktop/Tesi/Firmware_Software/DAVE project/S2GLP_Pulsed_Doppler/Libraries/XMCLib/inc\xmc_dac.h ****   XMC_DAC_CH_OUTPUT_SCALE_DIV_128 =
 260:C:/Users/Utente/Desktop/Tesi/Firmware_Software/DAVE project/S2GLP_Pulsed_Doppler/Libraries/XMCLib/inc\xmc_dac.h ****       0x7U << DAC_DAC0CFG1_SCALE_Pos                                          /**< divided by 128 *
 261:C:/Users/Utente/Desktop/Tesi/Firmware_Software/DAVE project/S2GLP_Pulsed_Doppler/Libraries/XMCLib/inc\xmc_dac.h **** } XMC_DAC_CH_OUTPUT_SCALE_t;
 262:C:/Users/Utente/Desktop/Tesi/Firmware_Software/DAVE project/S2GLP_Pulsed_Doppler/Libraries/XMCLib/inc\xmc_dac.h **** 
 263:C:/Users/Utente/Desktop/Tesi/Firmware_Software/DAVE project/S2GLP_Pulsed_Doppler/Libraries/XMCLib/inc\xmc_dac.h **** /**
 264:C:/Users/Utente/Desktop/Tesi/Firmware_Software/DAVE project/S2GLP_Pulsed_Doppler/Libraries/XMCLib/inc\xmc_dac.h ****  * Negation of input data (applicable only for XMC44 device)
 265:C:/Users/Utente/Desktop/Tesi/Firmware_Software/DAVE project/S2GLP_Pulsed_Doppler/Libraries/XMCLib/inc\xmc_dac.h ****  */
 266:C:/Users/Utente/Desktop/Tesi/Firmware_Software/DAVE project/S2GLP_Pulsed_Doppler/Libraries/XMCLib/inc\xmc_dac.h **** typedef enum XMC_DAC_CH_OUTPUT_NEGATION
 267:C:/Users/Utente/Desktop/Tesi/Firmware_Software/DAVE project/S2GLP_Pulsed_Doppler/Libraries/XMCLib/inc\xmc_dac.h **** {
 268:C:/Users/Utente/Desktop/Tesi/Firmware_Software/DAVE project/S2GLP_Pulsed_Doppler/Libraries/XMCLib/inc\xmc_dac.h ****   XMC_DAC_CH_OUTPUT_NEGATION_DISABLED = 0U,                   /**< XMC_DAC_CH_OUTPUT_NEGATION_DISAB
 269:C:/Users/Utente/Desktop/Tesi/Firmware_Software/DAVE project/S2GLP_Pulsed_Doppler/Libraries/XMCLib/inc\xmc_dac.h ****   XMC_DAC_CH_OUTPUT_NEGATION_ENABLED = 1U                     /**< XMC_DAC_CH_OUTPUT_NEGATION_ENABL
 270:C:/Users/Utente/Desktop/Tesi/Firmware_Software/DAVE project/S2GLP_Pulsed_Doppler/Libraries/XMCLib/inc\xmc_dac.h **** } XMC_DAC_CH_OUTPUT_NEGATION_t;
 271:C:/Users/Utente/Desktop/Tesi/Firmware_Software/DAVE project/S2GLP_Pulsed_Doppler/Libraries/XMCLib/inc\xmc_dac.h **** 
 272:C:/Users/Utente/Desktop/Tesi/Firmware_Software/DAVE project/S2GLP_Pulsed_Doppler/Libraries/XMCLib/inc\xmc_dac.h **** /**
 273:C:/Users/Utente/Desktop/Tesi/Firmware_Software/DAVE project/S2GLP_Pulsed_Doppler/Libraries/XMCLib/inc\xmc_dac.h ****  * Output sign signal for the Pattern Generation Mode
 274:C:/Users/Utente/Desktop/Tesi/Firmware_Software/DAVE project/S2GLP_Pulsed_Doppler/Libraries/XMCLib/inc\xmc_dac.h ****  */
 275:C:/Users/Utente/Desktop/Tesi/Firmware_Software/DAVE project/S2GLP_Pulsed_Doppler/Libraries/XMCLib/inc\xmc_dac.h **** typedef enum XMC_DAC_CH_PATTERN_SIGN_OUTPUT
 276:C:/Users/Utente/Desktop/Tesi/Firmware_Software/DAVE project/S2GLP_Pulsed_Doppler/Libraries/XMCLib/inc\xmc_dac.h **** {
 277:C:/Users/Utente/Desktop/Tesi/Firmware_Software/DAVE project/S2GLP_Pulsed_Doppler/Libraries/XMCLib/inc\xmc_dac.h ****   XMC_DAC_CH_PATTERN_SIGN_OUTPUT_DISABLED = 0U,  /**< Sign output signal generation is disabled */
 278:C:/Users/Utente/Desktop/Tesi/Firmware_Software/DAVE project/S2GLP_Pulsed_Doppler/Libraries/XMCLib/inc\xmc_dac.h ****   XMC_DAC_CH_PATTERN_SIGN_OUTPUT_ENABLED = 1U    /**< Sign output signal generation is enabled */
 279:C:/Users/Utente/Desktop/Tesi/Firmware_Software/DAVE project/S2GLP_Pulsed_Doppler/Libraries/XMCLib/inc\xmc_dac.h **** } XMC_DAC_CH_PATTERN_SIGN_OUTPUT_t;
 280:C:/Users/Utente/Desktop/Tesi/Firmware_Software/DAVE project/S2GLP_Pulsed_Doppler/Libraries/XMCLib/inc\xmc_dac.h **** 
 281:C:/Users/Utente/Desktop/Tesi/Firmware_Software/DAVE project/S2GLP_Pulsed_Doppler/Libraries/XMCLib/inc\xmc_dac.h **** /*******************************************************************************
 282:C:/Users/Utente/Desktop/Tesi/Firmware_Software/DAVE project/S2GLP_Pulsed_Doppler/Libraries/XMCLib/inc\xmc_dac.h ****  * DATA STRUCTURES
 283:C:/Users/Utente/Desktop/Tesi/Firmware_Software/DAVE project/S2GLP_Pulsed_Doppler/Libraries/XMCLib/inc\xmc_dac.h ****  *******************************************************************************/
 284:C:/Users/Utente/Desktop/Tesi/Firmware_Software/DAVE project/S2GLP_Pulsed_Doppler/Libraries/XMCLib/inc\xmc_dac.h **** /**
 285:C:/Users/Utente/Desktop/Tesi/Firmware_Software/DAVE project/S2GLP_Pulsed_Doppler/Libraries/XMCLib/inc\xmc_dac.h ****  * DAC peripheral registers configuration.
 286:C:/Users/Utente/Desktop/Tesi/Firmware_Software/DAVE project/S2GLP_Pulsed_Doppler/Libraries/XMCLib/inc\xmc_dac.h ****  */
 287:C:/Users/Utente/Desktop/Tesi/Firmware_Software/DAVE project/S2GLP_Pulsed_Doppler/Libraries/XMCLib/inc\xmc_dac.h **** typedef struct
 288:C:/Users/Utente/Desktop/Tesi/Firmware_Software/DAVE project/S2GLP_Pulsed_Doppler/Libraries/XMCLib/inc\xmc_dac.h **** {
 289:C:/Users/Utente/Desktop/Tesi/Firmware_Software/DAVE project/S2GLP_Pulsed_Doppler/Libraries/XMCLib/inc\xmc_dac.h ****   __I  uint32_t  ID;
 290:C:/Users/Utente/Desktop/Tesi/Firmware_Software/DAVE project/S2GLP_Pulsed_Doppler/Libraries/XMCLib/inc\xmc_dac.h **** 
 291:C:/Users/Utente/Desktop/Tesi/Firmware_Software/DAVE project/S2GLP_Pulsed_Doppler/Libraries/XMCLib/inc\xmc_dac.h ****   struct
 292:C:/Users/Utente/Desktop/Tesi/Firmware_Software/DAVE project/S2GLP_Pulsed_Doppler/Libraries/XMCLib/inc\xmc_dac.h ****   {
 293:C:/Users/Utente/Desktop/Tesi/Firmware_Software/DAVE project/S2GLP_Pulsed_Doppler/Libraries/XMCLib/inc\xmc_dac.h ****      __IO uint32_t low;
 294:C:/Users/Utente/Desktop/Tesi/Firmware_Software/DAVE project/S2GLP_Pulsed_Doppler/Libraries/XMCLib/inc\xmc_dac.h ****      __IO uint32_t high;
 295:C:/Users/Utente/Desktop/Tesi/Firmware_Software/DAVE project/S2GLP_Pulsed_Doppler/Libraries/XMCLib/inc\xmc_dac.h ****   } DACCFG[XMC_DAC_NO_CHANNELS];
 296:C:/Users/Utente/Desktop/Tesi/Firmware_Software/DAVE project/S2GLP_Pulsed_Doppler/Libraries/XMCLib/inc\xmc_dac.h **** 
 297:C:/Users/Utente/Desktop/Tesi/Firmware_Software/DAVE project/S2GLP_Pulsed_Doppler/Libraries/XMCLib/inc\xmc_dac.h ****   __IO uint32_t DACDATA[XMC_DAC_NO_CHANNELS];
 298:C:/Users/Utente/Desktop/Tesi/Firmware_Software/DAVE project/S2GLP_Pulsed_Doppler/Libraries/XMCLib/inc\xmc_dac.h ****   __IO uint32_t DAC01DATA;
 299:C:/Users/Utente/Desktop/Tesi/Firmware_Software/DAVE project/S2GLP_Pulsed_Doppler/Libraries/XMCLib/inc\xmc_dac.h **** 
 300:C:/Users/Utente/Desktop/Tesi/Firmware_Software/DAVE project/S2GLP_Pulsed_Doppler/Libraries/XMCLib/inc\xmc_dac.h ****   struct
 301:C:/Users/Utente/Desktop/Tesi/Firmware_Software/DAVE project/S2GLP_Pulsed_Doppler/Libraries/XMCLib/inc\xmc_dac.h ****   {
 302:C:/Users/Utente/Desktop/Tesi/Firmware_Software/DAVE project/S2GLP_Pulsed_Doppler/Libraries/XMCLib/inc\xmc_dac.h ****      __IO uint32_t low;
 303:C:/Users/Utente/Desktop/Tesi/Firmware_Software/DAVE project/S2GLP_Pulsed_Doppler/Libraries/XMCLib/inc\xmc_dac.h ****      __IO uint32_t high;
 304:C:/Users/Utente/Desktop/Tesi/Firmware_Software/DAVE project/S2GLP_Pulsed_Doppler/Libraries/XMCLib/inc\xmc_dac.h ****   } DACPAT[XMC_DAC_NO_CHANNELS];
 305:C:/Users/Utente/Desktop/Tesi/Firmware_Software/DAVE project/S2GLP_Pulsed_Doppler/Libraries/XMCLib/inc\xmc_dac.h **** 
 306:C:/Users/Utente/Desktop/Tesi/Firmware_Software/DAVE project/S2GLP_Pulsed_Doppler/Libraries/XMCLib/inc\xmc_dac.h **** } XMC_DAC_t;
 307:C:/Users/Utente/Desktop/Tesi/Firmware_Software/DAVE project/S2GLP_Pulsed_Doppler/Libraries/XMCLib/inc\xmc_dac.h **** 
 308:C:/Users/Utente/Desktop/Tesi/Firmware_Software/DAVE project/S2GLP_Pulsed_Doppler/Libraries/XMCLib/inc\xmc_dac.h **** /*Anonymous structure/union guard start*/
 309:C:/Users/Utente/Desktop/Tesi/Firmware_Software/DAVE project/S2GLP_Pulsed_Doppler/Libraries/XMCLib/inc\xmc_dac.h **** #if defined(__CC_ARM)
 310:C:/Users/Utente/Desktop/Tesi/Firmware_Software/DAVE project/S2GLP_Pulsed_Doppler/Libraries/XMCLib/inc\xmc_dac.h ****   #pragma push
 311:C:/Users/Utente/Desktop/Tesi/Firmware_Software/DAVE project/S2GLP_Pulsed_Doppler/Libraries/XMCLib/inc\xmc_dac.h ****   #pragma anon_unions
 312:C:/Users/Utente/Desktop/Tesi/Firmware_Software/DAVE project/S2GLP_Pulsed_Doppler/Libraries/XMCLib/inc\xmc_dac.h **** #elif defined(__TASKING__)
 313:C:/Users/Utente/Desktop/Tesi/Firmware_Software/DAVE project/S2GLP_Pulsed_Doppler/Libraries/XMCLib/inc\xmc_dac.h ****   #pragma warning 586
 314:C:/Users/Utente/Desktop/Tesi/Firmware_Software/DAVE project/S2GLP_Pulsed_Doppler/Libraries/XMCLib/inc\xmc_dac.h **** #endif
 315:C:/Users/Utente/Desktop/Tesi/Firmware_Software/DAVE project/S2GLP_Pulsed_Doppler/Libraries/XMCLib/inc\xmc_dac.h **** 
 316:C:/Users/Utente/Desktop/Tesi/Firmware_Software/DAVE project/S2GLP_Pulsed_Doppler/Libraries/XMCLib/inc\xmc_dac.h **** /**
 317:C:/Users/Utente/Desktop/Tesi/Firmware_Software/DAVE project/S2GLP_Pulsed_Doppler/Libraries/XMCLib/inc\xmc_dac.h ****  * Channel related configuration
 318:C:/Users/Utente/Desktop/Tesi/Firmware_Software/DAVE project/S2GLP_Pulsed_Doppler/Libraries/XMCLib/inc\xmc_dac.h ****  */
 319:C:/Users/Utente/Desktop/Tesi/Firmware_Software/DAVE project/S2GLP_Pulsed_Doppler/Libraries/XMCLib/inc\xmc_dac.h **** typedef struct XMC_DAC_CH_CONFIG
 320:C:/Users/Utente/Desktop/Tesi/Firmware_Software/DAVE project/S2GLP_Pulsed_Doppler/Libraries/XMCLib/inc\xmc_dac.h **** {
 321:C:/Users/Utente/Desktop/Tesi/Firmware_Software/DAVE project/S2GLP_Pulsed_Doppler/Libraries/XMCLib/inc\xmc_dac.h ****   union
 322:C:/Users/Utente/Desktop/Tesi/Firmware_Software/DAVE project/S2GLP_Pulsed_Doppler/Libraries/XMCLib/inc\xmc_dac.h ****   {
 323:C:/Users/Utente/Desktop/Tesi/Firmware_Software/DAVE project/S2GLP_Pulsed_Doppler/Libraries/XMCLib/inc\xmc_dac.h ****   struct
 324:C:/Users/Utente/Desktop/Tesi/Firmware_Software/DAVE project/S2GLP_Pulsed_Doppler/Libraries/XMCLib/inc\xmc_dac.h ****   {
 325:C:/Users/Utente/Desktop/Tesi/Firmware_Software/DAVE project/S2GLP_Pulsed_Doppler/Libraries/XMCLib/inc\xmc_dac.h ****     uint32_t :23;                /**< Not used bits */
 326:C:/Users/Utente/Desktop/Tesi/Firmware_Software/DAVE project/S2GLP_Pulsed_Doppler/Libraries/XMCLib/inc\xmc_dac.h ****     uint32_t data_type:1;        /**< input data type - unsigned / signed */
 327:C:/Users/Utente/Desktop/Tesi/Firmware_Software/DAVE project/S2GLP_Pulsed_Doppler/Libraries/XMCLib/inc\xmc_dac.h ****     uint32_t :4;                 /**< Not used bits */
 328:C:/Users/Utente/Desktop/Tesi/Firmware_Software/DAVE project/S2GLP_Pulsed_Doppler/Libraries/XMCLib/inc\xmc_dac.h ****     uint32_t output_negation:1;  /**< Negation of the output waveform enabled/disabled */
 329:C:/Users/Utente/Desktop/Tesi/Firmware_Software/DAVE project/S2GLP_Pulsed_Doppler/Libraries/XMCLib/inc\xmc_dac.h ****     uint32_t :3;
 330:C:/Users/Utente/Desktop/Tesi/Firmware_Software/DAVE project/S2GLP_Pulsed_Doppler/Libraries/XMCLib/inc\xmc_dac.h ****   };
 331:C:/Users/Utente/Desktop/Tesi/Firmware_Software/DAVE project/S2GLP_Pulsed_Doppler/Libraries/XMCLib/inc\xmc_dac.h ****   uint32_t cfg0;
 332:C:/Users/Utente/Desktop/Tesi/Firmware_Software/DAVE project/S2GLP_Pulsed_Doppler/Libraries/XMCLib/inc\xmc_dac.h ****   };
 333:C:/Users/Utente/Desktop/Tesi/Firmware_Software/DAVE project/S2GLP_Pulsed_Doppler/Libraries/XMCLib/inc\xmc_dac.h ****   union
 334:C:/Users/Utente/Desktop/Tesi/Firmware_Software/DAVE project/S2GLP_Pulsed_Doppler/Libraries/XMCLib/inc\xmc_dac.h ****   {
 335:C:/Users/Utente/Desktop/Tesi/Firmware_Software/DAVE project/S2GLP_Pulsed_Doppler/Libraries/XMCLib/inc\xmc_dac.h ****   struct
 336:C:/Users/Utente/Desktop/Tesi/Firmware_Software/DAVE project/S2GLP_Pulsed_Doppler/Libraries/XMCLib/inc\xmc_dac.h ****   {
 337:C:/Users/Utente/Desktop/Tesi/Firmware_Software/DAVE project/S2GLP_Pulsed_Doppler/Libraries/XMCLib/inc\xmc_dac.h ****     uint32_t output_scale:4;  /**< Scale value of type XMC_DAC_CH_OUTPUT_SCALE_t. It includes scali
 338:C:/Users/Utente/Desktop/Tesi/Firmware_Software/DAVE project/S2GLP_Pulsed_Doppler/Libraries/XMCLib/inc\xmc_dac.h ****     uint32_t output_offset:8; /**< offset value */
 339:C:/Users/Utente/Desktop/Tesi/Firmware_Software/DAVE project/S2GLP_Pulsed_Doppler/Libraries/XMCLib/inc\xmc_dac.h ****     uint32_t :20;
 340:C:/Users/Utente/Desktop/Tesi/Firmware_Software/DAVE project/S2GLP_Pulsed_Doppler/Libraries/XMCLib/inc\xmc_dac.h ****   };
 341:C:/Users/Utente/Desktop/Tesi/Firmware_Software/DAVE project/S2GLP_Pulsed_Doppler/Libraries/XMCLib/inc\xmc_dac.h ****   uint32_t cfg1;
 342:C:/Users/Utente/Desktop/Tesi/Firmware_Software/DAVE project/S2GLP_Pulsed_Doppler/Libraries/XMCLib/inc\xmc_dac.h ****   };
 343:C:/Users/Utente/Desktop/Tesi/Firmware_Software/DAVE project/S2GLP_Pulsed_Doppler/Libraries/XMCLib/inc\xmc_dac.h **** } XMC_DAC_CH_CONFIG_t;
 344:C:/Users/Utente/Desktop/Tesi/Firmware_Software/DAVE project/S2GLP_Pulsed_Doppler/Libraries/XMCLib/inc\xmc_dac.h **** /*Anonymous structure/union guard end*/
 345:C:/Users/Utente/Desktop/Tesi/Firmware_Software/DAVE project/S2GLP_Pulsed_Doppler/Libraries/XMCLib/inc\xmc_dac.h **** #if defined(__CC_ARM)
 346:C:/Users/Utente/Desktop/Tesi/Firmware_Software/DAVE project/S2GLP_Pulsed_Doppler/Libraries/XMCLib/inc\xmc_dac.h ****   #pragma pop
 347:C:/Users/Utente/Desktop/Tesi/Firmware_Software/DAVE project/S2GLP_Pulsed_Doppler/Libraries/XMCLib/inc\xmc_dac.h **** #elif defined(__TASKING__)
 348:C:/Users/Utente/Desktop/Tesi/Firmware_Software/DAVE project/S2GLP_Pulsed_Doppler/Libraries/XMCLib/inc\xmc_dac.h ****   #pragma warning restore
 349:C:/Users/Utente/Desktop/Tesi/Firmware_Software/DAVE project/S2GLP_Pulsed_Doppler/Libraries/XMCLib/inc\xmc_dac.h **** #endif
 350:C:/Users/Utente/Desktop/Tesi/Firmware_Software/DAVE project/S2GLP_Pulsed_Doppler/Libraries/XMCLib/inc\xmc_dac.h **** /*******************************************************************************
 351:C:/Users/Utente/Desktop/Tesi/Firmware_Software/DAVE project/S2GLP_Pulsed_Doppler/Libraries/XMCLib/inc\xmc_dac.h ****  * API PROTOTYPES
 352:C:/Users/Utente/Desktop/Tesi/Firmware_Software/DAVE project/S2GLP_Pulsed_Doppler/Libraries/XMCLib/inc\xmc_dac.h ****  *******************************************************************************/
 353:C:/Users/Utente/Desktop/Tesi/Firmware_Software/DAVE project/S2GLP_Pulsed_Doppler/Libraries/XMCLib/inc\xmc_dac.h **** 
 354:C:/Users/Utente/Desktop/Tesi/Firmware_Software/DAVE project/S2GLP_Pulsed_Doppler/Libraries/XMCLib/inc\xmc_dac.h **** #ifdef __cplusplus
 355:C:/Users/Utente/Desktop/Tesi/Firmware_Software/DAVE project/S2GLP_Pulsed_Doppler/Libraries/XMCLib/inc\xmc_dac.h **** extern "C" {
 356:C:/Users/Utente/Desktop/Tesi/Firmware_Software/DAVE project/S2GLP_Pulsed_Doppler/Libraries/XMCLib/inc\xmc_dac.h **** #endif
 357:C:/Users/Utente/Desktop/Tesi/Firmware_Software/DAVE project/S2GLP_Pulsed_Doppler/Libraries/XMCLib/inc\xmc_dac.h **** 
 358:C:/Users/Utente/Desktop/Tesi/Firmware_Software/DAVE project/S2GLP_Pulsed_Doppler/Libraries/XMCLib/inc\xmc_dac.h **** /**
 359:C:/Users/Utente/Desktop/Tesi/Firmware_Software/DAVE project/S2GLP_Pulsed_Doppler/Libraries/XMCLib/inc\xmc_dac.h ****  * @param dac Pointer to an instance of DAC module
 360:C:/Users/Utente/Desktop/Tesi/Firmware_Software/DAVE project/S2GLP_Pulsed_Doppler/Libraries/XMCLib/inc\xmc_dac.h ****  *
 361:C:/Users/Utente/Desktop/Tesi/Firmware_Software/DAVE project/S2GLP_Pulsed_Doppler/Libraries/XMCLib/inc\xmc_dac.h ****  * @return None
 362:C:/Users/Utente/Desktop/Tesi/Firmware_Software/DAVE project/S2GLP_Pulsed_Doppler/Libraries/XMCLib/inc\xmc_dac.h ****  *
 363:C:/Users/Utente/Desktop/Tesi/Firmware_Software/DAVE project/S2GLP_Pulsed_Doppler/Libraries/XMCLib/inc\xmc_dac.h ****  * \par<b>Description:</b><br>
 364:C:/Users/Utente/Desktop/Tesi/Firmware_Software/DAVE project/S2GLP_Pulsed_Doppler/Libraries/XMCLib/inc\xmc_dac.h ****  * Enables DAC clock and releases DAC reset.<br>
 365:C:/Users/Utente/Desktop/Tesi/Firmware_Software/DAVE project/S2GLP_Pulsed_Doppler/Libraries/XMCLib/inc\xmc_dac.h ****  *
 366:C:/Users/Utente/Desktop/Tesi/Firmware_Software/DAVE project/S2GLP_Pulsed_Doppler/Libraries/XMCLib/inc\xmc_dac.h ****  * \par
 367:C:/Users/Utente/Desktop/Tesi/Firmware_Software/DAVE project/S2GLP_Pulsed_Doppler/Libraries/XMCLib/inc\xmc_dac.h ****  * Enabling DAC is the first step of DAC initialisation. This API is called by XMC_DAC_CH_Init().
 368:C:/Users/Utente/Desktop/Tesi/Firmware_Software/DAVE project/S2GLP_Pulsed_Doppler/Libraries/XMCLib/inc\xmc_dac.h ****  * DAC clock is enabled by setting \a DAC bit of \a CGATCLR1 register. DAC reset is released by set
 369:C:/Users/Utente/Desktop/Tesi/Firmware_Software/DAVE project/S2GLP_Pulsed_Doppler/Libraries/XMCLib/inc\xmc_dac.h ****  *
 370:C:/Users/Utente/Desktop/Tesi/Firmware_Software/DAVE project/S2GLP_Pulsed_Doppler/Libraries/XMCLib/inc\xmc_dac.h ****  *
 371:C:/Users/Utente/Desktop/Tesi/Firmware_Software/DAVE project/S2GLP_Pulsed_Doppler/Libraries/XMCLib/inc\xmc_dac.h ****  * \par<b>Related APIs:</b><BR>
 372:C:/Users/Utente/Desktop/Tesi/Firmware_Software/DAVE project/S2GLP_Pulsed_Doppler/Libraries/XMCLib/inc\xmc_dac.h ****  * XMC_DAC_IsEnabled(), XMC_DAC_Disable(), XMC_DAC_CH_Init()\n\n\n
 373:C:/Users/Utente/Desktop/Tesi/Firmware_Software/DAVE project/S2GLP_Pulsed_Doppler/Libraries/XMCLib/inc\xmc_dac.h ****  *
 374:C:/Users/Utente/Desktop/Tesi/Firmware_Software/DAVE project/S2GLP_Pulsed_Doppler/Libraries/XMCLib/inc\xmc_dac.h ****  */
 375:C:/Users/Utente/Desktop/Tesi/Firmware_Software/DAVE project/S2GLP_Pulsed_Doppler/Libraries/XMCLib/inc\xmc_dac.h **** void XMC_DAC_Enable(XMC_DAC_t *const dac);
 376:C:/Users/Utente/Desktop/Tesi/Firmware_Software/DAVE project/S2GLP_Pulsed_Doppler/Libraries/XMCLib/inc\xmc_dac.h **** 
 377:C:/Users/Utente/Desktop/Tesi/Firmware_Software/DAVE project/S2GLP_Pulsed_Doppler/Libraries/XMCLib/inc\xmc_dac.h **** /**
 378:C:/Users/Utente/Desktop/Tesi/Firmware_Software/DAVE project/S2GLP_Pulsed_Doppler/Libraries/XMCLib/inc\xmc_dac.h ****  * @param dac Pointer to an instance of DAC module
 379:C:/Users/Utente/Desktop/Tesi/Firmware_Software/DAVE project/S2GLP_Pulsed_Doppler/Libraries/XMCLib/inc\xmc_dac.h ****  *
 380:C:/Users/Utente/Desktop/Tesi/Firmware_Software/DAVE project/S2GLP_Pulsed_Doppler/Libraries/XMCLib/inc\xmc_dac.h ****  * @return None
 381:C:/Users/Utente/Desktop/Tesi/Firmware_Software/DAVE project/S2GLP_Pulsed_Doppler/Libraries/XMCLib/inc\xmc_dac.h ****  *
 382:C:/Users/Utente/Desktop/Tesi/Firmware_Software/DAVE project/S2GLP_Pulsed_Doppler/Libraries/XMCLib/inc\xmc_dac.h ****  * \par<b>Description:</b><br>
 383:C:/Users/Utente/Desktop/Tesi/Firmware_Software/DAVE project/S2GLP_Pulsed_Doppler/Libraries/XMCLib/inc\xmc_dac.h ****  * Disables DAC clock and resets DAC.
 384:C:/Users/Utente/Desktop/Tesi/Firmware_Software/DAVE project/S2GLP_Pulsed_Doppler/Libraries/XMCLib/inc\xmc_dac.h ****  *
 385:C:/Users/Utente/Desktop/Tesi/Firmware_Software/DAVE project/S2GLP_Pulsed_Doppler/Libraries/XMCLib/inc\xmc_dac.h ****  * \par
 386:C:/Users/Utente/Desktop/Tesi/Firmware_Software/DAVE project/S2GLP_Pulsed_Doppler/Libraries/XMCLib/inc\xmc_dac.h ****  * DAC clock is disabled by setting \a DAC bit of \a CGATSET1 register. DAC is reset by setting \a 
 387:C:/Users/Utente/Desktop/Tesi/Firmware_Software/DAVE project/S2GLP_Pulsed_Doppler/Libraries/XMCLib/inc\xmc_dac.h ****  *
 388:C:/Users/Utente/Desktop/Tesi/Firmware_Software/DAVE project/S2GLP_Pulsed_Doppler/Libraries/XMCLib/inc\xmc_dac.h ****  * \par<b>Related APIs:</b><BR>
 389:C:/Users/Utente/Desktop/Tesi/Firmware_Software/DAVE project/S2GLP_Pulsed_Doppler/Libraries/XMCLib/inc\xmc_dac.h ****  * XMC_DAC_IsEnabled(), XMC_DAC_Enable()\n\n\n
 390:C:/Users/Utente/Desktop/Tesi/Firmware_Software/DAVE project/S2GLP_Pulsed_Doppler/Libraries/XMCLib/inc\xmc_dac.h ****  *
 391:C:/Users/Utente/Desktop/Tesi/Firmware_Software/DAVE project/S2GLP_Pulsed_Doppler/Libraries/XMCLib/inc\xmc_dac.h ****  */
 392:C:/Users/Utente/Desktop/Tesi/Firmware_Software/DAVE project/S2GLP_Pulsed_Doppler/Libraries/XMCLib/inc\xmc_dac.h **** void XMC_DAC_Disable(XMC_DAC_t *const dac);
 393:C:/Users/Utente/Desktop/Tesi/Firmware_Software/DAVE project/S2GLP_Pulsed_Doppler/Libraries/XMCLib/inc\xmc_dac.h **** 
 394:C:/Users/Utente/Desktop/Tesi/Firmware_Software/DAVE project/S2GLP_Pulsed_Doppler/Libraries/XMCLib/inc\xmc_dac.h **** /**
 395:C:/Users/Utente/Desktop/Tesi/Firmware_Software/DAVE project/S2GLP_Pulsed_Doppler/Libraries/XMCLib/inc\xmc_dac.h ****  * @param dac Pointer to an instance of DAC module
 396:C:/Users/Utente/Desktop/Tesi/Firmware_Software/DAVE project/S2GLP_Pulsed_Doppler/Libraries/XMCLib/inc\xmc_dac.h ****  *
 397:C:/Users/Utente/Desktop/Tesi/Firmware_Software/DAVE project/S2GLP_Pulsed_Doppler/Libraries/XMCLib/inc\xmc_dac.h ****  * @return bool<br>
 398:C:/Users/Utente/Desktop/Tesi/Firmware_Software/DAVE project/S2GLP_Pulsed_Doppler/Libraries/XMCLib/inc\xmc_dac.h ****  * true  - if DAC is enabled<br>
 399:C:/Users/Utente/Desktop/Tesi/Firmware_Software/DAVE project/S2GLP_Pulsed_Doppler/Libraries/XMCLib/inc\xmc_dac.h ****  * false - if DAC is disabled
 400:C:/Users/Utente/Desktop/Tesi/Firmware_Software/DAVE project/S2GLP_Pulsed_Doppler/Libraries/XMCLib/inc\xmc_dac.h ****  *
 401:C:/Users/Utente/Desktop/Tesi/Firmware_Software/DAVE project/S2GLP_Pulsed_Doppler/Libraries/XMCLib/inc\xmc_dac.h ****  * \par<b>Description:</b><br>
 402:C:/Users/Utente/Desktop/Tesi/Firmware_Software/DAVE project/S2GLP_Pulsed_Doppler/Libraries/XMCLib/inc\xmc_dac.h ****  * Returns the state of the DAC.
 403:C:/Users/Utente/Desktop/Tesi/Firmware_Software/DAVE project/S2GLP_Pulsed_Doppler/Libraries/XMCLib/inc\xmc_dac.h ****  *
 404:C:/Users/Utente/Desktop/Tesi/Firmware_Software/DAVE project/S2GLP_Pulsed_Doppler/Libraries/XMCLib/inc\xmc_dac.h ****  * \par
 405:C:/Users/Utente/Desktop/Tesi/Firmware_Software/DAVE project/S2GLP_Pulsed_Doppler/Libraries/XMCLib/inc\xmc_dac.h ****  * DAC enabled status is determined by referring to \a DACRS bit of \a PRSTAT1 register.
 406:C:/Users/Utente/Desktop/Tesi/Firmware_Software/DAVE project/S2GLP_Pulsed_Doppler/Libraries/XMCLib/inc\xmc_dac.h ****  *
 407:C:/Users/Utente/Desktop/Tesi/Firmware_Software/DAVE project/S2GLP_Pulsed_Doppler/Libraries/XMCLib/inc\xmc_dac.h ****  * \par<b>Related APIs:</b><BR>
 408:C:/Users/Utente/Desktop/Tesi/Firmware_Software/DAVE project/S2GLP_Pulsed_Doppler/Libraries/XMCLib/inc\xmc_dac.h ****  * XMC_DAC_Enable(), XMC_DAC_Disable()\n\n\n
 409:C:/Users/Utente/Desktop/Tesi/Firmware_Software/DAVE project/S2GLP_Pulsed_Doppler/Libraries/XMCLib/inc\xmc_dac.h ****  *
 410:C:/Users/Utente/Desktop/Tesi/Firmware_Software/DAVE project/S2GLP_Pulsed_Doppler/Libraries/XMCLib/inc\xmc_dac.h ****  */
 411:C:/Users/Utente/Desktop/Tesi/Firmware_Software/DAVE project/S2GLP_Pulsed_Doppler/Libraries/XMCLib/inc\xmc_dac.h **** bool XMC_DAC_IsEnabled(const XMC_DAC_t *const dac);
 412:C:/Users/Utente/Desktop/Tesi/Firmware_Software/DAVE project/S2GLP_Pulsed_Doppler/Libraries/XMCLib/inc\xmc_dac.h **** 
 413:C:/Users/Utente/Desktop/Tesi/Firmware_Software/DAVE project/S2GLP_Pulsed_Doppler/Libraries/XMCLib/inc\xmc_dac.h **** /**
 414:C:/Users/Utente/Desktop/Tesi/Firmware_Software/DAVE project/S2GLP_Pulsed_Doppler/Libraries/XMCLib/inc\xmc_dac.h ****  * @param dac Pointer to an instance of DAC module
 415:C:/Users/Utente/Desktop/Tesi/Firmware_Software/DAVE project/S2GLP_Pulsed_Doppler/Libraries/XMCLib/inc\xmc_dac.h ****  *
 416:C:/Users/Utente/Desktop/Tesi/Firmware_Software/DAVE project/S2GLP_Pulsed_Doppler/Libraries/XMCLib/inc\xmc_dac.h ****  * @return None
 417:C:/Users/Utente/Desktop/Tesi/Firmware_Software/DAVE project/S2GLP_Pulsed_Doppler/Libraries/XMCLib/inc\xmc_dac.h ****  *
 418:C:/Users/Utente/Desktop/Tesi/Firmware_Software/DAVE project/S2GLP_Pulsed_Doppler/Libraries/XMCLib/inc\xmc_dac.h ****  * \par<b>Description:</b><br>
 419:C:/Users/Utente/Desktop/Tesi/Firmware_Software/DAVE project/S2GLP_Pulsed_Doppler/Libraries/XMCLib/inc\xmc_dac.h ****  * DAC switches to Simultaneous data mode from Independent data mode.
 420:C:/Users/Utente/Desktop/Tesi/Firmware_Software/DAVE project/S2GLP_Pulsed_Doppler/Libraries/XMCLib/inc\xmc_dac.h ****  *
 421:C:/Users/Utente/Desktop/Tesi/Firmware_Software/DAVE project/S2GLP_Pulsed_Doppler/Libraries/XMCLib/inc\xmc_dac.h ****  * \par
 422:C:/Users/Utente/Desktop/Tesi/Firmware_Software/DAVE project/S2GLP_Pulsed_Doppler/Libraries/XMCLib/inc\xmc_dac.h ****  * Independent data mode is the default data mode.
 423:C:/Users/Utente/Desktop/Tesi/Firmware_Software/DAVE project/S2GLP_Pulsed_Doppler/Libraries/XMCLib/inc\xmc_dac.h ****  * Simultaneous data mode is enabled by setting \a DATMOD bit of \a DAC0CFG1 register.
 424:C:/Users/Utente/Desktop/Tesi/Firmware_Software/DAVE project/S2GLP_Pulsed_Doppler/Libraries/XMCLib/inc\xmc_dac.h ****  *
 425:C:/Users/Utente/Desktop/Tesi/Firmware_Software/DAVE project/S2GLP_Pulsed_Doppler/Libraries/XMCLib/inc\xmc_dac.h ****  * \par<b>Note:</b><br>
 426:C:/Users/Utente/Desktop/Tesi/Firmware_Software/DAVE project/S2GLP_Pulsed_Doppler/Libraries/XMCLib/inc\xmc_dac.h ****  * Set channel 0 and channel 1 to Data mode before calling this API.
 427:C:/Users/Utente/Desktop/Tesi/Firmware_Software/DAVE project/S2GLP_Pulsed_Doppler/Libraries/XMCLib/inc\xmc_dac.h ****  *
 428:C:/Users/Utente/Desktop/Tesi/Firmware_Software/DAVE project/S2GLP_Pulsed_Doppler/Libraries/XMCLib/inc\xmc_dac.h ****  * \par<b>Related APIs:</b><BR>
 429:C:/Users/Utente/Desktop/Tesi/Firmware_Software/DAVE project/S2GLP_Pulsed_Doppler/Libraries/XMCLib/inc\xmc_dac.h ****  * XMC_DAC_CH_StartSingleValueMode(), XMC_DAC_CH_StartDataMode(), XMC_DAC_SimultaneousWrite(), XMC_
 430:C:/Users/Utente/Desktop/Tesi/Firmware_Software/DAVE project/S2GLP_Pulsed_Doppler/Libraries/XMCLib/inc\xmc_dac.h ****  *
 431:C:/Users/Utente/Desktop/Tesi/Firmware_Software/DAVE project/S2GLP_Pulsed_Doppler/Libraries/XMCLib/inc\xmc_dac.h ****  */
 432:C:/Users/Utente/Desktop/Tesi/Firmware_Software/DAVE project/S2GLP_Pulsed_Doppler/Libraries/XMCLib/inc\xmc_dac.h **** __STATIC_INLINE void XMC_DAC_EnableSimultaneousDataMode(XMC_DAC_t *const dac)
 433:C:/Users/Utente/Desktop/Tesi/Firmware_Software/DAVE project/S2GLP_Pulsed_Doppler/Libraries/XMCLib/inc\xmc_dac.h **** {
 434:C:/Users/Utente/Desktop/Tesi/Firmware_Software/DAVE project/S2GLP_Pulsed_Doppler/Libraries/XMCLib/inc\xmc_dac.h ****   XMC_ASSERT("XMC_DAC_EnableSimultaneousDataMode: dac parameter not valid\n", XMC_DAC_IS_DAC_VALID(
 435:C:/Users/Utente/Desktop/Tesi/Firmware_Software/DAVE project/S2GLP_Pulsed_Doppler/Libraries/XMCLib/inc\xmc_dac.h ****   
 436:C:/Users/Utente/Desktop/Tesi/Firmware_Software/DAVE project/S2GLP_Pulsed_Doppler/Libraries/XMCLib/inc\xmc_dac.h ****   dac->DACCFG[0].high |= DAC_DAC0CFG1_DATMOD_Msk;
 437:C:/Users/Utente/Desktop/Tesi/Firmware_Software/DAVE project/S2GLP_Pulsed_Doppler/Libraries/XMCLib/inc\xmc_dac.h **** }
 438:C:/Users/Utente/Desktop/Tesi/Firmware_Software/DAVE project/S2GLP_Pulsed_Doppler/Libraries/XMCLib/inc\xmc_dac.h **** 
 439:C:/Users/Utente/Desktop/Tesi/Firmware_Software/DAVE project/S2GLP_Pulsed_Doppler/Libraries/XMCLib/inc\xmc_dac.h **** /**
 440:C:/Users/Utente/Desktop/Tesi/Firmware_Software/DAVE project/S2GLP_Pulsed_Doppler/Libraries/XMCLib/inc\xmc_dac.h ****  * @param dac Pointer to an instance of DAC module
 441:C:/Users/Utente/Desktop/Tesi/Firmware_Software/DAVE project/S2GLP_Pulsed_Doppler/Libraries/XMCLib/inc\xmc_dac.h ****  *
 442:C:/Users/Utente/Desktop/Tesi/Firmware_Software/DAVE project/S2GLP_Pulsed_Doppler/Libraries/XMCLib/inc\xmc_dac.h ****  * @return None
 443:C:/Users/Utente/Desktop/Tesi/Firmware_Software/DAVE project/S2GLP_Pulsed_Doppler/Libraries/XMCLib/inc\xmc_dac.h ****  *
 444:C:/Users/Utente/Desktop/Tesi/Firmware_Software/DAVE project/S2GLP_Pulsed_Doppler/Libraries/XMCLib/inc\xmc_dac.h ****  * \par<b>Description:</b><br>
 445:C:/Users/Utente/Desktop/Tesi/Firmware_Software/DAVE project/S2GLP_Pulsed_Doppler/Libraries/XMCLib/inc\xmc_dac.h ****  * DAC switches to independent data mode from simultaneous Data mode.
 446:C:/Users/Utente/Desktop/Tesi/Firmware_Software/DAVE project/S2GLP_Pulsed_Doppler/Libraries/XMCLib/inc\xmc_dac.h ****  *
 447:C:/Users/Utente/Desktop/Tesi/Firmware_Software/DAVE project/S2GLP_Pulsed_Doppler/Libraries/XMCLib/inc\xmc_dac.h ****  * \par
 448:C:/Users/Utente/Desktop/Tesi/Firmware_Software/DAVE project/S2GLP_Pulsed_Doppler/Libraries/XMCLib/inc\xmc_dac.h ****  * Independent data mode is the default data mode.
 449:C:/Users/Utente/Desktop/Tesi/Firmware_Software/DAVE project/S2GLP_Pulsed_Doppler/Libraries/XMCLib/inc\xmc_dac.h ****  * Simultaneous data mode is disabled by clearing \a DATMOD bit of \a DAC0CFG1 register.
 450:C:/Users/Utente/Desktop/Tesi/Firmware_Software/DAVE project/S2GLP_Pulsed_Doppler/Libraries/XMCLib/inc\xmc_dac.h ****  *
 451:C:/Users/Utente/Desktop/Tesi/Firmware_Software/DAVE project/S2GLP_Pulsed_Doppler/Libraries/XMCLib/inc\xmc_dac.h ****  * \par<b>Related APIs:</b><BR>
 452:C:/Users/Utente/Desktop/Tesi/Firmware_Software/DAVE project/S2GLP_Pulsed_Doppler/Libraries/XMCLib/inc\xmc_dac.h ****  * XMC_DAC_CH_StartDataMode(), XMC_DAC_EnableSimultaneousDataMode()\n\n\n
 453:C:/Users/Utente/Desktop/Tesi/Firmware_Software/DAVE project/S2GLP_Pulsed_Doppler/Libraries/XMCLib/inc\xmc_dac.h ****  *
 454:C:/Users/Utente/Desktop/Tesi/Firmware_Software/DAVE project/S2GLP_Pulsed_Doppler/Libraries/XMCLib/inc\xmc_dac.h ****  */
 455:C:/Users/Utente/Desktop/Tesi/Firmware_Software/DAVE project/S2GLP_Pulsed_Doppler/Libraries/XMCLib/inc\xmc_dac.h **** __STATIC_INLINE void XMC_DAC_DisableSimultaneousDataMode(XMC_DAC_t *const dac)
 456:C:/Users/Utente/Desktop/Tesi/Firmware_Software/DAVE project/S2GLP_Pulsed_Doppler/Libraries/XMCLib/inc\xmc_dac.h **** {
 457:C:/Users/Utente/Desktop/Tesi/Firmware_Software/DAVE project/S2GLP_Pulsed_Doppler/Libraries/XMCLib/inc\xmc_dac.h ****   XMC_ASSERT("XMC_DAC_DisableSimultaneousDataMode: dac parameter not valid\n", XMC_DAC_IS_DAC_VALID
 458:C:/Users/Utente/Desktop/Tesi/Firmware_Software/DAVE project/S2GLP_Pulsed_Doppler/Libraries/XMCLib/inc\xmc_dac.h ****   
 459:C:/Users/Utente/Desktop/Tesi/Firmware_Software/DAVE project/S2GLP_Pulsed_Doppler/Libraries/XMCLib/inc\xmc_dac.h ****   dac->DACCFG[0].high &= ~DAC_DAC0CFG1_DATMOD_Msk;
 460:C:/Users/Utente/Desktop/Tesi/Firmware_Software/DAVE project/S2GLP_Pulsed_Doppler/Libraries/XMCLib/inc\xmc_dac.h **** }
 461:C:/Users/Utente/Desktop/Tesi/Firmware_Software/DAVE project/S2GLP_Pulsed_Doppler/Libraries/XMCLib/inc\xmc_dac.h **** 
 462:C:/Users/Utente/Desktop/Tesi/Firmware_Software/DAVE project/S2GLP_Pulsed_Doppler/Libraries/XMCLib/inc\xmc_dac.h **** /**
 463:C:/Users/Utente/Desktop/Tesi/Firmware_Software/DAVE project/S2GLP_Pulsed_Doppler/Libraries/XMCLib/inc\xmc_dac.h ****  * @param dac Pointer to an instance of DAC module
 464:C:/Users/Utente/Desktop/Tesi/Firmware_Software/DAVE project/S2GLP_Pulsed_Doppler/Libraries/XMCLib/inc\xmc_dac.h ****  * @param data0 Data for DAC channel 0 [0-4095]
 465:C:/Users/Utente/Desktop/Tesi/Firmware_Software/DAVE project/S2GLP_Pulsed_Doppler/Libraries/XMCLib/inc\xmc_dac.h ****  * @param data1 Data for DAC channel 1 [0-4095]
 466:C:/Users/Utente/Desktop/Tesi/Firmware_Software/DAVE project/S2GLP_Pulsed_Doppler/Libraries/XMCLib/inc\xmc_dac.h ****  *
 467:C:/Users/Utente/Desktop/Tesi/Firmware_Software/DAVE project/S2GLP_Pulsed_Doppler/Libraries/XMCLib/inc\xmc_dac.h ****  * @return None
 468:C:/Users/Utente/Desktop/Tesi/Firmware_Software/DAVE project/S2GLP_Pulsed_Doppler/Libraries/XMCLib/inc\xmc_dac.h ****  *
 469:C:/Users/Utente/Desktop/Tesi/Firmware_Software/DAVE project/S2GLP_Pulsed_Doppler/Libraries/XMCLib/inc\xmc_dac.h ****  * \par<b>Description:</b><br>
 470:C:/Users/Utente/Desktop/Tesi/Firmware_Software/DAVE project/S2GLP_Pulsed_Doppler/Libraries/XMCLib/inc\xmc_dac.h ****  * The data (\e data0 & \e data1) to be converted by channel 0 & channel 1 are updated to \a DATA1 
 471:C:/Users/Utente/Desktop/Tesi/Firmware_Software/DAVE project/S2GLP_Pulsed_Doppler/Libraries/XMCLib/inc\xmc_dac.h ****  * data0 and data1 have the range of [0-4095].
 472:C:/Users/Utente/Desktop/Tesi/Firmware_Software/DAVE project/S2GLP_Pulsed_Doppler/Libraries/XMCLib/inc\xmc_dac.h ****  *
 473:C:/Users/Utente/Desktop/Tesi/Firmware_Software/DAVE project/S2GLP_Pulsed_Doppler/Libraries/XMCLib/inc\xmc_dac.h ****  * \par<b>Note:</b><br>
 474:C:/Users/Utente/Desktop/Tesi/Firmware_Software/DAVE project/S2GLP_Pulsed_Doppler/Libraries/XMCLib/inc\xmc_dac.h ****  * Channel 0 and Channel 1 should be set to simultaneous data mode before calling this API.
 475:C:/Users/Utente/Desktop/Tesi/Firmware_Software/DAVE project/S2GLP_Pulsed_Doppler/Libraries/XMCLib/inc\xmc_dac.h ****  *
 476:C:/Users/Utente/Desktop/Tesi/Firmware_Software/DAVE project/S2GLP_Pulsed_Doppler/Libraries/XMCLib/inc\xmc_dac.h ****  * \par<b>Related APIs:</b><BR>
 477:C:/Users/Utente/Desktop/Tesi/Firmware_Software/DAVE project/S2GLP_Pulsed_Doppler/Libraries/XMCLib/inc\xmc_dac.h ****  * XMC_DAC_EnableSimultaneousDataMode()\n\n\n
 478:C:/Users/Utente/Desktop/Tesi/Firmware_Software/DAVE project/S2GLP_Pulsed_Doppler/Libraries/XMCLib/inc\xmc_dac.h ****  *
 479:C:/Users/Utente/Desktop/Tesi/Firmware_Software/DAVE project/S2GLP_Pulsed_Doppler/Libraries/XMCLib/inc\xmc_dac.h ****  */
 480:C:/Users/Utente/Desktop/Tesi/Firmware_Software/DAVE project/S2GLP_Pulsed_Doppler/Libraries/XMCLib/inc\xmc_dac.h **** __STATIC_INLINE void XMC_DAC_SimultaneousWrite(XMC_DAC_t *const dac, const uint16_t data0, const ui
 481:C:/Users/Utente/Desktop/Tesi/Firmware_Software/DAVE project/S2GLP_Pulsed_Doppler/Libraries/XMCLib/inc\xmc_dac.h **** {
 482:C:/Users/Utente/Desktop/Tesi/Firmware_Software/DAVE project/S2GLP_Pulsed_Doppler/Libraries/XMCLib/inc\xmc_dac.h ****   XMC_ASSERT("XMC_DAC_SimultaneousWrite: dac parameter not valid\n", XMC_DAC_IS_DAC_VALID(dac));
 483:C:/Users/Utente/Desktop/Tesi/Firmware_Software/DAVE project/S2GLP_Pulsed_Doppler/Libraries/XMCLib/inc\xmc_dac.h ****   
 484:C:/Users/Utente/Desktop/Tesi/Firmware_Software/DAVE project/S2GLP_Pulsed_Doppler/Libraries/XMCLib/inc\xmc_dac.h ****   dac->DAC01DATA = (data0 << DAC_DAC01DATA_DATA0_Pos) | (data1 << DAC_DAC01DATA_DATA1_Pos);
 485:C:/Users/Utente/Desktop/Tesi/Firmware_Software/DAVE project/S2GLP_Pulsed_Doppler/Libraries/XMCLib/inc\xmc_dac.h **** }
 486:C:/Users/Utente/Desktop/Tesi/Firmware_Software/DAVE project/S2GLP_Pulsed_Doppler/Libraries/XMCLib/inc\xmc_dac.h **** 
 487:C:/Users/Utente/Desktop/Tesi/Firmware_Software/DAVE project/S2GLP_Pulsed_Doppler/Libraries/XMCLib/inc\xmc_dac.h **** /**
 488:C:/Users/Utente/Desktop/Tesi/Firmware_Software/DAVE project/S2GLP_Pulsed_Doppler/Libraries/XMCLib/inc\xmc_dac.h ****  * @param dac Pointer to an instance of DAC module
 489:C:/Users/Utente/Desktop/Tesi/Firmware_Software/DAVE project/S2GLP_Pulsed_Doppler/Libraries/XMCLib/inc\xmc_dac.h ****  * @param channel DAC channel number
 490:C:/Users/Utente/Desktop/Tesi/Firmware_Software/DAVE project/S2GLP_Pulsed_Doppler/Libraries/XMCLib/inc\xmc_dac.h ****  * @param config Pointer to the DAC channel configuration structure
 491:C:/Users/Utente/Desktop/Tesi/Firmware_Software/DAVE project/S2GLP_Pulsed_Doppler/Libraries/XMCLib/inc\xmc_dac.h ****  *
 492:C:/Users/Utente/Desktop/Tesi/Firmware_Software/DAVE project/S2GLP_Pulsed_Doppler/Libraries/XMCLib/inc\xmc_dac.h ****  * @return None
 493:C:/Users/Utente/Desktop/Tesi/Firmware_Software/DAVE project/S2GLP_Pulsed_Doppler/Libraries/XMCLib/inc\xmc_dac.h ****  *
 494:C:/Users/Utente/Desktop/Tesi/Firmware_Software/DAVE project/S2GLP_Pulsed_Doppler/Libraries/XMCLib/inc\xmc_dac.h ****  * \par<b>Description:</b><br>
 495:C:/Users/Utente/Desktop/Tesi/Firmware_Software/DAVE project/S2GLP_Pulsed_Doppler/Libraries/XMCLib/inc\xmc_dac.h ****  * Initialises and configures the DAC \e channel with the configuration date pointed by \e config.
 496:C:/Users/Utente/Desktop/Tesi/Firmware_Software/DAVE project/S2GLP_Pulsed_Doppler/Libraries/XMCLib/inc\xmc_dac.h ****  *
 497:C:/Users/Utente/Desktop/Tesi/Firmware_Software/DAVE project/S2GLP_Pulsed_Doppler/Libraries/XMCLib/inc\xmc_dac.h ****  * \par
 498:C:/Users/Utente/Desktop/Tesi/Firmware_Software/DAVE project/S2GLP_Pulsed_Doppler/Libraries/XMCLib/inc\xmc_dac.h ****  * DAC channel is initialised by configuring the registers \a DAC0CFG0 and \a DAC0CFG1 registers (f
 499:C:/Users/Utente/Desktop/Tesi/Firmware_Software/DAVE project/S2GLP_Pulsed_Doppler/Libraries/XMCLib/inc\xmc_dac.h ****  * It enables the channel output by calling XMC_DAC_CH_EnableOutput().
 500:C:/Users/Utente/Desktop/Tesi/Firmware_Software/DAVE project/S2GLP_Pulsed_Doppler/Libraries/XMCLib/inc\xmc_dac.h ****  *
 501:C:/Users/Utente/Desktop/Tesi/Firmware_Software/DAVE project/S2GLP_Pulsed_Doppler/Libraries/XMCLib/inc\xmc_dac.h ****  */
 502:C:/Users/Utente/Desktop/Tesi/Firmware_Software/DAVE project/S2GLP_Pulsed_Doppler/Libraries/XMCLib/inc\xmc_dac.h **** void XMC_DAC_CH_Init(XMC_DAC_t *const dac, const uint8_t channel, const XMC_DAC_CH_CONFIG_t *const 
 503:C:/Users/Utente/Desktop/Tesi/Firmware_Software/DAVE project/S2GLP_Pulsed_Doppler/Libraries/XMCLib/inc\xmc_dac.h **** 
 504:C:/Users/Utente/Desktop/Tesi/Firmware_Software/DAVE project/S2GLP_Pulsed_Doppler/Libraries/XMCLib/inc\xmc_dac.h **** /**
 505:C:/Users/Utente/Desktop/Tesi/Firmware_Software/DAVE project/S2GLP_Pulsed_Doppler/Libraries/XMCLib/inc\xmc_dac.h ****  * @param dac Pointer to an instance of DAC module
 506:C:/Users/Utente/Desktop/Tesi/Firmware_Software/DAVE project/S2GLP_Pulsed_Doppler/Libraries/XMCLib/inc\xmc_dac.h ****  * @param channel DAC channel number
 507:C:/Users/Utente/Desktop/Tesi/Firmware_Software/DAVE project/S2GLP_Pulsed_Doppler/Libraries/XMCLib/inc\xmc_dac.h ****  *
 508:C:/Users/Utente/Desktop/Tesi/Firmware_Software/DAVE project/S2GLP_Pulsed_Doppler/Libraries/XMCLib/inc\xmc_dac.h ****  * @return None
 509:C:/Users/Utente/Desktop/Tesi/Firmware_Software/DAVE project/S2GLP_Pulsed_Doppler/Libraries/XMCLib/inc\xmc_dac.h ****  *
 510:C:/Users/Utente/Desktop/Tesi/Firmware_Software/DAVE project/S2GLP_Pulsed_Doppler/Libraries/XMCLib/inc\xmc_dac.h ****  * \par<b>Description:</b><br>
 511:C:/Users/Utente/Desktop/Tesi/Firmware_Software/DAVE project/S2GLP_Pulsed_Doppler/Libraries/XMCLib/inc\xmc_dac.h ****  * Channel \a channel output is enabled by setting the \a ANAEN bit of \a DAC0CFG1 register (for ch
 512:C:/Users/Utente/Desktop/Tesi/Firmware_Software/DAVE project/S2GLP_Pulsed_Doppler/Libraries/XMCLib/inc\xmc_dac.h ****  *
 513:C:/Users/Utente/Desktop/Tesi/Firmware_Software/DAVE project/S2GLP_Pulsed_Doppler/Libraries/XMCLib/inc\xmc_dac.h ****  * \par<b>Note:</b><BR>
 514:C:/Users/Utente/Desktop/Tesi/Firmware_Software/DAVE project/S2GLP_Pulsed_Doppler/Libraries/XMCLib/inc\xmc_dac.h ****  * \a tSTARTUP time for DAC analog output starts after the \a ANAEN bit is set to one.
 515:C:/Users/Utente/Desktop/Tesi/Firmware_Software/DAVE project/S2GLP_Pulsed_Doppler/Libraries/XMCLib/inc\xmc_dac.h ****  * After the expiry of the startup time the default value is driven to DAC output and a new value c
 516:C:/Users/Utente/Desktop/Tesi/Firmware_Software/DAVE project/S2GLP_Pulsed_Doppler/Libraries/XMCLib/inc\xmc_dac.h ****  *
 517:C:/Users/Utente/Desktop/Tesi/Firmware_Software/DAVE project/S2GLP_Pulsed_Doppler/Libraries/XMCLib/inc\xmc_dac.h ****  * \par<b>Related APIs:</b><BR>
 518:C:/Users/Utente/Desktop/Tesi/Firmware_Software/DAVE project/S2GLP_Pulsed_Doppler/Libraries/XMCLib/inc\xmc_dac.h ****  * XMC_DAC_CH_DisableOutput(), XMC_DAC_CH_IsOutputEnabled()\n\n\n
 519:C:/Users/Utente/Desktop/Tesi/Firmware_Software/DAVE project/S2GLP_Pulsed_Doppler/Libraries/XMCLib/inc\xmc_dac.h ****  *
 520:C:/Users/Utente/Desktop/Tesi/Firmware_Software/DAVE project/S2GLP_Pulsed_Doppler/Libraries/XMCLib/inc\xmc_dac.h ****  */
 521:C:/Users/Utente/Desktop/Tesi/Firmware_Software/DAVE project/S2GLP_Pulsed_Doppler/Libraries/XMCLib/inc\xmc_dac.h **** __STATIC_INLINE void XMC_DAC_CH_EnableOutput(XMC_DAC_t *const dac, const uint8_t channel)
 522:C:/Users/Utente/Desktop/Tesi/Firmware_Software/DAVE project/S2GLP_Pulsed_Doppler/Libraries/XMCLib/inc\xmc_dac.h **** {
 523:C:/Users/Utente/Desktop/Tesi/Firmware_Software/DAVE project/S2GLP_Pulsed_Doppler/Libraries/XMCLib/inc\xmc_dac.h ****   XMC_ASSERT("XMC_DAC_CH_EnableOutput: dac parameter not valid\n", XMC_DAC_IS_DAC_VALID(dac));
 524:C:/Users/Utente/Desktop/Tesi/Firmware_Software/DAVE project/S2GLP_Pulsed_Doppler/Libraries/XMCLib/inc\xmc_dac.h ****   XMC_ASSERT("XMC_DAC_CH_EnableOutput: channel parameter not valid\n", XMC_DAC_IS_CHANNEL_VALID(cha
 525:C:/Users/Utente/Desktop/Tesi/Firmware_Software/DAVE project/S2GLP_Pulsed_Doppler/Libraries/XMCLib/inc\xmc_dac.h ****   
 526:C:/Users/Utente/Desktop/Tesi/Firmware_Software/DAVE project/S2GLP_Pulsed_Doppler/Libraries/XMCLib/inc\xmc_dac.h ****   dac->DACCFG[channel].high |= DAC_DAC0CFG1_ANAEN_Msk;
 198              	 .loc 2 526 0
 199 0024 8368     	 ldr r3,[r0,#8]
 200 0026 43F08073 	 orr r3,r3,#16777216
 201 002a 8360     	 str r3,[r0,#8]
 202              	.LVL18:
 203              	.L13:
 204 002c 70BD     	 pop {r4,r5,r6,pc}
 205              	.LVL19:
 206              	.L18:
 207 002e 00BF     	 .align 2
 208              	.L17:
 209 0030 20000010 	 .word 268435488
 210              	.LBE53:
 211              	.LBE52:
 212              	 .cfi_endproc
 213              	.LFE193:
 215              	 .section .text.XMC_DAC_CH_SetFrequency,"ax",%progbits
 216              	 .align 2
 217              	 .global XMC_DAC_CH_SetFrequency
 218              	 .thumb
 219              	 .thumb_func
 221              	XMC_DAC_CH_SetFrequency:
 222              	.LFB194:
 126:../Libraries/XMCLib/src/xmc_dac.c ****   {
 127:../Libraries/XMCLib/src/xmc_dac.c ****     XMC_DAC_CH_EnableOutput(dac, channel);
 128:../Libraries/XMCLib/src/xmc_dac.c ****   }
 129:../Libraries/XMCLib/src/xmc_dac.c **** }
 130:../Libraries/XMCLib/src/xmc_dac.c **** 
 131:../Libraries/XMCLib/src/xmc_dac.c **** /* API to set the waveform frequency except in Ramp and Pattern generation mode. */
 132:../Libraries/XMCLib/src/xmc_dac.c **** XMC_DAC_CH_STATUS_t XMC_DAC_CH_SetFrequency(XMC_DAC_t *const dac,
 133:../Libraries/XMCLib/src/xmc_dac.c ****                                             const uint8_t channel,
 134:../Libraries/XMCLib/src/xmc_dac.c ****                                             const uint32_t frequency)
 135:../Libraries/XMCLib/src/xmc_dac.c **** {
 223              	 .loc 1 135 0
 224              	 .cfi_startproc
 225              	 
 226              	 
 227              	.LVL20:
 228 0000 70B5     	 push {r4,r5,r6,lr}
 229              	.LCFI6:
 230              	 .cfi_def_cfa_offset 16
 231              	 .cfi_offset 4,-16
 232              	 .cfi_offset 5,-12
 233              	 .cfi_offset 6,-8
 234              	 .cfi_offset 14,-4
 235              	 .loc 1 135 0
 236 0002 1446     	 mov r4,r2
 237 0004 0546     	 mov r5,r0
 238 0006 0E46     	 mov r6,r1
 136:../Libraries/XMCLib/src/xmc_dac.c ****   uint32_t divider;
 137:../Libraries/XMCLib/src/xmc_dac.c ****   XMC_DAC_CH_STATUS_t status;
 138:../Libraries/XMCLib/src/xmc_dac.c **** 
 139:../Libraries/XMCLib/src/xmc_dac.c ****   XMC_ASSERT("XMC_DAC_CH_SetFrequency: frequency must be greater than zero", frequency > 0U);
 140:../Libraries/XMCLib/src/xmc_dac.c **** 
 141:../Libraries/XMCLib/src/xmc_dac.c ****   divider = XMC_SCU_CLOCK_GetPeripheralClockFrequency() / frequency;
 239              	 .loc 1 141 0
 240 0008 FFF7FEFF 	 bl XMC_SCU_CLOCK_GetPeripheralClockFrequency
 241              	.LVL21:
 242 000c B0FBF4F2 	 udiv r2,r0,r4
 243              	.LVL22:
 142:../Libraries/XMCLib/src/xmc_dac.c **** 
 143:../Libraries/XMCLib/src/xmc_dac.c ****   if (divider < XMC_DAC_MIN_FREQ_DIVIDER)
 244              	 .loc 1 143 0
 245 0010 0F2A     	 cmp r2,#15
 246 0012 01D8     	 bhi .L24
 144:../Libraries/XMCLib/src/xmc_dac.c ****   {
 145:../Libraries/XMCLib/src/xmc_dac.c ****     status = XMC_DAC_CH_STATUS_ERROR_FREQ2HIGH;
 247              	 .loc 1 145 0
 248 0014 0420     	 movs r0,#4
 249 0016 70BD     	 pop {r4,r5,r6,pc}
 250              	.LVL23:
 251              	.L24:
 146:../Libraries/XMCLib/src/xmc_dac.c ****   }
 147:../Libraries/XMCLib/src/xmc_dac.c ****   else if (divider >= XMC_DAC_MAX_FREQ_DIVIDER)
 252              	 .loc 1 147 0
 253 0018 B2F5801F 	 cmp r2,#1048576
 254 001c 01D3     	 bcc .L25
 148:../Libraries/XMCLib/src/xmc_dac.c ****   {
 149:../Libraries/XMCLib/src/xmc_dac.c ****     status = XMC_DAC_CH_STATUS_ERROR_FREQ2LOW;
 255              	 .loc 1 149 0
 256 001e 0320     	 movs r0,#3
 257              	.LVL24:
 150:../Libraries/XMCLib/src/xmc_dac.c ****   }
 151:../Libraries/XMCLib/src/xmc_dac.c ****   else {
 152:../Libraries/XMCLib/src/xmc_dac.c ****     dac->DACCFG[channel].low = (dac->DACCFG[channel].low & (uint32_t)(~DAC_DAC0CFG0_FREQ_Msk)) |
 153:../Libraries/XMCLib/src/xmc_dac.c ****                                (divider << DAC_DAC0CFG0_FREQ_Pos);
 154:../Libraries/XMCLib/src/xmc_dac.c ****     status = XMC_DAC_CH_STATUS_OK;
 155:../Libraries/XMCLib/src/xmc_dac.c ****   }
 156:../Libraries/XMCLib/src/xmc_dac.c **** 
 157:../Libraries/XMCLib/src/xmc_dac.c ****   return status;
 158:../Libraries/XMCLib/src/xmc_dac.c **** }
 258              	 .loc 1 158 0
 259 0020 70BD     	 pop {r4,r5,r6,pc}
 260              	.LVL25:
 261              	.L25:
 262 0022 05EBC605 	 add r5,r5,r6,lsl#3
 263              	.LVL26:
 154:../Libraries/XMCLib/src/xmc_dac.c ****   }
 264              	 .loc 1 154 0
 265 0026 0020     	 movs r0,#0
 152:../Libraries/XMCLib/src/xmc_dac.c ****                                (divider << DAC_DAC0CFG0_FREQ_Pos);
 266              	 .loc 1 152 0
 267 0028 6B68     	 ldr r3,[r5,#4]
 268 002a 1B0D     	 lsrs r3,r3,#20
 269 002c 1B05     	 lsls r3,r3,#20
 270 002e 1A43     	 orrs r2,r2,r3
 271              	.LVL27:
 272 0030 6A60     	 str r2,[r5,#4]
 273              	.LVL28:
 274 0032 70BD     	 pop {r4,r5,r6,pc}
 275              	 .cfi_endproc
 276              	.LFE194:
 278              	 .section .text.XMC_DAC_CH_SetRampFrequency,"ax",%progbits
 279              	 .align 2
 280              	 .global XMC_DAC_CH_SetRampFrequency
 281              	 .thumb
 282              	 .thumb_func
 284              	XMC_DAC_CH_SetRampFrequency:
 285              	.LFB195:
 159:../Libraries/XMCLib/src/xmc_dac.c **** 
 160:../Libraries/XMCLib/src/xmc_dac.c **** /* API to set the waveform frequency in Ramp Mode. */
 161:../Libraries/XMCLib/src/xmc_dac.c **** XMC_DAC_CH_STATUS_t XMC_DAC_CH_SetRampFrequency(XMC_DAC_t *const dac,
 162:../Libraries/XMCLib/src/xmc_dac.c ****                                                 const uint8_t channel,
 163:../Libraries/XMCLib/src/xmc_dac.c ****                                                 const uint32_t frequency)
 164:../Libraries/XMCLib/src/xmc_dac.c **** {
 286              	 .loc 1 164 0
 287              	 .cfi_startproc
 288              	 
 289              	 
 290              	.LVL29:
 165:../Libraries/XMCLib/src/xmc_dac.c ****   uint32_t stop;
 166:../Libraries/XMCLib/src/xmc_dac.c ****   uint32_t start;
 167:../Libraries/XMCLib/src/xmc_dac.c **** 
 168:../Libraries/XMCLib/src/xmc_dac.c ****   start = dac->DACDATA[channel];
 291              	 .loc 1 168 0
 292 0000 0B1D     	 adds r3,r1,#4
 164:../Libraries/XMCLib/src/xmc_dac.c ****   uint32_t stop;
 293              	 .loc 1 164 0
 294 0002 70B5     	 push {r4,r5,r6,lr}
 295              	.LCFI7:
 296              	 .cfi_def_cfa_offset 16
 297              	 .cfi_offset 4,-16
 298              	 .cfi_offset 5,-12
 299              	 .cfi_offset 6,-8
 300              	 .cfi_offset 14,-4
 301              	 .loc 1 168 0
 302 0004 00EB8303 	 add r3,r0,r3,lsl#2
 164:../Libraries/XMCLib/src/xmc_dac.c ****   uint32_t stop;
 303              	 .loc 1 164 0
 304 0008 0646     	 mov r6,r0
 169:../Libraries/XMCLib/src/xmc_dac.c ****   stop = (dac->DAC01DATA >> (channel * DAC_DAC01DATA_DATA1_Pos)) & (uint32_t)DAC_DAC01DATA_DATA0_Ms
 305              	 .loc 1 169 0
 306 000a 0DB2     	 sxth r5,r1
 168:../Libraries/XMCLib/src/xmc_dac.c ****   stop = (dac->DAC01DATA >> (channel * DAC_DAC01DATA_DATA1_Pos)) & (uint32_t)DAC_DAC01DATA_DATA0_Ms
 307              	 .loc 1 168 0
 308 000c 5868     	 ldr r0,[r3,#4]
 309              	.LVL30:
 310              	 .loc 1 169 0
 311 000e F469     	 ldr r4,[r6,#28]
 312              	.LVL31:
 313 0010 2B01     	 lsls r3,r5,#4
 314 0012 DC40     	 lsrs r4,r4,r3
 315              	.LVL32:
 316 0014 C4F30B04 	 ubfx r4,r4,#0,#12
 170:../Libraries/XMCLib/src/xmc_dac.c **** 
 171:../Libraries/XMCLib/src/xmc_dac.c ****   return XMC_DAC_CH_SetFrequency(dac, channel, frequency * ((stop - start) + 1U));
 317              	 .loc 1 171 0
 318 0018 241A     	 subs r4,r4,r0
 319 001a 04FB0224 	 mla r4,r4,r2,r2
 320              	.LVL33:
 321              	.LBB56:
 322              	.LBB57:
 141:../Libraries/XMCLib/src/xmc_dac.c **** 
 323              	 .loc 1 141 0
 324 001e FFF7FEFF 	 bl XMC_SCU_CLOCK_GetPeripheralClockFrequency
 325              	.LVL34:
 326 0022 B0FBF4F2 	 udiv r2,r0,r4
 327              	.LVL35:
 143:../Libraries/XMCLib/src/xmc_dac.c ****   {
 328              	 .loc 1 143 0
 329 0026 0F2A     	 cmp r2,#15
 330 0028 01D8     	 bhi .L31
 145:../Libraries/XMCLib/src/xmc_dac.c ****   }
 331              	 .loc 1 145 0
 332 002a 0420     	 movs r0,#4
 333 002c 70BD     	 pop {r4,r5,r6,pc}
 334              	.LVL36:
 335              	.L31:
 147:../Libraries/XMCLib/src/xmc_dac.c ****   {
 336              	 .loc 1 147 0
 337 002e B2F5801F 	 cmp r2,#1048576
 338 0032 01D3     	 bcc .L32
 149:../Libraries/XMCLib/src/xmc_dac.c ****   }
 339              	 .loc 1 149 0
 340 0034 0320     	 movs r0,#3
 341              	.LVL37:
 342              	.LBE57:
 343              	.LBE56:
 172:../Libraries/XMCLib/src/xmc_dac.c **** }
 344              	 .loc 1 172 0
 345 0036 70BD     	 pop {r4,r5,r6,pc}
 346              	.LVL38:
 347              	.L32:
 348 0038 06EBC501 	 add r1,r6,r5,lsl#3
 349              	.LBB59:
 350              	.LBB58:
 154:../Libraries/XMCLib/src/xmc_dac.c ****   }
 351              	 .loc 1 154 0
 352 003c 0020     	 movs r0,#0
 152:../Libraries/XMCLib/src/xmc_dac.c ****                                (divider << DAC_DAC0CFG0_FREQ_Pos);
 353              	 .loc 1 152 0
 354 003e 4B68     	 ldr r3,[r1,#4]
 355 0040 1B0D     	 lsrs r3,r3,#20
 356 0042 1B05     	 lsls r3,r3,#20
 357 0044 1A43     	 orrs r2,r2,r3
 358              	.LVL39:
 359 0046 4A60     	 str r2,[r1,#4]
 360              	.LVL40:
 361 0048 70BD     	 pop {r4,r5,r6,pc}
 362              	.LBE58:
 363              	.LBE59:
 364              	 .cfi_endproc
 365              	.LFE195:
 367 004a 00BF     	 .section .text.XMC_DAC_CH_StartSingleValueMode,"ax",%progbits
 368              	 .align 2
 369              	 .global XMC_DAC_CH_StartSingleValueMode
 370              	 .thumb
 371              	 .thumb_func
 373              	XMC_DAC_CH_StartSingleValueMode:
 374              	.LFB196:
 173:../Libraries/XMCLib/src/xmc_dac.c **** 
 174:../Libraries/XMCLib/src/xmc_dac.c **** /* API to start the operation in Single Value Mode. */
 175:../Libraries/XMCLib/src/xmc_dac.c **** XMC_DAC_CH_STATUS_t XMC_DAC_CH_StartSingleValueMode(XMC_DAC_t *const dac, const uint8_t channel)
 176:../Libraries/XMCLib/src/xmc_dac.c **** {
 375              	 .loc 1 176 0
 376              	 .cfi_startproc
 377              	 
 378              	 
 379              	 
 380              	.LVL41:
 381 0000 00EBC101 	 add r1,r0,r1,lsl#3
 382              	.LVL42:
 177:../Libraries/XMCLib/src/xmc_dac.c ****   XMC_ASSERT("XMC_DAC_CH_StartSingleValueMode: dac parameter not valid\n", XMC_DAC_IS_DAC_VALID(dac
 178:../Libraries/XMCLib/src/xmc_dac.c ****   XMC_ASSERT("XMC_DAC_CH_StartSingleValueMode: channel parameter not valid\n", XMC_DAC_IS_CHANNEL_V
 179:../Libraries/XMCLib/src/xmc_dac.c ****   XMC_ASSERT("XMC_DAC_CH_StartSingleValueMode: dac module not enabled\n", XMC_DAC_IsEnabled(dac));
 180:../Libraries/XMCLib/src/xmc_dac.c **** 
 181:../Libraries/XMCLib/src/xmc_dac.c ****   XMC_DAC_CH_SetMode(dac, channel, XMC_DAC_CH_MODE_SINGLE);
 182:../Libraries/XMCLib/src/xmc_dac.c **** 
 183:../Libraries/XMCLib/src/xmc_dac.c ****   return XMC_DAC_CH_STATUS_OK;
 184:../Libraries/XMCLib/src/xmc_dac.c **** }
 383              	 .loc 1 184 0
 384 0004 0020     	 movs r0,#0
 385              	.LVL43:
 386              	.LBB60:
 387              	.LBB61:
 527:C:/Users/Utente/Desktop/Tesi/Firmware_Software/DAVE project/S2GLP_Pulsed_Doppler/Libraries/XMCLib/inc\xmc_dac.h **** }
 528:C:/Users/Utente/Desktop/Tesi/Firmware_Software/DAVE project/S2GLP_Pulsed_Doppler/Libraries/XMCLib/inc\xmc_dac.h **** 
 529:C:/Users/Utente/Desktop/Tesi/Firmware_Software/DAVE project/S2GLP_Pulsed_Doppler/Libraries/XMCLib/inc\xmc_dac.h **** /**
 530:C:/Users/Utente/Desktop/Tesi/Firmware_Software/DAVE project/S2GLP_Pulsed_Doppler/Libraries/XMCLib/inc\xmc_dac.h ****  * @param dac Pointer to an instance of DAC module
 531:C:/Users/Utente/Desktop/Tesi/Firmware_Software/DAVE project/S2GLP_Pulsed_Doppler/Libraries/XMCLib/inc\xmc_dac.h ****  * @param channel DAC channel number
 532:C:/Users/Utente/Desktop/Tesi/Firmware_Software/DAVE project/S2GLP_Pulsed_Doppler/Libraries/XMCLib/inc\xmc_dac.h ****  *
 533:C:/Users/Utente/Desktop/Tesi/Firmware_Software/DAVE project/S2GLP_Pulsed_Doppler/Libraries/XMCLib/inc\xmc_dac.h ****  * @return None
 534:C:/Users/Utente/Desktop/Tesi/Firmware_Software/DAVE project/S2GLP_Pulsed_Doppler/Libraries/XMCLib/inc\xmc_dac.h ****  *
 535:C:/Users/Utente/Desktop/Tesi/Firmware_Software/DAVE project/S2GLP_Pulsed_Doppler/Libraries/XMCLib/inc\xmc_dac.h ****  * \par<b>Description:</b><br>
 536:C:/Users/Utente/Desktop/Tesi/Firmware_Software/DAVE project/S2GLP_Pulsed_Doppler/Libraries/XMCLib/inc\xmc_dac.h ****  * Channel \a channel output is disabled by clearing the \a ANAEN bit of \a DAC0CFG1 register (for 
 537:C:/Users/Utente/Desktop/Tesi/Firmware_Software/DAVE project/S2GLP_Pulsed_Doppler/Libraries/XMCLib/inc\xmc_dac.h ****  *
 538:C:/Users/Utente/Desktop/Tesi/Firmware_Software/DAVE project/S2GLP_Pulsed_Doppler/Libraries/XMCLib/inc\xmc_dac.h ****  * \par
 539:C:/Users/Utente/Desktop/Tesi/Firmware_Software/DAVE project/S2GLP_Pulsed_Doppler/Libraries/XMCLib/inc\xmc_dac.h ****  * A call to this API stops driving the converted digital input to its output.
 540:C:/Users/Utente/Desktop/Tesi/Firmware_Software/DAVE project/S2GLP_Pulsed_Doppler/Libraries/XMCLib/inc\xmc_dac.h ****  *
 541:C:/Users/Utente/Desktop/Tesi/Firmware_Software/DAVE project/S2GLP_Pulsed_Doppler/Libraries/XMCLib/inc\xmc_dac.h ****  * \par<b>Related APIs:</b><BR>
 542:C:/Users/Utente/Desktop/Tesi/Firmware_Software/DAVE project/S2GLP_Pulsed_Doppler/Libraries/XMCLib/inc\xmc_dac.h ****  * XMC_DAC_CH_EnableOutput(), XMC_DAC_CH_IsOutputEnabled()\n\n\n
 543:C:/Users/Utente/Desktop/Tesi/Firmware_Software/DAVE project/S2GLP_Pulsed_Doppler/Libraries/XMCLib/inc\xmc_dac.h ****  *
 544:C:/Users/Utente/Desktop/Tesi/Firmware_Software/DAVE project/S2GLP_Pulsed_Doppler/Libraries/XMCLib/inc\xmc_dac.h ****  */
 545:C:/Users/Utente/Desktop/Tesi/Firmware_Software/DAVE project/S2GLP_Pulsed_Doppler/Libraries/XMCLib/inc\xmc_dac.h **** __STATIC_INLINE void XMC_DAC_CH_DisableOutput(XMC_DAC_t *const dac, const uint8_t channel)
 546:C:/Users/Utente/Desktop/Tesi/Firmware_Software/DAVE project/S2GLP_Pulsed_Doppler/Libraries/XMCLib/inc\xmc_dac.h **** {
 547:C:/Users/Utente/Desktop/Tesi/Firmware_Software/DAVE project/S2GLP_Pulsed_Doppler/Libraries/XMCLib/inc\xmc_dac.h ****   XMC_ASSERT("XMC_DAC_CH_DisableOutput: dac parameter not valid\n", XMC_DAC_IS_DAC_VALID(dac));
 548:C:/Users/Utente/Desktop/Tesi/Firmware_Software/DAVE project/S2GLP_Pulsed_Doppler/Libraries/XMCLib/inc\xmc_dac.h ****   XMC_ASSERT("XMC_DAC_CH_DisableOutput: channel parameter not valid\n", XMC_DAC_IS_CHANNEL_VALID(ch
 549:C:/Users/Utente/Desktop/Tesi/Firmware_Software/DAVE project/S2GLP_Pulsed_Doppler/Libraries/XMCLib/inc\xmc_dac.h ****   
 550:C:/Users/Utente/Desktop/Tesi/Firmware_Software/DAVE project/S2GLP_Pulsed_Doppler/Libraries/XMCLib/inc\xmc_dac.h ****   dac->DACCFG[channel].high &= ~DAC_DAC0CFG1_ANAEN_Msk;
 551:C:/Users/Utente/Desktop/Tesi/Firmware_Software/DAVE project/S2GLP_Pulsed_Doppler/Libraries/XMCLib/inc\xmc_dac.h **** }
 552:C:/Users/Utente/Desktop/Tesi/Firmware_Software/DAVE project/S2GLP_Pulsed_Doppler/Libraries/XMCLib/inc\xmc_dac.h **** 
 553:C:/Users/Utente/Desktop/Tesi/Firmware_Software/DAVE project/S2GLP_Pulsed_Doppler/Libraries/XMCLib/inc\xmc_dac.h **** /**
 554:C:/Users/Utente/Desktop/Tesi/Firmware_Software/DAVE project/S2GLP_Pulsed_Doppler/Libraries/XMCLib/inc\xmc_dac.h ****  * @param dac Pointer to an instance of DAC module
 555:C:/Users/Utente/Desktop/Tesi/Firmware_Software/DAVE project/S2GLP_Pulsed_Doppler/Libraries/XMCLib/inc\xmc_dac.h ****  * @param channel DAC channel number
 556:C:/Users/Utente/Desktop/Tesi/Firmware_Software/DAVE project/S2GLP_Pulsed_Doppler/Libraries/XMCLib/inc\xmc_dac.h ****  *
 557:C:/Users/Utente/Desktop/Tesi/Firmware_Software/DAVE project/S2GLP_Pulsed_Doppler/Libraries/XMCLib/inc\xmc_dac.h ****  * @return bool <BR>
 558:C:/Users/Utente/Desktop/Tesi/Firmware_Software/DAVE project/S2GLP_Pulsed_Doppler/Libraries/XMCLib/inc\xmc_dac.h ****  * true  - if analog output is enabled <BR>
 559:C:/Users/Utente/Desktop/Tesi/Firmware_Software/DAVE project/S2GLP_Pulsed_Doppler/Libraries/XMCLib/inc\xmc_dac.h ****  * false - if analog output is disabled <BR>
 560:C:/Users/Utente/Desktop/Tesi/Firmware_Software/DAVE project/S2GLP_Pulsed_Doppler/Libraries/XMCLib/inc\xmc_dac.h ****  *
 561:C:/Users/Utente/Desktop/Tesi/Firmware_Software/DAVE project/S2GLP_Pulsed_Doppler/Libraries/XMCLib/inc\xmc_dac.h ****  * \par<b>Description:</b><br>
 562:C:/Users/Utente/Desktop/Tesi/Firmware_Software/DAVE project/S2GLP_Pulsed_Doppler/Libraries/XMCLib/inc\xmc_dac.h ****  * Returns the status of DAC analog output.
 563:C:/Users/Utente/Desktop/Tesi/Firmware_Software/DAVE project/S2GLP_Pulsed_Doppler/Libraries/XMCLib/inc\xmc_dac.h ****  *
 564:C:/Users/Utente/Desktop/Tesi/Firmware_Software/DAVE project/S2GLP_Pulsed_Doppler/Libraries/XMCLib/inc\xmc_dac.h ****  * \par
 565:C:/Users/Utente/Desktop/Tesi/Firmware_Software/DAVE project/S2GLP_Pulsed_Doppler/Libraries/XMCLib/inc\xmc_dac.h ****  * Channel \a channel output enabled or disabled is determined by reading the \a ANAEN bit of \a DA
 566:C:/Users/Utente/Desktop/Tesi/Firmware_Software/DAVE project/S2GLP_Pulsed_Doppler/Libraries/XMCLib/inc\xmc_dac.h ****  *
 567:C:/Users/Utente/Desktop/Tesi/Firmware_Software/DAVE project/S2GLP_Pulsed_Doppler/Libraries/XMCLib/inc\xmc_dac.h ****  * \par<b>Related APIs:</b><BR>
 568:C:/Users/Utente/Desktop/Tesi/Firmware_Software/DAVE project/S2GLP_Pulsed_Doppler/Libraries/XMCLib/inc\xmc_dac.h ****  * XMC_DAC_CH_EnableOutput(), XMC_DAC_CH_DisableOutput()\n\n\n
 569:C:/Users/Utente/Desktop/Tesi/Firmware_Software/DAVE project/S2GLP_Pulsed_Doppler/Libraries/XMCLib/inc\xmc_dac.h ****  *
 570:C:/Users/Utente/Desktop/Tesi/Firmware_Software/DAVE project/S2GLP_Pulsed_Doppler/Libraries/XMCLib/inc\xmc_dac.h ****  */
 571:C:/Users/Utente/Desktop/Tesi/Firmware_Software/DAVE project/S2GLP_Pulsed_Doppler/Libraries/XMCLib/inc\xmc_dac.h **** __STATIC_INLINE bool XMC_DAC_CH_IsOutputEnabled(const XMC_DAC_t *const dac, const uint8_t channel)
 572:C:/Users/Utente/Desktop/Tesi/Firmware_Software/DAVE project/S2GLP_Pulsed_Doppler/Libraries/XMCLib/inc\xmc_dac.h **** {
 573:C:/Users/Utente/Desktop/Tesi/Firmware_Software/DAVE project/S2GLP_Pulsed_Doppler/Libraries/XMCLib/inc\xmc_dac.h ****   XMC_ASSERT("XMC_DAC_CH_IsOutputEnabled: dac parameter not valid\n", XMC_DAC_IS_DAC_VALID(dac));
 574:C:/Users/Utente/Desktop/Tesi/Firmware_Software/DAVE project/S2GLP_Pulsed_Doppler/Libraries/XMCLib/inc\xmc_dac.h ****   XMC_ASSERT("XMC_DAC_CH_IsOutputEnabled: channel parameter not valid\n", XMC_DAC_IS_CHANNEL_VALID(
 575:C:/Users/Utente/Desktop/Tesi/Firmware_Software/DAVE project/S2GLP_Pulsed_Doppler/Libraries/XMCLib/inc\xmc_dac.h ****   
 576:C:/Users/Utente/Desktop/Tesi/Firmware_Software/DAVE project/S2GLP_Pulsed_Doppler/Libraries/XMCLib/inc\xmc_dac.h ****   return (bool)(dac->DACCFG[channel].high & DAC_DAC0CFG1_ANAEN_Msk);
 577:C:/Users/Utente/Desktop/Tesi/Firmware_Software/DAVE project/S2GLP_Pulsed_Doppler/Libraries/XMCLib/inc\xmc_dac.h **** }
 578:C:/Users/Utente/Desktop/Tesi/Firmware_Software/DAVE project/S2GLP_Pulsed_Doppler/Libraries/XMCLib/inc\xmc_dac.h **** 
 579:C:/Users/Utente/Desktop/Tesi/Firmware_Software/DAVE project/S2GLP_Pulsed_Doppler/Libraries/XMCLib/inc\xmc_dac.h **** /**
 580:C:/Users/Utente/Desktop/Tesi/Firmware_Software/DAVE project/S2GLP_Pulsed_Doppler/Libraries/XMCLib/inc\xmc_dac.h ****  * @param dac Pointer to an instance of DAC module
 581:C:/Users/Utente/Desktop/Tesi/Firmware_Software/DAVE project/S2GLP_Pulsed_Doppler/Libraries/XMCLib/inc\xmc_dac.h ****  * @param channel DAC channel number
 582:C:/Users/Utente/Desktop/Tesi/Firmware_Software/DAVE project/S2GLP_Pulsed_Doppler/Libraries/XMCLib/inc\xmc_dac.h ****  * @param data Data to be written  [0-4095]
 583:C:/Users/Utente/Desktop/Tesi/Firmware_Software/DAVE project/S2GLP_Pulsed_Doppler/Libraries/XMCLib/inc\xmc_dac.h ****  *
 584:C:/Users/Utente/Desktop/Tesi/Firmware_Software/DAVE project/S2GLP_Pulsed_Doppler/Libraries/XMCLib/inc\xmc_dac.h ****  * @return None
 585:C:/Users/Utente/Desktop/Tesi/Firmware_Software/DAVE project/S2GLP_Pulsed_Doppler/Libraries/XMCLib/inc\xmc_dac.h ****  *
 586:C:/Users/Utente/Desktop/Tesi/Firmware_Software/DAVE project/S2GLP_Pulsed_Doppler/Libraries/XMCLib/inc\xmc_dac.h ****  * \par<b>Description:</b><br>
 587:C:/Users/Utente/Desktop/Tesi/Firmware_Software/DAVE project/S2GLP_Pulsed_Doppler/Libraries/XMCLib/inc\xmc_dac.h ****  * Writes the \e data to the \e channel's DATA register.
 588:C:/Users/Utente/Desktop/Tesi/Firmware_Software/DAVE project/S2GLP_Pulsed_Doppler/Libraries/XMCLib/inc\xmc_dac.h ****  *
 589:C:/Users/Utente/Desktop/Tesi/Firmware_Software/DAVE project/S2GLP_Pulsed_Doppler/Libraries/XMCLib/inc\xmc_dac.h ****  * \par
 590:C:/Users/Utente/Desktop/Tesi/Firmware_Software/DAVE project/S2GLP_Pulsed_Doppler/Libraries/XMCLib/inc\xmc_dac.h ****  * The \e data is then converted and driven to the output.
 591:C:/Users/Utente/Desktop/Tesi/Firmware_Software/DAVE project/S2GLP_Pulsed_Doppler/Libraries/XMCLib/inc\xmc_dac.h ****  * If the trigger is set, On a trigger event the data in DATA register is converted and driven to \
 592:C:/Users/Utente/Desktop/Tesi/Firmware_Software/DAVE project/S2GLP_Pulsed_Doppler/Libraries/XMCLib/inc\xmc_dac.h ****  * Data \a data is written to the \a channel by loading \a data to \a DATA0 bit-field of \a DAC0DAT
 593:C:/Users/Utente/Desktop/Tesi/Firmware_Software/DAVE project/S2GLP_Pulsed_Doppler/Libraries/XMCLib/inc\xmc_dac.h ****  * data has the range of [0-4095].
 594:C:/Users/Utente/Desktop/Tesi/Firmware_Software/DAVE project/S2GLP_Pulsed_Doppler/Libraries/XMCLib/inc\xmc_dac.h ****  *
 595:C:/Users/Utente/Desktop/Tesi/Firmware_Software/DAVE project/S2GLP_Pulsed_Doppler/Libraries/XMCLib/inc\xmc_dac.h ****  * \par<b>Note:</b><br>
 596:C:/Users/Utente/Desktop/Tesi/Firmware_Software/DAVE project/S2GLP_Pulsed_Doppler/Libraries/XMCLib/inc\xmc_dac.h ****  * The API can be used for Single Value Mode, Data Mode (Individual) & Ramp Mode.
 597:C:/Users/Utente/Desktop/Tesi/Firmware_Software/DAVE project/S2GLP_Pulsed_Doppler/Libraries/XMCLib/inc\xmc_dac.h ****  * Call XMC_DAC_CH_EnableOutput() API to enable analog output.
 598:C:/Users/Utente/Desktop/Tesi/Firmware_Software/DAVE project/S2GLP_Pulsed_Doppler/Libraries/XMCLib/inc\xmc_dac.h ****  *
 599:C:/Users/Utente/Desktop/Tesi/Firmware_Software/DAVE project/S2GLP_Pulsed_Doppler/Libraries/XMCLib/inc\xmc_dac.h ****  * \par<b>Related APIs:</b><BR>
 600:C:/Users/Utente/Desktop/Tesi/Firmware_Software/DAVE project/S2GLP_Pulsed_Doppler/Libraries/XMCLib/inc\xmc_dac.h ****  * XMC_DAC_CH_StartSingleValueMode(), XMC_DAC_CH_StartDataMode(), XMC_DAC_CH_StartRampMode()\n\n\n
 601:C:/Users/Utente/Desktop/Tesi/Firmware_Software/DAVE project/S2GLP_Pulsed_Doppler/Libraries/XMCLib/inc\xmc_dac.h ****  *
 602:C:/Users/Utente/Desktop/Tesi/Firmware_Software/DAVE project/S2GLP_Pulsed_Doppler/Libraries/XMCLib/inc\xmc_dac.h ****  */
 603:C:/Users/Utente/Desktop/Tesi/Firmware_Software/DAVE project/S2GLP_Pulsed_Doppler/Libraries/XMCLib/inc\xmc_dac.h **** __STATIC_INLINE void XMC_DAC_CH_Write(XMC_DAC_t *const dac, const uint8_t channel, const uint16_t d
 604:C:/Users/Utente/Desktop/Tesi/Firmware_Software/DAVE project/S2GLP_Pulsed_Doppler/Libraries/XMCLib/inc\xmc_dac.h **** {
 605:C:/Users/Utente/Desktop/Tesi/Firmware_Software/DAVE project/S2GLP_Pulsed_Doppler/Libraries/XMCLib/inc\xmc_dac.h ****   XMC_ASSERT("XMC_DAC_CH_Write: dac parameter not valid\n", XMC_DAC_IS_DAC_VALID(dac));
 606:C:/Users/Utente/Desktop/Tesi/Firmware_Software/DAVE project/S2GLP_Pulsed_Doppler/Libraries/XMCLib/inc\xmc_dac.h ****   XMC_ASSERT("XMC_DAC_CH_Write: channel parameter not valid\n", XMC_DAC_IS_CHANNEL_VALID(channel));
 607:C:/Users/Utente/Desktop/Tesi/Firmware_Software/DAVE project/S2GLP_Pulsed_Doppler/Libraries/XMCLib/inc\xmc_dac.h ****   
 608:C:/Users/Utente/Desktop/Tesi/Firmware_Software/DAVE project/S2GLP_Pulsed_Doppler/Libraries/XMCLib/inc\xmc_dac.h ****   dac->DACDATA[channel] = data;
 609:C:/Users/Utente/Desktop/Tesi/Firmware_Software/DAVE project/S2GLP_Pulsed_Doppler/Libraries/XMCLib/inc\xmc_dac.h **** }
 610:C:/Users/Utente/Desktop/Tesi/Firmware_Software/DAVE project/S2GLP_Pulsed_Doppler/Libraries/XMCLib/inc\xmc_dac.h **** 
 611:C:/Users/Utente/Desktop/Tesi/Firmware_Software/DAVE project/S2GLP_Pulsed_Doppler/Libraries/XMCLib/inc\xmc_dac.h **** /**
 612:C:/Users/Utente/Desktop/Tesi/Firmware_Software/DAVE project/S2GLP_Pulsed_Doppler/Libraries/XMCLib/inc\xmc_dac.h ****  * @param dac Pointer to an instance of DAC module
 613:C:/Users/Utente/Desktop/Tesi/Firmware_Software/DAVE project/S2GLP_Pulsed_Doppler/Libraries/XMCLib/inc\xmc_dac.h ****  * @param channel DAC channel number
 614:C:/Users/Utente/Desktop/Tesi/Firmware_Software/DAVE project/S2GLP_Pulsed_Doppler/Libraries/XMCLib/inc\xmc_dac.h ****  *
 615:C:/Users/Utente/Desktop/Tesi/Firmware_Software/DAVE project/S2GLP_Pulsed_Doppler/Libraries/XMCLib/inc\xmc_dac.h ****  * @return None
 616:C:/Users/Utente/Desktop/Tesi/Firmware_Software/DAVE project/S2GLP_Pulsed_Doppler/Libraries/XMCLib/inc\xmc_dac.h ****  *
 617:C:/Users/Utente/Desktop/Tesi/Firmware_Software/DAVE project/S2GLP_Pulsed_Doppler/Libraries/XMCLib/inc\xmc_dac.h ****  * \par<b>Description:</b><br>
 618:C:/Users/Utente/Desktop/Tesi/Firmware_Software/DAVE project/S2GLP_Pulsed_Doppler/Libraries/XMCLib/inc\xmc_dac.h ****  * Sets the \e channel to Single Value Mode by calling XMC_DAC_CH_SetMode().
 619:C:/Users/Utente/Desktop/Tesi/Firmware_Software/DAVE project/S2GLP_Pulsed_Doppler/Libraries/XMCLib/inc\xmc_dac.h ****  *
 620:C:/Users/Utente/Desktop/Tesi/Firmware_Software/DAVE project/S2GLP_Pulsed_Doppler/Libraries/XMCLib/inc\xmc_dac.h ****  * \par<b>Note:</b><br>
 621:C:/Users/Utente/Desktop/Tesi/Firmware_Software/DAVE project/S2GLP_Pulsed_Doppler/Libraries/XMCLib/inc\xmc_dac.h ****  * Call XMC_DAC_CH_Write() API to write the data.
 622:C:/Users/Utente/Desktop/Tesi/Firmware_Software/DAVE project/S2GLP_Pulsed_Doppler/Libraries/XMCLib/inc\xmc_dac.h ****  *
 623:C:/Users/Utente/Desktop/Tesi/Firmware_Software/DAVE project/S2GLP_Pulsed_Doppler/Libraries/XMCLib/inc\xmc_dac.h ****  * \par<b>Related APIs:</b><BR>
 624:C:/Users/Utente/Desktop/Tesi/Firmware_Software/DAVE project/S2GLP_Pulsed_Doppler/Libraries/XMCLib/inc\xmc_dac.h ****  * XMC_DAC_CH_Write()\n\n\n
 625:C:/Users/Utente/Desktop/Tesi/Firmware_Software/DAVE project/S2GLP_Pulsed_Doppler/Libraries/XMCLib/inc\xmc_dac.h ****  *
 626:C:/Users/Utente/Desktop/Tesi/Firmware_Software/DAVE project/S2GLP_Pulsed_Doppler/Libraries/XMCLib/inc\xmc_dac.h ****  */
 627:C:/Users/Utente/Desktop/Tesi/Firmware_Software/DAVE project/S2GLP_Pulsed_Doppler/Libraries/XMCLib/inc\xmc_dac.h **** XMC_DAC_CH_STATUS_t XMC_DAC_CH_StartSingleValueMode(XMC_DAC_t *const dac, const uint8_t channel);
 628:C:/Users/Utente/Desktop/Tesi/Firmware_Software/DAVE project/S2GLP_Pulsed_Doppler/Libraries/XMCLib/inc\xmc_dac.h **** 
 629:C:/Users/Utente/Desktop/Tesi/Firmware_Software/DAVE project/S2GLP_Pulsed_Doppler/Libraries/XMCLib/inc\xmc_dac.h **** /**
 630:C:/Users/Utente/Desktop/Tesi/Firmware_Software/DAVE project/S2GLP_Pulsed_Doppler/Libraries/XMCLib/inc\xmc_dac.h ****  * @param dac Pointer to an instance of DAC module
 631:C:/Users/Utente/Desktop/Tesi/Firmware_Software/DAVE project/S2GLP_Pulsed_Doppler/Libraries/XMCLib/inc\xmc_dac.h ****  * @param channel DAC channel number
 632:C:/Users/Utente/Desktop/Tesi/Firmware_Software/DAVE project/S2GLP_Pulsed_Doppler/Libraries/XMCLib/inc\xmc_dac.h ****  * @param trigger Data points update trigger
 633:C:/Users/Utente/Desktop/Tesi/Firmware_Software/DAVE project/S2GLP_Pulsed_Doppler/Libraries/XMCLib/inc\xmc_dac.h ****  * @param frequency Waveform frequency [Hz]
 634:C:/Users/Utente/Desktop/Tesi/Firmware_Software/DAVE project/S2GLP_Pulsed_Doppler/Libraries/XMCLib/inc\xmc_dac.h ****  *
 635:C:/Users/Utente/Desktop/Tesi/Firmware_Software/DAVE project/S2GLP_Pulsed_Doppler/Libraries/XMCLib/inc\xmc_dac.h ****  * @return XMC_DAC_CH_STATUS_t status
 636:C:/Users/Utente/Desktop/Tesi/Firmware_Software/DAVE project/S2GLP_Pulsed_Doppler/Libraries/XMCLib/inc\xmc_dac.h ****  *
 637:C:/Users/Utente/Desktop/Tesi/Firmware_Software/DAVE project/S2GLP_Pulsed_Doppler/Libraries/XMCLib/inc\xmc_dac.h ****  * \par<b>Description:</b><br>
 638:C:/Users/Utente/Desktop/Tesi/Firmware_Software/DAVE project/S2GLP_Pulsed_Doppler/Libraries/XMCLib/inc\xmc_dac.h ****  * Sets the \e channel to Data mode. Trigger and frequency are configured.
 639:C:/Users/Utente/Desktop/Tesi/Firmware_Software/DAVE project/S2GLP_Pulsed_Doppler/Libraries/XMCLib/inc\xmc_dac.h ****  *
 640:C:/Users/Utente/Desktop/Tesi/Firmware_Software/DAVE project/S2GLP_Pulsed_Doppler/Libraries/XMCLib/inc\xmc_dac.h ****  * \par<b>Note:</b><br>
 641:C:/Users/Utente/Desktop/Tesi/Firmware_Software/DAVE project/S2GLP_Pulsed_Doppler/Libraries/XMCLib/inc\xmc_dac.h ****  * Call XMC_DAC_CH_Write() API to write the data. Call XMC_DAC_EnableSimultaneousDataMode() to swit
 642:C:/Users/Utente/Desktop/Tesi/Firmware_Software/DAVE project/S2GLP_Pulsed_Doppler/Libraries/XMCLib/inc\xmc_dac.h ****  *
 643:C:/Users/Utente/Desktop/Tesi/Firmware_Software/DAVE project/S2GLP_Pulsed_Doppler/Libraries/XMCLib/inc\xmc_dac.h ****  * \par<b>Related APIs:</b><BR>
 644:C:/Users/Utente/Desktop/Tesi/Firmware_Software/DAVE project/S2GLP_Pulsed_Doppler/Libraries/XMCLib/inc\xmc_dac.h ****  * XMC_DAC_CH_Init(), XMC_DAC_CH_Write(), XMC_DAC_EnableSimultaneousDataMode() \n\n\n
 645:C:/Users/Utente/Desktop/Tesi/Firmware_Software/DAVE project/S2GLP_Pulsed_Doppler/Libraries/XMCLib/inc\xmc_dac.h ****  *
 646:C:/Users/Utente/Desktop/Tesi/Firmware_Software/DAVE project/S2GLP_Pulsed_Doppler/Libraries/XMCLib/inc\xmc_dac.h ****  */
 647:C:/Users/Utente/Desktop/Tesi/Firmware_Software/DAVE project/S2GLP_Pulsed_Doppler/Libraries/XMCLib/inc\xmc_dac.h **** XMC_DAC_CH_STATUS_t XMC_DAC_CH_StartDataMode(XMC_DAC_t *const dac,
 648:C:/Users/Utente/Desktop/Tesi/Firmware_Software/DAVE project/S2GLP_Pulsed_Doppler/Libraries/XMCLib/inc\xmc_dac.h ****                                              const uint8_t channel,
 649:C:/Users/Utente/Desktop/Tesi/Firmware_Software/DAVE project/S2GLP_Pulsed_Doppler/Libraries/XMCLib/inc\xmc_dac.h ****                                              const XMC_DAC_CH_TRIGGER_t trigger,
 650:C:/Users/Utente/Desktop/Tesi/Firmware_Software/DAVE project/S2GLP_Pulsed_Doppler/Libraries/XMCLib/inc\xmc_dac.h ****                                              const uint32_t frequency);
 651:C:/Users/Utente/Desktop/Tesi/Firmware_Software/DAVE project/S2GLP_Pulsed_Doppler/Libraries/XMCLib/inc\xmc_dac.h **** 
 652:C:/Users/Utente/Desktop/Tesi/Firmware_Software/DAVE project/S2GLP_Pulsed_Doppler/Libraries/XMCLib/inc\xmc_dac.h **** /**
 653:C:/Users/Utente/Desktop/Tesi/Firmware_Software/DAVE project/S2GLP_Pulsed_Doppler/Libraries/XMCLib/inc\xmc_dac.h ****  * @param dac Pointer to an instance of DAC module
 654:C:/Users/Utente/Desktop/Tesi/Firmware_Software/DAVE project/S2GLP_Pulsed_Doppler/Libraries/XMCLib/inc\xmc_dac.h ****  * @param channel DAC channel number
 655:C:/Users/Utente/Desktop/Tesi/Firmware_Software/DAVE project/S2GLP_Pulsed_Doppler/Libraries/XMCLib/inc\xmc_dac.h ****  * @param start Start point of the ramp [0-4095]
 656:C:/Users/Utente/Desktop/Tesi/Firmware_Software/DAVE project/S2GLP_Pulsed_Doppler/Libraries/XMCLib/inc\xmc_dac.h ****  * @param stop Stop point of the ramp [0-4095]
 657:C:/Users/Utente/Desktop/Tesi/Firmware_Software/DAVE project/S2GLP_Pulsed_Doppler/Libraries/XMCLib/inc\xmc_dac.h ****  * @param trigger Data points update trigger
 658:C:/Users/Utente/Desktop/Tesi/Firmware_Software/DAVE project/S2GLP_Pulsed_Doppler/Libraries/XMCLib/inc\xmc_dac.h ****  * @param frequency Ramp frequency in [Hz]
 659:C:/Users/Utente/Desktop/Tesi/Firmware_Software/DAVE project/S2GLP_Pulsed_Doppler/Libraries/XMCLib/inc\xmc_dac.h ****  *
 660:C:/Users/Utente/Desktop/Tesi/Firmware_Software/DAVE project/S2GLP_Pulsed_Doppler/Libraries/XMCLib/inc\xmc_dac.h ****  * @return XMC_DAC_CH_STATUS_t status
 661:C:/Users/Utente/Desktop/Tesi/Firmware_Software/DAVE project/S2GLP_Pulsed_Doppler/Libraries/XMCLib/inc\xmc_dac.h ****  *
 662:C:/Users/Utente/Desktop/Tesi/Firmware_Software/DAVE project/S2GLP_Pulsed_Doppler/Libraries/XMCLib/inc\xmc_dac.h ****  * \par<b>Description:</b><br>
 663:C:/Users/Utente/Desktop/Tesi/Firmware_Software/DAVE project/S2GLP_Pulsed_Doppler/Libraries/XMCLib/inc\xmc_dac.h ****  * Sets the \e channel to Ramp mode. Trigger, frequency, start and stop values are configured.
 664:C:/Users/Utente/Desktop/Tesi/Firmware_Software/DAVE project/S2GLP_Pulsed_Doppler/Libraries/XMCLib/inc\xmc_dac.h ****  * On a \e trigger ramp values are converted and driven to \e channel output.
 665:C:/Users/Utente/Desktop/Tesi/Firmware_Software/DAVE project/S2GLP_Pulsed_Doppler/Libraries/XMCLib/inc\xmc_dac.h ****  * Start and stop have the range of [0-4095]. Stop should be equal or greater than start. 
 666:C:/Users/Utente/Desktop/Tesi/Firmware_Software/DAVE project/S2GLP_Pulsed_Doppler/Libraries/XMCLib/inc\xmc_dac.h ****  *
 667:C:/Users/Utente/Desktop/Tesi/Firmware_Software/DAVE project/S2GLP_Pulsed_Doppler/Libraries/XMCLib/inc\xmc_dac.h ****  * \par<b>Note:</b><br>
 668:C:/Users/Utente/Desktop/Tesi/Firmware_Software/DAVE project/S2GLP_Pulsed_Doppler/Libraries/XMCLib/inc\xmc_dac.h ****  * If the ramp counter reaches its \e stop value, it restarts from the \e start value with the next
 669:C:/Users/Utente/Desktop/Tesi/Firmware_Software/DAVE project/S2GLP_Pulsed_Doppler/Libraries/XMCLib/inc\xmc_dac.h ****  *
 670:C:/Users/Utente/Desktop/Tesi/Firmware_Software/DAVE project/S2GLP_Pulsed_Doppler/Libraries/XMCLib/inc\xmc_dac.h ****  * \par<b>Related APIs:</b><BR>
 671:C:/Users/Utente/Desktop/Tesi/Firmware_Software/DAVE project/S2GLP_Pulsed_Doppler/Libraries/XMCLib/inc\xmc_dac.h ****  * XMC_DAC_CH_Init(), XMC_DAC_CH_GetRampStart(), XMC_DAC_CH_GetRampStop() \n\n\n
 672:C:/Users/Utente/Desktop/Tesi/Firmware_Software/DAVE project/S2GLP_Pulsed_Doppler/Libraries/XMCLib/inc\xmc_dac.h ****  *
 673:C:/Users/Utente/Desktop/Tesi/Firmware_Software/DAVE project/S2GLP_Pulsed_Doppler/Libraries/XMCLib/inc\xmc_dac.h ****  */
 674:C:/Users/Utente/Desktop/Tesi/Firmware_Software/DAVE project/S2GLP_Pulsed_Doppler/Libraries/XMCLib/inc\xmc_dac.h **** XMC_DAC_CH_STATUS_t XMC_DAC_CH_StartRampMode(XMC_DAC_t *const dac,
 675:C:/Users/Utente/Desktop/Tesi/Firmware_Software/DAVE project/S2GLP_Pulsed_Doppler/Libraries/XMCLib/inc\xmc_dac.h ****                                              const uint8_t channel,
 676:C:/Users/Utente/Desktop/Tesi/Firmware_Software/DAVE project/S2GLP_Pulsed_Doppler/Libraries/XMCLib/inc\xmc_dac.h ****                                              const uint16_t start,
 677:C:/Users/Utente/Desktop/Tesi/Firmware_Software/DAVE project/S2GLP_Pulsed_Doppler/Libraries/XMCLib/inc\xmc_dac.h ****                                              const uint16_t stop,
 678:C:/Users/Utente/Desktop/Tesi/Firmware_Software/DAVE project/S2GLP_Pulsed_Doppler/Libraries/XMCLib/inc\xmc_dac.h ****                                              const XMC_DAC_CH_TRIGGER_t trigger,
 679:C:/Users/Utente/Desktop/Tesi/Firmware_Software/DAVE project/S2GLP_Pulsed_Doppler/Libraries/XMCLib/inc\xmc_dac.h ****                                              const uint32_t frequency);
 680:C:/Users/Utente/Desktop/Tesi/Firmware_Software/DAVE project/S2GLP_Pulsed_Doppler/Libraries/XMCLib/inc\xmc_dac.h **** 
 681:C:/Users/Utente/Desktop/Tesi/Firmware_Software/DAVE project/S2GLP_Pulsed_Doppler/Libraries/XMCLib/inc\xmc_dac.h **** /**
 682:C:/Users/Utente/Desktop/Tesi/Firmware_Software/DAVE project/S2GLP_Pulsed_Doppler/Libraries/XMCLib/inc\xmc_dac.h ****  * @param dac Pointer to an instance of DAC module
 683:C:/Users/Utente/Desktop/Tesi/Firmware_Software/DAVE project/S2GLP_Pulsed_Doppler/Libraries/XMCLib/inc\xmc_dac.h ****  * @param channel DAC channel number
 684:C:/Users/Utente/Desktop/Tesi/Firmware_Software/DAVE project/S2GLP_Pulsed_Doppler/Libraries/XMCLib/inc\xmc_dac.h ****  * @param pattern Data table of a pattern
 685:C:/Users/Utente/Desktop/Tesi/Firmware_Software/DAVE project/S2GLP_Pulsed_Doppler/Libraries/XMCLib/inc\xmc_dac.h ****  * @param sign_output Sign information of the waveform
 686:C:/Users/Utente/Desktop/Tesi/Firmware_Software/DAVE project/S2GLP_Pulsed_Doppler/Libraries/XMCLib/inc\xmc_dac.h ****  * @param trigger Data points update trigger
 687:C:/Users/Utente/Desktop/Tesi/Firmware_Software/DAVE project/S2GLP_Pulsed_Doppler/Libraries/XMCLib/inc\xmc_dac.h ****  * @param frequency Waveform frequency in [Hz]
 688:C:/Users/Utente/Desktop/Tesi/Firmware_Software/DAVE project/S2GLP_Pulsed_Doppler/Libraries/XMCLib/inc\xmc_dac.h ****  *
 689:C:/Users/Utente/Desktop/Tesi/Firmware_Software/DAVE project/S2GLP_Pulsed_Doppler/Libraries/XMCLib/inc\xmc_dac.h ****  * @return XMC_DAC_CH_STATUS_t status
 690:C:/Users/Utente/Desktop/Tesi/Firmware_Software/DAVE project/S2GLP_Pulsed_Doppler/Libraries/XMCLib/inc\xmc_dac.h ****  *
 691:C:/Users/Utente/Desktop/Tesi/Firmware_Software/DAVE project/S2GLP_Pulsed_Doppler/Libraries/XMCLib/inc\xmc_dac.h ****  * \par<b>Description:</b><br>
 692:C:/Users/Utente/Desktop/Tesi/Firmware_Software/DAVE project/S2GLP_Pulsed_Doppler/Libraries/XMCLib/inc\xmc_dac.h ****  * Sets the \e channel to Pattern mode. Trigger, frequency, sign output and data are configured.
 693:C:/Users/Utente/Desktop/Tesi/Firmware_Software/DAVE project/S2GLP_Pulsed_Doppler/Libraries/XMCLib/inc\xmc_dac.h ****  * On a \e trigger, the \e pattern values are converted and driven to \e channel output.
 694:C:/Users/Utente/Desktop/Tesi/Firmware_Software/DAVE project/S2GLP_Pulsed_Doppler/Libraries/XMCLib/inc\xmc_dac.h ****  *
 695:C:/Users/Utente/Desktop/Tesi/Firmware_Software/DAVE project/S2GLP_Pulsed_Doppler/Libraries/XMCLib/inc\xmc_dac.h ****  * \par<b>Related APIs:</b><BR>
 696:C:/Users/Utente/Desktop/Tesi/Firmware_Software/DAVE project/S2GLP_Pulsed_Doppler/Libraries/XMCLib/inc\xmc_dac.h ****  * XMC_DAC_CH_Init(), XMC_DAC_CH_DisablePatternSignOutput() \n\n\n
 697:C:/Users/Utente/Desktop/Tesi/Firmware_Software/DAVE project/S2GLP_Pulsed_Doppler/Libraries/XMCLib/inc\xmc_dac.h ****  *
 698:C:/Users/Utente/Desktop/Tesi/Firmware_Software/DAVE project/S2GLP_Pulsed_Doppler/Libraries/XMCLib/inc\xmc_dac.h ****  */
 699:C:/Users/Utente/Desktop/Tesi/Firmware_Software/DAVE project/S2GLP_Pulsed_Doppler/Libraries/XMCLib/inc\xmc_dac.h **** XMC_DAC_CH_STATUS_t XMC_DAC_CH_StartPatternMode(XMC_DAC_t *const dac,
 700:C:/Users/Utente/Desktop/Tesi/Firmware_Software/DAVE project/S2GLP_Pulsed_Doppler/Libraries/XMCLib/inc\xmc_dac.h ****                                                 const uint8_t channel,
 701:C:/Users/Utente/Desktop/Tesi/Firmware_Software/DAVE project/S2GLP_Pulsed_Doppler/Libraries/XMCLib/inc\xmc_dac.h ****                                                 const uint8_t *const pattern,
 702:C:/Users/Utente/Desktop/Tesi/Firmware_Software/DAVE project/S2GLP_Pulsed_Doppler/Libraries/XMCLib/inc\xmc_dac.h ****                                                 const XMC_DAC_CH_PATTERN_SIGN_OUTPUT_t sign_output,
 703:C:/Users/Utente/Desktop/Tesi/Firmware_Software/DAVE project/S2GLP_Pulsed_Doppler/Libraries/XMCLib/inc\xmc_dac.h ****                                                 const XMC_DAC_CH_TRIGGER_t trigger,
 704:C:/Users/Utente/Desktop/Tesi/Firmware_Software/DAVE project/S2GLP_Pulsed_Doppler/Libraries/XMCLib/inc\xmc_dac.h ****                                                 const uint32_t frequency);
 705:C:/Users/Utente/Desktop/Tesi/Firmware_Software/DAVE project/S2GLP_Pulsed_Doppler/Libraries/XMCLib/inc\xmc_dac.h **** 
 706:C:/Users/Utente/Desktop/Tesi/Firmware_Software/DAVE project/S2GLP_Pulsed_Doppler/Libraries/XMCLib/inc\xmc_dac.h **** /**
 707:C:/Users/Utente/Desktop/Tesi/Firmware_Software/DAVE project/S2GLP_Pulsed_Doppler/Libraries/XMCLib/inc\xmc_dac.h ****  * @param dac Pointer to an instance of DAC module
 708:C:/Users/Utente/Desktop/Tesi/Firmware_Software/DAVE project/S2GLP_Pulsed_Doppler/Libraries/XMCLib/inc\xmc_dac.h ****  * @param channel DAC channel number
 709:C:/Users/Utente/Desktop/Tesi/Firmware_Software/DAVE project/S2GLP_Pulsed_Doppler/Libraries/XMCLib/inc\xmc_dac.h ****  * @param trigger Data points update trigger
 710:C:/Users/Utente/Desktop/Tesi/Firmware_Software/DAVE project/S2GLP_Pulsed_Doppler/Libraries/XMCLib/inc\xmc_dac.h ****  * @param frequency Waveform frequency in [Hz]
 711:C:/Users/Utente/Desktop/Tesi/Firmware_Software/DAVE project/S2GLP_Pulsed_Doppler/Libraries/XMCLib/inc\xmc_dac.h ****  *
 712:C:/Users/Utente/Desktop/Tesi/Firmware_Software/DAVE project/S2GLP_Pulsed_Doppler/Libraries/XMCLib/inc\xmc_dac.h ****  * @return XMC_DAC_CH_STATUS_t status
 713:C:/Users/Utente/Desktop/Tesi/Firmware_Software/DAVE project/S2GLP_Pulsed_Doppler/Libraries/XMCLib/inc\xmc_dac.h ****  *
 714:C:/Users/Utente/Desktop/Tesi/Firmware_Software/DAVE project/S2GLP_Pulsed_Doppler/Libraries/XMCLib/inc\xmc_dac.h ****  * \par<b>Description:</b><br>
 715:C:/Users/Utente/Desktop/Tesi/Firmware_Software/DAVE project/S2GLP_Pulsed_Doppler/Libraries/XMCLib/inc\xmc_dac.h ****  * Sets the \e channel to Noise mode. Trigger and frequency are configured.
 716:C:/Users/Utente/Desktop/Tesi/Firmware_Software/DAVE project/S2GLP_Pulsed_Doppler/Libraries/XMCLib/inc\xmc_dac.h ****  * On a \e trigger the DAC starts converting and drives to \e channel output.
 717:C:/Users/Utente/Desktop/Tesi/Firmware_Software/DAVE project/S2GLP_Pulsed_Doppler/Libraries/XMCLib/inc\xmc_dac.h ****  *
 718:C:/Users/Utente/Desktop/Tesi/Firmware_Software/DAVE project/S2GLP_Pulsed_Doppler/Libraries/XMCLib/inc\xmc_dac.h ****  * \par<b>Related APIs:</b><BR>
 719:C:/Users/Utente/Desktop/Tesi/Firmware_Software/DAVE project/S2GLP_Pulsed_Doppler/Libraries/XMCLib/inc\xmc_dac.h ****  * XMC_DAC_CH_Init()\n\n\n
 720:C:/Users/Utente/Desktop/Tesi/Firmware_Software/DAVE project/S2GLP_Pulsed_Doppler/Libraries/XMCLib/inc\xmc_dac.h ****  *
 721:C:/Users/Utente/Desktop/Tesi/Firmware_Software/DAVE project/S2GLP_Pulsed_Doppler/Libraries/XMCLib/inc\xmc_dac.h ****  */
 722:C:/Users/Utente/Desktop/Tesi/Firmware_Software/DAVE project/S2GLP_Pulsed_Doppler/Libraries/XMCLib/inc\xmc_dac.h **** XMC_DAC_CH_STATUS_t XMC_DAC_CH_StartNoiseMode(XMC_DAC_t *const dac,
 723:C:/Users/Utente/Desktop/Tesi/Firmware_Software/DAVE project/S2GLP_Pulsed_Doppler/Libraries/XMCLib/inc\xmc_dac.h ****                                               const uint8_t channel,
 724:C:/Users/Utente/Desktop/Tesi/Firmware_Software/DAVE project/S2GLP_Pulsed_Doppler/Libraries/XMCLib/inc\xmc_dac.h ****                                               const XMC_DAC_CH_TRIGGER_t trigger,
 725:C:/Users/Utente/Desktop/Tesi/Firmware_Software/DAVE project/S2GLP_Pulsed_Doppler/Libraries/XMCLib/inc\xmc_dac.h ****                                               const uint32_t frequency);
 726:C:/Users/Utente/Desktop/Tesi/Firmware_Software/DAVE project/S2GLP_Pulsed_Doppler/Libraries/XMCLib/inc\xmc_dac.h **** 
 727:C:/Users/Utente/Desktop/Tesi/Firmware_Software/DAVE project/S2GLP_Pulsed_Doppler/Libraries/XMCLib/inc\xmc_dac.h **** /**
 728:C:/Users/Utente/Desktop/Tesi/Firmware_Software/DAVE project/S2GLP_Pulsed_Doppler/Libraries/XMCLib/inc\xmc_dac.h ****  * @param dac Pointer to an instance of DAC module
 729:C:/Users/Utente/Desktop/Tesi/Firmware_Software/DAVE project/S2GLP_Pulsed_Doppler/Libraries/XMCLib/inc\xmc_dac.h ****  * @param channel DAC channel number
 730:C:/Users/Utente/Desktop/Tesi/Firmware_Software/DAVE project/S2GLP_Pulsed_Doppler/Libraries/XMCLib/inc\xmc_dac.h ****  * @param pattern Pointer to the data table
 731:C:/Users/Utente/Desktop/Tesi/Firmware_Software/DAVE project/S2GLP_Pulsed_Doppler/Libraries/XMCLib/inc\xmc_dac.h ****  *
 732:C:/Users/Utente/Desktop/Tesi/Firmware_Software/DAVE project/S2GLP_Pulsed_Doppler/Libraries/XMCLib/inc\xmc_dac.h ****  * @return None
 733:C:/Users/Utente/Desktop/Tesi/Firmware_Software/DAVE project/S2GLP_Pulsed_Doppler/Libraries/XMCLib/inc\xmc_dac.h ****  *
 734:C:/Users/Utente/Desktop/Tesi/Firmware_Software/DAVE project/S2GLP_Pulsed_Doppler/Libraries/XMCLib/inc\xmc_dac.h ****  * \par<b>Description:</b><br>
 735:C:/Users/Utente/Desktop/Tesi/Firmware_Software/DAVE project/S2GLP_Pulsed_Doppler/Libraries/XMCLib/inc\xmc_dac.h ****  * The data for the Pattern mode is written to the \a DAC0PATL and \a DAC0PATH registers.
 736:C:/Users/Utente/Desktop/Tesi/Firmware_Software/DAVE project/S2GLP_Pulsed_Doppler/Libraries/XMCLib/inc\xmc_dac.h ****  * The API is called by XMC_DAC_CH_StartPatternMode().
 737:C:/Users/Utente/Desktop/Tesi/Firmware_Software/DAVE project/S2GLP_Pulsed_Doppler/Libraries/XMCLib/inc\xmc_dac.h ****  *
 738:C:/Users/Utente/Desktop/Tesi/Firmware_Software/DAVE project/S2GLP_Pulsed_Doppler/Libraries/XMCLib/inc\xmc_dac.h ****  * \par<b>Note:</b><br>
 739:C:/Users/Utente/Desktop/Tesi/Firmware_Software/DAVE project/S2GLP_Pulsed_Doppler/Libraries/XMCLib/inc\xmc_dac.h ****  * Call this API if the \a channel is set to Pattern mode.
 740:C:/Users/Utente/Desktop/Tesi/Firmware_Software/DAVE project/S2GLP_Pulsed_Doppler/Libraries/XMCLib/inc\xmc_dac.h ****  *
 741:C:/Users/Utente/Desktop/Tesi/Firmware_Software/DAVE project/S2GLP_Pulsed_Doppler/Libraries/XMCLib/inc\xmc_dac.h ****  * \par<b>Related APIs:</b><BR>
 742:C:/Users/Utente/Desktop/Tesi/Firmware_Software/DAVE project/S2GLP_Pulsed_Doppler/Libraries/XMCLib/inc\xmc_dac.h ****  * XMC_DAC_CH_EnablePatternSignOutput(), XMC_DAC_CH_DisablePatternSignOutput()\n\n\n
 743:C:/Users/Utente/Desktop/Tesi/Firmware_Software/DAVE project/S2GLP_Pulsed_Doppler/Libraries/XMCLib/inc\xmc_dac.h ****  *
 744:C:/Users/Utente/Desktop/Tesi/Firmware_Software/DAVE project/S2GLP_Pulsed_Doppler/Libraries/XMCLib/inc\xmc_dac.h ****  */
 745:C:/Users/Utente/Desktop/Tesi/Firmware_Software/DAVE project/S2GLP_Pulsed_Doppler/Libraries/XMCLib/inc\xmc_dac.h **** void XMC_DAC_CH_SetPattern(XMC_DAC_t *const dac, const uint8_t channel, const uint8_t *const patter
 746:C:/Users/Utente/Desktop/Tesi/Firmware_Software/DAVE project/S2GLP_Pulsed_Doppler/Libraries/XMCLib/inc\xmc_dac.h **** 
 747:C:/Users/Utente/Desktop/Tesi/Firmware_Software/DAVE project/S2GLP_Pulsed_Doppler/Libraries/XMCLib/inc\xmc_dac.h **** /**
 748:C:/Users/Utente/Desktop/Tesi/Firmware_Software/DAVE project/S2GLP_Pulsed_Doppler/Libraries/XMCLib/inc\xmc_dac.h ****  * @param dac Pointer to an instance of DAC module
 749:C:/Users/Utente/Desktop/Tesi/Firmware_Software/DAVE project/S2GLP_Pulsed_Doppler/Libraries/XMCLib/inc\xmc_dac.h ****  * @param channel DAC channel number
 750:C:/Users/Utente/Desktop/Tesi/Firmware_Software/DAVE project/S2GLP_Pulsed_Doppler/Libraries/XMCLib/inc\xmc_dac.h ****  *
 751:C:/Users/Utente/Desktop/Tesi/Firmware_Software/DAVE project/S2GLP_Pulsed_Doppler/Libraries/XMCLib/inc\xmc_dac.h ****  * @return None
 752:C:/Users/Utente/Desktop/Tesi/Firmware_Software/DAVE project/S2GLP_Pulsed_Doppler/Libraries/XMCLib/inc\xmc_dac.h ****  *
 753:C:/Users/Utente/Desktop/Tesi/Firmware_Software/DAVE project/S2GLP_Pulsed_Doppler/Libraries/XMCLib/inc\xmc_dac.h ****  * \par<b>Description:</b><br>
 754:C:/Users/Utente/Desktop/Tesi/Firmware_Software/DAVE project/S2GLP_Pulsed_Doppler/Libraries/XMCLib/inc\xmc_dac.h ****  * Enables the output sign information for Pattern Mode.
 755:C:/Users/Utente/Desktop/Tesi/Firmware_Software/DAVE project/S2GLP_Pulsed_Doppler/Libraries/XMCLib/inc\xmc_dac.h ****  *
 756:C:/Users/Utente/Desktop/Tesi/Firmware_Software/DAVE project/S2GLP_Pulsed_Doppler/Libraries/XMCLib/inc\xmc_dac.h ****  * \par
 757:C:/Users/Utente/Desktop/Tesi/Firmware_Software/DAVE project/S2GLP_Pulsed_Doppler/Libraries/XMCLib/inc\xmc_dac.h ****  * Sign output is enabled by setting \a SIGNEN bit of \a DAC0CFG0 register (for channel 0) / DAC1CF
 758:C:/Users/Utente/Desktop/Tesi/Firmware_Software/DAVE project/S2GLP_Pulsed_Doppler/Libraries/XMCLib/inc\xmc_dac.h ****  *
 759:C:/Users/Utente/Desktop/Tesi/Firmware_Software/DAVE project/S2GLP_Pulsed_Doppler/Libraries/XMCLib/inc\xmc_dac.h ****  * \par<b>Note:</b><br>
 760:C:/Users/Utente/Desktop/Tesi/Firmware_Software/DAVE project/S2GLP_Pulsed_Doppler/Libraries/XMCLib/inc\xmc_dac.h ****  * Call this API if the \e channel is set to Pattern mode.
 761:C:/Users/Utente/Desktop/Tesi/Firmware_Software/DAVE project/S2GLP_Pulsed_Doppler/Libraries/XMCLib/inc\xmc_dac.h ****  *
 762:C:/Users/Utente/Desktop/Tesi/Firmware_Software/DAVE project/S2GLP_Pulsed_Doppler/Libraries/XMCLib/inc\xmc_dac.h ****  * \par<b>Related APIs:</b><BR>
 763:C:/Users/Utente/Desktop/Tesi/Firmware_Software/DAVE project/S2GLP_Pulsed_Doppler/Libraries/XMCLib/inc\xmc_dac.h ****  * XMC_DAC_CH_StartPatternMode(), XMC_DAC_CH_DisablePatternSignOutput()\n\n\n
 764:C:/Users/Utente/Desktop/Tesi/Firmware_Software/DAVE project/S2GLP_Pulsed_Doppler/Libraries/XMCLib/inc\xmc_dac.h ****  *
 765:C:/Users/Utente/Desktop/Tesi/Firmware_Software/DAVE project/S2GLP_Pulsed_Doppler/Libraries/XMCLib/inc\xmc_dac.h ****  */
 766:C:/Users/Utente/Desktop/Tesi/Firmware_Software/DAVE project/S2GLP_Pulsed_Doppler/Libraries/XMCLib/inc\xmc_dac.h **** __STATIC_INLINE void XMC_DAC_CH_EnablePatternSignOutput(XMC_DAC_t *const dac,
 767:C:/Users/Utente/Desktop/Tesi/Firmware_Software/DAVE project/S2GLP_Pulsed_Doppler/Libraries/XMCLib/inc\xmc_dac.h ****                                                      const uint8_t channel)
 768:C:/Users/Utente/Desktop/Tesi/Firmware_Software/DAVE project/S2GLP_Pulsed_Doppler/Libraries/XMCLib/inc\xmc_dac.h **** {
 769:C:/Users/Utente/Desktop/Tesi/Firmware_Software/DAVE project/S2GLP_Pulsed_Doppler/Libraries/XMCLib/inc\xmc_dac.h ****   XMC_ASSERT("XMC_DAC_CH_EnablePatternSignOutput: dac parameter not valid\n", XMC_DAC_IS_DAC_VALID(
 770:C:/Users/Utente/Desktop/Tesi/Firmware_Software/DAVE project/S2GLP_Pulsed_Doppler/Libraries/XMCLib/inc\xmc_dac.h ****   XMC_ASSERT("XMC_DAC_CH_EnablePatternSignOutput: channel parameter not valid\n", XMC_DAC_IS_CHANNE
 771:C:/Users/Utente/Desktop/Tesi/Firmware_Software/DAVE project/S2GLP_Pulsed_Doppler/Libraries/XMCLib/inc\xmc_dac.h ****   
 772:C:/Users/Utente/Desktop/Tesi/Firmware_Software/DAVE project/S2GLP_Pulsed_Doppler/Libraries/XMCLib/inc\xmc_dac.h ****   dac->DACCFG[channel].low |= DAC_DAC0CFG0_SIGNEN_Msk;
 773:C:/Users/Utente/Desktop/Tesi/Firmware_Software/DAVE project/S2GLP_Pulsed_Doppler/Libraries/XMCLib/inc\xmc_dac.h **** }
 774:C:/Users/Utente/Desktop/Tesi/Firmware_Software/DAVE project/S2GLP_Pulsed_Doppler/Libraries/XMCLib/inc\xmc_dac.h **** 
 775:C:/Users/Utente/Desktop/Tesi/Firmware_Software/DAVE project/S2GLP_Pulsed_Doppler/Libraries/XMCLib/inc\xmc_dac.h **** /**
 776:C:/Users/Utente/Desktop/Tesi/Firmware_Software/DAVE project/S2GLP_Pulsed_Doppler/Libraries/XMCLib/inc\xmc_dac.h ****  * @param dac Pointer to an instance of DAC module
 777:C:/Users/Utente/Desktop/Tesi/Firmware_Software/DAVE project/S2GLP_Pulsed_Doppler/Libraries/XMCLib/inc\xmc_dac.h ****  * @param channel DAC channel number
 778:C:/Users/Utente/Desktop/Tesi/Firmware_Software/DAVE project/S2GLP_Pulsed_Doppler/Libraries/XMCLib/inc\xmc_dac.h ****  *
 779:C:/Users/Utente/Desktop/Tesi/Firmware_Software/DAVE project/S2GLP_Pulsed_Doppler/Libraries/XMCLib/inc\xmc_dac.h ****  * @return None
 780:C:/Users/Utente/Desktop/Tesi/Firmware_Software/DAVE project/S2GLP_Pulsed_Doppler/Libraries/XMCLib/inc\xmc_dac.h ****  *
 781:C:/Users/Utente/Desktop/Tesi/Firmware_Software/DAVE project/S2GLP_Pulsed_Doppler/Libraries/XMCLib/inc\xmc_dac.h ****  * \par<b>Description:</b><br>
 782:C:/Users/Utente/Desktop/Tesi/Firmware_Software/DAVE project/S2GLP_Pulsed_Doppler/Libraries/XMCLib/inc\xmc_dac.h ****  * Disables output sign information for Pattern Mode.
 783:C:/Users/Utente/Desktop/Tesi/Firmware_Software/DAVE project/S2GLP_Pulsed_Doppler/Libraries/XMCLib/inc\xmc_dac.h ****  *
 784:C:/Users/Utente/Desktop/Tesi/Firmware_Software/DAVE project/S2GLP_Pulsed_Doppler/Libraries/XMCLib/inc\xmc_dac.h ****  * \par
 785:C:/Users/Utente/Desktop/Tesi/Firmware_Software/DAVE project/S2GLP_Pulsed_Doppler/Libraries/XMCLib/inc\xmc_dac.h ****  * Sign output is disabled by clearing \a SIGNEN bit of \a DAC0CFG0 register (for channel 0) / DAC1
 786:C:/Users/Utente/Desktop/Tesi/Firmware_Software/DAVE project/S2GLP_Pulsed_Doppler/Libraries/XMCLib/inc\xmc_dac.h ****  *
 787:C:/Users/Utente/Desktop/Tesi/Firmware_Software/DAVE project/S2GLP_Pulsed_Doppler/Libraries/XMCLib/inc\xmc_dac.h ****  * \par<b>Note:</b><br>
 788:C:/Users/Utente/Desktop/Tesi/Firmware_Software/DAVE project/S2GLP_Pulsed_Doppler/Libraries/XMCLib/inc\xmc_dac.h ****  * Call this API if the \e channel is set to Pattern mode.
 789:C:/Users/Utente/Desktop/Tesi/Firmware_Software/DAVE project/S2GLP_Pulsed_Doppler/Libraries/XMCLib/inc\xmc_dac.h ****  *
 790:C:/Users/Utente/Desktop/Tesi/Firmware_Software/DAVE project/S2GLP_Pulsed_Doppler/Libraries/XMCLib/inc\xmc_dac.h ****  * \par<b>Related APIs:</b><BR>
 791:C:/Users/Utente/Desktop/Tesi/Firmware_Software/DAVE project/S2GLP_Pulsed_Doppler/Libraries/XMCLib/inc\xmc_dac.h ****  * XMC_DAC_CH_StartPatternMode(), XMC_DAC_CH_EnablePatternSignOutput()\n\n\n
 792:C:/Users/Utente/Desktop/Tesi/Firmware_Software/DAVE project/S2GLP_Pulsed_Doppler/Libraries/XMCLib/inc\xmc_dac.h ****  *
 793:C:/Users/Utente/Desktop/Tesi/Firmware_Software/DAVE project/S2GLP_Pulsed_Doppler/Libraries/XMCLib/inc\xmc_dac.h ****  */
 794:C:/Users/Utente/Desktop/Tesi/Firmware_Software/DAVE project/S2GLP_Pulsed_Doppler/Libraries/XMCLib/inc\xmc_dac.h **** __STATIC_INLINE void XMC_DAC_CH_DisablePatternSignOutput(XMC_DAC_t *const dac,
 795:C:/Users/Utente/Desktop/Tesi/Firmware_Software/DAVE project/S2GLP_Pulsed_Doppler/Libraries/XMCLib/inc\xmc_dac.h ****                                                      const uint8_t channel)
 796:C:/Users/Utente/Desktop/Tesi/Firmware_Software/DAVE project/S2GLP_Pulsed_Doppler/Libraries/XMCLib/inc\xmc_dac.h **** {
 797:C:/Users/Utente/Desktop/Tesi/Firmware_Software/DAVE project/S2GLP_Pulsed_Doppler/Libraries/XMCLib/inc\xmc_dac.h ****   XMC_ASSERT("XMC_DAC_CH_DisablePatternSignOutput: dac parameter not valid\n", XMC_DAC_IS_DAC_VALID
 798:C:/Users/Utente/Desktop/Tesi/Firmware_Software/DAVE project/S2GLP_Pulsed_Doppler/Libraries/XMCLib/inc\xmc_dac.h ****   XMC_ASSERT("XMC_DAC_CH_DisablePatternSignOutput: channel parameter not valid\n", XMC_DAC_IS_CHANN
 799:C:/Users/Utente/Desktop/Tesi/Firmware_Software/DAVE project/S2GLP_Pulsed_Doppler/Libraries/XMCLib/inc\xmc_dac.h ****   
 800:C:/Users/Utente/Desktop/Tesi/Firmware_Software/DAVE project/S2GLP_Pulsed_Doppler/Libraries/XMCLib/inc\xmc_dac.h ****   dac->DACCFG[channel].low &= ~DAC_DAC0CFG0_SIGNEN_Msk;
 801:C:/Users/Utente/Desktop/Tesi/Firmware_Software/DAVE project/S2GLP_Pulsed_Doppler/Libraries/XMCLib/inc\xmc_dac.h **** }
 802:C:/Users/Utente/Desktop/Tesi/Firmware_Software/DAVE project/S2GLP_Pulsed_Doppler/Libraries/XMCLib/inc\xmc_dac.h **** 
 803:C:/Users/Utente/Desktop/Tesi/Firmware_Software/DAVE project/S2GLP_Pulsed_Doppler/Libraries/XMCLib/inc\xmc_dac.h **** /**
 804:C:/Users/Utente/Desktop/Tesi/Firmware_Software/DAVE project/S2GLP_Pulsed_Doppler/Libraries/XMCLib/inc\xmc_dac.h ****  * @param dac Pointer to an instance of DAC module
 805:C:/Users/Utente/Desktop/Tesi/Firmware_Software/DAVE project/S2GLP_Pulsed_Doppler/Libraries/XMCLib/inc\xmc_dac.h ****  * @param channel DAC channel number
 806:C:/Users/Utente/Desktop/Tesi/Firmware_Software/DAVE project/S2GLP_Pulsed_Doppler/Libraries/XMCLib/inc\xmc_dac.h ****  * @param start Ramp start point [0-4095]
 807:C:/Users/Utente/Desktop/Tesi/Firmware_Software/DAVE project/S2GLP_Pulsed_Doppler/Libraries/XMCLib/inc\xmc_dac.h ****  *
 808:C:/Users/Utente/Desktop/Tesi/Firmware_Software/DAVE project/S2GLP_Pulsed_Doppler/Libraries/XMCLib/inc\xmc_dac.h ****  * @return None
 809:C:/Users/Utente/Desktop/Tesi/Firmware_Software/DAVE project/S2GLP_Pulsed_Doppler/Libraries/XMCLib/inc\xmc_dac.h ****  *
 810:C:/Users/Utente/Desktop/Tesi/Firmware_Software/DAVE project/S2GLP_Pulsed_Doppler/Libraries/XMCLib/inc\xmc_dac.h ****  * \par<b>Description:</b><br>
 811:C:/Users/Utente/Desktop/Tesi/Firmware_Software/DAVE project/S2GLP_Pulsed_Doppler/Libraries/XMCLib/inc\xmc_dac.h ****  * Sets the ramp start value by writing to the register \a DAC0DATA (for \e channel 0) or \a DAC1DA
 812:C:/Users/Utente/Desktop/Tesi/Firmware_Software/DAVE project/S2GLP_Pulsed_Doppler/Libraries/XMCLib/inc\xmc_dac.h ****  * If the ramp counter reaches its stop value, it restarts from the \a start value with the next tr
 813:C:/Users/Utente/Desktop/Tesi/Firmware_Software/DAVE project/S2GLP_Pulsed_Doppler/Libraries/XMCLib/inc\xmc_dac.h ****  * Ensure \e start value is lower than the stop value.
 814:C:/Users/Utente/Desktop/Tesi/Firmware_Software/DAVE project/S2GLP_Pulsed_Doppler/Libraries/XMCLib/inc\xmc_dac.h ****  *
 815:C:/Users/Utente/Desktop/Tesi/Firmware_Software/DAVE project/S2GLP_Pulsed_Doppler/Libraries/XMCLib/inc\xmc_dac.h ****  * \par<b>Note:</b><br>
 816:C:/Users/Utente/Desktop/Tesi/Firmware_Software/DAVE project/S2GLP_Pulsed_Doppler/Libraries/XMCLib/inc\xmc_dac.h ****  * Call this API if the \a channel is set to Ramp mode.
 817:C:/Users/Utente/Desktop/Tesi/Firmware_Software/DAVE project/S2GLP_Pulsed_Doppler/Libraries/XMCLib/inc\xmc_dac.h ****  * Start value is a 12 bit data.
 818:C:/Users/Utente/Desktop/Tesi/Firmware_Software/DAVE project/S2GLP_Pulsed_Doppler/Libraries/XMCLib/inc\xmc_dac.h ****  *
 819:C:/Users/Utente/Desktop/Tesi/Firmware_Software/DAVE project/S2GLP_Pulsed_Doppler/Libraries/XMCLib/inc\xmc_dac.h ****  * \par<b>Related APIs:</b><BR>
 820:C:/Users/Utente/Desktop/Tesi/Firmware_Software/DAVE project/S2GLP_Pulsed_Doppler/Libraries/XMCLib/inc\xmc_dac.h ****  * XMC_DAC_CH_GetRampStart(), XMC_DAC_CH_GetRampStop(), XMC_DAC_CH_SetRampStop()\n\n\n
 821:C:/Users/Utente/Desktop/Tesi/Firmware_Software/DAVE project/S2GLP_Pulsed_Doppler/Libraries/XMCLib/inc\xmc_dac.h ****  *
 822:C:/Users/Utente/Desktop/Tesi/Firmware_Software/DAVE project/S2GLP_Pulsed_Doppler/Libraries/XMCLib/inc\xmc_dac.h ****  */
 823:C:/Users/Utente/Desktop/Tesi/Firmware_Software/DAVE project/S2GLP_Pulsed_Doppler/Libraries/XMCLib/inc\xmc_dac.h **** __STATIC_INLINE void XMC_DAC_CH_SetRampStart(XMC_DAC_t *const dac, const uint8_t channel, const uin
 824:C:/Users/Utente/Desktop/Tesi/Firmware_Software/DAVE project/S2GLP_Pulsed_Doppler/Libraries/XMCLib/inc\xmc_dac.h **** {
 825:C:/Users/Utente/Desktop/Tesi/Firmware_Software/DAVE project/S2GLP_Pulsed_Doppler/Libraries/XMCLib/inc\xmc_dac.h ****   XMC_ASSERT("XMC_DAC_CH_SetRampStart: dac parameter not valid\n", XMC_DAC_IS_DAC_VALID(dac));
 826:C:/Users/Utente/Desktop/Tesi/Firmware_Software/DAVE project/S2GLP_Pulsed_Doppler/Libraries/XMCLib/inc\xmc_dac.h ****   XMC_ASSERT("XMC_DAC_CH_SetRampStart: channel parameter not valid\n", XMC_DAC_IS_CHANNEL_VALID(cha
 827:C:/Users/Utente/Desktop/Tesi/Firmware_Software/DAVE project/S2GLP_Pulsed_Doppler/Libraries/XMCLib/inc\xmc_dac.h ****   
 828:C:/Users/Utente/Desktop/Tesi/Firmware_Software/DAVE project/S2GLP_Pulsed_Doppler/Libraries/XMCLib/inc\xmc_dac.h ****   dac->DACDATA[channel] = start;
 829:C:/Users/Utente/Desktop/Tesi/Firmware_Software/DAVE project/S2GLP_Pulsed_Doppler/Libraries/XMCLib/inc\xmc_dac.h **** }
 830:C:/Users/Utente/Desktop/Tesi/Firmware_Software/DAVE project/S2GLP_Pulsed_Doppler/Libraries/XMCLib/inc\xmc_dac.h **** 
 831:C:/Users/Utente/Desktop/Tesi/Firmware_Software/DAVE project/S2GLP_Pulsed_Doppler/Libraries/XMCLib/inc\xmc_dac.h **** /**
 832:C:/Users/Utente/Desktop/Tesi/Firmware_Software/DAVE project/S2GLP_Pulsed_Doppler/Libraries/XMCLib/inc\xmc_dac.h ****  * @param dac Pointer to an instance of DAC module
 833:C:/Users/Utente/Desktop/Tesi/Firmware_Software/DAVE project/S2GLP_Pulsed_Doppler/Libraries/XMCLib/inc\xmc_dac.h ****  * @param channel DAC channel number
 834:C:/Users/Utente/Desktop/Tesi/Firmware_Software/DAVE project/S2GLP_Pulsed_Doppler/Libraries/XMCLib/inc\xmc_dac.h ****  *
 835:C:/Users/Utente/Desktop/Tesi/Firmware_Software/DAVE project/S2GLP_Pulsed_Doppler/Libraries/XMCLib/inc\xmc_dac.h ****  * @return uint16_t
 836:C:/Users/Utente/Desktop/Tesi/Firmware_Software/DAVE project/S2GLP_Pulsed_Doppler/Libraries/XMCLib/inc\xmc_dac.h ****  *
 837:C:/Users/Utente/Desktop/Tesi/Firmware_Software/DAVE project/S2GLP_Pulsed_Doppler/Libraries/XMCLib/inc\xmc_dac.h ****  * \par<b>Description:</b><br>
 838:C:/Users/Utente/Desktop/Tesi/Firmware_Software/DAVE project/S2GLP_Pulsed_Doppler/Libraries/XMCLib/inc\xmc_dac.h ****  * Gets the ramp start value by reading \a DATA0 bit-field of \a DAC0DATA register (for channel 0) 
 839:C:/Users/Utente/Desktop/Tesi/Firmware_Software/DAVE project/S2GLP_Pulsed_Doppler/Libraries/XMCLib/inc\xmc_dac.h ****  * If the ramp counter reaches its stop value, it restarts from the start value with the next trigg
 840:C:/Users/Utente/Desktop/Tesi/Firmware_Software/DAVE project/S2GLP_Pulsed_Doppler/Libraries/XMCLib/inc\xmc_dac.h ****  *
 841:C:/Users/Utente/Desktop/Tesi/Firmware_Software/DAVE project/S2GLP_Pulsed_Doppler/Libraries/XMCLib/inc\xmc_dac.h ****  * \par<b>Note:</b><br>
 842:C:/Users/Utente/Desktop/Tesi/Firmware_Software/DAVE project/S2GLP_Pulsed_Doppler/Libraries/XMCLib/inc\xmc_dac.h ****  * Call this API if the \e channel is set to Ramp mode.
 843:C:/Users/Utente/Desktop/Tesi/Firmware_Software/DAVE project/S2GLP_Pulsed_Doppler/Libraries/XMCLib/inc\xmc_dac.h ****  *
 844:C:/Users/Utente/Desktop/Tesi/Firmware_Software/DAVE project/S2GLP_Pulsed_Doppler/Libraries/XMCLib/inc\xmc_dac.h ****  * \par<b>Related APIs:</b><BR>
 845:C:/Users/Utente/Desktop/Tesi/Firmware_Software/DAVE project/S2GLP_Pulsed_Doppler/Libraries/XMCLib/inc\xmc_dac.h ****  * XMC_DAC_CH_SetRampStart(), XMC_DAC_CH_StartRampMode(), XMC_DAC_CH_GetRampStop(), XMC_DAC_CH_SetR
 846:C:/Users/Utente/Desktop/Tesi/Firmware_Software/DAVE project/S2GLP_Pulsed_Doppler/Libraries/XMCLib/inc\xmc_dac.h ****  *
 847:C:/Users/Utente/Desktop/Tesi/Firmware_Software/DAVE project/S2GLP_Pulsed_Doppler/Libraries/XMCLib/inc\xmc_dac.h ****  */
 848:C:/Users/Utente/Desktop/Tesi/Firmware_Software/DAVE project/S2GLP_Pulsed_Doppler/Libraries/XMCLib/inc\xmc_dac.h **** __STATIC_INLINE uint16_t XMC_DAC_CH_GetRampStart(XMC_DAC_t *const dac, const uint8_t channel)
 849:C:/Users/Utente/Desktop/Tesi/Firmware_Software/DAVE project/S2GLP_Pulsed_Doppler/Libraries/XMCLib/inc\xmc_dac.h **** {
 850:C:/Users/Utente/Desktop/Tesi/Firmware_Software/DAVE project/S2GLP_Pulsed_Doppler/Libraries/XMCLib/inc\xmc_dac.h ****   XMC_ASSERT("XMC_DAC_CH_GetRampStart: dac parameter not valid\n", XMC_DAC_IS_DAC_VALID(dac));
 851:C:/Users/Utente/Desktop/Tesi/Firmware_Software/DAVE project/S2GLP_Pulsed_Doppler/Libraries/XMCLib/inc\xmc_dac.h ****   XMC_ASSERT("XMC_DAC_CH_GetRampStart: channel parameter not valid\n", XMC_DAC_IS_CHANNEL_VALID(cha
 852:C:/Users/Utente/Desktop/Tesi/Firmware_Software/DAVE project/S2GLP_Pulsed_Doppler/Libraries/XMCLib/inc\xmc_dac.h ****   
 853:C:/Users/Utente/Desktop/Tesi/Firmware_Software/DAVE project/S2GLP_Pulsed_Doppler/Libraries/XMCLib/inc\xmc_dac.h ****   return (uint16_t)(dac->DACDATA[channel]);
 854:C:/Users/Utente/Desktop/Tesi/Firmware_Software/DAVE project/S2GLP_Pulsed_Doppler/Libraries/XMCLib/inc\xmc_dac.h **** }
 855:C:/Users/Utente/Desktop/Tesi/Firmware_Software/DAVE project/S2GLP_Pulsed_Doppler/Libraries/XMCLib/inc\xmc_dac.h **** 
 856:C:/Users/Utente/Desktop/Tesi/Firmware_Software/DAVE project/S2GLP_Pulsed_Doppler/Libraries/XMCLib/inc\xmc_dac.h **** /**
 857:C:/Users/Utente/Desktop/Tesi/Firmware_Software/DAVE project/S2GLP_Pulsed_Doppler/Libraries/XMCLib/inc\xmc_dac.h ****  * @param dac Pointer to an instance of DAC module
 858:C:/Users/Utente/Desktop/Tesi/Firmware_Software/DAVE project/S2GLP_Pulsed_Doppler/Libraries/XMCLib/inc\xmc_dac.h ****  * @param channel DAC channel number
 859:C:/Users/Utente/Desktop/Tesi/Firmware_Software/DAVE project/S2GLP_Pulsed_Doppler/Libraries/XMCLib/inc\xmc_dac.h ****  * @param stop Ramp stop point [0-4095]
 860:C:/Users/Utente/Desktop/Tesi/Firmware_Software/DAVE project/S2GLP_Pulsed_Doppler/Libraries/XMCLib/inc\xmc_dac.h ****  *
 861:C:/Users/Utente/Desktop/Tesi/Firmware_Software/DAVE project/S2GLP_Pulsed_Doppler/Libraries/XMCLib/inc\xmc_dac.h ****  * @return None
 862:C:/Users/Utente/Desktop/Tesi/Firmware_Software/DAVE project/S2GLP_Pulsed_Doppler/Libraries/XMCLib/inc\xmc_dac.h ****  *
 863:C:/Users/Utente/Desktop/Tesi/Firmware_Software/DAVE project/S2GLP_Pulsed_Doppler/Libraries/XMCLib/inc\xmc_dac.h ****  * \par<b>Description:</b><br>
 864:C:/Users/Utente/Desktop/Tesi/Firmware_Software/DAVE project/S2GLP_Pulsed_Doppler/Libraries/XMCLib/inc\xmc_dac.h ****  * Sets the ramp stop value by writing to the bit-field \a DATA0 (for \e channel 0) or \a DATA1 (fo
 865:C:/Users/Utente/Desktop/Tesi/Firmware_Software/DAVE project/S2GLP_Pulsed_Doppler/Libraries/XMCLib/inc\xmc_dac.h ****  * If the ramp counter reaches its \a stop value, it restarts from the start value with the next tr
 866:C:/Users/Utente/Desktop/Tesi/Firmware_Software/DAVE project/S2GLP_Pulsed_Doppler/Libraries/XMCLib/inc\xmc_dac.h ****  * Ensure \e stop value is higher than the start value.
 867:C:/Users/Utente/Desktop/Tesi/Firmware_Software/DAVE project/S2GLP_Pulsed_Doppler/Libraries/XMCLib/inc\xmc_dac.h ****  *
 868:C:/Users/Utente/Desktop/Tesi/Firmware_Software/DAVE project/S2GLP_Pulsed_Doppler/Libraries/XMCLib/inc\xmc_dac.h ****  * \par<b>Note:</b><br>
 869:C:/Users/Utente/Desktop/Tesi/Firmware_Software/DAVE project/S2GLP_Pulsed_Doppler/Libraries/XMCLib/inc\xmc_dac.h ****  * Call this API if the \e channel is set to Ramp mode.
 870:C:/Users/Utente/Desktop/Tesi/Firmware_Software/DAVE project/S2GLP_Pulsed_Doppler/Libraries/XMCLib/inc\xmc_dac.h ****  * Stop value is a 12 bit data.
 871:C:/Users/Utente/Desktop/Tesi/Firmware_Software/DAVE project/S2GLP_Pulsed_Doppler/Libraries/XMCLib/inc\xmc_dac.h ****  *
 872:C:/Users/Utente/Desktop/Tesi/Firmware_Software/DAVE project/S2GLP_Pulsed_Doppler/Libraries/XMCLib/inc\xmc_dac.h ****  * \par<b>Related APIs:</b><BR>
 873:C:/Users/Utente/Desktop/Tesi/Firmware_Software/DAVE project/S2GLP_Pulsed_Doppler/Libraries/XMCLib/inc\xmc_dac.h ****  * XMC_DAC_CH_GetRampStop(), XMC_DAC_CH_SetRampStart()\n\n\n
 874:C:/Users/Utente/Desktop/Tesi/Firmware_Software/DAVE project/S2GLP_Pulsed_Doppler/Libraries/XMCLib/inc\xmc_dac.h ****  *
 875:C:/Users/Utente/Desktop/Tesi/Firmware_Software/DAVE project/S2GLP_Pulsed_Doppler/Libraries/XMCLib/inc\xmc_dac.h ****  */
 876:C:/Users/Utente/Desktop/Tesi/Firmware_Software/DAVE project/S2GLP_Pulsed_Doppler/Libraries/XMCLib/inc\xmc_dac.h **** __STATIC_INLINE void XMC_DAC_CH_SetRampStop(XMC_DAC_t *const dac, const uint8_t channel, const uint
 877:C:/Users/Utente/Desktop/Tesi/Firmware_Software/DAVE project/S2GLP_Pulsed_Doppler/Libraries/XMCLib/inc\xmc_dac.h **** {
 878:C:/Users/Utente/Desktop/Tesi/Firmware_Software/DAVE project/S2GLP_Pulsed_Doppler/Libraries/XMCLib/inc\xmc_dac.h ****   XMC_ASSERT("XMC_DAC_CH_SetRampStop: dac parameter not valid\n", XMC_DAC_IS_DAC_VALID(dac));
 879:C:/Users/Utente/Desktop/Tesi/Firmware_Software/DAVE project/S2GLP_Pulsed_Doppler/Libraries/XMCLib/inc\xmc_dac.h ****   XMC_ASSERT("XMC_DAC_CH_SetRampStop: channel parameter not valid\n", XMC_DAC_IS_CHANNEL_VALID(chan
 880:C:/Users/Utente/Desktop/Tesi/Firmware_Software/DAVE project/S2GLP_Pulsed_Doppler/Libraries/XMCLib/inc\xmc_dac.h ****     
 881:C:/Users/Utente/Desktop/Tesi/Firmware_Software/DAVE project/S2GLP_Pulsed_Doppler/Libraries/XMCLib/inc\xmc_dac.h ****   dac->DAC01DATA = (dac->DAC01DATA & ~(DAC_DAC01DATA_DATA0_Msk << (channel * DAC_DAC01DATA_DATA1_Po
 882:C:/Users/Utente/Desktop/Tesi/Firmware_Software/DAVE project/S2GLP_Pulsed_Doppler/Libraries/XMCLib/inc\xmc_dac.h ****                (stop << (channel * DAC_DAC01DATA_DATA1_Pos));
 883:C:/Users/Utente/Desktop/Tesi/Firmware_Software/DAVE project/S2GLP_Pulsed_Doppler/Libraries/XMCLib/inc\xmc_dac.h **** }
 884:C:/Users/Utente/Desktop/Tesi/Firmware_Software/DAVE project/S2GLP_Pulsed_Doppler/Libraries/XMCLib/inc\xmc_dac.h **** 
 885:C:/Users/Utente/Desktop/Tesi/Firmware_Software/DAVE project/S2GLP_Pulsed_Doppler/Libraries/XMCLib/inc\xmc_dac.h **** /**
 886:C:/Users/Utente/Desktop/Tesi/Firmware_Software/DAVE project/S2GLP_Pulsed_Doppler/Libraries/XMCLib/inc\xmc_dac.h ****  * @param dac Pointer to an instance of DAC module
 887:C:/Users/Utente/Desktop/Tesi/Firmware_Software/DAVE project/S2GLP_Pulsed_Doppler/Libraries/XMCLib/inc\xmc_dac.h ****  * @param channel DAC channel number
 888:C:/Users/Utente/Desktop/Tesi/Firmware_Software/DAVE project/S2GLP_Pulsed_Doppler/Libraries/XMCLib/inc\xmc_dac.h ****  *
 889:C:/Users/Utente/Desktop/Tesi/Firmware_Software/DAVE project/S2GLP_Pulsed_Doppler/Libraries/XMCLib/inc\xmc_dac.h ****  * @return uint16_t
 890:C:/Users/Utente/Desktop/Tesi/Firmware_Software/DAVE project/S2GLP_Pulsed_Doppler/Libraries/XMCLib/inc\xmc_dac.h ****  *
 891:C:/Users/Utente/Desktop/Tesi/Firmware_Software/DAVE project/S2GLP_Pulsed_Doppler/Libraries/XMCLib/inc\xmc_dac.h ****  * \par<b>Description:</b><br>
 892:C:/Users/Utente/Desktop/Tesi/Firmware_Software/DAVE project/S2GLP_Pulsed_Doppler/Libraries/XMCLib/inc\xmc_dac.h ****  * Gets the ramp stop value by reading \a DATA0 bit-field of \a DAC01DATA register (for channel 0) 
 893:C:/Users/Utente/Desktop/Tesi/Firmware_Software/DAVE project/S2GLP_Pulsed_Doppler/Libraries/XMCLib/inc\xmc_dac.h ****  * If the ramp counter reaches its stop value, it restarts from the start value with the next trigg
 894:C:/Users/Utente/Desktop/Tesi/Firmware_Software/DAVE project/S2GLP_Pulsed_Doppler/Libraries/XMCLib/inc\xmc_dac.h ****  *
 895:C:/Users/Utente/Desktop/Tesi/Firmware_Software/DAVE project/S2GLP_Pulsed_Doppler/Libraries/XMCLib/inc\xmc_dac.h ****  * \par<b>Note:</b><br>
 896:C:/Users/Utente/Desktop/Tesi/Firmware_Software/DAVE project/S2GLP_Pulsed_Doppler/Libraries/XMCLib/inc\xmc_dac.h ****  * Call this API if the \e channel is set to Ramp mode.
 897:C:/Users/Utente/Desktop/Tesi/Firmware_Software/DAVE project/S2GLP_Pulsed_Doppler/Libraries/XMCLib/inc\xmc_dac.h ****  *
 898:C:/Users/Utente/Desktop/Tesi/Firmware_Software/DAVE project/S2GLP_Pulsed_Doppler/Libraries/XMCLib/inc\xmc_dac.h ****  * \par<b>Related APIs:</b><BR>
 899:C:/Users/Utente/Desktop/Tesi/Firmware_Software/DAVE project/S2GLP_Pulsed_Doppler/Libraries/XMCLib/inc\xmc_dac.h ****  * XMC_DAC_CH_SetRampStop(), XMC_DAC_CH_StartRampMode(), XMC_DAC_CH_GetRampStart()\n\n\n
 900:C:/Users/Utente/Desktop/Tesi/Firmware_Software/DAVE project/S2GLP_Pulsed_Doppler/Libraries/XMCLib/inc\xmc_dac.h ****  *
 901:C:/Users/Utente/Desktop/Tesi/Firmware_Software/DAVE project/S2GLP_Pulsed_Doppler/Libraries/XMCLib/inc\xmc_dac.h ****  */
 902:C:/Users/Utente/Desktop/Tesi/Firmware_Software/DAVE project/S2GLP_Pulsed_Doppler/Libraries/XMCLib/inc\xmc_dac.h **** __STATIC_INLINE uint16_t XMC_DAC_CH_GetRampStop(XMC_DAC_t *const dac, const uint8_t channel)
 903:C:/Users/Utente/Desktop/Tesi/Firmware_Software/DAVE project/S2GLP_Pulsed_Doppler/Libraries/XMCLib/inc\xmc_dac.h **** {
 904:C:/Users/Utente/Desktop/Tesi/Firmware_Software/DAVE project/S2GLP_Pulsed_Doppler/Libraries/XMCLib/inc\xmc_dac.h ****   XMC_ASSERT("XMC_DAC_CH_GetRampStop: dac parameter not valid\n", XMC_DAC_IS_DAC_VALID(dac));
 905:C:/Users/Utente/Desktop/Tesi/Firmware_Software/DAVE project/S2GLP_Pulsed_Doppler/Libraries/XMCLib/inc\xmc_dac.h ****   XMC_ASSERT("XMC_DAC_CH_GetRampStop: channel parameter not valid\n", XMC_DAC_IS_CHANNEL_VALID(chan
 906:C:/Users/Utente/Desktop/Tesi/Firmware_Software/DAVE project/S2GLP_Pulsed_Doppler/Libraries/XMCLib/inc\xmc_dac.h **** 
 907:C:/Users/Utente/Desktop/Tesi/Firmware_Software/DAVE project/S2GLP_Pulsed_Doppler/Libraries/XMCLib/inc\xmc_dac.h ****   return((dac->DAC01DATA >> (channel * DAC_DAC01DATA_DATA1_Pos)) & DAC_DAC01DATA_DATA0_Msk);
 908:C:/Users/Utente/Desktop/Tesi/Firmware_Software/DAVE project/S2GLP_Pulsed_Doppler/Libraries/XMCLib/inc\xmc_dac.h **** }
 909:C:/Users/Utente/Desktop/Tesi/Firmware_Software/DAVE project/S2GLP_Pulsed_Doppler/Libraries/XMCLib/inc\xmc_dac.h **** 
 910:C:/Users/Utente/Desktop/Tesi/Firmware_Software/DAVE project/S2GLP_Pulsed_Doppler/Libraries/XMCLib/inc\xmc_dac.h **** /**
 911:C:/Users/Utente/Desktop/Tesi/Firmware_Software/DAVE project/S2GLP_Pulsed_Doppler/Libraries/XMCLib/inc\xmc_dac.h ****  * @param dac Pointer to an instance of DAC module
 912:C:/Users/Utente/Desktop/Tesi/Firmware_Software/DAVE project/S2GLP_Pulsed_Doppler/Libraries/XMCLib/inc\xmc_dac.h ****  * @param channel DAC channel number
 913:C:/Users/Utente/Desktop/Tesi/Firmware_Software/DAVE project/S2GLP_Pulsed_Doppler/Libraries/XMCLib/inc\xmc_dac.h ****  * @param trigger Trigger source
 914:C:/Users/Utente/Desktop/Tesi/Firmware_Software/DAVE project/S2GLP_Pulsed_Doppler/Libraries/XMCLib/inc\xmc_dac.h ****  *
 915:C:/Users/Utente/Desktop/Tesi/Firmware_Software/DAVE project/S2GLP_Pulsed_Doppler/Libraries/XMCLib/inc\xmc_dac.h ****  * @return None
 916:C:/Users/Utente/Desktop/Tesi/Firmware_Software/DAVE project/S2GLP_Pulsed_Doppler/Libraries/XMCLib/inc\xmc_dac.h ****  *
 917:C:/Users/Utente/Desktop/Tesi/Firmware_Software/DAVE project/S2GLP_Pulsed_Doppler/Libraries/XMCLib/inc\xmc_dac.h ****  * \par<b>Description:</b><br>
 918:C:/Users/Utente/Desktop/Tesi/Firmware_Software/DAVE project/S2GLP_Pulsed_Doppler/Libraries/XMCLib/inc\xmc_dac.h ****  * Selects the \e trigger source for the \e channel by configuring the bits TRIGSEL & TRIGMOD of CF
 919:C:/Users/Utente/Desktop/Tesi/Firmware_Software/DAVE project/S2GLP_Pulsed_Doppler/Libraries/XMCLib/inc\xmc_dac.h ****  *
 920:C:/Users/Utente/Desktop/Tesi/Firmware_Software/DAVE project/S2GLP_Pulsed_Doppler/Libraries/XMCLib/inc\xmc_dac.h ****  * \par
 921:C:/Users/Utente/Desktop/Tesi/Firmware_Software/DAVE project/S2GLP_Pulsed_Doppler/Libraries/XMCLib/inc\xmc_dac.h ****  * Channel \a channel trigger source is selected by \a TRIGSEL bit-field of \a DAC0CFG1 register (f
 922:C:/Users/Utente/Desktop/Tesi/Firmware_Software/DAVE project/S2GLP_Pulsed_Doppler/Libraries/XMCLib/inc\xmc_dac.h ****  *
 923:C:/Users/Utente/Desktop/Tesi/Firmware_Software/DAVE project/S2GLP_Pulsed_Doppler/Libraries/XMCLib/inc\xmc_dac.h ****  */
 924:C:/Users/Utente/Desktop/Tesi/Firmware_Software/DAVE project/S2GLP_Pulsed_Doppler/Libraries/XMCLib/inc\xmc_dac.h **** __STATIC_INLINE void XMC_DAC_CH_SetTrigger(XMC_DAC_t *const dac, const uint8_t channel, const XMC_D
 925:C:/Users/Utente/Desktop/Tesi/Firmware_Software/DAVE project/S2GLP_Pulsed_Doppler/Libraries/XMCLib/inc\xmc_dac.h **** {
 926:C:/Users/Utente/Desktop/Tesi/Firmware_Software/DAVE project/S2GLP_Pulsed_Doppler/Libraries/XMCLib/inc\xmc_dac.h ****   XMC_ASSERT("XMC_DAC_CH_SetTrigger: dac parameter not valid\n", XMC_DAC_IS_DAC_VALID(dac));
 927:C:/Users/Utente/Desktop/Tesi/Firmware_Software/DAVE project/S2GLP_Pulsed_Doppler/Libraries/XMCLib/inc\xmc_dac.h ****   XMC_ASSERT("XMC_DAC_CH_SetTrigger: channel parameter not valid\n", XMC_DAC_IS_CHANNEL_VALID(chann
 928:C:/Users/Utente/Desktop/Tesi/Firmware_Software/DAVE project/S2GLP_Pulsed_Doppler/Libraries/XMCLib/inc\xmc_dac.h ****   XMC_ASSERT("XMC_DAC_CH_SetTrigger: trigger parameter not valid\n", XMC_DAC_IS_TRIGGER_VALID(trigg
 929:C:/Users/Utente/Desktop/Tesi/Firmware_Software/DAVE project/S2GLP_Pulsed_Doppler/Libraries/XMCLib/inc\xmc_dac.h **** 
 930:C:/Users/Utente/Desktop/Tesi/Firmware_Software/DAVE project/S2GLP_Pulsed_Doppler/Libraries/XMCLib/inc\xmc_dac.h ****   dac->DACCFG[channel].high = (dac->DACCFG[channel].high & ~(DAC_DAC0CFG1_TRIGSEL_Msk | DAC_DAC0CFG
 931:C:/Users/Utente/Desktop/Tesi/Firmware_Software/DAVE project/S2GLP_Pulsed_Doppler/Libraries/XMCLib/inc\xmc_dac.h ****                               trigger;
 932:C:/Users/Utente/Desktop/Tesi/Firmware_Software/DAVE project/S2GLP_Pulsed_Doppler/Libraries/XMCLib/inc\xmc_dac.h **** }
 933:C:/Users/Utente/Desktop/Tesi/Firmware_Software/DAVE project/S2GLP_Pulsed_Doppler/Libraries/XMCLib/inc\xmc_dac.h **** 
 934:C:/Users/Utente/Desktop/Tesi/Firmware_Software/DAVE project/S2GLP_Pulsed_Doppler/Libraries/XMCLib/inc\xmc_dac.h **** /**
 935:C:/Users/Utente/Desktop/Tesi/Firmware_Software/DAVE project/S2GLP_Pulsed_Doppler/Libraries/XMCLib/inc\xmc_dac.h ****  * @param dac Pointer to an instance of DAC module
 936:C:/Users/Utente/Desktop/Tesi/Firmware_Software/DAVE project/S2GLP_Pulsed_Doppler/Libraries/XMCLib/inc\xmc_dac.h ****  * @param channel DAC channel number
 937:C:/Users/Utente/Desktop/Tesi/Firmware_Software/DAVE project/S2GLP_Pulsed_Doppler/Libraries/XMCLib/inc\xmc_dac.h ****  * @param frequency Waveform frequency in [Hz]
 938:C:/Users/Utente/Desktop/Tesi/Firmware_Software/DAVE project/S2GLP_Pulsed_Doppler/Libraries/XMCLib/inc\xmc_dac.h ****  *
 939:C:/Users/Utente/Desktop/Tesi/Firmware_Software/DAVE project/S2GLP_Pulsed_Doppler/Libraries/XMCLib/inc\xmc_dac.h ****  * @return XMC_DAC_CH_STATUS_t
 940:C:/Users/Utente/Desktop/Tesi/Firmware_Software/DAVE project/S2GLP_Pulsed_Doppler/Libraries/XMCLib/inc\xmc_dac.h ****  *
 941:C:/Users/Utente/Desktop/Tesi/Firmware_Software/DAVE project/S2GLP_Pulsed_Doppler/Libraries/XMCLib/inc\xmc_dac.h ****  * \par<b>Description:</b><br>
 942:C:/Users/Utente/Desktop/Tesi/Firmware_Software/DAVE project/S2GLP_Pulsed_Doppler/Libraries/XMCLib/inc\xmc_dac.h ****  * Sets the \e frequency of DAC channel.
 943:C:/Users/Utente/Desktop/Tesi/Firmware_Software/DAVE project/S2GLP_Pulsed_Doppler/Libraries/XMCLib/inc\xmc_dac.h ****  *
 944:C:/Users/Utente/Desktop/Tesi/Firmware_Software/DAVE project/S2GLP_Pulsed_Doppler/Libraries/XMCLib/inc\xmc_dac.h ****  * \par
 945:C:/Users/Utente/Desktop/Tesi/Firmware_Software/DAVE project/S2GLP_Pulsed_Doppler/Libraries/XMCLib/inc\xmc_dac.h ****  * The value \e frequency acts as clock divider. The smallest \e frequency divider value is 16.
 946:C:/Users/Utente/Desktop/Tesi/Firmware_Software/DAVE project/S2GLP_Pulsed_Doppler/Libraries/XMCLib/inc\xmc_dac.h ****  * A valid \e frequency value should be within the range XMC_DAC_MIN_FREQ_DIVIDER to XMC_DAC_MAX_FR
 947:C:/Users/Utente/Desktop/Tesi/Firmware_Software/DAVE project/S2GLP_Pulsed_Doppler/Libraries/XMCLib/inc\xmc_dac.h ****  * Frequency \a frequency is configured by setting \a FREQ bit-field of \a DAC0CFG0 register (for c
 948:C:/Users/Utente/Desktop/Tesi/Firmware_Software/DAVE project/S2GLP_Pulsed_Doppler/Libraries/XMCLib/inc\xmc_dac.h ****  *
 949:C:/Users/Utente/Desktop/Tesi/Firmware_Software/DAVE project/S2GLP_Pulsed_Doppler/Libraries/XMCLib/inc\xmc_dac.h ****  * \par<b>Note:</b><br>
 950:C:/Users/Utente/Desktop/Tesi/Firmware_Software/DAVE project/S2GLP_Pulsed_Doppler/Libraries/XMCLib/inc\xmc_dac.h ****  * Call this API only for Single value mode, Data mode and Noise mode.
 951:C:/Users/Utente/Desktop/Tesi/Firmware_Software/DAVE project/S2GLP_Pulsed_Doppler/Libraries/XMCLib/inc\xmc_dac.h ****  * Call XMC_DAC_CH_SetRampFrequency() in case of Ramp mode and XMC_DAC_CH_SetPatternFrequency() in 
 952:C:/Users/Utente/Desktop/Tesi/Firmware_Software/DAVE project/S2GLP_Pulsed_Doppler/Libraries/XMCLib/inc\xmc_dac.h ****  *
 953:C:/Users/Utente/Desktop/Tesi/Firmware_Software/DAVE project/S2GLP_Pulsed_Doppler/Libraries/XMCLib/inc\xmc_dac.h ****  * \par<b>Related APIs:</b><BR>
 954:C:/Users/Utente/Desktop/Tesi/Firmware_Software/DAVE project/S2GLP_Pulsed_Doppler/Libraries/XMCLib/inc\xmc_dac.h ****  * XMC_DAC_CH_SetRampFrequency(), XMC_DAC_CH_SetPatternFrequency()\n\n\n
 955:C:/Users/Utente/Desktop/Tesi/Firmware_Software/DAVE project/S2GLP_Pulsed_Doppler/Libraries/XMCLib/inc\xmc_dac.h ****  *
 956:C:/Users/Utente/Desktop/Tesi/Firmware_Software/DAVE project/S2GLP_Pulsed_Doppler/Libraries/XMCLib/inc\xmc_dac.h ****  */
 957:C:/Users/Utente/Desktop/Tesi/Firmware_Software/DAVE project/S2GLP_Pulsed_Doppler/Libraries/XMCLib/inc\xmc_dac.h **** XMC_DAC_CH_STATUS_t XMC_DAC_CH_SetFrequency(XMC_DAC_t *const dac, const uint8_t channel, const uint
 958:C:/Users/Utente/Desktop/Tesi/Firmware_Software/DAVE project/S2GLP_Pulsed_Doppler/Libraries/XMCLib/inc\xmc_dac.h **** 
 959:C:/Users/Utente/Desktop/Tesi/Firmware_Software/DAVE project/S2GLP_Pulsed_Doppler/Libraries/XMCLib/inc\xmc_dac.h **** /**
 960:C:/Users/Utente/Desktop/Tesi/Firmware_Software/DAVE project/S2GLP_Pulsed_Doppler/Libraries/XMCLib/inc\xmc_dac.h ****  * @param dac Pointer to an instance of DAC module
 961:C:/Users/Utente/Desktop/Tesi/Firmware_Software/DAVE project/S2GLP_Pulsed_Doppler/Libraries/XMCLib/inc\xmc_dac.h ****  * @param channel DAC channel number
 962:C:/Users/Utente/Desktop/Tesi/Firmware_Software/DAVE project/S2GLP_Pulsed_Doppler/Libraries/XMCLib/inc\xmc_dac.h ****  * @param frequency [Hz]
 963:C:/Users/Utente/Desktop/Tesi/Firmware_Software/DAVE project/S2GLP_Pulsed_Doppler/Libraries/XMCLib/inc\xmc_dac.h ****  *
 964:C:/Users/Utente/Desktop/Tesi/Firmware_Software/DAVE project/S2GLP_Pulsed_Doppler/Libraries/XMCLib/inc\xmc_dac.h ****  * @return XMC_DAC_CH_STATUS_t
 965:C:/Users/Utente/Desktop/Tesi/Firmware_Software/DAVE project/S2GLP_Pulsed_Doppler/Libraries/XMCLib/inc\xmc_dac.h ****  *
 966:C:/Users/Utente/Desktop/Tesi/Firmware_Software/DAVE project/S2GLP_Pulsed_Doppler/Libraries/XMCLib/inc\xmc_dac.h ****  * \par<b>Description:</b><br>
 967:C:/Users/Utente/Desktop/Tesi/Firmware_Software/DAVE project/S2GLP_Pulsed_Doppler/Libraries/XMCLib/inc\xmc_dac.h ****  * Sets the \e frequency of DAC channel by calling XMC_DAC_CH_SetFrequency().
 968:C:/Users/Utente/Desktop/Tesi/Firmware_Software/DAVE project/S2GLP_Pulsed_Doppler/Libraries/XMCLib/inc\xmc_dac.h ****  *
 969:C:/Users/Utente/Desktop/Tesi/Firmware_Software/DAVE project/S2GLP_Pulsed_Doppler/Libraries/XMCLib/inc\xmc_dac.h ****  * \par
 970:C:/Users/Utente/Desktop/Tesi/Firmware_Software/DAVE project/S2GLP_Pulsed_Doppler/Libraries/XMCLib/inc\xmc_dac.h ****  * For the Ramp mode, the \a frequency of operation depends on the total number of sample points (\
 971:C:/Users/Utente/Desktop/Tesi/Firmware_Software/DAVE project/S2GLP_Pulsed_Doppler/Libraries/XMCLib/inc\xmc_dac.h ****  * Frequency \e frequency is multiplied by the total number of sample points, so that each trigger 
 972:C:/Users/Utente/Desktop/Tesi/Firmware_Software/DAVE project/S2GLP_Pulsed_Doppler/Libraries/XMCLib/inc\xmc_dac.h ****  *
 973:C:/Users/Utente/Desktop/Tesi/Firmware_Software/DAVE project/S2GLP_Pulsed_Doppler/Libraries/XMCLib/inc\xmc_dac.h ****  * \par<b>Note:</b><br>
 974:C:/Users/Utente/Desktop/Tesi/Firmware_Software/DAVE project/S2GLP_Pulsed_Doppler/Libraries/XMCLib/inc\xmc_dac.h ****  * Call this API only if the \a channel is set to Ramp mode.
 975:C:/Users/Utente/Desktop/Tesi/Firmware_Software/DAVE project/S2GLP_Pulsed_Doppler/Libraries/XMCLib/inc\xmc_dac.h ****  *
 976:C:/Users/Utente/Desktop/Tesi/Firmware_Software/DAVE project/S2GLP_Pulsed_Doppler/Libraries/XMCLib/inc\xmc_dac.h ****  * \par<b>Related APIs:</b><BR>
 977:C:/Users/Utente/Desktop/Tesi/Firmware_Software/DAVE project/S2GLP_Pulsed_Doppler/Libraries/XMCLib/inc\xmc_dac.h ****  * XMC_DAC_CH_StartRampMode()\n\n\n
 978:C:/Users/Utente/Desktop/Tesi/Firmware_Software/DAVE project/S2GLP_Pulsed_Doppler/Libraries/XMCLib/inc\xmc_dac.h ****  *
 979:C:/Users/Utente/Desktop/Tesi/Firmware_Software/DAVE project/S2GLP_Pulsed_Doppler/Libraries/XMCLib/inc\xmc_dac.h ****  */
 980:C:/Users/Utente/Desktop/Tesi/Firmware_Software/DAVE project/S2GLP_Pulsed_Doppler/Libraries/XMCLib/inc\xmc_dac.h **** XMC_DAC_CH_STATUS_t XMC_DAC_CH_SetRampFrequency(XMC_DAC_t *const dac, const uint8_t channel, const 
 981:C:/Users/Utente/Desktop/Tesi/Firmware_Software/DAVE project/S2GLP_Pulsed_Doppler/Libraries/XMCLib/inc\xmc_dac.h **** 
 982:C:/Users/Utente/Desktop/Tesi/Firmware_Software/DAVE project/S2GLP_Pulsed_Doppler/Libraries/XMCLib/inc\xmc_dac.h **** /**
 983:C:/Users/Utente/Desktop/Tesi/Firmware_Software/DAVE project/S2GLP_Pulsed_Doppler/Libraries/XMCLib/inc\xmc_dac.h ****  * @param dac Pointer to an instance of DAC module
 984:C:/Users/Utente/Desktop/Tesi/Firmware_Software/DAVE project/S2GLP_Pulsed_Doppler/Libraries/XMCLib/inc\xmc_dac.h ****  * @param channel DAC channel number
 985:C:/Users/Utente/Desktop/Tesi/Firmware_Software/DAVE project/S2GLP_Pulsed_Doppler/Libraries/XMCLib/inc\xmc_dac.h ****  * @param frequency in [Hz]
 986:C:/Users/Utente/Desktop/Tesi/Firmware_Software/DAVE project/S2GLP_Pulsed_Doppler/Libraries/XMCLib/inc\xmc_dac.h ****  *
 987:C:/Users/Utente/Desktop/Tesi/Firmware_Software/DAVE project/S2GLP_Pulsed_Doppler/Libraries/XMCLib/inc\xmc_dac.h ****  * @return XMC_DAC_CH_STATUS_t
 988:C:/Users/Utente/Desktop/Tesi/Firmware_Software/DAVE project/S2GLP_Pulsed_Doppler/Libraries/XMCLib/inc\xmc_dac.h ****  *
 989:C:/Users/Utente/Desktop/Tesi/Firmware_Software/DAVE project/S2GLP_Pulsed_Doppler/Libraries/XMCLib/inc\xmc_dac.h ****  * \par<b>Description:</b><br>
 990:C:/Users/Utente/Desktop/Tesi/Firmware_Software/DAVE project/S2GLP_Pulsed_Doppler/Libraries/XMCLib/inc\xmc_dac.h ****  * Sets the \e frequency of DAC channel by calling XMC_DAC_CH_SetFrequency().
 991:C:/Users/Utente/Desktop/Tesi/Firmware_Software/DAVE project/S2GLP_Pulsed_Doppler/Libraries/XMCLib/inc\xmc_dac.h ****  *
 992:C:/Users/Utente/Desktop/Tesi/Firmware_Software/DAVE project/S2GLP_Pulsed_Doppler/Libraries/XMCLib/inc\xmc_dac.h ****  * \par
 993:C:/Users/Utente/Desktop/Tesi/Firmware_Software/DAVE project/S2GLP_Pulsed_Doppler/Libraries/XMCLib/inc\xmc_dac.h ****  * For the Pattern mode, the \a frequency of operation depends on the total number of sample points
 994:C:/Users/Utente/Desktop/Tesi/Firmware_Software/DAVE project/S2GLP_Pulsed_Doppler/Libraries/XMCLib/inc\xmc_dac.h ****  * Frequency \e frequency is multiplied by the total number of sample points, so that each trigger 
 995:C:/Users/Utente/Desktop/Tesi/Firmware_Software/DAVE project/S2GLP_Pulsed_Doppler/Libraries/XMCLib/inc\xmc_dac.h ****  *
 996:C:/Users/Utente/Desktop/Tesi/Firmware_Software/DAVE project/S2GLP_Pulsed_Doppler/Libraries/XMCLib/inc\xmc_dac.h ****  * \par<b>Note:</b><br>
 997:C:/Users/Utente/Desktop/Tesi/Firmware_Software/DAVE project/S2GLP_Pulsed_Doppler/Libraries/XMCLib/inc\xmc_dac.h ****  * Call this API only if the \a channel is set to Pattern mode.
 998:C:/Users/Utente/Desktop/Tesi/Firmware_Software/DAVE project/S2GLP_Pulsed_Doppler/Libraries/XMCLib/inc\xmc_dac.h ****  *
 999:C:/Users/Utente/Desktop/Tesi/Firmware_Software/DAVE project/S2GLP_Pulsed_Doppler/Libraries/XMCLib/inc\xmc_dac.h ****  * \par<b>Related APIs:</b><BR>
1000:C:/Users/Utente/Desktop/Tesi/Firmware_Software/DAVE project/S2GLP_Pulsed_Doppler/Libraries/XMCLib/inc\xmc_dac.h ****  * XMC_DAC_CH_StartPatternMode()\n\n\n
1001:C:/Users/Utente/Desktop/Tesi/Firmware_Software/DAVE project/S2GLP_Pulsed_Doppler/Libraries/XMCLib/inc\xmc_dac.h ****  *
1002:C:/Users/Utente/Desktop/Tesi/Firmware_Software/DAVE project/S2GLP_Pulsed_Doppler/Libraries/XMCLib/inc\xmc_dac.h ****  */
1003:C:/Users/Utente/Desktop/Tesi/Firmware_Software/DAVE project/S2GLP_Pulsed_Doppler/Libraries/XMCLib/inc\xmc_dac.h **** __STATIC_INLINE XMC_DAC_CH_STATUS_t XMC_DAC_CH_SetPatternFrequency(XMC_DAC_t *const dac,
1004:C:/Users/Utente/Desktop/Tesi/Firmware_Software/DAVE project/S2GLP_Pulsed_Doppler/Libraries/XMCLib/inc\xmc_dac.h ****                                                                    const uint8_t channel,
1005:C:/Users/Utente/Desktop/Tesi/Firmware_Software/DAVE project/S2GLP_Pulsed_Doppler/Libraries/XMCLib/inc\xmc_dac.h ****                                                                    const uint32_t frequency)
1006:C:/Users/Utente/Desktop/Tesi/Firmware_Software/DAVE project/S2GLP_Pulsed_Doppler/Libraries/XMCLib/inc\xmc_dac.h **** {
1007:C:/Users/Utente/Desktop/Tesi/Firmware_Software/DAVE project/S2GLP_Pulsed_Doppler/Libraries/XMCLib/inc\xmc_dac.h ****   XMC_ASSERT("XMC_DAC_CH_SetPatternFrequency: dac parameter not valid\n", XMC_DAC_IS_DAC_VALID(dac)
1008:C:/Users/Utente/Desktop/Tesi/Firmware_Software/DAVE project/S2GLP_Pulsed_Doppler/Libraries/XMCLib/inc\xmc_dac.h ****   XMC_ASSERT("XMC_DAC_CH_SetPatternFrequency: channel parameter not valid\n", XMC_DAC_IS_CHANNEL_VA
1009:C:/Users/Utente/Desktop/Tesi/Firmware_Software/DAVE project/S2GLP_Pulsed_Doppler/Libraries/XMCLib/inc\xmc_dac.h **** 
1010:C:/Users/Utente/Desktop/Tesi/Firmware_Software/DAVE project/S2GLP_Pulsed_Doppler/Libraries/XMCLib/inc\xmc_dac.h ****   return XMC_DAC_CH_SetFrequency(dac, channel, frequency * XMC_DAC_SAMPLES_PER_PERIOD);
1011:C:/Users/Utente/Desktop/Tesi/Firmware_Software/DAVE project/S2GLP_Pulsed_Doppler/Libraries/XMCLib/inc\xmc_dac.h **** }
1012:C:/Users/Utente/Desktop/Tesi/Firmware_Software/DAVE project/S2GLP_Pulsed_Doppler/Libraries/XMCLib/inc\xmc_dac.h **** 
1013:C:/Users/Utente/Desktop/Tesi/Firmware_Software/DAVE project/S2GLP_Pulsed_Doppler/Libraries/XMCLib/inc\xmc_dac.h **** /**
1014:C:/Users/Utente/Desktop/Tesi/Firmware_Software/DAVE project/S2GLP_Pulsed_Doppler/Libraries/XMCLib/inc\xmc_dac.h ****  * @param dac Pointer to an instance of DAC module
1015:C:/Users/Utente/Desktop/Tesi/Firmware_Software/DAVE project/S2GLP_Pulsed_Doppler/Libraries/XMCLib/inc\xmc_dac.h ****  * @param channel DAC channel number
1016:C:/Users/Utente/Desktop/Tesi/Firmware_Software/DAVE project/S2GLP_Pulsed_Doppler/Libraries/XMCLib/inc\xmc_dac.h ****  * @param mode DAC operation mode
1017:C:/Users/Utente/Desktop/Tesi/Firmware_Software/DAVE project/S2GLP_Pulsed_Doppler/Libraries/XMCLib/inc\xmc_dac.h ****  *
1018:C:/Users/Utente/Desktop/Tesi/Firmware_Software/DAVE project/S2GLP_Pulsed_Doppler/Libraries/XMCLib/inc\xmc_dac.h ****  * @return None
1019:C:/Users/Utente/Desktop/Tesi/Firmware_Software/DAVE project/S2GLP_Pulsed_Doppler/Libraries/XMCLib/inc\xmc_dac.h ****  *
1020:C:/Users/Utente/Desktop/Tesi/Firmware_Software/DAVE project/S2GLP_Pulsed_Doppler/Libraries/XMCLib/inc\xmc_dac.h ****  * \par<b>Description:</b><br>
1021:C:/Users/Utente/Desktop/Tesi/Firmware_Software/DAVE project/S2GLP_Pulsed_Doppler/Libraries/XMCLib/inc\xmc_dac.h ****  * Sets the operating \e mode for the \e channel by setting the \a MODE bit-field of \a DAC0CFG0 re
1022:C:/Users/Utente/Desktop/Tesi/Firmware_Software/DAVE project/S2GLP_Pulsed_Doppler/Libraries/XMCLib/inc\xmc_dac.h ****  * Different modes of DAC operation are defined by enum XMC_DAC_CH_MODE_t.
1023:C:/Users/Utente/Desktop/Tesi/Firmware_Software/DAVE project/S2GLP_Pulsed_Doppler/Libraries/XMCLib/inc\xmc_dac.h ****  *
1024:C:/Users/Utente/Desktop/Tesi/Firmware_Software/DAVE project/S2GLP_Pulsed_Doppler/Libraries/XMCLib/inc\xmc_dac.h ****  */
1025:C:/Users/Utente/Desktop/Tesi/Firmware_Software/DAVE project/S2GLP_Pulsed_Doppler/Libraries/XMCLib/inc\xmc_dac.h **** __STATIC_INLINE void XMC_DAC_CH_SetMode(XMC_DAC_t *const dac, const uint8_t channel, const XMC_DAC_
1026:C:/Users/Utente/Desktop/Tesi/Firmware_Software/DAVE project/S2GLP_Pulsed_Doppler/Libraries/XMCLib/inc\xmc_dac.h **** {
1027:C:/Users/Utente/Desktop/Tesi/Firmware_Software/DAVE project/S2GLP_Pulsed_Doppler/Libraries/XMCLib/inc\xmc_dac.h ****   XMC_ASSERT("XMC_DAC_CH_SetMode: dac parameter not valid\n", XMC_DAC_IS_DAC_VALID(dac));
1028:C:/Users/Utente/Desktop/Tesi/Firmware_Software/DAVE project/S2GLP_Pulsed_Doppler/Libraries/XMCLib/inc\xmc_dac.h ****   XMC_ASSERT("XMC_DAC_CH_SetMode: channel parameter not valid\n", XMC_DAC_IS_CHANNEL_VALID(channel)
1029:C:/Users/Utente/Desktop/Tesi/Firmware_Software/DAVE project/S2GLP_Pulsed_Doppler/Libraries/XMCLib/inc\xmc_dac.h ****   XMC_ASSERT("XMC_DAC_CH_SetMode: trigger parameter not valid\n", XMC_DAC_IS_MODE_VALID(mode));
1030:C:/Users/Utente/Desktop/Tesi/Firmware_Software/DAVE project/S2GLP_Pulsed_Doppler/Libraries/XMCLib/inc\xmc_dac.h ****     
1031:C:/Users/Utente/Desktop/Tesi/Firmware_Software/DAVE project/S2GLP_Pulsed_Doppler/Libraries/XMCLib/inc\xmc_dac.h ****   dac->DACCFG[channel].low = (dac->DACCFG[channel].low & ~DAC_DAC0CFG0_MODE_Msk) |
 388              	 .loc 2 1031 0
 389 0006 4B68     	 ldr r3,[r1,#4]
 390 0008 23F4E003 	 bic r3,r3,#7340032
 391 000c 43F48013 	 orr r3,r3,#1048576
 392 0010 4B60     	 str r3,[r1,#4]
 393              	.LBE61:
 394              	.LBE60:
 395              	 .loc 1 184 0
 396 0012 7047     	 bx lr
 397              	 .cfi_endproc
 398              	.LFE196:
 400              	 .section .text.XMC_DAC_CH_StartDataMode,"ax",%progbits
 401              	 .align 2
 402              	 .global XMC_DAC_CH_StartDataMode
 403              	 .thumb
 404              	 .thumb_func
 406              	XMC_DAC_CH_StartDataMode:
 407              	.LFB197:
 185:../Libraries/XMCLib/src/xmc_dac.c **** 
 186:../Libraries/XMCLib/src/xmc_dac.c **** /* API to start the operation in Data Mode. */
 187:../Libraries/XMCLib/src/xmc_dac.c **** XMC_DAC_CH_STATUS_t XMC_DAC_CH_StartDataMode(XMC_DAC_t *const dac,
 188:../Libraries/XMCLib/src/xmc_dac.c ****                                              const uint8_t channel,
 189:../Libraries/XMCLib/src/xmc_dac.c ****                                              const XMC_DAC_CH_TRIGGER_t trigger,
 190:../Libraries/XMCLib/src/xmc_dac.c ****                                              const uint32_t frequency)
 191:../Libraries/XMCLib/src/xmc_dac.c **** {
 408              	 .loc 1 191 0
 409              	 .cfi_startproc
 410              	 
 411              	 
 412              	.LVL44:
 413 0000 70B5     	 push {r4,r5,r6,lr}
 414              	.LCFI8:
 415              	 .cfi_def_cfa_offset 16
 416              	 .cfi_offset 4,-16
 417              	 .cfi_offset 5,-12
 418              	 .cfi_offset 6,-8
 419              	 .cfi_offset 14,-4
 420 0002 00EBC104 	 add r4,r0,r1,lsl#3
 192:../Libraries/XMCLib/src/xmc_dac.c ****   XMC_DAC_CH_STATUS_t status = XMC_DAC_CH_STATUS_OK;
 193:../Libraries/XMCLib/src/xmc_dac.c **** 
 194:../Libraries/XMCLib/src/xmc_dac.c ****   XMC_ASSERT("XMC_DAC_CH_StartDataMode: dac parameter not valid\n", XMC_DAC_IS_DAC_VALID(dac));
 195:../Libraries/XMCLib/src/xmc_dac.c ****   XMC_ASSERT("XMC_DAC_CH_StartDataMode: channel parameter not valid\n", XMC_DAC_IS_CHANNEL_VALID(ch
 196:../Libraries/XMCLib/src/xmc_dac.c ****   XMC_ASSERT("XMC_DAC_CH_StartDataMode: dac module not enabled\n", XMC_DAC_IsEnabled(dac));
 197:../Libraries/XMCLib/src/xmc_dac.c **** 
 198:../Libraries/XMCLib/src/xmc_dac.c ****   XMC_DAC_CH_SetMode(dac, channel, XMC_DAC_CH_MODE_IDLE);
 199:../Libraries/XMCLib/src/xmc_dac.c **** 
 200:../Libraries/XMCLib/src/xmc_dac.c ****   if (trigger == XMC_DAC_CH_TRIGGER_INTERNAL)
 421              	 .loc 1 200 0
 422 0006 1546     	 mov r5,r2
 423              	.LBB62:
 424              	.LBB63:
 425              	 .loc 2 1031 0
 426 0008 6168     	 ldr r1,[r4,#4]
 427              	.LVL45:
 428 000a 21F4E001 	 bic r1,r1,#7340032
 429 000e 6160     	 str r1,[r4,#4]
 430              	.LBE63:
 431              	.LBE62:
 432              	 .loc 1 200 0
 433 0010 6AB1     	 cbz r2,.L42
 434              	.LVL46:
 435              	.L35:
 436              	.LBB64:
 437              	.LBB65:
 930:C:/Users/Utente/Desktop/Tesi/Firmware_Software/DAVE project/S2GLP_Pulsed_Doppler/Libraries/XMCLib/inc\xmc_dac.h ****                               trigger;
 438              	 .loc 2 930 0
 439 0012 A368     	 ldr r3,[r4,#8]
 440 0014 23F4CE23 	 bic r3,r3,#421888
 441 0018 45EA0302 	 orr r2,r5,r3
 442 001c A260     	 str r2,[r4,#8]
 443              	.LVL47:
 444              	.LBE65:
 445              	.LBE64:
 446              	.LBB66:
 447              	.LBB67:
 448              	 .loc 2 1031 0
 449 001e 6368     	 ldr r3,[r4,#4]
 450 0020 23F4E003 	 bic r3,r3,#7340032
 451 0024 43F40013 	 orr r3,r3,#2097152
 452 0028 6360     	 str r3,[r4,#4]
 453 002a 0020     	 movs r0,#0
 454 002c 70BD     	 pop {r4,r5,r6,pc}
 455              	.LVL48:
 456              	.L42:
 457 002e 1E46     	 mov r6,r3
 458              	.LVL49:
 459              	.LBE67:
 460              	.LBE66:
 461              	.LBB68:
 462              	.LBB69:
 141:../Libraries/XMCLib/src/xmc_dac.c **** 
 463              	 .loc 1 141 0
 464 0030 FFF7FEFF 	 bl XMC_SCU_CLOCK_GetPeripheralClockFrequency
 465              	.LVL50:
 466 0034 B0FBF6F0 	 udiv r0,r0,r6
 467              	.LVL51:
 143:../Libraries/XMCLib/src/xmc_dac.c ****   {
 468              	 .loc 1 143 0
 469 0038 0F28     	 cmp r0,#15
 470 003a 08D9     	 bls .L38
 147:../Libraries/XMCLib/src/xmc_dac.c ****   {
 471              	 .loc 1 147 0
 472 003c B0F5801F 	 cmp r0,#1048576
 473 0040 07D2     	 bcs .L39
 152:../Libraries/XMCLib/src/xmc_dac.c ****                                (divider << DAC_DAC0CFG0_FREQ_Pos);
 474              	 .loc 1 152 0
 475 0042 6668     	 ldr r6,[r4,#4]
 476              	.LVL52:
 477 0044 360D     	 lsrs r6,r6,#20
 478 0046 3605     	 lsls r6,r6,#20
 479 0048 0643     	 orrs r6,r6,r0
 480 004a 6660     	 str r6,[r4,#4]
 481              	.LVL53:
 482 004c E1E7     	 b .L35
 483              	.LVL54:
 484              	.L38:
 145:../Libraries/XMCLib/src/xmc_dac.c ****   }
 485              	 .loc 1 145 0
 486 004e 0420     	 movs r0,#4
 487              	.LVL55:
 488 0050 70BD     	 pop {r4,r5,r6,pc}
 489              	.LVL56:
 490              	.L39:
 149:../Libraries/XMCLib/src/xmc_dac.c ****   }
 491              	 .loc 1 149 0
 492 0052 0320     	 movs r0,#3
 493              	.LVL57:
 494              	.LBE69:
 495              	.LBE68:
 201:../Libraries/XMCLib/src/xmc_dac.c ****   {
 202:../Libraries/XMCLib/src/xmc_dac.c ****     status = XMC_DAC_CH_SetFrequency(dac, channel, frequency);
 203:../Libraries/XMCLib/src/xmc_dac.c ****   }
 204:../Libraries/XMCLib/src/xmc_dac.c **** 
 205:../Libraries/XMCLib/src/xmc_dac.c ****   if (status == XMC_DAC_CH_STATUS_OK)
 206:../Libraries/XMCLib/src/xmc_dac.c ****   {
 207:../Libraries/XMCLib/src/xmc_dac.c ****     XMC_DAC_CH_SetTrigger(dac, channel, trigger);
 208:../Libraries/XMCLib/src/xmc_dac.c ****     XMC_DAC_CH_SetMode(dac, channel, XMC_DAC_CH_MODE_DATA);
 209:../Libraries/XMCLib/src/xmc_dac.c ****   }
 210:../Libraries/XMCLib/src/xmc_dac.c **** 
 211:../Libraries/XMCLib/src/xmc_dac.c ****   return status;
 212:../Libraries/XMCLib/src/xmc_dac.c **** }
 496              	 .loc 1 212 0
 497 0054 70BD     	 pop {r4,r5,r6,pc}
 498              	 .cfi_endproc
 499              	.LFE197:
 501 0056 00BF     	 .section .text.XMC_DAC_CH_StartRampMode,"ax",%progbits
 502              	 .align 2
 503              	 .global XMC_DAC_CH_StartRampMode
 504              	 .thumb
 505              	 .thumb_func
 507              	XMC_DAC_CH_StartRampMode:
 508              	.LFB198:
 213:../Libraries/XMCLib/src/xmc_dac.c **** 
 214:../Libraries/XMCLib/src/xmc_dac.c **** /* API to start the operation in Ramp Mode. */
 215:../Libraries/XMCLib/src/xmc_dac.c **** XMC_DAC_CH_STATUS_t XMC_DAC_CH_StartRampMode(XMC_DAC_t *const dac,
 216:../Libraries/XMCLib/src/xmc_dac.c ****                                              const uint8_t channel,
 217:../Libraries/XMCLib/src/xmc_dac.c ****                                              const uint16_t start,
 218:../Libraries/XMCLib/src/xmc_dac.c ****                                              const uint16_t stop,
 219:../Libraries/XMCLib/src/xmc_dac.c ****                                              const XMC_DAC_CH_TRIGGER_t trigger,
 220:../Libraries/XMCLib/src/xmc_dac.c ****                                              const uint32_t frequency)
 221:../Libraries/XMCLib/src/xmc_dac.c **** {
 509              	 .loc 1 221 0
 510              	 .cfi_startproc
 511              	 
 512              	 
 513              	.LVL58:
 514 0000 F8B5     	 push {r3,r4,r5,r6,r7,lr}
 515              	.LCFI9:
 516              	 .cfi_def_cfa_offset 24
 517              	 .cfi_offset 3,-24
 518              	 .cfi_offset 4,-20
 519              	 .cfi_offset 5,-16
 520              	 .cfi_offset 6,-12
 521              	 .cfi_offset 7,-8
 522              	 .cfi_offset 14,-4
 523 0002 00EBC104 	 add r4,r0,r1,lsl#3
 524 0006 00EB8105 	 add r5,r0,r1,lsl#2
 525              	.LBB84:
 526              	.LBB85:
 527              	 .loc 2 1031 0
 528 000a 6768     	 ldr r7,[r4,#4]
 529              	.LBE85:
 530              	.LBE84:
 531              	 .loc 1 221 0
 532 000c 069E     	 ldr r6,[sp,#24]
 533              	.LBB87:
 534              	.LBB86:
 535              	 .loc 2 1031 0
 536 000e 27F4E007 	 bic r7,r7,#7340032
 537 0012 6760     	 str r7,[r4,#4]
 538              	.LVL59:
 539              	.LBE86:
 540              	.LBE87:
 541              	.LBB88:
 542              	.LBB89:
 828:C:/Users/Utente/Desktop/Tesi/Firmware_Software/DAVE project/S2GLP_Pulsed_Doppler/Libraries/XMCLib/inc\xmc_dac.h **** }
 543              	 .loc 2 828 0
 544 0014 6A61     	 str r2,[r5,#20]
 545              	.LVL60:
 546              	.LBE89:
 547              	.LBE88:
 548              	.LBB90:
 549              	.LBB91:
 881:C:/Users/Utente/Desktop/Tesi/Firmware_Software/DAVE project/S2GLP_Pulsed_Doppler/Libraries/XMCLib/inc\xmc_dac.h ****                (stop << (channel * DAC_DAC01DATA_DATA1_Pos));
 550              	 .loc 2 881 0
 551 0016 C269     	 ldr r2,[r0,#28]
 552              	.LVL61:
 553 0018 0901     	 lsls r1,r1,#4
 554              	.LVL62:
 555 001a 40F6FF77 	 movw r7,#4095
 556 001e 8F40     	 lsls r7,r7,r1
 882:C:/Users/Utente/Desktop/Tesi/Firmware_Software/DAVE project/S2GLP_Pulsed_Doppler/Libraries/XMCLib/inc\xmc_dac.h **** }
 557              	 .loc 2 882 0
 558 0020 8B40     	 lsls r3,r3,r1
 559              	.LVL63:
 881:C:/Users/Utente/Desktop/Tesi/Firmware_Software/DAVE project/S2GLP_Pulsed_Doppler/Libraries/XMCLib/inc\xmc_dac.h ****                (stop << (channel * DAC_DAC01DATA_DATA1_Pos));
 560              	 .loc 2 881 0
 561 0022 22EA0702 	 bic r2,r2,r7
 562 0026 1343     	 orrs r3,r3,r2
 563 0028 C361     	 str r3,[r0,#28]
 564              	.LVL64:
 565              	.LBE91:
 566              	.LBE90:
 567              	.LBB92:
 568              	.LBB93:
 930:C:/Users/Utente/Desktop/Tesi/Firmware_Software/DAVE project/S2GLP_Pulsed_Doppler/Libraries/XMCLib/inc\xmc_dac.h ****                               trigger;
 569              	 .loc 2 930 0
 570 002a A368     	 ldr r3,[r4,#8]
 571 002c 23F4CE23 	 bic r3,r3,#421888
 572 0030 3343     	 orrs r3,r3,r6
 573 0032 A360     	 str r3,[r4,#8]
 574              	.LBE93:
 575              	.LBE92:
 222:../Libraries/XMCLib/src/xmc_dac.c ****   XMC_DAC_CH_STATUS_t status = XMC_DAC_CH_STATUS_OK;
 223:../Libraries/XMCLib/src/xmc_dac.c **** 
 224:../Libraries/XMCLib/src/xmc_dac.c ****   XMC_ASSERT("XMC_DAC_CH_StartRampMode: dac parameter not valid\n", XMC_DAC_IS_DAC_VALID(dac));
 225:../Libraries/XMCLib/src/xmc_dac.c ****   XMC_ASSERT("XMC_DAC_CH_StartRampMode: channel parameter not valid\n", XMC_DAC_IS_CHANNEL_VALID(ch
 226:../Libraries/XMCLib/src/xmc_dac.c ****   XMC_ASSERT("XMC_DAC_CH_StartRampMode: dac module not enabled\n", XMC_DAC_IsEnabled(dac));
 227:../Libraries/XMCLib/src/xmc_dac.c **** 
 228:../Libraries/XMCLib/src/xmc_dac.c ****   XMC_DAC_CH_SetMode(dac, channel, XMC_DAC_CH_MODE_IDLE);
 229:../Libraries/XMCLib/src/xmc_dac.c **** 
 230:../Libraries/XMCLib/src/xmc_dac.c ****   XMC_DAC_CH_SetRampStart(dac, channel, start);
 231:../Libraries/XMCLib/src/xmc_dac.c ****   XMC_DAC_CH_SetRampStop(dac, channel, stop);
 232:../Libraries/XMCLib/src/xmc_dac.c ****   XMC_DAC_CH_SetTrigger(dac, channel, trigger);
 233:../Libraries/XMCLib/src/xmc_dac.c **** 
 234:../Libraries/XMCLib/src/xmc_dac.c ****   if (trigger == XMC_DAC_CH_TRIGGER_INTERNAL)
 576              	 .loc 1 234 0
 577 0034 3EB1     	 cbz r6,.L51
 578              	.LVL65:
 579              	.L44:
 580              	.LBB94:
 581              	.LBB95:
 582              	 .loc 2 1031 0
 583 0036 6368     	 ldr r3,[r4,#4]
 584 0038 23F4E003 	 bic r3,r3,#7340032
 585 003c 43F4A003 	 orr r3,r3,#5242880
 586 0040 6360     	 str r3,[r4,#4]
 587 0042 0020     	 movs r0,#0
 588 0044 F8BD     	 pop {r3,r4,r5,r6,r7,pc}
 589              	.LVL66:
 590              	.L51:
 591              	.LBE95:
 592              	.LBE94:
 593              	.LBB96:
 594              	.LBB97:
 168:../Libraries/XMCLib/src/xmc_dac.c ****   stop = (dac->DAC01DATA >> (channel * DAC_DAC01DATA_DATA1_Pos)) & (uint32_t)DAC_DAC01DATA_DATA0_Ms
 595              	 .loc 1 168 0
 596 0046 6D69     	 ldr r5,[r5,#20]
 597              	.LVL67:
 169:../Libraries/XMCLib/src/xmc_dac.c **** 
 598              	 .loc 1 169 0
 599 0048 C369     	 ldr r3,[r0,#28]
 600              	.LVL68:
 601 004a CB40     	 lsrs r3,r3,r1
 602              	.LVL69:
 603 004c C3F30B03 	 ubfx r3,r3,#0,#12
 171:../Libraries/XMCLib/src/xmc_dac.c **** }
 604              	 .loc 1 171 0
 605 0050 581B     	 subs r0,r3,r5
 606              	.LVL70:
 607 0052 079B     	 ldr r3,[sp,#28]
 608 0054 00FB0335 	 mla r5,r0,r3,r3
 609              	.LVL71:
 610              	.LBB98:
 611              	.LBB99:
 141:../Libraries/XMCLib/src/xmc_dac.c **** 
 612              	 .loc 1 141 0
 613 0058 FFF7FEFF 	 bl XMC_SCU_CLOCK_GetPeripheralClockFrequency
 614              	.LVL72:
 615 005c B0FBF5F0 	 udiv r0,r0,r5
 616              	.LVL73:
 143:../Libraries/XMCLib/src/xmc_dac.c ****   {
 617              	 .loc 1 143 0
 618 0060 0F28     	 cmp r0,#15
 619 0062 01D8     	 bhi .L52
 145:../Libraries/XMCLib/src/xmc_dac.c ****   }
 620              	 .loc 1 145 0
 621 0064 0420     	 movs r0,#4
 622              	.LVL74:
 623 0066 F8BD     	 pop {r3,r4,r5,r6,r7,pc}
 624              	.LVL75:
 625              	.L52:
 147:../Libraries/XMCLib/src/xmc_dac.c ****   {
 626              	 .loc 1 147 0
 627 0068 B0F5801F 	 cmp r0,#1048576
 628 006c 01D3     	 bcc .L53
 149:../Libraries/XMCLib/src/xmc_dac.c ****   }
 629              	 .loc 1 149 0
 630 006e 0320     	 movs r0,#3
 631              	.LVL76:
 632              	.LBE99:
 633              	.LBE98:
 634              	.LBE97:
 635              	.LBE96:
 235:../Libraries/XMCLib/src/xmc_dac.c ****   {
 236:../Libraries/XMCLib/src/xmc_dac.c ****     status = XMC_DAC_CH_SetRampFrequency(dac, channel, frequency);
 237:../Libraries/XMCLib/src/xmc_dac.c ****   }
 238:../Libraries/XMCLib/src/xmc_dac.c **** 
 239:../Libraries/XMCLib/src/xmc_dac.c ****   if (status == XMC_DAC_CH_STATUS_OK)
 240:../Libraries/XMCLib/src/xmc_dac.c ****   {
 241:../Libraries/XMCLib/src/xmc_dac.c ****     XMC_DAC_CH_SetMode(dac, channel, XMC_DAC_CH_MODE_RAMP);
 242:../Libraries/XMCLib/src/xmc_dac.c ****   }
 243:../Libraries/XMCLib/src/xmc_dac.c **** 
 244:../Libraries/XMCLib/src/xmc_dac.c ****   return status;
 245:../Libraries/XMCLib/src/xmc_dac.c **** }
 636              	 .loc 1 245 0
 637 0070 F8BD     	 pop {r3,r4,r5,r6,r7,pc}
 638              	.LVL77:
 639              	.L53:
 640              	.LBB103:
 641              	.LBB102:
 642              	.LBB101:
 643              	.LBB100:
 152:../Libraries/XMCLib/src/xmc_dac.c ****                                (divider << DAC_DAC0CFG0_FREQ_Pos);
 644              	 .loc 1 152 0
 645 0072 6368     	 ldr r3,[r4,#4]
 646 0074 1B0D     	 lsrs r3,r3,#20
 647 0076 1B05     	 lsls r3,r3,#20
 648 0078 1843     	 orrs r0,r0,r3
 649              	.LVL78:
 650 007a 6060     	 str r0,[r4,#4]
 651              	.LVL79:
 652 007c DBE7     	 b .L44
 653              	.LBE100:
 654              	.LBE101:
 655              	.LBE102:
 656              	.LBE103:
 657              	 .cfi_endproc
 658              	.LFE198:
 660 007e 00BF     	 .section .text.XMC_DAC_CH_StartPatternMode,"ax",%progbits
 661              	 .align 2
 662              	 .global XMC_DAC_CH_StartPatternMode
 663              	 .thumb
 664              	 .thumb_func
 666              	XMC_DAC_CH_StartPatternMode:
 667              	.LFB199:
 246:../Libraries/XMCLib/src/xmc_dac.c **** 
 247:../Libraries/XMCLib/src/xmc_dac.c **** /* API to start the operation in Pattern Mode. */
 248:../Libraries/XMCLib/src/xmc_dac.c **** XMC_DAC_CH_STATUS_t XMC_DAC_CH_StartPatternMode(XMC_DAC_t *const dac,
 249:../Libraries/XMCLib/src/xmc_dac.c ****                                                 const uint8_t channel,
 250:../Libraries/XMCLib/src/xmc_dac.c ****                                                 const uint8_t *const pattern,
 251:../Libraries/XMCLib/src/xmc_dac.c ****                                                 const XMC_DAC_CH_PATTERN_SIGN_OUTPUT_t sign_output,
 252:../Libraries/XMCLib/src/xmc_dac.c ****                                                 const XMC_DAC_CH_TRIGGER_t trigger,
 253:../Libraries/XMCLib/src/xmc_dac.c ****                                                 const uint32_t frequency)
 254:../Libraries/XMCLib/src/xmc_dac.c **** {
 668              	 .loc 1 254 0
 669              	 .cfi_startproc
 670              	 
 671              	 
 672              	.LVL80:
 673 0000 2DE9F041 	 push {r4,r5,r6,r7,r8,lr}
 674              	.LCFI10:
 675              	 .cfi_def_cfa_offset 24
 676              	 .cfi_offset 4,-24
 677              	 .cfi_offset 5,-20
 678              	 .cfi_offset 6,-16
 679              	 .cfi_offset 7,-12
 680              	 .cfi_offset 8,-8
 681              	 .cfi_offset 14,-4
 682 0004 00EBC107 	 add r7,r0,r1,lsl#3
 683              	 .loc 1 254 0
 684 0008 069D     	 ldr r5,[sp,#24]
 685              	.LBB118:
 686              	.LBB119:
 687              	 .loc 2 1031 0
 688 000a 7968     	 ldr r1,[r7,#4]
 689              	.LVL81:
 690 000c 21F4E001 	 bic r1,r1,#7340032
 691              	.LBE119:
 692              	.LBE118:
 693              	 .loc 1 254 0
 694 0010 1446     	 mov r4,r2
 695 0012 9846     	 mov r8,r3
 696              	.LBB121:
 697              	.LBB120:
 698              	 .loc 2 1031 0
 699 0014 7960     	 str r1,[r7,#4]
 700              	.LBE120:
 701              	.LBE121:
 255:../Libraries/XMCLib/src/xmc_dac.c ****   XMC_DAC_CH_STATUS_t status = XMC_DAC_CH_STATUS_OK;
 256:../Libraries/XMCLib/src/xmc_dac.c **** 
 257:../Libraries/XMCLib/src/xmc_dac.c ****   XMC_ASSERT("XMC_DAC_CH_StartPatternMode: dac parameter not valid\n", XMC_DAC_IS_DAC_VALID(dac));
 258:../Libraries/XMCLib/src/xmc_dac.c ****   XMC_ASSERT("XMC_DAC_CH_StartPatternMode: channel parameter not valid\n", XMC_DAC_IS_CHANNEL_VALID
 259:../Libraries/XMCLib/src/xmc_dac.c ****   XMC_ASSERT("XMC_DAC_CH_StartPatternMode: dac module not enabled\n", XMC_DAC_IsEnabled(dac));
 260:../Libraries/XMCLib/src/xmc_dac.c **** 
 261:../Libraries/XMCLib/src/xmc_dac.c ****   XMC_DAC_CH_SetMode(dac, channel, XMC_DAC_CH_MODE_IDLE);
 262:../Libraries/XMCLib/src/xmc_dac.c **** 
 263:../Libraries/XMCLib/src/xmc_dac.c ****   if (trigger == XMC_DAC_CH_TRIGGER_INTERNAL)
 702              	 .loc 1 263 0
 703 0016 002D     	 cmp r5,#0
 704 0018 38D0     	 beq .L67
 705              	.LVL82:
 706              	.L55:
 707              	.LBB122:
 708              	.LBB123:
 264:../Libraries/XMCLib/src/xmc_dac.c ****   {
 265:../Libraries/XMCLib/src/xmc_dac.c ****     status = XMC_DAC_CH_SetFrequency(dac, channel, frequency * XMC_DAC_SAMPLES_PER_PERIOD);
 266:../Libraries/XMCLib/src/xmc_dac.c ****   }
 267:../Libraries/XMCLib/src/xmc_dac.c **** 
 268:../Libraries/XMCLib/src/xmc_dac.c ****   if (status == XMC_DAC_CH_STATUS_OK)
 269:../Libraries/XMCLib/src/xmc_dac.c ****   {
 270:../Libraries/XMCLib/src/xmc_dac.c ****     XMC_DAC_CH_SetPattern(dac, channel, pattern);
 271:../Libraries/XMCLib/src/xmc_dac.c ****     if (XMC_DAC_CH_PATTERN_SIGN_OUTPUT_ENABLED == sign_output)
 272:../Libraries/XMCLib/src/xmc_dac.c ****     {
 273:../Libraries/XMCLib/src/xmc_dac.c ****       XMC_DAC_CH_EnablePatternSignOutput(dac, channel);
 274:../Libraries/XMCLib/src/xmc_dac.c ****     }
 275:../Libraries/XMCLib/src/xmc_dac.c ****     else
 276:../Libraries/XMCLib/src/xmc_dac.c ****     {
 277:../Libraries/XMCLib/src/xmc_dac.c ****       XMC_DAC_CH_DisablePatternSignOutput(dac, channel);
 278:../Libraries/XMCLib/src/xmc_dac.c ****     }
 279:../Libraries/XMCLib/src/xmc_dac.c ****     XMC_DAC_CH_SetTrigger(dac, channel, trigger);
 280:../Libraries/XMCLib/src/xmc_dac.c ****     XMC_DAC_CH_SetMode(dac, channel, XMC_DAC_CH_MODE_PATTERN);
 281:../Libraries/XMCLib/src/xmc_dac.c ****   }
 282:../Libraries/XMCLib/src/xmc_dac.c **** 
 283:../Libraries/XMCLib/src/xmc_dac.c ****   return status;
 284:../Libraries/XMCLib/src/xmc_dac.c **** }
 285:../Libraries/XMCLib/src/xmc_dac.c **** 
 286:../Libraries/XMCLib/src/xmc_dac.c **** /* API to start the operation in Noise Mode. */
 287:../Libraries/XMCLib/src/xmc_dac.c **** XMC_DAC_CH_STATUS_t XMC_DAC_CH_StartNoiseMode(XMC_DAC_t *const dac,
 288:../Libraries/XMCLib/src/xmc_dac.c ****                                               const uint8_t channel,
 289:../Libraries/XMCLib/src/xmc_dac.c ****                                               const XMC_DAC_CH_TRIGGER_t trigger,
 290:../Libraries/XMCLib/src/xmc_dac.c ****                                               const uint32_t frequency)
 291:../Libraries/XMCLib/src/xmc_dac.c **** {
 292:../Libraries/XMCLib/src/xmc_dac.c ****   XMC_DAC_CH_STATUS_t status = XMC_DAC_CH_STATUS_OK;
 293:../Libraries/XMCLib/src/xmc_dac.c **** 
 294:../Libraries/XMCLib/src/xmc_dac.c ****   XMC_ASSERT("XMC_DAC_CH_StartNoiseMode: dac parameter not valid\n", XMC_DAC_IS_DAC_VALID(dac));
 295:../Libraries/XMCLib/src/xmc_dac.c ****   XMC_ASSERT("XMC_DAC_CH_StartNoiseMode: channel parameter not valid\n", XMC_DAC_IS_CHANNEL_VALID(c
 296:../Libraries/XMCLib/src/xmc_dac.c ****   XMC_ASSERT("XMC_DAC_CH_StartNoiseMode: dac module not enabled\n", XMC_DAC_IsEnabled(dac));
 297:../Libraries/XMCLib/src/xmc_dac.c **** 
 298:../Libraries/XMCLib/src/xmc_dac.c ****   XMC_DAC_CH_SetMode(dac, channel, XMC_DAC_CH_MODE_IDLE);
 299:../Libraries/XMCLib/src/xmc_dac.c **** 
 300:../Libraries/XMCLib/src/xmc_dac.c ****   if (trigger == XMC_DAC_CH_TRIGGER_INTERNAL)
 301:../Libraries/XMCLib/src/xmc_dac.c ****   {
 302:../Libraries/XMCLib/src/xmc_dac.c ****     status = XMC_DAC_CH_SetFrequency(dac, channel, frequency);
 303:../Libraries/XMCLib/src/xmc_dac.c ****   }
 304:../Libraries/XMCLib/src/xmc_dac.c **** 
 305:../Libraries/XMCLib/src/xmc_dac.c ****   if (status == XMC_DAC_CH_STATUS_OK)
 306:../Libraries/XMCLib/src/xmc_dac.c ****   {
 307:../Libraries/XMCLib/src/xmc_dac.c ****     XMC_DAC_CH_SetTrigger(dac, channel, trigger);
 308:../Libraries/XMCLib/src/xmc_dac.c ****     XMC_DAC_CH_SetMode(dac, channel, XMC_DAC_CH_MODE_NOISE);
 309:../Libraries/XMCLib/src/xmc_dac.c ****   }
 310:../Libraries/XMCLib/src/xmc_dac.c **** 
 311:../Libraries/XMCLib/src/xmc_dac.c ****   return status;
 312:../Libraries/XMCLib/src/xmc_dac.c **** }
 313:../Libraries/XMCLib/src/xmc_dac.c **** 
 314:../Libraries/XMCLib/src/xmc_dac.c **** /* API to write the pattern data table. */
 315:../Libraries/XMCLib/src/xmc_dac.c **** void XMC_DAC_CH_SetPattern(XMC_DAC_t *const dac, uint8_t channel, const uint8_t *const data)
 316:../Libraries/XMCLib/src/xmc_dac.c **** {
 317:../Libraries/XMCLib/src/xmc_dac.c ****   uint32_t index;
 318:../Libraries/XMCLib/src/xmc_dac.c ****   uint32_t temp;
 319:../Libraries/XMCLib/src/xmc_dac.c **** 
 320:../Libraries/XMCLib/src/xmc_dac.c ****   XMC_ASSERT("XMC_DAC_CH_SetPattern: dac parameter not valid\n", XMC_DAC_IS_DAC_VALID(dac));
 321:../Libraries/XMCLib/src/xmc_dac.c ****   XMC_ASSERT("XMC_DAC_CH_SetPattern: channel parameter not valid\n", XMC_DAC_IS_CHANNEL_VALID(chann
 322:../Libraries/XMCLib/src/xmc_dac.c ****   XMC_ASSERT("XMC_DAC_CH_SetPattern: dac module not enabled\n", XMC_DAC_IsEnabled(dac));
 323:../Libraries/XMCLib/src/xmc_dac.c **** 
 324:../Libraries/XMCLib/src/xmc_dac.c ****   temp = data[0U];
 325:../Libraries/XMCLib/src/xmc_dac.c ****   for(index = 1U; index < 6U; ++index)
 326:../Libraries/XMCLib/src/xmc_dac.c ****   {
 327:../Libraries/XMCLib/src/xmc_dac.c ****     temp |= (uint32_t)data[index] << (index * XMC_DAC_DAC0PATL_PAT_BITSIZE);
 709              	 .loc 1 327 0
 710 001a A378     	 ldrb r3,[r4,#2]
 711 001c 94F801E0 	 ldrb lr,[r4,#1]
 324:../Libraries/XMCLib/src/xmc_dac.c ****   for(index = 1U; index < 6U; ++index)
 712              	 .loc 1 324 0
 713 0020 2078     	 ldrb r0,[r4]
 714              	.LVL83:
 715              	 .loc 1 327 0
 716 0022 E178     	 ldrb r1,[r4,#3]
 717 0024 2279     	 ldrb r2,[r4,#4]
 718 0026 6679     	 ldrb r6,[r4,#5]
 719 0028 9B02     	 lsls r3,r3,#10
 720 002a 43EA4E13 	 orr r3,r3,lr,lsl#5
 721 002e 0343     	 orrs r3,r3,r0
 722              	.LVL84:
 723 0030 43EAC131 	 orr r1,r3,r1,lsl#15
 724              	.LVL85:
 725 0034 41EA0252 	 orr r2,r1,r2,lsl#20
 726              	.LVL86:
 727 0038 42EA4662 	 orr r2,r2,r6,lsl#25
 728              	.LVL87:
 328:../Libraries/XMCLib/src/xmc_dac.c ****   }
 329:../Libraries/XMCLib/src/xmc_dac.c ****   dac->DACPAT[channel].low = temp;
 729              	 .loc 1 329 0
 730 003c 3A62     	 str r2,[r7,#32]
 330:../Libraries/XMCLib/src/xmc_dac.c **** 
 331:../Libraries/XMCLib/src/xmc_dac.c ****   temp = data[6U];
 332:../Libraries/XMCLib/src/xmc_dac.c ****   for(index = 1U; index < 6U; ++index)
 333:../Libraries/XMCLib/src/xmc_dac.c ****   {
 334:../Libraries/XMCLib/src/xmc_dac.c ****     temp |= (uint32_t)data[index + 6U] << (index * XMC_DAC_DAC0PATL_PAT_BITSIZE);
 731              	 .loc 1 334 0
 732 003e 237A     	 ldrb r3,[r4,#8]
 733 0040 E079     	 ldrb r0,[r4,#7]
 331:../Libraries/XMCLib/src/xmc_dac.c ****   for(index = 1U; index < 6U; ++index)
 734              	 .loc 1 331 0
 735 0042 A679     	 ldrb r6,[r4,#6]
 736              	.LVL88:
 737              	 .loc 1 334 0
 738 0044 94F809E0 	 ldrb lr,[r4,#9]
 739 0048 A27A     	 ldrb r2,[r4,#10]
 740 004a E17A     	 ldrb r1,[r4,#11]
 741 004c 9B02     	 lsls r3,r3,#10
 742 004e 43EA4010 	 orr r0,r3,r0,lsl#5
 743 0052 3043     	 orrs r0,r0,r6
 744              	.LVL89:
 745 0054 40EACE30 	 orr r0,r0,lr,lsl#15
 746              	.LVL90:
 747 0058 40EA0252 	 orr r2,r0,r2,lsl#20
 748              	.LVL91:
 749 005c 42EA4162 	 orr r2,r2,r1,lsl#25
 750              	.LVL92:
 751              	.LBE123:
 752              	.LBE122:
 271:../Libraries/XMCLib/src/xmc_dac.c ****     {
 753              	 .loc 1 271 0
 754 0060 B8F1010F 	 cmp r8,#1
 755              	.LBB125:
 756              	.LBB124:
 335:../Libraries/XMCLib/src/xmc_dac.c ****   }
 336:../Libraries/XMCLib/src/xmc_dac.c ****   dac->DACPAT[channel].high = temp;
 757              	 .loc 1 336 0
 758 0064 7A62     	 str r2,[r7,#36]
 759              	.LBE124:
 760              	.LBE125:
 271:../Libraries/XMCLib/src/xmc_dac.c ****     {
 761              	 .loc 1 271 0
 762 0066 25D0     	 beq .L68
 763              	.LVL93:
 764              	.LBB126:
 765              	.LBB127:
 800:C:/Users/Utente/Desktop/Tesi/Firmware_Software/DAVE project/S2GLP_Pulsed_Doppler/Libraries/XMCLib/inc\xmc_dac.h **** }
 766              	 .loc 2 800 0
 767 0068 7B68     	 ldr r3,[r7,#4]
 768 006a 23F00053 	 bic r3,r3,#536870912
 769 006e 7B60     	 str r3,[r7,#4]
 770              	.LVL94:
 771              	.L57:
 772              	.LBE127:
 773              	.LBE126:
 774              	.LBB128:
 775              	.LBB129:
 930:C:/Users/Utente/Desktop/Tesi/Firmware_Software/DAVE project/S2GLP_Pulsed_Doppler/Libraries/XMCLib/inc\xmc_dac.h ****                               trigger;
 776              	 .loc 2 930 0
 777 0070 BB68     	 ldr r3,[r7,#8]
 778 0072 23F4CE23 	 bic r3,r3,#421888
 779 0076 1D43     	 orrs r5,r5,r3
 780              	.LVL95:
 781 0078 BD60     	 str r5,[r7,#8]
 782              	.LVL96:
 783              	.LBE129:
 784              	.LBE128:
 785              	.LBB130:
 786              	.LBB131:
 787              	 .loc 2 1031 0
 788 007a 7B68     	 ldr r3,[r7,#4]
 789 007c 23F4E003 	 bic r3,r3,#7340032
 790 0080 43F44013 	 orr r3,r3,#3145728
 791 0084 7B60     	 str r3,[r7,#4]
 792 0086 0020     	 movs r0,#0
 793 0088 BDE8F081 	 pop {r4,r5,r6,r7,r8,pc}
 794              	.LVL97:
 795              	.L67:
 796              	.LBE131:
 797              	.LBE130:
 798              	.LBB132:
 799              	.LBB133:
 141:../Libraries/XMCLib/src/xmc_dac.c **** 
 800              	 .loc 1 141 0
 801 008c FFF7FEFF 	 bl XMC_SCU_CLOCK_GetPeripheralClockFrequency
 802              	.LVL98:
 803              	.LBE133:
 804              	.LBE132:
 265:../Libraries/XMCLib/src/xmc_dac.c ****   }
 805              	 .loc 1 265 0
 806 0090 079B     	 ldr r3,[sp,#28]
 807 0092 5B01     	 lsls r3,r3,#5
 808              	.LBB136:
 809              	.LBB134:
 141:../Libraries/XMCLib/src/xmc_dac.c **** 
 810              	 .loc 1 141 0
 811 0094 B0FBF3F0 	 udiv r0,r0,r3
 812              	.LVL99:
 143:../Libraries/XMCLib/src/xmc_dac.c ****   {
 813              	 .loc 1 143 0
 814 0098 0F28     	 cmp r0,#15
 815 009a 08D9     	 bls .L61
 147:../Libraries/XMCLib/src/xmc_dac.c ****   {
 816              	 .loc 1 147 0
 817 009c B0F5801F 	 cmp r0,#1048576
 818 00a0 0DD2     	 bcs .L62
 152:../Libraries/XMCLib/src/xmc_dac.c ****                                (divider << DAC_DAC0CFG0_FREQ_Pos);
 819              	 .loc 1 152 0
 820 00a2 7B68     	 ldr r3,[r7,#4]
 821 00a4 1B0D     	 lsrs r3,r3,#20
 822 00a6 1B05     	 lsls r3,r3,#20
 823 00a8 1843     	 orrs r0,r0,r3
 824              	.LVL100:
 825 00aa 7860     	 str r0,[r7,#4]
 826              	.LVL101:
 827 00ac B5E7     	 b .L55
 828              	.LVL102:
 829              	.L61:
 145:../Libraries/XMCLib/src/xmc_dac.c ****   }
 830              	 .loc 1 145 0
 831 00ae 0420     	 movs r0,#4
 832              	.LVL103:
 833 00b0 BDE8F081 	 pop {r4,r5,r6,r7,r8,pc}
 834              	.LVL104:
 835              	.L68:
 836              	.LBE134:
 837              	.LBE136:
 838              	.LBB137:
 839              	.LBB138:
 772:C:/Users/Utente/Desktop/Tesi/Firmware_Software/DAVE project/S2GLP_Pulsed_Doppler/Libraries/XMCLib/inc\xmc_dac.h **** }
 840              	 .loc 2 772 0
 841 00b4 7B68     	 ldr r3,[r7,#4]
 842 00b6 43F00053 	 orr r3,r3,#536870912
 843 00ba 7B60     	 str r3,[r7,#4]
 844 00bc D8E7     	 b .L57
 845              	.LVL105:
 846              	.L62:
 847              	.LBE138:
 848              	.LBE137:
 849              	.LBB139:
 850              	.LBB135:
 149:../Libraries/XMCLib/src/xmc_dac.c ****   }
 851              	 .loc 1 149 0
 852 00be 0320     	 movs r0,#3
 853              	.LVL106:
 854              	.LBE135:
 855              	.LBE139:
 284:../Libraries/XMCLib/src/xmc_dac.c **** 
 856              	 .loc 1 284 0
 857 00c0 BDE8F081 	 pop {r4,r5,r6,r7,r8,pc}
 858              	 .cfi_endproc
 859              	.LFE199:
 861              	 .section .text.XMC_DAC_CH_StartNoiseMode,"ax",%progbits
 862              	 .align 2
 863              	 .global XMC_DAC_CH_StartNoiseMode
 864              	 .thumb
 865              	 .thumb_func
 867              	XMC_DAC_CH_StartNoiseMode:
 868              	.LFB200:
 291:../Libraries/XMCLib/src/xmc_dac.c ****   XMC_DAC_CH_STATUS_t status = XMC_DAC_CH_STATUS_OK;
 869              	 .loc 1 291 0
 870              	 .cfi_startproc
 871              	 
 872              	 
 873              	.LVL107:
 874 0000 70B5     	 push {r4,r5,r6,lr}
 875              	.LCFI11:
 876              	 .cfi_def_cfa_offset 16
 877              	 .cfi_offset 4,-16
 878              	 .cfi_offset 5,-12
 879              	 .cfi_offset 6,-8
 880              	 .cfi_offset 14,-4
 881 0002 00EBC104 	 add r4,r0,r1,lsl#3
 300:../Libraries/XMCLib/src/xmc_dac.c ****   {
 882              	 .loc 1 300 0
 883 0006 1546     	 mov r5,r2
 884              	.LBB140:
 885              	.LBB141:
 886              	 .loc 2 1031 0
 887 0008 6168     	 ldr r1,[r4,#4]
 888              	.LVL108:
 889 000a 21F4E001 	 bic r1,r1,#7340032
 890 000e 6160     	 str r1,[r4,#4]
 891              	.LBE141:
 892              	.LBE140:
 300:../Libraries/XMCLib/src/xmc_dac.c ****   {
 893              	 .loc 1 300 0
 894 0010 6AB1     	 cbz r2,.L77
 895              	.LVL109:
 896              	.L70:
 897              	.LBB142:
 898              	.LBB143:
 930:C:/Users/Utente/Desktop/Tesi/Firmware_Software/DAVE project/S2GLP_Pulsed_Doppler/Libraries/XMCLib/inc\xmc_dac.h ****                               trigger;
 899              	 .loc 2 930 0
 900 0012 A368     	 ldr r3,[r4,#8]
 901 0014 23F4CE23 	 bic r3,r3,#421888
 902 0018 45EA0302 	 orr r2,r5,r3
 903 001c A260     	 str r2,[r4,#8]
 904              	.LVL110:
 905              	.LBE143:
 906              	.LBE142:
 907              	.LBB144:
 908              	.LBB145:
 909              	 .loc 2 1031 0
 910 001e 6368     	 ldr r3,[r4,#4]
 911 0020 23F4E003 	 bic r3,r3,#7340032
 912 0024 43F48003 	 orr r3,r3,#4194304
 913 0028 6360     	 str r3,[r4,#4]
 914 002a 0020     	 movs r0,#0
 915 002c 70BD     	 pop {r4,r5,r6,pc}
 916              	.LVL111:
 917              	.L77:
 918 002e 1E46     	 mov r6,r3
 919              	.LVL112:
 920              	.LBE145:
 921              	.LBE144:
 922              	.LBB146:
 923              	.LBB147:
 141:../Libraries/XMCLib/src/xmc_dac.c **** 
 924              	 .loc 1 141 0
 925 0030 FFF7FEFF 	 bl XMC_SCU_CLOCK_GetPeripheralClockFrequency
 926              	.LVL113:
 927 0034 B0FBF6F0 	 udiv r0,r0,r6
 928              	.LVL114:
 143:../Libraries/XMCLib/src/xmc_dac.c ****   {
 929              	 .loc 1 143 0
 930 0038 0F28     	 cmp r0,#15
 931 003a 08D9     	 bls .L73
 147:../Libraries/XMCLib/src/xmc_dac.c ****   {
 932              	 .loc 1 147 0
 933 003c B0F5801F 	 cmp r0,#1048576
 934 0040 07D2     	 bcs .L74
 152:../Libraries/XMCLib/src/xmc_dac.c ****                                (divider << DAC_DAC0CFG0_FREQ_Pos);
 935              	 .loc 1 152 0
 936 0042 6668     	 ldr r6,[r4,#4]
 937              	.LVL115:
 938 0044 360D     	 lsrs r6,r6,#20
 939 0046 3605     	 lsls r6,r6,#20
 940 0048 0643     	 orrs r6,r6,r0
 941 004a 6660     	 str r6,[r4,#4]
 942              	.LVL116:
 943 004c E1E7     	 b .L70
 944              	.LVL117:
 945              	.L73:
 145:../Libraries/XMCLib/src/xmc_dac.c ****   }
 946              	 .loc 1 145 0
 947 004e 0420     	 movs r0,#4
 948              	.LVL118:
 949 0050 70BD     	 pop {r4,r5,r6,pc}
 950              	.LVL119:
 951              	.L74:
 149:../Libraries/XMCLib/src/xmc_dac.c ****   }
 952              	 .loc 1 149 0
 953 0052 0320     	 movs r0,#3
 954              	.LVL120:
 955              	.LBE147:
 956              	.LBE146:
 312:../Libraries/XMCLib/src/xmc_dac.c **** 
 957              	 .loc 1 312 0
 958 0054 70BD     	 pop {r4,r5,r6,pc}
 959              	 .cfi_endproc
 960              	.LFE200:
 962 0056 00BF     	 .section .text.XMC_DAC_CH_SetPattern,"ax",%progbits
 963              	 .align 2
 964              	 .global XMC_DAC_CH_SetPattern
 965              	 .thumb
 966              	 .thumb_func
 968              	XMC_DAC_CH_SetPattern:
 969              	.LFB201:
 316:../Libraries/XMCLib/src/xmc_dac.c ****   uint32_t index;
 970              	 .loc 1 316 0
 971              	 .cfi_startproc
 972              	 
 973              	 
 974              	 
 975              	.LVL121:
 976 0000 F0B4     	 push {r4,r5,r6,r7}
 977              	.LCFI12:
 978              	 .cfi_def_cfa_offset 16
 979              	 .cfi_offset 4,-16
 980              	 .cfi_offset 5,-12
 981              	 .cfi_offset 6,-8
 982              	 .cfi_offset 7,-4
 983 0002 00EBC101 	 add r1,r0,r1,lsl#3
 984              	.LVL122:
 327:../Libraries/XMCLib/src/xmc_dac.c ****   }
 985              	 .loc 1 327 0
 986 0006 9078     	 ldrb r0,[r2,#2]
 987              	.LVL123:
 988 0008 5478     	 ldrb r4,[r2,#1]
 324:../Libraries/XMCLib/src/xmc_dac.c ****   for(index = 1U; index < 6U; ++index)
 989              	 .loc 1 324 0
 990 000a 1578     	 ldrb r5,[r2]
 991              	.LVL124:
 327:../Libraries/XMCLib/src/xmc_dac.c ****   }
 992              	 .loc 1 327 0
 993 000c D778     	 ldrb r7,[r2,#3]
 994 000e 1379     	 ldrb r3,[r2,#4]
 995 0010 5679     	 ldrb r6,[r2,#5]
 996 0012 8002     	 lsls r0,r0,#10
 997 0014 40EA4414 	 orr r4,r0,r4,lsl#5
 998 0018 2C43     	 orrs r4,r4,r5
 999              	.LVL125:
 1000 001a 44EAC734 	 orr r4,r4,r7,lsl#15
 1001              	.LVL126:
 1002 001e 44EA0353 	 orr r3,r4,r3,lsl#20
 1003              	.LVL127:
 1004 0022 43EA4663 	 orr r3,r3,r6,lsl#25
 1005              	.LVL128:
 329:../Libraries/XMCLib/src/xmc_dac.c **** 
 1006              	 .loc 1 329 0
 1007 0026 0B62     	 str r3,[r1,#32]
 334:../Libraries/XMCLib/src/xmc_dac.c ****   }
 1008              	 .loc 1 334 0
 1009 0028 157A     	 ldrb r5,[r2,#8]
 1010 002a D779     	 ldrb r7,[r2,#7]
 331:../Libraries/XMCLib/src/xmc_dac.c ****   for(index = 1U; index < 6U; ++index)
 1011              	 .loc 1 331 0
 1012 002c 9479     	 ldrb r4,[r2,#6]
 1013              	.LVL129:
 334:../Libraries/XMCLib/src/xmc_dac.c ****   }
 1014              	 .loc 1 334 0
 1015 002e 567A     	 ldrb r6,[r2,#9]
 1016 0030 937A     	 ldrb r3,[r2,#10]
 1017 0032 D07A     	 ldrb r0,[r2,#11]
 1018 0034 AD02     	 lsls r5,r5,#10
 1019 0036 45EA4712 	 orr r2,r5,r7,lsl#5
 1020              	.LVL130:
 1021 003a 2243     	 orrs r2,r2,r4
 1022              	.LVL131:
 1023 003c 42EAC632 	 orr r2,r2,r6,lsl#15
 1024              	.LVL132:
 1025 0040 42EA0353 	 orr r3,r2,r3,lsl#20
 1026              	.LVL133:
 1027 0044 43EA4063 	 orr r3,r3,r0,lsl#25
 1028              	.LVL134:
 1029              	 .loc 1 336 0
 1030 0048 4B62     	 str r3,[r1,#36]
 337:../Libraries/XMCLib/src/xmc_dac.c **** }
 1031              	 .loc 1 337 0
 1032 004a F0BC     	 pop {r4,r5,r6,r7}
 1033              	.LCFI13:
 1034              	 .cfi_restore 7
 1035              	 .cfi_restore 6
 1036              	 .cfi_restore 5
 1037              	 .cfi_restore 4
 1038              	 .cfi_def_cfa_offset 0
 1039 004c 7047     	 bx lr
 1040              	 .cfi_endproc
 1041              	.LFE201:
 1043 004e 00BF     	 .text
 1044              	.Letext0:
 1045              	 .file 3 "c:\\infineon\\tools\\dave ide\\4.5.0.202105191637\\eclipse\\arm-gcc-49\\arm-none-eabi\\include\\machine\\_default_types.h"
 1046              	 .file 4 "c:\\infineon\\tools\\dave ide\\4.5.0.202105191637\\eclipse\\arm-gcc-49\\arm-none-eabi\\include\\stdint.h"
 1047              	 .file 5 "C:/Users/Utente/Desktop/Tesi/Firmware_Software/DAVE project/S2GLP_Pulsed_Doppler/Libraries/XMCLib/inc/xmc4_scu.h"
 1048              	 .file 6 "C:/Users/Utente/Desktop/Tesi/Firmware_Software/DAVE project/S2GLP_Pulsed_Doppler/Libraries/CMSIS/Include/core_cm4.h"
 1049              	 .file 7 "C:/Users/Utente/Desktop/Tesi/Firmware_Software/DAVE project/S2GLP_Pulsed_Doppler/Libraries/CMSIS/Infineon/XMC4700_series/Include/system_XMC4700.h"
 1050              	 .file 8 "C:/Users/Utente/Desktop/Tesi/Firmware_Software/DAVE project/S2GLP_Pulsed_Doppler/Libraries/XMCLib/inc/xmc_scu.h"