   1              	 .syntax unified
   2              	 .cpu cortex-m4
   3              	 .eabi_attribute 27,3
   4              	 .fpu fpv4-sp-d16
   5              	 .eabi_attribute 20,1
   6              	 .eabi_attribute 21,1
   7              	 .eabi_attribute 23,3
   8              	 .eabi_attribute 24,1
   9              	 .eabi_attribute 25,1
  10              	 .eabi_attribute 26,1
  11              	 .eabi_attribute 30,2
  12              	 .eabi_attribute 34,1
  13              	 .eabi_attribute 18,4
  14              	 .thumb
  15              	 .file "usbd.c"
  16              	 .text
  17              	.Ltext0:
  18              	 .cfi_sections .debug_frame
  19              	 .section .text.USBD_SignalDeviceEventHandler,"ax",%progbits
  20              	 .align 2
  21              	 .thumb
  22              	 .thumb_func
  24              	USBD_SignalDeviceEventHandler:
  25              	.LFB194:
  26              	 .file 1 "../Dave/Generated/USBD/usbd.c"
   1:../Dave/Generated/USBD/usbd.c **** /**
   2:../Dave/Generated/USBD/usbd.c ****  * @file usbd.c
   3:../Dave/Generated/USBD/usbd.c ****  * @date 2016-02-10
   4:../Dave/Generated/USBD/usbd.c ****  * NOTE:
   5:../Dave/Generated/USBD/usbd.c ****  * This file is generated by DAVE. Any manual modification done to this file will be lost when the 
   6:../Dave/Generated/USBD/usbd.c ****  *
   7:../Dave/Generated/USBD/usbd.c ****  * @cond
   8:../Dave/Generated/USBD/usbd.c ****  **************************************************************************************************
   9:../Dave/Generated/USBD/usbd.c ****  * USBD v4.0.14 - The USB core driver for XMC4000 family of controllers. It does the USB protocol h
  10:../Dave/Generated/USBD/usbd.c ****  *
  11:../Dave/Generated/USBD/usbd.c ****  * Copyright (c) 2015, Infineon Technologies AG
  12:../Dave/Generated/USBD/usbd.c ****  * All rights reserved.                        
  13:../Dave/Generated/USBD/usbd.c ****  *                                             
  14:../Dave/Generated/USBD/usbd.c ****  * Redistribution and use in source and binary forms, with or without modification,are permitted pr
  15:../Dave/Generated/USBD/usbd.c ****  * following conditions are met:   
  16:../Dave/Generated/USBD/usbd.c ****  *                                                                              
  17:../Dave/Generated/USBD/usbd.c ****  *   Redistributions of source code must retain the above copyright notice, this list of conditions
  18:../Dave/Generated/USBD/usbd.c ****  *   disclaimer.                        
  19:../Dave/Generated/USBD/usbd.c ****  * 
  20:../Dave/Generated/USBD/usbd.c ****  *   Redistributions in binary form must reproduce the above copyright notice, this list of conditi
  21:../Dave/Generated/USBD/usbd.c ****  *   following disclaimer in the documentation and/or other materials provided with the distributio
  22:../Dave/Generated/USBD/usbd.c ****  *                         
  23:../Dave/Generated/USBD/usbd.c ****  *   Neither the name of the copyright holders nor the names of its contributors may be used to end
  24:../Dave/Generated/USBD/usbd.c ****  *   products derived from this software without specific prior written permission. 
  25:../Dave/Generated/USBD/usbd.c ****  *                                             
  26:../Dave/Generated/USBD/usbd.c ****  * THIS SOFTWARE IS PROVIDED BY THE COPYRIGHT HOLDERS AND CONTRIBUTORS "AS IS" AND ANY EXPRESS OR I
  27:../Dave/Generated/USBD/usbd.c ****  * INCLUDING, BUT NOT LIMITED TO, THE IMPLIED WARRANTIES OF MERCHANTABILITY AND FITNESS FOR A PARTI
  28:../Dave/Generated/USBD/usbd.c ****  * DISCLAIMED. IN NO EVENT SHALL THE COPYRIGHT HOLDER OR CONTRIBUTORS BE LIABLE  FOR ANY DIRECT, IN
  29:../Dave/Generated/USBD/usbd.c ****  * SPECIAL, EXEMPLARY, OR CONSEQUENTIAL DAMAGES (INCLUDING, BUT NOT LIMITED TO, PROCUREMENT OF SUBS
  30:../Dave/Generated/USBD/usbd.c ****  * SERVICES; LOSS OF USE, DATA, OR PROFITS; OR BUSINESS INTERRUPTION) HOWEVER CAUSED AND ON ANY THE
  31:../Dave/Generated/USBD/usbd.c ****  * WHETHER IN CONTRACT, STRICT LIABILITY,OR TORT (INCLUDING NEGLIGENCE OR OTHERWISE) ARISING IN ANY
  32:../Dave/Generated/USBD/usbd.c ****  * USE OF THIS SOFTWARE, EVEN IF ADVISED OF THE POSSIBILITY OF SUCH DAMAGE.    
  33:../Dave/Generated/USBD/usbd.c ****  *                                                                              
  34:../Dave/Generated/USBD/usbd.c ****  * To improve the quality of the software, users are encouraged to share modifications, enhancement
  35:../Dave/Generated/USBD/usbd.c ****  * with Infineon Technologies AG (dave@infineon.com).        
  36:../Dave/Generated/USBD/usbd.c ****  **************************************************************************************************
  37:../Dave/Generated/USBD/usbd.c ****  *
  38:../Dave/Generated/USBD/usbd.c ****  * Change History
  39:../Dave/Generated/USBD/usbd.c ****  * --------------
  40:../Dave/Generated/USBD/usbd.c ****  *
  41:../Dave/Generated/USBD/usbd.c ****  * 2015-02-16:
  42:../Dave/Generated/USBD/usbd.c ****  *     - Initial version.      
  43:../Dave/Generated/USBD/usbd.c ****  * 2015-03-18:
  44:../Dave/Generated/USBD/usbd.c ****  *     - Guidelines updated.
  45:../Dave/Generated/USBD/usbd.c ****  * 2015-04-23:
  46:../Dave/Generated/USBD/usbd.c ****  *     - Updated the review comments from AEs.
  47:../Dave/Generated/USBD/usbd.c ****  * 2015-06-20:
  48:../Dave/Generated/USBD/usbd.c ****  *     - Updated the file header.
  49:../Dave/Generated/USBD/usbd.c ****  * 2016-02-10:
  50:../Dave/Generated/USBD/usbd.c ****  *     - Removed the macro CLOCK_XMC4_USBCLK_ENABLED check and added the error message in UI.
  51:../Dave/Generated/USBD/usbd.c ****  *     
  52:../Dave/Generated/USBD/usbd.c ****  * @endcond 
  53:../Dave/Generated/USBD/usbd.c ****  *
  54:../Dave/Generated/USBD/usbd.c ****  */
  55:../Dave/Generated/USBD/usbd.c **** 
  56:../Dave/Generated/USBD/usbd.c **** /**************************************************************************************************
  57:../Dave/Generated/USBD/usbd.c ****  * HEADER FILES                                                                                    
  58:../Dave/Generated/USBD/usbd.c ****  **************************************************************************************************
  59:../Dave/Generated/USBD/usbd.c **** #include <stdlib.h>
  60:../Dave/Generated/USBD/usbd.c **** #include <xmc_scu.h>
  61:../Dave/Generated/USBD/usbd.c **** #include "./usb/core/events.h"
  62:../Dave/Generated/USBD/usbd.c **** #include "./usb/core/usb_task.h"
  63:../Dave/Generated/USBD/usbd.c **** #include "usbd.h"
  64:../Dave/Generated/USBD/usbd.c **** 
  65:../Dave/Generated/USBD/usbd.c **** /**************************************************************************************************
  66:../Dave/Generated/USBD/usbd.c ****  * MACROS                                                                                          
  67:../Dave/Generated/USBD/usbd.c ****  **************************************************************************************************
  68:../Dave/Generated/USBD/usbd.c **** 
  69:../Dave/Generated/USBD/usbd.c **** /**
  70:../Dave/Generated/USBD/usbd.c ****  * USB setup packet size -for 3 packets
  71:../Dave/Generated/USBD/usbd.c ****  **/
  72:../Dave/Generated/USBD/usbd.c **** #define USBD_EP0_3SETUP_PKT_SIZE				(24U)
  73:../Dave/Generated/USBD/usbd.c **** 
  74:../Dave/Generated/USBD/usbd.c **** /**
  75:../Dave/Generated/USBD/usbd.c ****  * USB EP0 setup packet size
  76:../Dave/Generated/USBD/usbd.c ****  **/
  77:../Dave/Generated/USBD/usbd.c **** #define USBD_EP0_SETUP_PKT_SIZE					(8U)
  78:../Dave/Generated/USBD/usbd.c **** 
  79:../Dave/Generated/USBD/usbd.c **** /**
  80:../Dave/Generated/USBD/usbd.c ****  * USB EP0 buffer size
  81:../Dave/Generated/USBD/usbd.c ****  **/
  82:../Dave/Generated/USBD/usbd.c **** #define USBD_EP0_BUF_SIZE						    (256U)
  83:../Dave/Generated/USBD/usbd.c **** 
  84:../Dave/Generated/USBD/usbd.c **** /**
  85:../Dave/Generated/USBD/usbd.c ****  * USB EP0 maximum packet size
  86:../Dave/Generated/USBD/usbd.c ****  **/
  87:../Dave/Generated/USBD/usbd.c **** #define USBD_EP0_MAX_PKT_SIZE					  (64U)
  88:../Dave/Generated/USBD/usbd.c **** 
  89:../Dave/Generated/USBD/usbd.c **** /**
  90:../Dave/Generated/USBD/usbd.c ****  * Used to mask the byte value
  91:../Dave/Generated/USBD/usbd.c ****  **/
  92:../Dave/Generated/USBD/usbd.c **** #define USBD_BYTE_MASK							    (0xFFU)
  93:../Dave/Generated/USBD/usbd.c **** 
  94:../Dave/Generated/USBD/usbd.c **** #define USBD_WORD_SIZE                  (2U)
  95:../Dave/Generated/USBD/usbd.c **** 
  96:../Dave/Generated/USBD/usbd.c **** #define USBD_MAX_NUM_EPS                (7U)
  97:../Dave/Generated/USBD/usbd.c **** 
  98:../Dave/Generated/USBD/usbd.c **** 
  99:../Dave/Generated/USBD/usbd.c **** /**************************************************************************************************
 100:../Dave/Generated/USBD/usbd.c ****  * LOCAL DATA
 101:../Dave/Generated/USBD/usbd.c ****  **************************************************************************************************
 102:../Dave/Generated/USBD/usbd.c ****  
 103:../Dave/Generated/USBD/usbd.c ****  /*************************************************************************************************
 104:../Dave/Generated/USBD/usbd.c ****  * GLOBAL DATA
 105:../Dave/Generated/USBD/usbd.c ****  **************************************************************************************************
 106:../Dave/Generated/USBD/usbd.c **** /*Global variable defining the USB device*/
 107:../Dave/Generated/USBD/usbd.c **** USB_Device_t device;
 108:../Dave/Generated/USBD/usbd.c **** 
 109:../Dave/Generated/USBD/usbd.c **** /*endpoint point 0 buffer allocation*/
 110:../Dave/Generated/USBD/usbd.c **** uint8_t endpoint0_in_buffer[USBD_EP0_BUF_SIZE];
 111:../Dave/Generated/USBD/usbd.c **** uint8_t endpoint0_out_buffer[USBD_EP0_BUF_SIZE];
 112:../Dave/Generated/USBD/usbd.c **** 
 113:../Dave/Generated/USBD/usbd.c **** 
 114:../Dave/Generated/USBD/usbd.c **** /**************************************************************************************************
 115:../Dave/Generated/USBD/usbd.c ****  * LOCAL ROUTINES 
 116:../Dave/Generated/USBD/usbd.c ****  **************************************************************************************************
 117:../Dave/Generated/USBD/usbd.c **** 
 118:../Dave/Generated/USBD/usbd.c **** /**
 119:../Dave/Generated/USBD/usbd.c ****  * Function to enable USB interrupt
 120:../Dave/Generated/USBD/usbd.c ****  **/
 121:../Dave/Generated/USBD/usbd.c **** static void USB_EnableUSBInterrupt(void);
 122:../Dave/Generated/USBD/usbd.c **** 
 123:../Dave/Generated/USBD/usbd.c **** /**
 124:../Dave/Generated/USBD/usbd.c ****  * Function to disable USB interrupt
 125:../Dave/Generated/USBD/usbd.c ****  **/
 126:../Dave/Generated/USBD/usbd.c **** static void USB_DisableUSBInterrupt(void);
 127:../Dave/Generated/USBD/usbd.c **** 
 128:../Dave/Generated/USBD/usbd.c **** /**
 129:../Dave/Generated/USBD/usbd.c ****  * Function to handle the EP0 stall
 130:../Dave/Generated/USBD/usbd.c ****  **/
 131:../Dave/Generated/USBD/usbd.c **** static void USBD_HandleEP0_Stall(void);
 132:../Dave/Generated/USBD/usbd.c **** 
 133:../Dave/Generated/USBD/usbd.c **** /**
 134:../Dave/Generated/USBD/usbd.c ****  * The function to handle the device request routed from the USB LLD
 135:../Dave/Generated/USBD/usbd.c ****  **/
 136:../Dave/Generated/USBD/usbd.c **** static void USBD_Handle_DeviceRequest(void);
 137:../Dave/Generated/USBD/usbd.c **** 
 138:../Dave/Generated/USBD/usbd.c **** /**
 139:../Dave/Generated/USBD/usbd.c ****  * The function to handle the Control IN EP interrupt
 140:../Dave/Generated/USBD/usbd.c ****  **/
 141:../Dave/Generated/USBD/usbd.c **** static void USBD_HandleEP0_IN(void);
 142:../Dave/Generated/USBD/usbd.c **** 
 143:../Dave/Generated/USBD/usbd.c **** /**
 144:../Dave/Generated/USBD/usbd.c ****  * The function to handle the Control OUT EP interrupt
 145:../Dave/Generated/USBD/usbd.c ****  **/
 146:../Dave/Generated/USBD/usbd.c **** static void USBD_HandleEP0_OUT(void);
 147:../Dave/Generated/USBD/usbd.c **** 
 148:../Dave/Generated/USBD/usbd.c **** /**
 149:../Dave/Generated/USBD/usbd.c ****  * The function to handle the setup packet
 150:../Dave/Generated/USBD/usbd.c ****  **/
 151:../Dave/Generated/USBD/usbd.c **** static void USBD_HandleEP0_SETUP(void);
 152:../Dave/Generated/USBD/usbd.c **** 
 153:../Dave/Generated/USBD/usbd.c **** /**
 154:../Dave/Generated/USBD/usbd.c ****  * \brief Device Event Handler for the device controller driver
 155:../Dave/Generated/USBD/usbd.c ****  *
 156:../Dave/Generated/USBD/usbd.c ****  * Handles device events send by the device controller driver(XMC library).
 157:../Dave/Generated/USBD/usbd.c ****  **/
 158:../Dave/Generated/USBD/usbd.c **** static void USBD_SignalDeviceEventHandler(XMC_USBD_EVENT_t event);
 159:../Dave/Generated/USBD/usbd.c **** 
 160:../Dave/Generated/USBD/usbd.c **** /**
 161:../Dave/Generated/USBD/usbd.c ****  * \brief Endpoint Event Handler for the device controller driver
 162:../Dave/Generated/USBD/usbd.c ****  *
 163:../Dave/Generated/USBD/usbd.c ****  * Handles endpoint events send by the device controller driver(XMC library).
 164:../Dave/Generated/USBD/usbd.c ****  **/
 165:../Dave/Generated/USBD/usbd.c **** static void USBD_SignalEndpointEvent_Handler(uint8_t ep_addr, XMC_USBD_EP_EVENT_t ep_event);
 166:../Dave/Generated/USBD/usbd.c **** 
 167:../Dave/Generated/USBD/usbd.c **** /**************************************************************************************************
 168:../Dave/Generated/USBD/usbd.c ****  * API IMPLEMENTATION
 169:../Dave/Generated/USBD/usbd.c ****  **************************************************************************************************
 170:../Dave/Generated/USBD/usbd.c **** 
 171:../Dave/Generated/USBD/usbd.c **** /*
 172:../Dave/Generated/USBD/usbd.c ****  * Initialize driver core and driver
 173:../Dave/Generated/USBD/usbd.c ****  *
 174:../Dave/Generated/USBD/usbd.c ****  * Intializes the USB driver core data structures and sets it into default
 175:../Dave/Generated/USBD/usbd.c ****  * state. Afterwards it initializes the USB device controller driver and prepare
 176:../Dave/Generated/USBD/usbd.c ****  *  it for connection via USBD_Connect.
 177:../Dave/Generated/USBD/usbd.c ****  */
 178:../Dave/Generated/USBD/usbd.c **** USBD_STATUS_t USBD_Init(USBD_t *handle)
 179:../Dave/Generated/USBD/usbd.c **** {
 180:../Dave/Generated/USBD/usbd.c **** 	USBD_STATUS_t status = USBD_STATUS_SUCCESS;
 181:../Dave/Generated/USBD/usbd.c **** 
 182:../Dave/Generated/USBD/usbd.c **** 	XMC_ASSERT("USBD_Init: invalid handle", (handle != NULL));
 183:../Dave/Generated/USBD/usbd.c **** 
 184:../Dave/Generated/USBD/usbd.c **** 
 185:../Dave/Generated/USBD/usbd.c **** 	/* Disable USB to resolve the disconnect issue on self powered devices.
 186:../Dave/Generated/USBD/usbd.c **** 	 * Later in the XMC_USBD_Init() it enables the USB.
 187:../Dave/Generated/USBD/usbd.c **** 	 */
 188:../Dave/Generated/USBD/usbd.c **** 	XMC_USBD_Disable();
 189:../Dave/Generated/USBD/usbd.c **** 
 190:../Dave/Generated/USBD/usbd.c **** 	memset(&device,0x0,sizeof(USB_Device_t));
 191:../Dave/Generated/USBD/usbd.c **** 	USB_DeviceState = (uint8_t)DEVICE_STATE_Unattached;
 192:../Dave/Generated/USBD/usbd.c **** 	device.Driver = &Driver_USBD0;
 193:../Dave/Generated/USBD/usbd.c **** 	device.ep0_state = USBD_EP0_STATE_IDLE;
 194:../Dave/Generated/USBD/usbd.c **** 	device.Endpoints[0].InBuffer = endpoint0_in_buffer;
 195:../Dave/Generated/USBD/usbd.c **** 	device.Endpoints[0].InBufferLength = USBD_EP0_BUF_SIZE;
 196:../Dave/Generated/USBD/usbd.c **** 	device.Endpoints[0].OutBuffer = endpoint0_out_buffer;
 197:../Dave/Generated/USBD/usbd.c **** 	device.Endpoints[0].OutBufferLength = USBD_EP0_BUF_SIZE;
 198:../Dave/Generated/USBD/usbd.c **** 	device.Endpoints[0].Direction = (uint8_t)0;
 199:../Dave/Generated/USBD/usbd.c **** 	device.Endpoints[0].IsConfigured = (uint8_t)1;
 200:../Dave/Generated/USBD/usbd.c **** 	device.Endpoints[0].IsEnabled = (uint8_t)1;
 201:../Dave/Generated/USBD/usbd.c **** 	device.Endpoints[0].MaxPacketSize = (uint8_t)USBD_EP0_MAX_PKT_SIZE;
 202:../Dave/Generated/USBD/usbd.c **** 
 203:../Dave/Generated/USBD/usbd.c **** 	if ((handle->event_cb->control_request == 0) ||
 204:../Dave/Generated/USBD/usbd.c **** 	    (handle->event_cb->get_descriptor == 0) ||
 205:../Dave/Generated/USBD/usbd.c **** 	    (handle->event_cb->config_changed == 0))
 206:../Dave/Generated/USBD/usbd.c **** 	{
 207:../Dave/Generated/USBD/usbd.c **** 	  status = USBD_STATUS_FAILURE;
 208:../Dave/Generated/USBD/usbd.c **** 	}
 209:../Dave/Generated/USBD/usbd.c **** 	else
 210:../Dave/Generated/USBD/usbd.c **** 	{
 211:../Dave/Generated/USBD/usbd.c **** 	  device.events = handle->event_cb;
 212:../Dave/Generated/USBD/usbd.c **** 
 213:../Dave/Generated/USBD/usbd.c **** 	  XMC_SCU_CLOCK_EnableClock(XMC_SCU_CLOCK_USB);
 214:../Dave/Generated/USBD/usbd.c **** 
 215:../Dave/Generated/USBD/usbd.c **** 	  /* First initalize the device */
 216:../Dave/Generated/USBD/usbd.c **** 	  handle->usb_init.cb_xmc_device_event = USBD_SignalDeviceEventHandler;
 217:../Dave/Generated/USBD/usbd.c **** 	  handle->usb_init.cb_endpoint_event = USBD_SignalEndpointEvent_Handler;
 218:../Dave/Generated/USBD/usbd.c **** 
 219:../Dave/Generated/USBD/usbd.c **** 	  status = (USBD_STATUS_t)device.Driver->Initialize(&handle->usb_init);
 220:../Dave/Generated/USBD/usbd.c **** 	  if (USBD_STATUS_SUCCESS == status)
 221:../Dave/Generated/USBD/usbd.c **** 	  {
 222:../Dave/Generated/USBD/usbd.c **** 	  /* Enable Interrupts in NVIC */
 223:../Dave/Generated/USBD/usbd.c **** 	  USB_EnableUSBInterrupt();
 224:../Dave/Generated/USBD/usbd.c **** 
 225:../Dave/Generated/USBD/usbd.c **** 	  /* then configure endpoint 0 */
 226:../Dave/Generated/USBD/usbd.c **** 	  status = (USBD_STATUS_t)device.Driver->EndpointConfigure((uint8_t)0,XMC_USBD_ENDPOINT_TYPE_CONTR
 227:../Dave/Generated/USBD/usbd.c **** 	       (uint16_t)XMC_USBD_MAX_PACKET_SIZE);
 228:../Dave/Generated/USBD/usbd.c **** 	  }
 229:../Dave/Generated/USBD/usbd.c **** 
 230:../Dave/Generated/USBD/usbd.c **** 	  if (USBD_STATUS_SUCCESS != status)
 231:../Dave/Generated/USBD/usbd.c **** 	  {
 232:../Dave/Generated/USBD/usbd.c **** 	  XMC_USBD_Disable();
 233:../Dave/Generated/USBD/usbd.c **** 	  if (USBD_STATUS_SUCCESS == (USBD_STATUS_t)device.Driver->Uninitialize())
 234:../Dave/Generated/USBD/usbd.c **** 	  {
 235:../Dave/Generated/USBD/usbd.c **** 	    USB_DisableUSBInterrupt();
 236:../Dave/Generated/USBD/usbd.c **** 	  }
 237:../Dave/Generated/USBD/usbd.c **** 	  }
 238:../Dave/Generated/USBD/usbd.c **** 	}
 239:../Dave/Generated/USBD/usbd.c **** 
 240:../Dave/Generated/USBD/usbd.c **** 
 241:../Dave/Generated/USBD/usbd.c **** 	return status;
 242:../Dave/Generated/USBD/usbd.c **** }
 243:../Dave/Generated/USBD/usbd.c **** 
 244:../Dave/Generated/USBD/usbd.c **** /*
 245:../Dave/Generated/USBD/usbd.c ****  * Connects the USB device to the bus.
 246:../Dave/Generated/USBD/usbd.c ****  *
 247:../Dave/Generated/USBD/usbd.c ****  * Tell the USB device controller driver to connect to the bus. Successful connection will be shown
 248:../Dave/Generated/USBD/usbd.c ****  * through update of the device status ( USB_DeviceState) and a firing of the USB device connect ev
 249:../Dave/Generated/USBD/usbd.c ****  */
 250:../Dave/Generated/USBD/usbd.c **** USBD_STATUS_t USBD_Connect(void)
 251:../Dave/Generated/USBD/usbd.c **** {
 252:../Dave/Generated/USBD/usbd.c ****   return (USBD_STATUS_t)device.Driver->DeviceConnect();
 253:../Dave/Generated/USBD/usbd.c **** }
 254:../Dave/Generated/USBD/usbd.c **** 
 255:../Dave/Generated/USBD/usbd.c **** /*
 256:../Dave/Generated/USBD/usbd.c ****  * Disconnect the device from the bus.
 257:../Dave/Generated/USBD/usbd.c ****  *
 258:../Dave/Generated/USBD/usbd.c ****  * Tell the USB device controller driver to disconnect from the bus. Successful
 259:../Dave/Generated/USBD/usbd.c ****  * disconnection will be shown through update of the device status
 260:../Dave/Generated/USBD/usbd.c ****  * (USB_DeviceState) and a firing of the USB device disconnect event.
 261:../Dave/Generated/USBD/usbd.c ****  */
 262:../Dave/Generated/USBD/usbd.c **** USBD_STATUS_t USBD_Disconnect(void)
 263:../Dave/Generated/USBD/usbd.c **** {
 264:../Dave/Generated/USBD/usbd.c ****   return (USBD_STATUS_t)device.Driver->DeviceDisconnect();
 265:../Dave/Generated/USBD/usbd.c **** }
 266:../Dave/Generated/USBD/usbd.c **** 
 267:../Dave/Generated/USBD/usbd.c **** /*
 268:../Dave/Generated/USBD/usbd.c ****  * Is the enumeration finished?
 269:../Dave/Generated/USBD/usbd.c ****  *
 270:../Dave/Generated/USBD/usbd.c ****  * Check with the USB device controller driver if the enumeration is done.
 271:../Dave/Generated/USBD/usbd.c ****  * Returns 1 on completion of enumeration.
 272:../Dave/Generated/USBD/usbd.c ****  */
 273:../Dave/Generated/USBD/usbd.c **** uint32_t USBD_IsEnumDone(void)
 274:../Dave/Generated/USBD/usbd.c **** {
 275:../Dave/Generated/USBD/usbd.c ****   return device.Driver->IsEnumDone();
 276:../Dave/Generated/USBD/usbd.c **** }
 277:../Dave/Generated/USBD/usbd.c **** 
 278:../Dave/Generated/USBD/usbd.c **** 
 279:../Dave/Generated/USBD/usbd.c **** /*
 280:../Dave/Generated/USBD/usbd.c ****  * Set the buffer for an endpoint
 281:../Dave/Generated/USBD/usbd.c ****  *
 282:../Dave/Generated/USBD/usbd.c ****  * The user has to ensure that an endpoint has a valid buffer for proper data transfer.
 283:../Dave/Generated/USBD/usbd.c ****  *
 284:../Dave/Generated/USBD/usbd.c ****  */
 285:../Dave/Generated/USBD/usbd.c **** void USBD_SetEndpointBuffer(uint8_t addr, uint8_t *buf, uint16_t len)
 286:../Dave/Generated/USBD/usbd.c **** {
 287:../Dave/Generated/USBD/usbd.c ****   uint32_t number;
 288:../Dave/Generated/USBD/usbd.c ****   XMC_ASSERT("USBD_SetEndpointBuffer: invalid buffer", (buf != NULL));
 289:../Dave/Generated/USBD/usbd.c **** 
 290:../Dave/Generated/USBD/usbd.c ****   number = (uint32_t)addr & (uint32_t)ENDPOINT_EPNUM_MASK;
 291:../Dave/Generated/USBD/usbd.c ****   XMC_ASSERT("USBD_SetEndpointBuffer: invalid ep address", (number < (uint8_t)USBD_MAX_NUM_EPS));
 292:../Dave/Generated/USBD/usbd.c **** 
 293:../Dave/Generated/USBD/usbd.c ****   if (addr & (uint8_t)ENDPOINT_DIR_MASK)
 294:../Dave/Generated/USBD/usbd.c ****   {
 295:../Dave/Generated/USBD/usbd.c ****     device.Endpoints[number].InBuffer = buf;
 296:../Dave/Generated/USBD/usbd.c ****     device.Endpoints[number].InBufferLength = len;
 297:../Dave/Generated/USBD/usbd.c ****   }
 298:../Dave/Generated/USBD/usbd.c ****   else
 299:../Dave/Generated/USBD/usbd.c ****   {
 300:../Dave/Generated/USBD/usbd.c ****     device.Endpoints[number].OutBuffer = buf;
 301:../Dave/Generated/USBD/usbd.c ****     device.Endpoints[number].OutBufferLength = len;
 302:../Dave/Generated/USBD/usbd.c ****   }
 303:../Dave/Generated/USBD/usbd.c **** 
 304:../Dave/Generated/USBD/usbd.c **** }
 305:../Dave/Generated/USBD/usbd.c **** 
 306:../Dave/Generated/USBD/usbd.c **** /*
 307:../Dave/Generated/USBD/usbd.c ****  * Entry point for exception vector table.
 308:../Dave/Generated/USBD/usbd.c ****  *
 309:../Dave/Generated/USBD/usbd.c ****  * This function gets called, if a USB exception (interrupt) was thrown and
 310:../Dave/Generated/USBD/usbd.c ****  * dispatches it to XMC_USBD_IRQHandler.
 311:../Dave/Generated/USBD/usbd.c ****  */
 312:../Dave/Generated/USBD/usbd.c **** void USB0_0_IRQHandler(void)
 313:../Dave/Generated/USBD/usbd.c **** {
 314:../Dave/Generated/USBD/usbd.c ****   XMC_USBD_IRQHandler(&(USBD_handle->usb_init));
 315:../Dave/Generated/USBD/usbd.c **** }
 316:../Dave/Generated/USBD/usbd.c **** 
 317:../Dave/Generated/USBD/usbd.c **** /*
 318:../Dave/Generated/USBD/usbd.c ****  * API to retrieve the version of the USBD APP
 319:../Dave/Generated/USBD/usbd.c ****  */
 320:../Dave/Generated/USBD/usbd.c **** DAVE_APP_VERSION_t USBD_GetAppVersion(void)
 321:../Dave/Generated/USBD/usbd.c **** {
 322:../Dave/Generated/USBD/usbd.c ****   DAVE_APP_VERSION_t version;
 323:../Dave/Generated/USBD/usbd.c **** 
 324:../Dave/Generated/USBD/usbd.c ****   version.major = USBD_MAJOR_VERSION;
 325:../Dave/Generated/USBD/usbd.c ****   version.minor = USBD_MINOR_VERSION;
 326:../Dave/Generated/USBD/usbd.c ****   version.patch = USBD_PATCH_VERSION;
 327:../Dave/Generated/USBD/usbd.c **** 
 328:../Dave/Generated/USBD/usbd.c ****   return version;
 329:../Dave/Generated/USBD/usbd.c **** }
 330:../Dave/Generated/USBD/usbd.c **** 
 331:../Dave/Generated/USBD/usbd.c **** /*******************************************************************************
 332:../Dave/Generated/USBD/usbd.c **** **                      Private Function Definitions                          **
 333:../Dave/Generated/USBD/usbd.c **** *******************************************************************************/
 334:../Dave/Generated/USBD/usbd.c **** 
 335:../Dave/Generated/USBD/usbd.c **** /**
 336:../Dave/Generated/USBD/usbd.c ****  * Enables and sets the priority of USB Interrupt
 337:../Dave/Generated/USBD/usbd.c ****  *
 338:../Dave/Generated/USBD/usbd.c ****  * First the interrupt priority is set and then the interrupt is enabled in the NVIC.
 339:../Dave/Generated/USBD/usbd.c ****  */
 340:../Dave/Generated/USBD/usbd.c **** static void USB_EnableUSBInterrupt(void)
 341:../Dave/Generated/USBD/usbd.c **** {
 342:../Dave/Generated/USBD/usbd.c ****   NVIC_SetPriority(USB0_0_IRQn, NVIC_EncodePriority(NVIC_GetPriorityGrouping(), USB_PRE_EMPTION_PRI
 343:../Dave/Generated/USBD/usbd.c ****   USB_SUB_PRIORITY));
 344:../Dave/Generated/USBD/usbd.c ****   NVIC_ClearPendingIRQ(USB0_0_IRQn);
 345:../Dave/Generated/USBD/usbd.c ****   NVIC_EnableIRQ(USB0_0_IRQn);
 346:../Dave/Generated/USBD/usbd.c **** }
 347:../Dave/Generated/USBD/usbd.c **** 
 348:../Dave/Generated/USBD/usbd.c **** /**
 349:../Dave/Generated/USBD/usbd.c ****  * Disables the USB interrupt in the NVIC.
 350:../Dave/Generated/USBD/usbd.c ****  *
 351:../Dave/Generated/USBD/usbd.c ****  * Before the interrupt gets disabled, it will clear the pending IRQs.
 352:../Dave/Generated/USBD/usbd.c ****  */
 353:../Dave/Generated/USBD/usbd.c **** static void USB_DisableUSBInterrupt(void)
 354:../Dave/Generated/USBD/usbd.c **** {
 355:../Dave/Generated/USBD/usbd.c ****   NVIC_ClearPendingIRQ(USB0_0_IRQn);
 356:../Dave/Generated/USBD/usbd.c ****   NVIC_DisableIRQ(USB0_0_IRQn);
 357:../Dave/Generated/USBD/usbd.c **** }
 358:../Dave/Generated/USBD/usbd.c **** 
 359:../Dave/Generated/USBD/usbd.c **** 
 360:../Dave/Generated/USBD/usbd.c **** /**
 361:../Dave/Generated/USBD/usbd.c ****  * Handle protocol stall on EP0
 362:../Dave/Generated/USBD/usbd.c ****  *
 363:../Dave/Generated/USBD/usbd.c ****  * Stalls EP0 and then restarts a new transfer including setting EP0 state to
 364:../Dave/Generated/USBD/usbd.c ****  * 																\ref USBD_EP0_STATE_IDLE.
 365:../Dave/Generated/USBD/usbd.c ****  */
 366:../Dave/Generated/USBD/usbd.c **** static void USBD_HandleEP0_Stall(void)
 367:../Dave/Generated/USBD/usbd.c **** {
 368:../Dave/Generated/USBD/usbd.c ****   /* When we stall ep0 as protocol stall, we go back into idle state and
 369:../Dave/Generated/USBD/usbd.c ****   * start a new read */
 370:../Dave/Generated/USBD/usbd.c ****   if (USBD_STATUS_SUCCESS == (USBD_STATUS_t)device.Driver->EndpointStall(ENDPOINT_DIR_IN | 0U,1U))
 371:../Dave/Generated/USBD/usbd.c ****   {
 372:../Dave/Generated/USBD/usbd.c ****     device.ep0_state = USBD_EP0_STATE_IDLE;
 373:../Dave/Generated/USBD/usbd.c ****     if ( USBD_STATUS_SUCCESS != (USBD_STATUS_t)device.Driver->EndpointReadStart(0U,USBD_EP0_3SETUP_
 374:../Dave/Generated/USBD/usbd.c ****     {
 375:../Dave/Generated/USBD/usbd.c ****       XMC_ASSERT("USBD_HandleEP0_Stall: EndpointReadStart failed", 0);
 376:../Dave/Generated/USBD/usbd.c ****     }
 377:../Dave/Generated/USBD/usbd.c ****   }
 378:../Dave/Generated/USBD/usbd.c **** }
 379:../Dave/Generated/USBD/usbd.c **** 
 380:../Dave/Generated/USBD/usbd.c **** /**
 381:../Dave/Generated/USBD/usbd.c ****  * Handle device request on endpoint 0
 382:../Dave/Generated/USBD/usbd.c ****  *
 383:../Dave/Generated/USBD/usbd.c ****  * By default any USB device has to support a subset of device control request
 384:../Dave/Generated/USBD/usbd.c ****  * defined by the USB specification. All request required by the spec are
 385:../Dave/Generated/USBD/usbd.c ****  * handle within this function.Before handling of any request it dispatches it
 386:../Dave/Generated/USBD/usbd.c ****  * to the \ref control_request event callback function. In this callback, user can
 387:../Dave/Generated/USBD/usbd.c ****  * handle some custom request or override the request handling in this function.
 388:../Dave/Generated/USBD/usbd.c ****  * If the user has handled the request, he has to call \ref Endpoint_ClearSETUP.
 389:../Dave/Generated/USBD/usbd.c ****  *
 390:../Dave/Generated/USBD/usbd.c ****  */
 391:../Dave/Generated/USBD/usbd.c **** static void USBD_Handle_DeviceRequest(void)
 392:../Dave/Generated/USBD/usbd.c **** {
 393:../Dave/Generated/USBD/usbd.c ****   uint32_t length = 0U;
 394:../Dave/Generated/USBD/usbd.c ****   uint32_t ret;
 395:../Dave/Generated/USBD/usbd.c ****   void *buffer = NULL;
 396:../Dave/Generated/USBD/usbd.c ****   uint32_t status = 0U;
 397:../Dave/Generated/USBD/usbd.c ****   uint32_t index;
 398:../Dave/Generated/USBD/usbd.c ****   uint32_t value;
 399:../Dave/Generated/USBD/usbd.c ****   uint32_t tmp_value;
 400:../Dave/Generated/USBD/usbd.c ****   uint32_t tmp_index;
 401:../Dave/Generated/USBD/usbd.c ****   
 402:../Dave/Generated/USBD/usbd.c **** 
 403:../Dave/Generated/USBD/usbd.c ****   value = (uint32_t)USB_ControlRequest.wValue & (uint32_t)USBD_BYTE_MASK;
 404:../Dave/Generated/USBD/usbd.c **** 
 405:../Dave/Generated/USBD/usbd.c ****   /* Handling of class/vendor requests */
 406:../Dave/Generated/USBD/usbd.c ****   if (NULL != device.events->control_request)
 407:../Dave/Generated/USBD/usbd.c ****   {
 408:../Dave/Generated/USBD/usbd.c ****     device.events->control_request();
 409:../Dave/Generated/USBD/usbd.c ****   }
 410:../Dave/Generated/USBD/usbd.c **** 
 411:../Dave/Generated/USBD/usbd.c ****   if (1U == device.IsSetupRecieved)
 412:../Dave/Generated/USBD/usbd.c ****   {
 413:../Dave/Generated/USBD/usbd.c ****     /* default request handling */
 414:../Dave/Generated/USBD/usbd.c ****     switch (USB_ControlRequest.bRequest)
 415:../Dave/Generated/USBD/usbd.c ****     {
 416:../Dave/Generated/USBD/usbd.c ****       case REQ_ClearFeature:
 417:../Dave/Generated/USBD/usbd.c ****         if ((uint8_t)REQREC_ENDPOINT == (USB_ControlRequest.bmRequestType & (uint8_t)REQ_RECIPIENT_
 418:../Dave/Generated/USBD/usbd.c ****         {
 419:../Dave/Generated/USBD/usbd.c ****           index = (uint32_t)USB_ControlRequest.wIndex & (uint32_t)ENDPOINT_EPNUM_MASK;
 420:../Dave/Generated/USBD/usbd.c ****           if ((((uint8_t)DEVICE_STATE_Configured == USB_DeviceState) || ((uint16_t)0U == USB_Contro
 421:../Dave/Generated/USBD/usbd.c ****                   (1U == device.Endpoints[index].IsConfigured))
 422:../Dave/Generated/USBD/usbd.c ****           {
 423:../Dave/Generated/USBD/usbd.c ****             device.Endpoints[index].IsHalted = 0U;
 424:../Dave/Generated/USBD/usbd.c ****             if (USBD_STATUS_SUCCESS != 
 425:../Dave/Generated/USBD/usbd.c ****                                  (USBD_STATUS_t)device.Driver->EndpointStall((uint8_t)USB_ControlRe
 426:../Dave/Generated/USBD/usbd.c ****             {
 427:../Dave/Generated/USBD/usbd.c ****               XMC_ASSERT("USBD_Handle_DeviceRequest: EndpointStall failed", 0);
 428:../Dave/Generated/USBD/usbd.c ****             }
 429:../Dave/Generated/USBD/usbd.c ****           }
 430:../Dave/Generated/USBD/usbd.c ****           else
 431:../Dave/Generated/USBD/usbd.c ****           {
 432:../Dave/Generated/USBD/usbd.c ****             USBD_HandleEP0_Stall();
 433:../Dave/Generated/USBD/usbd.c ****           }
 434:../Dave/Generated/USBD/usbd.c ****           break;
 435:../Dave/Generated/USBD/usbd.c ****         }
 436:../Dave/Generated/USBD/usbd.c ****         if (REQREC_DEVICE == ((uint32_t)USB_ControlRequest.bmRequestType & REQ_RECIPIENT_MASK))
 437:../Dave/Generated/USBD/usbd.c ****         {
 438:../Dave/Generated/USBD/usbd.c ****           device.remote_wakeup = 0U;
 439:../Dave/Generated/USBD/usbd.c ****           break;
 440:../Dave/Generated/USBD/usbd.c ****         }
 441:../Dave/Generated/USBD/usbd.c ****         USBD_HandleEP0_Stall();
 442:../Dave/Generated/USBD/usbd.c ****         break;
 443:../Dave/Generated/USBD/usbd.c **** 
 444:../Dave/Generated/USBD/usbd.c ****       case REQ_GetConfiguration:
 445:../Dave/Generated/USBD/usbd.c ****         if (0U == (uint32_t)device.Driver->EndpointWrite(0U,&device.configuration,1U))
 446:../Dave/Generated/USBD/usbd.c ****         {
 447:../Dave/Generated/USBD/usbd.c ****           XMC_ASSERT("USBD_Handle_DeviceRequest: EndpointWrite failed on get configuration request"
 448:../Dave/Generated/USBD/usbd.c ****         }
 449:../Dave/Generated/USBD/usbd.c ****         break;
 450:../Dave/Generated/USBD/usbd.c **** 
 451:../Dave/Generated/USBD/usbd.c ****       case REQ_GetDescriptor:
 452:../Dave/Generated/USBD/usbd.c ****         if (NULL != device.events->get_descriptor)
 453:../Dave/Generated/USBD/usbd.c ****         {
 454:../Dave/Generated/USBD/usbd.c ****           tmp_value = (uint32_t)USB_ControlRequest.wValue;
 455:../Dave/Generated/USBD/usbd.c ****           tmp_index = (uint32_t)USB_ControlRequest.wIndex;
 456:../Dave/Generated/USBD/usbd.c ****           length = (uint32_t)device.events->get_descriptor((uint16_t)tmp_value, (uint16_t)tmp_index
 457:../Dave/Generated/USBD/usbd.c ****         }
 458:../Dave/Generated/USBD/usbd.c **** 
 459:../Dave/Generated/USBD/usbd.c ****         if (0U == length)
 460:../Dave/Generated/USBD/usbd.c ****         {
 461:../Dave/Generated/USBD/usbd.c ****           USBD_HandleEP0_Stall();
 462:../Dave/Generated/USBD/usbd.c ****         }
 463:../Dave/Generated/USBD/usbd.c ****         else
 464:../Dave/Generated/USBD/usbd.c ****         {
 465:../Dave/Generated/USBD/usbd.c ****           if (length >= (uint32_t)USB_ControlRequest.wLength)
 466:../Dave/Generated/USBD/usbd.c ****           {
 467:../Dave/Generated/USBD/usbd.c ****             length = (uint32_t)USB_ControlRequest.wLength;
 468:../Dave/Generated/USBD/usbd.c ****           }
 469:../Dave/Generated/USBD/usbd.c **** 
 470:../Dave/Generated/USBD/usbd.c ****           ret = (uint32_t)device.Driver->EndpointWrite(0U,buffer,length);
 471:../Dave/Generated/USBD/usbd.c ****           device.Endpoints[0].InDataLeft = length - ret;
 472:../Dave/Generated/USBD/usbd.c ****           device.Endpoints[0].InDataBuffer = (uint8_t *)buffer + ret;
 473:../Dave/Generated/USBD/usbd.c ****         }
 474:../Dave/Generated/USBD/usbd.c ****         break;
 475:../Dave/Generated/USBD/usbd.c **** 
 476:../Dave/Generated/USBD/usbd.c ****       case REQ_GetInterface:
 477:../Dave/Generated/USBD/usbd.c ****         if ((uint8_t)DEVICE_STATE_Configured == USB_DeviceState)
 478:../Dave/Generated/USBD/usbd.c ****         {          
 479:../Dave/Generated/USBD/usbd.c ****           if (0U == (uint32_t)device.Driver->EndpointWrite(0U, 
 480:../Dave/Generated/USBD/usbd.c ****              &device.interface_settings[USB_ControlRequest.wIndex], 1U))
 481:../Dave/Generated/USBD/usbd.c ****           {
 482:../Dave/Generated/USBD/usbd.c ****             XMC_ASSERT("USBD_Handle_DeviceRequest: EndpointWrite failed on REQ_GetInterface", 0);
 483:../Dave/Generated/USBD/usbd.c ****           }
 484:../Dave/Generated/USBD/usbd.c ****           break;
 485:../Dave/Generated/USBD/usbd.c ****         }
 486:../Dave/Generated/USBD/usbd.c ****         if ((uint8_t)DEVICE_STATE_Addressed == USB_DeviceState)
 487:../Dave/Generated/USBD/usbd.c ****         {
 488:../Dave/Generated/USBD/usbd.c ****           USBD_HandleEP0_Stall();
 489:../Dave/Generated/USBD/usbd.c ****           break;
 490:../Dave/Generated/USBD/usbd.c ****         }
 491:../Dave/Generated/USBD/usbd.c ****         break;
 492:../Dave/Generated/USBD/usbd.c **** 
 493:../Dave/Generated/USBD/usbd.c ****       case REQ_GetStatus:
 494:../Dave/Generated/USBD/usbd.c ****         if (REQREC_DEVICE == ((uint32_t)USB_ControlRequest.bmRequestType & REQ_RECIPIENT_MASK))
 495:../Dave/Generated/USBD/usbd.c ****         {
 496:../Dave/Generated/USBD/usbd.c ****           status = (uint32_t)((uint8_t)(device.remote_wakeup << (uint8_t)1) | device.self_powered);
 497:../Dave/Generated/USBD/usbd.c ****           if (0U == (uint32_t)device.Driver->EndpointWrite(0U, (uint8_t*)&status, USBD_WORD_SIZE))
 498:../Dave/Generated/USBD/usbd.c ****           {
 499:../Dave/Generated/USBD/usbd.c ****             XMC_ASSERT("USBD_Handle_DeviceRequest: EndpointWrite failed on REQ_GetStatus", 0);
 500:../Dave/Generated/USBD/usbd.c ****           }          
 501:../Dave/Generated/USBD/usbd.c ****           break;
 502:../Dave/Generated/USBD/usbd.c ****         }
 503:../Dave/Generated/USBD/usbd.c ****         if ((REQREC_INTERFACE == ((uint32_t)USB_ControlRequest.bmRequestType & REQ_RECIPIENT_MASK))
 504:../Dave/Generated/USBD/usbd.c ****             ((uint8_t)DEVICE_STATE_Configured == USB_DeviceState))
 505:../Dave/Generated/USBD/usbd.c ****         {
 506:../Dave/Generated/USBD/usbd.c ****           status = 0U;
 507:../Dave/Generated/USBD/usbd.c ****           if (0U == (uint32_t)device.Driver->EndpointWrite(0U, (uint8_t*)&status, USBD_WORD_SIZE))
 508:../Dave/Generated/USBD/usbd.c ****           {
 509:../Dave/Generated/USBD/usbd.c ****             XMC_ASSERT("USBD_Handle_DeviceRequest: EndpointWrite failed on REQ_GetStatus- REQREC_IN
 510:../Dave/Generated/USBD/usbd.c ****           }          
 511:../Dave/Generated/USBD/usbd.c ****           break;
 512:../Dave/Generated/USBD/usbd.c ****         }
 513:../Dave/Generated/USBD/usbd.c **** 
 514:../Dave/Generated/USBD/usbd.c ****         if (REQREC_ENDPOINT == ((uint32_t)USB_ControlRequest.bmRequestType & REQ_RECIPIENT_MASK))
 515:../Dave/Generated/USBD/usbd.c ****         {
 516:../Dave/Generated/USBD/usbd.c ****           index = (uint32_t)(USB_ControlRequest.wIndex & USBD_BYTE_MASK & ENDPOINT_EPNUM_MASK);
 517:../Dave/Generated/USBD/usbd.c ****           if ((((uint8_t)DEVICE_STATE_Configured == USB_DeviceState) || ((uint16_t)0 == USB_Control
 518:../Dave/Generated/USBD/usbd.c ****               (1U == device.Endpoints[index].IsConfigured))
 519:../Dave/Generated/USBD/usbd.c ****           {
 520:../Dave/Generated/USBD/usbd.c ****             status = (uint32_t)device.Endpoints[index].IsHalted;
 521:../Dave/Generated/USBD/usbd.c ****             if (0U == (uint32_t)device.Driver->EndpointWrite(0U, (uint8_t*)&status, USBD_WORD_SIZE)
 522:../Dave/Generated/USBD/usbd.c ****             {
 523:../Dave/Generated/USBD/usbd.c ****               XMC_ASSERT("USBD_Handle_DeviceRequest: EndpointWrite failed on REQ_GetStatus- REQREC_
 524:../Dave/Generated/USBD/usbd.c ****             }              
 525:../Dave/Generated/USBD/usbd.c ****             break;
 526:../Dave/Generated/USBD/usbd.c ****           }
 527:../Dave/Generated/USBD/usbd.c ****         }
 528:../Dave/Generated/USBD/usbd.c ****         /* default stall */
 529:../Dave/Generated/USBD/usbd.c ****         USBD_HandleEP0_Stall();
 530:../Dave/Generated/USBD/usbd.c ****         break;
 531:../Dave/Generated/USBD/usbd.c **** 
 532:../Dave/Generated/USBD/usbd.c ****       case REQ_SetAddress:
 533:../Dave/Generated/USBD/usbd.c ****         if (0U == value)
 534:../Dave/Generated/USBD/usbd.c ****         {
 535:../Dave/Generated/USBD/usbd.c ****           USB_DeviceState = (uint8_t)DEVICE_STATE_Default;
 536:../Dave/Generated/USBD/usbd.c ****         }
 537:../Dave/Generated/USBD/usbd.c ****         else
 538:../Dave/Generated/USBD/usbd.c ****         {
 539:../Dave/Generated/USBD/usbd.c ****           USB_DeviceState = (uint8_t)DEVICE_STATE_Addressed;
 540:../Dave/Generated/USBD/usbd.c ****         }
 541:../Dave/Generated/USBD/usbd.c ****         if (USBD_STATUS_SUCCESS == (USBD_STATUS_t)device.Driver->DeviceSetAddress((uint8_t)value,
 542:../Dave/Generated/USBD/usbd.c ****                                    XMC_USBD_SET_ADDRESS_STAGE_SETUP))
 543:../Dave/Generated/USBD/usbd.c ****         {
 544:../Dave/Generated/USBD/usbd.c ****           if (NULL != device.events->set_address)
 545:../Dave/Generated/USBD/usbd.c ****           {
 546:../Dave/Generated/USBD/usbd.c ****             device.events->set_address();
 547:../Dave/Generated/USBD/usbd.c ****           }
 548:../Dave/Generated/USBD/usbd.c ****         }
 549:../Dave/Generated/USBD/usbd.c ****         break;
 550:../Dave/Generated/USBD/usbd.c **** 
 551:../Dave/Generated/USBD/usbd.c ****       case REQ_SetConfiguration:
 552:../Dave/Generated/USBD/usbd.c ****         /* Regardless the state update the configuration to unconfigure
 553:../Dave/Generated/USBD/usbd.c ****          * endpoints */
 554:../Dave/Generated/USBD/usbd.c ****         device.configuration = (uint8_t)value;
 555:../Dave/Generated/USBD/usbd.c ****         if (NULL != device.events->config_changed)
 556:../Dave/Generated/USBD/usbd.c ****         {
 557:../Dave/Generated/USBD/usbd.c ****           device.events->config_changed();
 558:../Dave/Generated/USBD/usbd.c ****         }
 559:../Dave/Generated/USBD/usbd.c **** 
 560:../Dave/Generated/USBD/usbd.c ****         /* when config 0 is choosen, we are back in address state */
 561:../Dave/Generated/USBD/usbd.c ****         if (0U == value)
 562:../Dave/Generated/USBD/usbd.c ****         {
 563:../Dave/Generated/USBD/usbd.c ****           USB_DeviceState = (uint8_t)DEVICE_STATE_Addressed;
 564:../Dave/Generated/USBD/usbd.c ****           break;
 565:../Dave/Generated/USBD/usbd.c ****         }
 566:../Dave/Generated/USBD/usbd.c ****         /* go ahead only with vailid config. (must be set in event) */
 567:../Dave/Generated/USBD/usbd.c ****         if (1U == device.IsConfigured)
 568:../Dave/Generated/USBD/usbd.c ****         {
 569:../Dave/Generated/USBD/usbd.c ****           USB_DeviceState = (uint8_t)DEVICE_STATE_Configured;
 570:../Dave/Generated/USBD/usbd.c ****         }
 571:../Dave/Generated/USBD/usbd.c ****         else
 572:../Dave/Generated/USBD/usbd.c ****         {
 573:../Dave/Generated/USBD/usbd.c ****           USBD_HandleEP0_Stall();
 574:../Dave/Generated/USBD/usbd.c ****         }
 575:../Dave/Generated/USBD/usbd.c ****         break;
 576:../Dave/Generated/USBD/usbd.c **** 
 577:../Dave/Generated/USBD/usbd.c ****       case REQ_SetDescriptor:
 578:../Dave/Generated/USBD/usbd.c ****         /* Set Descriptor not supported, so stall */
 579:../Dave/Generated/USBD/usbd.c ****         USBD_HandleEP0_Stall();
 580:../Dave/Generated/USBD/usbd.c ****         break;
 581:../Dave/Generated/USBD/usbd.c **** 
 582:../Dave/Generated/USBD/usbd.c ****       case REQ_SetInterface:
 583:../Dave/Generated/USBD/usbd.c ****         if ((uint8_t)DEVICE_STATE_Configured == USB_DeviceState)
 584:../Dave/Generated/USBD/usbd.c ****         {
 585:../Dave/Generated/USBD/usbd.c ****           tmp_value = (uint32_t)USB_ControlRequest.wValue;
 586:../Dave/Generated/USBD/usbd.c ****           tmp_index = (uint32_t)USB_ControlRequest.wIndex;
 587:../Dave/Generated/USBD/usbd.c ****           device.interface_settings[tmp_index] =	(uint8_t)tmp_value;
 588:../Dave/Generated/USBD/usbd.c ****           break;
 589:../Dave/Generated/USBD/usbd.c ****         }
 590:../Dave/Generated/USBD/usbd.c ****         if ((uint8_t)DEVICE_STATE_Addressed == USB_DeviceState)
 591:../Dave/Generated/USBD/usbd.c ****         {
 592:../Dave/Generated/USBD/usbd.c ****           USBD_HandleEP0_Stall();
 593:../Dave/Generated/USBD/usbd.c ****           break;
 594:../Dave/Generated/USBD/usbd.c ****         }
 595:../Dave/Generated/USBD/usbd.c ****         break;
 596:../Dave/Generated/USBD/usbd.c **** 
 597:../Dave/Generated/USBD/usbd.c ****       case REQ_SetFeature:
 598:../Dave/Generated/USBD/usbd.c ****         /* we do not support test mode */
 599:../Dave/Generated/USBD/usbd.c ****         if ((uint32_t)FEATURE_SEL_TestMode == value)
 600:../Dave/Generated/USBD/usbd.c ****         {
 601:../Dave/Generated/USBD/usbd.c ****           USBD_HandleEP0_Stall();
 602:../Dave/Generated/USBD/usbd.c ****           break;
 603:../Dave/Generated/USBD/usbd.c ****         }
 604:../Dave/Generated/USBD/usbd.c ****         /* configured state */
 605:../Dave/Generated/USBD/usbd.c ****         if ((uint8_t)DEVICE_STATE_Configured == USB_DeviceState)
 606:../Dave/Generated/USBD/usbd.c ****         {
 607:../Dave/Generated/USBD/usbd.c ****           switch (value)
 608:../Dave/Generated/USBD/usbd.c ****           {
 609:../Dave/Generated/USBD/usbd.c ****             case FEATURE_SEL_DeviceRemoteWakeup:
 610:../Dave/Generated/USBD/usbd.c ****               device.remote_wakeup = 1U;
 611:../Dave/Generated/USBD/usbd.c ****               break;
 612:../Dave/Generated/USBD/usbd.c ****             case FEATURE_SEL_EndpointHalt:
 613:../Dave/Generated/USBD/usbd.c ****               index = ((uint32_t)USB_ControlRequest.wIndex & (uint32_t)USBD_BYTE_MASK & 
 614:../Dave/Generated/USBD/usbd.c ****                       (uint32_t)XMC_USBD_ENDPOINT_NUMBER_MASK);
 615:../Dave/Generated/USBD/usbd.c ****               if (0U == device.Endpoints[index].IsConfigured)
 616:../Dave/Generated/USBD/usbd.c ****               {
 617:../Dave/Generated/USBD/usbd.c ****                 USBD_HandleEP0_Stall();
 618:../Dave/Generated/USBD/usbd.c ****               }
 619:../Dave/Generated/USBD/usbd.c ****               else
 620:../Dave/Generated/USBD/usbd.c ****               {
 621:../Dave/Generated/USBD/usbd.c ****                 device.Endpoints[index].IsHalted = 1U;
 622:../Dave/Generated/USBD/usbd.c ****                 if (USBD_STATUS_SUCCESS != 
 623:../Dave/Generated/USBD/usbd.c ****                                   (USBD_STATUS_t)device.Driver->EndpointStall((uint8_t)USB_ControlR
 624:../Dave/Generated/USBD/usbd.c ****                 {
 625:../Dave/Generated/USBD/usbd.c ****                   XMC_ASSERT("USBD_Handle_DeviceRequest: EndpointStall failed- FEATURE_SEL_Endpoint
 626:../Dave/Generated/USBD/usbd.c ****                 }                
 627:../Dave/Generated/USBD/usbd.c ****               }
 628:../Dave/Generated/USBD/usbd.c ****               break;
 629:../Dave/Generated/USBD/usbd.c ****             default:
 630:../Dave/Generated/USBD/usbd.c ****               break;
 631:../Dave/Generated/USBD/usbd.c ****           }
 632:../Dave/Generated/USBD/usbd.c ****           break;
 633:../Dave/Generated/USBD/usbd.c ****         }
 634:../Dave/Generated/USBD/usbd.c ****         /* when addressed, only ep0 can be halted */
 635:../Dave/Generated/USBD/usbd.c ****         if ((uint8_t)DEVICE_STATE_Addressed == USB_DeviceState)
 636:../Dave/Generated/USBD/usbd.c ****         {
 637:../Dave/Generated/USBD/usbd.c ****           if (((uint32_t)FEATURE_SEL_EndpointHalt == value) &&
 638:../Dave/Generated/USBD/usbd.c ****               (REQREC_ENDPOINT == ((uint32_t)USB_ControlRequest.bmRequestType & REQ_RECIPIENT_MASK)
 639:../Dave/Generated/USBD/usbd.c ****               ((uint16_t)0 == ((uint16_t)USB_ControlRequest.wIndex & (uint16_t)USBD_BYTE_MASK)))
 640:../Dave/Generated/USBD/usbd.c ****           {
 641:../Dave/Generated/USBD/usbd.c ****             device.Endpoints[0].IsHalted = 1U;
 642:../Dave/Generated/USBD/usbd.c ****             USBD_HandleEP0_Stall();
 643:../Dave/Generated/USBD/usbd.c ****             break;
 644:../Dave/Generated/USBD/usbd.c ****           }
 645:../Dave/Generated/USBD/usbd.c ****         }
 646:../Dave/Generated/USBD/usbd.c ****         /* default behaviour is stall */
 647:../Dave/Generated/USBD/usbd.c ****         USBD_HandleEP0_Stall();
 648:../Dave/Generated/USBD/usbd.c ****         break;
 649:../Dave/Generated/USBD/usbd.c **** 
 650:../Dave/Generated/USBD/usbd.c ****       case REQ_SynchFrame:
 651:../Dave/Generated/USBD/usbd.c ****         /* Not yet supported */
 652:../Dave/Generated/USBD/usbd.c ****         USBD_HandleEP0_Stall();
 653:../Dave/Generated/USBD/usbd.c ****         break;
 654:../Dave/Generated/USBD/usbd.c **** 
 655:../Dave/Generated/USBD/usbd.c ****       default:
 656:../Dave/Generated/USBD/usbd.c ****         USBD_HandleEP0_Stall();
 657:../Dave/Generated/USBD/usbd.c ****         break;
 658:../Dave/Generated/USBD/usbd.c ****     }
 659:../Dave/Generated/USBD/usbd.c ****   }
 660:../Dave/Generated/USBD/usbd.c ****   device.IsSetupRecieved = 0U;
 661:../Dave/Generated/USBD/usbd.c **** }
 662:../Dave/Generated/USBD/usbd.c **** 
 663:../Dave/Generated/USBD/usbd.c **** /**
 664:../Dave/Generated/USBD/usbd.c ****  * Handle complete IN transfer on EP0
 665:../Dave/Generated/USBD/usbd.c ****  *
 666:../Dave/Generated/USBD/usbd.c ****  * In USBD_EP0_STATE_IN_DATA state it starts a receive and switches to \ref USBD_EP0_STATE_OUT_STAT
 667:../Dave/Generated/USBD/usbd.c ****  * state.
 668:../Dave/Generated/USBD/usbd.c ****  * In USBD_EP0_STATE_IN_STATUS state it starts a new read of setup packets and switches
 669:../Dave/Generated/USBD/usbd.c ****  * to USBD_EP0_STATE_IDLE.
 670:../Dave/Generated/USBD/usbd.c ****  */
 671:../Dave/Generated/USBD/usbd.c **** static void USBD_HandleEP0_IN()
 672:../Dave/Generated/USBD/usbd.c **** {
 673:../Dave/Generated/USBD/usbd.c ****   if (USBD_EP0_STATE_IN_DATA == device.ep0_state)
 674:../Dave/Generated/USBD/usbd.c ****   {
 675:../Dave/Generated/USBD/usbd.c ****     /* Read zero length out data packet */
 676:../Dave/Generated/USBD/usbd.c ****     device.Driver->EndpointReadStart((uint8_t)0,0U);
 677:../Dave/Generated/USBD/usbd.c ****     device.ep0_state = USBD_EP0_STATE_OUT_STATUS;
 678:../Dave/Generated/USBD/usbd.c ****   }
 679:../Dave/Generated/USBD/usbd.c ****   else if (USBD_EP0_STATE_IN_STATUS == device.ep0_state)
 680:../Dave/Generated/USBD/usbd.c ****   {
 681:../Dave/Generated/USBD/usbd.c ****     /* Request new setup packet */
 682:../Dave/Generated/USBD/usbd.c ****     device.Driver->EndpointReadStart((uint8_t)device.Endpoints[0].Address,(uint32_t)USBD_EP0_3SETUP
 683:../Dave/Generated/USBD/usbd.c ****     device.ep0_state = USBD_EP0_STATE_IDLE;
 684:../Dave/Generated/USBD/usbd.c ****   }
 685:../Dave/Generated/USBD/usbd.c ****   else
 686:../Dave/Generated/USBD/usbd.c ****   {
 687:../Dave/Generated/USBD/usbd.c ****     /*Assert*/
 688:../Dave/Generated/USBD/usbd.c ****     XMC_ASSERT("USBD_HandleEP0_IN: invalid ep0 state", 0);
 689:../Dave/Generated/USBD/usbd.c ****   }
 690:../Dave/Generated/USBD/usbd.c **** }
 691:../Dave/Generated/USBD/usbd.c **** 
 692:../Dave/Generated/USBD/usbd.c **** 
 693:../Dave/Generated/USBD/usbd.c **** /**
 694:../Dave/Generated/USBD/usbd.c ****  * Handle complete OUT transfer on EP0.
 695:../Dave/Generated/USBD/usbd.c ****  *
 696:../Dave/Generated/USBD/usbd.c ****  * Handles the OUT packet based on the state of endpoint 0. Starts a new read
 697:../Dave/Generated/USBD/usbd.c ****  * for new SETUP packets, when in \ref USBD_EP0_STATE_OUT_STATUS. When endpoint 0 is in
 698:../Dave/Generated/USBD/usbd.c ****  * USBD_EP0_STATE_OUT_DATA state, it handles the received data and starts a write
 699:../Dave/Generated/USBD/usbd.c ****  * transaction for \ref USBD_EP0_STATE_IN_STATUS.
 700:../Dave/Generated/USBD/usbd.c ****  */
 701:../Dave/Generated/USBD/usbd.c **** static void USBD_HandleEP0_OUT()
 702:../Dave/Generated/USBD/usbd.c **** {
 703:../Dave/Generated/USBD/usbd.c ****   if (USBD_EP0_STATE_OUT_DATA == device.ep0_state)
 704:../Dave/Generated/USBD/usbd.c ****   {
 705:../Dave/Generated/USBD/usbd.c ****     /* Now we have the data for handling the request */
 706:../Dave/Generated/USBD/usbd.c ****     USBD_Handle_DeviceRequest();
 707:../Dave/Generated/USBD/usbd.c ****     /* Zero length packet for status stage */
 708:../Dave/Generated/USBD/usbd.c ****     device.Driver->EndpointWrite((uint8_t)0,(uint8_t*)0,(uint32_t)0);
 709:../Dave/Generated/USBD/usbd.c ****     device.ep0_state = USBD_EP0_STATE_IN_STATUS;
 710:../Dave/Generated/USBD/usbd.c ****   }
 711:../Dave/Generated/USBD/usbd.c ****   else if (USBD_EP0_STATE_OUT_STATUS == device.ep0_state)
 712:../Dave/Generated/USBD/usbd.c ****   {
 713:../Dave/Generated/USBD/usbd.c ****     /* Request new setup packet */
 714:../Dave/Generated/USBD/usbd.c ****     device.Driver->EndpointReadStart((uint8_t)device.Endpoints[0].Address,(uint32_t)USBD_EP0_3SETUP
 715:../Dave/Generated/USBD/usbd.c ****     device.ep0_state = USBD_EP0_STATE_IDLE;
 716:../Dave/Generated/USBD/usbd.c ****   }
 717:../Dave/Generated/USBD/usbd.c ****   else
 718:../Dave/Generated/USBD/usbd.c ****   {
 719:../Dave/Generated/USBD/usbd.c ****     /*Assert*/
 720:../Dave/Generated/USBD/usbd.c ****     XMC_ASSERT("USBD_HandleEP0_OUT: invalid ep0 state", 0);
 721:../Dave/Generated/USBD/usbd.c ****   }
 722:../Dave/Generated/USBD/usbd.c **** }
 723:../Dave/Generated/USBD/usbd.c **** 
 724:../Dave/Generated/USBD/usbd.c **** /**
 725:../Dave/Generated/USBD/usbd.c ****  * Handle SETUP packet on EP0.
 726:../Dave/Generated/USBD/usbd.c ****  *
 727:../Dave/Generated/USBD/usbd.c ****  * Handles the setup packet and switches to correct state. If data is send from host to device it s
 728:../Dave/Generated/USBD/usbd.c ****  * into USBD_EP0_STATE_OUT_DATA state. When the host sends all data within the setup packet and whe
 729:../Dave/Generated/USBD/usbd.c ****  * equals zero, it starts processing the request and sends in status response including the switch 
 730:../Dave/Generated/USBD/usbd.c ****  * USBD_EP0_STATE_IN_STATUS. When the host expects data from the device, the function processes the
 731:../Dave/Generated/USBD/usbd.c ****  * request and switches to USBD_EP0_STATE_IN_DATA state.
 732:../Dave/Generated/USBD/usbd.c ****  */
 733:../Dave/Generated/USBD/usbd.c **** static void USBD_HandleEP0_SETUP()
 734:../Dave/Generated/USBD/usbd.c **** {
 735:../Dave/Generated/USBD/usbd.c ****   /* read setup packet from ep0 */
 736:../Dave/Generated/USBD/usbd.c ****   uint32_t ret_val;
 737:../Dave/Generated/USBD/usbd.c **** 
 738:../Dave/Generated/USBD/usbd.c ****   ret_val = (uint32_t)device.Driver->EndpointRead((uint8_t)0,(void*)&USB_ControlRequest,
 739:../Dave/Generated/USBD/usbd.c ****             (uint32_t)USBD_EP0_SETUP_PKT_SIZE);
 740:../Dave/Generated/USBD/usbd.c ****   device.IsSetupRecieved = (uint8_t)true;
 741:../Dave/Generated/USBD/usbd.c **** 
 742:../Dave/Generated/USBD/usbd.c ****   if ((uint32_t)USBD_EP0_SETUP_PKT_SIZE == ret_val)
 743:../Dave/Generated/USBD/usbd.c ****   {
 744:../Dave/Generated/USBD/usbd.c ****     /* if length is zero we have only a in_status phase */
 745:../Dave/Generated/USBD/usbd.c ****     if (0U == (uint32_t)USB_ControlRequest.wLength)
 746:../Dave/Generated/USBD/usbd.c ****     {
 747:../Dave/Generated/USBD/usbd.c ****       device.ep0_state = USBD_EP0_STATE_IN_STATUS;
 748:../Dave/Generated/USBD/usbd.c ****       USBD_Handle_DeviceRequest();
 749:../Dave/Generated/USBD/usbd.c ****       device.Driver->EndpointWrite((uint8_t)0, (uint8_t*)0, (uint32_t)0);
 750:../Dave/Generated/USBD/usbd.c ****     }
 751:../Dave/Generated/USBD/usbd.c ****     else
 752:../Dave/Generated/USBD/usbd.c ****     {
 753:../Dave/Generated/USBD/usbd.c ****       if (USB_ControlRequest.bmRequestType & CONTROL_REQTYPE_DIRECTION)
 754:../Dave/Generated/USBD/usbd.c ****       {
 755:../Dave/Generated/USBD/usbd.c ****         device.ep0_state = USBD_EP0_STATE_IN_DATA;
 756:../Dave/Generated/USBD/usbd.c ****         USBD_Handle_DeviceRequest();
 757:../Dave/Generated/USBD/usbd.c ****       }
 758:../Dave/Generated/USBD/usbd.c ****       else
 759:../Dave/Generated/USBD/usbd.c ****       {
 760:../Dave/Generated/USBD/usbd.c ****         device.ep0_state = USBD_EP0_STATE_OUT_DATA;
 761:../Dave/Generated/USBD/usbd.c ****         /* Do not process request here, first read data */
 762:../Dave/Generated/USBD/usbd.c ****         device.Driver->EndpointReadStart((uint8_t)0, (uint32_t)USB_ControlRequest.wLength);
 763:../Dave/Generated/USBD/usbd.c ****       }
 764:../Dave/Generated/USBD/usbd.c ****     }
 765:../Dave/Generated/USBD/usbd.c ****   }
 766:../Dave/Generated/USBD/usbd.c ****   else
 767:../Dave/Generated/USBD/usbd.c ****   {
 768:../Dave/Generated/USBD/usbd.c ****     /*Assert*/
 769:../Dave/Generated/USBD/usbd.c ****     XMC_ASSERT("USBD_HandleEP0_SETUP: read invalid setup packet size", 0);
 770:../Dave/Generated/USBD/usbd.c ****   }
 771:../Dave/Generated/USBD/usbd.c **** }
 772:../Dave/Generated/USBD/usbd.c **** 
 773:../Dave/Generated/USBD/usbd.c **** 
 774:../Dave/Generated/USBD/usbd.c **** 
 775:../Dave/Generated/USBD/usbd.c **** /**
 776:../Dave/Generated/USBD/usbd.c ****  * Device event handler for XMC USB Driver
 777:../Dave/Generated/USBD/usbd.c ****  *
 778:../Dave/Generated/USBD/usbd.c ****  * The device can have several events, by which it notifies the application about the occurance of 
 779:../Dave/Generated/USBD/usbd.c ****  * Not all events are available on all chip series. (Power Events are only supported on XMC4500)
 780:../Dave/Generated/USBD/usbd.c ****  *
 781:../Dave/Generated/USBD/usbd.c ****  */
 782:../Dave/Generated/USBD/usbd.c **** static void USBD_SignalDeviceEventHandler(XMC_USBD_EVENT_t event)
 783:../Dave/Generated/USBD/usbd.c **** {
  27              	 .loc 1 783 0
  28              	 .cfi_startproc
  29              	 
  30              	 
  31              	.LVL0:
 784:../Dave/Generated/USBD/usbd.c ****   uint32_t i;
 785:../Dave/Generated/USBD/usbd.c **** 
 786:../Dave/Generated/USBD/usbd.c ****   switch (event)
  32              	 .loc 1 786 0
  33 0000 0928     	 cmp r0,#9
  34 0002 0ED8     	 bhi .L53
  35 0004 DFE810F0 	 tbh [pc,r0,lsl#1]
  36              	.L4:
  37 0008 0A00     	 .2byte (.L3-.L4)/2
  38 000a 1900     	 .2byte (.L5-.L4)/2
  39 000c 2300     	 .2byte (.L6-.L4)/2
  40 000e 2A00     	 .2byte (.L7-.L4)/2
  41 0010 3400     	 .2byte (.L8-.L4)/2
  42 0012 0D00     	 .2byte (.L53-.L4)/2
  43 0014 E800     	 .2byte (.L9-.L4)/2
  44 0016 0E00     	 .2byte (.L10-.L4)/2
  45 0018 0D00     	 .2byte (.L53-.L4)/2
  46 001a F600     	 .2byte (.L11-.L4)/2
  47              	 .p2align 1
  48              	.L3:
 787:../Dave/Generated/USBD/usbd.c ****   {
 788:../Dave/Generated/USBD/usbd.c ****     case XMC_USBD_EVENT_RESET:
 789:../Dave/Generated/USBD/usbd.c ****       USB_DeviceState = (uint8_t)DEVICE_STATE_Default;
 790:../Dave/Generated/USBD/usbd.c ****       device.ep0_state = USBD_EP0_STATE_IDLE;
 791:../Dave/Generated/USBD/usbd.c ****       device.remote_wakeup = (uint8_t)0;
 792:../Dave/Generated/USBD/usbd.c ****       /* Reset endpoints and configuration */
 793:../Dave/Generated/USBD/usbd.c ****       for (i = ((uint32_t)XMC_USBD_NUM_EPS); i > 0U; i--)
 794:../Dave/Generated/USBD/usbd.c ****       {
 795:../Dave/Generated/USBD/usbd.c ****         device.Endpoints[((uint32_t)XMC_USBD_NUM_EPS - i)].InInUse = (uint8_t)0;
 796:../Dave/Generated/USBD/usbd.c ****         device.Endpoints[((uint32_t)XMC_USBD_NUM_EPS - i)].OutInUse = (uint8_t)0;
 797:../Dave/Generated/USBD/usbd.c ****         device.Endpoints[((uint32_t)XMC_USBD_NUM_EPS - i)].IsHalted = (uint8_t)0;
 798:../Dave/Generated/USBD/usbd.c ****         if ((((uint32_t)XMC_USBD_NUM_EPS - i) != 0U) && 
 799:../Dave/Generated/USBD/usbd.c ****            (device.Endpoints[((uint32_t)XMC_USBD_NUM_EPS - i)].IsConfigured))
 800:../Dave/Generated/USBD/usbd.c ****         {
 801:../Dave/Generated/USBD/usbd.c ****           if (USBD_STATUS_SUCCESS == 
 802:../Dave/Generated/USBD/usbd.c ****           (USBD_STATUS_t)device.Driver->EndpointUnconfigure
 803:../Dave/Generated/USBD/usbd.c ****           ((uint8_t)device.Endpoints[((uint32_t)XMC_USBD_NUM_EPS - i)].Address))
 804:../Dave/Generated/USBD/usbd.c ****           {
 805:../Dave/Generated/USBD/usbd.c ****             device.Endpoints[((uint32_t)XMC_USBD_NUM_EPS - i)].IsConfigured = (uint8_t)0;
 806:../Dave/Generated/USBD/usbd.c ****             device.Endpoints[((uint32_t)XMC_USBD_NUM_EPS - i)].IsEnabled = (uint8_t)0;
 807:../Dave/Generated/USBD/usbd.c ****           }
 808:../Dave/Generated/USBD/usbd.c ****         }
 809:../Dave/Generated/USBD/usbd.c ****       }
 810:../Dave/Generated/USBD/usbd.c ****       device.configuration = (uint8_t)0;
 811:../Dave/Generated/USBD/usbd.c ****       for (i = ((uint32_t)NUM_INTERFACES); i > 0U; i--)
 812:../Dave/Generated/USBD/usbd.c ****       {
 813:../Dave/Generated/USBD/usbd.c ****         device.interface_settings[((uint32_t)NUM_INTERFACES - i)] = (uint8_t)0;
 814:../Dave/Generated/USBD/usbd.c ****       }
 815:../Dave/Generated/USBD/usbd.c ****       device.Driver->EndpointReadStart((uint8_t)device.Endpoints[0].Address,(uint32_t)USBD_EP0_3SET
 816:../Dave/Generated/USBD/usbd.c ****       if (NULL != device.events->reset)
 817:../Dave/Generated/USBD/usbd.c ****       {
 818:../Dave/Generated/USBD/usbd.c ****         device.events->reset();
 819:../Dave/Generated/USBD/usbd.c ****       }
 820:../Dave/Generated/USBD/usbd.c ****       break;
 821:../Dave/Generated/USBD/usbd.c ****     case XMC_USBD_EVENT_SOF:
 822:../Dave/Generated/USBD/usbd.c ****       if (NULL != device.events->start_of_frame)
 823:../Dave/Generated/USBD/usbd.c ****       {
 824:../Dave/Generated/USBD/usbd.c ****         device.events->start_of_frame();
 825:../Dave/Generated/USBD/usbd.c ****       }
 826:../Dave/Generated/USBD/usbd.c ****       break;
 827:../Dave/Generated/USBD/usbd.c ****     case XMC_USBD_EVENT_CONNECT:
 828:../Dave/Generated/USBD/usbd.c ****       if (NULL != device.events->connect)
 829:../Dave/Generated/USBD/usbd.c ****       {
 830:../Dave/Generated/USBD/usbd.c ****         device.events->connect();
 831:../Dave/Generated/USBD/usbd.c ****       }
 832:../Dave/Generated/USBD/usbd.c ****       break;
 833:../Dave/Generated/USBD/usbd.c ****     case XMC_USBD_EVENT_DISCONNECT:
 834:../Dave/Generated/USBD/usbd.c ****       USB_DeviceState = (uint8_t)DEVICE_STATE_Powered;
 835:../Dave/Generated/USBD/usbd.c ****       if (NULL != device.events->disconnect)
 836:../Dave/Generated/USBD/usbd.c ****       {
 837:../Dave/Generated/USBD/usbd.c ****         device.events->disconnect();
 838:../Dave/Generated/USBD/usbd.c ****       }
 839:../Dave/Generated/USBD/usbd.c ****       break;
 840:../Dave/Generated/USBD/usbd.c ****     case XMC_USBD_EVENT_POWER_OFF:
 841:../Dave/Generated/USBD/usbd.c ****       USB_DeviceState = (uint8_t)DEVICE_STATE_Unattached;
 842:../Dave/Generated/USBD/usbd.c ****       if (NULL != device.events->disconnect)
 843:../Dave/Generated/USBD/usbd.c ****       {
 844:../Dave/Generated/USBD/usbd.c ****         device.events->disconnect();
 845:../Dave/Generated/USBD/usbd.c ****       }
 846:../Dave/Generated/USBD/usbd.c ****       break;
 847:../Dave/Generated/USBD/usbd.c ****     case XMC_USBD_EVENT_POWER_ON:
 848:../Dave/Generated/USBD/usbd.c ****       USB_DeviceState = (uint8_t)DEVICE_STATE_Powered;
  49              	 .loc 1 848 0
  50 001c B74B     	 ldr r3,.L61
  51 001e 0122     	 movs r2,#1
  52 0020 1A70     	 strb r2,[r3]
  53              	.LVL1:
  54              	.L53:
  55 0022 7047     	 bx lr
  56              	.LVL2:
  57              	.L10:
 849:../Dave/Generated/USBD/usbd.c ****       break;
 850:../Dave/Generated/USBD/usbd.c ****     case XMC_USBD_EVENT_REMOTE_WAKEUP:
 851:../Dave/Generated/USBD/usbd.c ****       break;
 852:../Dave/Generated/USBD/usbd.c ****     case XMC_USBD_EVENT_RESUME:
 853:../Dave/Generated/USBD/usbd.c ****       USB_DeviceState = (uint8_t)device.pre_suspend_device_state;
  58              	 .loc 1 853 0
  59 0024 B64B     	 ldr r3,.L61+4
  60 0026 B54A     	 ldr r2,.L61
 854:../Dave/Generated/USBD/usbd.c ****       if (NULL != device.events->wakeup)
  61              	 .loc 1 854 0
  62 0028 D3F84001 	 ldr r0,[r3,#320]
  63              	.LVL3:
 853:../Dave/Generated/USBD/usbd.c ****       if (NULL != device.events->wakeup)
  64              	 .loc 1 853 0
  65 002c 93F83A11 	 ldrb r1,[r3,#314]
  66              	 .loc 1 854 0
  67 0030 8369     	 ldr r3,[r0,#24]
 853:../Dave/Generated/USBD/usbd.c ****       if (NULL != device.events->wakeup)
  68              	 .loc 1 853 0
  69 0032 1170     	 strb r1,[r2]
  70              	 .loc 1 854 0
  71 0034 002B     	 cmp r3,#0
  72 0036 F4D0     	 beq .L53
  73              	.L57:
 855:../Dave/Generated/USBD/usbd.c ****       {
 856:../Dave/Generated/USBD/usbd.c ****         device.events->wakeup();
  74              	 .loc 1 856 0
  75 0038 1847     	 bx r3
  76              	.LVL4:
  77              	.L5:
 842:../Dave/Generated/USBD/usbd.c ****       {
  78              	 .loc 1 842 0
  79 003a B14B     	 ldr r3,.L61+4
 841:../Dave/Generated/USBD/usbd.c ****       if (NULL != device.events->disconnect)
  80              	 .loc 1 841 0
  81 003c AF4A     	 ldr r2,.L61
 842:../Dave/Generated/USBD/usbd.c ****       {
  82              	 .loc 1 842 0
  83 003e D3F84031 	 ldr r3,[r3,#320]
  84 0042 5B68     	 ldr r3,[r3,#4]
 841:../Dave/Generated/USBD/usbd.c ****       if (NULL != device.events->disconnect)
  85              	 .loc 1 841 0
  86 0044 0021     	 movs r1,#0
  87 0046 1170     	 strb r1,[r2]
 842:../Dave/Generated/USBD/usbd.c ****       {
  88              	 .loc 1 842 0
  89 0048 002B     	 cmp r3,#0
  90 004a F5D1     	 bne .L57
  91 004c E9E7     	 b .L53
  92              	.L6:
 828:../Dave/Generated/USBD/usbd.c ****       {
  93              	 .loc 1 828 0
  94 004e AC4B     	 ldr r3,.L61+4
  95 0050 D3F84031 	 ldr r3,[r3,#320]
  96 0054 1B68     	 ldr r3,[r3]
  97 0056 002B     	 cmp r3,#0
  98 0058 EED1     	 bne .L57
  99 005a E2E7     	 b .L53
 100              	.L7:
 835:../Dave/Generated/USBD/usbd.c ****       {
 101              	 .loc 1 835 0
 102 005c A84B     	 ldr r3,.L61+4
 834:../Dave/Generated/USBD/usbd.c ****       if (NULL != device.events->disconnect)
 103              	 .loc 1 834 0
 104 005e A74A     	 ldr r2,.L61
 835:../Dave/Generated/USBD/usbd.c ****       {
 105              	 .loc 1 835 0
 106 0060 D3F84031 	 ldr r3,[r3,#320]
 107 0064 5B68     	 ldr r3,[r3,#4]
 834:../Dave/Generated/USBD/usbd.c ****       if (NULL != device.events->disconnect)
 108              	 .loc 1 834 0
 109 0066 0121     	 movs r1,#1
 110 0068 1170     	 strb r1,[r2]
 835:../Dave/Generated/USBD/usbd.c ****       {
 111              	 .loc 1 835 0
 112 006a 002B     	 cmp r3,#0
 113 006c E4D1     	 bne .L57
 114 006e D8E7     	 b .L53
 115              	.L8:
 783:../Dave/Generated/USBD/usbd.c ****   uint32_t i;
 116              	 .loc 1 783 0
 117 0070 70B5     	 push {r4,r5,r6,lr}
 118              	.LCFI0:
 119              	 .cfi_def_cfa_offset 16
 120              	 .cfi_offset 4,-16
 121              	 .cfi_offset 5,-12
 122              	 .cfi_offset 6,-8
 123              	 .cfi_offset 14,-4
 789:../Dave/Generated/USBD/usbd.c ****       device.ep0_state = USBD_EP0_STATE_IDLE;
 124              	 .loc 1 789 0
 125 0072 A24B     	 ldr r3,.L61
 790:../Dave/Generated/USBD/usbd.c ****       device.remote_wakeup = (uint8_t)0;
 126              	 .loc 1 790 0
 127 0074 A24C     	 ldr r4,.L61+4
 789:../Dave/Generated/USBD/usbd.c ****       device.ep0_state = USBD_EP0_STATE_IDLE;
 128              	 .loc 1 789 0
 129 0076 0222     	 movs r2,#2
 130 0078 1A70     	 strb r2,[r3]
 795:../Dave/Generated/USBD/usbd.c ****         device.Endpoints[((uint32_t)XMC_USBD_NUM_EPS - i)].OutInUse = (uint8_t)0;
 131              	 .loc 1 795 0
 132 007a 2289     	 ldrh r2,[r4,#8]
 791:../Dave/Generated/USBD/usbd.c ****       /* Reset endpoints and configuration */
 133              	 .loc 1 791 0
 134 007c 94F83E31 	 ldrb r3,[r4,#318]
 795:../Dave/Generated/USBD/usbd.c ****         device.Endpoints[((uint32_t)XMC_USBD_NUM_EPS - i)].OutInUse = (uint8_t)0;
 135              	 .loc 1 795 0
 136 0080 6FF30412 	 bfc r2,#4,#1
 137 0084 2281     	 strh r2,[r4,#8]
 796:../Dave/Generated/USBD/usbd.c ****         device.Endpoints[((uint32_t)XMC_USBD_NUM_EPS - i)].IsHalted = (uint8_t)0;
 138              	 .loc 1 796 0
 139 0086 2289     	 ldrh r2,[r4,#8]
 140 0088 6FF3C302 	 bfc r2,#3,#1
 141 008c 2281     	 strh r2,[r4,#8]
 797:../Dave/Generated/USBD/usbd.c ****         if ((((uint32_t)XMC_USBD_NUM_EPS - i) != 0U) && 
 142              	 .loc 1 797 0
 143 008e 2289     	 ldrh r2,[r4,#8]
 144 0090 6FF38202 	 bfc r2,#2,#1
 145 0094 2281     	 strh r2,[r4,#8]
 795:../Dave/Generated/USBD/usbd.c ****         device.Endpoints[((uint32_t)XMC_USBD_NUM_EPS - i)].OutInUse = (uint8_t)0;
 146              	 .loc 1 795 0
 147 0096 A28E     	 ldrh r2,[r4,#52]
 148 0098 6FF30412 	 bfc r2,#4,#1
 149 009c A286     	 strh r2,[r4,#52]
 796:../Dave/Generated/USBD/usbd.c ****         device.Endpoints[((uint32_t)XMC_USBD_NUM_EPS - i)].IsHalted = (uint8_t)0;
 150              	 .loc 1 796 0
 151 009e A28E     	 ldrh r2,[r4,#52]
 152 00a0 6FF3C302 	 bfc r2,#3,#1
 153 00a4 A286     	 strh r2,[r4,#52]
 797:../Dave/Generated/USBD/usbd.c ****         if ((((uint32_t)XMC_USBD_NUM_EPS - i) != 0U) && 
 154              	 .loc 1 797 0
 155 00a6 A28E     	 ldrh r2,[r4,#52]
 156 00a8 6FF38202 	 bfc r2,#2,#1
 157 00ac A286     	 strh r2,[r4,#52]
 799:../Dave/Generated/USBD/usbd.c ****         {
 158              	 .loc 1 799 0
 159 00ae 94F83420 	 ldrb r2,[r4,#52]
 791:../Dave/Generated/USBD/usbd.c ****       /* Reset endpoints and configuration */
 160              	 .loc 1 791 0
 161 00b2 6FF38203 	 bfc r3,#2,#1
 790:../Dave/Generated/USBD/usbd.c ****       device.remote_wakeup = (uint8_t)0;
 162              	 .loc 1 790 0
 163 00b6 0121     	 movs r1,#1
 791:../Dave/Generated/USBD/usbd.c ****       /* Reset endpoints and configuration */
 164              	 .loc 1 791 0
 165 00b8 84F83E31 	 strb r3,[r4,#318]
 166              	.LVL5:
 798:../Dave/Generated/USBD/usbd.c ****            (device.Endpoints[((uint32_t)XMC_USBD_NUM_EPS - i)].IsConfigured))
 167              	 .loc 1 798 0
 168 00bc D307     	 lsls r3,r2,#31
 790:../Dave/Generated/USBD/usbd.c ****       device.remote_wakeup = (uint8_t)0;
 169              	 .loc 1 790 0
 170 00be 84F83B11 	 strb r1,[r4,#315]
 798:../Dave/Generated/USBD/usbd.c ****            (device.Endpoints[((uint32_t)XMC_USBD_NUM_EPS - i)].IsConfigured))
 171              	 .loc 1 798 0
 172 00c2 00F19F80 	 bmi .L59
 173              	.LVL6:
 174              	.L13:
 795:../Dave/Generated/USBD/usbd.c ****         device.Endpoints[((uint32_t)XMC_USBD_NUM_EPS - i)].OutInUse = (uint8_t)0;
 175              	 .loc 1 795 0
 176 00c6 B4F86030 	 ldrh r3,[r4,#96]
 177 00ca 8D4D     	 ldr r5,.L61+4
 178 00cc 6FF30413 	 bfc r3,#4,#1
 179 00d0 A4F86030 	 strh r3,[r4,#96]
 796:../Dave/Generated/USBD/usbd.c ****         device.Endpoints[((uint32_t)XMC_USBD_NUM_EPS - i)].IsHalted = (uint8_t)0;
 180              	 .loc 1 796 0
 181 00d4 B4F86030 	 ldrh r3,[r4,#96]
 182 00d8 6FF3C303 	 bfc r3,#3,#1
 183 00dc A4F86030 	 strh r3,[r4,#96]
 797:../Dave/Generated/USBD/usbd.c ****         if ((((uint32_t)XMC_USBD_NUM_EPS - i) != 0U) && 
 184              	 .loc 1 797 0
 185 00e0 B4F86030 	 ldrh r3,[r4,#96]
 186 00e4 6FF38203 	 bfc r3,#2,#1
 187 00e8 A4F86030 	 strh r3,[r4,#96]
 799:../Dave/Generated/USBD/usbd.c ****         {
 188              	 .loc 1 799 0
 189 00ec 94F86030 	 ldrb r3,[r4,#96]
 798:../Dave/Generated/USBD/usbd.c ****            (device.Endpoints[((uint32_t)XMC_USBD_NUM_EPS - i)].IsConfigured))
 190              	 .loc 1 798 0
 191 00f0 DE07     	 lsls r6,r3,#31
 192 00f2 00F1EC80 	 bmi .L25
 193              	.L15:
 194              	.LVL7:
 795:../Dave/Generated/USBD/usbd.c ****         device.Endpoints[((uint32_t)XMC_USBD_NUM_EPS - i)].OutInUse = (uint8_t)0;
 195              	 .loc 1 795 0
 196 00f6 B4F88C30 	 ldrh r3,[r4,#140]
 197 00fa 814D     	 ldr r5,.L61+4
 198 00fc 6FF30413 	 bfc r3,#4,#1
 199 0100 A4F88C30 	 strh r3,[r4,#140]
 796:../Dave/Generated/USBD/usbd.c ****         device.Endpoints[((uint32_t)XMC_USBD_NUM_EPS - i)].IsHalted = (uint8_t)0;
 200              	 .loc 1 796 0
 201 0104 B4F88C30 	 ldrh r3,[r4,#140]
 202 0108 6FF3C303 	 bfc r3,#3,#1
 203 010c A4F88C30 	 strh r3,[r4,#140]
 797:../Dave/Generated/USBD/usbd.c ****         if ((((uint32_t)XMC_USBD_NUM_EPS - i) != 0U) && 
 204              	 .loc 1 797 0
 205 0110 B4F88C30 	 ldrh r3,[r4,#140]
 206 0114 6FF38203 	 bfc r3,#2,#1
 207 0118 A4F88C30 	 strh r3,[r4,#140]
 799:../Dave/Generated/USBD/usbd.c ****         {
 208              	 .loc 1 799 0
 209 011c 94F88C30 	 ldrb r3,[r4,#140]
 798:../Dave/Generated/USBD/usbd.c ****            (device.Endpoints[((uint32_t)XMC_USBD_NUM_EPS - i)].IsConfigured))
 210              	 .loc 1 798 0
 211 0120 D807     	 lsls r0,r3,#31
 212 0122 00F1BF80 	 bmi .L26
 213              	.L17:
 214              	.LVL8:
 795:../Dave/Generated/USBD/usbd.c ****         device.Endpoints[((uint32_t)XMC_USBD_NUM_EPS - i)].OutInUse = (uint8_t)0;
 215              	 .loc 1 795 0
 216 0126 B4F8B830 	 ldrh r3,[r4,#184]
 217 012a 754D     	 ldr r5,.L61+4
 218 012c 6FF30413 	 bfc r3,#4,#1
 219 0130 A4F8B830 	 strh r3,[r4,#184]
 796:../Dave/Generated/USBD/usbd.c ****         device.Endpoints[((uint32_t)XMC_USBD_NUM_EPS - i)].IsHalted = (uint8_t)0;
 220              	 .loc 1 796 0
 221 0134 B4F8B830 	 ldrh r3,[r4,#184]
 222 0138 6FF3C303 	 bfc r3,#3,#1
 223 013c A4F8B830 	 strh r3,[r4,#184]
 797:../Dave/Generated/USBD/usbd.c ****         if ((((uint32_t)XMC_USBD_NUM_EPS - i) != 0U) && 
 224              	 .loc 1 797 0
 225 0140 B4F8B830 	 ldrh r3,[r4,#184]
 226 0144 6FF38203 	 bfc r3,#2,#1
 227 0148 A4F8B830 	 strh r3,[r4,#184]
 799:../Dave/Generated/USBD/usbd.c ****         {
 228              	 .loc 1 799 0
 229 014c 94F8B830 	 ldrb r3,[r4,#184]
 798:../Dave/Generated/USBD/usbd.c ****            (device.Endpoints[((uint32_t)XMC_USBD_NUM_EPS - i)].IsConfigured))
 230              	 .loc 1 798 0
 231 0150 D907     	 lsls r1,r3,#31
 232 0152 00F19280 	 bmi .L27
 233              	.L19:
 234              	.LVL9:
 795:../Dave/Generated/USBD/usbd.c ****         device.Endpoints[((uint32_t)XMC_USBD_NUM_EPS - i)].OutInUse = (uint8_t)0;
 235              	 .loc 1 795 0
 236 0156 B4F8E430 	 ldrh r3,[r4,#228]
 237 015a 694D     	 ldr r5,.L61+4
 238 015c 6FF30413 	 bfc r3,#4,#1
 239 0160 A4F8E430 	 strh r3,[r4,#228]
 796:../Dave/Generated/USBD/usbd.c ****         device.Endpoints[((uint32_t)XMC_USBD_NUM_EPS - i)].IsHalted = (uint8_t)0;
 240              	 .loc 1 796 0
 241 0164 B4F8E430 	 ldrh r3,[r4,#228]
 242 0168 6FF3C303 	 bfc r3,#3,#1
 243 016c A4F8E430 	 strh r3,[r4,#228]
 797:../Dave/Generated/USBD/usbd.c ****         if ((((uint32_t)XMC_USBD_NUM_EPS - i) != 0U) && 
 244              	 .loc 1 797 0
 245 0170 B4F8E430 	 ldrh r3,[r4,#228]
 246 0174 6FF38203 	 bfc r3,#2,#1
 247 0178 A4F8E430 	 strh r3,[r4,#228]
 799:../Dave/Generated/USBD/usbd.c ****         {
 248              	 .loc 1 799 0
 249 017c 94F8E430 	 ldrb r3,[r4,#228]
 798:../Dave/Generated/USBD/usbd.c ****            (device.Endpoints[((uint32_t)XMC_USBD_NUM_EPS - i)].IsConfigured))
 250              	 .loc 1 798 0
 251 0180 DA07     	 lsls r2,r3,#31
 252 0182 66D4     	 bmi .L28
 253              	.L21:
 254              	.LVL10:
 795:../Dave/Generated/USBD/usbd.c ****         device.Endpoints[((uint32_t)XMC_USBD_NUM_EPS - i)].OutInUse = (uint8_t)0;
 255              	 .loc 1 795 0
 256 0184 B4F81031 	 ldrh r3,[r4,#272]
 257 0188 5D4D     	 ldr r5,.L61+4
 258 018a 6FF30413 	 bfc r3,#4,#1
 259 018e A4F81031 	 strh r3,[r4,#272]
 796:../Dave/Generated/USBD/usbd.c ****         device.Endpoints[((uint32_t)XMC_USBD_NUM_EPS - i)].IsHalted = (uint8_t)0;
 260              	 .loc 1 796 0
 261 0192 B4F81031 	 ldrh r3,[r4,#272]
 262 0196 6FF3C303 	 bfc r3,#3,#1
 263 019a A4F81031 	 strh r3,[r4,#272]
 797:../Dave/Generated/USBD/usbd.c ****         if ((((uint32_t)XMC_USBD_NUM_EPS - i) != 0U) && 
 264              	 .loc 1 797 0
 265 019e B4F81031 	 ldrh r3,[r4,#272]
 266 01a2 6FF38203 	 bfc r3,#2,#1
 267 01a6 A4F81031 	 strh r3,[r4,#272]
 799:../Dave/Generated/USBD/usbd.c ****         {
 268              	 .loc 1 799 0
 269 01aa 94F81031 	 ldrb r3,[r4,#272]
 798:../Dave/Generated/USBD/usbd.c ****            (device.Endpoints[((uint32_t)XMC_USBD_NUM_EPS - i)].IsConfigured))
 270              	 .loc 1 798 0
 271 01ae DB07     	 lsls r3,r3,#31
 272 01b0 3BD4     	 bmi .L29
 273              	.L22:
 274              	.LVL11:
 810:../Dave/Generated/USBD/usbd.c ****       for (i = ((uint32_t)NUM_INTERFACES); i > 0U; i--)
 275              	 .loc 1 810 0
 276 01b2 0023     	 movs r3,#0
 815:../Dave/Generated/USBD/usbd.c ****       if (NULL != device.events->reset)
 277              	 .loc 1 815 0
 278 01b4 2268     	 ldr r2,[r4]
 810:../Dave/Generated/USBD/usbd.c ****       for (i = ((uint32_t)NUM_INTERFACES); i > 0U; i--)
 279              	 .loc 1 810 0
 280 01b6 84F83931 	 strb r3,[r4,#313]
 281              	.LVL12:
 813:../Dave/Generated/USBD/usbd.c ****       }
 282              	 .loc 1 813 0
 283 01ba 84F83831 	 strb r3,[r4,#312]
 284              	.LVL13:
 815:../Dave/Generated/USBD/usbd.c ****       if (NULL != device.events->reset)
 285              	 .loc 1 815 0
 286 01be 936A     	 ldr r3,[r2,#40]
 287 01c0 2079     	 ldrb r0,[r4,#4]
 288 01c2 1821     	 movs r1,#24
 289 01c4 9847     	 blx r3
 290              	.LVL14:
 816:../Dave/Generated/USBD/usbd.c ****       {
 291              	 .loc 1 816 0
 292 01c6 D4F84031 	 ldr r3,[r4,#320]
 293 01ca 5B6A     	 ldr r3,[r3,#36]
 294 01cc 002B     	 cmp r3,#0
 295 01ce 00F09380 	 beq .L60
 857:../Dave/Generated/USBD/usbd.c ****       }
 858:../Dave/Generated/USBD/usbd.c ****       break;
 859:../Dave/Generated/USBD/usbd.c ****     case XMC_USBD_EVENT_SUSPEND:
 860:../Dave/Generated/USBD/usbd.c ****       device.pre_suspend_device_state = USB_DeviceState;
 861:../Dave/Generated/USBD/usbd.c ****       USB_DeviceState = (uint8_t)DEVICE_STATE_Suspended;
 862:../Dave/Generated/USBD/usbd.c ****       if (NULL != device.events->suspend)
 863:../Dave/Generated/USBD/usbd.c ****       {
 864:../Dave/Generated/USBD/usbd.c ****         device.events->suspend();
 865:../Dave/Generated/USBD/usbd.c ****       }
 866:../Dave/Generated/USBD/usbd.c ****       break;
 867:../Dave/Generated/USBD/usbd.c ****     default:
 868:../Dave/Generated/USBD/usbd.c ****       break;
 869:../Dave/Generated/USBD/usbd.c ****   }
 870:../Dave/Generated/USBD/usbd.c **** }
 296              	 .loc 1 870 0
 297 01d2 BDE87040 	 pop {r4,r5,r6,lr}
 298              	.LCFI1:
 299              	 .cfi_restore 14
 300              	 .cfi_restore 6
 301              	 .cfi_restore 5
 302              	 .cfi_restore 4
 303              	 .cfi_def_cfa_offset 0
 818:../Dave/Generated/USBD/usbd.c ****       }
 304              	 .loc 1 818 0
 305 01d6 1847     	 bx r3
 306              	.LVL15:
 307              	.L9:
 860:../Dave/Generated/USBD/usbd.c ****       USB_DeviceState = (uint8_t)DEVICE_STATE_Suspended;
 308              	 .loc 1 860 0
 309 01d8 494A     	 ldr r2,.L61+4
 310 01da 484B     	 ldr r3,.L61
 862:../Dave/Generated/USBD/usbd.c ****       {
 311              	 .loc 1 862 0
 312 01dc D2F84011 	 ldr r1,[r2,#320]
 860:../Dave/Generated/USBD/usbd.c ****       USB_DeviceState = (uint8_t)DEVICE_STATE_Suspended;
 313              	 .loc 1 860 0
 314 01e0 1878     	 ldrb r0,[r3]
 315              	.LVL16:
 316 01e2 82F83A01 	 strb r0,[r2,#314]
 862:../Dave/Generated/USBD/usbd.c ****       {
 317              	 .loc 1 862 0
 318 01e6 CA69     	 ldr r2,[r1,#28]
 861:../Dave/Generated/USBD/usbd.c ****       if (NULL != device.events->suspend)
 319              	 .loc 1 861 0
 320 01e8 0521     	 movs r1,#5
 321 01ea 1970     	 strb r1,[r3]
 862:../Dave/Generated/USBD/usbd.c ****       {
 322              	 .loc 1 862 0
 323 01ec 002A     	 cmp r2,#0
 324 01ee 3FF418AF 	 beq .L53
 864:../Dave/Generated/USBD/usbd.c ****       }
 325              	 .loc 1 864 0
 326 01f2 1047     	 bx r2
 327              	.LVL17:
 328              	.L11:
 822:../Dave/Generated/USBD/usbd.c ****       {
 329              	 .loc 1 822 0
 330 01f4 424B     	 ldr r3,.L61+4
 331 01f6 D3F84031 	 ldr r3,[r3,#320]
 332 01fa 1B6A     	 ldr r3,[r3,#32]
 333 01fc 002B     	 cmp r3,#0
 334 01fe 7FF41BAF 	 bne .L57
 335 0202 0EE7     	 b .L53
 336              	.LVL18:
 337              	.L59:
 338              	.LCFI2:
 339              	 .cfi_def_cfa_offset 16
 340              	 .cfi_offset 4,-16
 341              	 .cfi_offset 5,-12
 342              	 .cfi_offset 6,-8
 343              	 .cfi_offset 14,-4
 802:../Dave/Generated/USBD/usbd.c ****           ((uint8_t)device.Endpoints[((uint32_t)XMC_USBD_NUM_EPS - i)].Address))
 344              	 .loc 1 802 0
 345 0204 2368     	 ldr r3,[r4]
 346 0206 94F83000 	 ldrb r0,[r4,#48]
 347              	.LVL19:
 348 020a 1B6A     	 ldr r3,[r3,#32]
 349 020c 9847     	 blx r3
 350              	.LVL20:
 801:../Dave/Generated/USBD/usbd.c ****           (USBD_STATUS_t)device.Driver->EndpointUnconfigure
 351              	 .loc 1 801 0
 352 020e 0028     	 cmp r0,#0
 353 0210 7FF459AF 	 bne .L13
 805:../Dave/Generated/USBD/usbd.c ****             device.Endpoints[((uint32_t)XMC_USBD_NUM_EPS - i)].IsEnabled = (uint8_t)0;
 354              	 .loc 1 805 0
 355 0214 94F83430 	 ldrb r3,[r4,#52]
 356 0218 60F30003 	 bfi r3,r0,#0,#1
 357 021c 84F83430 	 strb r3,[r4,#52]
 806:../Dave/Generated/USBD/usbd.c ****           }
 358              	 .loc 1 806 0
 359 0220 A38E     	 ldrh r3,[r4,#52]
 360 0222 60F34103 	 bfi r3,r0,#1,#1
 361 0226 A386     	 strh r3,[r4,#52]
 362 0228 4DE7     	 b .L13
 363              	.LVL21:
 364              	.L29:
 802:../Dave/Generated/USBD/usbd.c ****           ((uint8_t)device.Endpoints[((uint32_t)XMC_USBD_NUM_EPS - i)].Address))
 365              	 .loc 1 802 0
 366 022a 2B68     	 ldr r3,[r5]
 367 022c 95F80C01 	 ldrb r0,[r5,#268]
 368 0230 1B6A     	 ldr r3,[r3,#32]
 369 0232 9847     	 blx r3
 370              	.LVL22:
 801:../Dave/Generated/USBD/usbd.c ****           (USBD_STATUS_t)device.Driver->EndpointUnconfigure
 371              	 .loc 1 801 0
 372 0234 0028     	 cmp r0,#0
 373 0236 BCD1     	 bne .L22
 805:../Dave/Generated/USBD/usbd.c ****             device.Endpoints[((uint32_t)XMC_USBD_NUM_EPS - i)].IsEnabled = (uint8_t)0;
 374              	 .loc 1 805 0
 375 0238 95F81031 	 ldrb r3,[r5,#272]
 376 023c 60F30003 	 bfi r3,r0,#0,#1
 377 0240 85F81031 	 strb r3,[r5,#272]
 806:../Dave/Generated/USBD/usbd.c ****           }
 378              	 .loc 1 806 0
 379 0244 B5F81031 	 ldrh r3,[r5,#272]
 380 0248 60F34103 	 bfi r3,r0,#1,#1
 381 024c A5F81031 	 strh r3,[r5,#272]
 382 0250 AFE7     	 b .L22
 383              	.LVL23:
 384              	.L28:
 802:../Dave/Generated/USBD/usbd.c ****           ((uint8_t)device.Endpoints[((uint32_t)XMC_USBD_NUM_EPS - i)].Address))
 385              	 .loc 1 802 0
 386 0252 2B68     	 ldr r3,[r5]
 387 0254 95F8E000 	 ldrb r0,[r5,#224]
 388 0258 1B6A     	 ldr r3,[r3,#32]
 389 025a 9847     	 blx r3
 390              	.LVL24:
 801:../Dave/Generated/USBD/usbd.c ****           (USBD_STATUS_t)device.Driver->EndpointUnconfigure
 391              	 .loc 1 801 0
 392 025c 0028     	 cmp r0,#0
 393 025e 91D1     	 bne .L21
 805:../Dave/Generated/USBD/usbd.c ****             device.Endpoints[((uint32_t)XMC_USBD_NUM_EPS - i)].IsEnabled = (uint8_t)0;
 394              	 .loc 1 805 0
 395 0260 95F8E430 	 ldrb r3,[r5,#228]
 396 0264 60F30003 	 bfi r3,r0,#0,#1
 397 0268 85F8E430 	 strb r3,[r5,#228]
 806:../Dave/Generated/USBD/usbd.c ****           }
 398              	 .loc 1 806 0
 399 026c B5F8E430 	 ldrh r3,[r5,#228]
 400 0270 60F34103 	 bfi r3,r0,#1,#1
 401 0274 A5F8E430 	 strh r3,[r5,#228]
 402 0278 84E7     	 b .L21
 403              	.LVL25:
 404              	.L27:
 802:../Dave/Generated/USBD/usbd.c ****           ((uint8_t)device.Endpoints[((uint32_t)XMC_USBD_NUM_EPS - i)].Address))
 405              	 .loc 1 802 0
 406 027a 2B68     	 ldr r3,[r5]
 407 027c 95F8B400 	 ldrb r0,[r5,#180]
 408 0280 1B6A     	 ldr r3,[r3,#32]
 409 0282 9847     	 blx r3
 410              	.LVL26:
 801:../Dave/Generated/USBD/usbd.c ****           (USBD_STATUS_t)device.Driver->EndpointUnconfigure
 411              	 .loc 1 801 0
 412 0284 0028     	 cmp r0,#0
 413 0286 7FF466AF 	 bne .L19
 805:../Dave/Generated/USBD/usbd.c ****             device.Endpoints[((uint32_t)XMC_USBD_NUM_EPS - i)].IsEnabled = (uint8_t)0;
 414              	 .loc 1 805 0
 415 028a 95F8B830 	 ldrb r3,[r5,#184]
 416 028e 60F30003 	 bfi r3,r0,#0,#1
 417 0292 85F8B830 	 strb r3,[r5,#184]
 806:../Dave/Generated/USBD/usbd.c ****           }
 418              	 .loc 1 806 0
 419 0296 B5F8B830 	 ldrh r3,[r5,#184]
 420 029a 60F34103 	 bfi r3,r0,#1,#1
 421 029e A5F8B830 	 strh r3,[r5,#184]
 422 02a2 58E7     	 b .L19
 423              	.LVL27:
 424              	.L26:
 802:../Dave/Generated/USBD/usbd.c ****           ((uint8_t)device.Endpoints[((uint32_t)XMC_USBD_NUM_EPS - i)].Address))
 425              	 .loc 1 802 0
 426 02a4 2B68     	 ldr r3,[r5]
 427 02a6 95F88800 	 ldrb r0,[r5,#136]
 428 02aa 1B6A     	 ldr r3,[r3,#32]
 429 02ac 9847     	 blx r3
 430              	.LVL28:
 801:../Dave/Generated/USBD/usbd.c ****           (USBD_STATUS_t)device.Driver->EndpointUnconfigure
 431              	 .loc 1 801 0
 432 02ae 0028     	 cmp r0,#0
 433 02b0 7FF439AF 	 bne .L17
 805:../Dave/Generated/USBD/usbd.c ****             device.Endpoints[((uint32_t)XMC_USBD_NUM_EPS - i)].IsEnabled = (uint8_t)0;
 434              	 .loc 1 805 0
 435 02b4 95F88C30 	 ldrb r3,[r5,#140]
 436 02b8 60F30003 	 bfi r3,r0,#0,#1
 437 02bc 85F88C30 	 strb r3,[r5,#140]
 806:../Dave/Generated/USBD/usbd.c ****           }
 438              	 .loc 1 806 0
 439 02c0 B5F88C30 	 ldrh r3,[r5,#140]
 440 02c4 60F34103 	 bfi r3,r0,#1,#1
 441 02c8 A5F88C30 	 strh r3,[r5,#140]
 442 02cc 2BE7     	 b .L17
 443              	.LVL29:
 444              	.L25:
 802:../Dave/Generated/USBD/usbd.c ****           ((uint8_t)device.Endpoints[((uint32_t)XMC_USBD_NUM_EPS - i)].Address))
 445              	 .loc 1 802 0
 446 02ce 2B68     	 ldr r3,[r5]
 447 02d0 95F85C00 	 ldrb r0,[r5,#92]
 448 02d4 1B6A     	 ldr r3,[r3,#32]
 449 02d6 9847     	 blx r3
 450              	.LVL30:
 801:../Dave/Generated/USBD/usbd.c ****           (USBD_STATUS_t)device.Driver->EndpointUnconfigure
 451              	 .loc 1 801 0
 452 02d8 0028     	 cmp r0,#0
 453 02da 7FF40CAF 	 bne .L15
 805:../Dave/Generated/USBD/usbd.c ****             device.Endpoints[((uint32_t)XMC_USBD_NUM_EPS - i)].IsEnabled = (uint8_t)0;
 454              	 .loc 1 805 0
 455 02de 95F86030 	 ldrb r3,[r5,#96]
 456 02e2 60F30003 	 bfi r3,r0,#0,#1
 457 02e6 85F86030 	 strb r3,[r5,#96]
 806:../Dave/Generated/USBD/usbd.c ****           }
 458              	 .loc 1 806 0
 459 02ea B5F86030 	 ldrh r3,[r5,#96]
 460 02ee 60F34103 	 bfi r3,r0,#1,#1
 461 02f2 A5F86030 	 strh r3,[r5,#96]
 462 02f6 FEE6     	 b .L15
 463              	.LVL31:
 464              	.L60:
 465 02f8 70BD     	 pop {r4,r5,r6,pc}
 466              	.L62:
 467 02fa 00BF     	 .align 2
 468              	.L61:
 469 02fc 00000000 	 .word USB_DeviceState
 470 0300 00000000 	 .word device
 471              	 .cfi_endproc
 472              	.LFE194:
 474              	 .section .text.USBD_HandleEP0_Stall,"ax",%progbits
 475              	 .align 2
 476              	 .thumb
 477              	 .thumb_func
 479              	USBD_HandleEP0_Stall:
 480              	.LFB189:
 367:../Dave/Generated/USBD/usbd.c ****   /* When we stall ep0 as protocol stall, we go back into idle state and
 481              	 .loc 1 367 0
 482              	 .cfi_startproc
 483              	 
 484              	 
 485 0000 10B5     	 push {r4,lr}
 486              	.LCFI3:
 487              	 .cfi_def_cfa_offset 8
 488              	 .cfi_offset 4,-8
 489              	 .cfi_offset 14,-4
 370:../Dave/Generated/USBD/usbd.c ****   {
 490              	 .loc 1 370 0
 491 0002 084C     	 ldr r4,.L67
 492 0004 2368     	 ldr r3,[r4]
 493 0006 8020     	 movs r0,#128
 494 0008 5B6A     	 ldr r3,[r3,#36]
 495 000a 0121     	 movs r1,#1
 496 000c 9847     	 blx r3
 497              	.LVL32:
 498 000e 00B1     	 cbz r0,.L66
 499 0010 10BD     	 pop {r4,pc}
 500              	.L66:
 501              	.LBB36:
 502              	.LBB37:
 373:../Dave/Generated/USBD/usbd.c ****     {
 503              	 .loc 1 373 0
 504 0012 2368     	 ldr r3,[r4]
 372:../Dave/Generated/USBD/usbd.c ****     if ( USBD_STATUS_SUCCESS != (USBD_STATUS_t)device.Driver->EndpointReadStart(0U,USBD_EP0_3SETUP_
 505              	 .loc 1 372 0
 506 0014 0122     	 movs r2,#1
 373:../Dave/Generated/USBD/usbd.c ****     {
 507              	 .loc 1 373 0
 508 0016 9B6A     	 ldr r3,[r3,#40]
 372:../Dave/Generated/USBD/usbd.c ****     if ( USBD_STATUS_SUCCESS != (USBD_STATUS_t)device.Driver->EndpointReadStart(0U,USBD_EP0_3SETUP_
 509              	 .loc 1 372 0
 510 0018 84F83B21 	 strb r2,[r4,#315]
 373:../Dave/Generated/USBD/usbd.c ****     {
 511              	 .loc 1 373 0
 512 001c 1821     	 movs r1,#24
 513              	.LBE37:
 514              	.LBE36:
 378:../Dave/Generated/USBD/usbd.c **** 
 515              	 .loc 1 378 0
 516 001e BDE81040 	 pop {r4,lr}
 517              	.LCFI4:
 518              	 .cfi_restore 14
 519              	 .cfi_restore 4
 520              	 .cfi_def_cfa_offset 0
 521              	.LBB39:
 522              	.LBB38:
 373:../Dave/Generated/USBD/usbd.c ****     {
 523              	 .loc 1 373 0
 524 0022 1847     	 bx r3
 525              	.LVL33:
 526              	.L68:
 527              	 .align 2
 528              	.L67:
 529 0024 00000000 	 .word device
 530              	.LBE38:
 531              	.LBE39:
 532              	 .cfi_endproc
 533              	.LFE189:
 535              	 .section .text.USBD_Handle_DeviceRequest,"ax",%progbits
 536              	 .align 2
 537              	 .thumb
 538              	 .thumb_func
 540              	USBD_Handle_DeviceRequest:
 541              	.LFB190:
 392:../Dave/Generated/USBD/usbd.c ****   uint32_t length = 0U;
 542              	 .loc 1 392 0
 543              	 .cfi_startproc
 544              	 
 545              	 
 546              	.LVL34:
 547 0000 70B5     	 push {r4,r5,r6,lr}
 548              	.LCFI5:
 549              	 .cfi_def_cfa_offset 16
 550              	 .cfi_offset 4,-16
 551              	 .cfi_offset 5,-12
 552              	 .cfi_offset 6,-8
 553              	 .cfi_offset 14,-4
 406:../Dave/Generated/USBD/usbd.c ****   {
 554              	 .loc 1 406 0
 555 0002 A24C     	 ldr r4,.L153
 403:../Dave/Generated/USBD/usbd.c **** 
 556              	 .loc 1 403 0
 557 0004 A24E     	 ldr r6,.L153+4
 406:../Dave/Generated/USBD/usbd.c ****   {
 558              	 .loc 1 406 0
 559 0006 D4F84031 	 ldr r3,[r4,#320]
 403:../Dave/Generated/USBD/usbd.c **** 
 560              	 .loc 1 403 0
 561 000a 7088     	 ldrh r0,[r6,#2]
 406:../Dave/Generated/USBD/usbd.c ****   {
 562              	 .loc 1 406 0
 563 000c DA68     	 ldr r2,[r3,#12]
 392:../Dave/Generated/USBD/usbd.c ****   uint32_t length = 0U;
 564              	 .loc 1 392 0
 565 000e 82B0     	 sub sp,sp,#8
 566              	.LCFI6:
 567              	 .cfi_def_cfa_offset 24
 395:../Dave/Generated/USBD/usbd.c ****   uint32_t status = 0U;
 568              	 .loc 1 395 0
 569 0010 0023     	 movs r3,#0
 403:../Dave/Generated/USBD/usbd.c **** 
 570              	 .loc 1 403 0
 571 0012 85B2     	 uxth r5,r0
 572              	.LVL35:
 395:../Dave/Generated/USBD/usbd.c ****   uint32_t status = 0U;
 573              	 .loc 1 395 0
 574 0014 0093     	 str r3,[sp]
 396:../Dave/Generated/USBD/usbd.c ****   uint32_t index;
 575              	 .loc 1 396 0
 576 0016 0193     	 str r3,[sp,#4]
 406:../Dave/Generated/USBD/usbd.c ****   {
 577              	 .loc 1 406 0
 578 0018 02B1     	 cbz r2,.L70
 408:../Dave/Generated/USBD/usbd.c ****   }
 579              	 .loc 1 408 0
 580 001a 9047     	 blx r2
 581              	.LVL36:
 582              	.L70:
 411:../Dave/Generated/USBD/usbd.c ****   {
 583              	 .loc 1 411 0
 584 001c 94F83E31 	 ldrb r3,[r4,#318]
 585 0020 9B07     	 lsls r3,r3,#30
 586 0022 07D4     	 bmi .L146
 587              	.LVL37:
 588              	.L72:
 660:../Dave/Generated/USBD/usbd.c **** }
 589              	 .loc 1 660 0
 590 0024 94F83E31 	 ldrb r3,[r4,#318]
 591 0028 23F00203 	 bic r3,r3,#2
 592 002c 84F83E31 	 strb r3,[r4,#318]
 661:../Dave/Generated/USBD/usbd.c **** 
 593              	 .loc 1 661 0
 594 0030 02B0     	 add sp,sp,#8
 595              	.LCFI7:
 596              	 .cfi_remember_state
 597              	 .cfi_def_cfa_offset 16
 598              	 
 599 0032 70BD     	 pop {r4,r5,r6,pc}
 600              	.LVL38:
 601              	.L146:
 602              	.LCFI8:
 603              	 .cfi_restore_state
 414:../Dave/Generated/USBD/usbd.c ****     {
 604              	 .loc 1 414 0
 605 0034 7378     	 ldrb r3,[r6,#1]
 403:../Dave/Generated/USBD/usbd.c **** 
 606              	 .loc 1 403 0
 607 0036 EDB2     	 uxtb r5,r5
 608              	.LVL39:
 414:../Dave/Generated/USBD/usbd.c ****     {
 609              	 .loc 1 414 0
 610 0038 0C2B     	 cmp r3,#12
 611 003a 16D8     	 bhi .L73
 612 003c DFE813F0 	 tbh [pc,r3,lsl#1]
 613              	.L75:
 614 0040 2500     	 .2byte (.L74-.L75)/2
 615 0042 BE00     	 .2byte (.L76-.L75)/2
 616 0044 1500     	 .2byte (.L73-.L75)/2
 617 0046 9D00     	 .2byte (.L77-.L75)/2
 618 0048 1500     	 .2byte (.L73-.L75)/2
 619 004a D000     	 .2byte (.L78-.L75)/2
 620 004c 5600     	 .2byte (.L79-.L75)/2
 621 004e 1500     	 .2byte (.L73-.L75)/2
 622 0050 8300     	 .2byte (.L81-.L75)/2
 623 0052 8A00     	 .2byte (.L82-.L75)/2
 624 0054 0D00     	 .2byte (.L83-.L75)/2
 625 0056 7800     	 .2byte (.L84-.L75)/2
 626 0058 1500     	 .2byte (.L73-.L75)/2
 627              	 .p2align 1
 628              	.L83:
 477:../Dave/Generated/USBD/usbd.c ****         {          
 629              	 .loc 1 477 0
 630 005a 8E4B     	 ldr r3,.L153+8
 631 005c 1A78     	 ldrb r2,[r3]
 632 005e 042A     	 cmp r2,#4
 633 0060 00F03681 	 beq .L147
 634              	.L106:
 590:../Dave/Generated/USBD/usbd.c ****         {
 635              	 .loc 1 590 0
 636 0064 1B78     	 ldrb r3,[r3]
 637 0066 032B     	 cmp r3,#3
 638 0068 DCD1     	 bne .L72
 639              	.LVL40:
 640              	.L73:
 641              	.LBB88:
 642              	.LBB89:
 370:../Dave/Generated/USBD/usbd.c ****   {
 643              	 .loc 1 370 0
 644 006a 2368     	 ldr r3,[r4]
 645 006c 874D     	 ldr r5,.L153
 646 006e 5B6A     	 ldr r3,[r3,#36]
 647 0070 8020     	 movs r0,#128
 648 0072 0121     	 movs r1,#1
 649 0074 9847     	 blx r3
 650              	.LVL41:
 651 0076 0028     	 cmp r0,#0
 652 0078 D4D1     	 bne .L72
 653              	.L133:
 654              	.LBB90:
 655              	.LBB91:
 373:../Dave/Generated/USBD/usbd.c ****     {
 656              	 .loc 1 373 0
 657 007a 2B68     	 ldr r3,[r5]
 372:../Dave/Generated/USBD/usbd.c ****     if ( USBD_STATUS_SUCCESS != (USBD_STATUS_t)device.Driver->EndpointReadStart(0U,USBD_EP0_3SETUP_
 658              	 .loc 1 372 0
 659 007c 0122     	 movs r2,#1
 373:../Dave/Generated/USBD/usbd.c ****     {
 660              	 .loc 1 373 0
 661 007e 9B6A     	 ldr r3,[r3,#40]
 372:../Dave/Generated/USBD/usbd.c ****     if ( USBD_STATUS_SUCCESS != (USBD_STATUS_t)device.Driver->EndpointReadStart(0U,USBD_EP0_3SETUP_
 662              	 .loc 1 372 0
 663 0080 85F83B21 	 strb r2,[r5,#315]
 373:../Dave/Generated/USBD/usbd.c ****     {
 664              	 .loc 1 373 0
 665 0084 1821     	 movs r1,#24
 666 0086 9847     	 blx r3
 667              	.LVL42:
 668 0088 CCE7     	 b .L72
 669              	.LVL43:
 670              	.L74:
 671              	.LBE91:
 672              	.LBE90:
 673              	.LBE89:
 674              	.LBE88:
 494:../Dave/Generated/USBD/usbd.c ****         {
 675              	 .loc 1 494 0
 676 008a 3078     	 ldrb r0,[r6]
 677 008c 804B     	 ldr r3,.L153+4
 678 008e 10F00300 	 ands r0,r0,#3
 679 0092 00F00381 	 beq .L148
 503:../Dave/Generated/USBD/usbd.c ****             ((uint8_t)DEVICE_STATE_Configured == USB_DeviceState))
 680              	 .loc 1 503 0
 681 0096 1B78     	 ldrb r3,[r3]
 682 0098 03F00303 	 and r3,r3,#3
 683 009c 012B     	 cmp r3,#1
 684 009e 00F0E780 	 beq .L149
 685              	.L98:
 514:../Dave/Generated/USBD/usbd.c ****         {
 686              	 .loc 1 514 0
 687 00a2 3378     	 ldrb r3,[r6]
 688 00a4 7A4A     	 ldr r2,.L153+4
 689 00a6 03F00303 	 and r3,r3,#3
 690 00aa 022B     	 cmp r3,#2
 691 00ac DDD1     	 bne .L73
 517:../Dave/Generated/USBD/usbd.c ****               (1U == device.Endpoints[index].IsConfigured))
 692              	 .loc 1 517 0
 693 00ae 7949     	 ldr r1,.L153+8
 516:../Dave/Generated/USBD/usbd.c ****           if ((((uint8_t)DEVICE_STATE_Configured == USB_DeviceState) || ((uint16_t)0 == USB_Control
 694              	 .loc 1 516 0
 695 00b0 9388     	 ldrh r3,[r2,#4]
 517:../Dave/Generated/USBD/usbd.c ****               (1U == device.Endpoints[index].IsConfigured))
 696              	 .loc 1 517 0
 697 00b2 0978     	 ldrb r1,[r1]
 698 00b4 0429     	 cmp r1,#4
 516:../Dave/Generated/USBD/usbd.c ****           if ((((uint8_t)DEVICE_STATE_Configured == USB_DeviceState) || ((uint16_t)0 == USB_Control
 699              	 .loc 1 516 0
 700 00b6 9BB2     	 uxth r3,r3
 701              	.LVL44:
 517:../Dave/Generated/USBD/usbd.c ****               (1U == device.Endpoints[index].IsConfigured))
 702              	 .loc 1 517 0
 703 00b8 03D0     	 beq .L100
 517:../Dave/Generated/USBD/usbd.c ****               (1U == device.Endpoints[index].IsConfigured))
 704              	 .loc 1 517 0 is_stmt 0 discriminator 2
 705 00ba 9288     	 ldrh r2,[r2,#4]
 706 00bc 92B2     	 uxth r2,r2
 707 00be 002A     	 cmp r2,#0
 708 00c0 D3D1     	 bne .L73
 709              	.L100:
 518:../Dave/Generated/USBD/usbd.c ****           {
 710              	 .loc 1 518 0 is_stmt 1 discriminator 3
 711 00c2 2C22     	 movs r2,#44
 516:../Dave/Generated/USBD/usbd.c ****           if ((((uint8_t)DEVICE_STATE_Configured == USB_DeviceState) || ((uint16_t)0 == USB_Control
 712              	 .loc 1 516 0 discriminator 3
 713 00c4 03F00F03 	 and r3,r3,#15
 714              	.LVL45:
 518:../Dave/Generated/USBD/usbd.c ****           {
 715              	 .loc 1 518 0 discriminator 3
 716 00c8 02FB0343 	 mla r3,r2,r3,r4
 717 00cc 6F49     	 ldr r1,.L153
 718 00ce 1A7A     	 ldrb r2,[r3,#8]
 517:../Dave/Generated/USBD/usbd.c ****               (1U == device.Endpoints[index].IsConfigured))
 719              	 .loc 1 517 0 discriminator 3
 720 00d0 D007     	 lsls r0,r2,#31
 721 00d2 CAD5     	 bpl .L73
 520:../Dave/Generated/USBD/usbd.c ****             if (0U == (uint32_t)device.Driver->EndpointWrite(0U, (uint8_t*)&status, USBD_WORD_SIZE)
 722              	 .loc 1 520 0
 723 00d4 9B68     	 ldr r3,[r3,#8]
 521:../Dave/Generated/USBD/usbd.c ****             {
 724              	 .loc 1 521 0
 725 00d6 0A68     	 ldr r2,[r1]
 520:../Dave/Generated/USBD/usbd.c ****             if (0U == (uint32_t)device.Driver->EndpointWrite(0U, (uint8_t*)&status, USBD_WORD_SIZE)
 726              	 .loc 1 520 0
 727 00d8 02A9     	 add r1,sp,#8
 728 00da C3F38003 	 ubfx r3,r3,#2,#1
 729 00de 41F8043D 	 str r3,[r1,#-4]!
 521:../Dave/Generated/USBD/usbd.c ****             {
 730              	 .loc 1 521 0
 731 00e2 0020     	 movs r0,#0
 732 00e4 136B     	 ldr r3,[r2,#48]
 733 00e6 0222     	 movs r2,#2
 734 00e8 9847     	 blx r3
 735              	.LVL46:
 525:../Dave/Generated/USBD/usbd.c ****           }
 736              	 .loc 1 525 0
 737 00ea 9BE7     	 b .L72
 738              	.L79:
 452:../Dave/Generated/USBD/usbd.c ****         {
 739              	 .loc 1 452 0
 740 00ec D4F84031 	 ldr r3,[r4,#320]
 741 00f0 5B69     	 ldr r3,[r3,#20]
 742 00f2 002B     	 cmp r3,#0
 743 00f4 B9D0     	 beq .L73
 454:../Dave/Generated/USBD/usbd.c ****           tmp_index = (uint32_t)USB_ControlRequest.wIndex;
 744              	 .loc 1 454 0
 745 00f6 7088     	 ldrh r0,[r6,#2]
 746              	.LVL47:
 455:../Dave/Generated/USBD/usbd.c ****           length = (uint32_t)device.events->get_descriptor((uint16_t)tmp_value, (uint16_t)tmp_index
 747              	 .loc 1 455 0
 748 00f8 B188     	 ldrh r1,[r6,#4]
 749              	.LVL48:
 454:../Dave/Generated/USBD/usbd.c ****           tmp_index = (uint32_t)USB_ControlRequest.wIndex;
 750              	 .loc 1 454 0
 751 00fa 654E     	 ldr r6,.L153+4
 456:../Dave/Generated/USBD/usbd.c ****         }
 752              	 .loc 1 456 0
 753 00fc 80B2     	 uxth r0,r0
 754              	.LVL49:
 755 00fe 89B2     	 uxth r1,r1
 756              	.LVL50:
 757 0100 6A46     	 mov r2,sp
 758 0102 9847     	 blx r3
 759              	.LVL51:
 459:../Dave/Generated/USBD/usbd.c ****         {
 760              	 .loc 1 459 0
 761 0104 0546     	 mov r5,r0
 762 0106 0028     	 cmp r0,#0
 763 0108 AFD0     	 beq .L73
 465:../Dave/Generated/USBD/usbd.c ****           {
 764              	 .loc 1 465 0
 765 010a F388     	 ldrh r3,[r6,#6]
 470:../Dave/Generated/USBD/usbd.c ****           device.Endpoints[0].InDataLeft = length - ret;
 766              	 .loc 1 470 0
 767 010c 0099     	 ldr r1,[sp]
 465:../Dave/Generated/USBD/usbd.c ****           {
 768              	 .loc 1 465 0
 769 010e 9BB2     	 uxth r3,r3
 770 0110 9842     	 cmp r0,r3
 467:../Dave/Generated/USBD/usbd.c ****           }
 771              	 .loc 1 467 0
 772 0112 28BF     	 it cs
 773 0114 F588     	 ldrhcs r5,[r6,#6]
 470:../Dave/Generated/USBD/usbd.c ****           device.Endpoints[0].InDataLeft = length - ret;
 774              	 .loc 1 470 0
 775 0116 2368     	 ldr r3,[r4]
 467:../Dave/Generated/USBD/usbd.c ****           }
 776              	 .loc 1 467 0
 777 0118 28BF     	 it cs
 778 011a ADB2     	 uxthcs r5,r5
 779              	.LVL52:
 470:../Dave/Generated/USBD/usbd.c ****           device.Endpoints[0].InDataLeft = length - ret;
 780              	 .loc 1 470 0
 781 011c 1B6B     	 ldr r3,[r3,#48]
 782 011e 2A46     	 mov r2,r5
 783 0120 0020     	 movs r0,#0
 784 0122 9847     	 blx r3
 785              	.LVL53:
 472:../Dave/Generated/USBD/usbd.c ****         }
 786              	 .loc 1 472 0
 787 0124 009B     	 ldr r3,[sp]
 471:../Dave/Generated/USBD/usbd.c ****           device.Endpoints[0].InDataBuffer = (uint8_t *)buffer + ret;
 788              	 .loc 1 471 0
 789 0126 2D1A     	 subs r5,r5,r0
 790              	.LVL54:
 472:../Dave/Generated/USBD/usbd.c ****         }
 791              	 .loc 1 472 0
 792 0128 1844     	 add r0,r0,r3
 793              	.LVL55:
 471:../Dave/Generated/USBD/usbd.c ****           device.Endpoints[0].InDataBuffer = (uint8_t *)buffer + ret;
 794              	 .loc 1 471 0
 795 012a A562     	 str r5,[r4,#40]
 472:../Dave/Generated/USBD/usbd.c ****         }
 796              	 .loc 1 472 0
 797 012c E062     	 str r0,[r4,#44]
 798 012e 79E7     	 b .L72
 799              	.LVL56:
 800              	.L84:
 583:../Dave/Generated/USBD/usbd.c ****         {
 801              	 .loc 1 583 0
 802 0130 584B     	 ldr r3,.L153+8
 803 0132 1A78     	 ldrb r2,[r3]
 804 0134 042A     	 cmp r2,#4
 805 0136 95D1     	 bne .L106
 585:../Dave/Generated/USBD/usbd.c ****           tmp_index = (uint32_t)USB_ControlRequest.wIndex;
 806              	 .loc 1 585 0
 807 0138 7288     	 ldrh r2,[r6,#2]
 808              	.LVL57:
 586:../Dave/Generated/USBD/usbd.c ****           device.interface_settings[tmp_index] =	(uint8_t)tmp_value;
 809              	 .loc 1 586 0
 810 013a B388     	 ldrh r3,[r6,#4]
 811              	.LVL58:
 587:../Dave/Generated/USBD/usbd.c ****           break;
 812              	 .loc 1 587 0
 813 013c 14FA83F3 	 uxtah r3,r4,r3
 814              	.LVL59:
 815 0140 83F83821 	 strb r2,[r3,#312]
 588:../Dave/Generated/USBD/usbd.c ****         }
 816              	 .loc 1 588 0
 817 0144 6EE7     	 b .L72
 818              	.LVL60:
 819              	.L81:
 445:../Dave/Generated/USBD/usbd.c ****         {
 820              	 .loc 1 445 0
 821 0146 2368     	 ldr r3,[r4]
 822 0148 5349     	 ldr r1,.L153+12
 823 014a 1B6B     	 ldr r3,[r3,#48]
 824 014c 0122     	 movs r2,#1
 825 014e 0020     	 movs r0,#0
 826 0150 9847     	 blx r3
 827              	.LVL61:
 449:../Dave/Generated/USBD/usbd.c **** 
 828              	 .loc 1 449 0
 829 0152 67E7     	 b .L72
 830              	.L82:
 555:../Dave/Generated/USBD/usbd.c ****         {
 831              	 .loc 1 555 0
 832 0154 D4F84031 	 ldr r3,[r4,#320]
 554:../Dave/Generated/USBD/usbd.c ****         if (NULL != device.events->config_changed)
 833              	 .loc 1 554 0
 834 0158 84F83951 	 strb r5,[r4,#313]
 555:../Dave/Generated/USBD/usbd.c ****         {
 835              	 .loc 1 555 0
 836 015c 9B68     	 ldr r3,[r3,#8]
 837 015e 03B1     	 cbz r3,.L103
 557:../Dave/Generated/USBD/usbd.c ****         }
 838              	 .loc 1 557 0
 839 0160 9847     	 blx r3
 840              	.LVL62:
 841              	.L103:
 561:../Dave/Generated/USBD/usbd.c ****         {
 842              	 .loc 1 561 0
 843 0162 002D     	 cmp r5,#0
 844 0164 54D0     	 beq .L150
 567:../Dave/Generated/USBD/usbd.c ****         {
 845              	 .loc 1 567 0
 846 0166 94F83E31 	 ldrb r3,[r4,#318]
 847 016a 484D     	 ldr r5,.L153
 848 016c D907     	 lsls r1,r3,#31
 849 016e 40F1A680 	 bpl .L105
 569:../Dave/Generated/USBD/usbd.c ****         }
 850              	 .loc 1 569 0
 851 0172 484B     	 ldr r3,.L153+8
 852 0174 0422     	 movs r2,#4
 853 0176 1A70     	 strb r2,[r3]
 854 0178 54E7     	 b .L72
 855              	.L77:
 599:../Dave/Generated/USBD/usbd.c ****         {
 856              	 .loc 1 599 0
 857 017a 022D     	 cmp r5,#2
 858 017c 3FF475AF 	 beq .L73
 605:../Dave/Generated/USBD/usbd.c ****         {
 859              	 .loc 1 605 0
 860 0180 444B     	 ldr r3,.L153+8
 861 0182 1A78     	 ldrb r2,[r3]
 862 0184 042A     	 cmp r2,#4
 863 0186 67D0     	 beq .L151
 635:../Dave/Generated/USBD/usbd.c ****         {
 864              	 .loc 1 635 0
 865 0188 1B78     	 ldrb r3,[r3]
 866 018a 032B     	 cmp r3,#3
 867 018c 7FF46DAF 	 bne .L73
 637:../Dave/Generated/USBD/usbd.c ****               (REQREC_ENDPOINT == ((uint32_t)USB_ControlRequest.bmRequestType & REQ_RECIPIENT_MASK)
 868              	 .loc 1 637 0
 869 0190 002D     	 cmp r5,#0
 870 0192 7FF46AAF 	 bne .L73
 638:../Dave/Generated/USBD/usbd.c ****               ((uint16_t)0 == ((uint16_t)USB_ControlRequest.wIndex & (uint16_t)USBD_BYTE_MASK)))
 871              	 .loc 1 638 0 discriminator 1
 872 0196 3378     	 ldrb r3,[r6]
 873 0198 3D4A     	 ldr r2,.L153+4
 637:../Dave/Generated/USBD/usbd.c ****               (REQREC_ENDPOINT == ((uint32_t)USB_ControlRequest.bmRequestType & REQ_RECIPIENT_MASK)
 874              	 .loc 1 637 0 discriminator 1
 875 019a 03F00303 	 and r3,r3,#3
 876 019e 022B     	 cmp r3,#2
 877 01a0 7FF463AF 	 bne .L73
 639:../Dave/Generated/USBD/usbd.c ****           {
 878              	 .loc 1 639 0
 879 01a4 9388     	 ldrh r3,[r2,#4]
 638:../Dave/Generated/USBD/usbd.c ****               ((uint16_t)0 == ((uint16_t)USB_ControlRequest.wIndex & (uint16_t)USBD_BYTE_MASK)))
 880              	 .loc 1 638 0
 881 01a6 13F0FF0F 	 tst r3,#255
 882 01aa 7FF45EAF 	 bne .L73
 641:../Dave/Generated/USBD/usbd.c ****             USBD_HandleEP0_Stall();
 883              	 .loc 1 641 0
 884 01ae 2389     	 ldrh r3,[r4,#8]
 885 01b0 43F00403 	 orr r3,r3,#4
 886 01b4 2381     	 strh r3,[r4,#8]
 887              	.L134:
 642:../Dave/Generated/USBD/usbd.c ****             break;
 888              	 .loc 1 642 0
 889 01b6 FFF7FEFF 	 bl USBD_HandleEP0_Stall
 890              	.LVL63:
 643:../Dave/Generated/USBD/usbd.c ****           }
 891              	 .loc 1 643 0
 892 01ba 33E7     	 b .L72
 893              	.L76:
 417:../Dave/Generated/USBD/usbd.c ****         {
 894              	 .loc 1 417 0
 895 01bc 3378     	 ldrb r3,[r6]
 896 01be 344A     	 ldr r2,.L153+4
 897 01c0 03F00303 	 and r3,r3,#3
 898 01c4 022B     	 cmp r3,#2
 899 01c6 27D0     	 beq .L152
 436:../Dave/Generated/USBD/usbd.c ****         {
 900              	 .loc 1 436 0
 901 01c8 1378     	 ldrb r3,[r2]
 902 01ca 13F00303 	 ands r3,r3,#3
 903 01ce 7FF44CAF 	 bne .L73
 438:../Dave/Generated/USBD/usbd.c ****           break;
 904              	 .loc 1 438 0
 905 01d2 94F83E21 	 ldrb r2,[r4,#318]
 906 01d6 63F38202 	 bfi r2,r3,#2,#1
 907 01da 84F83E21 	 strb r2,[r4,#318]
 439:../Dave/Generated/USBD/usbd.c ****         }
 908              	 .loc 1 439 0
 909 01de 21E7     	 b .L72
 910              	.L78:
 535:../Dave/Generated/USBD/usbd.c ****         }
 911              	 .loc 1 535 0
 912 01e0 2C4B     	 ldr r3,.L153+8
 533:../Dave/Generated/USBD/usbd.c ****         {
 913              	 .loc 1 533 0
 914 01e2 95B9     	 cbnz r5,.L101
 535:../Dave/Generated/USBD/usbd.c ****         }
 915              	 .loc 1 535 0
 916 01e4 0222     	 movs r2,#2
 917 01e6 1A70     	 strb r2,[r3]
 918              	.L102:
 541:../Dave/Generated/USBD/usbd.c ****                                    XMC_USBD_SET_ADDRESS_STAGE_SETUP))
 919              	 .loc 1 541 0
 920 01e8 2368     	 ldr r3,[r4]
 921 01ea 284E     	 ldr r6,.L153
 922 01ec 9B69     	 ldr r3,[r3,#24]
 923 01ee 2846     	 mov r0,r5
 924 01f0 0021     	 movs r1,#0
 925 01f2 9847     	 blx r3
 926              	.LVL64:
 927 01f4 0028     	 cmp r0,#0
 928 01f6 7FF415AF 	 bne .L72
 544:../Dave/Generated/USBD/usbd.c ****           {
 929              	 .loc 1 544 0
 930 01fa D6F84031 	 ldr r3,[r6,#320]
 931 01fe 1B69     	 ldr r3,[r3,#16]
 932 0200 002B     	 cmp r3,#0
 933 0202 3FF40FAF 	 beq .L72
 546:../Dave/Generated/USBD/usbd.c ****           }
 934              	 .loc 1 546 0
 935 0206 9847     	 blx r3
 936              	.LVL65:
 937 0208 0CE7     	 b .L72
 938              	.L101:
 539:../Dave/Generated/USBD/usbd.c ****         }
 939              	 .loc 1 539 0
 940 020a 0322     	 movs r2,#3
 941 020c 1A70     	 strb r2,[r3]
 942 020e EBE7     	 b .L102
 943              	.L150:
 563:../Dave/Generated/USBD/usbd.c ****           break;
 944              	 .loc 1 563 0
 945 0210 204B     	 ldr r3,.L153+8
 946 0212 0322     	 movs r2,#3
 947 0214 1A70     	 strb r2,[r3]
 564:../Dave/Generated/USBD/usbd.c ****         }
 948              	 .loc 1 564 0
 949 0216 05E7     	 b .L72
 950              	.L152:
 420:../Dave/Generated/USBD/usbd.c ****                   (1U == device.Endpoints[index].IsConfigured))
 951              	 .loc 1 420 0
 952 0218 1E49     	 ldr r1,.L153+8
 419:../Dave/Generated/USBD/usbd.c ****           if ((((uint8_t)DEVICE_STATE_Configured == USB_DeviceState) || ((uint16_t)0U == USB_Contro
 953              	 .loc 1 419 0
 954 021a 9388     	 ldrh r3,[r2,#4]
 420:../Dave/Generated/USBD/usbd.c ****                   (1U == device.Endpoints[index].IsConfigured))
 955              	 .loc 1 420 0
 956 021c 0978     	 ldrb r1,[r1]
 957 021e 0429     	 cmp r1,#4
 419:../Dave/Generated/USBD/usbd.c ****           if ((((uint8_t)DEVICE_STATE_Configured == USB_DeviceState) || ((uint16_t)0U == USB_Contro
 958              	 .loc 1 419 0
 959 0220 9BB2     	 uxth r3,r3
 960              	.LVL66:
 420:../Dave/Generated/USBD/usbd.c ****                   (1U == device.Endpoints[index].IsConfigured))
 961              	 .loc 1 420 0
 962 0222 04D0     	 beq .L87
 420:../Dave/Generated/USBD/usbd.c ****                   (1U == device.Endpoints[index].IsConfigured))
 963              	 .loc 1 420 0 is_stmt 0 discriminator 2
 964 0224 9288     	 ldrh r2,[r2,#4]
 965 0226 92B2     	 uxth r2,r2
 966 0228 002A     	 cmp r2,#0
 967 022a 7FF41EAF 	 bne .L73
 968              	.L87:
 421:../Dave/Generated/USBD/usbd.c ****           {
 969              	 .loc 1 421 0 is_stmt 1 discriminator 3
 970 022e 2C22     	 movs r2,#44
 419:../Dave/Generated/USBD/usbd.c ****           if ((((uint8_t)DEVICE_STATE_Configured == USB_DeviceState) || ((uint16_t)0U == USB_Contro
 971              	 .loc 1 419 0 discriminator 3
 972 0230 03F00F03 	 and r3,r3,#15
 973              	.LVL67:
 421:../Dave/Generated/USBD/usbd.c ****           {
 974              	 .loc 1 421 0 discriminator 3
 975 0234 02FB0343 	 mla r3,r2,r3,r4
 976 0238 1449     	 ldr r1,.L153
 977 023a 1A7A     	 ldrb r2,[r3,#8]
 420:../Dave/Generated/USBD/usbd.c ****                   (1U == device.Endpoints[index].IsConfigured))
 978              	 .loc 1 420 0 discriminator 3
 979 023c D507     	 lsls r5,r2,#31
 980 023e 7FF514AF 	 bpl .L73
 423:../Dave/Generated/USBD/usbd.c ****             if (USBD_STATUS_SUCCESS != 
 981              	 .loc 1 423 0
 982 0242 1A89     	 ldrh r2,[r3,#8]
 983 0244 6FF38202 	 bfc r2,#2,#1
 984 0248 1A81     	 strh r2,[r3,#8]
 425:../Dave/Generated/USBD/usbd.c ****             {
 985              	 .loc 1 425 0
 986 024a B088     	 ldrh r0,[r6,#4]
 987 024c 0B68     	 ldr r3,[r1]
 988 024e C0B2     	 uxtb r0,r0
 989 0250 5B6A     	 ldr r3,[r3,#36]
 990 0252 0021     	 movs r1,#0
 991 0254 9847     	 blx r3
 992              	.LVL68:
 424:../Dave/Generated/USBD/usbd.c ****                                  (USBD_STATUS_t)device.Driver->EndpointStall((uint8_t)USB_ControlRe
 993              	 .loc 1 424 0
 994 0256 E5E6     	 b .L72
 995              	.L151:
 607:../Dave/Generated/USBD/usbd.c ****           {
 996              	 .loc 1 607 0
 997 0258 002D     	 cmp r5,#0
 998 025a 44D0     	 beq .L109
 999 025c 012D     	 cmp r5,#1
 1000 025e 7FF4E1AE 	 bne .L72
 610:../Dave/Generated/USBD/usbd.c ****               break;
 1001              	 .loc 1 610 0
 1002 0262 94F83E31 	 ldrb r3,[r4,#318]
 1003 0266 43F00403 	 orr r3,r3,#4
 1004 026a 84F83E31 	 strb r3,[r4,#318]
 611:../Dave/Generated/USBD/usbd.c ****             case FEATURE_SEL_EndpointHalt:
 1005              	 .loc 1 611 0
 1006 026e D9E6     	 b .L72
 1007              	.L149:
 504:../Dave/Generated/USBD/usbd.c ****         {
 1008              	 .loc 1 504 0 discriminator 1
 1009 0270 084B     	 ldr r3,.L153+8
 1010 0272 1B78     	 ldrb r3,[r3]
 503:../Dave/Generated/USBD/usbd.c ****             ((uint8_t)DEVICE_STATE_Configured == USB_DeviceState))
 1011              	 .loc 1 503 0 discriminator 1
 1012 0274 042B     	 cmp r3,#4
 1013 0276 7FF414AF 	 bne .L98
 506:../Dave/Generated/USBD/usbd.c ****           if (0U == (uint32_t)device.Driver->EndpointWrite(0U, (uint8_t*)&status, USBD_WORD_SIZE))
 1014              	 .loc 1 506 0
 1015 027a 02A9     	 add r1,sp,#8
 507:../Dave/Generated/USBD/usbd.c ****           {
 1016              	 .loc 1 507 0
 1017 027c 2368     	 ldr r3,[r4]
 506:../Dave/Generated/USBD/usbd.c ****           if (0U == (uint32_t)device.Driver->EndpointWrite(0U, (uint8_t*)&status, USBD_WORD_SIZE))
 1018              	 .loc 1 506 0
 1019 027e 0020     	 movs r0,#0
 1020 0280 41F8040D 	 str r0,[r1,#-4]!
 507:../Dave/Generated/USBD/usbd.c ****           {
 1021              	 .loc 1 507 0
 1022 0284 1B6B     	 ldr r3,[r3,#48]
 1023 0286 0222     	 movs r2,#2
 1024 0288 9847     	 blx r3
 1025              	.LVL69:
 511:../Dave/Generated/USBD/usbd.c ****         }
 1026              	 .loc 1 511 0
 1027 028a CBE6     	 b .L72
 1028              	.L154:
 1029              	 .align 2
 1030              	.L153:
 1031 028c 00000000 	 .word device
 1032 0290 00000000 	 .word USB_ControlRequest
 1033 0294 00000000 	 .word USB_DeviceState
 1034 0298 39010000 	 .word device+313
 1035              	.L148:
 496:../Dave/Generated/USBD/usbd.c ****           if (0U == (uint32_t)device.Driver->EndpointWrite(0U, (uint8_t*)&status, USBD_WORD_SIZE))
 1036              	 .loc 1 496 0
 1037 029c 94F83E31 	 ldrb r3,[r4,#318]
 497:../Dave/Generated/USBD/usbd.c ****           {
 1038              	 .loc 1 497 0
 1039 02a0 2268     	 ldr r2,[r4]
 496:../Dave/Generated/USBD/usbd.c ****           if (0U == (uint32_t)device.Driver->EndpointWrite(0U, (uint8_t*)&status, USBD_WORD_SIZE))
 1040              	 .loc 1 496 0
 1041 02a2 C3F38005 	 ubfx r5,r3,#2,#1
 1042 02a6 6D00     	 lsls r5,r5,#1
 1043 02a8 EDB2     	 uxtb r5,r5
 1044 02aa 02A9     	 add r1,sp,#8
 1045 02ac C3F3C003 	 ubfx r3,r3,#3,#1
 1046 02b0 2B43     	 orrs r3,r3,r5
 1047 02b2 41F8043D 	 str r3,[r1,#-4]!
 497:../Dave/Generated/USBD/usbd.c ****           {
 1048              	 .loc 1 497 0
 1049 02b6 136B     	 ldr r3,[r2,#48]
 1050 02b8 0222     	 movs r2,#2
 1051 02ba 9847     	 blx r3
 1052              	.LVL70:
 501:../Dave/Generated/USBD/usbd.c ****         }
 1053              	 .loc 1 501 0
 1054 02bc B2E6     	 b .L72
 1055              	.L105:
 1056              	.LBB92:
 1057              	.LBB93:
 370:../Dave/Generated/USBD/usbd.c ****   {
 1058              	 .loc 1 370 0
 1059 02be 2B68     	 ldr r3,[r5]
 1060 02c0 8020     	 movs r0,#128
 1061 02c2 5B6A     	 ldr r3,[r3,#36]
 1062 02c4 0121     	 movs r1,#1
 1063 02c6 9847     	 blx r3
 1064              	.LVL71:
 1065 02c8 0028     	 cmp r0,#0
 1066 02ca 7FF4ABAE 	 bne .L72
 1067 02ce D4E6     	 b .L133
 1068              	.L147:
 1069              	.LBE93:
 1070              	.LBE92:
 480:../Dave/Generated/USBD/usbd.c ****           {
 1071              	 .loc 1 480 0
 1072 02d0 B188     	 ldrh r1,[r6,#4]
 479:../Dave/Generated/USBD/usbd.c ****              &device.interface_settings[USB_ControlRequest.wIndex], 1U))
 1073              	 .loc 1 479 0
 1074 02d2 2368     	 ldr r3,[r4]
 480:../Dave/Generated/USBD/usbd.c ****           {
 1075              	 .loc 1 480 0
 1076 02d4 89B2     	 uxth r1,r1
 1077 02d6 01F59C71 	 add r1,r1,#312
 479:../Dave/Generated/USBD/usbd.c ****              &device.interface_settings[USB_ControlRequest.wIndex], 1U))
 1078              	 .loc 1 479 0
 1079 02da 2144     	 add r1,r1,r4
 1080 02dc 1B6B     	 ldr r3,[r3,#48]
 1081 02de 0122     	 movs r2,#1
 1082 02e0 0020     	 movs r0,#0
 1083 02e2 9847     	 blx r3
 1084              	.LVL72:
 484:../Dave/Generated/USBD/usbd.c ****         }
 1085              	 .loc 1 484 0
 1086 02e4 9EE6     	 b .L72
 1087              	.L109:
 613:../Dave/Generated/USBD/usbd.c ****                       (uint32_t)XMC_USBD_ENDPOINT_NUMBER_MASK);
 1088              	 .loc 1 613 0
 1089 02e6 B388     	 ldrh r3,[r6,#4]
 1090 02e8 0A48     	 ldr r0,.L155
 615:../Dave/Generated/USBD/usbd.c ****               {
 1091              	 .loc 1 615 0
 1092 02ea 0B49     	 ldr r1,.L155+4
 1093 02ec 2C22     	 movs r2,#44
 613:../Dave/Generated/USBD/usbd.c ****                       (uint32_t)XMC_USBD_ENDPOINT_NUMBER_MASK);
 1094              	 .loc 1 613 0
 1095 02ee 03F00F03 	 and r3,r3,#15
 1096              	.LVL73:
 615:../Dave/Generated/USBD/usbd.c ****               {
 1097              	 .loc 1 615 0
 1098 02f2 02FB0343 	 mla r3,r2,r3,r4
 1099              	.LVL74:
 1100 02f6 1A7A     	 ldrb r2,[r3,#8]
 1101 02f8 D207     	 lsls r2,r2,#31
 1102 02fa 7FF55CAF 	 bpl .L134
 621:../Dave/Generated/USBD/usbd.c ****                 if (USBD_STATUS_SUCCESS != 
 1103              	 .loc 1 621 0
 1104 02fe 1A89     	 ldrh r2,[r3,#8]
 1105 0300 42F00402 	 orr r2,r2,#4
 1106 0304 1A81     	 strh r2,[r3,#8]
 623:../Dave/Generated/USBD/usbd.c ****                 {
 1107              	 .loc 1 623 0
 1108 0306 0B68     	 ldr r3,[r1]
 1109 0308 8088     	 ldrh r0,[r0,#4]
 1110 030a 5B6A     	 ldr r3,[r3,#36]
 1111 030c 0121     	 movs r1,#1
 1112 030e C0B2     	 uxtb r0,r0
 1113 0310 9847     	 blx r3
 1114              	.LVL75:
 1115 0312 87E6     	 b .L72
 1116              	.L156:
 1117              	 .align 2
 1118              	.L155:
 1119 0314 00000000 	 .word USB_ControlRequest
 1120 0318 00000000 	 .word device
 1121              	 .cfi_endproc
 1122              	.LFE190:
 1124              	 .section .text.USBD_SignalEndpointEvent_Handler,"ax",%progbits
 1125              	 .align 2
 1126              	 .thumb
 1127              	 .thumb_func
 1129              	USBD_SignalEndpointEvent_Handler:
 1130              	.LFB195:
 871:../Dave/Generated/USBD/usbd.c **** 
 872:../Dave/Generated/USBD/usbd.c **** /**
 873:../Dave/Generated/USBD/usbd.c ****  * Endpoint event handler for the XMC USB driver
 874:../Dave/Generated/USBD/usbd.c ****  *
 875:../Dave/Generated/USBD/usbd.c ****  * If the driver detects an event (See XMC_USBD_EP_EVENT_t) for a specified endpoint it calls this 
 876:../Dave/Generated/USBD/usbd.c ****  * Based on the event some further action is taken, e.g. process control request or update transfer
 877:../Dave/Generated/USBD/usbd.c ****  * and read data from the driver into the core buffer.
 878:../Dave/Generated/USBD/usbd.c ****  */
 879:../Dave/Generated/USBD/usbd.c **** static void USBD_SignalEndpointEvent_Handler(uint8_t ep_addr, XMC_USBD_EP_EVENT_t ep_event)
 880:../Dave/Generated/USBD/usbd.c **** {
 1131              	 .loc 1 880 0
 1132              	 .cfi_startproc
 1133              	 
 1134              	 
 1135              	.LVL76:
 1136 0000 2DE9F843 	 push {r3,r4,r5,r6,r7,r8,r9,lr}
 1137              	.LCFI9:
 1138              	 .cfi_def_cfa_offset 32
 1139              	 .cfi_offset 3,-32
 1140              	 .cfi_offset 4,-28
 1141              	 .cfi_offset 5,-24
 1142              	 .cfi_offset 6,-20
 1143              	 .cfi_offset 7,-16
 1144              	 .cfi_offset 8,-12
 1145              	 .cfi_offset 9,-8
 1146              	 .cfi_offset 14,-4
 881:../Dave/Generated/USBD/usbd.c ****   USBD_Endpoint_t *ep;
 882:../Dave/Generated/USBD/usbd.c ****   int32_t data_count;
 883:../Dave/Generated/USBD/usbd.c ****   uint32_t temp_num;
 884:../Dave/Generated/USBD/usbd.c ****   uint32_t temp_dir;
 885:../Dave/Generated/USBD/usbd.c **** 
 886:../Dave/Generated/USBD/usbd.c ****   ep =  &device.Endpoints[(ep_addr & ENDPOINT_EPNUM_MASK)];
 887:../Dave/Generated/USBD/usbd.c ****   /* store CurrentEndpoint and direction for restore after handling */
 888:../Dave/Generated/USBD/usbd.c ****   temp_num = (uint32_t)device.CurrentEndpoint;
 1147              	 .loc 1 888 0
 1148 0004 724C     	 ldr r4,.L185
 886:../Dave/Generated/USBD/usbd.c ****   /* store CurrentEndpoint and direction for restore after handling */
 1149              	 .loc 1 886 0
 1150 0006 00F00F05 	 and r5,r0,#15
 889:../Dave/Generated/USBD/usbd.c ****   temp_dir = (uint32_t)device.CurrentDirection;
 890:../Dave/Generated/USBD/usbd.c ****   /* select the given endpoint */
 891:../Dave/Generated/USBD/usbd.c ****   device.CurrentEndpoint = ep_addr & ENDPOINT_EPNUM_MASK;
 892:../Dave/Generated/USBD/usbd.c ****   device.CurrentDirection = ep_addr & (uint8_t)ENDPOINT_DIR_MASK;
 893:../Dave/Generated/USBD/usbd.c ****   /* choose what to do based on the event */
 894:../Dave/Generated/USBD/usbd.c ****   switch (ep_event)
 1151              	 .loc 1 894 0
 1152 000a 0129     	 cmp r1,#1
 892:../Dave/Generated/USBD/usbd.c ****   /* choose what to do based on the event */
 1153              	 .loc 1 892 0
 1154 000c 20F07F00 	 bic r0,r0,#127
 1155              	.LVL77:
 889:../Dave/Generated/USBD/usbd.c ****   temp_dir = (uint32_t)device.CurrentDirection;
 1156              	 .loc 1 889 0
 1157 0010 94F83D71 	 ldrb r7,[r4,#317]
 888:../Dave/Generated/USBD/usbd.c ****   temp_dir = (uint32_t)device.CurrentDirection;
 1158              	 .loc 1 888 0
 1159 0014 94F83C81 	 ldrb r8,[r4,#316]
 892:../Dave/Generated/USBD/usbd.c ****   /* choose what to do based on the event */
 1160              	 .loc 1 892 0
 1161 0018 84F83D01 	 strb r0,[r4,#317]
 886:../Dave/Generated/USBD/usbd.c ****   /* store CurrentEndpoint and direction for restore after handling */
 1162              	 .loc 1 886 0
 1163 001c 2E46     	 mov r6,r5
 1164              	.LVL78:
 891:../Dave/Generated/USBD/usbd.c ****   device.CurrentDirection = ep_addr & (uint8_t)ENDPOINT_DIR_MASK;
 1165              	 .loc 1 891 0
 1166 001e 84F83C51 	 strb r5,[r4,#316]
 1167              	 .loc 1 894 0
 1168 0022 67D0     	 beq .L159
 1169 0024 3AD3     	 bcc .L160
 1170 0026 0229     	 cmp r1,#2
 1171 0028 32D1     	 bne .L158
 895:../Dave/Generated/USBD/usbd.c ****   {
 896:../Dave/Generated/USBD/usbd.c ****     case XMC_USBD_EP_EVENT_SETUP:
 897:../Dave/Generated/USBD/usbd.c ****       ep->OutInUse = 0U;
 898:../Dave/Generated/USBD/usbd.c ****       switch (device.CurrentEndpoint)
 899:../Dave/Generated/USBD/usbd.c ****       {
 900:../Dave/Generated/USBD/usbd.c ****         case 0:
 901:../Dave/Generated/USBD/usbd.c ****           USBD_HandleEP0_SETUP();
 902:../Dave/Generated/USBD/usbd.c ****           break;
 903:../Dave/Generated/USBD/usbd.c ****         default:
 904:../Dave/Generated/USBD/usbd.c ****           break;
 905:../Dave/Generated/USBD/usbd.c ****       }
 906:../Dave/Generated/USBD/usbd.c ****       break;
 907:../Dave/Generated/USBD/usbd.c ****     case XMC_USBD_EP_EVENT_OUT:
 908:../Dave/Generated/USBD/usbd.c ****       ep->IsOutRecieved = 1U;
 909:../Dave/Generated/USBD/usbd.c ****       if (ep->OutBytesAvailable == 0U)
 910:../Dave/Generated/USBD/usbd.c ****       {
 911:../Dave/Generated/USBD/usbd.c ****         ep->OutOffset = 0U; /* clear offset, new data is there */
 912:../Dave/Generated/USBD/usbd.c ****         ep->OutBytesAvailable = (uint32_t)device.Driver->EndpointRead((uint8_t)ep->Address,
 913:../Dave/Generated/USBD/usbd.c ****                                 ep->OutBuffer,ep->OutBufferLength);
 914:../Dave/Generated/USBD/usbd.c ****       }
 915:../Dave/Generated/USBD/usbd.c ****       ep->OutInUse = (uint8_t)0;
 916:../Dave/Generated/USBD/usbd.c ****       switch (device.CurrentEndpoint)
 917:../Dave/Generated/USBD/usbd.c ****       {
 918:../Dave/Generated/USBD/usbd.c ****         case 0:
 919:../Dave/Generated/USBD/usbd.c ****           USBD_HandleEP0_OUT();
 920:../Dave/Generated/USBD/usbd.c ****           break;
 921:../Dave/Generated/USBD/usbd.c ****         default:
 922:../Dave/Generated/USBD/usbd.c ****           break;
 923:../Dave/Generated/USBD/usbd.c ****       }
 924:../Dave/Generated/USBD/usbd.c ****       break;
 925:../Dave/Generated/USBD/usbd.c ****     case XMC_USBD_EP_EVENT_IN:
 926:../Dave/Generated/USBD/usbd.c ****       /* loop write transfers */
 927:../Dave/Generated/USBD/usbd.c ****       if (ep->InDataLeft > 0U)
 1172              	 .loc 1 927 0
 1173 002a 2C23     	 movs r3,#44
 1174 002c 03FB0543 	 mla r3,r3,r5,r4
 1175 0030 03F12009 	 add r9,r3,#32
 1176 0034 9A6A     	 ldr r2,[r3,#40]
 1177 0036 002A     	 cmp r2,#0
 1178 0038 40F09180 	 bne .L179
 928:../Dave/Generated/USBD/usbd.c ****       {
 929:../Dave/Generated/USBD/usbd.c ****         data_count = device.Driver->EndpointWrite((uint8_t)ep->Address,ep->InDataBuffer,ep->InDataL
 930:../Dave/Generated/USBD/usbd.c ****         ep->InDataLeft -= (uint32_t)data_count;
 931:../Dave/Generated/USBD/usbd.c ****         ep->InDataBuffer += (uint32_t)data_count;
 932:../Dave/Generated/USBD/usbd.c ****         break;
 933:../Dave/Generated/USBD/usbd.c ****       }
 934:../Dave/Generated/USBD/usbd.c ****       else if (((uint32_t)ep->Number == 0U) && (ep->InBytesAvailable > 0U) &&
 1179              	 .loc 1 934 0
 1180 003c 1879     	 ldrb r0,[r3,#4]
 1181 003e 0207     	 lsls r2,r0,#28
 1182 0040 14D1     	 bne .L171
 1183              	 .loc 1 934 0 is_stmt 0 discriminator 1
 1184 0042 DA69     	 ldr r2,[r3,#28]
 1185 0044 92B1     	 cbz r2,.L171
 935:../Dave/Generated/USBD/usbd.c ****               (ep->InBytesAvailable != (uint32_t)USB_ControlRequest.wLength) &&
 1186              	 .loc 1 935 0 is_stmt 1 discriminator 2
 1187 0046 6349     	 ldr r1,.L185+4
 1188              	.LVL79:
 1189 0048 C988     	 ldrh r1,[r1,#6]
 1190 004a 89B2     	 uxth r1,r1
 934:../Dave/Generated/USBD/usbd.c ****               (ep->InBytesAvailable != (uint32_t)USB_ControlRequest.wLength) &&
 1191              	 .loc 1 934 0 discriminator 2
 1192 004c 8A42     	 cmp r2,r1
 1193 004e 0DD0     	 beq .L171
 936:../Dave/Generated/USBD/usbd.c ****               ((ep->InBytesAvailable % (uint32_t)ep->MaxPacketSize) == 0U))
 1194              	 .loc 1 936 0
 1195 0050 1B89     	 ldrh r3,[r3,#8]
 1196 0052 C3F38613 	 ubfx r3,r3,#6,#7
 1197 0056 B2FBF3F1 	 udiv r1,r2,r3
 1198 005a 03FB1121 	 mls r1,r3,r1,r2
 935:../Dave/Generated/USBD/usbd.c ****               (ep->InBytesAvailable != (uint32_t)USB_ControlRequest.wLength) &&
 1199              	 .loc 1 935 0
 1200 005e 29B9     	 cbnz r1,.L171
 937:../Dave/Generated/USBD/usbd.c ****       {
 938:../Dave/Generated/USBD/usbd.c ****         /* if the amount of data for endpoint 0 is exact the requested
 939:../Dave/Generated/USBD/usbd.c ****          * amount, then no zlp has to be send */
 940:../Dave/Generated/USBD/usbd.c ****         device.Driver->EndpointWrite((uint8_t)ep->Address,0,0U);
 1201              	 .loc 1 940 0
 1202 0060 2368     	 ldr r3,[r4]
 1203 0062 0A46     	 mov r2,r1
 1204 0064 1B6B     	 ldr r3,[r3,#48]
 1205 0066 9847     	 blx r3
 1206              	.LVL80:
 1207 0068 94F83C51 	 ldrb r5,[r4,#316]
 1208              	.LVL81:
 1209              	.L171:
 941:../Dave/Generated/USBD/usbd.c ****       }
 942:../Dave/Generated/USBD/usbd.c ****       else
 943:../Dave/Generated/USBD/usbd.c ****       {
 944:../Dave/Generated/USBD/usbd.c ****       }
 945:../Dave/Generated/USBD/usbd.c ****       ep->InBytesAvailable = 0U;
 1210              	 .loc 1 945 0
 1211 006c DFF86091 	 ldr r9,.L185
 1212 0070 2C23     	 movs r3,#44
 1213 0072 03FB0646 	 mla r6,r3,r6,r4
 1214              	.LVL82:
 1215 0076 0022     	 movs r2,#0
 946:../Dave/Generated/USBD/usbd.c ****       ep->InInUse = (uint8_t)0;
 1216              	 .loc 1 946 0
 1217 0078 3389     	 ldrh r3,[r6,#8]
 945:../Dave/Generated/USBD/usbd.c ****       ep->InInUse = (uint8_t)0;
 1218              	 .loc 1 945 0
 1219 007a F261     	 str r2,[r6,#28]
 1220              	 .loc 1 946 0
 1221 007c 62F30413 	 bfi r3,r2,#4,#1
 1222 0080 3381     	 strh r3,[r6,#8]
 947:../Dave/Generated/USBD/usbd.c ****       switch (device.CurrentEndpoint)
 1223              	 .loc 1 947 0
 1224 0082 2DB9     	 cbnz r5,.L158
 1225              	.LBB100:
 1226              	.LBB101:
 673:../Dave/Generated/USBD/usbd.c ****   {
 1227              	 .loc 1 673 0
 1228 0084 99F83B31 	 ldrb r3,[r9,#315]
 1229 0088 022B     	 cmp r3,#2
 1230 008a 78D0     	 beq .L180
 679:../Dave/Generated/USBD/usbd.c ****   {
 1231              	 .loc 1 679 0
 1232 008c 032B     	 cmp r3,#3
 1233 008e 4ED0     	 beq .L178
 1234              	.L158:
 1235              	.LBE101:
 1236              	.LBE100:
 948:../Dave/Generated/USBD/usbd.c ****       {
 949:../Dave/Generated/USBD/usbd.c ****         case 0:
 950:../Dave/Generated/USBD/usbd.c ****           USBD_HandleEP0_IN();
 951:../Dave/Generated/USBD/usbd.c ****           break;
 952:../Dave/Generated/USBD/usbd.c ****         default:
 953:../Dave/Generated/USBD/usbd.c ****           break;
 954:../Dave/Generated/USBD/usbd.c ****       }
 955:../Dave/Generated/USBD/usbd.c ****       break;
 956:../Dave/Generated/USBD/usbd.c ****     default:
 957:../Dave/Generated/USBD/usbd.c ****       break;
 958:../Dave/Generated/USBD/usbd.c ****   }
 959:../Dave/Generated/USBD/usbd.c ****   device.CurrentEndpoint = (uint8_t)temp_num;
 1237              	 .loc 1 959 0
 1238 0090 84F83C81 	 strb r8,[r4,#316]
 960:../Dave/Generated/USBD/usbd.c ****   device.CurrentDirection = (uint8_t)temp_dir;
 1239              	 .loc 1 960 0
 1240 0094 84F83D71 	 strb r7,[r4,#317]
 1241 0098 BDE8F883 	 pop {r3,r4,r5,r6,r7,r8,r9,pc}
 1242              	.LVL83:
 1243              	.L160:
 897:../Dave/Generated/USBD/usbd.c ****       switch (device.CurrentEndpoint)
 1244              	 .loc 1 897 0
 1245 009c 2C23     	 movs r3,#44
 1246 009e 03FB0543 	 mla r3,r3,r5,r4
 1247 00a2 1A89     	 ldrh r2,[r3,#8]
 1248 00a4 6FF3C302 	 bfc r2,#3,#1
 1249 00a8 1A81     	 strh r2,[r3,#8]
 898:../Dave/Generated/USBD/usbd.c ****       {
 1250              	 .loc 1 898 0
 1251 00aa 002D     	 cmp r5,#0
 1252 00ac F0D1     	 bne .L158
 1253              	.LBB104:
 1254              	.LBB105:
 738:../Dave/Generated/USBD/usbd.c ****             (uint32_t)USBD_EP0_SETUP_PKT_SIZE);
 1255              	 .loc 1 738 0
 1256 00ae 2368     	 ldr r3,[r4]
 1257 00b0 484E     	 ldr r6,.L185+4
 1258 00b2 DB6A     	 ldr r3,[r3,#44]
 1259 00b4 3146     	 mov r1,r6
 1260              	.LVL84:
 1261 00b6 2846     	 mov r0,r5
 1262 00b8 0822     	 movs r2,#8
 1263 00ba 9847     	 blx r3
 1264              	.LVL85:
 740:../Dave/Generated/USBD/usbd.c **** 
 1265              	 .loc 1 740 0
 1266 00bc 94F83E31 	 ldrb r3,[r4,#318]
 742:../Dave/Generated/USBD/usbd.c ****   {
 1267              	 .loc 1 742 0
 1268 00c0 0828     	 cmp r0,#8
 740:../Dave/Generated/USBD/usbd.c **** 
 1269              	 .loc 1 740 0
 1270 00c2 43F00203 	 orr r3,r3,#2
 1271 00c6 84F83E31 	 strb r3,[r4,#318]
 742:../Dave/Generated/USBD/usbd.c ****   {
 1272              	 .loc 1 742 0
 1273 00ca E1D1     	 bne .L158
 745:../Dave/Generated/USBD/usbd.c ****     {
 1274              	 .loc 1 745 0
 1275 00cc B6F80690 	 ldrh r9,[r6,#6]
 1276 00d0 1FFA89F9 	 uxth r9,r9
 1277 00d4 B9F1000F 	 cmp r9,#0
 1278 00d8 68D0     	 beq .L181
 753:../Dave/Generated/USBD/usbd.c ****       {
 1279              	 .loc 1 753 0
 1280 00da 3378     	 ldrb r3,[r6]
 1281 00dc 1906     	 lsls r1,r3,#24
 1282 00de 71D4     	 bmi .L182
 762:../Dave/Generated/USBD/usbd.c ****       }
 1283              	 .loc 1 762 0
 1284 00e0 F188     	 ldrh r1,[r6,#6]
 1285 00e2 2368     	 ldr r3,[r4]
 760:../Dave/Generated/USBD/usbd.c ****         /* Do not process request here, first read data */
 1286              	 .loc 1 760 0
 1287 00e4 0422     	 movs r2,#4
 762:../Dave/Generated/USBD/usbd.c ****       }
 1288              	 .loc 1 762 0
 1289 00e6 9B6A     	 ldr r3,[r3,#40]
 760:../Dave/Generated/USBD/usbd.c ****         /* Do not process request here, first read data */
 1290              	 .loc 1 760 0
 1291 00e8 84F83B21 	 strb r2,[r4,#315]
 762:../Dave/Generated/USBD/usbd.c ****       }
 1292              	 .loc 1 762 0
 1293 00ec 89B2     	 uxth r1,r1
 1294 00ee 2846     	 mov r0,r5
 1295              	.LVL86:
 1296 00f0 9847     	 blx r3
 1297              	.LVL87:
 1298 00f2 CDE7     	 b .L158
 1299              	.LVL88:
 1300              	.L159:
 1301              	.LBE105:
 1302              	.LBE104:
 908:../Dave/Generated/USBD/usbd.c ****       if (ep->OutBytesAvailable == 0U)
 1303              	 .loc 1 908 0
 1304 00f4 2C23     	 movs r3,#44
 1305 00f6 03FB0543 	 mla r3,r3,r5,r4
 1306 00fa 9946     	 mov r9,r3
 1307 00fc 1A89     	 ldrh r2,[r3,#8]
 1308 00fe 42F02002 	 orr r2,r2,#32
 1309 0102 29F8082F 	 strh r2,[r9,#8]!
 909:../Dave/Generated/USBD/usbd.c ****       {
 1310              	 .loc 1 909 0
 1311 0106 D9F80420 	 ldr r2,[r9,#4]
 1312 010a DAB1     	 cbz r2,.L183
 1313              	.LVL89:
 1314              	.L166:
 915:../Dave/Generated/USBD/usbd.c ****       switch (device.CurrentEndpoint)
 1315              	 .loc 1 915 0
 1316 010c 2C23     	 movs r3,#44
 1317 010e 03FB0646 	 mla r6,r3,r6,r4
 1318              	.LVL90:
 1319 0112 DFF8BC90 	 ldr r9,.L185
 1320 0116 3389     	 ldrh r3,[r6,#8]
 1321 0118 6FF3C303 	 bfc r3,#3,#1
 1322 011c 3381     	 strh r3,[r6,#8]
 916:../Dave/Generated/USBD/usbd.c ****       {
 1323              	 .loc 1 916 0
 1324 011e 002D     	 cmp r5,#0
 1325 0120 B6D1     	 bne .L158
 1326              	.LBB107:
 1327              	.LBB108:
 703:../Dave/Generated/USBD/usbd.c ****   {
 1328              	 .loc 1 703 0
 1329 0122 99F83B31 	 ldrb r3,[r9,#315]
 1330 0126 042B     	 cmp r3,#4
 1331 0128 33D0     	 beq .L184
 711:../Dave/Generated/USBD/usbd.c ****   {
 1332              	 .loc 1 711 0
 1333 012a 052B     	 cmp r3,#5
 1334 012c B0D1     	 bne .L158
 1335              	.L178:
 1336              	.LBE108:
 1337              	.LBE107:
 1338              	.LBB110:
 1339              	.LBB102:
 682:../Dave/Generated/USBD/usbd.c ****     device.ep0_state = USBD_EP0_STATE_IDLE;
 1340              	 .loc 1 682 0
 1341 012e D9F80030 	 ldr r3,[r9]
 1342 0132 99F80400 	 ldrb r0,[r9,#4]
 1343 0136 9B6A     	 ldr r3,[r3,#40]
 1344 0138 1821     	 movs r1,#24
 1345 013a 9847     	 blx r3
 1346              	.LVL91:
 683:../Dave/Generated/USBD/usbd.c ****   }
 1347              	 .loc 1 683 0
 1348 013c 0123     	 movs r3,#1
 1349 013e 89F83B31 	 strb r3,[r9,#315]
 1350 0142 A5E7     	 b .L158
 1351              	.LVL92:
 1352              	.L183:
 1353              	.LBE102:
 1354              	.LBE110:
 912:../Dave/Generated/USBD/usbd.c ****                                 ep->OutBuffer,ep->OutBufferLength);
 1355              	 .loc 1 912 0
 1356 0144 2168     	 ldr r1,[r4]
 1357              	.LVL93:
 911:../Dave/Generated/USBD/usbd.c ****         ep->OutBytesAvailable = (uint32_t)device.Driver->EndpointRead((uint8_t)ep->Address,
 1358              	 .loc 1 911 0
 1359 0146 C9F80820 	 str r2,[r9,#8]
 912:../Dave/Generated/USBD/usbd.c ****                                 ep->OutBuffer,ep->OutBufferLength);
 1360              	 .loc 1 912 0
 1361 014a CD6A     	 ldr r5,[r1,#44]
 1362              	.LVL94:
 1363 014c 1879     	 ldrb r0,[r3,#4]
 1364 014e 5969     	 ldr r1,[r3,#20]
 1365 0150 9A69     	 ldr r2,[r3,#24]
 1366 0152 A847     	 blx r5
 1367              	.LVL95:
 1368 0154 94F83C51 	 ldrb r5,[r4,#316]
 1369 0158 C9F80400 	 str r0,[r9,#4]
 1370 015c D6E7     	 b .L166
 1371              	.LVL96:
 1372              	.L179:
 929:../Dave/Generated/USBD/usbd.c ****         ep->InDataLeft -= (uint32_t)data_count;
 1373              	 .loc 1 929 0
 1374 015e 2168     	 ldr r1,[r4]
 1375              	.LVL97:
 1376 0160 1879     	 ldrb r0,[r3,#4]
 1377 0162 0E6B     	 ldr r6,[r1,#48]
 1378 0164 D96A     	 ldr r1,[r3,#44]
 1379 0166 03F12805 	 add r5,r3,#40
 1380              	.LVL98:
 1381 016a B047     	 blx r6
 1382              	.LVL99:
 931:../Dave/Generated/USBD/usbd.c ****         break;
 1383              	 .loc 1 931 0
 1384 016c 6A68     	 ldr r2,[r5,#4]
 930:../Dave/Generated/USBD/usbd.c ****         ep->InDataBuffer += (uint32_t)data_count;
 1385              	 .loc 1 930 0
 1386 016e D9F80830 	 ldr r3,[r9,#8]
 931:../Dave/Generated/USBD/usbd.c ****         break;
 1387              	 .loc 1 931 0
 1388 0172 0244     	 add r2,r2,r0
 930:../Dave/Generated/USBD/usbd.c ****         ep->InDataBuffer += (uint32_t)data_count;
 1389              	 .loc 1 930 0
 1390 0174 1B1A     	 subs r3,r3,r0
 931:../Dave/Generated/USBD/usbd.c ****         break;
 1391              	 .loc 1 931 0
 1392 0176 6A60     	 str r2,[r5,#4]
 930:../Dave/Generated/USBD/usbd.c ****         ep->InDataBuffer += (uint32_t)data_count;
 1393              	 .loc 1 930 0
 1394 0178 C9F80830 	 str r3,[r9,#8]
 932:../Dave/Generated/USBD/usbd.c ****       }
 1395              	 .loc 1 932 0
 1396 017c 88E7     	 b .L158
 1397              	.LVL100:
 1398              	.L180:
 1399              	.LBB111:
 1400              	.LBB103:
 676:../Dave/Generated/USBD/usbd.c ****     device.ep0_state = USBD_EP0_STATE_OUT_STATUS;
 1401              	 .loc 1 676 0
 1402 017e D9F80030 	 ldr r3,[r9]
 1403 0182 2846     	 mov r0,r5
 1404 0184 9B6A     	 ldr r3,[r3,#40]
 1405 0186 2946     	 mov r1,r5
 1406 0188 9847     	 blx r3
 1407              	.LVL101:
 677:../Dave/Generated/USBD/usbd.c ****   }
 1408              	 .loc 1 677 0
 1409 018a 0523     	 movs r3,#5
 1410 018c 89F83B31 	 strb r3,[r9,#315]
 1411 0190 7EE7     	 b .L158
 1412              	.L184:
 1413              	.LBE103:
 1414              	.LBE111:
 1415              	.LBB112:
 1416              	.LBB109:
 706:../Dave/Generated/USBD/usbd.c ****     /* Zero length packet for status stage */
 1417              	 .loc 1 706 0
 1418 0192 FFF7FEFF 	 bl USBD_Handle_DeviceRequest
 1419              	.LVL102:
 708:../Dave/Generated/USBD/usbd.c ****     device.ep0_state = USBD_EP0_STATE_IN_STATUS;
 1420              	 .loc 1 708 0
 1421 0196 D9F80030 	 ldr r3,[r9]
 1422 019a 2846     	 mov r0,r5
 1423 019c 1B6B     	 ldr r3,[r3,#48]
 1424 019e 2946     	 mov r1,r5
 1425 01a0 2A46     	 mov r2,r5
 1426 01a2 9847     	 blx r3
 1427              	.LVL103:
 709:../Dave/Generated/USBD/usbd.c ****   }
 1428              	 .loc 1 709 0
 1429 01a4 0323     	 movs r3,#3
 1430 01a6 89F83B31 	 strb r3,[r9,#315]
 1431 01aa 71E7     	 b .L158
 1432              	.LVL104:
 1433              	.L181:
 1434              	.LBE109:
 1435              	.LBE112:
 1436              	.LBB113:
 1437              	.LBB106:
 747:../Dave/Generated/USBD/usbd.c ****       USBD_Handle_DeviceRequest();
 1438              	 .loc 1 747 0
 1439 01ac 0323     	 movs r3,#3
 1440 01ae 84F83B31 	 strb r3,[r4,#315]
 748:../Dave/Generated/USBD/usbd.c ****       device.Driver->EndpointWrite((uint8_t)0, (uint8_t*)0, (uint32_t)0);
 1441              	 .loc 1 748 0
 1442 01b2 FFF7FEFF 	 bl USBD_Handle_DeviceRequest
 1443              	.LVL105:
 749:../Dave/Generated/USBD/usbd.c ****     }
 1444              	 .loc 1 749 0
 1445 01b6 2368     	 ldr r3,[r4]
 1446 01b8 4846     	 mov r0,r9
 1447 01ba 1B6B     	 ldr r3,[r3,#48]
 1448 01bc 4946     	 mov r1,r9
 1449 01be 4A46     	 mov r2,r9
 1450 01c0 9847     	 blx r3
 1451              	.LVL106:
 1452 01c2 65E7     	 b .L158
 1453              	.LVL107:
 1454              	.L182:
 755:../Dave/Generated/USBD/usbd.c ****         USBD_Handle_DeviceRequest();
 1455              	 .loc 1 755 0
 1456 01c4 0223     	 movs r3,#2
 1457 01c6 84F83B31 	 strb r3,[r4,#315]
 756:../Dave/Generated/USBD/usbd.c ****       }
 1458              	 .loc 1 756 0
 1459 01ca FFF7FEFF 	 bl USBD_Handle_DeviceRequest
 1460              	.LVL108:
 1461 01ce 5FE7     	 b .L158
 1462              	.L186:
 1463              	 .align 2
 1464              	.L185:
 1465 01d0 00000000 	 .word device
 1466 01d4 00000000 	 .word USB_ControlRequest
 1467              	.LBE106:
 1468              	.LBE113:
 1469              	 .cfi_endproc
 1470              	.LFE195:
 1472              	 .section .text.USBD_Init,"ax",%progbits
 1473              	 .align 2
 1474              	 .global USBD_Init
 1475              	 .thumb
 1476              	 .thumb_func
 1478              	USBD_Init:
 1479              	.LFB180:
 179:../Dave/Generated/USBD/usbd.c **** 	USBD_STATUS_t status = USBD_STATUS_SUCCESS;
 1480              	 .loc 1 179 0
 1481              	 .cfi_startproc
 1482              	 
 1483              	 
 1484              	.LVL109:
 1485 0000 70B5     	 push {r4,r5,r6,lr}
 1486              	.LCFI10:
 1487              	 .cfi_def_cfa_offset 16
 1488              	 .cfi_offset 4,-16
 1489              	 .cfi_offset 5,-12
 1490              	 .cfi_offset 6,-8
 1491              	 .cfi_offset 14,-4
 190:../Dave/Generated/USBD/usbd.c **** 	USB_DeviceState = (uint8_t)DEVICE_STATE_Unattached;
 1492              	 .loc 1 190 0
 1493 0002 3B4C     	 ldr r4,.L201
 179:../Dave/Generated/USBD/usbd.c **** 	USBD_STATUS_t status = USBD_STATUS_SUCCESS;
 1494              	 .loc 1 179 0
 1495 0004 0546     	 mov r5,r0
 188:../Dave/Generated/USBD/usbd.c **** 
 1496              	 .loc 1 188 0
 1497 0006 FFF7FEFF 	 bl XMC_USBD_Disable
 1498              	.LVL110:
 190:../Dave/Generated/USBD/usbd.c **** 	USB_DeviceState = (uint8_t)DEVICE_STATE_Unattached;
 1499              	 .loc 1 190 0
 1500 000a 0021     	 movs r1,#0
 1501 000c 4FF4A272 	 mov r2,#324
 1502 0010 2046     	 mov r0,r4
 1503 0012 FFF7FEFF 	 bl memset
 1504              	.LVL111:
 191:../Dave/Generated/USBD/usbd.c **** 	device.Driver = &Driver_USBD0;
 1505              	 .loc 1 191 0
 1506 0016 374B     	 ldr r3,.L201+4
 192:../Dave/Generated/USBD/usbd.c **** 	device.ep0_state = USBD_EP0_STATE_IDLE;
 1507              	 .loc 1 192 0
 1508 0018 3748     	 ldr r0,.L201+8
 1509 001a 2060     	 str r0,[r4]
 199:../Dave/Generated/USBD/usbd.c **** 	device.Endpoints[0].IsEnabled = (uint8_t)1;
 1510              	 .loc 1 199 0
 1511 001c 0126     	 movs r6,#1
 191:../Dave/Generated/USBD/usbd.c **** 	device.Driver = &Driver_USBD0;
 1512              	 .loc 1 191 0
 1513 001e 0020     	 movs r0,#0
 1514 0020 1870     	 strb r0,[r3]
 199:../Dave/Generated/USBD/usbd.c **** 	device.Endpoints[0].IsEnabled = (uint8_t)1;
 1515              	 .loc 1 199 0
 1516 0022 2672     	 strb r6,[r4,#8]
 200:../Dave/Generated/USBD/usbd.c **** 	device.Endpoints[0].MaxPacketSize = (uint8_t)USBD_EP0_MAX_PKT_SIZE;
 1517              	 .loc 1 200 0
 1518 0024 2389     	 ldrh r3,[r4,#8]
 196:../Dave/Generated/USBD/usbd.c **** 	device.Endpoints[0].OutBufferLength = USBD_EP0_BUF_SIZE;
 1519              	 .loc 1 196 0
 1520 0026 354A     	 ldr r2,.L201+12
 1521 0028 6261     	 str r2,[r4,#20]
 200:../Dave/Generated/USBD/usbd.c **** 	device.Endpoints[0].MaxPacketSize = (uint8_t)USBD_EP0_MAX_PKT_SIZE;
 1522              	 .loc 1 200 0
 1523 002a 43F00203 	 orr r3,r3,#2
 1524 002e 2381     	 strh r3,[r4,#8]
 201:../Dave/Generated/USBD/usbd.c **** 
 1525              	 .loc 1 201 0
 1526 0030 2389     	 ldrh r3,[r4,#8]
 194:../Dave/Generated/USBD/usbd.c **** 	device.Endpoints[0].InBufferLength = USBD_EP0_BUF_SIZE;
 1527              	 .loc 1 194 0
 1528 0032 3349     	 ldr r1,.L201+16
 1529 0034 2162     	 str r1,[r4,#32]
 201:../Dave/Generated/USBD/usbd.c **** 
 1530              	 .loc 1 201 0
 1531 0036 4022     	 movs r2,#64
 1532 0038 62F38C13 	 bfi r3,r2,#6,#7
 1533 003c 2381     	 strh r3,[r4,#8]
 203:../Dave/Generated/USBD/usbd.c **** 	    (handle->event_cb->get_descriptor == 0) ||
 1534              	 .loc 1 203 0
 1535 003e 2B69     	 ldr r3,[r5,#16]
 1536 0040 D968     	 ldr r1,[r3,#12]
 193:../Dave/Generated/USBD/usbd.c **** 	device.Endpoints[0].InBuffer = endpoint0_in_buffer;
 1537              	 .loc 1 193 0
 1538 0042 84F83B61 	 strb r6,[r4,#315]
 195:../Dave/Generated/USBD/usbd.c **** 	device.Endpoints[0].OutBuffer = endpoint0_out_buffer;
 1539              	 .loc 1 195 0
 1540 0046 4FF48072 	 mov r2,#256
 193:../Dave/Generated/USBD/usbd.c **** 	device.Endpoints[0].InBuffer = endpoint0_in_buffer;
 1541              	 .loc 1 193 0
 1542 004a 3046     	 mov r0,r6
 195:../Dave/Generated/USBD/usbd.c **** 	device.Endpoints[0].OutBuffer = endpoint0_out_buffer;
 1543              	 .loc 1 195 0
 1544 004c 6262     	 str r2,[r4,#36]
 197:../Dave/Generated/USBD/usbd.c **** 	device.Endpoints[0].Direction = (uint8_t)0;
 1545              	 .loc 1 197 0
 1546 004e A261     	 str r2,[r4,#24]
 203:../Dave/Generated/USBD/usbd.c **** 	    (handle->event_cb->get_descriptor == 0) ||
 1547              	 .loc 1 203 0
 1548 0050 21B3     	 cbz r1,.L193
 203:../Dave/Generated/USBD/usbd.c **** 	    (handle->event_cb->get_descriptor == 0) ||
 1549              	 .loc 1 203 0 is_stmt 0 discriminator 1
 1550 0052 5A69     	 ldr r2,[r3,#20]
 1551 0054 12B3     	 cbz r2,.L193
 204:../Dave/Generated/USBD/usbd.c **** 	    (handle->event_cb->config_changed == 0))
 1552              	 .loc 1 204 0 is_stmt 1
 1553 0056 9A68     	 ldr r2,[r3,#8]
 1554 0058 02B3     	 cbz r2,.L193
 211:../Dave/Generated/USBD/usbd.c **** 
 1555              	 .loc 1 211 0
 1556 005a C4F84031 	 str r3,[r4,#320]
 213:../Dave/Generated/USBD/usbd.c **** 
 1557              	 .loc 1 213 0
 1558 005e FFF7FEFF 	 bl XMC_SCU_CLOCK_EnableClock
 1559              	.LVL112:
 219:../Dave/Generated/USBD/usbd.c **** 	  if (USBD_STATUS_SUCCESS == status)
 1560              	 .loc 1 219 0
 1561 0062 2368     	 ldr r3,[r4]
 216:../Dave/Generated/USBD/usbd.c **** 	  handle->usb_init.cb_endpoint_event = USBD_SignalEndpointEvent_Handler;
 1562              	 .loc 1 216 0
 1563 0064 2749     	 ldr r1,.L201+20
 217:../Dave/Generated/USBD/usbd.c **** 
 1564              	 .loc 1 217 0
 1565 0066 284A     	 ldr r2,.L201+24
 219:../Dave/Generated/USBD/usbd.c **** 	  if (USBD_STATUS_SUCCESS == status)
 1566              	 .loc 1 219 0
 1567 0068 5B68     	 ldr r3,[r3,#4]
 216:../Dave/Generated/USBD/usbd.c **** 	  handle->usb_init.cb_endpoint_event = USBD_SignalEndpointEvent_Handler;
 1568              	 .loc 1 216 0
 1569 006a 6960     	 str r1,[r5,#4]
 217:../Dave/Generated/USBD/usbd.c **** 
 1570              	 .loc 1 217 0
 1571 006c AA60     	 str r2,[r5,#8]
 219:../Dave/Generated/USBD/usbd.c **** 	  if (USBD_STATUS_SUCCESS == status)
 1572              	 .loc 1 219 0
 1573 006e 2846     	 mov r0,r5
 1574 0070 9847     	 blx r3
 1575              	.LVL113:
 220:../Dave/Generated/USBD/usbd.c **** 	  {
 1576              	 .loc 1 220 0
 1577 0072 0546     	 mov r5,r0
 1578              	.LVL114:
 1579 0074 A8B1     	 cbz r0,.L200
 1580              	.L189:
 1581              	.LVL115:
 232:../Dave/Generated/USBD/usbd.c **** 	  if (USBD_STATUS_SUCCESS == (USBD_STATUS_t)device.Driver->Uninitialize())
 1582              	 .loc 1 232 0
 1583 0076 FFF7FEFF 	 bl XMC_USBD_Disable
 1584              	.LVL116:
 233:../Dave/Generated/USBD/usbd.c **** 	  {
 1585              	 .loc 1 233 0
 1586 007a 2368     	 ldr r3,[r4]
 1587 007c 9B68     	 ldr r3,[r3,#8]
 1588 007e 9847     	 blx r3
 1589              	.LVL117:
 1590 0080 50B9     	 cbnz r0,.L188
 1591              	.LVL118:
 1592              	.LBB135:
 1593              	.LBB136:
 1594              	.LBB137:
 1595              	 .file 2 "C:/Users/Utente/Desktop/Tesi/Firmware_Software/DAVE project/S2GLP_Pulsed_Doppler/Libraries/CMSIS/Include/core_cm4.h"
   1:C:/Users/Utente/Desktop/Tesi/Firmware_Software/DAVE project/S2GLP_Pulsed_Doppler/Libraries/CMSIS/Include\core_cm4.h **** /**************************************************************************//**
   2:C:/Users/Utente/Desktop/Tesi/Firmware_Software/DAVE project/S2GLP_Pulsed_Doppler/Libraries/CMSIS/Include\core_cm4.h ****  * @file     core_cm4.h
   3:C:/Users/Utente/Desktop/Tesi/Firmware_Software/DAVE project/S2GLP_Pulsed_Doppler/Libraries/CMSIS/Include\core_cm4.h ****  * @brief    CMSIS Cortex-M4 Core Peripheral Access Layer Header File
   4:C:/Users/Utente/Desktop/Tesi/Firmware_Software/DAVE project/S2GLP_Pulsed_Doppler/Libraries/CMSIS/Include\core_cm4.h ****  * @version  V5.0.1
   5:C:/Users/Utente/Desktop/Tesi/Firmware_Software/DAVE project/S2GLP_Pulsed_Doppler/Libraries/CMSIS/Include\core_cm4.h ****  * @date     30. January 2017
   6:C:/Users/Utente/Desktop/Tesi/Firmware_Software/DAVE project/S2GLP_Pulsed_Doppler/Libraries/CMSIS/Include\core_cm4.h ****  ******************************************************************************/
   7:C:/Users/Utente/Desktop/Tesi/Firmware_Software/DAVE project/S2GLP_Pulsed_Doppler/Libraries/CMSIS/Include\core_cm4.h **** /*
   8:C:/Users/Utente/Desktop/Tesi/Firmware_Software/DAVE project/S2GLP_Pulsed_Doppler/Libraries/CMSIS/Include\core_cm4.h ****  * Copyright (c) 2009-2016 ARM Limited. All rights reserved.
   9:C:/Users/Utente/Desktop/Tesi/Firmware_Software/DAVE project/S2GLP_Pulsed_Doppler/Libraries/CMSIS/Include\core_cm4.h ****  *
  10:C:/Users/Utente/Desktop/Tesi/Firmware_Software/DAVE project/S2GLP_Pulsed_Doppler/Libraries/CMSIS/Include\core_cm4.h ****  * SPDX-License-Identifier: Apache-2.0
  11:C:/Users/Utente/Desktop/Tesi/Firmware_Software/DAVE project/S2GLP_Pulsed_Doppler/Libraries/CMSIS/Include\core_cm4.h ****  *
  12:C:/Users/Utente/Desktop/Tesi/Firmware_Software/DAVE project/S2GLP_Pulsed_Doppler/Libraries/CMSIS/Include\core_cm4.h ****  * Licensed under the Apache License, Version 2.0 (the License); you may
  13:C:/Users/Utente/Desktop/Tesi/Firmware_Software/DAVE project/S2GLP_Pulsed_Doppler/Libraries/CMSIS/Include\core_cm4.h ****  * not use this file except in compliance with the License.
  14:C:/Users/Utente/Desktop/Tesi/Firmware_Software/DAVE project/S2GLP_Pulsed_Doppler/Libraries/CMSIS/Include\core_cm4.h ****  * You may obtain a copy of the License at
  15:C:/Users/Utente/Desktop/Tesi/Firmware_Software/DAVE project/S2GLP_Pulsed_Doppler/Libraries/CMSIS/Include\core_cm4.h ****  *
  16:C:/Users/Utente/Desktop/Tesi/Firmware_Software/DAVE project/S2GLP_Pulsed_Doppler/Libraries/CMSIS/Include\core_cm4.h ****  * www.apache.org/licenses/LICENSE-2.0
  17:C:/Users/Utente/Desktop/Tesi/Firmware_Software/DAVE project/S2GLP_Pulsed_Doppler/Libraries/CMSIS/Include\core_cm4.h ****  *
  18:C:/Users/Utente/Desktop/Tesi/Firmware_Software/DAVE project/S2GLP_Pulsed_Doppler/Libraries/CMSIS/Include\core_cm4.h ****  * Unless required by applicable law or agreed to in writing, software
  19:C:/Users/Utente/Desktop/Tesi/Firmware_Software/DAVE project/S2GLP_Pulsed_Doppler/Libraries/CMSIS/Include\core_cm4.h ****  * distributed under the License is distributed on an AS IS BASIS, WITHOUT
  20:C:/Users/Utente/Desktop/Tesi/Firmware_Software/DAVE project/S2GLP_Pulsed_Doppler/Libraries/CMSIS/Include\core_cm4.h ****  * WARRANTIES OR CONDITIONS OF ANY KIND, either express or implied.
  21:C:/Users/Utente/Desktop/Tesi/Firmware_Software/DAVE project/S2GLP_Pulsed_Doppler/Libraries/CMSIS/Include\core_cm4.h ****  * See the License for the specific language governing permissions and
  22:C:/Users/Utente/Desktop/Tesi/Firmware_Software/DAVE project/S2GLP_Pulsed_Doppler/Libraries/CMSIS/Include\core_cm4.h ****  * limitations under the License.
  23:C:/Users/Utente/Desktop/Tesi/Firmware_Software/DAVE project/S2GLP_Pulsed_Doppler/Libraries/CMSIS/Include\core_cm4.h ****  */
  24:C:/Users/Utente/Desktop/Tesi/Firmware_Software/DAVE project/S2GLP_Pulsed_Doppler/Libraries/CMSIS/Include\core_cm4.h **** 
  25:C:/Users/Utente/Desktop/Tesi/Firmware_Software/DAVE project/S2GLP_Pulsed_Doppler/Libraries/CMSIS/Include\core_cm4.h **** #if   defined ( __ICCARM__ )
  26:C:/Users/Utente/Desktop/Tesi/Firmware_Software/DAVE project/S2GLP_Pulsed_Doppler/Libraries/CMSIS/Include\core_cm4.h ****  #pragma system_include         /* treat file as system include file for MISRA check */
  27:C:/Users/Utente/Desktop/Tesi/Firmware_Software/DAVE project/S2GLP_Pulsed_Doppler/Libraries/CMSIS/Include\core_cm4.h **** #elif defined (__ARMCC_VERSION) && (__ARMCC_VERSION >= 6010050)
  28:C:/Users/Utente/Desktop/Tesi/Firmware_Software/DAVE project/S2GLP_Pulsed_Doppler/Libraries/CMSIS/Include\core_cm4.h ****   #pragma clang system_header   /* treat file as system include file */
  29:C:/Users/Utente/Desktop/Tesi/Firmware_Software/DAVE project/S2GLP_Pulsed_Doppler/Libraries/CMSIS/Include\core_cm4.h **** #endif
  30:C:/Users/Utente/Desktop/Tesi/Firmware_Software/DAVE project/S2GLP_Pulsed_Doppler/Libraries/CMSIS/Include\core_cm4.h **** 
  31:C:/Users/Utente/Desktop/Tesi/Firmware_Software/DAVE project/S2GLP_Pulsed_Doppler/Libraries/CMSIS/Include\core_cm4.h **** #ifndef __CORE_CM4_H_GENERIC
  32:C:/Users/Utente/Desktop/Tesi/Firmware_Software/DAVE project/S2GLP_Pulsed_Doppler/Libraries/CMSIS/Include\core_cm4.h **** #define __CORE_CM4_H_GENERIC
  33:C:/Users/Utente/Desktop/Tesi/Firmware_Software/DAVE project/S2GLP_Pulsed_Doppler/Libraries/CMSIS/Include\core_cm4.h **** 
  34:C:/Users/Utente/Desktop/Tesi/Firmware_Software/DAVE project/S2GLP_Pulsed_Doppler/Libraries/CMSIS/Include\core_cm4.h **** #include <stdint.h>
  35:C:/Users/Utente/Desktop/Tesi/Firmware_Software/DAVE project/S2GLP_Pulsed_Doppler/Libraries/CMSIS/Include\core_cm4.h **** 
  36:C:/Users/Utente/Desktop/Tesi/Firmware_Software/DAVE project/S2GLP_Pulsed_Doppler/Libraries/CMSIS/Include\core_cm4.h **** #ifdef __cplusplus
  37:C:/Users/Utente/Desktop/Tesi/Firmware_Software/DAVE project/S2GLP_Pulsed_Doppler/Libraries/CMSIS/Include\core_cm4.h ****  extern "C" {
  38:C:/Users/Utente/Desktop/Tesi/Firmware_Software/DAVE project/S2GLP_Pulsed_Doppler/Libraries/CMSIS/Include\core_cm4.h **** #endif
  39:C:/Users/Utente/Desktop/Tesi/Firmware_Software/DAVE project/S2GLP_Pulsed_Doppler/Libraries/CMSIS/Include\core_cm4.h **** 
  40:C:/Users/Utente/Desktop/Tesi/Firmware_Software/DAVE project/S2GLP_Pulsed_Doppler/Libraries/CMSIS/Include\core_cm4.h **** /**
  41:C:/Users/Utente/Desktop/Tesi/Firmware_Software/DAVE project/S2GLP_Pulsed_Doppler/Libraries/CMSIS/Include\core_cm4.h ****   \page CMSIS_MISRA_Exceptions  MISRA-C:2004 Compliance Exceptions
  42:C:/Users/Utente/Desktop/Tesi/Firmware_Software/DAVE project/S2GLP_Pulsed_Doppler/Libraries/CMSIS/Include\core_cm4.h ****   CMSIS violates the following MISRA-C:2004 rules:
  43:C:/Users/Utente/Desktop/Tesi/Firmware_Software/DAVE project/S2GLP_Pulsed_Doppler/Libraries/CMSIS/Include\core_cm4.h **** 
  44:C:/Users/Utente/Desktop/Tesi/Firmware_Software/DAVE project/S2GLP_Pulsed_Doppler/Libraries/CMSIS/Include\core_cm4.h ****    \li Required Rule 8.5, object/function definition in header file.<br>
  45:C:/Users/Utente/Desktop/Tesi/Firmware_Software/DAVE project/S2GLP_Pulsed_Doppler/Libraries/CMSIS/Include\core_cm4.h ****      Function definitions in header files are used to allow 'inlining'.
  46:C:/Users/Utente/Desktop/Tesi/Firmware_Software/DAVE project/S2GLP_Pulsed_Doppler/Libraries/CMSIS/Include\core_cm4.h **** 
  47:C:/Users/Utente/Desktop/Tesi/Firmware_Software/DAVE project/S2GLP_Pulsed_Doppler/Libraries/CMSIS/Include\core_cm4.h ****    \li Required Rule 18.4, declaration of union type or object of union type: '{...}'.<br>
  48:C:/Users/Utente/Desktop/Tesi/Firmware_Software/DAVE project/S2GLP_Pulsed_Doppler/Libraries/CMSIS/Include\core_cm4.h ****      Unions are used for effective representation of core registers.
  49:C:/Users/Utente/Desktop/Tesi/Firmware_Software/DAVE project/S2GLP_Pulsed_Doppler/Libraries/CMSIS/Include\core_cm4.h **** 
  50:C:/Users/Utente/Desktop/Tesi/Firmware_Software/DAVE project/S2GLP_Pulsed_Doppler/Libraries/CMSIS/Include\core_cm4.h ****    \li Advisory Rule 19.7, Function-like macro defined.<br>
  51:C:/Users/Utente/Desktop/Tesi/Firmware_Software/DAVE project/S2GLP_Pulsed_Doppler/Libraries/CMSIS/Include\core_cm4.h ****      Function-like macros are used to allow more efficient code.
  52:C:/Users/Utente/Desktop/Tesi/Firmware_Software/DAVE project/S2GLP_Pulsed_Doppler/Libraries/CMSIS/Include\core_cm4.h ****  */
  53:C:/Users/Utente/Desktop/Tesi/Firmware_Software/DAVE project/S2GLP_Pulsed_Doppler/Libraries/CMSIS/Include\core_cm4.h **** 
  54:C:/Users/Utente/Desktop/Tesi/Firmware_Software/DAVE project/S2GLP_Pulsed_Doppler/Libraries/CMSIS/Include\core_cm4.h **** 
  55:C:/Users/Utente/Desktop/Tesi/Firmware_Software/DAVE project/S2GLP_Pulsed_Doppler/Libraries/CMSIS/Include\core_cm4.h **** /*******************************************************************************
  56:C:/Users/Utente/Desktop/Tesi/Firmware_Software/DAVE project/S2GLP_Pulsed_Doppler/Libraries/CMSIS/Include\core_cm4.h ****  *                 CMSIS definitions
  57:C:/Users/Utente/Desktop/Tesi/Firmware_Software/DAVE project/S2GLP_Pulsed_Doppler/Libraries/CMSIS/Include\core_cm4.h ****  ******************************************************************************/
  58:C:/Users/Utente/Desktop/Tesi/Firmware_Software/DAVE project/S2GLP_Pulsed_Doppler/Libraries/CMSIS/Include\core_cm4.h **** /**
  59:C:/Users/Utente/Desktop/Tesi/Firmware_Software/DAVE project/S2GLP_Pulsed_Doppler/Libraries/CMSIS/Include\core_cm4.h ****   \ingroup Cortex_M4
  60:C:/Users/Utente/Desktop/Tesi/Firmware_Software/DAVE project/S2GLP_Pulsed_Doppler/Libraries/CMSIS/Include\core_cm4.h ****   @{
  61:C:/Users/Utente/Desktop/Tesi/Firmware_Software/DAVE project/S2GLP_Pulsed_Doppler/Libraries/CMSIS/Include\core_cm4.h ****  */
  62:C:/Users/Utente/Desktop/Tesi/Firmware_Software/DAVE project/S2GLP_Pulsed_Doppler/Libraries/CMSIS/Include\core_cm4.h **** 
  63:C:/Users/Utente/Desktop/Tesi/Firmware_Software/DAVE project/S2GLP_Pulsed_Doppler/Libraries/CMSIS/Include\core_cm4.h **** /*  CMSIS CM4 definitions */
  64:C:/Users/Utente/Desktop/Tesi/Firmware_Software/DAVE project/S2GLP_Pulsed_Doppler/Libraries/CMSIS/Include\core_cm4.h **** #define __CM4_CMSIS_VERSION_MAIN  ( 5U)                                  /*!< [31:16] CMSIS HAL mai
  65:C:/Users/Utente/Desktop/Tesi/Firmware_Software/DAVE project/S2GLP_Pulsed_Doppler/Libraries/CMSIS/Include\core_cm4.h **** #define __CM4_CMSIS_VERSION_SUB   ( 0U)                                  /*!< [15:0]  CMSIS HAL sub
  66:C:/Users/Utente/Desktop/Tesi/Firmware_Software/DAVE project/S2GLP_Pulsed_Doppler/Libraries/CMSIS/Include\core_cm4.h **** #define __CM4_CMSIS_VERSION       ((__CM4_CMSIS_VERSION_MAIN << 16U) | \
  67:C:/Users/Utente/Desktop/Tesi/Firmware_Software/DAVE project/S2GLP_Pulsed_Doppler/Libraries/CMSIS/Include\core_cm4.h ****                                     __CM4_CMSIS_VERSION_SUB           )  /*!< CMSIS HAL version num
  68:C:/Users/Utente/Desktop/Tesi/Firmware_Software/DAVE project/S2GLP_Pulsed_Doppler/Libraries/CMSIS/Include\core_cm4.h **** 
  69:C:/Users/Utente/Desktop/Tesi/Firmware_Software/DAVE project/S2GLP_Pulsed_Doppler/Libraries/CMSIS/Include\core_cm4.h **** #define __CORTEX_M                (4U)                                   /*!< Cortex-M Core */
  70:C:/Users/Utente/Desktop/Tesi/Firmware_Software/DAVE project/S2GLP_Pulsed_Doppler/Libraries/CMSIS/Include\core_cm4.h **** 
  71:C:/Users/Utente/Desktop/Tesi/Firmware_Software/DAVE project/S2GLP_Pulsed_Doppler/Libraries/CMSIS/Include\core_cm4.h **** /** __FPU_USED indicates whether an FPU is used or not.
  72:C:/Users/Utente/Desktop/Tesi/Firmware_Software/DAVE project/S2GLP_Pulsed_Doppler/Libraries/CMSIS/Include\core_cm4.h ****     For this, __FPU_PRESENT has to be checked prior to making use of FPU specific registers and fun
  73:C:/Users/Utente/Desktop/Tesi/Firmware_Software/DAVE project/S2GLP_Pulsed_Doppler/Libraries/CMSIS/Include\core_cm4.h **** */
  74:C:/Users/Utente/Desktop/Tesi/Firmware_Software/DAVE project/S2GLP_Pulsed_Doppler/Libraries/CMSIS/Include\core_cm4.h **** #if defined ( __CC_ARM )
  75:C:/Users/Utente/Desktop/Tesi/Firmware_Software/DAVE project/S2GLP_Pulsed_Doppler/Libraries/CMSIS/Include\core_cm4.h ****   #if defined __TARGET_FPU_VFP
  76:C:/Users/Utente/Desktop/Tesi/Firmware_Software/DAVE project/S2GLP_Pulsed_Doppler/Libraries/CMSIS/Include\core_cm4.h ****     #if defined (__FPU_PRESENT) && (__FPU_PRESENT == 1U)
  77:C:/Users/Utente/Desktop/Tesi/Firmware_Software/DAVE project/S2GLP_Pulsed_Doppler/Libraries/CMSIS/Include\core_cm4.h ****       #define __FPU_USED       1U
  78:C:/Users/Utente/Desktop/Tesi/Firmware_Software/DAVE project/S2GLP_Pulsed_Doppler/Libraries/CMSIS/Include\core_cm4.h ****     #else
  79:C:/Users/Utente/Desktop/Tesi/Firmware_Software/DAVE project/S2GLP_Pulsed_Doppler/Libraries/CMSIS/Include\core_cm4.h ****       #error "Compiler generates FPU instructions for a device without an FPU (check __FPU_PRESENT)
  80:C:/Users/Utente/Desktop/Tesi/Firmware_Software/DAVE project/S2GLP_Pulsed_Doppler/Libraries/CMSIS/Include\core_cm4.h ****       #define __FPU_USED       0U
  81:C:/Users/Utente/Desktop/Tesi/Firmware_Software/DAVE project/S2GLP_Pulsed_Doppler/Libraries/CMSIS/Include\core_cm4.h ****     #endif
  82:C:/Users/Utente/Desktop/Tesi/Firmware_Software/DAVE project/S2GLP_Pulsed_Doppler/Libraries/CMSIS/Include\core_cm4.h ****   #else
  83:C:/Users/Utente/Desktop/Tesi/Firmware_Software/DAVE project/S2GLP_Pulsed_Doppler/Libraries/CMSIS/Include\core_cm4.h ****     #define __FPU_USED         0U
  84:C:/Users/Utente/Desktop/Tesi/Firmware_Software/DAVE project/S2GLP_Pulsed_Doppler/Libraries/CMSIS/Include\core_cm4.h ****   #endif
  85:C:/Users/Utente/Desktop/Tesi/Firmware_Software/DAVE project/S2GLP_Pulsed_Doppler/Libraries/CMSIS/Include\core_cm4.h **** 
  86:C:/Users/Utente/Desktop/Tesi/Firmware_Software/DAVE project/S2GLP_Pulsed_Doppler/Libraries/CMSIS/Include\core_cm4.h **** #elif defined (__ARMCC_VERSION) && (__ARMCC_VERSION >= 6010050)
  87:C:/Users/Utente/Desktop/Tesi/Firmware_Software/DAVE project/S2GLP_Pulsed_Doppler/Libraries/CMSIS/Include\core_cm4.h ****   #if defined __ARM_PCS_VFP
  88:C:/Users/Utente/Desktop/Tesi/Firmware_Software/DAVE project/S2GLP_Pulsed_Doppler/Libraries/CMSIS/Include\core_cm4.h ****     #if defined (__FPU_PRESENT) && (__FPU_PRESENT == 1U)
  89:C:/Users/Utente/Desktop/Tesi/Firmware_Software/DAVE project/S2GLP_Pulsed_Doppler/Libraries/CMSIS/Include\core_cm4.h ****       #define __FPU_USED       1U
  90:C:/Users/Utente/Desktop/Tesi/Firmware_Software/DAVE project/S2GLP_Pulsed_Doppler/Libraries/CMSIS/Include\core_cm4.h ****     #else
  91:C:/Users/Utente/Desktop/Tesi/Firmware_Software/DAVE project/S2GLP_Pulsed_Doppler/Libraries/CMSIS/Include\core_cm4.h ****       #warning "Compiler generates FPU instructions for a device without an FPU (check __FPU_PRESEN
  92:C:/Users/Utente/Desktop/Tesi/Firmware_Software/DAVE project/S2GLP_Pulsed_Doppler/Libraries/CMSIS/Include\core_cm4.h ****       #define __FPU_USED       0U
  93:C:/Users/Utente/Desktop/Tesi/Firmware_Software/DAVE project/S2GLP_Pulsed_Doppler/Libraries/CMSIS/Include\core_cm4.h ****     #endif
  94:C:/Users/Utente/Desktop/Tesi/Firmware_Software/DAVE project/S2GLP_Pulsed_Doppler/Libraries/CMSIS/Include\core_cm4.h ****   #else
  95:C:/Users/Utente/Desktop/Tesi/Firmware_Software/DAVE project/S2GLP_Pulsed_Doppler/Libraries/CMSIS/Include\core_cm4.h ****     #define __FPU_USED         0U
  96:C:/Users/Utente/Desktop/Tesi/Firmware_Software/DAVE project/S2GLP_Pulsed_Doppler/Libraries/CMSIS/Include\core_cm4.h ****   #endif
  97:C:/Users/Utente/Desktop/Tesi/Firmware_Software/DAVE project/S2GLP_Pulsed_Doppler/Libraries/CMSIS/Include\core_cm4.h **** 
  98:C:/Users/Utente/Desktop/Tesi/Firmware_Software/DAVE project/S2GLP_Pulsed_Doppler/Libraries/CMSIS/Include\core_cm4.h **** #elif defined ( __GNUC__ )
  99:C:/Users/Utente/Desktop/Tesi/Firmware_Software/DAVE project/S2GLP_Pulsed_Doppler/Libraries/CMSIS/Include\core_cm4.h ****   #if defined (__VFP_FP__) && !defined(__SOFTFP__)
 100:C:/Users/Utente/Desktop/Tesi/Firmware_Software/DAVE project/S2GLP_Pulsed_Doppler/Libraries/CMSIS/Include\core_cm4.h ****     #if defined (__FPU_PRESENT) && (__FPU_PRESENT == 1U)
 101:C:/Users/Utente/Desktop/Tesi/Firmware_Software/DAVE project/S2GLP_Pulsed_Doppler/Libraries/CMSIS/Include\core_cm4.h ****       #define __FPU_USED       1U
 102:C:/Users/Utente/Desktop/Tesi/Firmware_Software/DAVE project/S2GLP_Pulsed_Doppler/Libraries/CMSIS/Include\core_cm4.h ****     #else
 103:C:/Users/Utente/Desktop/Tesi/Firmware_Software/DAVE project/S2GLP_Pulsed_Doppler/Libraries/CMSIS/Include\core_cm4.h ****       #error "Compiler generates FPU instructions for a device without an FPU (check __FPU_PRESENT)
 104:C:/Users/Utente/Desktop/Tesi/Firmware_Software/DAVE project/S2GLP_Pulsed_Doppler/Libraries/CMSIS/Include\core_cm4.h ****       #define __FPU_USED       0U
 105:C:/Users/Utente/Desktop/Tesi/Firmware_Software/DAVE project/S2GLP_Pulsed_Doppler/Libraries/CMSIS/Include\core_cm4.h ****     #endif
 106:C:/Users/Utente/Desktop/Tesi/Firmware_Software/DAVE project/S2GLP_Pulsed_Doppler/Libraries/CMSIS/Include\core_cm4.h ****   #else
 107:C:/Users/Utente/Desktop/Tesi/Firmware_Software/DAVE project/S2GLP_Pulsed_Doppler/Libraries/CMSIS/Include\core_cm4.h ****     #define __FPU_USED         0U
 108:C:/Users/Utente/Desktop/Tesi/Firmware_Software/DAVE project/S2GLP_Pulsed_Doppler/Libraries/CMSIS/Include\core_cm4.h ****   #endif
 109:C:/Users/Utente/Desktop/Tesi/Firmware_Software/DAVE project/S2GLP_Pulsed_Doppler/Libraries/CMSIS/Include\core_cm4.h **** 
 110:C:/Users/Utente/Desktop/Tesi/Firmware_Software/DAVE project/S2GLP_Pulsed_Doppler/Libraries/CMSIS/Include\core_cm4.h **** #elif defined ( __ICCARM__ )
 111:C:/Users/Utente/Desktop/Tesi/Firmware_Software/DAVE project/S2GLP_Pulsed_Doppler/Libraries/CMSIS/Include\core_cm4.h ****   #if defined __ARMVFP__
 112:C:/Users/Utente/Desktop/Tesi/Firmware_Software/DAVE project/S2GLP_Pulsed_Doppler/Libraries/CMSIS/Include\core_cm4.h ****     #if defined (__FPU_PRESENT) && (__FPU_PRESENT == 1U)
 113:C:/Users/Utente/Desktop/Tesi/Firmware_Software/DAVE project/S2GLP_Pulsed_Doppler/Libraries/CMSIS/Include\core_cm4.h ****       #define __FPU_USED       1U
 114:C:/Users/Utente/Desktop/Tesi/Firmware_Software/DAVE project/S2GLP_Pulsed_Doppler/Libraries/CMSIS/Include\core_cm4.h ****     #else
 115:C:/Users/Utente/Desktop/Tesi/Firmware_Software/DAVE project/S2GLP_Pulsed_Doppler/Libraries/CMSIS/Include\core_cm4.h ****       #error "Compiler generates FPU instructions for a device without an FPU (check __FPU_PRESENT)
 116:C:/Users/Utente/Desktop/Tesi/Firmware_Software/DAVE project/S2GLP_Pulsed_Doppler/Libraries/CMSIS/Include\core_cm4.h ****       #define __FPU_USED       0U
 117:C:/Users/Utente/Desktop/Tesi/Firmware_Software/DAVE project/S2GLP_Pulsed_Doppler/Libraries/CMSIS/Include\core_cm4.h ****     #endif
 118:C:/Users/Utente/Desktop/Tesi/Firmware_Software/DAVE project/S2GLP_Pulsed_Doppler/Libraries/CMSIS/Include\core_cm4.h ****   #else
 119:C:/Users/Utente/Desktop/Tesi/Firmware_Software/DAVE project/S2GLP_Pulsed_Doppler/Libraries/CMSIS/Include\core_cm4.h ****     #define __FPU_USED         0U
 120:C:/Users/Utente/Desktop/Tesi/Firmware_Software/DAVE project/S2GLP_Pulsed_Doppler/Libraries/CMSIS/Include\core_cm4.h ****   #endif
 121:C:/Users/Utente/Desktop/Tesi/Firmware_Software/DAVE project/S2GLP_Pulsed_Doppler/Libraries/CMSIS/Include\core_cm4.h **** 
 122:C:/Users/Utente/Desktop/Tesi/Firmware_Software/DAVE project/S2GLP_Pulsed_Doppler/Libraries/CMSIS/Include\core_cm4.h **** #elif defined ( __TI_ARM__ )
 123:C:/Users/Utente/Desktop/Tesi/Firmware_Software/DAVE project/S2GLP_Pulsed_Doppler/Libraries/CMSIS/Include\core_cm4.h ****   #if defined __TI_VFP_SUPPORT__
 124:C:/Users/Utente/Desktop/Tesi/Firmware_Software/DAVE project/S2GLP_Pulsed_Doppler/Libraries/CMSIS/Include\core_cm4.h ****     #if defined (__FPU_PRESENT) && (__FPU_PRESENT == 1U)
 125:C:/Users/Utente/Desktop/Tesi/Firmware_Software/DAVE project/S2GLP_Pulsed_Doppler/Libraries/CMSIS/Include\core_cm4.h ****       #define __FPU_USED       1U
 126:C:/Users/Utente/Desktop/Tesi/Firmware_Software/DAVE project/S2GLP_Pulsed_Doppler/Libraries/CMSIS/Include\core_cm4.h ****     #else
 127:C:/Users/Utente/Desktop/Tesi/Firmware_Software/DAVE project/S2GLP_Pulsed_Doppler/Libraries/CMSIS/Include\core_cm4.h ****       #error "Compiler generates FPU instructions for a device without an FPU (check __FPU_PRESENT)
 128:C:/Users/Utente/Desktop/Tesi/Firmware_Software/DAVE project/S2GLP_Pulsed_Doppler/Libraries/CMSIS/Include\core_cm4.h ****       #define __FPU_USED       0U
 129:C:/Users/Utente/Desktop/Tesi/Firmware_Software/DAVE project/S2GLP_Pulsed_Doppler/Libraries/CMSIS/Include\core_cm4.h ****     #endif
 130:C:/Users/Utente/Desktop/Tesi/Firmware_Software/DAVE project/S2GLP_Pulsed_Doppler/Libraries/CMSIS/Include\core_cm4.h ****   #else
 131:C:/Users/Utente/Desktop/Tesi/Firmware_Software/DAVE project/S2GLP_Pulsed_Doppler/Libraries/CMSIS/Include\core_cm4.h ****     #define __FPU_USED         0U
 132:C:/Users/Utente/Desktop/Tesi/Firmware_Software/DAVE project/S2GLP_Pulsed_Doppler/Libraries/CMSIS/Include\core_cm4.h ****   #endif
 133:C:/Users/Utente/Desktop/Tesi/Firmware_Software/DAVE project/S2GLP_Pulsed_Doppler/Libraries/CMSIS/Include\core_cm4.h **** 
 134:C:/Users/Utente/Desktop/Tesi/Firmware_Software/DAVE project/S2GLP_Pulsed_Doppler/Libraries/CMSIS/Include\core_cm4.h **** #elif defined ( __TASKING__ )
 135:C:/Users/Utente/Desktop/Tesi/Firmware_Software/DAVE project/S2GLP_Pulsed_Doppler/Libraries/CMSIS/Include\core_cm4.h ****   #if defined __FPU_VFP__
 136:C:/Users/Utente/Desktop/Tesi/Firmware_Software/DAVE project/S2GLP_Pulsed_Doppler/Libraries/CMSIS/Include\core_cm4.h ****     #if defined (__FPU_PRESENT) && (__FPU_PRESENT == 1U)
 137:C:/Users/Utente/Desktop/Tesi/Firmware_Software/DAVE project/S2GLP_Pulsed_Doppler/Libraries/CMSIS/Include\core_cm4.h ****       #define __FPU_USED       1U
 138:C:/Users/Utente/Desktop/Tesi/Firmware_Software/DAVE project/S2GLP_Pulsed_Doppler/Libraries/CMSIS/Include\core_cm4.h ****     #else
 139:C:/Users/Utente/Desktop/Tesi/Firmware_Software/DAVE project/S2GLP_Pulsed_Doppler/Libraries/CMSIS/Include\core_cm4.h ****       #error "Compiler generates FPU instructions for a device without an FPU (check __FPU_PRESENT)
 140:C:/Users/Utente/Desktop/Tesi/Firmware_Software/DAVE project/S2GLP_Pulsed_Doppler/Libraries/CMSIS/Include\core_cm4.h ****       #define __FPU_USED       0U
 141:C:/Users/Utente/Desktop/Tesi/Firmware_Software/DAVE project/S2GLP_Pulsed_Doppler/Libraries/CMSIS/Include\core_cm4.h ****     #endif
 142:C:/Users/Utente/Desktop/Tesi/Firmware_Software/DAVE project/S2GLP_Pulsed_Doppler/Libraries/CMSIS/Include\core_cm4.h ****   #else
 143:C:/Users/Utente/Desktop/Tesi/Firmware_Software/DAVE project/S2GLP_Pulsed_Doppler/Libraries/CMSIS/Include\core_cm4.h ****     #define __FPU_USED         0U
 144:C:/Users/Utente/Desktop/Tesi/Firmware_Software/DAVE project/S2GLP_Pulsed_Doppler/Libraries/CMSIS/Include\core_cm4.h ****   #endif
 145:C:/Users/Utente/Desktop/Tesi/Firmware_Software/DAVE project/S2GLP_Pulsed_Doppler/Libraries/CMSIS/Include\core_cm4.h **** 
 146:C:/Users/Utente/Desktop/Tesi/Firmware_Software/DAVE project/S2GLP_Pulsed_Doppler/Libraries/CMSIS/Include\core_cm4.h **** #elif defined ( __CSMC__ )
 147:C:/Users/Utente/Desktop/Tesi/Firmware_Software/DAVE project/S2GLP_Pulsed_Doppler/Libraries/CMSIS/Include\core_cm4.h ****   #if ( __CSMC__ & 0x400U)
 148:C:/Users/Utente/Desktop/Tesi/Firmware_Software/DAVE project/S2GLP_Pulsed_Doppler/Libraries/CMSIS/Include\core_cm4.h ****     #if defined (__FPU_PRESENT) && (__FPU_PRESENT == 1U)
 149:C:/Users/Utente/Desktop/Tesi/Firmware_Software/DAVE project/S2GLP_Pulsed_Doppler/Libraries/CMSIS/Include\core_cm4.h ****       #define __FPU_USED       1U
 150:C:/Users/Utente/Desktop/Tesi/Firmware_Software/DAVE project/S2GLP_Pulsed_Doppler/Libraries/CMSIS/Include\core_cm4.h ****     #else
 151:C:/Users/Utente/Desktop/Tesi/Firmware_Software/DAVE project/S2GLP_Pulsed_Doppler/Libraries/CMSIS/Include\core_cm4.h ****       #error "Compiler generates FPU instructions for a device without an FPU (check __FPU_PRESENT)
 152:C:/Users/Utente/Desktop/Tesi/Firmware_Software/DAVE project/S2GLP_Pulsed_Doppler/Libraries/CMSIS/Include\core_cm4.h ****       #define __FPU_USED       0U
 153:C:/Users/Utente/Desktop/Tesi/Firmware_Software/DAVE project/S2GLP_Pulsed_Doppler/Libraries/CMSIS/Include\core_cm4.h ****     #endif
 154:C:/Users/Utente/Desktop/Tesi/Firmware_Software/DAVE project/S2GLP_Pulsed_Doppler/Libraries/CMSIS/Include\core_cm4.h ****   #else
 155:C:/Users/Utente/Desktop/Tesi/Firmware_Software/DAVE project/S2GLP_Pulsed_Doppler/Libraries/CMSIS/Include\core_cm4.h ****     #define __FPU_USED         0U
 156:C:/Users/Utente/Desktop/Tesi/Firmware_Software/DAVE project/S2GLP_Pulsed_Doppler/Libraries/CMSIS/Include\core_cm4.h ****   #endif
 157:C:/Users/Utente/Desktop/Tesi/Firmware_Software/DAVE project/S2GLP_Pulsed_Doppler/Libraries/CMSIS/Include\core_cm4.h **** 
 158:C:/Users/Utente/Desktop/Tesi/Firmware_Software/DAVE project/S2GLP_Pulsed_Doppler/Libraries/CMSIS/Include\core_cm4.h **** #endif
 159:C:/Users/Utente/Desktop/Tesi/Firmware_Software/DAVE project/S2GLP_Pulsed_Doppler/Libraries/CMSIS/Include\core_cm4.h **** 
 160:C:/Users/Utente/Desktop/Tesi/Firmware_Software/DAVE project/S2GLP_Pulsed_Doppler/Libraries/CMSIS/Include\core_cm4.h **** #include "cmsis_compiler.h"               /* CMSIS compiler specific defines */
 161:C:/Users/Utente/Desktop/Tesi/Firmware_Software/DAVE project/S2GLP_Pulsed_Doppler/Libraries/CMSIS/Include\core_cm4.h **** 
 162:C:/Users/Utente/Desktop/Tesi/Firmware_Software/DAVE project/S2GLP_Pulsed_Doppler/Libraries/CMSIS/Include\core_cm4.h **** 
 163:C:/Users/Utente/Desktop/Tesi/Firmware_Software/DAVE project/S2GLP_Pulsed_Doppler/Libraries/CMSIS/Include\core_cm4.h **** #ifdef __cplusplus
 164:C:/Users/Utente/Desktop/Tesi/Firmware_Software/DAVE project/S2GLP_Pulsed_Doppler/Libraries/CMSIS/Include\core_cm4.h **** }
 165:C:/Users/Utente/Desktop/Tesi/Firmware_Software/DAVE project/S2GLP_Pulsed_Doppler/Libraries/CMSIS/Include\core_cm4.h **** #endif
 166:C:/Users/Utente/Desktop/Tesi/Firmware_Software/DAVE project/S2GLP_Pulsed_Doppler/Libraries/CMSIS/Include\core_cm4.h **** 
 167:C:/Users/Utente/Desktop/Tesi/Firmware_Software/DAVE project/S2GLP_Pulsed_Doppler/Libraries/CMSIS/Include\core_cm4.h **** #endif /* __CORE_CM4_H_GENERIC */
 168:C:/Users/Utente/Desktop/Tesi/Firmware_Software/DAVE project/S2GLP_Pulsed_Doppler/Libraries/CMSIS/Include\core_cm4.h **** 
 169:C:/Users/Utente/Desktop/Tesi/Firmware_Software/DAVE project/S2GLP_Pulsed_Doppler/Libraries/CMSIS/Include\core_cm4.h **** #ifndef __CMSIS_GENERIC
 170:C:/Users/Utente/Desktop/Tesi/Firmware_Software/DAVE project/S2GLP_Pulsed_Doppler/Libraries/CMSIS/Include\core_cm4.h **** 
 171:C:/Users/Utente/Desktop/Tesi/Firmware_Software/DAVE project/S2GLP_Pulsed_Doppler/Libraries/CMSIS/Include\core_cm4.h **** #ifndef __CORE_CM4_H_DEPENDANT
 172:C:/Users/Utente/Desktop/Tesi/Firmware_Software/DAVE project/S2GLP_Pulsed_Doppler/Libraries/CMSIS/Include\core_cm4.h **** #define __CORE_CM4_H_DEPENDANT
 173:C:/Users/Utente/Desktop/Tesi/Firmware_Software/DAVE project/S2GLP_Pulsed_Doppler/Libraries/CMSIS/Include\core_cm4.h **** 
 174:C:/Users/Utente/Desktop/Tesi/Firmware_Software/DAVE project/S2GLP_Pulsed_Doppler/Libraries/CMSIS/Include\core_cm4.h **** #ifdef __cplusplus
 175:C:/Users/Utente/Desktop/Tesi/Firmware_Software/DAVE project/S2GLP_Pulsed_Doppler/Libraries/CMSIS/Include\core_cm4.h ****  extern "C" {
 176:C:/Users/Utente/Desktop/Tesi/Firmware_Software/DAVE project/S2GLP_Pulsed_Doppler/Libraries/CMSIS/Include\core_cm4.h **** #endif
 177:C:/Users/Utente/Desktop/Tesi/Firmware_Software/DAVE project/S2GLP_Pulsed_Doppler/Libraries/CMSIS/Include\core_cm4.h **** 
 178:C:/Users/Utente/Desktop/Tesi/Firmware_Software/DAVE project/S2GLP_Pulsed_Doppler/Libraries/CMSIS/Include\core_cm4.h **** /* check device defines and use defaults */
 179:C:/Users/Utente/Desktop/Tesi/Firmware_Software/DAVE project/S2GLP_Pulsed_Doppler/Libraries/CMSIS/Include\core_cm4.h **** #if defined __CHECK_DEVICE_DEFINES
 180:C:/Users/Utente/Desktop/Tesi/Firmware_Software/DAVE project/S2GLP_Pulsed_Doppler/Libraries/CMSIS/Include\core_cm4.h ****   #ifndef __CM4_REV
 181:C:/Users/Utente/Desktop/Tesi/Firmware_Software/DAVE project/S2GLP_Pulsed_Doppler/Libraries/CMSIS/Include\core_cm4.h ****     #define __CM4_REV               0x0000U
 182:C:/Users/Utente/Desktop/Tesi/Firmware_Software/DAVE project/S2GLP_Pulsed_Doppler/Libraries/CMSIS/Include\core_cm4.h ****     #warning "__CM4_REV not defined in device header file; using default!"
 183:C:/Users/Utente/Desktop/Tesi/Firmware_Software/DAVE project/S2GLP_Pulsed_Doppler/Libraries/CMSIS/Include\core_cm4.h ****   #endif
 184:C:/Users/Utente/Desktop/Tesi/Firmware_Software/DAVE project/S2GLP_Pulsed_Doppler/Libraries/CMSIS/Include\core_cm4.h **** 
 185:C:/Users/Utente/Desktop/Tesi/Firmware_Software/DAVE project/S2GLP_Pulsed_Doppler/Libraries/CMSIS/Include\core_cm4.h ****   #ifndef __FPU_PRESENT
 186:C:/Users/Utente/Desktop/Tesi/Firmware_Software/DAVE project/S2GLP_Pulsed_Doppler/Libraries/CMSIS/Include\core_cm4.h ****     #define __FPU_PRESENT             0U
 187:C:/Users/Utente/Desktop/Tesi/Firmware_Software/DAVE project/S2GLP_Pulsed_Doppler/Libraries/CMSIS/Include\core_cm4.h ****     #warning "__FPU_PRESENT not defined in device header file; using default!"
 188:C:/Users/Utente/Desktop/Tesi/Firmware_Software/DAVE project/S2GLP_Pulsed_Doppler/Libraries/CMSIS/Include\core_cm4.h ****   #endif
 189:C:/Users/Utente/Desktop/Tesi/Firmware_Software/DAVE project/S2GLP_Pulsed_Doppler/Libraries/CMSIS/Include\core_cm4.h **** 
 190:C:/Users/Utente/Desktop/Tesi/Firmware_Software/DAVE project/S2GLP_Pulsed_Doppler/Libraries/CMSIS/Include\core_cm4.h ****   #ifndef __MPU_PRESENT
 191:C:/Users/Utente/Desktop/Tesi/Firmware_Software/DAVE project/S2GLP_Pulsed_Doppler/Libraries/CMSIS/Include\core_cm4.h ****     #define __MPU_PRESENT             0U
 192:C:/Users/Utente/Desktop/Tesi/Firmware_Software/DAVE project/S2GLP_Pulsed_Doppler/Libraries/CMSIS/Include\core_cm4.h ****     #warning "__MPU_PRESENT not defined in device header file; using default!"
 193:C:/Users/Utente/Desktop/Tesi/Firmware_Software/DAVE project/S2GLP_Pulsed_Doppler/Libraries/CMSIS/Include\core_cm4.h ****   #endif
 194:C:/Users/Utente/Desktop/Tesi/Firmware_Software/DAVE project/S2GLP_Pulsed_Doppler/Libraries/CMSIS/Include\core_cm4.h **** 
 195:C:/Users/Utente/Desktop/Tesi/Firmware_Software/DAVE project/S2GLP_Pulsed_Doppler/Libraries/CMSIS/Include\core_cm4.h ****   #ifndef __NVIC_PRIO_BITS
 196:C:/Users/Utente/Desktop/Tesi/Firmware_Software/DAVE project/S2GLP_Pulsed_Doppler/Libraries/CMSIS/Include\core_cm4.h ****     #define __NVIC_PRIO_BITS          3U
 197:C:/Users/Utente/Desktop/Tesi/Firmware_Software/DAVE project/S2GLP_Pulsed_Doppler/Libraries/CMSIS/Include\core_cm4.h ****     #warning "__NVIC_PRIO_BITS not defined in device header file; using default!"
 198:C:/Users/Utente/Desktop/Tesi/Firmware_Software/DAVE project/S2GLP_Pulsed_Doppler/Libraries/CMSIS/Include\core_cm4.h ****   #endif
 199:C:/Users/Utente/Desktop/Tesi/Firmware_Software/DAVE project/S2GLP_Pulsed_Doppler/Libraries/CMSIS/Include\core_cm4.h **** 
 200:C:/Users/Utente/Desktop/Tesi/Firmware_Software/DAVE project/S2GLP_Pulsed_Doppler/Libraries/CMSIS/Include\core_cm4.h ****   #ifndef __Vendor_SysTickConfig
 201:C:/Users/Utente/Desktop/Tesi/Firmware_Software/DAVE project/S2GLP_Pulsed_Doppler/Libraries/CMSIS/Include\core_cm4.h ****     #define __Vendor_SysTickConfig    0U
 202:C:/Users/Utente/Desktop/Tesi/Firmware_Software/DAVE project/S2GLP_Pulsed_Doppler/Libraries/CMSIS/Include\core_cm4.h ****     #warning "__Vendor_SysTickConfig not defined in device header file; using default!"
 203:C:/Users/Utente/Desktop/Tesi/Firmware_Software/DAVE project/S2GLP_Pulsed_Doppler/Libraries/CMSIS/Include\core_cm4.h ****   #endif
 204:C:/Users/Utente/Desktop/Tesi/Firmware_Software/DAVE project/S2GLP_Pulsed_Doppler/Libraries/CMSIS/Include\core_cm4.h **** #endif
 205:C:/Users/Utente/Desktop/Tesi/Firmware_Software/DAVE project/S2GLP_Pulsed_Doppler/Libraries/CMSIS/Include\core_cm4.h **** 
 206:C:/Users/Utente/Desktop/Tesi/Firmware_Software/DAVE project/S2GLP_Pulsed_Doppler/Libraries/CMSIS/Include\core_cm4.h **** /* IO definitions (access restrictions to peripheral registers) */
 207:C:/Users/Utente/Desktop/Tesi/Firmware_Software/DAVE project/S2GLP_Pulsed_Doppler/Libraries/CMSIS/Include\core_cm4.h **** /**
 208:C:/Users/Utente/Desktop/Tesi/Firmware_Software/DAVE project/S2GLP_Pulsed_Doppler/Libraries/CMSIS/Include\core_cm4.h ****     \defgroup CMSIS_glob_defs CMSIS Global Defines
 209:C:/Users/Utente/Desktop/Tesi/Firmware_Software/DAVE project/S2GLP_Pulsed_Doppler/Libraries/CMSIS/Include\core_cm4.h **** 
 210:C:/Users/Utente/Desktop/Tesi/Firmware_Software/DAVE project/S2GLP_Pulsed_Doppler/Libraries/CMSIS/Include\core_cm4.h ****     <strong>IO Type Qualifiers</strong> are used
 211:C:/Users/Utente/Desktop/Tesi/Firmware_Software/DAVE project/S2GLP_Pulsed_Doppler/Libraries/CMSIS/Include\core_cm4.h ****     \li to specify the access to peripheral variables.
 212:C:/Users/Utente/Desktop/Tesi/Firmware_Software/DAVE project/S2GLP_Pulsed_Doppler/Libraries/CMSIS/Include\core_cm4.h ****     \li for automatic generation of peripheral register debug information.
 213:C:/Users/Utente/Desktop/Tesi/Firmware_Software/DAVE project/S2GLP_Pulsed_Doppler/Libraries/CMSIS/Include\core_cm4.h **** */
 214:C:/Users/Utente/Desktop/Tesi/Firmware_Software/DAVE project/S2GLP_Pulsed_Doppler/Libraries/CMSIS/Include\core_cm4.h **** #ifdef __cplusplus
 215:C:/Users/Utente/Desktop/Tesi/Firmware_Software/DAVE project/S2GLP_Pulsed_Doppler/Libraries/CMSIS/Include\core_cm4.h ****   #define   __I     volatile             /*!< Defines 'read only' permissions */
 216:C:/Users/Utente/Desktop/Tesi/Firmware_Software/DAVE project/S2GLP_Pulsed_Doppler/Libraries/CMSIS/Include\core_cm4.h **** #else
 217:C:/Users/Utente/Desktop/Tesi/Firmware_Software/DAVE project/S2GLP_Pulsed_Doppler/Libraries/CMSIS/Include\core_cm4.h ****   #define   __I     volatile const       /*!< Defines 'read only' permissions */
 218:C:/Users/Utente/Desktop/Tesi/Firmware_Software/DAVE project/S2GLP_Pulsed_Doppler/Libraries/CMSIS/Include\core_cm4.h **** #endif
 219:C:/Users/Utente/Desktop/Tesi/Firmware_Software/DAVE project/S2GLP_Pulsed_Doppler/Libraries/CMSIS/Include\core_cm4.h **** #define     __O     volatile             /*!< Defines 'write only' permissions */
 220:C:/Users/Utente/Desktop/Tesi/Firmware_Software/DAVE project/S2GLP_Pulsed_Doppler/Libraries/CMSIS/Include\core_cm4.h **** #define     __IO    volatile             /*!< Defines 'read / write' permissions */
 221:C:/Users/Utente/Desktop/Tesi/Firmware_Software/DAVE project/S2GLP_Pulsed_Doppler/Libraries/CMSIS/Include\core_cm4.h **** 
 222:C:/Users/Utente/Desktop/Tesi/Firmware_Software/DAVE project/S2GLP_Pulsed_Doppler/Libraries/CMSIS/Include\core_cm4.h **** /* following defines should be used for structure members */
 223:C:/Users/Utente/Desktop/Tesi/Firmware_Software/DAVE project/S2GLP_Pulsed_Doppler/Libraries/CMSIS/Include\core_cm4.h **** #define     __IM     volatile const      /*! Defines 'read only' structure member permissions */
 224:C:/Users/Utente/Desktop/Tesi/Firmware_Software/DAVE project/S2GLP_Pulsed_Doppler/Libraries/CMSIS/Include\core_cm4.h **** #define     __OM     volatile            /*! Defines 'write only' structure member permissions */
 225:C:/Users/Utente/Desktop/Tesi/Firmware_Software/DAVE project/S2GLP_Pulsed_Doppler/Libraries/CMSIS/Include\core_cm4.h **** #define     __IOM    volatile            /*! Defines 'read / write' structure member permissions */
 226:C:/Users/Utente/Desktop/Tesi/Firmware_Software/DAVE project/S2GLP_Pulsed_Doppler/Libraries/CMSIS/Include\core_cm4.h **** 
 227:C:/Users/Utente/Desktop/Tesi/Firmware_Software/DAVE project/S2GLP_Pulsed_Doppler/Libraries/CMSIS/Include\core_cm4.h **** /*@} end of group Cortex_M4 */
 228:C:/Users/Utente/Desktop/Tesi/Firmware_Software/DAVE project/S2GLP_Pulsed_Doppler/Libraries/CMSIS/Include\core_cm4.h **** 
 229:C:/Users/Utente/Desktop/Tesi/Firmware_Software/DAVE project/S2GLP_Pulsed_Doppler/Libraries/CMSIS/Include\core_cm4.h **** 
 230:C:/Users/Utente/Desktop/Tesi/Firmware_Software/DAVE project/S2GLP_Pulsed_Doppler/Libraries/CMSIS/Include\core_cm4.h **** 
 231:C:/Users/Utente/Desktop/Tesi/Firmware_Software/DAVE project/S2GLP_Pulsed_Doppler/Libraries/CMSIS/Include\core_cm4.h **** /*******************************************************************************
 232:C:/Users/Utente/Desktop/Tesi/Firmware_Software/DAVE project/S2GLP_Pulsed_Doppler/Libraries/CMSIS/Include\core_cm4.h ****  *                 Register Abstraction
 233:C:/Users/Utente/Desktop/Tesi/Firmware_Software/DAVE project/S2GLP_Pulsed_Doppler/Libraries/CMSIS/Include\core_cm4.h ****   Core Register contain:
 234:C:/Users/Utente/Desktop/Tesi/Firmware_Software/DAVE project/S2GLP_Pulsed_Doppler/Libraries/CMSIS/Include\core_cm4.h ****   - Core Register
 235:C:/Users/Utente/Desktop/Tesi/Firmware_Software/DAVE project/S2GLP_Pulsed_Doppler/Libraries/CMSIS/Include\core_cm4.h ****   - Core NVIC Register
 236:C:/Users/Utente/Desktop/Tesi/Firmware_Software/DAVE project/S2GLP_Pulsed_Doppler/Libraries/CMSIS/Include\core_cm4.h ****   - Core SCB Register
 237:C:/Users/Utente/Desktop/Tesi/Firmware_Software/DAVE project/S2GLP_Pulsed_Doppler/Libraries/CMSIS/Include\core_cm4.h ****   - Core SysTick Register
 238:C:/Users/Utente/Desktop/Tesi/Firmware_Software/DAVE project/S2GLP_Pulsed_Doppler/Libraries/CMSIS/Include\core_cm4.h ****   - Core Debug Register
 239:C:/Users/Utente/Desktop/Tesi/Firmware_Software/DAVE project/S2GLP_Pulsed_Doppler/Libraries/CMSIS/Include\core_cm4.h ****   - Core MPU Register
 240:C:/Users/Utente/Desktop/Tesi/Firmware_Software/DAVE project/S2GLP_Pulsed_Doppler/Libraries/CMSIS/Include\core_cm4.h ****   - Core FPU Register
 241:C:/Users/Utente/Desktop/Tesi/Firmware_Software/DAVE project/S2GLP_Pulsed_Doppler/Libraries/CMSIS/Include\core_cm4.h ****  ******************************************************************************/
 242:C:/Users/Utente/Desktop/Tesi/Firmware_Software/DAVE project/S2GLP_Pulsed_Doppler/Libraries/CMSIS/Include\core_cm4.h **** /**
 243:C:/Users/Utente/Desktop/Tesi/Firmware_Software/DAVE project/S2GLP_Pulsed_Doppler/Libraries/CMSIS/Include\core_cm4.h ****   \defgroup CMSIS_core_register Defines and Type Definitions
 244:C:/Users/Utente/Desktop/Tesi/Firmware_Software/DAVE project/S2GLP_Pulsed_Doppler/Libraries/CMSIS/Include\core_cm4.h ****   \brief Type definitions and defines for Cortex-M processor based devices.
 245:C:/Users/Utente/Desktop/Tesi/Firmware_Software/DAVE project/S2GLP_Pulsed_Doppler/Libraries/CMSIS/Include\core_cm4.h **** */
 246:C:/Users/Utente/Desktop/Tesi/Firmware_Software/DAVE project/S2GLP_Pulsed_Doppler/Libraries/CMSIS/Include\core_cm4.h **** 
 247:C:/Users/Utente/Desktop/Tesi/Firmware_Software/DAVE project/S2GLP_Pulsed_Doppler/Libraries/CMSIS/Include\core_cm4.h **** /**
 248:C:/Users/Utente/Desktop/Tesi/Firmware_Software/DAVE project/S2GLP_Pulsed_Doppler/Libraries/CMSIS/Include\core_cm4.h ****   \ingroup    CMSIS_core_register
 249:C:/Users/Utente/Desktop/Tesi/Firmware_Software/DAVE project/S2GLP_Pulsed_Doppler/Libraries/CMSIS/Include\core_cm4.h ****   \defgroup   CMSIS_CORE  Status and Control Registers
 250:C:/Users/Utente/Desktop/Tesi/Firmware_Software/DAVE project/S2GLP_Pulsed_Doppler/Libraries/CMSIS/Include\core_cm4.h ****   \brief      Core Register type definitions.
 251:C:/Users/Utente/Desktop/Tesi/Firmware_Software/DAVE project/S2GLP_Pulsed_Doppler/Libraries/CMSIS/Include\core_cm4.h ****   @{
 252:C:/Users/Utente/Desktop/Tesi/Firmware_Software/DAVE project/S2GLP_Pulsed_Doppler/Libraries/CMSIS/Include\core_cm4.h ****  */
 253:C:/Users/Utente/Desktop/Tesi/Firmware_Software/DAVE project/S2GLP_Pulsed_Doppler/Libraries/CMSIS/Include\core_cm4.h **** 
 254:C:/Users/Utente/Desktop/Tesi/Firmware_Software/DAVE project/S2GLP_Pulsed_Doppler/Libraries/CMSIS/Include\core_cm4.h **** /**
 255:C:/Users/Utente/Desktop/Tesi/Firmware_Software/DAVE project/S2GLP_Pulsed_Doppler/Libraries/CMSIS/Include\core_cm4.h ****   \brief  Union type to access the Application Program Status Register (APSR).
 256:C:/Users/Utente/Desktop/Tesi/Firmware_Software/DAVE project/S2GLP_Pulsed_Doppler/Libraries/CMSIS/Include\core_cm4.h ****  */
 257:C:/Users/Utente/Desktop/Tesi/Firmware_Software/DAVE project/S2GLP_Pulsed_Doppler/Libraries/CMSIS/Include\core_cm4.h **** typedef union
 258:C:/Users/Utente/Desktop/Tesi/Firmware_Software/DAVE project/S2GLP_Pulsed_Doppler/Libraries/CMSIS/Include\core_cm4.h **** {
 259:C:/Users/Utente/Desktop/Tesi/Firmware_Software/DAVE project/S2GLP_Pulsed_Doppler/Libraries/CMSIS/Include\core_cm4.h ****   struct
 260:C:/Users/Utente/Desktop/Tesi/Firmware_Software/DAVE project/S2GLP_Pulsed_Doppler/Libraries/CMSIS/Include\core_cm4.h ****   {
 261:C:/Users/Utente/Desktop/Tesi/Firmware_Software/DAVE project/S2GLP_Pulsed_Doppler/Libraries/CMSIS/Include\core_cm4.h ****     uint32_t _reserved0:16;              /*!< bit:  0..15  Reserved */
 262:C:/Users/Utente/Desktop/Tesi/Firmware_Software/DAVE project/S2GLP_Pulsed_Doppler/Libraries/CMSIS/Include\core_cm4.h ****     uint32_t GE:4;                       /*!< bit: 16..19  Greater than or Equal flags */
 263:C:/Users/Utente/Desktop/Tesi/Firmware_Software/DAVE project/S2GLP_Pulsed_Doppler/Libraries/CMSIS/Include\core_cm4.h ****     uint32_t _reserved1:7;               /*!< bit: 20..26  Reserved */
 264:C:/Users/Utente/Desktop/Tesi/Firmware_Software/DAVE project/S2GLP_Pulsed_Doppler/Libraries/CMSIS/Include\core_cm4.h ****     uint32_t Q:1;                        /*!< bit:     27  Saturation condition flag */
 265:C:/Users/Utente/Desktop/Tesi/Firmware_Software/DAVE project/S2GLP_Pulsed_Doppler/Libraries/CMSIS/Include\core_cm4.h ****     uint32_t V:1;                        /*!< bit:     28  Overflow condition code flag */
 266:C:/Users/Utente/Desktop/Tesi/Firmware_Software/DAVE project/S2GLP_Pulsed_Doppler/Libraries/CMSIS/Include\core_cm4.h ****     uint32_t C:1;                        /*!< bit:     29  Carry condition code flag */
 267:C:/Users/Utente/Desktop/Tesi/Firmware_Software/DAVE project/S2GLP_Pulsed_Doppler/Libraries/CMSIS/Include\core_cm4.h ****     uint32_t Z:1;                        /*!< bit:     30  Zero condition code flag */
 268:C:/Users/Utente/Desktop/Tesi/Firmware_Software/DAVE project/S2GLP_Pulsed_Doppler/Libraries/CMSIS/Include\core_cm4.h ****     uint32_t N:1;                        /*!< bit:     31  Negative condition code flag */
 269:C:/Users/Utente/Desktop/Tesi/Firmware_Software/DAVE project/S2GLP_Pulsed_Doppler/Libraries/CMSIS/Include\core_cm4.h ****   } b;                                   /*!< Structure used for bit  access */
 270:C:/Users/Utente/Desktop/Tesi/Firmware_Software/DAVE project/S2GLP_Pulsed_Doppler/Libraries/CMSIS/Include\core_cm4.h ****   uint32_t w;                            /*!< Type      used for word access */
 271:C:/Users/Utente/Desktop/Tesi/Firmware_Software/DAVE project/S2GLP_Pulsed_Doppler/Libraries/CMSIS/Include\core_cm4.h **** } APSR_Type;
 272:C:/Users/Utente/Desktop/Tesi/Firmware_Software/DAVE project/S2GLP_Pulsed_Doppler/Libraries/CMSIS/Include\core_cm4.h **** 
 273:C:/Users/Utente/Desktop/Tesi/Firmware_Software/DAVE project/S2GLP_Pulsed_Doppler/Libraries/CMSIS/Include\core_cm4.h **** /* APSR Register Definitions */
 274:C:/Users/Utente/Desktop/Tesi/Firmware_Software/DAVE project/S2GLP_Pulsed_Doppler/Libraries/CMSIS/Include\core_cm4.h **** #define APSR_N_Pos                         31U                                            /*!< APSR
 275:C:/Users/Utente/Desktop/Tesi/Firmware_Software/DAVE project/S2GLP_Pulsed_Doppler/Libraries/CMSIS/Include\core_cm4.h **** #define APSR_N_Msk                         (1UL << APSR_N_Pos)                            /*!< APSR
 276:C:/Users/Utente/Desktop/Tesi/Firmware_Software/DAVE project/S2GLP_Pulsed_Doppler/Libraries/CMSIS/Include\core_cm4.h **** 
 277:C:/Users/Utente/Desktop/Tesi/Firmware_Software/DAVE project/S2GLP_Pulsed_Doppler/Libraries/CMSIS/Include\core_cm4.h **** #define APSR_Z_Pos                         30U                                            /*!< APSR
 278:C:/Users/Utente/Desktop/Tesi/Firmware_Software/DAVE project/S2GLP_Pulsed_Doppler/Libraries/CMSIS/Include\core_cm4.h **** #define APSR_Z_Msk                         (1UL << APSR_Z_Pos)                            /*!< APSR
 279:C:/Users/Utente/Desktop/Tesi/Firmware_Software/DAVE project/S2GLP_Pulsed_Doppler/Libraries/CMSIS/Include\core_cm4.h **** 
 280:C:/Users/Utente/Desktop/Tesi/Firmware_Software/DAVE project/S2GLP_Pulsed_Doppler/Libraries/CMSIS/Include\core_cm4.h **** #define APSR_C_Pos                         29U                                            /*!< APSR
 281:C:/Users/Utente/Desktop/Tesi/Firmware_Software/DAVE project/S2GLP_Pulsed_Doppler/Libraries/CMSIS/Include\core_cm4.h **** #define APSR_C_Msk                         (1UL << APSR_C_Pos)                            /*!< APSR
 282:C:/Users/Utente/Desktop/Tesi/Firmware_Software/DAVE project/S2GLP_Pulsed_Doppler/Libraries/CMSIS/Include\core_cm4.h **** 
 283:C:/Users/Utente/Desktop/Tesi/Firmware_Software/DAVE project/S2GLP_Pulsed_Doppler/Libraries/CMSIS/Include\core_cm4.h **** #define APSR_V_Pos                         28U                                            /*!< APSR
 284:C:/Users/Utente/Desktop/Tesi/Firmware_Software/DAVE project/S2GLP_Pulsed_Doppler/Libraries/CMSIS/Include\core_cm4.h **** #define APSR_V_Msk                         (1UL << APSR_V_Pos)                            /*!< APSR
 285:C:/Users/Utente/Desktop/Tesi/Firmware_Software/DAVE project/S2GLP_Pulsed_Doppler/Libraries/CMSIS/Include\core_cm4.h **** 
 286:C:/Users/Utente/Desktop/Tesi/Firmware_Software/DAVE project/S2GLP_Pulsed_Doppler/Libraries/CMSIS/Include\core_cm4.h **** #define APSR_Q_Pos                         27U                                            /*!< APSR
 287:C:/Users/Utente/Desktop/Tesi/Firmware_Software/DAVE project/S2GLP_Pulsed_Doppler/Libraries/CMSIS/Include\core_cm4.h **** #define APSR_Q_Msk                         (1UL << APSR_Q_Pos)                            /*!< APSR
 288:C:/Users/Utente/Desktop/Tesi/Firmware_Software/DAVE project/S2GLP_Pulsed_Doppler/Libraries/CMSIS/Include\core_cm4.h **** 
 289:C:/Users/Utente/Desktop/Tesi/Firmware_Software/DAVE project/S2GLP_Pulsed_Doppler/Libraries/CMSIS/Include\core_cm4.h **** #define APSR_GE_Pos                        16U                                            /*!< APSR
 290:C:/Users/Utente/Desktop/Tesi/Firmware_Software/DAVE project/S2GLP_Pulsed_Doppler/Libraries/CMSIS/Include\core_cm4.h **** #define APSR_GE_Msk                        (0xFUL << APSR_GE_Pos)                         /*!< APSR
 291:C:/Users/Utente/Desktop/Tesi/Firmware_Software/DAVE project/S2GLP_Pulsed_Doppler/Libraries/CMSIS/Include\core_cm4.h **** 
 292:C:/Users/Utente/Desktop/Tesi/Firmware_Software/DAVE project/S2GLP_Pulsed_Doppler/Libraries/CMSIS/Include\core_cm4.h **** 
 293:C:/Users/Utente/Desktop/Tesi/Firmware_Software/DAVE project/S2GLP_Pulsed_Doppler/Libraries/CMSIS/Include\core_cm4.h **** /**
 294:C:/Users/Utente/Desktop/Tesi/Firmware_Software/DAVE project/S2GLP_Pulsed_Doppler/Libraries/CMSIS/Include\core_cm4.h ****   \brief  Union type to access the Interrupt Program Status Register (IPSR).
 295:C:/Users/Utente/Desktop/Tesi/Firmware_Software/DAVE project/S2GLP_Pulsed_Doppler/Libraries/CMSIS/Include\core_cm4.h ****  */
 296:C:/Users/Utente/Desktop/Tesi/Firmware_Software/DAVE project/S2GLP_Pulsed_Doppler/Libraries/CMSIS/Include\core_cm4.h **** typedef union
 297:C:/Users/Utente/Desktop/Tesi/Firmware_Software/DAVE project/S2GLP_Pulsed_Doppler/Libraries/CMSIS/Include\core_cm4.h **** {
 298:C:/Users/Utente/Desktop/Tesi/Firmware_Software/DAVE project/S2GLP_Pulsed_Doppler/Libraries/CMSIS/Include\core_cm4.h ****   struct
 299:C:/Users/Utente/Desktop/Tesi/Firmware_Software/DAVE project/S2GLP_Pulsed_Doppler/Libraries/CMSIS/Include\core_cm4.h ****   {
 300:C:/Users/Utente/Desktop/Tesi/Firmware_Software/DAVE project/S2GLP_Pulsed_Doppler/Libraries/CMSIS/Include\core_cm4.h ****     uint32_t ISR:9;                      /*!< bit:  0.. 8  Exception number */
 301:C:/Users/Utente/Desktop/Tesi/Firmware_Software/DAVE project/S2GLP_Pulsed_Doppler/Libraries/CMSIS/Include\core_cm4.h ****     uint32_t _reserved0:23;              /*!< bit:  9..31  Reserved */
 302:C:/Users/Utente/Desktop/Tesi/Firmware_Software/DAVE project/S2GLP_Pulsed_Doppler/Libraries/CMSIS/Include\core_cm4.h ****   } b;                                   /*!< Structure used for bit  access */
 303:C:/Users/Utente/Desktop/Tesi/Firmware_Software/DAVE project/S2GLP_Pulsed_Doppler/Libraries/CMSIS/Include\core_cm4.h ****   uint32_t w;                            /*!< Type      used for word access */
 304:C:/Users/Utente/Desktop/Tesi/Firmware_Software/DAVE project/S2GLP_Pulsed_Doppler/Libraries/CMSIS/Include\core_cm4.h **** } IPSR_Type;
 305:C:/Users/Utente/Desktop/Tesi/Firmware_Software/DAVE project/S2GLP_Pulsed_Doppler/Libraries/CMSIS/Include\core_cm4.h **** 
 306:C:/Users/Utente/Desktop/Tesi/Firmware_Software/DAVE project/S2GLP_Pulsed_Doppler/Libraries/CMSIS/Include\core_cm4.h **** /* IPSR Register Definitions */
 307:C:/Users/Utente/Desktop/Tesi/Firmware_Software/DAVE project/S2GLP_Pulsed_Doppler/Libraries/CMSIS/Include\core_cm4.h **** #define IPSR_ISR_Pos                        0U                                            /*!< IPSR
 308:C:/Users/Utente/Desktop/Tesi/Firmware_Software/DAVE project/S2GLP_Pulsed_Doppler/Libraries/CMSIS/Include\core_cm4.h **** #define IPSR_ISR_Msk                       (0x1FFUL /*<< IPSR_ISR_Pos*/)                  /*!< IPSR
 309:C:/Users/Utente/Desktop/Tesi/Firmware_Software/DAVE project/S2GLP_Pulsed_Doppler/Libraries/CMSIS/Include\core_cm4.h **** 
 310:C:/Users/Utente/Desktop/Tesi/Firmware_Software/DAVE project/S2GLP_Pulsed_Doppler/Libraries/CMSIS/Include\core_cm4.h **** 
 311:C:/Users/Utente/Desktop/Tesi/Firmware_Software/DAVE project/S2GLP_Pulsed_Doppler/Libraries/CMSIS/Include\core_cm4.h **** /**
 312:C:/Users/Utente/Desktop/Tesi/Firmware_Software/DAVE project/S2GLP_Pulsed_Doppler/Libraries/CMSIS/Include\core_cm4.h ****   \brief  Union type to access the Special-Purpose Program Status Registers (xPSR).
 313:C:/Users/Utente/Desktop/Tesi/Firmware_Software/DAVE project/S2GLP_Pulsed_Doppler/Libraries/CMSIS/Include\core_cm4.h ****  */
 314:C:/Users/Utente/Desktop/Tesi/Firmware_Software/DAVE project/S2GLP_Pulsed_Doppler/Libraries/CMSIS/Include\core_cm4.h **** typedef union
 315:C:/Users/Utente/Desktop/Tesi/Firmware_Software/DAVE project/S2GLP_Pulsed_Doppler/Libraries/CMSIS/Include\core_cm4.h **** {
 316:C:/Users/Utente/Desktop/Tesi/Firmware_Software/DAVE project/S2GLP_Pulsed_Doppler/Libraries/CMSIS/Include\core_cm4.h ****   struct
 317:C:/Users/Utente/Desktop/Tesi/Firmware_Software/DAVE project/S2GLP_Pulsed_Doppler/Libraries/CMSIS/Include\core_cm4.h ****   {
 318:C:/Users/Utente/Desktop/Tesi/Firmware_Software/DAVE project/S2GLP_Pulsed_Doppler/Libraries/CMSIS/Include\core_cm4.h ****     uint32_t ISR:9;                      /*!< bit:  0.. 8  Exception number */
 319:C:/Users/Utente/Desktop/Tesi/Firmware_Software/DAVE project/S2GLP_Pulsed_Doppler/Libraries/CMSIS/Include\core_cm4.h ****     uint32_t _reserved0:1;               /*!< bit:      9  Reserved */
 320:C:/Users/Utente/Desktop/Tesi/Firmware_Software/DAVE project/S2GLP_Pulsed_Doppler/Libraries/CMSIS/Include\core_cm4.h ****     uint32_t ICI_IT_1:6;                 /*!< bit: 10..15  ICI/IT part 1 */
 321:C:/Users/Utente/Desktop/Tesi/Firmware_Software/DAVE project/S2GLP_Pulsed_Doppler/Libraries/CMSIS/Include\core_cm4.h ****     uint32_t GE:4;                       /*!< bit: 16..19  Greater than or Equal flags */
 322:C:/Users/Utente/Desktop/Tesi/Firmware_Software/DAVE project/S2GLP_Pulsed_Doppler/Libraries/CMSIS/Include\core_cm4.h ****     uint32_t _reserved1:4;               /*!< bit: 20..23  Reserved */
 323:C:/Users/Utente/Desktop/Tesi/Firmware_Software/DAVE project/S2GLP_Pulsed_Doppler/Libraries/CMSIS/Include\core_cm4.h ****     uint32_t T:1;                        /*!< bit:     24  Thumb bit */
 324:C:/Users/Utente/Desktop/Tesi/Firmware_Software/DAVE project/S2GLP_Pulsed_Doppler/Libraries/CMSIS/Include\core_cm4.h ****     uint32_t ICI_IT_2:2;                 /*!< bit: 25..26  ICI/IT part 2 */
 325:C:/Users/Utente/Desktop/Tesi/Firmware_Software/DAVE project/S2GLP_Pulsed_Doppler/Libraries/CMSIS/Include\core_cm4.h ****     uint32_t Q:1;                        /*!< bit:     27  Saturation condition flag */
 326:C:/Users/Utente/Desktop/Tesi/Firmware_Software/DAVE project/S2GLP_Pulsed_Doppler/Libraries/CMSIS/Include\core_cm4.h ****     uint32_t V:1;                        /*!< bit:     28  Overflow condition code flag */
 327:C:/Users/Utente/Desktop/Tesi/Firmware_Software/DAVE project/S2GLP_Pulsed_Doppler/Libraries/CMSIS/Include\core_cm4.h ****     uint32_t C:1;                        /*!< bit:     29  Carry condition code flag */
 328:C:/Users/Utente/Desktop/Tesi/Firmware_Software/DAVE project/S2GLP_Pulsed_Doppler/Libraries/CMSIS/Include\core_cm4.h ****     uint32_t Z:1;                        /*!< bit:     30  Zero condition code flag */
 329:C:/Users/Utente/Desktop/Tesi/Firmware_Software/DAVE project/S2GLP_Pulsed_Doppler/Libraries/CMSIS/Include\core_cm4.h ****     uint32_t N:1;                        /*!< bit:     31  Negative condition code flag */
 330:C:/Users/Utente/Desktop/Tesi/Firmware_Software/DAVE project/S2GLP_Pulsed_Doppler/Libraries/CMSIS/Include\core_cm4.h ****   } b;                                   /*!< Structure used for bit  access */
 331:C:/Users/Utente/Desktop/Tesi/Firmware_Software/DAVE project/S2GLP_Pulsed_Doppler/Libraries/CMSIS/Include\core_cm4.h ****   uint32_t w;                            /*!< Type      used for word access */
 332:C:/Users/Utente/Desktop/Tesi/Firmware_Software/DAVE project/S2GLP_Pulsed_Doppler/Libraries/CMSIS/Include\core_cm4.h **** } xPSR_Type;
 333:C:/Users/Utente/Desktop/Tesi/Firmware_Software/DAVE project/S2GLP_Pulsed_Doppler/Libraries/CMSIS/Include\core_cm4.h **** 
 334:C:/Users/Utente/Desktop/Tesi/Firmware_Software/DAVE project/S2GLP_Pulsed_Doppler/Libraries/CMSIS/Include\core_cm4.h **** /* xPSR Register Definitions */
 335:C:/Users/Utente/Desktop/Tesi/Firmware_Software/DAVE project/S2GLP_Pulsed_Doppler/Libraries/CMSIS/Include\core_cm4.h **** #define xPSR_N_Pos                         31U                                            /*!< xPSR
 336:C:/Users/Utente/Desktop/Tesi/Firmware_Software/DAVE project/S2GLP_Pulsed_Doppler/Libraries/CMSIS/Include\core_cm4.h **** #define xPSR_N_Msk                         (1UL << xPSR_N_Pos)                            /*!< xPSR
 337:C:/Users/Utente/Desktop/Tesi/Firmware_Software/DAVE project/S2GLP_Pulsed_Doppler/Libraries/CMSIS/Include\core_cm4.h **** 
 338:C:/Users/Utente/Desktop/Tesi/Firmware_Software/DAVE project/S2GLP_Pulsed_Doppler/Libraries/CMSIS/Include\core_cm4.h **** #define xPSR_Z_Pos                         30U                                            /*!< xPSR
 339:C:/Users/Utente/Desktop/Tesi/Firmware_Software/DAVE project/S2GLP_Pulsed_Doppler/Libraries/CMSIS/Include\core_cm4.h **** #define xPSR_Z_Msk                         (1UL << xPSR_Z_Pos)                            /*!< xPSR
 340:C:/Users/Utente/Desktop/Tesi/Firmware_Software/DAVE project/S2GLP_Pulsed_Doppler/Libraries/CMSIS/Include\core_cm4.h **** 
 341:C:/Users/Utente/Desktop/Tesi/Firmware_Software/DAVE project/S2GLP_Pulsed_Doppler/Libraries/CMSIS/Include\core_cm4.h **** #define xPSR_C_Pos                         29U                                            /*!< xPSR
 342:C:/Users/Utente/Desktop/Tesi/Firmware_Software/DAVE project/S2GLP_Pulsed_Doppler/Libraries/CMSIS/Include\core_cm4.h **** #define xPSR_C_Msk                         (1UL << xPSR_C_Pos)                            /*!< xPSR
 343:C:/Users/Utente/Desktop/Tesi/Firmware_Software/DAVE project/S2GLP_Pulsed_Doppler/Libraries/CMSIS/Include\core_cm4.h **** 
 344:C:/Users/Utente/Desktop/Tesi/Firmware_Software/DAVE project/S2GLP_Pulsed_Doppler/Libraries/CMSIS/Include\core_cm4.h **** #define xPSR_V_Pos                         28U                                            /*!< xPSR
 345:C:/Users/Utente/Desktop/Tesi/Firmware_Software/DAVE project/S2GLP_Pulsed_Doppler/Libraries/CMSIS/Include\core_cm4.h **** #define xPSR_V_Msk                         (1UL << xPSR_V_Pos)                            /*!< xPSR
 346:C:/Users/Utente/Desktop/Tesi/Firmware_Software/DAVE project/S2GLP_Pulsed_Doppler/Libraries/CMSIS/Include\core_cm4.h **** 
 347:C:/Users/Utente/Desktop/Tesi/Firmware_Software/DAVE project/S2GLP_Pulsed_Doppler/Libraries/CMSIS/Include\core_cm4.h **** #define xPSR_Q_Pos                         27U                                            /*!< xPSR
 348:C:/Users/Utente/Desktop/Tesi/Firmware_Software/DAVE project/S2GLP_Pulsed_Doppler/Libraries/CMSIS/Include\core_cm4.h **** #define xPSR_Q_Msk                         (1UL << xPSR_Q_Pos)                            /*!< xPSR
 349:C:/Users/Utente/Desktop/Tesi/Firmware_Software/DAVE project/S2GLP_Pulsed_Doppler/Libraries/CMSIS/Include\core_cm4.h **** 
 350:C:/Users/Utente/Desktop/Tesi/Firmware_Software/DAVE project/S2GLP_Pulsed_Doppler/Libraries/CMSIS/Include\core_cm4.h **** #define xPSR_ICI_IT_2_Pos                  25U                                            /*!< xPSR
 351:C:/Users/Utente/Desktop/Tesi/Firmware_Software/DAVE project/S2GLP_Pulsed_Doppler/Libraries/CMSIS/Include\core_cm4.h **** #define xPSR_ICI_IT_2_Msk                  (3UL << xPSR_ICI_IT_2_Pos)                     /*!< xPSR
 352:C:/Users/Utente/Desktop/Tesi/Firmware_Software/DAVE project/S2GLP_Pulsed_Doppler/Libraries/CMSIS/Include\core_cm4.h **** 
 353:C:/Users/Utente/Desktop/Tesi/Firmware_Software/DAVE project/S2GLP_Pulsed_Doppler/Libraries/CMSIS/Include\core_cm4.h **** #define xPSR_T_Pos                         24U                                            /*!< xPSR
 354:C:/Users/Utente/Desktop/Tesi/Firmware_Software/DAVE project/S2GLP_Pulsed_Doppler/Libraries/CMSIS/Include\core_cm4.h **** #define xPSR_T_Msk                         (1UL << xPSR_T_Pos)                            /*!< xPSR
 355:C:/Users/Utente/Desktop/Tesi/Firmware_Software/DAVE project/S2GLP_Pulsed_Doppler/Libraries/CMSIS/Include\core_cm4.h **** 
 356:C:/Users/Utente/Desktop/Tesi/Firmware_Software/DAVE project/S2GLP_Pulsed_Doppler/Libraries/CMSIS/Include\core_cm4.h **** #define xPSR_GE_Pos                        16U                                            /*!< xPSR
 357:C:/Users/Utente/Desktop/Tesi/Firmware_Software/DAVE project/S2GLP_Pulsed_Doppler/Libraries/CMSIS/Include\core_cm4.h **** #define xPSR_GE_Msk                        (0xFUL << xPSR_GE_Pos)                         /*!< xPSR
 358:C:/Users/Utente/Desktop/Tesi/Firmware_Software/DAVE project/S2GLP_Pulsed_Doppler/Libraries/CMSIS/Include\core_cm4.h **** 
 359:C:/Users/Utente/Desktop/Tesi/Firmware_Software/DAVE project/S2GLP_Pulsed_Doppler/Libraries/CMSIS/Include\core_cm4.h **** #define xPSR_ICI_IT_1_Pos                  10U                                            /*!< xPSR
 360:C:/Users/Utente/Desktop/Tesi/Firmware_Software/DAVE project/S2GLP_Pulsed_Doppler/Libraries/CMSIS/Include\core_cm4.h **** #define xPSR_ICI_IT_1_Msk                  (0x3FUL << xPSR_ICI_IT_1_Pos)                  /*!< xPSR
 361:C:/Users/Utente/Desktop/Tesi/Firmware_Software/DAVE project/S2GLP_Pulsed_Doppler/Libraries/CMSIS/Include\core_cm4.h **** 
 362:C:/Users/Utente/Desktop/Tesi/Firmware_Software/DAVE project/S2GLP_Pulsed_Doppler/Libraries/CMSIS/Include\core_cm4.h **** #define xPSR_ISR_Pos                        0U                                            /*!< xPSR
 363:C:/Users/Utente/Desktop/Tesi/Firmware_Software/DAVE project/S2GLP_Pulsed_Doppler/Libraries/CMSIS/Include\core_cm4.h **** #define xPSR_ISR_Msk                       (0x1FFUL /*<< xPSR_ISR_Pos*/)                  /*!< xPSR
 364:C:/Users/Utente/Desktop/Tesi/Firmware_Software/DAVE project/S2GLP_Pulsed_Doppler/Libraries/CMSIS/Include\core_cm4.h **** 
 365:C:/Users/Utente/Desktop/Tesi/Firmware_Software/DAVE project/S2GLP_Pulsed_Doppler/Libraries/CMSIS/Include\core_cm4.h **** 
 366:C:/Users/Utente/Desktop/Tesi/Firmware_Software/DAVE project/S2GLP_Pulsed_Doppler/Libraries/CMSIS/Include\core_cm4.h **** /**
 367:C:/Users/Utente/Desktop/Tesi/Firmware_Software/DAVE project/S2GLP_Pulsed_Doppler/Libraries/CMSIS/Include\core_cm4.h ****   \brief  Union type to access the Control Registers (CONTROL).
 368:C:/Users/Utente/Desktop/Tesi/Firmware_Software/DAVE project/S2GLP_Pulsed_Doppler/Libraries/CMSIS/Include\core_cm4.h ****  */
 369:C:/Users/Utente/Desktop/Tesi/Firmware_Software/DAVE project/S2GLP_Pulsed_Doppler/Libraries/CMSIS/Include\core_cm4.h **** typedef union
 370:C:/Users/Utente/Desktop/Tesi/Firmware_Software/DAVE project/S2GLP_Pulsed_Doppler/Libraries/CMSIS/Include\core_cm4.h **** {
 371:C:/Users/Utente/Desktop/Tesi/Firmware_Software/DAVE project/S2GLP_Pulsed_Doppler/Libraries/CMSIS/Include\core_cm4.h ****   struct
 372:C:/Users/Utente/Desktop/Tesi/Firmware_Software/DAVE project/S2GLP_Pulsed_Doppler/Libraries/CMSIS/Include\core_cm4.h ****   {
 373:C:/Users/Utente/Desktop/Tesi/Firmware_Software/DAVE project/S2GLP_Pulsed_Doppler/Libraries/CMSIS/Include\core_cm4.h ****     uint32_t nPRIV:1;                    /*!< bit:      0  Execution privilege in Thread mode */
 374:C:/Users/Utente/Desktop/Tesi/Firmware_Software/DAVE project/S2GLP_Pulsed_Doppler/Libraries/CMSIS/Include\core_cm4.h ****     uint32_t SPSEL:1;                    /*!< bit:      1  Stack to be used */
 375:C:/Users/Utente/Desktop/Tesi/Firmware_Software/DAVE project/S2GLP_Pulsed_Doppler/Libraries/CMSIS/Include\core_cm4.h ****     uint32_t FPCA:1;                     /*!< bit:      2  FP extension active flag */
 376:C:/Users/Utente/Desktop/Tesi/Firmware_Software/DAVE project/S2GLP_Pulsed_Doppler/Libraries/CMSIS/Include\core_cm4.h ****     uint32_t _reserved0:29;              /*!< bit:  3..31  Reserved */
 377:C:/Users/Utente/Desktop/Tesi/Firmware_Software/DAVE project/S2GLP_Pulsed_Doppler/Libraries/CMSIS/Include\core_cm4.h ****   } b;                                   /*!< Structure used for bit  access */
 378:C:/Users/Utente/Desktop/Tesi/Firmware_Software/DAVE project/S2GLP_Pulsed_Doppler/Libraries/CMSIS/Include\core_cm4.h ****   uint32_t w;                            /*!< Type      used for word access */
 379:C:/Users/Utente/Desktop/Tesi/Firmware_Software/DAVE project/S2GLP_Pulsed_Doppler/Libraries/CMSIS/Include\core_cm4.h **** } CONTROL_Type;
 380:C:/Users/Utente/Desktop/Tesi/Firmware_Software/DAVE project/S2GLP_Pulsed_Doppler/Libraries/CMSIS/Include\core_cm4.h **** 
 381:C:/Users/Utente/Desktop/Tesi/Firmware_Software/DAVE project/S2GLP_Pulsed_Doppler/Libraries/CMSIS/Include\core_cm4.h **** /* CONTROL Register Definitions */
 382:C:/Users/Utente/Desktop/Tesi/Firmware_Software/DAVE project/S2GLP_Pulsed_Doppler/Libraries/CMSIS/Include\core_cm4.h **** #define CONTROL_FPCA_Pos                    2U                                            /*!< CONT
 383:C:/Users/Utente/Desktop/Tesi/Firmware_Software/DAVE project/S2GLP_Pulsed_Doppler/Libraries/CMSIS/Include\core_cm4.h **** #define CONTROL_FPCA_Msk                   (1UL << CONTROL_FPCA_Pos)                      /*!< CONT
 384:C:/Users/Utente/Desktop/Tesi/Firmware_Software/DAVE project/S2GLP_Pulsed_Doppler/Libraries/CMSIS/Include\core_cm4.h **** 
 385:C:/Users/Utente/Desktop/Tesi/Firmware_Software/DAVE project/S2GLP_Pulsed_Doppler/Libraries/CMSIS/Include\core_cm4.h **** #define CONTROL_SPSEL_Pos                   1U                                            /*!< CONT
 386:C:/Users/Utente/Desktop/Tesi/Firmware_Software/DAVE project/S2GLP_Pulsed_Doppler/Libraries/CMSIS/Include\core_cm4.h **** #define CONTROL_SPSEL_Msk                  (1UL << CONTROL_SPSEL_Pos)                     /*!< CONT
 387:C:/Users/Utente/Desktop/Tesi/Firmware_Software/DAVE project/S2GLP_Pulsed_Doppler/Libraries/CMSIS/Include\core_cm4.h **** 
 388:C:/Users/Utente/Desktop/Tesi/Firmware_Software/DAVE project/S2GLP_Pulsed_Doppler/Libraries/CMSIS/Include\core_cm4.h **** #define CONTROL_nPRIV_Pos                   0U                                            /*!< CONT
 389:C:/Users/Utente/Desktop/Tesi/Firmware_Software/DAVE project/S2GLP_Pulsed_Doppler/Libraries/CMSIS/Include\core_cm4.h **** #define CONTROL_nPRIV_Msk                  (1UL /*<< CONTROL_nPRIV_Pos*/)                 /*!< CONT
 390:C:/Users/Utente/Desktop/Tesi/Firmware_Software/DAVE project/S2GLP_Pulsed_Doppler/Libraries/CMSIS/Include\core_cm4.h **** 
 391:C:/Users/Utente/Desktop/Tesi/Firmware_Software/DAVE project/S2GLP_Pulsed_Doppler/Libraries/CMSIS/Include\core_cm4.h **** /*@} end of group CMSIS_CORE */
 392:C:/Users/Utente/Desktop/Tesi/Firmware_Software/DAVE project/S2GLP_Pulsed_Doppler/Libraries/CMSIS/Include\core_cm4.h **** 
 393:C:/Users/Utente/Desktop/Tesi/Firmware_Software/DAVE project/S2GLP_Pulsed_Doppler/Libraries/CMSIS/Include\core_cm4.h **** 
 394:C:/Users/Utente/Desktop/Tesi/Firmware_Software/DAVE project/S2GLP_Pulsed_Doppler/Libraries/CMSIS/Include\core_cm4.h **** /**
 395:C:/Users/Utente/Desktop/Tesi/Firmware_Software/DAVE project/S2GLP_Pulsed_Doppler/Libraries/CMSIS/Include\core_cm4.h ****   \ingroup    CMSIS_core_register
 396:C:/Users/Utente/Desktop/Tesi/Firmware_Software/DAVE project/S2GLP_Pulsed_Doppler/Libraries/CMSIS/Include\core_cm4.h ****   \defgroup   CMSIS_NVIC  Nested Vectored Interrupt Controller (NVIC)
 397:C:/Users/Utente/Desktop/Tesi/Firmware_Software/DAVE project/S2GLP_Pulsed_Doppler/Libraries/CMSIS/Include\core_cm4.h ****   \brief      Type definitions for the NVIC Registers
 398:C:/Users/Utente/Desktop/Tesi/Firmware_Software/DAVE project/S2GLP_Pulsed_Doppler/Libraries/CMSIS/Include\core_cm4.h ****   @{
 399:C:/Users/Utente/Desktop/Tesi/Firmware_Software/DAVE project/S2GLP_Pulsed_Doppler/Libraries/CMSIS/Include\core_cm4.h ****  */
 400:C:/Users/Utente/Desktop/Tesi/Firmware_Software/DAVE project/S2GLP_Pulsed_Doppler/Libraries/CMSIS/Include\core_cm4.h **** 
 401:C:/Users/Utente/Desktop/Tesi/Firmware_Software/DAVE project/S2GLP_Pulsed_Doppler/Libraries/CMSIS/Include\core_cm4.h **** /**
 402:C:/Users/Utente/Desktop/Tesi/Firmware_Software/DAVE project/S2GLP_Pulsed_Doppler/Libraries/CMSIS/Include\core_cm4.h ****   \brief  Structure type to access the Nested Vectored Interrupt Controller (NVIC).
 403:C:/Users/Utente/Desktop/Tesi/Firmware_Software/DAVE project/S2GLP_Pulsed_Doppler/Libraries/CMSIS/Include\core_cm4.h ****  */
 404:C:/Users/Utente/Desktop/Tesi/Firmware_Software/DAVE project/S2GLP_Pulsed_Doppler/Libraries/CMSIS/Include\core_cm4.h **** typedef struct
 405:C:/Users/Utente/Desktop/Tesi/Firmware_Software/DAVE project/S2GLP_Pulsed_Doppler/Libraries/CMSIS/Include\core_cm4.h **** {
 406:C:/Users/Utente/Desktop/Tesi/Firmware_Software/DAVE project/S2GLP_Pulsed_Doppler/Libraries/CMSIS/Include\core_cm4.h ****   __IOM uint32_t ISER[8U];               /*!< Offset: 0x000 (R/W)  Interrupt Set Enable Register */
 407:C:/Users/Utente/Desktop/Tesi/Firmware_Software/DAVE project/S2GLP_Pulsed_Doppler/Libraries/CMSIS/Include\core_cm4.h ****         uint32_t RESERVED0[24U];
 408:C:/Users/Utente/Desktop/Tesi/Firmware_Software/DAVE project/S2GLP_Pulsed_Doppler/Libraries/CMSIS/Include\core_cm4.h ****   __IOM uint32_t ICER[8U];               /*!< Offset: 0x080 (R/W)  Interrupt Clear Enable Register 
 409:C:/Users/Utente/Desktop/Tesi/Firmware_Software/DAVE project/S2GLP_Pulsed_Doppler/Libraries/CMSIS/Include\core_cm4.h ****         uint32_t RSERVED1[24U];
 410:C:/Users/Utente/Desktop/Tesi/Firmware_Software/DAVE project/S2GLP_Pulsed_Doppler/Libraries/CMSIS/Include\core_cm4.h ****   __IOM uint32_t ISPR[8U];               /*!< Offset: 0x100 (R/W)  Interrupt Set Pending Register *
 411:C:/Users/Utente/Desktop/Tesi/Firmware_Software/DAVE project/S2GLP_Pulsed_Doppler/Libraries/CMSIS/Include\core_cm4.h ****         uint32_t RESERVED2[24U];
 412:C:/Users/Utente/Desktop/Tesi/Firmware_Software/DAVE project/S2GLP_Pulsed_Doppler/Libraries/CMSIS/Include\core_cm4.h ****   __IOM uint32_t ICPR[8U];               /*!< Offset: 0x180 (R/W)  Interrupt Clear Pending Register
 413:C:/Users/Utente/Desktop/Tesi/Firmware_Software/DAVE project/S2GLP_Pulsed_Doppler/Libraries/CMSIS/Include\core_cm4.h ****         uint32_t RESERVED3[24U];
 414:C:/Users/Utente/Desktop/Tesi/Firmware_Software/DAVE project/S2GLP_Pulsed_Doppler/Libraries/CMSIS/Include\core_cm4.h ****   __IOM uint32_t IABR[8U];               /*!< Offset: 0x200 (R/W)  Interrupt Active bit Register */
 415:C:/Users/Utente/Desktop/Tesi/Firmware_Software/DAVE project/S2GLP_Pulsed_Doppler/Libraries/CMSIS/Include\core_cm4.h ****         uint32_t RESERVED4[56U];
 416:C:/Users/Utente/Desktop/Tesi/Firmware_Software/DAVE project/S2GLP_Pulsed_Doppler/Libraries/CMSIS/Include\core_cm4.h ****   __IOM uint8_t  IP[240U];               /*!< Offset: 0x300 (R/W)  Interrupt Priority Register (8Bi
 417:C:/Users/Utente/Desktop/Tesi/Firmware_Software/DAVE project/S2GLP_Pulsed_Doppler/Libraries/CMSIS/Include\core_cm4.h ****         uint32_t RESERVED5[644U];
 418:C:/Users/Utente/Desktop/Tesi/Firmware_Software/DAVE project/S2GLP_Pulsed_Doppler/Libraries/CMSIS/Include\core_cm4.h ****   __OM  uint32_t STIR;                   /*!< Offset: 0xE00 ( /W)  Software Trigger Interrupt Regis
 419:C:/Users/Utente/Desktop/Tesi/Firmware_Software/DAVE project/S2GLP_Pulsed_Doppler/Libraries/CMSIS/Include\core_cm4.h **** }  NVIC_Type;
 420:C:/Users/Utente/Desktop/Tesi/Firmware_Software/DAVE project/S2GLP_Pulsed_Doppler/Libraries/CMSIS/Include\core_cm4.h **** 
 421:C:/Users/Utente/Desktop/Tesi/Firmware_Software/DAVE project/S2GLP_Pulsed_Doppler/Libraries/CMSIS/Include\core_cm4.h **** /* Software Triggered Interrupt Register Definitions */
 422:C:/Users/Utente/Desktop/Tesi/Firmware_Software/DAVE project/S2GLP_Pulsed_Doppler/Libraries/CMSIS/Include\core_cm4.h **** #define NVIC_STIR_INTID_Pos                 0U                                         /*!< STIR: I
 423:C:/Users/Utente/Desktop/Tesi/Firmware_Software/DAVE project/S2GLP_Pulsed_Doppler/Libraries/CMSIS/Include\core_cm4.h **** #define NVIC_STIR_INTID_Msk                (0x1FFUL /*<< NVIC_STIR_INTID_Pos*/)        /*!< STIR: I
 424:C:/Users/Utente/Desktop/Tesi/Firmware_Software/DAVE project/S2GLP_Pulsed_Doppler/Libraries/CMSIS/Include\core_cm4.h **** 
 425:C:/Users/Utente/Desktop/Tesi/Firmware_Software/DAVE project/S2GLP_Pulsed_Doppler/Libraries/CMSIS/Include\core_cm4.h **** /*@} end of group CMSIS_NVIC */
 426:C:/Users/Utente/Desktop/Tesi/Firmware_Software/DAVE project/S2GLP_Pulsed_Doppler/Libraries/CMSIS/Include\core_cm4.h **** 
 427:C:/Users/Utente/Desktop/Tesi/Firmware_Software/DAVE project/S2GLP_Pulsed_Doppler/Libraries/CMSIS/Include\core_cm4.h **** 
 428:C:/Users/Utente/Desktop/Tesi/Firmware_Software/DAVE project/S2GLP_Pulsed_Doppler/Libraries/CMSIS/Include\core_cm4.h **** /**
 429:C:/Users/Utente/Desktop/Tesi/Firmware_Software/DAVE project/S2GLP_Pulsed_Doppler/Libraries/CMSIS/Include\core_cm4.h ****   \ingroup  CMSIS_core_register
 430:C:/Users/Utente/Desktop/Tesi/Firmware_Software/DAVE project/S2GLP_Pulsed_Doppler/Libraries/CMSIS/Include\core_cm4.h ****   \defgroup CMSIS_SCB     System Control Block (SCB)
 431:C:/Users/Utente/Desktop/Tesi/Firmware_Software/DAVE project/S2GLP_Pulsed_Doppler/Libraries/CMSIS/Include\core_cm4.h ****   \brief    Type definitions for the System Control Block Registers
 432:C:/Users/Utente/Desktop/Tesi/Firmware_Software/DAVE project/S2GLP_Pulsed_Doppler/Libraries/CMSIS/Include\core_cm4.h ****   @{
 433:C:/Users/Utente/Desktop/Tesi/Firmware_Software/DAVE project/S2GLP_Pulsed_Doppler/Libraries/CMSIS/Include\core_cm4.h ****  */
 434:C:/Users/Utente/Desktop/Tesi/Firmware_Software/DAVE project/S2GLP_Pulsed_Doppler/Libraries/CMSIS/Include\core_cm4.h **** 
 435:C:/Users/Utente/Desktop/Tesi/Firmware_Software/DAVE project/S2GLP_Pulsed_Doppler/Libraries/CMSIS/Include\core_cm4.h **** /**
 436:C:/Users/Utente/Desktop/Tesi/Firmware_Software/DAVE project/S2GLP_Pulsed_Doppler/Libraries/CMSIS/Include\core_cm4.h ****   \brief  Structure type to access the System Control Block (SCB).
 437:C:/Users/Utente/Desktop/Tesi/Firmware_Software/DAVE project/S2GLP_Pulsed_Doppler/Libraries/CMSIS/Include\core_cm4.h ****  */
 438:C:/Users/Utente/Desktop/Tesi/Firmware_Software/DAVE project/S2GLP_Pulsed_Doppler/Libraries/CMSIS/Include\core_cm4.h **** typedef struct
 439:C:/Users/Utente/Desktop/Tesi/Firmware_Software/DAVE project/S2GLP_Pulsed_Doppler/Libraries/CMSIS/Include\core_cm4.h **** {
 440:C:/Users/Utente/Desktop/Tesi/Firmware_Software/DAVE project/S2GLP_Pulsed_Doppler/Libraries/CMSIS/Include\core_cm4.h ****   __IM  uint32_t CPUID;                  /*!< Offset: 0x000 (R/ )  CPUID Base Register */
 441:C:/Users/Utente/Desktop/Tesi/Firmware_Software/DAVE project/S2GLP_Pulsed_Doppler/Libraries/CMSIS/Include\core_cm4.h ****   __IOM uint32_t ICSR;                   /*!< Offset: 0x004 (R/W)  Interrupt Control and State Regi
 442:C:/Users/Utente/Desktop/Tesi/Firmware_Software/DAVE project/S2GLP_Pulsed_Doppler/Libraries/CMSIS/Include\core_cm4.h ****   __IOM uint32_t VTOR;                   /*!< Offset: 0x008 (R/W)  Vector Table Offset Register */
 443:C:/Users/Utente/Desktop/Tesi/Firmware_Software/DAVE project/S2GLP_Pulsed_Doppler/Libraries/CMSIS/Include\core_cm4.h ****   __IOM uint32_t AIRCR;                  /*!< Offset: 0x00C (R/W)  Application Interrupt and Reset 
 444:C:/Users/Utente/Desktop/Tesi/Firmware_Software/DAVE project/S2GLP_Pulsed_Doppler/Libraries/CMSIS/Include\core_cm4.h ****   __IOM uint32_t SCR;                    /*!< Offset: 0x010 (R/W)  System Control Register */
 445:C:/Users/Utente/Desktop/Tesi/Firmware_Software/DAVE project/S2GLP_Pulsed_Doppler/Libraries/CMSIS/Include\core_cm4.h ****   __IOM uint32_t CCR;                    /*!< Offset: 0x014 (R/W)  Configuration Control Register *
 446:C:/Users/Utente/Desktop/Tesi/Firmware_Software/DAVE project/S2GLP_Pulsed_Doppler/Libraries/CMSIS/Include\core_cm4.h ****   __IOM uint8_t  SHP[12U];               /*!< Offset: 0x018 (R/W)  System Handlers Priority Registe
 447:C:/Users/Utente/Desktop/Tesi/Firmware_Software/DAVE project/S2GLP_Pulsed_Doppler/Libraries/CMSIS/Include\core_cm4.h ****   __IOM uint32_t SHCSR;                  /*!< Offset: 0x024 (R/W)  System Handler Control and State
 448:C:/Users/Utente/Desktop/Tesi/Firmware_Software/DAVE project/S2GLP_Pulsed_Doppler/Libraries/CMSIS/Include\core_cm4.h ****   __IOM uint32_t CFSR;                   /*!< Offset: 0x028 (R/W)  Configurable Fault Status Regist
 449:C:/Users/Utente/Desktop/Tesi/Firmware_Software/DAVE project/S2GLP_Pulsed_Doppler/Libraries/CMSIS/Include\core_cm4.h ****   __IOM uint32_t HFSR;                   /*!< Offset: 0x02C (R/W)  HardFault Status Register */
 450:C:/Users/Utente/Desktop/Tesi/Firmware_Software/DAVE project/S2GLP_Pulsed_Doppler/Libraries/CMSIS/Include\core_cm4.h ****   __IOM uint32_t DFSR;                   /*!< Offset: 0x030 (R/W)  Debug Fault Status Register */
 451:C:/Users/Utente/Desktop/Tesi/Firmware_Software/DAVE project/S2GLP_Pulsed_Doppler/Libraries/CMSIS/Include\core_cm4.h ****   __IOM uint32_t MMFAR;                  /*!< Offset: 0x034 (R/W)  MemManage Fault Address Register
 452:C:/Users/Utente/Desktop/Tesi/Firmware_Software/DAVE project/S2GLP_Pulsed_Doppler/Libraries/CMSIS/Include\core_cm4.h ****   __IOM uint32_t BFAR;                   /*!< Offset: 0x038 (R/W)  BusFault Address Register */
 453:C:/Users/Utente/Desktop/Tesi/Firmware_Software/DAVE project/S2GLP_Pulsed_Doppler/Libraries/CMSIS/Include\core_cm4.h ****   __IOM uint32_t AFSR;                   /*!< Offset: 0x03C (R/W)  Auxiliary Fault Status Register 
 454:C:/Users/Utente/Desktop/Tesi/Firmware_Software/DAVE project/S2GLP_Pulsed_Doppler/Libraries/CMSIS/Include\core_cm4.h ****   __IM  uint32_t PFR[2U];                /*!< Offset: 0x040 (R/ )  Processor Feature Register */
 455:C:/Users/Utente/Desktop/Tesi/Firmware_Software/DAVE project/S2GLP_Pulsed_Doppler/Libraries/CMSIS/Include\core_cm4.h ****   __IM  uint32_t DFR;                    /*!< Offset: 0x048 (R/ )  Debug Feature Register */
 456:C:/Users/Utente/Desktop/Tesi/Firmware_Software/DAVE project/S2GLP_Pulsed_Doppler/Libraries/CMSIS/Include\core_cm4.h ****   __IM  uint32_t ADR;                    /*!< Offset: 0x04C (R/ )  Auxiliary Feature Register */
 457:C:/Users/Utente/Desktop/Tesi/Firmware_Software/DAVE project/S2GLP_Pulsed_Doppler/Libraries/CMSIS/Include\core_cm4.h ****   __IM  uint32_t MMFR[4U];               /*!< Offset: 0x050 (R/ )  Memory Model Feature Register */
 458:C:/Users/Utente/Desktop/Tesi/Firmware_Software/DAVE project/S2GLP_Pulsed_Doppler/Libraries/CMSIS/Include\core_cm4.h ****   __IM  uint32_t ISAR[5U];               /*!< Offset: 0x060 (R/ )  Instruction Set Attributes Regis
 459:C:/Users/Utente/Desktop/Tesi/Firmware_Software/DAVE project/S2GLP_Pulsed_Doppler/Libraries/CMSIS/Include\core_cm4.h ****         uint32_t RESERVED0[5U];
 460:C:/Users/Utente/Desktop/Tesi/Firmware_Software/DAVE project/S2GLP_Pulsed_Doppler/Libraries/CMSIS/Include\core_cm4.h ****   __IOM uint32_t CPACR;                  /*!< Offset: 0x088 (R/W)  Coprocessor Access Control Regis
 461:C:/Users/Utente/Desktop/Tesi/Firmware_Software/DAVE project/S2GLP_Pulsed_Doppler/Libraries/CMSIS/Include\core_cm4.h **** } SCB_Type;
 462:C:/Users/Utente/Desktop/Tesi/Firmware_Software/DAVE project/S2GLP_Pulsed_Doppler/Libraries/CMSIS/Include\core_cm4.h **** 
 463:C:/Users/Utente/Desktop/Tesi/Firmware_Software/DAVE project/S2GLP_Pulsed_Doppler/Libraries/CMSIS/Include\core_cm4.h **** /* SCB CPUID Register Definitions */
 464:C:/Users/Utente/Desktop/Tesi/Firmware_Software/DAVE project/S2GLP_Pulsed_Doppler/Libraries/CMSIS/Include\core_cm4.h **** #define SCB_CPUID_IMPLEMENTER_Pos          24U                                            /*!< SCB 
 465:C:/Users/Utente/Desktop/Tesi/Firmware_Software/DAVE project/S2GLP_Pulsed_Doppler/Libraries/CMSIS/Include\core_cm4.h **** #define SCB_CPUID_IMPLEMENTER_Msk          (0xFFUL << SCB_CPUID_IMPLEMENTER_Pos)          /*!< SCB 
 466:C:/Users/Utente/Desktop/Tesi/Firmware_Software/DAVE project/S2GLP_Pulsed_Doppler/Libraries/CMSIS/Include\core_cm4.h **** 
 467:C:/Users/Utente/Desktop/Tesi/Firmware_Software/DAVE project/S2GLP_Pulsed_Doppler/Libraries/CMSIS/Include\core_cm4.h **** #define SCB_CPUID_VARIANT_Pos              20U                                            /*!< SCB 
 468:C:/Users/Utente/Desktop/Tesi/Firmware_Software/DAVE project/S2GLP_Pulsed_Doppler/Libraries/CMSIS/Include\core_cm4.h **** #define SCB_CPUID_VARIANT_Msk              (0xFUL << SCB_CPUID_VARIANT_Pos)               /*!< SCB 
 469:C:/Users/Utente/Desktop/Tesi/Firmware_Software/DAVE project/S2GLP_Pulsed_Doppler/Libraries/CMSIS/Include\core_cm4.h **** 
 470:C:/Users/Utente/Desktop/Tesi/Firmware_Software/DAVE project/S2GLP_Pulsed_Doppler/Libraries/CMSIS/Include\core_cm4.h **** #define SCB_CPUID_ARCHITECTURE_Pos         16U                                            /*!< SCB 
 471:C:/Users/Utente/Desktop/Tesi/Firmware_Software/DAVE project/S2GLP_Pulsed_Doppler/Libraries/CMSIS/Include\core_cm4.h **** #define SCB_CPUID_ARCHITECTURE_Msk         (0xFUL << SCB_CPUID_ARCHITECTURE_Pos)          /*!< SCB 
 472:C:/Users/Utente/Desktop/Tesi/Firmware_Software/DAVE project/S2GLP_Pulsed_Doppler/Libraries/CMSIS/Include\core_cm4.h **** 
 473:C:/Users/Utente/Desktop/Tesi/Firmware_Software/DAVE project/S2GLP_Pulsed_Doppler/Libraries/CMSIS/Include\core_cm4.h **** #define SCB_CPUID_PARTNO_Pos                4U                                            /*!< SCB 
 474:C:/Users/Utente/Desktop/Tesi/Firmware_Software/DAVE project/S2GLP_Pulsed_Doppler/Libraries/CMSIS/Include\core_cm4.h **** #define SCB_CPUID_PARTNO_Msk               (0xFFFUL << SCB_CPUID_PARTNO_Pos)              /*!< SCB 
 475:C:/Users/Utente/Desktop/Tesi/Firmware_Software/DAVE project/S2GLP_Pulsed_Doppler/Libraries/CMSIS/Include\core_cm4.h **** 
 476:C:/Users/Utente/Desktop/Tesi/Firmware_Software/DAVE project/S2GLP_Pulsed_Doppler/Libraries/CMSIS/Include\core_cm4.h **** #define SCB_CPUID_REVISION_Pos              0U                                            /*!< SCB 
 477:C:/Users/Utente/Desktop/Tesi/Firmware_Software/DAVE project/S2GLP_Pulsed_Doppler/Libraries/CMSIS/Include\core_cm4.h **** #define SCB_CPUID_REVISION_Msk             (0xFUL /*<< SCB_CPUID_REVISION_Pos*/)          /*!< SCB 
 478:C:/Users/Utente/Desktop/Tesi/Firmware_Software/DAVE project/S2GLP_Pulsed_Doppler/Libraries/CMSIS/Include\core_cm4.h **** 
 479:C:/Users/Utente/Desktop/Tesi/Firmware_Software/DAVE project/S2GLP_Pulsed_Doppler/Libraries/CMSIS/Include\core_cm4.h **** /* SCB Interrupt Control State Register Definitions */
 480:C:/Users/Utente/Desktop/Tesi/Firmware_Software/DAVE project/S2GLP_Pulsed_Doppler/Libraries/CMSIS/Include\core_cm4.h **** #define SCB_ICSR_NMIPENDSET_Pos            31U                                            /*!< SCB 
 481:C:/Users/Utente/Desktop/Tesi/Firmware_Software/DAVE project/S2GLP_Pulsed_Doppler/Libraries/CMSIS/Include\core_cm4.h **** #define SCB_ICSR_NMIPENDSET_Msk            (1UL << SCB_ICSR_NMIPENDSET_Pos)               /*!< SCB 
 482:C:/Users/Utente/Desktop/Tesi/Firmware_Software/DAVE project/S2GLP_Pulsed_Doppler/Libraries/CMSIS/Include\core_cm4.h **** 
 483:C:/Users/Utente/Desktop/Tesi/Firmware_Software/DAVE project/S2GLP_Pulsed_Doppler/Libraries/CMSIS/Include\core_cm4.h **** #define SCB_ICSR_PENDSVSET_Pos             28U                                            /*!< SCB 
 484:C:/Users/Utente/Desktop/Tesi/Firmware_Software/DAVE project/S2GLP_Pulsed_Doppler/Libraries/CMSIS/Include\core_cm4.h **** #define SCB_ICSR_PENDSVSET_Msk             (1UL << SCB_ICSR_PENDSVSET_Pos)                /*!< SCB 
 485:C:/Users/Utente/Desktop/Tesi/Firmware_Software/DAVE project/S2GLP_Pulsed_Doppler/Libraries/CMSIS/Include\core_cm4.h **** 
 486:C:/Users/Utente/Desktop/Tesi/Firmware_Software/DAVE project/S2GLP_Pulsed_Doppler/Libraries/CMSIS/Include\core_cm4.h **** #define SCB_ICSR_PENDSVCLR_Pos             27U                                            /*!< SCB 
 487:C:/Users/Utente/Desktop/Tesi/Firmware_Software/DAVE project/S2GLP_Pulsed_Doppler/Libraries/CMSIS/Include\core_cm4.h **** #define SCB_ICSR_PENDSVCLR_Msk             (1UL << SCB_ICSR_PENDSVCLR_Pos)                /*!< SCB 
 488:C:/Users/Utente/Desktop/Tesi/Firmware_Software/DAVE project/S2GLP_Pulsed_Doppler/Libraries/CMSIS/Include\core_cm4.h **** 
 489:C:/Users/Utente/Desktop/Tesi/Firmware_Software/DAVE project/S2GLP_Pulsed_Doppler/Libraries/CMSIS/Include\core_cm4.h **** #define SCB_ICSR_PENDSTSET_Pos             26U                                            /*!< SCB 
 490:C:/Users/Utente/Desktop/Tesi/Firmware_Software/DAVE project/S2GLP_Pulsed_Doppler/Libraries/CMSIS/Include\core_cm4.h **** #define SCB_ICSR_PENDSTSET_Msk             (1UL << SCB_ICSR_PENDSTSET_Pos)                /*!< SCB 
 491:C:/Users/Utente/Desktop/Tesi/Firmware_Software/DAVE project/S2GLP_Pulsed_Doppler/Libraries/CMSIS/Include\core_cm4.h **** 
 492:C:/Users/Utente/Desktop/Tesi/Firmware_Software/DAVE project/S2GLP_Pulsed_Doppler/Libraries/CMSIS/Include\core_cm4.h **** #define SCB_ICSR_PENDSTCLR_Pos             25U                                            /*!< SCB 
 493:C:/Users/Utente/Desktop/Tesi/Firmware_Software/DAVE project/S2GLP_Pulsed_Doppler/Libraries/CMSIS/Include\core_cm4.h **** #define SCB_ICSR_PENDSTCLR_Msk             (1UL << SCB_ICSR_PENDSTCLR_Pos)                /*!< SCB 
 494:C:/Users/Utente/Desktop/Tesi/Firmware_Software/DAVE project/S2GLP_Pulsed_Doppler/Libraries/CMSIS/Include\core_cm4.h **** 
 495:C:/Users/Utente/Desktop/Tesi/Firmware_Software/DAVE project/S2GLP_Pulsed_Doppler/Libraries/CMSIS/Include\core_cm4.h **** #define SCB_ICSR_ISRPREEMPT_Pos            23U                                            /*!< SCB 
 496:C:/Users/Utente/Desktop/Tesi/Firmware_Software/DAVE project/S2GLP_Pulsed_Doppler/Libraries/CMSIS/Include\core_cm4.h **** #define SCB_ICSR_ISRPREEMPT_Msk            (1UL << SCB_ICSR_ISRPREEMPT_Pos)               /*!< SCB 
 497:C:/Users/Utente/Desktop/Tesi/Firmware_Software/DAVE project/S2GLP_Pulsed_Doppler/Libraries/CMSIS/Include\core_cm4.h **** 
 498:C:/Users/Utente/Desktop/Tesi/Firmware_Software/DAVE project/S2GLP_Pulsed_Doppler/Libraries/CMSIS/Include\core_cm4.h **** #define SCB_ICSR_ISRPENDING_Pos            22U                                            /*!< SCB 
 499:C:/Users/Utente/Desktop/Tesi/Firmware_Software/DAVE project/S2GLP_Pulsed_Doppler/Libraries/CMSIS/Include\core_cm4.h **** #define SCB_ICSR_ISRPENDING_Msk            (1UL << SCB_ICSR_ISRPENDING_Pos)               /*!< SCB 
 500:C:/Users/Utente/Desktop/Tesi/Firmware_Software/DAVE project/S2GLP_Pulsed_Doppler/Libraries/CMSIS/Include\core_cm4.h **** 
 501:C:/Users/Utente/Desktop/Tesi/Firmware_Software/DAVE project/S2GLP_Pulsed_Doppler/Libraries/CMSIS/Include\core_cm4.h **** #define SCB_ICSR_VECTPENDING_Pos           12U                                            /*!< SCB 
 502:C:/Users/Utente/Desktop/Tesi/Firmware_Software/DAVE project/S2GLP_Pulsed_Doppler/Libraries/CMSIS/Include\core_cm4.h **** #define SCB_ICSR_VECTPENDING_Msk           (0x1FFUL << SCB_ICSR_VECTPENDING_Pos)          /*!< SCB 
 503:C:/Users/Utente/Desktop/Tesi/Firmware_Software/DAVE project/S2GLP_Pulsed_Doppler/Libraries/CMSIS/Include\core_cm4.h **** 
 504:C:/Users/Utente/Desktop/Tesi/Firmware_Software/DAVE project/S2GLP_Pulsed_Doppler/Libraries/CMSIS/Include\core_cm4.h **** #define SCB_ICSR_RETTOBASE_Pos             11U                                            /*!< SCB 
 505:C:/Users/Utente/Desktop/Tesi/Firmware_Software/DAVE project/S2GLP_Pulsed_Doppler/Libraries/CMSIS/Include\core_cm4.h **** #define SCB_ICSR_RETTOBASE_Msk             (1UL << SCB_ICSR_RETTOBASE_Pos)                /*!< SCB 
 506:C:/Users/Utente/Desktop/Tesi/Firmware_Software/DAVE project/S2GLP_Pulsed_Doppler/Libraries/CMSIS/Include\core_cm4.h **** 
 507:C:/Users/Utente/Desktop/Tesi/Firmware_Software/DAVE project/S2GLP_Pulsed_Doppler/Libraries/CMSIS/Include\core_cm4.h **** #define SCB_ICSR_VECTACTIVE_Pos             0U                                            /*!< SCB 
 508:C:/Users/Utente/Desktop/Tesi/Firmware_Software/DAVE project/S2GLP_Pulsed_Doppler/Libraries/CMSIS/Include\core_cm4.h **** #define SCB_ICSR_VECTACTIVE_Msk            (0x1FFUL /*<< SCB_ICSR_VECTACTIVE_Pos*/)       /*!< SCB 
 509:C:/Users/Utente/Desktop/Tesi/Firmware_Software/DAVE project/S2GLP_Pulsed_Doppler/Libraries/CMSIS/Include\core_cm4.h **** 
 510:C:/Users/Utente/Desktop/Tesi/Firmware_Software/DAVE project/S2GLP_Pulsed_Doppler/Libraries/CMSIS/Include\core_cm4.h **** /* SCB Vector Table Offset Register Definitions */
 511:C:/Users/Utente/Desktop/Tesi/Firmware_Software/DAVE project/S2GLP_Pulsed_Doppler/Libraries/CMSIS/Include\core_cm4.h **** #define SCB_VTOR_TBLOFF_Pos                 7U                                            /*!< SCB 
 512:C:/Users/Utente/Desktop/Tesi/Firmware_Software/DAVE project/S2GLP_Pulsed_Doppler/Libraries/CMSIS/Include\core_cm4.h **** #define SCB_VTOR_TBLOFF_Msk                (0x1FFFFFFUL << SCB_VTOR_TBLOFF_Pos)           /*!< SCB 
 513:C:/Users/Utente/Desktop/Tesi/Firmware_Software/DAVE project/S2GLP_Pulsed_Doppler/Libraries/CMSIS/Include\core_cm4.h **** 
 514:C:/Users/Utente/Desktop/Tesi/Firmware_Software/DAVE project/S2GLP_Pulsed_Doppler/Libraries/CMSIS/Include\core_cm4.h **** /* SCB Application Interrupt and Reset Control Register Definitions */
 515:C:/Users/Utente/Desktop/Tesi/Firmware_Software/DAVE project/S2GLP_Pulsed_Doppler/Libraries/CMSIS/Include\core_cm4.h **** #define SCB_AIRCR_VECTKEY_Pos              16U                                            /*!< SCB 
 516:C:/Users/Utente/Desktop/Tesi/Firmware_Software/DAVE project/S2GLP_Pulsed_Doppler/Libraries/CMSIS/Include\core_cm4.h **** #define SCB_AIRCR_VECTKEY_Msk              (0xFFFFUL << SCB_AIRCR_VECTKEY_Pos)            /*!< SCB 
 517:C:/Users/Utente/Desktop/Tesi/Firmware_Software/DAVE project/S2GLP_Pulsed_Doppler/Libraries/CMSIS/Include\core_cm4.h **** 
 518:C:/Users/Utente/Desktop/Tesi/Firmware_Software/DAVE project/S2GLP_Pulsed_Doppler/Libraries/CMSIS/Include\core_cm4.h **** #define SCB_AIRCR_VECTKEYSTAT_Pos          16U                                            /*!< SCB 
 519:C:/Users/Utente/Desktop/Tesi/Firmware_Software/DAVE project/S2GLP_Pulsed_Doppler/Libraries/CMSIS/Include\core_cm4.h **** #define SCB_AIRCR_VECTKEYSTAT_Msk          (0xFFFFUL << SCB_AIRCR_VECTKEYSTAT_Pos)        /*!< SCB 
 520:C:/Users/Utente/Desktop/Tesi/Firmware_Software/DAVE project/S2GLP_Pulsed_Doppler/Libraries/CMSIS/Include\core_cm4.h **** 
 521:C:/Users/Utente/Desktop/Tesi/Firmware_Software/DAVE project/S2GLP_Pulsed_Doppler/Libraries/CMSIS/Include\core_cm4.h **** #define SCB_AIRCR_ENDIANESS_Pos            15U                                            /*!< SCB 
 522:C:/Users/Utente/Desktop/Tesi/Firmware_Software/DAVE project/S2GLP_Pulsed_Doppler/Libraries/CMSIS/Include\core_cm4.h **** #define SCB_AIRCR_ENDIANESS_Msk            (1UL << SCB_AIRCR_ENDIANESS_Pos)               /*!< SCB 
 523:C:/Users/Utente/Desktop/Tesi/Firmware_Software/DAVE project/S2GLP_Pulsed_Doppler/Libraries/CMSIS/Include\core_cm4.h **** 
 524:C:/Users/Utente/Desktop/Tesi/Firmware_Software/DAVE project/S2GLP_Pulsed_Doppler/Libraries/CMSIS/Include\core_cm4.h **** #define SCB_AIRCR_PRIGROUP_Pos              8U                                            /*!< SCB 
 525:C:/Users/Utente/Desktop/Tesi/Firmware_Software/DAVE project/S2GLP_Pulsed_Doppler/Libraries/CMSIS/Include\core_cm4.h **** #define SCB_AIRCR_PRIGROUP_Msk             (7UL << SCB_AIRCR_PRIGROUP_Pos)                /*!< SCB 
 526:C:/Users/Utente/Desktop/Tesi/Firmware_Software/DAVE project/S2GLP_Pulsed_Doppler/Libraries/CMSIS/Include\core_cm4.h **** 
 527:C:/Users/Utente/Desktop/Tesi/Firmware_Software/DAVE project/S2GLP_Pulsed_Doppler/Libraries/CMSIS/Include\core_cm4.h **** #define SCB_AIRCR_SYSRESETREQ_Pos           2U                                            /*!< SCB 
 528:C:/Users/Utente/Desktop/Tesi/Firmware_Software/DAVE project/S2GLP_Pulsed_Doppler/Libraries/CMSIS/Include\core_cm4.h **** #define SCB_AIRCR_SYSRESETREQ_Msk          (1UL << SCB_AIRCR_SYSRESETREQ_Pos)             /*!< SCB 
 529:C:/Users/Utente/Desktop/Tesi/Firmware_Software/DAVE project/S2GLP_Pulsed_Doppler/Libraries/CMSIS/Include\core_cm4.h **** 
 530:C:/Users/Utente/Desktop/Tesi/Firmware_Software/DAVE project/S2GLP_Pulsed_Doppler/Libraries/CMSIS/Include\core_cm4.h **** #define SCB_AIRCR_VECTCLRACTIVE_Pos         1U                                            /*!< SCB 
 531:C:/Users/Utente/Desktop/Tesi/Firmware_Software/DAVE project/S2GLP_Pulsed_Doppler/Libraries/CMSIS/Include\core_cm4.h **** #define SCB_AIRCR_VECTCLRACTIVE_Msk        (1UL << SCB_AIRCR_VECTCLRACTIVE_Pos)           /*!< SCB 
 532:C:/Users/Utente/Desktop/Tesi/Firmware_Software/DAVE project/S2GLP_Pulsed_Doppler/Libraries/CMSIS/Include\core_cm4.h **** 
 533:C:/Users/Utente/Desktop/Tesi/Firmware_Software/DAVE project/S2GLP_Pulsed_Doppler/Libraries/CMSIS/Include\core_cm4.h **** #define SCB_AIRCR_VECTRESET_Pos             0U                                            /*!< SCB 
 534:C:/Users/Utente/Desktop/Tesi/Firmware_Software/DAVE project/S2GLP_Pulsed_Doppler/Libraries/CMSIS/Include\core_cm4.h **** #define SCB_AIRCR_VECTRESET_Msk            (1UL /*<< SCB_AIRCR_VECTRESET_Pos*/)           /*!< SCB 
 535:C:/Users/Utente/Desktop/Tesi/Firmware_Software/DAVE project/S2GLP_Pulsed_Doppler/Libraries/CMSIS/Include\core_cm4.h **** 
 536:C:/Users/Utente/Desktop/Tesi/Firmware_Software/DAVE project/S2GLP_Pulsed_Doppler/Libraries/CMSIS/Include\core_cm4.h **** /* SCB System Control Register Definitions */
 537:C:/Users/Utente/Desktop/Tesi/Firmware_Software/DAVE project/S2GLP_Pulsed_Doppler/Libraries/CMSIS/Include\core_cm4.h **** #define SCB_SCR_SEVONPEND_Pos               4U                                            /*!< SCB 
 538:C:/Users/Utente/Desktop/Tesi/Firmware_Software/DAVE project/S2GLP_Pulsed_Doppler/Libraries/CMSIS/Include\core_cm4.h **** #define SCB_SCR_SEVONPEND_Msk              (1UL << SCB_SCR_SEVONPEND_Pos)                 /*!< SCB 
 539:C:/Users/Utente/Desktop/Tesi/Firmware_Software/DAVE project/S2GLP_Pulsed_Doppler/Libraries/CMSIS/Include\core_cm4.h **** 
 540:C:/Users/Utente/Desktop/Tesi/Firmware_Software/DAVE project/S2GLP_Pulsed_Doppler/Libraries/CMSIS/Include\core_cm4.h **** #define SCB_SCR_SLEEPDEEP_Pos               2U                                            /*!< SCB 
 541:C:/Users/Utente/Desktop/Tesi/Firmware_Software/DAVE project/S2GLP_Pulsed_Doppler/Libraries/CMSIS/Include\core_cm4.h **** #define SCB_SCR_SLEEPDEEP_Msk              (1UL << SCB_SCR_SLEEPDEEP_Pos)                 /*!< SCB 
 542:C:/Users/Utente/Desktop/Tesi/Firmware_Software/DAVE project/S2GLP_Pulsed_Doppler/Libraries/CMSIS/Include\core_cm4.h **** 
 543:C:/Users/Utente/Desktop/Tesi/Firmware_Software/DAVE project/S2GLP_Pulsed_Doppler/Libraries/CMSIS/Include\core_cm4.h **** #define SCB_SCR_SLEEPONEXIT_Pos             1U                                            /*!< SCB 
 544:C:/Users/Utente/Desktop/Tesi/Firmware_Software/DAVE project/S2GLP_Pulsed_Doppler/Libraries/CMSIS/Include\core_cm4.h **** #define SCB_SCR_SLEEPONEXIT_Msk            (1UL << SCB_SCR_SLEEPONEXIT_Pos)               /*!< SCB 
 545:C:/Users/Utente/Desktop/Tesi/Firmware_Software/DAVE project/S2GLP_Pulsed_Doppler/Libraries/CMSIS/Include\core_cm4.h **** 
 546:C:/Users/Utente/Desktop/Tesi/Firmware_Software/DAVE project/S2GLP_Pulsed_Doppler/Libraries/CMSIS/Include\core_cm4.h **** /* SCB Configuration Control Register Definitions */
 547:C:/Users/Utente/Desktop/Tesi/Firmware_Software/DAVE project/S2GLP_Pulsed_Doppler/Libraries/CMSIS/Include\core_cm4.h **** #define SCB_CCR_STKALIGN_Pos                9U                                            /*!< SCB 
 548:C:/Users/Utente/Desktop/Tesi/Firmware_Software/DAVE project/S2GLP_Pulsed_Doppler/Libraries/CMSIS/Include\core_cm4.h **** #define SCB_CCR_STKALIGN_Msk               (1UL << SCB_CCR_STKALIGN_Pos)                  /*!< SCB 
 549:C:/Users/Utente/Desktop/Tesi/Firmware_Software/DAVE project/S2GLP_Pulsed_Doppler/Libraries/CMSIS/Include\core_cm4.h **** 
 550:C:/Users/Utente/Desktop/Tesi/Firmware_Software/DAVE project/S2GLP_Pulsed_Doppler/Libraries/CMSIS/Include\core_cm4.h **** #define SCB_CCR_BFHFNMIGN_Pos               8U                                            /*!< SCB 
 551:C:/Users/Utente/Desktop/Tesi/Firmware_Software/DAVE project/S2GLP_Pulsed_Doppler/Libraries/CMSIS/Include\core_cm4.h **** #define SCB_CCR_BFHFNMIGN_Msk              (1UL << SCB_CCR_BFHFNMIGN_Pos)                 /*!< SCB 
 552:C:/Users/Utente/Desktop/Tesi/Firmware_Software/DAVE project/S2GLP_Pulsed_Doppler/Libraries/CMSIS/Include\core_cm4.h **** 
 553:C:/Users/Utente/Desktop/Tesi/Firmware_Software/DAVE project/S2GLP_Pulsed_Doppler/Libraries/CMSIS/Include\core_cm4.h **** #define SCB_CCR_DIV_0_TRP_Pos               4U                                            /*!< SCB 
 554:C:/Users/Utente/Desktop/Tesi/Firmware_Software/DAVE project/S2GLP_Pulsed_Doppler/Libraries/CMSIS/Include\core_cm4.h **** #define SCB_CCR_DIV_0_TRP_Msk              (1UL << SCB_CCR_DIV_0_TRP_Pos)                 /*!< SCB 
 555:C:/Users/Utente/Desktop/Tesi/Firmware_Software/DAVE project/S2GLP_Pulsed_Doppler/Libraries/CMSIS/Include\core_cm4.h **** 
 556:C:/Users/Utente/Desktop/Tesi/Firmware_Software/DAVE project/S2GLP_Pulsed_Doppler/Libraries/CMSIS/Include\core_cm4.h **** #define SCB_CCR_UNALIGN_TRP_Pos             3U                                            /*!< SCB 
 557:C:/Users/Utente/Desktop/Tesi/Firmware_Software/DAVE project/S2GLP_Pulsed_Doppler/Libraries/CMSIS/Include\core_cm4.h **** #define SCB_CCR_UNALIGN_TRP_Msk            (1UL << SCB_CCR_UNALIGN_TRP_Pos)               /*!< SCB 
 558:C:/Users/Utente/Desktop/Tesi/Firmware_Software/DAVE project/S2GLP_Pulsed_Doppler/Libraries/CMSIS/Include\core_cm4.h **** 
 559:C:/Users/Utente/Desktop/Tesi/Firmware_Software/DAVE project/S2GLP_Pulsed_Doppler/Libraries/CMSIS/Include\core_cm4.h **** #define SCB_CCR_USERSETMPEND_Pos            1U                                            /*!< SCB 
 560:C:/Users/Utente/Desktop/Tesi/Firmware_Software/DAVE project/S2GLP_Pulsed_Doppler/Libraries/CMSIS/Include\core_cm4.h **** #define SCB_CCR_USERSETMPEND_Msk           (1UL << SCB_CCR_USERSETMPEND_Pos)              /*!< SCB 
 561:C:/Users/Utente/Desktop/Tesi/Firmware_Software/DAVE project/S2GLP_Pulsed_Doppler/Libraries/CMSIS/Include\core_cm4.h **** 
 562:C:/Users/Utente/Desktop/Tesi/Firmware_Software/DAVE project/S2GLP_Pulsed_Doppler/Libraries/CMSIS/Include\core_cm4.h **** #define SCB_CCR_NONBASETHRDENA_Pos          0U                                            /*!< SCB 
 563:C:/Users/Utente/Desktop/Tesi/Firmware_Software/DAVE project/S2GLP_Pulsed_Doppler/Libraries/CMSIS/Include\core_cm4.h **** #define SCB_CCR_NONBASETHRDENA_Msk         (1UL /*<< SCB_CCR_NONBASETHRDENA_Pos*/)        /*!< SCB 
 564:C:/Users/Utente/Desktop/Tesi/Firmware_Software/DAVE project/S2GLP_Pulsed_Doppler/Libraries/CMSIS/Include\core_cm4.h **** 
 565:C:/Users/Utente/Desktop/Tesi/Firmware_Software/DAVE project/S2GLP_Pulsed_Doppler/Libraries/CMSIS/Include\core_cm4.h **** /* SCB System Handler Control and State Register Definitions */
 566:C:/Users/Utente/Desktop/Tesi/Firmware_Software/DAVE project/S2GLP_Pulsed_Doppler/Libraries/CMSIS/Include\core_cm4.h **** #define SCB_SHCSR_USGFAULTENA_Pos          18U                                            /*!< SCB 
 567:C:/Users/Utente/Desktop/Tesi/Firmware_Software/DAVE project/S2GLP_Pulsed_Doppler/Libraries/CMSIS/Include\core_cm4.h **** #define SCB_SHCSR_USGFAULTENA_Msk          (1UL << SCB_SHCSR_USGFAULTENA_Pos)             /*!< SCB 
 568:C:/Users/Utente/Desktop/Tesi/Firmware_Software/DAVE project/S2GLP_Pulsed_Doppler/Libraries/CMSIS/Include\core_cm4.h **** 
 569:C:/Users/Utente/Desktop/Tesi/Firmware_Software/DAVE project/S2GLP_Pulsed_Doppler/Libraries/CMSIS/Include\core_cm4.h **** #define SCB_SHCSR_BUSFAULTENA_Pos          17U                                            /*!< SCB 
 570:C:/Users/Utente/Desktop/Tesi/Firmware_Software/DAVE project/S2GLP_Pulsed_Doppler/Libraries/CMSIS/Include\core_cm4.h **** #define SCB_SHCSR_BUSFAULTENA_Msk          (1UL << SCB_SHCSR_BUSFAULTENA_Pos)             /*!< SCB 
 571:C:/Users/Utente/Desktop/Tesi/Firmware_Software/DAVE project/S2GLP_Pulsed_Doppler/Libraries/CMSIS/Include\core_cm4.h **** 
 572:C:/Users/Utente/Desktop/Tesi/Firmware_Software/DAVE project/S2GLP_Pulsed_Doppler/Libraries/CMSIS/Include\core_cm4.h **** #define SCB_SHCSR_MEMFAULTENA_Pos          16U                                            /*!< SCB 
 573:C:/Users/Utente/Desktop/Tesi/Firmware_Software/DAVE project/S2GLP_Pulsed_Doppler/Libraries/CMSIS/Include\core_cm4.h **** #define SCB_SHCSR_MEMFAULTENA_Msk          (1UL << SCB_SHCSR_MEMFAULTENA_Pos)             /*!< SCB 
 574:C:/Users/Utente/Desktop/Tesi/Firmware_Software/DAVE project/S2GLP_Pulsed_Doppler/Libraries/CMSIS/Include\core_cm4.h **** 
 575:C:/Users/Utente/Desktop/Tesi/Firmware_Software/DAVE project/S2GLP_Pulsed_Doppler/Libraries/CMSIS/Include\core_cm4.h **** #define SCB_SHCSR_SVCALLPENDED_Pos         15U                                            /*!< SCB 
 576:C:/Users/Utente/Desktop/Tesi/Firmware_Software/DAVE project/S2GLP_Pulsed_Doppler/Libraries/CMSIS/Include\core_cm4.h **** #define SCB_SHCSR_SVCALLPENDED_Msk         (1UL << SCB_SHCSR_SVCALLPENDED_Pos)            /*!< SCB 
 577:C:/Users/Utente/Desktop/Tesi/Firmware_Software/DAVE project/S2GLP_Pulsed_Doppler/Libraries/CMSIS/Include\core_cm4.h **** 
 578:C:/Users/Utente/Desktop/Tesi/Firmware_Software/DAVE project/S2GLP_Pulsed_Doppler/Libraries/CMSIS/Include\core_cm4.h **** #define SCB_SHCSR_BUSFAULTPENDED_Pos       14U                                            /*!< SCB 
 579:C:/Users/Utente/Desktop/Tesi/Firmware_Software/DAVE project/S2GLP_Pulsed_Doppler/Libraries/CMSIS/Include\core_cm4.h **** #define SCB_SHCSR_BUSFAULTPENDED_Msk       (1UL << SCB_SHCSR_BUSFAULTPENDED_Pos)          /*!< SCB 
 580:C:/Users/Utente/Desktop/Tesi/Firmware_Software/DAVE project/S2GLP_Pulsed_Doppler/Libraries/CMSIS/Include\core_cm4.h **** 
 581:C:/Users/Utente/Desktop/Tesi/Firmware_Software/DAVE project/S2GLP_Pulsed_Doppler/Libraries/CMSIS/Include\core_cm4.h **** #define SCB_SHCSR_MEMFAULTPENDED_Pos       13U                                            /*!< SCB 
 582:C:/Users/Utente/Desktop/Tesi/Firmware_Software/DAVE project/S2GLP_Pulsed_Doppler/Libraries/CMSIS/Include\core_cm4.h **** #define SCB_SHCSR_MEMFAULTPENDED_Msk       (1UL << SCB_SHCSR_MEMFAULTPENDED_Pos)          /*!< SCB 
 583:C:/Users/Utente/Desktop/Tesi/Firmware_Software/DAVE project/S2GLP_Pulsed_Doppler/Libraries/CMSIS/Include\core_cm4.h **** 
 584:C:/Users/Utente/Desktop/Tesi/Firmware_Software/DAVE project/S2GLP_Pulsed_Doppler/Libraries/CMSIS/Include\core_cm4.h **** #define SCB_SHCSR_USGFAULTPENDED_Pos       12U                                            /*!< SCB 
 585:C:/Users/Utente/Desktop/Tesi/Firmware_Software/DAVE project/S2GLP_Pulsed_Doppler/Libraries/CMSIS/Include\core_cm4.h **** #define SCB_SHCSR_USGFAULTPENDED_Msk       (1UL << SCB_SHCSR_USGFAULTPENDED_Pos)          /*!< SCB 
 586:C:/Users/Utente/Desktop/Tesi/Firmware_Software/DAVE project/S2GLP_Pulsed_Doppler/Libraries/CMSIS/Include\core_cm4.h **** 
 587:C:/Users/Utente/Desktop/Tesi/Firmware_Software/DAVE project/S2GLP_Pulsed_Doppler/Libraries/CMSIS/Include\core_cm4.h **** #define SCB_SHCSR_SYSTICKACT_Pos           11U                                            /*!< SCB 
 588:C:/Users/Utente/Desktop/Tesi/Firmware_Software/DAVE project/S2GLP_Pulsed_Doppler/Libraries/CMSIS/Include\core_cm4.h **** #define SCB_SHCSR_SYSTICKACT_Msk           (1UL << SCB_SHCSR_SYSTICKACT_Pos)              /*!< SCB 
 589:C:/Users/Utente/Desktop/Tesi/Firmware_Software/DAVE project/S2GLP_Pulsed_Doppler/Libraries/CMSIS/Include\core_cm4.h **** 
 590:C:/Users/Utente/Desktop/Tesi/Firmware_Software/DAVE project/S2GLP_Pulsed_Doppler/Libraries/CMSIS/Include\core_cm4.h **** #define SCB_SHCSR_PENDSVACT_Pos            10U                                            /*!< SCB 
 591:C:/Users/Utente/Desktop/Tesi/Firmware_Software/DAVE project/S2GLP_Pulsed_Doppler/Libraries/CMSIS/Include\core_cm4.h **** #define SCB_SHCSR_PENDSVACT_Msk            (1UL << SCB_SHCSR_PENDSVACT_Pos)               /*!< SCB 
 592:C:/Users/Utente/Desktop/Tesi/Firmware_Software/DAVE project/S2GLP_Pulsed_Doppler/Libraries/CMSIS/Include\core_cm4.h **** 
 593:C:/Users/Utente/Desktop/Tesi/Firmware_Software/DAVE project/S2GLP_Pulsed_Doppler/Libraries/CMSIS/Include\core_cm4.h **** #define SCB_SHCSR_MONITORACT_Pos            8U                                            /*!< SCB 
 594:C:/Users/Utente/Desktop/Tesi/Firmware_Software/DAVE project/S2GLP_Pulsed_Doppler/Libraries/CMSIS/Include\core_cm4.h **** #define SCB_SHCSR_MONITORACT_Msk           (1UL << SCB_SHCSR_MONITORACT_Pos)              /*!< SCB 
 595:C:/Users/Utente/Desktop/Tesi/Firmware_Software/DAVE project/S2GLP_Pulsed_Doppler/Libraries/CMSIS/Include\core_cm4.h **** 
 596:C:/Users/Utente/Desktop/Tesi/Firmware_Software/DAVE project/S2GLP_Pulsed_Doppler/Libraries/CMSIS/Include\core_cm4.h **** #define SCB_SHCSR_SVCALLACT_Pos             7U                                            /*!< SCB 
 597:C:/Users/Utente/Desktop/Tesi/Firmware_Software/DAVE project/S2GLP_Pulsed_Doppler/Libraries/CMSIS/Include\core_cm4.h **** #define SCB_SHCSR_SVCALLACT_Msk            (1UL << SCB_SHCSR_SVCALLACT_Pos)               /*!< SCB 
 598:C:/Users/Utente/Desktop/Tesi/Firmware_Software/DAVE project/S2GLP_Pulsed_Doppler/Libraries/CMSIS/Include\core_cm4.h **** 
 599:C:/Users/Utente/Desktop/Tesi/Firmware_Software/DAVE project/S2GLP_Pulsed_Doppler/Libraries/CMSIS/Include\core_cm4.h **** #define SCB_SHCSR_USGFAULTACT_Pos           3U                                            /*!< SCB 
 600:C:/Users/Utente/Desktop/Tesi/Firmware_Software/DAVE project/S2GLP_Pulsed_Doppler/Libraries/CMSIS/Include\core_cm4.h **** #define SCB_SHCSR_USGFAULTACT_Msk          (1UL << SCB_SHCSR_USGFAULTACT_Pos)             /*!< SCB 
 601:C:/Users/Utente/Desktop/Tesi/Firmware_Software/DAVE project/S2GLP_Pulsed_Doppler/Libraries/CMSIS/Include\core_cm4.h **** 
 602:C:/Users/Utente/Desktop/Tesi/Firmware_Software/DAVE project/S2GLP_Pulsed_Doppler/Libraries/CMSIS/Include\core_cm4.h **** #define SCB_SHCSR_BUSFAULTACT_Pos           1U                                            /*!< SCB 
 603:C:/Users/Utente/Desktop/Tesi/Firmware_Software/DAVE project/S2GLP_Pulsed_Doppler/Libraries/CMSIS/Include\core_cm4.h **** #define SCB_SHCSR_BUSFAULTACT_Msk          (1UL << SCB_SHCSR_BUSFAULTACT_Pos)             /*!< SCB 
 604:C:/Users/Utente/Desktop/Tesi/Firmware_Software/DAVE project/S2GLP_Pulsed_Doppler/Libraries/CMSIS/Include\core_cm4.h **** 
 605:C:/Users/Utente/Desktop/Tesi/Firmware_Software/DAVE project/S2GLP_Pulsed_Doppler/Libraries/CMSIS/Include\core_cm4.h **** #define SCB_SHCSR_MEMFAULTACT_Pos           0U                                            /*!< SCB 
 606:C:/Users/Utente/Desktop/Tesi/Firmware_Software/DAVE project/S2GLP_Pulsed_Doppler/Libraries/CMSIS/Include\core_cm4.h **** #define SCB_SHCSR_MEMFAULTACT_Msk          (1UL /*<< SCB_SHCSR_MEMFAULTACT_Pos*/)         /*!< SCB 
 607:C:/Users/Utente/Desktop/Tesi/Firmware_Software/DAVE project/S2GLP_Pulsed_Doppler/Libraries/CMSIS/Include\core_cm4.h **** 
 608:C:/Users/Utente/Desktop/Tesi/Firmware_Software/DAVE project/S2GLP_Pulsed_Doppler/Libraries/CMSIS/Include\core_cm4.h **** /* SCB Configurable Fault Status Register Definitions */
 609:C:/Users/Utente/Desktop/Tesi/Firmware_Software/DAVE project/S2GLP_Pulsed_Doppler/Libraries/CMSIS/Include\core_cm4.h **** #define SCB_CFSR_USGFAULTSR_Pos            16U                                            /*!< SCB 
 610:C:/Users/Utente/Desktop/Tesi/Firmware_Software/DAVE project/S2GLP_Pulsed_Doppler/Libraries/CMSIS/Include\core_cm4.h **** #define SCB_CFSR_USGFAULTSR_Msk            (0xFFFFUL << SCB_CFSR_USGFAULTSR_Pos)          /*!< SCB 
 611:C:/Users/Utente/Desktop/Tesi/Firmware_Software/DAVE project/S2GLP_Pulsed_Doppler/Libraries/CMSIS/Include\core_cm4.h **** 
 612:C:/Users/Utente/Desktop/Tesi/Firmware_Software/DAVE project/S2GLP_Pulsed_Doppler/Libraries/CMSIS/Include\core_cm4.h **** #define SCB_CFSR_BUSFAULTSR_Pos             8U                                            /*!< SCB 
 613:C:/Users/Utente/Desktop/Tesi/Firmware_Software/DAVE project/S2GLP_Pulsed_Doppler/Libraries/CMSIS/Include\core_cm4.h **** #define SCB_CFSR_BUSFAULTSR_Msk            (0xFFUL << SCB_CFSR_BUSFAULTSR_Pos)            /*!< SCB 
 614:C:/Users/Utente/Desktop/Tesi/Firmware_Software/DAVE project/S2GLP_Pulsed_Doppler/Libraries/CMSIS/Include\core_cm4.h **** 
 615:C:/Users/Utente/Desktop/Tesi/Firmware_Software/DAVE project/S2GLP_Pulsed_Doppler/Libraries/CMSIS/Include\core_cm4.h **** #define SCB_CFSR_MEMFAULTSR_Pos             0U                                            /*!< SCB 
 616:C:/Users/Utente/Desktop/Tesi/Firmware_Software/DAVE project/S2GLP_Pulsed_Doppler/Libraries/CMSIS/Include\core_cm4.h **** #define SCB_CFSR_MEMFAULTSR_Msk            (0xFFUL /*<< SCB_CFSR_MEMFAULTSR_Pos*/)        /*!< SCB 
 617:C:/Users/Utente/Desktop/Tesi/Firmware_Software/DAVE project/S2GLP_Pulsed_Doppler/Libraries/CMSIS/Include\core_cm4.h **** 
 618:C:/Users/Utente/Desktop/Tesi/Firmware_Software/DAVE project/S2GLP_Pulsed_Doppler/Libraries/CMSIS/Include\core_cm4.h **** /* MemManage Fault Status Register (part of SCB Configurable Fault Status Register) */
 619:C:/Users/Utente/Desktop/Tesi/Firmware_Software/DAVE project/S2GLP_Pulsed_Doppler/Libraries/CMSIS/Include\core_cm4.h **** #define SCB_CFSR_MMARVALID_Pos             (SCB_SHCSR_MEMFAULTACT_Pos + 7U)               /*!< SCB 
 620:C:/Users/Utente/Desktop/Tesi/Firmware_Software/DAVE project/S2GLP_Pulsed_Doppler/Libraries/CMSIS/Include\core_cm4.h **** #define SCB_CFSR_MMARVALID_Msk             (1UL << SCB_CFSR_MMARVALID_Pos)                /*!< SCB 
 621:C:/Users/Utente/Desktop/Tesi/Firmware_Software/DAVE project/S2GLP_Pulsed_Doppler/Libraries/CMSIS/Include\core_cm4.h **** 
 622:C:/Users/Utente/Desktop/Tesi/Firmware_Software/DAVE project/S2GLP_Pulsed_Doppler/Libraries/CMSIS/Include\core_cm4.h **** #define SCB_CFSR_MLSPERR_Pos               (SCB_SHCSR_MEMFAULTACT_Pos + 5U)               /*!< SCB 
 623:C:/Users/Utente/Desktop/Tesi/Firmware_Software/DAVE project/S2GLP_Pulsed_Doppler/Libraries/CMSIS/Include\core_cm4.h **** #define SCB_CFSR_MLSPERR_Msk               (1UL << SCB_CFSR_MLSPERR_Pos)                  /*!< SCB 
 624:C:/Users/Utente/Desktop/Tesi/Firmware_Software/DAVE project/S2GLP_Pulsed_Doppler/Libraries/CMSIS/Include\core_cm4.h **** 
 625:C:/Users/Utente/Desktop/Tesi/Firmware_Software/DAVE project/S2GLP_Pulsed_Doppler/Libraries/CMSIS/Include\core_cm4.h **** #define SCB_CFSR_MSTKERR_Pos               (SCB_SHCSR_MEMFAULTACT_Pos + 4U)               /*!< SCB 
 626:C:/Users/Utente/Desktop/Tesi/Firmware_Software/DAVE project/S2GLP_Pulsed_Doppler/Libraries/CMSIS/Include\core_cm4.h **** #define SCB_CFSR_MSTKERR_Msk               (1UL << SCB_CFSR_MSTKERR_Pos)                  /*!< SCB 
 627:C:/Users/Utente/Desktop/Tesi/Firmware_Software/DAVE project/S2GLP_Pulsed_Doppler/Libraries/CMSIS/Include\core_cm4.h **** 
 628:C:/Users/Utente/Desktop/Tesi/Firmware_Software/DAVE project/S2GLP_Pulsed_Doppler/Libraries/CMSIS/Include\core_cm4.h **** #define SCB_CFSR_MUNSTKERR_Pos             (SCB_SHCSR_MEMFAULTACT_Pos + 3U)               /*!< SCB 
 629:C:/Users/Utente/Desktop/Tesi/Firmware_Software/DAVE project/S2GLP_Pulsed_Doppler/Libraries/CMSIS/Include\core_cm4.h **** #define SCB_CFSR_MUNSTKERR_Msk             (1UL << SCB_CFSR_MUNSTKERR_Pos)                /*!< SCB 
 630:C:/Users/Utente/Desktop/Tesi/Firmware_Software/DAVE project/S2GLP_Pulsed_Doppler/Libraries/CMSIS/Include\core_cm4.h **** 
 631:C:/Users/Utente/Desktop/Tesi/Firmware_Software/DAVE project/S2GLP_Pulsed_Doppler/Libraries/CMSIS/Include\core_cm4.h **** #define SCB_CFSR_DACCVIOL_Pos              (SCB_SHCSR_MEMFAULTACT_Pos + 1U)               /*!< SCB 
 632:C:/Users/Utente/Desktop/Tesi/Firmware_Software/DAVE project/S2GLP_Pulsed_Doppler/Libraries/CMSIS/Include\core_cm4.h **** #define SCB_CFSR_DACCVIOL_Msk              (1UL << SCB_CFSR_DACCVIOL_Pos)                 /*!< SCB 
 633:C:/Users/Utente/Desktop/Tesi/Firmware_Software/DAVE project/S2GLP_Pulsed_Doppler/Libraries/CMSIS/Include\core_cm4.h **** 
 634:C:/Users/Utente/Desktop/Tesi/Firmware_Software/DAVE project/S2GLP_Pulsed_Doppler/Libraries/CMSIS/Include\core_cm4.h **** #define SCB_CFSR_IACCVIOL_Pos              (SCB_SHCSR_MEMFAULTACT_Pos + 0U)               /*!< SCB 
 635:C:/Users/Utente/Desktop/Tesi/Firmware_Software/DAVE project/S2GLP_Pulsed_Doppler/Libraries/CMSIS/Include\core_cm4.h **** #define SCB_CFSR_IACCVIOL_Msk              (1UL /*<< SCB_CFSR_IACCVIOL_Pos*/)             /*!< SCB 
 636:C:/Users/Utente/Desktop/Tesi/Firmware_Software/DAVE project/S2GLP_Pulsed_Doppler/Libraries/CMSIS/Include\core_cm4.h **** 
 637:C:/Users/Utente/Desktop/Tesi/Firmware_Software/DAVE project/S2GLP_Pulsed_Doppler/Libraries/CMSIS/Include\core_cm4.h **** /* BusFault Status Register (part of SCB Configurable Fault Status Register) */
 638:C:/Users/Utente/Desktop/Tesi/Firmware_Software/DAVE project/S2GLP_Pulsed_Doppler/Libraries/CMSIS/Include\core_cm4.h **** #define SCB_CFSR_BFARVALID_Pos            (SCB_CFSR_BUSFAULTSR_Pos + 7U)                  /*!< SCB 
 639:C:/Users/Utente/Desktop/Tesi/Firmware_Software/DAVE project/S2GLP_Pulsed_Doppler/Libraries/CMSIS/Include\core_cm4.h **** #define SCB_CFSR_BFARVALID_Msk            (1UL << SCB_CFSR_BFARVALID_Pos)                 /*!< SCB 
 640:C:/Users/Utente/Desktop/Tesi/Firmware_Software/DAVE project/S2GLP_Pulsed_Doppler/Libraries/CMSIS/Include\core_cm4.h **** 
 641:C:/Users/Utente/Desktop/Tesi/Firmware_Software/DAVE project/S2GLP_Pulsed_Doppler/Libraries/CMSIS/Include\core_cm4.h **** #define SCB_CFSR_LSPERR_Pos               (SCB_CFSR_BUSFAULTSR_Pos + 5U)                  /*!< SCB 
 642:C:/Users/Utente/Desktop/Tesi/Firmware_Software/DAVE project/S2GLP_Pulsed_Doppler/Libraries/CMSIS/Include\core_cm4.h **** #define SCB_CFSR_LSPERR_Msk               (1UL << SCB_CFSR_LSPERR_Pos)                    /*!< SCB 
 643:C:/Users/Utente/Desktop/Tesi/Firmware_Software/DAVE project/S2GLP_Pulsed_Doppler/Libraries/CMSIS/Include\core_cm4.h **** 
 644:C:/Users/Utente/Desktop/Tesi/Firmware_Software/DAVE project/S2GLP_Pulsed_Doppler/Libraries/CMSIS/Include\core_cm4.h **** #define SCB_CFSR_STKERR_Pos               (SCB_CFSR_BUSFAULTSR_Pos + 4U)                  /*!< SCB 
 645:C:/Users/Utente/Desktop/Tesi/Firmware_Software/DAVE project/S2GLP_Pulsed_Doppler/Libraries/CMSIS/Include\core_cm4.h **** #define SCB_CFSR_STKERR_Msk               (1UL << SCB_CFSR_STKERR_Pos)                    /*!< SCB 
 646:C:/Users/Utente/Desktop/Tesi/Firmware_Software/DAVE project/S2GLP_Pulsed_Doppler/Libraries/CMSIS/Include\core_cm4.h **** 
 647:C:/Users/Utente/Desktop/Tesi/Firmware_Software/DAVE project/S2GLP_Pulsed_Doppler/Libraries/CMSIS/Include\core_cm4.h **** #define SCB_CFSR_UNSTKERR_Pos             (SCB_CFSR_BUSFAULTSR_Pos + 3U)                  /*!< SCB 
 648:C:/Users/Utente/Desktop/Tesi/Firmware_Software/DAVE project/S2GLP_Pulsed_Doppler/Libraries/CMSIS/Include\core_cm4.h **** #define SCB_CFSR_UNSTKERR_Msk             (1UL << SCB_CFSR_UNSTKERR_Pos)                  /*!< SCB 
 649:C:/Users/Utente/Desktop/Tesi/Firmware_Software/DAVE project/S2GLP_Pulsed_Doppler/Libraries/CMSIS/Include\core_cm4.h **** 
 650:C:/Users/Utente/Desktop/Tesi/Firmware_Software/DAVE project/S2GLP_Pulsed_Doppler/Libraries/CMSIS/Include\core_cm4.h **** #define SCB_CFSR_IMPRECISERR_Pos          (SCB_CFSR_BUSFAULTSR_Pos + 2U)                  /*!< SCB 
 651:C:/Users/Utente/Desktop/Tesi/Firmware_Software/DAVE project/S2GLP_Pulsed_Doppler/Libraries/CMSIS/Include\core_cm4.h **** #define SCB_CFSR_IMPRECISERR_Msk          (1UL << SCB_CFSR_IMPRECISERR_Pos)               /*!< SCB 
 652:C:/Users/Utente/Desktop/Tesi/Firmware_Software/DAVE project/S2GLP_Pulsed_Doppler/Libraries/CMSIS/Include\core_cm4.h **** 
 653:C:/Users/Utente/Desktop/Tesi/Firmware_Software/DAVE project/S2GLP_Pulsed_Doppler/Libraries/CMSIS/Include\core_cm4.h **** #define SCB_CFSR_PRECISERR_Pos            (SCB_CFSR_BUSFAULTSR_Pos + 1U)                  /*!< SCB 
 654:C:/Users/Utente/Desktop/Tesi/Firmware_Software/DAVE project/S2GLP_Pulsed_Doppler/Libraries/CMSIS/Include\core_cm4.h **** #define SCB_CFSR_PRECISERR_Msk            (1UL << SCB_CFSR_PRECISERR_Pos)                 /*!< SCB 
 655:C:/Users/Utente/Desktop/Tesi/Firmware_Software/DAVE project/S2GLP_Pulsed_Doppler/Libraries/CMSIS/Include\core_cm4.h **** 
 656:C:/Users/Utente/Desktop/Tesi/Firmware_Software/DAVE project/S2GLP_Pulsed_Doppler/Libraries/CMSIS/Include\core_cm4.h **** #define SCB_CFSR_IBUSERR_Pos              (SCB_CFSR_BUSFAULTSR_Pos + 0U)                  /*!< SCB 
 657:C:/Users/Utente/Desktop/Tesi/Firmware_Software/DAVE project/S2GLP_Pulsed_Doppler/Libraries/CMSIS/Include\core_cm4.h **** #define SCB_CFSR_IBUSERR_Msk              (1UL << SCB_CFSR_IBUSERR_Pos)                   /*!< SCB 
 658:C:/Users/Utente/Desktop/Tesi/Firmware_Software/DAVE project/S2GLP_Pulsed_Doppler/Libraries/CMSIS/Include\core_cm4.h **** 
 659:C:/Users/Utente/Desktop/Tesi/Firmware_Software/DAVE project/S2GLP_Pulsed_Doppler/Libraries/CMSIS/Include\core_cm4.h **** /* UsageFault Status Register (part of SCB Configurable Fault Status Register) */
 660:C:/Users/Utente/Desktop/Tesi/Firmware_Software/DAVE project/S2GLP_Pulsed_Doppler/Libraries/CMSIS/Include\core_cm4.h **** #define SCB_CFSR_DIVBYZERO_Pos            (SCB_CFSR_USGFAULTSR_Pos + 9U)                  /*!< SCB 
 661:C:/Users/Utente/Desktop/Tesi/Firmware_Software/DAVE project/S2GLP_Pulsed_Doppler/Libraries/CMSIS/Include\core_cm4.h **** #define SCB_CFSR_DIVBYZERO_Msk            (1UL << SCB_CFSR_DIVBYZERO_Pos)                 /*!< SCB 
 662:C:/Users/Utente/Desktop/Tesi/Firmware_Software/DAVE project/S2GLP_Pulsed_Doppler/Libraries/CMSIS/Include\core_cm4.h **** 
 663:C:/Users/Utente/Desktop/Tesi/Firmware_Software/DAVE project/S2GLP_Pulsed_Doppler/Libraries/CMSIS/Include\core_cm4.h **** #define SCB_CFSR_UNALIGNED_Pos            (SCB_CFSR_USGFAULTSR_Pos + 8U)                  /*!< SCB 
 664:C:/Users/Utente/Desktop/Tesi/Firmware_Software/DAVE project/S2GLP_Pulsed_Doppler/Libraries/CMSIS/Include\core_cm4.h **** #define SCB_CFSR_UNALIGNED_Msk            (1UL << SCB_CFSR_UNALIGNED_Pos)                 /*!< SCB 
 665:C:/Users/Utente/Desktop/Tesi/Firmware_Software/DAVE project/S2GLP_Pulsed_Doppler/Libraries/CMSIS/Include\core_cm4.h **** 
 666:C:/Users/Utente/Desktop/Tesi/Firmware_Software/DAVE project/S2GLP_Pulsed_Doppler/Libraries/CMSIS/Include\core_cm4.h **** #define SCB_CFSR_NOCP_Pos                 (SCB_CFSR_USGFAULTSR_Pos + 3U)                  /*!< SCB 
 667:C:/Users/Utente/Desktop/Tesi/Firmware_Software/DAVE project/S2GLP_Pulsed_Doppler/Libraries/CMSIS/Include\core_cm4.h **** #define SCB_CFSR_NOCP_Msk                 (1UL << SCB_CFSR_NOCP_Pos)                      /*!< SCB 
 668:C:/Users/Utente/Desktop/Tesi/Firmware_Software/DAVE project/S2GLP_Pulsed_Doppler/Libraries/CMSIS/Include\core_cm4.h **** 
 669:C:/Users/Utente/Desktop/Tesi/Firmware_Software/DAVE project/S2GLP_Pulsed_Doppler/Libraries/CMSIS/Include\core_cm4.h **** #define SCB_CFSR_INVPC_Pos                (SCB_CFSR_USGFAULTSR_Pos + 2U)                  /*!< SCB 
 670:C:/Users/Utente/Desktop/Tesi/Firmware_Software/DAVE project/S2GLP_Pulsed_Doppler/Libraries/CMSIS/Include\core_cm4.h **** #define SCB_CFSR_INVPC_Msk                (1UL << SCB_CFSR_INVPC_Pos)                     /*!< SCB 
 671:C:/Users/Utente/Desktop/Tesi/Firmware_Software/DAVE project/S2GLP_Pulsed_Doppler/Libraries/CMSIS/Include\core_cm4.h **** 
 672:C:/Users/Utente/Desktop/Tesi/Firmware_Software/DAVE project/S2GLP_Pulsed_Doppler/Libraries/CMSIS/Include\core_cm4.h **** #define SCB_CFSR_INVSTATE_Pos             (SCB_CFSR_USGFAULTSR_Pos + 1U)                  /*!< SCB 
 673:C:/Users/Utente/Desktop/Tesi/Firmware_Software/DAVE project/S2GLP_Pulsed_Doppler/Libraries/CMSIS/Include\core_cm4.h **** #define SCB_CFSR_INVSTATE_Msk             (1UL << SCB_CFSR_INVSTATE_Pos)                  /*!< SCB 
 674:C:/Users/Utente/Desktop/Tesi/Firmware_Software/DAVE project/S2GLP_Pulsed_Doppler/Libraries/CMSIS/Include\core_cm4.h **** 
 675:C:/Users/Utente/Desktop/Tesi/Firmware_Software/DAVE project/S2GLP_Pulsed_Doppler/Libraries/CMSIS/Include\core_cm4.h **** #define SCB_CFSR_UNDEFINSTR_Pos           (SCB_CFSR_USGFAULTSR_Pos + 0U)                  /*!< SCB 
 676:C:/Users/Utente/Desktop/Tesi/Firmware_Software/DAVE project/S2GLP_Pulsed_Doppler/Libraries/CMSIS/Include\core_cm4.h **** #define SCB_CFSR_UNDEFINSTR_Msk           (1UL << SCB_CFSR_UNDEFINSTR_Pos)                /*!< SCB 
 677:C:/Users/Utente/Desktop/Tesi/Firmware_Software/DAVE project/S2GLP_Pulsed_Doppler/Libraries/CMSIS/Include\core_cm4.h **** 
 678:C:/Users/Utente/Desktop/Tesi/Firmware_Software/DAVE project/S2GLP_Pulsed_Doppler/Libraries/CMSIS/Include\core_cm4.h **** /* SCB Hard Fault Status Register Definitions */
 679:C:/Users/Utente/Desktop/Tesi/Firmware_Software/DAVE project/S2GLP_Pulsed_Doppler/Libraries/CMSIS/Include\core_cm4.h **** #define SCB_HFSR_DEBUGEVT_Pos              31U                                            /*!< SCB 
 680:C:/Users/Utente/Desktop/Tesi/Firmware_Software/DAVE project/S2GLP_Pulsed_Doppler/Libraries/CMSIS/Include\core_cm4.h **** #define SCB_HFSR_DEBUGEVT_Msk              (1UL << SCB_HFSR_DEBUGEVT_Pos)                 /*!< SCB 
 681:C:/Users/Utente/Desktop/Tesi/Firmware_Software/DAVE project/S2GLP_Pulsed_Doppler/Libraries/CMSIS/Include\core_cm4.h **** 
 682:C:/Users/Utente/Desktop/Tesi/Firmware_Software/DAVE project/S2GLP_Pulsed_Doppler/Libraries/CMSIS/Include\core_cm4.h **** #define SCB_HFSR_FORCED_Pos                30U                                            /*!< SCB 
 683:C:/Users/Utente/Desktop/Tesi/Firmware_Software/DAVE project/S2GLP_Pulsed_Doppler/Libraries/CMSIS/Include\core_cm4.h **** #define SCB_HFSR_FORCED_Msk                (1UL << SCB_HFSR_FORCED_Pos)                   /*!< SCB 
 684:C:/Users/Utente/Desktop/Tesi/Firmware_Software/DAVE project/S2GLP_Pulsed_Doppler/Libraries/CMSIS/Include\core_cm4.h **** 
 685:C:/Users/Utente/Desktop/Tesi/Firmware_Software/DAVE project/S2GLP_Pulsed_Doppler/Libraries/CMSIS/Include\core_cm4.h **** #define SCB_HFSR_VECTTBL_Pos                1U                                            /*!< SCB 
 686:C:/Users/Utente/Desktop/Tesi/Firmware_Software/DAVE project/S2GLP_Pulsed_Doppler/Libraries/CMSIS/Include\core_cm4.h **** #define SCB_HFSR_VECTTBL_Msk               (1UL << SCB_HFSR_VECTTBL_Pos)                  /*!< SCB 
 687:C:/Users/Utente/Desktop/Tesi/Firmware_Software/DAVE project/S2GLP_Pulsed_Doppler/Libraries/CMSIS/Include\core_cm4.h **** 
 688:C:/Users/Utente/Desktop/Tesi/Firmware_Software/DAVE project/S2GLP_Pulsed_Doppler/Libraries/CMSIS/Include\core_cm4.h **** /* SCB Debug Fault Status Register Definitions */
 689:C:/Users/Utente/Desktop/Tesi/Firmware_Software/DAVE project/S2GLP_Pulsed_Doppler/Libraries/CMSIS/Include\core_cm4.h **** #define SCB_DFSR_EXTERNAL_Pos               4U                                            /*!< SCB 
 690:C:/Users/Utente/Desktop/Tesi/Firmware_Software/DAVE project/S2GLP_Pulsed_Doppler/Libraries/CMSIS/Include\core_cm4.h **** #define SCB_DFSR_EXTERNAL_Msk              (1UL << SCB_DFSR_EXTERNAL_Pos)                 /*!< SCB 
 691:C:/Users/Utente/Desktop/Tesi/Firmware_Software/DAVE project/S2GLP_Pulsed_Doppler/Libraries/CMSIS/Include\core_cm4.h **** 
 692:C:/Users/Utente/Desktop/Tesi/Firmware_Software/DAVE project/S2GLP_Pulsed_Doppler/Libraries/CMSIS/Include\core_cm4.h **** #define SCB_DFSR_VCATCH_Pos                 3U                                            /*!< SCB 
 693:C:/Users/Utente/Desktop/Tesi/Firmware_Software/DAVE project/S2GLP_Pulsed_Doppler/Libraries/CMSIS/Include\core_cm4.h **** #define SCB_DFSR_VCATCH_Msk                (1UL << SCB_DFSR_VCATCH_Pos)                   /*!< SCB 
 694:C:/Users/Utente/Desktop/Tesi/Firmware_Software/DAVE project/S2GLP_Pulsed_Doppler/Libraries/CMSIS/Include\core_cm4.h **** 
 695:C:/Users/Utente/Desktop/Tesi/Firmware_Software/DAVE project/S2GLP_Pulsed_Doppler/Libraries/CMSIS/Include\core_cm4.h **** #define SCB_DFSR_DWTTRAP_Pos                2U                                            /*!< SCB 
 696:C:/Users/Utente/Desktop/Tesi/Firmware_Software/DAVE project/S2GLP_Pulsed_Doppler/Libraries/CMSIS/Include\core_cm4.h **** #define SCB_DFSR_DWTTRAP_Msk               (1UL << SCB_DFSR_DWTTRAP_Pos)                  /*!< SCB 
 697:C:/Users/Utente/Desktop/Tesi/Firmware_Software/DAVE project/S2GLP_Pulsed_Doppler/Libraries/CMSIS/Include\core_cm4.h **** 
 698:C:/Users/Utente/Desktop/Tesi/Firmware_Software/DAVE project/S2GLP_Pulsed_Doppler/Libraries/CMSIS/Include\core_cm4.h **** #define SCB_DFSR_BKPT_Pos                   1U                                            /*!< SCB 
 699:C:/Users/Utente/Desktop/Tesi/Firmware_Software/DAVE project/S2GLP_Pulsed_Doppler/Libraries/CMSIS/Include\core_cm4.h **** #define SCB_DFSR_BKPT_Msk                  (1UL << SCB_DFSR_BKPT_Pos)                     /*!< SCB 
 700:C:/Users/Utente/Desktop/Tesi/Firmware_Software/DAVE project/S2GLP_Pulsed_Doppler/Libraries/CMSIS/Include\core_cm4.h **** 
 701:C:/Users/Utente/Desktop/Tesi/Firmware_Software/DAVE project/S2GLP_Pulsed_Doppler/Libraries/CMSIS/Include\core_cm4.h **** #define SCB_DFSR_HALTED_Pos                 0U                                            /*!< SCB 
 702:C:/Users/Utente/Desktop/Tesi/Firmware_Software/DAVE project/S2GLP_Pulsed_Doppler/Libraries/CMSIS/Include\core_cm4.h **** #define SCB_DFSR_HALTED_Msk                (1UL /*<< SCB_DFSR_HALTED_Pos*/)               /*!< SCB 
 703:C:/Users/Utente/Desktop/Tesi/Firmware_Software/DAVE project/S2GLP_Pulsed_Doppler/Libraries/CMSIS/Include\core_cm4.h **** 
 704:C:/Users/Utente/Desktop/Tesi/Firmware_Software/DAVE project/S2GLP_Pulsed_Doppler/Libraries/CMSIS/Include\core_cm4.h **** /*@} end of group CMSIS_SCB */
 705:C:/Users/Utente/Desktop/Tesi/Firmware_Software/DAVE project/S2GLP_Pulsed_Doppler/Libraries/CMSIS/Include\core_cm4.h **** 
 706:C:/Users/Utente/Desktop/Tesi/Firmware_Software/DAVE project/S2GLP_Pulsed_Doppler/Libraries/CMSIS/Include\core_cm4.h **** 
 707:C:/Users/Utente/Desktop/Tesi/Firmware_Software/DAVE project/S2GLP_Pulsed_Doppler/Libraries/CMSIS/Include\core_cm4.h **** /**
 708:C:/Users/Utente/Desktop/Tesi/Firmware_Software/DAVE project/S2GLP_Pulsed_Doppler/Libraries/CMSIS/Include\core_cm4.h ****   \ingroup  CMSIS_core_register
 709:C:/Users/Utente/Desktop/Tesi/Firmware_Software/DAVE project/S2GLP_Pulsed_Doppler/Libraries/CMSIS/Include\core_cm4.h ****   \defgroup CMSIS_SCnSCB System Controls not in SCB (SCnSCB)
 710:C:/Users/Utente/Desktop/Tesi/Firmware_Software/DAVE project/S2GLP_Pulsed_Doppler/Libraries/CMSIS/Include\core_cm4.h ****   \brief    Type definitions for the System Control and ID Register not in the SCB
 711:C:/Users/Utente/Desktop/Tesi/Firmware_Software/DAVE project/S2GLP_Pulsed_Doppler/Libraries/CMSIS/Include\core_cm4.h ****   @{
 712:C:/Users/Utente/Desktop/Tesi/Firmware_Software/DAVE project/S2GLP_Pulsed_Doppler/Libraries/CMSIS/Include\core_cm4.h ****  */
 713:C:/Users/Utente/Desktop/Tesi/Firmware_Software/DAVE project/S2GLP_Pulsed_Doppler/Libraries/CMSIS/Include\core_cm4.h **** 
 714:C:/Users/Utente/Desktop/Tesi/Firmware_Software/DAVE project/S2GLP_Pulsed_Doppler/Libraries/CMSIS/Include\core_cm4.h **** /**
 715:C:/Users/Utente/Desktop/Tesi/Firmware_Software/DAVE project/S2GLP_Pulsed_Doppler/Libraries/CMSIS/Include\core_cm4.h ****   \brief  Structure type to access the System Control and ID Register not in the SCB.
 716:C:/Users/Utente/Desktop/Tesi/Firmware_Software/DAVE project/S2GLP_Pulsed_Doppler/Libraries/CMSIS/Include\core_cm4.h ****  */
 717:C:/Users/Utente/Desktop/Tesi/Firmware_Software/DAVE project/S2GLP_Pulsed_Doppler/Libraries/CMSIS/Include\core_cm4.h **** typedef struct
 718:C:/Users/Utente/Desktop/Tesi/Firmware_Software/DAVE project/S2GLP_Pulsed_Doppler/Libraries/CMSIS/Include\core_cm4.h **** {
 719:C:/Users/Utente/Desktop/Tesi/Firmware_Software/DAVE project/S2GLP_Pulsed_Doppler/Libraries/CMSIS/Include\core_cm4.h ****         uint32_t RESERVED0[1U];
 720:C:/Users/Utente/Desktop/Tesi/Firmware_Software/DAVE project/S2GLP_Pulsed_Doppler/Libraries/CMSIS/Include\core_cm4.h ****   __IM  uint32_t ICTR;                   /*!< Offset: 0x004 (R/ )  Interrupt Controller Type Regist
 721:C:/Users/Utente/Desktop/Tesi/Firmware_Software/DAVE project/S2GLP_Pulsed_Doppler/Libraries/CMSIS/Include\core_cm4.h ****   __IOM uint32_t ACTLR;                  /*!< Offset: 0x008 (R/W)  Auxiliary Control Register */
 722:C:/Users/Utente/Desktop/Tesi/Firmware_Software/DAVE project/S2GLP_Pulsed_Doppler/Libraries/CMSIS/Include\core_cm4.h **** } SCnSCB_Type;
 723:C:/Users/Utente/Desktop/Tesi/Firmware_Software/DAVE project/S2GLP_Pulsed_Doppler/Libraries/CMSIS/Include\core_cm4.h **** 
 724:C:/Users/Utente/Desktop/Tesi/Firmware_Software/DAVE project/S2GLP_Pulsed_Doppler/Libraries/CMSIS/Include\core_cm4.h **** /* Interrupt Controller Type Register Definitions */
 725:C:/Users/Utente/Desktop/Tesi/Firmware_Software/DAVE project/S2GLP_Pulsed_Doppler/Libraries/CMSIS/Include\core_cm4.h **** #define SCnSCB_ICTR_INTLINESNUM_Pos         0U                                         /*!< ICTR: I
 726:C:/Users/Utente/Desktop/Tesi/Firmware_Software/DAVE project/S2GLP_Pulsed_Doppler/Libraries/CMSIS/Include\core_cm4.h **** #define SCnSCB_ICTR_INTLINESNUM_Msk        (0xFUL /*<< SCnSCB_ICTR_INTLINESNUM_Pos*/)  /*!< ICTR: I
 727:C:/Users/Utente/Desktop/Tesi/Firmware_Software/DAVE project/S2GLP_Pulsed_Doppler/Libraries/CMSIS/Include\core_cm4.h **** 
 728:C:/Users/Utente/Desktop/Tesi/Firmware_Software/DAVE project/S2GLP_Pulsed_Doppler/Libraries/CMSIS/Include\core_cm4.h **** /* Auxiliary Control Register Definitions */
 729:C:/Users/Utente/Desktop/Tesi/Firmware_Software/DAVE project/S2GLP_Pulsed_Doppler/Libraries/CMSIS/Include\core_cm4.h **** #define SCnSCB_ACTLR_DISOOFP_Pos            9U                                         /*!< ACTLR: 
 730:C:/Users/Utente/Desktop/Tesi/Firmware_Software/DAVE project/S2GLP_Pulsed_Doppler/Libraries/CMSIS/Include\core_cm4.h **** #define SCnSCB_ACTLR_DISOOFP_Msk           (1UL << SCnSCB_ACTLR_DISOOFP_Pos)           /*!< ACTLR: 
 731:C:/Users/Utente/Desktop/Tesi/Firmware_Software/DAVE project/S2GLP_Pulsed_Doppler/Libraries/CMSIS/Include\core_cm4.h **** 
 732:C:/Users/Utente/Desktop/Tesi/Firmware_Software/DAVE project/S2GLP_Pulsed_Doppler/Libraries/CMSIS/Include\core_cm4.h **** #define SCnSCB_ACTLR_DISFPCA_Pos            8U                                         /*!< ACTLR: 
 733:C:/Users/Utente/Desktop/Tesi/Firmware_Software/DAVE project/S2GLP_Pulsed_Doppler/Libraries/CMSIS/Include\core_cm4.h **** #define SCnSCB_ACTLR_DISFPCA_Msk           (1UL << SCnSCB_ACTLR_DISFPCA_Pos)           /*!< ACTLR: 
 734:C:/Users/Utente/Desktop/Tesi/Firmware_Software/DAVE project/S2GLP_Pulsed_Doppler/Libraries/CMSIS/Include\core_cm4.h **** 
 735:C:/Users/Utente/Desktop/Tesi/Firmware_Software/DAVE project/S2GLP_Pulsed_Doppler/Libraries/CMSIS/Include\core_cm4.h **** #define SCnSCB_ACTLR_DISFOLD_Pos            2U                                         /*!< ACTLR: 
 736:C:/Users/Utente/Desktop/Tesi/Firmware_Software/DAVE project/S2GLP_Pulsed_Doppler/Libraries/CMSIS/Include\core_cm4.h **** #define SCnSCB_ACTLR_DISFOLD_Msk           (1UL << SCnSCB_ACTLR_DISFOLD_Pos)           /*!< ACTLR: 
 737:C:/Users/Utente/Desktop/Tesi/Firmware_Software/DAVE project/S2GLP_Pulsed_Doppler/Libraries/CMSIS/Include\core_cm4.h **** 
 738:C:/Users/Utente/Desktop/Tesi/Firmware_Software/DAVE project/S2GLP_Pulsed_Doppler/Libraries/CMSIS/Include\core_cm4.h **** #define SCnSCB_ACTLR_DISDEFWBUF_Pos         1U                                         /*!< ACTLR: 
 739:C:/Users/Utente/Desktop/Tesi/Firmware_Software/DAVE project/S2GLP_Pulsed_Doppler/Libraries/CMSIS/Include\core_cm4.h **** #define SCnSCB_ACTLR_DISDEFWBUF_Msk        (1UL << SCnSCB_ACTLR_DISDEFWBUF_Pos)        /*!< ACTLR: 
 740:C:/Users/Utente/Desktop/Tesi/Firmware_Software/DAVE project/S2GLP_Pulsed_Doppler/Libraries/CMSIS/Include\core_cm4.h **** 
 741:C:/Users/Utente/Desktop/Tesi/Firmware_Software/DAVE project/S2GLP_Pulsed_Doppler/Libraries/CMSIS/Include\core_cm4.h **** #define SCnSCB_ACTLR_DISMCYCINT_Pos         0U                                         /*!< ACTLR: 
 742:C:/Users/Utente/Desktop/Tesi/Firmware_Software/DAVE project/S2GLP_Pulsed_Doppler/Libraries/CMSIS/Include\core_cm4.h **** #define SCnSCB_ACTLR_DISMCYCINT_Msk        (1UL /*<< SCnSCB_ACTLR_DISMCYCINT_Pos*/)    /*!< ACTLR: 
 743:C:/Users/Utente/Desktop/Tesi/Firmware_Software/DAVE project/S2GLP_Pulsed_Doppler/Libraries/CMSIS/Include\core_cm4.h **** 
 744:C:/Users/Utente/Desktop/Tesi/Firmware_Software/DAVE project/S2GLP_Pulsed_Doppler/Libraries/CMSIS/Include\core_cm4.h **** /*@} end of group CMSIS_SCnotSCB */
 745:C:/Users/Utente/Desktop/Tesi/Firmware_Software/DAVE project/S2GLP_Pulsed_Doppler/Libraries/CMSIS/Include\core_cm4.h **** 
 746:C:/Users/Utente/Desktop/Tesi/Firmware_Software/DAVE project/S2GLP_Pulsed_Doppler/Libraries/CMSIS/Include\core_cm4.h **** 
 747:C:/Users/Utente/Desktop/Tesi/Firmware_Software/DAVE project/S2GLP_Pulsed_Doppler/Libraries/CMSIS/Include\core_cm4.h **** /**
 748:C:/Users/Utente/Desktop/Tesi/Firmware_Software/DAVE project/S2GLP_Pulsed_Doppler/Libraries/CMSIS/Include\core_cm4.h ****   \ingroup  CMSIS_core_register
 749:C:/Users/Utente/Desktop/Tesi/Firmware_Software/DAVE project/S2GLP_Pulsed_Doppler/Libraries/CMSIS/Include\core_cm4.h ****   \defgroup CMSIS_SysTick     System Tick Timer (SysTick)
 750:C:/Users/Utente/Desktop/Tesi/Firmware_Software/DAVE project/S2GLP_Pulsed_Doppler/Libraries/CMSIS/Include\core_cm4.h ****   \brief    Type definitions for the System Timer Registers.
 751:C:/Users/Utente/Desktop/Tesi/Firmware_Software/DAVE project/S2GLP_Pulsed_Doppler/Libraries/CMSIS/Include\core_cm4.h ****   @{
 752:C:/Users/Utente/Desktop/Tesi/Firmware_Software/DAVE project/S2GLP_Pulsed_Doppler/Libraries/CMSIS/Include\core_cm4.h ****  */
 753:C:/Users/Utente/Desktop/Tesi/Firmware_Software/DAVE project/S2GLP_Pulsed_Doppler/Libraries/CMSIS/Include\core_cm4.h **** 
 754:C:/Users/Utente/Desktop/Tesi/Firmware_Software/DAVE project/S2GLP_Pulsed_Doppler/Libraries/CMSIS/Include\core_cm4.h **** /**
 755:C:/Users/Utente/Desktop/Tesi/Firmware_Software/DAVE project/S2GLP_Pulsed_Doppler/Libraries/CMSIS/Include\core_cm4.h ****   \brief  Structure type to access the System Timer (SysTick).
 756:C:/Users/Utente/Desktop/Tesi/Firmware_Software/DAVE project/S2GLP_Pulsed_Doppler/Libraries/CMSIS/Include\core_cm4.h ****  */
 757:C:/Users/Utente/Desktop/Tesi/Firmware_Software/DAVE project/S2GLP_Pulsed_Doppler/Libraries/CMSIS/Include\core_cm4.h **** typedef struct
 758:C:/Users/Utente/Desktop/Tesi/Firmware_Software/DAVE project/S2GLP_Pulsed_Doppler/Libraries/CMSIS/Include\core_cm4.h **** {
 759:C:/Users/Utente/Desktop/Tesi/Firmware_Software/DAVE project/S2GLP_Pulsed_Doppler/Libraries/CMSIS/Include\core_cm4.h ****   __IOM uint32_t CTRL;                   /*!< Offset: 0x000 (R/W)  SysTick Control and Status Regis
 760:C:/Users/Utente/Desktop/Tesi/Firmware_Software/DAVE project/S2GLP_Pulsed_Doppler/Libraries/CMSIS/Include\core_cm4.h ****   __IOM uint32_t LOAD;                   /*!< Offset: 0x004 (R/W)  SysTick Reload Value Register */
 761:C:/Users/Utente/Desktop/Tesi/Firmware_Software/DAVE project/S2GLP_Pulsed_Doppler/Libraries/CMSIS/Include\core_cm4.h ****   __IOM uint32_t VAL;                    /*!< Offset: 0x008 (R/W)  SysTick Current Value Register *
 762:C:/Users/Utente/Desktop/Tesi/Firmware_Software/DAVE project/S2GLP_Pulsed_Doppler/Libraries/CMSIS/Include\core_cm4.h ****   __IM  uint32_t CALIB;                  /*!< Offset: 0x00C (R/ )  SysTick Calibration Register */
 763:C:/Users/Utente/Desktop/Tesi/Firmware_Software/DAVE project/S2GLP_Pulsed_Doppler/Libraries/CMSIS/Include\core_cm4.h **** } SysTick_Type;
 764:C:/Users/Utente/Desktop/Tesi/Firmware_Software/DAVE project/S2GLP_Pulsed_Doppler/Libraries/CMSIS/Include\core_cm4.h **** 
 765:C:/Users/Utente/Desktop/Tesi/Firmware_Software/DAVE project/S2GLP_Pulsed_Doppler/Libraries/CMSIS/Include\core_cm4.h **** /* SysTick Control / Status Register Definitions */
 766:C:/Users/Utente/Desktop/Tesi/Firmware_Software/DAVE project/S2GLP_Pulsed_Doppler/Libraries/CMSIS/Include\core_cm4.h **** #define SysTick_CTRL_COUNTFLAG_Pos         16U                                            /*!< SysT
 767:C:/Users/Utente/Desktop/Tesi/Firmware_Software/DAVE project/S2GLP_Pulsed_Doppler/Libraries/CMSIS/Include\core_cm4.h **** #define SysTick_CTRL_COUNTFLAG_Msk         (1UL << SysTick_CTRL_COUNTFLAG_Pos)            /*!< SysT
 768:C:/Users/Utente/Desktop/Tesi/Firmware_Software/DAVE project/S2GLP_Pulsed_Doppler/Libraries/CMSIS/Include\core_cm4.h **** 
 769:C:/Users/Utente/Desktop/Tesi/Firmware_Software/DAVE project/S2GLP_Pulsed_Doppler/Libraries/CMSIS/Include\core_cm4.h **** #define SysTick_CTRL_CLKSOURCE_Pos          2U                                            /*!< SysT
 770:C:/Users/Utente/Desktop/Tesi/Firmware_Software/DAVE project/S2GLP_Pulsed_Doppler/Libraries/CMSIS/Include\core_cm4.h **** #define SysTick_CTRL_CLKSOURCE_Msk         (1UL << SysTick_CTRL_CLKSOURCE_Pos)            /*!< SysT
 771:C:/Users/Utente/Desktop/Tesi/Firmware_Software/DAVE project/S2GLP_Pulsed_Doppler/Libraries/CMSIS/Include\core_cm4.h **** 
 772:C:/Users/Utente/Desktop/Tesi/Firmware_Software/DAVE project/S2GLP_Pulsed_Doppler/Libraries/CMSIS/Include\core_cm4.h **** #define SysTick_CTRL_TICKINT_Pos            1U                                            /*!< SysT
 773:C:/Users/Utente/Desktop/Tesi/Firmware_Software/DAVE project/S2GLP_Pulsed_Doppler/Libraries/CMSIS/Include\core_cm4.h **** #define SysTick_CTRL_TICKINT_Msk           (1UL << SysTick_CTRL_TICKINT_Pos)              /*!< SysT
 774:C:/Users/Utente/Desktop/Tesi/Firmware_Software/DAVE project/S2GLP_Pulsed_Doppler/Libraries/CMSIS/Include\core_cm4.h **** 
 775:C:/Users/Utente/Desktop/Tesi/Firmware_Software/DAVE project/S2GLP_Pulsed_Doppler/Libraries/CMSIS/Include\core_cm4.h **** #define SysTick_CTRL_ENABLE_Pos             0U                                            /*!< SysT
 776:C:/Users/Utente/Desktop/Tesi/Firmware_Software/DAVE project/S2GLP_Pulsed_Doppler/Libraries/CMSIS/Include\core_cm4.h **** #define SysTick_CTRL_ENABLE_Msk            (1UL /*<< SysTick_CTRL_ENABLE_Pos*/)           /*!< SysT
 777:C:/Users/Utente/Desktop/Tesi/Firmware_Software/DAVE project/S2GLP_Pulsed_Doppler/Libraries/CMSIS/Include\core_cm4.h **** 
 778:C:/Users/Utente/Desktop/Tesi/Firmware_Software/DAVE project/S2GLP_Pulsed_Doppler/Libraries/CMSIS/Include\core_cm4.h **** /* SysTick Reload Register Definitions */
 779:C:/Users/Utente/Desktop/Tesi/Firmware_Software/DAVE project/S2GLP_Pulsed_Doppler/Libraries/CMSIS/Include\core_cm4.h **** #define SysTick_LOAD_RELOAD_Pos             0U                                            /*!< SysT
 780:C:/Users/Utente/Desktop/Tesi/Firmware_Software/DAVE project/S2GLP_Pulsed_Doppler/Libraries/CMSIS/Include\core_cm4.h **** #define SysTick_LOAD_RELOAD_Msk            (0xFFFFFFUL /*<< SysTick_LOAD_RELOAD_Pos*/)    /*!< SysT
 781:C:/Users/Utente/Desktop/Tesi/Firmware_Software/DAVE project/S2GLP_Pulsed_Doppler/Libraries/CMSIS/Include\core_cm4.h **** 
 782:C:/Users/Utente/Desktop/Tesi/Firmware_Software/DAVE project/S2GLP_Pulsed_Doppler/Libraries/CMSIS/Include\core_cm4.h **** /* SysTick Current Register Definitions */
 783:C:/Users/Utente/Desktop/Tesi/Firmware_Software/DAVE project/S2GLP_Pulsed_Doppler/Libraries/CMSIS/Include\core_cm4.h **** #define SysTick_VAL_CURRENT_Pos             0U                                            /*!< SysT
 784:C:/Users/Utente/Desktop/Tesi/Firmware_Software/DAVE project/S2GLP_Pulsed_Doppler/Libraries/CMSIS/Include\core_cm4.h **** #define SysTick_VAL_CURRENT_Msk            (0xFFFFFFUL /*<< SysTick_VAL_CURRENT_Pos*/)    /*!< SysT
 785:C:/Users/Utente/Desktop/Tesi/Firmware_Software/DAVE project/S2GLP_Pulsed_Doppler/Libraries/CMSIS/Include\core_cm4.h **** 
 786:C:/Users/Utente/Desktop/Tesi/Firmware_Software/DAVE project/S2GLP_Pulsed_Doppler/Libraries/CMSIS/Include\core_cm4.h **** /* SysTick Calibration Register Definitions */
 787:C:/Users/Utente/Desktop/Tesi/Firmware_Software/DAVE project/S2GLP_Pulsed_Doppler/Libraries/CMSIS/Include\core_cm4.h **** #define SysTick_CALIB_NOREF_Pos            31U                                            /*!< SysT
 788:C:/Users/Utente/Desktop/Tesi/Firmware_Software/DAVE project/S2GLP_Pulsed_Doppler/Libraries/CMSIS/Include\core_cm4.h **** #define SysTick_CALIB_NOREF_Msk            (1UL << SysTick_CALIB_NOREF_Pos)               /*!< SysT
 789:C:/Users/Utente/Desktop/Tesi/Firmware_Software/DAVE project/S2GLP_Pulsed_Doppler/Libraries/CMSIS/Include\core_cm4.h **** 
 790:C:/Users/Utente/Desktop/Tesi/Firmware_Software/DAVE project/S2GLP_Pulsed_Doppler/Libraries/CMSIS/Include\core_cm4.h **** #define SysTick_CALIB_SKEW_Pos             30U                                            /*!< SysT
 791:C:/Users/Utente/Desktop/Tesi/Firmware_Software/DAVE project/S2GLP_Pulsed_Doppler/Libraries/CMSIS/Include\core_cm4.h **** #define SysTick_CALIB_SKEW_Msk             (1UL << SysTick_CALIB_SKEW_Pos)                /*!< SysT
 792:C:/Users/Utente/Desktop/Tesi/Firmware_Software/DAVE project/S2GLP_Pulsed_Doppler/Libraries/CMSIS/Include\core_cm4.h **** 
 793:C:/Users/Utente/Desktop/Tesi/Firmware_Software/DAVE project/S2GLP_Pulsed_Doppler/Libraries/CMSIS/Include\core_cm4.h **** #define SysTick_CALIB_TENMS_Pos             0U                                            /*!< SysT
 794:C:/Users/Utente/Desktop/Tesi/Firmware_Software/DAVE project/S2GLP_Pulsed_Doppler/Libraries/CMSIS/Include\core_cm4.h **** #define SysTick_CALIB_TENMS_Msk            (0xFFFFFFUL /*<< SysTick_CALIB_TENMS_Pos*/)    /*!< SysT
 795:C:/Users/Utente/Desktop/Tesi/Firmware_Software/DAVE project/S2GLP_Pulsed_Doppler/Libraries/CMSIS/Include\core_cm4.h **** 
 796:C:/Users/Utente/Desktop/Tesi/Firmware_Software/DAVE project/S2GLP_Pulsed_Doppler/Libraries/CMSIS/Include\core_cm4.h **** /*@} end of group CMSIS_SysTick */
 797:C:/Users/Utente/Desktop/Tesi/Firmware_Software/DAVE project/S2GLP_Pulsed_Doppler/Libraries/CMSIS/Include\core_cm4.h **** 
 798:C:/Users/Utente/Desktop/Tesi/Firmware_Software/DAVE project/S2GLP_Pulsed_Doppler/Libraries/CMSIS/Include\core_cm4.h **** 
 799:C:/Users/Utente/Desktop/Tesi/Firmware_Software/DAVE project/S2GLP_Pulsed_Doppler/Libraries/CMSIS/Include\core_cm4.h **** /**
 800:C:/Users/Utente/Desktop/Tesi/Firmware_Software/DAVE project/S2GLP_Pulsed_Doppler/Libraries/CMSIS/Include\core_cm4.h ****   \ingroup  CMSIS_core_register
 801:C:/Users/Utente/Desktop/Tesi/Firmware_Software/DAVE project/S2GLP_Pulsed_Doppler/Libraries/CMSIS/Include\core_cm4.h ****   \defgroup CMSIS_ITM     Instrumentation Trace Macrocell (ITM)
 802:C:/Users/Utente/Desktop/Tesi/Firmware_Software/DAVE project/S2GLP_Pulsed_Doppler/Libraries/CMSIS/Include\core_cm4.h ****   \brief    Type definitions for the Instrumentation Trace Macrocell (ITM)
 803:C:/Users/Utente/Desktop/Tesi/Firmware_Software/DAVE project/S2GLP_Pulsed_Doppler/Libraries/CMSIS/Include\core_cm4.h ****   @{
 804:C:/Users/Utente/Desktop/Tesi/Firmware_Software/DAVE project/S2GLP_Pulsed_Doppler/Libraries/CMSIS/Include\core_cm4.h ****  */
 805:C:/Users/Utente/Desktop/Tesi/Firmware_Software/DAVE project/S2GLP_Pulsed_Doppler/Libraries/CMSIS/Include\core_cm4.h **** 
 806:C:/Users/Utente/Desktop/Tesi/Firmware_Software/DAVE project/S2GLP_Pulsed_Doppler/Libraries/CMSIS/Include\core_cm4.h **** /**
 807:C:/Users/Utente/Desktop/Tesi/Firmware_Software/DAVE project/S2GLP_Pulsed_Doppler/Libraries/CMSIS/Include\core_cm4.h ****   \brief  Structure type to access the Instrumentation Trace Macrocell Register (ITM).
 808:C:/Users/Utente/Desktop/Tesi/Firmware_Software/DAVE project/S2GLP_Pulsed_Doppler/Libraries/CMSIS/Include\core_cm4.h ****  */
 809:C:/Users/Utente/Desktop/Tesi/Firmware_Software/DAVE project/S2GLP_Pulsed_Doppler/Libraries/CMSIS/Include\core_cm4.h **** typedef struct
 810:C:/Users/Utente/Desktop/Tesi/Firmware_Software/DAVE project/S2GLP_Pulsed_Doppler/Libraries/CMSIS/Include\core_cm4.h **** {
 811:C:/Users/Utente/Desktop/Tesi/Firmware_Software/DAVE project/S2GLP_Pulsed_Doppler/Libraries/CMSIS/Include\core_cm4.h ****   __OM  union
 812:C:/Users/Utente/Desktop/Tesi/Firmware_Software/DAVE project/S2GLP_Pulsed_Doppler/Libraries/CMSIS/Include\core_cm4.h ****   {
 813:C:/Users/Utente/Desktop/Tesi/Firmware_Software/DAVE project/S2GLP_Pulsed_Doppler/Libraries/CMSIS/Include\core_cm4.h ****     __OM  uint8_t    u8;                 /*!< Offset: 0x000 ( /W)  ITM Stimulus Port 8-bit */
 814:C:/Users/Utente/Desktop/Tesi/Firmware_Software/DAVE project/S2GLP_Pulsed_Doppler/Libraries/CMSIS/Include\core_cm4.h ****     __OM  uint16_t   u16;                /*!< Offset: 0x000 ( /W)  ITM Stimulus Port 16-bit */
 815:C:/Users/Utente/Desktop/Tesi/Firmware_Software/DAVE project/S2GLP_Pulsed_Doppler/Libraries/CMSIS/Include\core_cm4.h ****     __OM  uint32_t   u32;                /*!< Offset: 0x000 ( /W)  ITM Stimulus Port 32-bit */
 816:C:/Users/Utente/Desktop/Tesi/Firmware_Software/DAVE project/S2GLP_Pulsed_Doppler/Libraries/CMSIS/Include\core_cm4.h ****   }  PORT [32U];                         /*!< Offset: 0x000 ( /W)  ITM Stimulus Port Registers */
 817:C:/Users/Utente/Desktop/Tesi/Firmware_Software/DAVE project/S2GLP_Pulsed_Doppler/Libraries/CMSIS/Include\core_cm4.h ****         uint32_t RESERVED0[864U];
 818:C:/Users/Utente/Desktop/Tesi/Firmware_Software/DAVE project/S2GLP_Pulsed_Doppler/Libraries/CMSIS/Include\core_cm4.h ****   __IOM uint32_t TER;                    /*!< Offset: 0xE00 (R/W)  ITM Trace Enable Register */
 819:C:/Users/Utente/Desktop/Tesi/Firmware_Software/DAVE project/S2GLP_Pulsed_Doppler/Libraries/CMSIS/Include\core_cm4.h ****         uint32_t RESERVED1[15U];
 820:C:/Users/Utente/Desktop/Tesi/Firmware_Software/DAVE project/S2GLP_Pulsed_Doppler/Libraries/CMSIS/Include\core_cm4.h ****   __IOM uint32_t TPR;                    /*!< Offset: 0xE40 (R/W)  ITM Trace Privilege Register */
 821:C:/Users/Utente/Desktop/Tesi/Firmware_Software/DAVE project/S2GLP_Pulsed_Doppler/Libraries/CMSIS/Include\core_cm4.h ****         uint32_t RESERVED2[15U];
 822:C:/Users/Utente/Desktop/Tesi/Firmware_Software/DAVE project/S2GLP_Pulsed_Doppler/Libraries/CMSIS/Include\core_cm4.h ****   __IOM uint32_t TCR;                    /*!< Offset: 0xE80 (R/W)  ITM Trace Control Register */
 823:C:/Users/Utente/Desktop/Tesi/Firmware_Software/DAVE project/S2GLP_Pulsed_Doppler/Libraries/CMSIS/Include\core_cm4.h ****         uint32_t RESERVED3[29U];
 824:C:/Users/Utente/Desktop/Tesi/Firmware_Software/DAVE project/S2GLP_Pulsed_Doppler/Libraries/CMSIS/Include\core_cm4.h ****   __OM  uint32_t IWR;                    /*!< Offset: 0xEF8 ( /W)  ITM Integration Write Register *
 825:C:/Users/Utente/Desktop/Tesi/Firmware_Software/DAVE project/S2GLP_Pulsed_Doppler/Libraries/CMSIS/Include\core_cm4.h ****   __IM  uint32_t IRR;                    /*!< Offset: 0xEFC (R/ )  ITM Integration Read Register */
 826:C:/Users/Utente/Desktop/Tesi/Firmware_Software/DAVE project/S2GLP_Pulsed_Doppler/Libraries/CMSIS/Include\core_cm4.h ****   __IOM uint32_t IMCR;                   /*!< Offset: 0xF00 (R/W)  ITM Integration Mode Control Reg
 827:C:/Users/Utente/Desktop/Tesi/Firmware_Software/DAVE project/S2GLP_Pulsed_Doppler/Libraries/CMSIS/Include\core_cm4.h ****         uint32_t RESERVED4[43U];
 828:C:/Users/Utente/Desktop/Tesi/Firmware_Software/DAVE project/S2GLP_Pulsed_Doppler/Libraries/CMSIS/Include\core_cm4.h ****   __OM  uint32_t LAR;                    /*!< Offset: 0xFB0 ( /W)  ITM Lock Access Register */
 829:C:/Users/Utente/Desktop/Tesi/Firmware_Software/DAVE project/S2GLP_Pulsed_Doppler/Libraries/CMSIS/Include\core_cm4.h ****   __IM  uint32_t LSR;                    /*!< Offset: 0xFB4 (R/ )  ITM Lock Status Register */
 830:C:/Users/Utente/Desktop/Tesi/Firmware_Software/DAVE project/S2GLP_Pulsed_Doppler/Libraries/CMSIS/Include\core_cm4.h ****         uint32_t RESERVED5[6U];
 831:C:/Users/Utente/Desktop/Tesi/Firmware_Software/DAVE project/S2GLP_Pulsed_Doppler/Libraries/CMSIS/Include\core_cm4.h ****   __IM  uint32_t PID4;                   /*!< Offset: 0xFD0 (R/ )  ITM Peripheral Identification Re
 832:C:/Users/Utente/Desktop/Tesi/Firmware_Software/DAVE project/S2GLP_Pulsed_Doppler/Libraries/CMSIS/Include\core_cm4.h ****   __IM  uint32_t PID5;                   /*!< Offset: 0xFD4 (R/ )  ITM Peripheral Identification Re
 833:C:/Users/Utente/Desktop/Tesi/Firmware_Software/DAVE project/S2GLP_Pulsed_Doppler/Libraries/CMSIS/Include\core_cm4.h ****   __IM  uint32_t PID6;                   /*!< Offset: 0xFD8 (R/ )  ITM Peripheral Identification Re
 834:C:/Users/Utente/Desktop/Tesi/Firmware_Software/DAVE project/S2GLP_Pulsed_Doppler/Libraries/CMSIS/Include\core_cm4.h ****   __IM  uint32_t PID7;                   /*!< Offset: 0xFDC (R/ )  ITM Peripheral Identification Re
 835:C:/Users/Utente/Desktop/Tesi/Firmware_Software/DAVE project/S2GLP_Pulsed_Doppler/Libraries/CMSIS/Include\core_cm4.h ****   __IM  uint32_t PID0;                   /*!< Offset: 0xFE0 (R/ )  ITM Peripheral Identification Re
 836:C:/Users/Utente/Desktop/Tesi/Firmware_Software/DAVE project/S2GLP_Pulsed_Doppler/Libraries/CMSIS/Include\core_cm4.h ****   __IM  uint32_t PID1;                   /*!< Offset: 0xFE4 (R/ )  ITM Peripheral Identification Re
 837:C:/Users/Utente/Desktop/Tesi/Firmware_Software/DAVE project/S2GLP_Pulsed_Doppler/Libraries/CMSIS/Include\core_cm4.h ****   __IM  uint32_t PID2;                   /*!< Offset: 0xFE8 (R/ )  ITM Peripheral Identification Re
 838:C:/Users/Utente/Desktop/Tesi/Firmware_Software/DAVE project/S2GLP_Pulsed_Doppler/Libraries/CMSIS/Include\core_cm4.h ****   __IM  uint32_t PID3;                   /*!< Offset: 0xFEC (R/ )  ITM Peripheral Identification Re
 839:C:/Users/Utente/Desktop/Tesi/Firmware_Software/DAVE project/S2GLP_Pulsed_Doppler/Libraries/CMSIS/Include\core_cm4.h ****   __IM  uint32_t CID0;                   /*!< Offset: 0xFF0 (R/ )  ITM Component  Identification Re
 840:C:/Users/Utente/Desktop/Tesi/Firmware_Software/DAVE project/S2GLP_Pulsed_Doppler/Libraries/CMSIS/Include\core_cm4.h ****   __IM  uint32_t CID1;                   /*!< Offset: 0xFF4 (R/ )  ITM Component  Identification Re
 841:C:/Users/Utente/Desktop/Tesi/Firmware_Software/DAVE project/S2GLP_Pulsed_Doppler/Libraries/CMSIS/Include\core_cm4.h ****   __IM  uint32_t CID2;                   /*!< Offset: 0xFF8 (R/ )  ITM Component  Identification Re
 842:C:/Users/Utente/Desktop/Tesi/Firmware_Software/DAVE project/S2GLP_Pulsed_Doppler/Libraries/CMSIS/Include\core_cm4.h ****   __IM  uint32_t CID3;                   /*!< Offset: 0xFFC (R/ )  ITM Component  Identification Re
 843:C:/Users/Utente/Desktop/Tesi/Firmware_Software/DAVE project/S2GLP_Pulsed_Doppler/Libraries/CMSIS/Include\core_cm4.h **** } ITM_Type;
 844:C:/Users/Utente/Desktop/Tesi/Firmware_Software/DAVE project/S2GLP_Pulsed_Doppler/Libraries/CMSIS/Include\core_cm4.h **** 
 845:C:/Users/Utente/Desktop/Tesi/Firmware_Software/DAVE project/S2GLP_Pulsed_Doppler/Libraries/CMSIS/Include\core_cm4.h **** /* ITM Trace Privilege Register Definitions */
 846:C:/Users/Utente/Desktop/Tesi/Firmware_Software/DAVE project/S2GLP_Pulsed_Doppler/Libraries/CMSIS/Include\core_cm4.h **** #define ITM_TPR_PRIVMASK_Pos                0U                                            /*!< ITM 
 847:C:/Users/Utente/Desktop/Tesi/Firmware_Software/DAVE project/S2GLP_Pulsed_Doppler/Libraries/CMSIS/Include\core_cm4.h **** #define ITM_TPR_PRIVMASK_Msk               (0xFUL /*<< ITM_TPR_PRIVMASK_Pos*/)            /*!< ITM 
 848:C:/Users/Utente/Desktop/Tesi/Firmware_Software/DAVE project/S2GLP_Pulsed_Doppler/Libraries/CMSIS/Include\core_cm4.h **** 
 849:C:/Users/Utente/Desktop/Tesi/Firmware_Software/DAVE project/S2GLP_Pulsed_Doppler/Libraries/CMSIS/Include\core_cm4.h **** /* ITM Trace Control Register Definitions */
 850:C:/Users/Utente/Desktop/Tesi/Firmware_Software/DAVE project/S2GLP_Pulsed_Doppler/Libraries/CMSIS/Include\core_cm4.h **** #define ITM_TCR_BUSY_Pos                   23U                                            /*!< ITM 
 851:C:/Users/Utente/Desktop/Tesi/Firmware_Software/DAVE project/S2GLP_Pulsed_Doppler/Libraries/CMSIS/Include\core_cm4.h **** #define ITM_TCR_BUSY_Msk                   (1UL << ITM_TCR_BUSY_Pos)                      /*!< ITM 
 852:C:/Users/Utente/Desktop/Tesi/Firmware_Software/DAVE project/S2GLP_Pulsed_Doppler/Libraries/CMSIS/Include\core_cm4.h **** 
 853:C:/Users/Utente/Desktop/Tesi/Firmware_Software/DAVE project/S2GLP_Pulsed_Doppler/Libraries/CMSIS/Include\core_cm4.h **** #define ITM_TCR_TraceBusID_Pos             16U                                            /*!< ITM 
 854:C:/Users/Utente/Desktop/Tesi/Firmware_Software/DAVE project/S2GLP_Pulsed_Doppler/Libraries/CMSIS/Include\core_cm4.h **** #define ITM_TCR_TraceBusID_Msk             (0x7FUL << ITM_TCR_TraceBusID_Pos)             /*!< ITM 
 855:C:/Users/Utente/Desktop/Tesi/Firmware_Software/DAVE project/S2GLP_Pulsed_Doppler/Libraries/CMSIS/Include\core_cm4.h **** 
 856:C:/Users/Utente/Desktop/Tesi/Firmware_Software/DAVE project/S2GLP_Pulsed_Doppler/Libraries/CMSIS/Include\core_cm4.h **** #define ITM_TCR_GTSFREQ_Pos                10U                                            /*!< ITM 
 857:C:/Users/Utente/Desktop/Tesi/Firmware_Software/DAVE project/S2GLP_Pulsed_Doppler/Libraries/CMSIS/Include\core_cm4.h **** #define ITM_TCR_GTSFREQ_Msk                (3UL << ITM_TCR_GTSFREQ_Pos)                   /*!< ITM 
 858:C:/Users/Utente/Desktop/Tesi/Firmware_Software/DAVE project/S2GLP_Pulsed_Doppler/Libraries/CMSIS/Include\core_cm4.h **** 
 859:C:/Users/Utente/Desktop/Tesi/Firmware_Software/DAVE project/S2GLP_Pulsed_Doppler/Libraries/CMSIS/Include\core_cm4.h **** #define ITM_TCR_TSPrescale_Pos              8U                                            /*!< ITM 
 860:C:/Users/Utente/Desktop/Tesi/Firmware_Software/DAVE project/S2GLP_Pulsed_Doppler/Libraries/CMSIS/Include\core_cm4.h **** #define ITM_TCR_TSPrescale_Msk             (3UL << ITM_TCR_TSPrescale_Pos)                /*!< ITM 
 861:C:/Users/Utente/Desktop/Tesi/Firmware_Software/DAVE project/S2GLP_Pulsed_Doppler/Libraries/CMSIS/Include\core_cm4.h **** 
 862:C:/Users/Utente/Desktop/Tesi/Firmware_Software/DAVE project/S2GLP_Pulsed_Doppler/Libraries/CMSIS/Include\core_cm4.h **** #define ITM_TCR_SWOENA_Pos                  4U                                            /*!< ITM 
 863:C:/Users/Utente/Desktop/Tesi/Firmware_Software/DAVE project/S2GLP_Pulsed_Doppler/Libraries/CMSIS/Include\core_cm4.h **** #define ITM_TCR_SWOENA_Msk                 (1UL << ITM_TCR_SWOENA_Pos)                    /*!< ITM 
 864:C:/Users/Utente/Desktop/Tesi/Firmware_Software/DAVE project/S2GLP_Pulsed_Doppler/Libraries/CMSIS/Include\core_cm4.h **** 
 865:C:/Users/Utente/Desktop/Tesi/Firmware_Software/DAVE project/S2GLP_Pulsed_Doppler/Libraries/CMSIS/Include\core_cm4.h **** #define ITM_TCR_DWTENA_Pos                  3U                                            /*!< ITM 
 866:C:/Users/Utente/Desktop/Tesi/Firmware_Software/DAVE project/S2GLP_Pulsed_Doppler/Libraries/CMSIS/Include\core_cm4.h **** #define ITM_TCR_DWTENA_Msk                 (1UL << ITM_TCR_DWTENA_Pos)                    /*!< ITM 
 867:C:/Users/Utente/Desktop/Tesi/Firmware_Software/DAVE project/S2GLP_Pulsed_Doppler/Libraries/CMSIS/Include\core_cm4.h **** 
 868:C:/Users/Utente/Desktop/Tesi/Firmware_Software/DAVE project/S2GLP_Pulsed_Doppler/Libraries/CMSIS/Include\core_cm4.h **** #define ITM_TCR_SYNCENA_Pos                 2U                                            /*!< ITM 
 869:C:/Users/Utente/Desktop/Tesi/Firmware_Software/DAVE project/S2GLP_Pulsed_Doppler/Libraries/CMSIS/Include\core_cm4.h **** #define ITM_TCR_SYNCENA_Msk                (1UL << ITM_TCR_SYNCENA_Pos)                   /*!< ITM 
 870:C:/Users/Utente/Desktop/Tesi/Firmware_Software/DAVE project/S2GLP_Pulsed_Doppler/Libraries/CMSIS/Include\core_cm4.h **** 
 871:C:/Users/Utente/Desktop/Tesi/Firmware_Software/DAVE project/S2GLP_Pulsed_Doppler/Libraries/CMSIS/Include\core_cm4.h **** #define ITM_TCR_TSENA_Pos                   1U                                            /*!< ITM 
 872:C:/Users/Utente/Desktop/Tesi/Firmware_Software/DAVE project/S2GLP_Pulsed_Doppler/Libraries/CMSIS/Include\core_cm4.h **** #define ITM_TCR_TSENA_Msk                  (1UL << ITM_TCR_TSENA_Pos)                     /*!< ITM 
 873:C:/Users/Utente/Desktop/Tesi/Firmware_Software/DAVE project/S2GLP_Pulsed_Doppler/Libraries/CMSIS/Include\core_cm4.h **** 
 874:C:/Users/Utente/Desktop/Tesi/Firmware_Software/DAVE project/S2GLP_Pulsed_Doppler/Libraries/CMSIS/Include\core_cm4.h **** #define ITM_TCR_ITMENA_Pos                  0U                                            /*!< ITM 
 875:C:/Users/Utente/Desktop/Tesi/Firmware_Software/DAVE project/S2GLP_Pulsed_Doppler/Libraries/CMSIS/Include\core_cm4.h **** #define ITM_TCR_ITMENA_Msk                 (1UL /*<< ITM_TCR_ITMENA_Pos*/)                /*!< ITM 
 876:C:/Users/Utente/Desktop/Tesi/Firmware_Software/DAVE project/S2GLP_Pulsed_Doppler/Libraries/CMSIS/Include\core_cm4.h **** 
 877:C:/Users/Utente/Desktop/Tesi/Firmware_Software/DAVE project/S2GLP_Pulsed_Doppler/Libraries/CMSIS/Include\core_cm4.h **** /* ITM Integration Write Register Definitions */
 878:C:/Users/Utente/Desktop/Tesi/Firmware_Software/DAVE project/S2GLP_Pulsed_Doppler/Libraries/CMSIS/Include\core_cm4.h **** #define ITM_IWR_ATVALIDM_Pos                0U                                            /*!< ITM 
 879:C:/Users/Utente/Desktop/Tesi/Firmware_Software/DAVE project/S2GLP_Pulsed_Doppler/Libraries/CMSIS/Include\core_cm4.h **** #define ITM_IWR_ATVALIDM_Msk               (1UL /*<< ITM_IWR_ATVALIDM_Pos*/)              /*!< ITM 
 880:C:/Users/Utente/Desktop/Tesi/Firmware_Software/DAVE project/S2GLP_Pulsed_Doppler/Libraries/CMSIS/Include\core_cm4.h **** 
 881:C:/Users/Utente/Desktop/Tesi/Firmware_Software/DAVE project/S2GLP_Pulsed_Doppler/Libraries/CMSIS/Include\core_cm4.h **** /* ITM Integration Read Register Definitions */
 882:C:/Users/Utente/Desktop/Tesi/Firmware_Software/DAVE project/S2GLP_Pulsed_Doppler/Libraries/CMSIS/Include\core_cm4.h **** #define ITM_IRR_ATREADYM_Pos                0U                                            /*!< ITM 
 883:C:/Users/Utente/Desktop/Tesi/Firmware_Software/DAVE project/S2GLP_Pulsed_Doppler/Libraries/CMSIS/Include\core_cm4.h **** #define ITM_IRR_ATREADYM_Msk               (1UL /*<< ITM_IRR_ATREADYM_Pos*/)              /*!< ITM 
 884:C:/Users/Utente/Desktop/Tesi/Firmware_Software/DAVE project/S2GLP_Pulsed_Doppler/Libraries/CMSIS/Include\core_cm4.h **** 
 885:C:/Users/Utente/Desktop/Tesi/Firmware_Software/DAVE project/S2GLP_Pulsed_Doppler/Libraries/CMSIS/Include\core_cm4.h **** /* ITM Integration Mode Control Register Definitions */
 886:C:/Users/Utente/Desktop/Tesi/Firmware_Software/DAVE project/S2GLP_Pulsed_Doppler/Libraries/CMSIS/Include\core_cm4.h **** #define ITM_IMCR_INTEGRATION_Pos            0U                                            /*!< ITM 
 887:C:/Users/Utente/Desktop/Tesi/Firmware_Software/DAVE project/S2GLP_Pulsed_Doppler/Libraries/CMSIS/Include\core_cm4.h **** #define ITM_IMCR_INTEGRATION_Msk           (1UL /*<< ITM_IMCR_INTEGRATION_Pos*/)          /*!< ITM 
 888:C:/Users/Utente/Desktop/Tesi/Firmware_Software/DAVE project/S2GLP_Pulsed_Doppler/Libraries/CMSIS/Include\core_cm4.h **** 
 889:C:/Users/Utente/Desktop/Tesi/Firmware_Software/DAVE project/S2GLP_Pulsed_Doppler/Libraries/CMSIS/Include\core_cm4.h **** /* ITM Lock Status Register Definitions */
 890:C:/Users/Utente/Desktop/Tesi/Firmware_Software/DAVE project/S2GLP_Pulsed_Doppler/Libraries/CMSIS/Include\core_cm4.h **** #define ITM_LSR_ByteAcc_Pos                 2U                                            /*!< ITM 
 891:C:/Users/Utente/Desktop/Tesi/Firmware_Software/DAVE project/S2GLP_Pulsed_Doppler/Libraries/CMSIS/Include\core_cm4.h **** #define ITM_LSR_ByteAcc_Msk                (1UL << ITM_LSR_ByteAcc_Pos)                   /*!< ITM 
 892:C:/Users/Utente/Desktop/Tesi/Firmware_Software/DAVE project/S2GLP_Pulsed_Doppler/Libraries/CMSIS/Include\core_cm4.h **** 
 893:C:/Users/Utente/Desktop/Tesi/Firmware_Software/DAVE project/S2GLP_Pulsed_Doppler/Libraries/CMSIS/Include\core_cm4.h **** #define ITM_LSR_Access_Pos                  1U                                            /*!< ITM 
 894:C:/Users/Utente/Desktop/Tesi/Firmware_Software/DAVE project/S2GLP_Pulsed_Doppler/Libraries/CMSIS/Include\core_cm4.h **** #define ITM_LSR_Access_Msk                 (1UL << ITM_LSR_Access_Pos)                    /*!< ITM 
 895:C:/Users/Utente/Desktop/Tesi/Firmware_Software/DAVE project/S2GLP_Pulsed_Doppler/Libraries/CMSIS/Include\core_cm4.h **** 
 896:C:/Users/Utente/Desktop/Tesi/Firmware_Software/DAVE project/S2GLP_Pulsed_Doppler/Libraries/CMSIS/Include\core_cm4.h **** #define ITM_LSR_Present_Pos                 0U                                            /*!< ITM 
 897:C:/Users/Utente/Desktop/Tesi/Firmware_Software/DAVE project/S2GLP_Pulsed_Doppler/Libraries/CMSIS/Include\core_cm4.h **** #define ITM_LSR_Present_Msk                (1UL /*<< ITM_LSR_Present_Pos*/)               /*!< ITM 
 898:C:/Users/Utente/Desktop/Tesi/Firmware_Software/DAVE project/S2GLP_Pulsed_Doppler/Libraries/CMSIS/Include\core_cm4.h **** 
 899:C:/Users/Utente/Desktop/Tesi/Firmware_Software/DAVE project/S2GLP_Pulsed_Doppler/Libraries/CMSIS/Include\core_cm4.h **** /*@}*/ /* end of group CMSIS_ITM */
 900:C:/Users/Utente/Desktop/Tesi/Firmware_Software/DAVE project/S2GLP_Pulsed_Doppler/Libraries/CMSIS/Include\core_cm4.h **** 
 901:C:/Users/Utente/Desktop/Tesi/Firmware_Software/DAVE project/S2GLP_Pulsed_Doppler/Libraries/CMSIS/Include\core_cm4.h **** 
 902:C:/Users/Utente/Desktop/Tesi/Firmware_Software/DAVE project/S2GLP_Pulsed_Doppler/Libraries/CMSIS/Include\core_cm4.h **** /**
 903:C:/Users/Utente/Desktop/Tesi/Firmware_Software/DAVE project/S2GLP_Pulsed_Doppler/Libraries/CMSIS/Include\core_cm4.h ****   \ingroup  CMSIS_core_register
 904:C:/Users/Utente/Desktop/Tesi/Firmware_Software/DAVE project/S2GLP_Pulsed_Doppler/Libraries/CMSIS/Include\core_cm4.h ****   \defgroup CMSIS_DWT     Data Watchpoint and Trace (DWT)
 905:C:/Users/Utente/Desktop/Tesi/Firmware_Software/DAVE project/S2GLP_Pulsed_Doppler/Libraries/CMSIS/Include\core_cm4.h ****   \brief    Type definitions for the Data Watchpoint and Trace (DWT)
 906:C:/Users/Utente/Desktop/Tesi/Firmware_Software/DAVE project/S2GLP_Pulsed_Doppler/Libraries/CMSIS/Include\core_cm4.h ****   @{
 907:C:/Users/Utente/Desktop/Tesi/Firmware_Software/DAVE project/S2GLP_Pulsed_Doppler/Libraries/CMSIS/Include\core_cm4.h ****  */
 908:C:/Users/Utente/Desktop/Tesi/Firmware_Software/DAVE project/S2GLP_Pulsed_Doppler/Libraries/CMSIS/Include\core_cm4.h **** 
 909:C:/Users/Utente/Desktop/Tesi/Firmware_Software/DAVE project/S2GLP_Pulsed_Doppler/Libraries/CMSIS/Include\core_cm4.h **** /**
 910:C:/Users/Utente/Desktop/Tesi/Firmware_Software/DAVE project/S2GLP_Pulsed_Doppler/Libraries/CMSIS/Include\core_cm4.h ****   \brief  Structure type to access the Data Watchpoint and Trace Register (DWT).
 911:C:/Users/Utente/Desktop/Tesi/Firmware_Software/DAVE project/S2GLP_Pulsed_Doppler/Libraries/CMSIS/Include\core_cm4.h ****  */
 912:C:/Users/Utente/Desktop/Tesi/Firmware_Software/DAVE project/S2GLP_Pulsed_Doppler/Libraries/CMSIS/Include\core_cm4.h **** typedef struct
 913:C:/Users/Utente/Desktop/Tesi/Firmware_Software/DAVE project/S2GLP_Pulsed_Doppler/Libraries/CMSIS/Include\core_cm4.h **** {
 914:C:/Users/Utente/Desktop/Tesi/Firmware_Software/DAVE project/S2GLP_Pulsed_Doppler/Libraries/CMSIS/Include\core_cm4.h ****   __IOM uint32_t CTRL;                   /*!< Offset: 0x000 (R/W)  Control Register */
 915:C:/Users/Utente/Desktop/Tesi/Firmware_Software/DAVE project/S2GLP_Pulsed_Doppler/Libraries/CMSIS/Include\core_cm4.h ****   __IOM uint32_t CYCCNT;                 /*!< Offset: 0x004 (R/W)  Cycle Count Register */
 916:C:/Users/Utente/Desktop/Tesi/Firmware_Software/DAVE project/S2GLP_Pulsed_Doppler/Libraries/CMSIS/Include\core_cm4.h ****   __IOM uint32_t CPICNT;                 /*!< Offset: 0x008 (R/W)  CPI Count Register */
 917:C:/Users/Utente/Desktop/Tesi/Firmware_Software/DAVE project/S2GLP_Pulsed_Doppler/Libraries/CMSIS/Include\core_cm4.h ****   __IOM uint32_t EXCCNT;                 /*!< Offset: 0x00C (R/W)  Exception Overhead Count Registe
 918:C:/Users/Utente/Desktop/Tesi/Firmware_Software/DAVE project/S2GLP_Pulsed_Doppler/Libraries/CMSIS/Include\core_cm4.h ****   __IOM uint32_t SLEEPCNT;               /*!< Offset: 0x010 (R/W)  Sleep Count Register */
 919:C:/Users/Utente/Desktop/Tesi/Firmware_Software/DAVE project/S2GLP_Pulsed_Doppler/Libraries/CMSIS/Include\core_cm4.h ****   __IOM uint32_t LSUCNT;                 /*!< Offset: 0x014 (R/W)  LSU Count Register */
 920:C:/Users/Utente/Desktop/Tesi/Firmware_Software/DAVE project/S2GLP_Pulsed_Doppler/Libraries/CMSIS/Include\core_cm4.h ****   __IOM uint32_t FOLDCNT;                /*!< Offset: 0x018 (R/W)  Folded-instruction Count Registe
 921:C:/Users/Utente/Desktop/Tesi/Firmware_Software/DAVE project/S2GLP_Pulsed_Doppler/Libraries/CMSIS/Include\core_cm4.h ****   __IM  uint32_t PCSR;                   /*!< Offset: 0x01C (R/ )  Program Counter Sample Register 
 922:C:/Users/Utente/Desktop/Tesi/Firmware_Software/DAVE project/S2GLP_Pulsed_Doppler/Libraries/CMSIS/Include\core_cm4.h ****   __IOM uint32_t COMP0;                  /*!< Offset: 0x020 (R/W)  Comparator Register 0 */
 923:C:/Users/Utente/Desktop/Tesi/Firmware_Software/DAVE project/S2GLP_Pulsed_Doppler/Libraries/CMSIS/Include\core_cm4.h ****   __IOM uint32_t MASK0;                  /*!< Offset: 0x024 (R/W)  Mask Register 0 */
 924:C:/Users/Utente/Desktop/Tesi/Firmware_Software/DAVE project/S2GLP_Pulsed_Doppler/Libraries/CMSIS/Include\core_cm4.h ****   __IOM uint32_t FUNCTION0;              /*!< Offset: 0x028 (R/W)  Function Register 0 */
 925:C:/Users/Utente/Desktop/Tesi/Firmware_Software/DAVE project/S2GLP_Pulsed_Doppler/Libraries/CMSIS/Include\core_cm4.h ****         uint32_t RESERVED0[1U];
 926:C:/Users/Utente/Desktop/Tesi/Firmware_Software/DAVE project/S2GLP_Pulsed_Doppler/Libraries/CMSIS/Include\core_cm4.h ****   __IOM uint32_t COMP1;                  /*!< Offset: 0x030 (R/W)  Comparator Register 1 */
 927:C:/Users/Utente/Desktop/Tesi/Firmware_Software/DAVE project/S2GLP_Pulsed_Doppler/Libraries/CMSIS/Include\core_cm4.h ****   __IOM uint32_t MASK1;                  /*!< Offset: 0x034 (R/W)  Mask Register 1 */
 928:C:/Users/Utente/Desktop/Tesi/Firmware_Software/DAVE project/S2GLP_Pulsed_Doppler/Libraries/CMSIS/Include\core_cm4.h ****   __IOM uint32_t FUNCTION1;              /*!< Offset: 0x038 (R/W)  Function Register 1 */
 929:C:/Users/Utente/Desktop/Tesi/Firmware_Software/DAVE project/S2GLP_Pulsed_Doppler/Libraries/CMSIS/Include\core_cm4.h ****         uint32_t RESERVED1[1U];
 930:C:/Users/Utente/Desktop/Tesi/Firmware_Software/DAVE project/S2GLP_Pulsed_Doppler/Libraries/CMSIS/Include\core_cm4.h ****   __IOM uint32_t COMP2;                  /*!< Offset: 0x040 (R/W)  Comparator Register 2 */
 931:C:/Users/Utente/Desktop/Tesi/Firmware_Software/DAVE project/S2GLP_Pulsed_Doppler/Libraries/CMSIS/Include\core_cm4.h ****   __IOM uint32_t MASK2;                  /*!< Offset: 0x044 (R/W)  Mask Register 2 */
 932:C:/Users/Utente/Desktop/Tesi/Firmware_Software/DAVE project/S2GLP_Pulsed_Doppler/Libraries/CMSIS/Include\core_cm4.h ****   __IOM uint32_t FUNCTION2;              /*!< Offset: 0x048 (R/W)  Function Register 2 */
 933:C:/Users/Utente/Desktop/Tesi/Firmware_Software/DAVE project/S2GLP_Pulsed_Doppler/Libraries/CMSIS/Include\core_cm4.h ****         uint32_t RESERVED2[1U];
 934:C:/Users/Utente/Desktop/Tesi/Firmware_Software/DAVE project/S2GLP_Pulsed_Doppler/Libraries/CMSIS/Include\core_cm4.h ****   __IOM uint32_t COMP3;                  /*!< Offset: 0x050 (R/W)  Comparator Register 3 */
 935:C:/Users/Utente/Desktop/Tesi/Firmware_Software/DAVE project/S2GLP_Pulsed_Doppler/Libraries/CMSIS/Include\core_cm4.h ****   __IOM uint32_t MASK3;                  /*!< Offset: 0x054 (R/W)  Mask Register 3 */
 936:C:/Users/Utente/Desktop/Tesi/Firmware_Software/DAVE project/S2GLP_Pulsed_Doppler/Libraries/CMSIS/Include\core_cm4.h ****   __IOM uint32_t FUNCTION3;              /*!< Offset: 0x058 (R/W)  Function Register 3 */
 937:C:/Users/Utente/Desktop/Tesi/Firmware_Software/DAVE project/S2GLP_Pulsed_Doppler/Libraries/CMSIS/Include\core_cm4.h **** } DWT_Type;
 938:C:/Users/Utente/Desktop/Tesi/Firmware_Software/DAVE project/S2GLP_Pulsed_Doppler/Libraries/CMSIS/Include\core_cm4.h **** 
 939:C:/Users/Utente/Desktop/Tesi/Firmware_Software/DAVE project/S2GLP_Pulsed_Doppler/Libraries/CMSIS/Include\core_cm4.h **** /* DWT Control Register Definitions */
 940:C:/Users/Utente/Desktop/Tesi/Firmware_Software/DAVE project/S2GLP_Pulsed_Doppler/Libraries/CMSIS/Include\core_cm4.h **** #define DWT_CTRL_NUMCOMP_Pos               28U                                         /*!< DWT CTR
 941:C:/Users/Utente/Desktop/Tesi/Firmware_Software/DAVE project/S2GLP_Pulsed_Doppler/Libraries/CMSIS/Include\core_cm4.h **** #define DWT_CTRL_NUMCOMP_Msk               (0xFUL << DWT_CTRL_NUMCOMP_Pos)             /*!< DWT CTR
 942:C:/Users/Utente/Desktop/Tesi/Firmware_Software/DAVE project/S2GLP_Pulsed_Doppler/Libraries/CMSIS/Include\core_cm4.h **** 
 943:C:/Users/Utente/Desktop/Tesi/Firmware_Software/DAVE project/S2GLP_Pulsed_Doppler/Libraries/CMSIS/Include\core_cm4.h **** #define DWT_CTRL_NOTRCPKT_Pos              27U                                         /*!< DWT CTR
 944:C:/Users/Utente/Desktop/Tesi/Firmware_Software/DAVE project/S2GLP_Pulsed_Doppler/Libraries/CMSIS/Include\core_cm4.h **** #define DWT_CTRL_NOTRCPKT_Msk              (0x1UL << DWT_CTRL_NOTRCPKT_Pos)            /*!< DWT CTR
 945:C:/Users/Utente/Desktop/Tesi/Firmware_Software/DAVE project/S2GLP_Pulsed_Doppler/Libraries/CMSIS/Include\core_cm4.h **** 
 946:C:/Users/Utente/Desktop/Tesi/Firmware_Software/DAVE project/S2GLP_Pulsed_Doppler/Libraries/CMSIS/Include\core_cm4.h **** #define DWT_CTRL_NOEXTTRIG_Pos             26U                                         /*!< DWT CTR
 947:C:/Users/Utente/Desktop/Tesi/Firmware_Software/DAVE project/S2GLP_Pulsed_Doppler/Libraries/CMSIS/Include\core_cm4.h **** #define DWT_CTRL_NOEXTTRIG_Msk             (0x1UL << DWT_CTRL_NOEXTTRIG_Pos)           /*!< DWT CTR
 948:C:/Users/Utente/Desktop/Tesi/Firmware_Software/DAVE project/S2GLP_Pulsed_Doppler/Libraries/CMSIS/Include\core_cm4.h **** 
 949:C:/Users/Utente/Desktop/Tesi/Firmware_Software/DAVE project/S2GLP_Pulsed_Doppler/Libraries/CMSIS/Include\core_cm4.h **** #define DWT_CTRL_NOCYCCNT_Pos              25U                                         /*!< DWT CTR
 950:C:/Users/Utente/Desktop/Tesi/Firmware_Software/DAVE project/S2GLP_Pulsed_Doppler/Libraries/CMSIS/Include\core_cm4.h **** #define DWT_CTRL_NOCYCCNT_Msk              (0x1UL << DWT_CTRL_NOCYCCNT_Pos)            /*!< DWT CTR
 951:C:/Users/Utente/Desktop/Tesi/Firmware_Software/DAVE project/S2GLP_Pulsed_Doppler/Libraries/CMSIS/Include\core_cm4.h **** 
 952:C:/Users/Utente/Desktop/Tesi/Firmware_Software/DAVE project/S2GLP_Pulsed_Doppler/Libraries/CMSIS/Include\core_cm4.h **** #define DWT_CTRL_NOPRFCNT_Pos              24U                                         /*!< DWT CTR
 953:C:/Users/Utente/Desktop/Tesi/Firmware_Software/DAVE project/S2GLP_Pulsed_Doppler/Libraries/CMSIS/Include\core_cm4.h **** #define DWT_CTRL_NOPRFCNT_Msk              (0x1UL << DWT_CTRL_NOPRFCNT_Pos)            /*!< DWT CTR
 954:C:/Users/Utente/Desktop/Tesi/Firmware_Software/DAVE project/S2GLP_Pulsed_Doppler/Libraries/CMSIS/Include\core_cm4.h **** 
 955:C:/Users/Utente/Desktop/Tesi/Firmware_Software/DAVE project/S2GLP_Pulsed_Doppler/Libraries/CMSIS/Include\core_cm4.h **** #define DWT_CTRL_CYCEVTENA_Pos             22U                                         /*!< DWT CTR
 956:C:/Users/Utente/Desktop/Tesi/Firmware_Software/DAVE project/S2GLP_Pulsed_Doppler/Libraries/CMSIS/Include\core_cm4.h **** #define DWT_CTRL_CYCEVTENA_Msk             (0x1UL << DWT_CTRL_CYCEVTENA_Pos)           /*!< DWT CTR
 957:C:/Users/Utente/Desktop/Tesi/Firmware_Software/DAVE project/S2GLP_Pulsed_Doppler/Libraries/CMSIS/Include\core_cm4.h **** 
 958:C:/Users/Utente/Desktop/Tesi/Firmware_Software/DAVE project/S2GLP_Pulsed_Doppler/Libraries/CMSIS/Include\core_cm4.h **** #define DWT_CTRL_FOLDEVTENA_Pos            21U                                         /*!< DWT CTR
 959:C:/Users/Utente/Desktop/Tesi/Firmware_Software/DAVE project/S2GLP_Pulsed_Doppler/Libraries/CMSIS/Include\core_cm4.h **** #define DWT_CTRL_FOLDEVTENA_Msk            (0x1UL << DWT_CTRL_FOLDEVTENA_Pos)          /*!< DWT CTR
 960:C:/Users/Utente/Desktop/Tesi/Firmware_Software/DAVE project/S2GLP_Pulsed_Doppler/Libraries/CMSIS/Include\core_cm4.h **** 
 961:C:/Users/Utente/Desktop/Tesi/Firmware_Software/DAVE project/S2GLP_Pulsed_Doppler/Libraries/CMSIS/Include\core_cm4.h **** #define DWT_CTRL_LSUEVTENA_Pos             20U                                         /*!< DWT CTR
 962:C:/Users/Utente/Desktop/Tesi/Firmware_Software/DAVE project/S2GLP_Pulsed_Doppler/Libraries/CMSIS/Include\core_cm4.h **** #define DWT_CTRL_LSUEVTENA_Msk             (0x1UL << DWT_CTRL_LSUEVTENA_Pos)           /*!< DWT CTR
 963:C:/Users/Utente/Desktop/Tesi/Firmware_Software/DAVE project/S2GLP_Pulsed_Doppler/Libraries/CMSIS/Include\core_cm4.h **** 
 964:C:/Users/Utente/Desktop/Tesi/Firmware_Software/DAVE project/S2GLP_Pulsed_Doppler/Libraries/CMSIS/Include\core_cm4.h **** #define DWT_CTRL_SLEEPEVTENA_Pos           19U                                         /*!< DWT CTR
 965:C:/Users/Utente/Desktop/Tesi/Firmware_Software/DAVE project/S2GLP_Pulsed_Doppler/Libraries/CMSIS/Include\core_cm4.h **** #define DWT_CTRL_SLEEPEVTENA_Msk           (0x1UL << DWT_CTRL_SLEEPEVTENA_Pos)         /*!< DWT CTR
 966:C:/Users/Utente/Desktop/Tesi/Firmware_Software/DAVE project/S2GLP_Pulsed_Doppler/Libraries/CMSIS/Include\core_cm4.h **** 
 967:C:/Users/Utente/Desktop/Tesi/Firmware_Software/DAVE project/S2GLP_Pulsed_Doppler/Libraries/CMSIS/Include\core_cm4.h **** #define DWT_CTRL_EXCEVTENA_Pos             18U                                         /*!< DWT CTR
 968:C:/Users/Utente/Desktop/Tesi/Firmware_Software/DAVE project/S2GLP_Pulsed_Doppler/Libraries/CMSIS/Include\core_cm4.h **** #define DWT_CTRL_EXCEVTENA_Msk             (0x1UL << DWT_CTRL_EXCEVTENA_Pos)           /*!< DWT CTR
 969:C:/Users/Utente/Desktop/Tesi/Firmware_Software/DAVE project/S2GLP_Pulsed_Doppler/Libraries/CMSIS/Include\core_cm4.h **** 
 970:C:/Users/Utente/Desktop/Tesi/Firmware_Software/DAVE project/S2GLP_Pulsed_Doppler/Libraries/CMSIS/Include\core_cm4.h **** #define DWT_CTRL_CPIEVTENA_Pos             17U                                         /*!< DWT CTR
 971:C:/Users/Utente/Desktop/Tesi/Firmware_Software/DAVE project/S2GLP_Pulsed_Doppler/Libraries/CMSIS/Include\core_cm4.h **** #define DWT_CTRL_CPIEVTENA_Msk             (0x1UL << DWT_CTRL_CPIEVTENA_Pos)           /*!< DWT CTR
 972:C:/Users/Utente/Desktop/Tesi/Firmware_Software/DAVE project/S2GLP_Pulsed_Doppler/Libraries/CMSIS/Include\core_cm4.h **** 
 973:C:/Users/Utente/Desktop/Tesi/Firmware_Software/DAVE project/S2GLP_Pulsed_Doppler/Libraries/CMSIS/Include\core_cm4.h **** #define DWT_CTRL_EXCTRCENA_Pos             16U                                         /*!< DWT CTR
 974:C:/Users/Utente/Desktop/Tesi/Firmware_Software/DAVE project/S2GLP_Pulsed_Doppler/Libraries/CMSIS/Include\core_cm4.h **** #define DWT_CTRL_EXCTRCENA_Msk             (0x1UL << DWT_CTRL_EXCTRCENA_Pos)           /*!< DWT CTR
 975:C:/Users/Utente/Desktop/Tesi/Firmware_Software/DAVE project/S2GLP_Pulsed_Doppler/Libraries/CMSIS/Include\core_cm4.h **** 
 976:C:/Users/Utente/Desktop/Tesi/Firmware_Software/DAVE project/S2GLP_Pulsed_Doppler/Libraries/CMSIS/Include\core_cm4.h **** #define DWT_CTRL_PCSAMPLENA_Pos            12U                                         /*!< DWT CTR
 977:C:/Users/Utente/Desktop/Tesi/Firmware_Software/DAVE project/S2GLP_Pulsed_Doppler/Libraries/CMSIS/Include\core_cm4.h **** #define DWT_CTRL_PCSAMPLENA_Msk            (0x1UL << DWT_CTRL_PCSAMPLENA_Pos)          /*!< DWT CTR
 978:C:/Users/Utente/Desktop/Tesi/Firmware_Software/DAVE project/S2GLP_Pulsed_Doppler/Libraries/CMSIS/Include\core_cm4.h **** 
 979:C:/Users/Utente/Desktop/Tesi/Firmware_Software/DAVE project/S2GLP_Pulsed_Doppler/Libraries/CMSIS/Include\core_cm4.h **** #define DWT_CTRL_SYNCTAP_Pos               10U                                         /*!< DWT CTR
 980:C:/Users/Utente/Desktop/Tesi/Firmware_Software/DAVE project/S2GLP_Pulsed_Doppler/Libraries/CMSIS/Include\core_cm4.h **** #define DWT_CTRL_SYNCTAP_Msk               (0x3UL << DWT_CTRL_SYNCTAP_Pos)             /*!< DWT CTR
 981:C:/Users/Utente/Desktop/Tesi/Firmware_Software/DAVE project/S2GLP_Pulsed_Doppler/Libraries/CMSIS/Include\core_cm4.h **** 
 982:C:/Users/Utente/Desktop/Tesi/Firmware_Software/DAVE project/S2GLP_Pulsed_Doppler/Libraries/CMSIS/Include\core_cm4.h **** #define DWT_CTRL_CYCTAP_Pos                 9U                                         /*!< DWT CTR
 983:C:/Users/Utente/Desktop/Tesi/Firmware_Software/DAVE project/S2GLP_Pulsed_Doppler/Libraries/CMSIS/Include\core_cm4.h **** #define DWT_CTRL_CYCTAP_Msk                (0x1UL << DWT_CTRL_CYCTAP_Pos)              /*!< DWT CTR
 984:C:/Users/Utente/Desktop/Tesi/Firmware_Software/DAVE project/S2GLP_Pulsed_Doppler/Libraries/CMSIS/Include\core_cm4.h **** 
 985:C:/Users/Utente/Desktop/Tesi/Firmware_Software/DAVE project/S2GLP_Pulsed_Doppler/Libraries/CMSIS/Include\core_cm4.h **** #define DWT_CTRL_POSTINIT_Pos               5U                                         /*!< DWT CTR
 986:C:/Users/Utente/Desktop/Tesi/Firmware_Software/DAVE project/S2GLP_Pulsed_Doppler/Libraries/CMSIS/Include\core_cm4.h **** #define DWT_CTRL_POSTINIT_Msk              (0xFUL << DWT_CTRL_POSTINIT_Pos)            /*!< DWT CTR
 987:C:/Users/Utente/Desktop/Tesi/Firmware_Software/DAVE project/S2GLP_Pulsed_Doppler/Libraries/CMSIS/Include\core_cm4.h **** 
 988:C:/Users/Utente/Desktop/Tesi/Firmware_Software/DAVE project/S2GLP_Pulsed_Doppler/Libraries/CMSIS/Include\core_cm4.h **** #define DWT_CTRL_POSTPRESET_Pos             1U                                         /*!< DWT CTR
 989:C:/Users/Utente/Desktop/Tesi/Firmware_Software/DAVE project/S2GLP_Pulsed_Doppler/Libraries/CMSIS/Include\core_cm4.h **** #define DWT_CTRL_POSTPRESET_Msk            (0xFUL << DWT_CTRL_POSTPRESET_Pos)          /*!< DWT CTR
 990:C:/Users/Utente/Desktop/Tesi/Firmware_Software/DAVE project/S2GLP_Pulsed_Doppler/Libraries/CMSIS/Include\core_cm4.h **** 
 991:C:/Users/Utente/Desktop/Tesi/Firmware_Software/DAVE project/S2GLP_Pulsed_Doppler/Libraries/CMSIS/Include\core_cm4.h **** #define DWT_CTRL_CYCCNTENA_Pos              0U                                         /*!< DWT CTR
 992:C:/Users/Utente/Desktop/Tesi/Firmware_Software/DAVE project/S2GLP_Pulsed_Doppler/Libraries/CMSIS/Include\core_cm4.h **** #define DWT_CTRL_CYCCNTENA_Msk             (0x1UL /*<< DWT_CTRL_CYCCNTENA_Pos*/)       /*!< DWT CTR
 993:C:/Users/Utente/Desktop/Tesi/Firmware_Software/DAVE project/S2GLP_Pulsed_Doppler/Libraries/CMSIS/Include\core_cm4.h **** 
 994:C:/Users/Utente/Desktop/Tesi/Firmware_Software/DAVE project/S2GLP_Pulsed_Doppler/Libraries/CMSIS/Include\core_cm4.h **** /* DWT CPI Count Register Definitions */
 995:C:/Users/Utente/Desktop/Tesi/Firmware_Software/DAVE project/S2GLP_Pulsed_Doppler/Libraries/CMSIS/Include\core_cm4.h **** #define DWT_CPICNT_CPICNT_Pos               0U                                         /*!< DWT CPI
 996:C:/Users/Utente/Desktop/Tesi/Firmware_Software/DAVE project/S2GLP_Pulsed_Doppler/Libraries/CMSIS/Include\core_cm4.h **** #define DWT_CPICNT_CPICNT_Msk              (0xFFUL /*<< DWT_CPICNT_CPICNT_Pos*/)       /*!< DWT CPI
 997:C:/Users/Utente/Desktop/Tesi/Firmware_Software/DAVE project/S2GLP_Pulsed_Doppler/Libraries/CMSIS/Include\core_cm4.h **** 
 998:C:/Users/Utente/Desktop/Tesi/Firmware_Software/DAVE project/S2GLP_Pulsed_Doppler/Libraries/CMSIS/Include\core_cm4.h **** /* DWT Exception Overhead Count Register Definitions */
 999:C:/Users/Utente/Desktop/Tesi/Firmware_Software/DAVE project/S2GLP_Pulsed_Doppler/Libraries/CMSIS/Include\core_cm4.h **** #define DWT_EXCCNT_EXCCNT_Pos               0U                                         /*!< DWT EXC
1000:C:/Users/Utente/Desktop/Tesi/Firmware_Software/DAVE project/S2GLP_Pulsed_Doppler/Libraries/CMSIS/Include\core_cm4.h **** #define DWT_EXCCNT_EXCCNT_Msk              (0xFFUL /*<< DWT_EXCCNT_EXCCNT_Pos*/)       /*!< DWT EXC
1001:C:/Users/Utente/Desktop/Tesi/Firmware_Software/DAVE project/S2GLP_Pulsed_Doppler/Libraries/CMSIS/Include\core_cm4.h **** 
1002:C:/Users/Utente/Desktop/Tesi/Firmware_Software/DAVE project/S2GLP_Pulsed_Doppler/Libraries/CMSIS/Include\core_cm4.h **** /* DWT Sleep Count Register Definitions */
1003:C:/Users/Utente/Desktop/Tesi/Firmware_Software/DAVE project/S2GLP_Pulsed_Doppler/Libraries/CMSIS/Include\core_cm4.h **** #define DWT_SLEEPCNT_SLEEPCNT_Pos           0U                                         /*!< DWT SLE
1004:C:/Users/Utente/Desktop/Tesi/Firmware_Software/DAVE project/S2GLP_Pulsed_Doppler/Libraries/CMSIS/Include\core_cm4.h **** #define DWT_SLEEPCNT_SLEEPCNT_Msk          (0xFFUL /*<< DWT_SLEEPCNT_SLEEPCNT_Pos*/)   /*!< DWT SLE
1005:C:/Users/Utente/Desktop/Tesi/Firmware_Software/DAVE project/S2GLP_Pulsed_Doppler/Libraries/CMSIS/Include\core_cm4.h **** 
1006:C:/Users/Utente/Desktop/Tesi/Firmware_Software/DAVE project/S2GLP_Pulsed_Doppler/Libraries/CMSIS/Include\core_cm4.h **** /* DWT LSU Count Register Definitions */
1007:C:/Users/Utente/Desktop/Tesi/Firmware_Software/DAVE project/S2GLP_Pulsed_Doppler/Libraries/CMSIS/Include\core_cm4.h **** #define DWT_LSUCNT_LSUCNT_Pos               0U                                         /*!< DWT LSU
1008:C:/Users/Utente/Desktop/Tesi/Firmware_Software/DAVE project/S2GLP_Pulsed_Doppler/Libraries/CMSIS/Include\core_cm4.h **** #define DWT_LSUCNT_LSUCNT_Msk              (0xFFUL /*<< DWT_LSUCNT_LSUCNT_Pos*/)       /*!< DWT LSU
1009:C:/Users/Utente/Desktop/Tesi/Firmware_Software/DAVE project/S2GLP_Pulsed_Doppler/Libraries/CMSIS/Include\core_cm4.h **** 
1010:C:/Users/Utente/Desktop/Tesi/Firmware_Software/DAVE project/S2GLP_Pulsed_Doppler/Libraries/CMSIS/Include\core_cm4.h **** /* DWT Folded-instruction Count Register Definitions */
1011:C:/Users/Utente/Desktop/Tesi/Firmware_Software/DAVE project/S2GLP_Pulsed_Doppler/Libraries/CMSIS/Include\core_cm4.h **** #define DWT_FOLDCNT_FOLDCNT_Pos             0U                                         /*!< DWT FOL
1012:C:/Users/Utente/Desktop/Tesi/Firmware_Software/DAVE project/S2GLP_Pulsed_Doppler/Libraries/CMSIS/Include\core_cm4.h **** #define DWT_FOLDCNT_FOLDCNT_Msk            (0xFFUL /*<< DWT_FOLDCNT_FOLDCNT_Pos*/)     /*!< DWT FOL
1013:C:/Users/Utente/Desktop/Tesi/Firmware_Software/DAVE project/S2GLP_Pulsed_Doppler/Libraries/CMSIS/Include\core_cm4.h **** 
1014:C:/Users/Utente/Desktop/Tesi/Firmware_Software/DAVE project/S2GLP_Pulsed_Doppler/Libraries/CMSIS/Include\core_cm4.h **** /* DWT Comparator Mask Register Definitions */
1015:C:/Users/Utente/Desktop/Tesi/Firmware_Software/DAVE project/S2GLP_Pulsed_Doppler/Libraries/CMSIS/Include\core_cm4.h **** #define DWT_MASK_MASK_Pos                   0U                                         /*!< DWT MAS
1016:C:/Users/Utente/Desktop/Tesi/Firmware_Software/DAVE project/S2GLP_Pulsed_Doppler/Libraries/CMSIS/Include\core_cm4.h **** #define DWT_MASK_MASK_Msk                  (0x1FUL /*<< DWT_MASK_MASK_Pos*/)           /*!< DWT MAS
1017:C:/Users/Utente/Desktop/Tesi/Firmware_Software/DAVE project/S2GLP_Pulsed_Doppler/Libraries/CMSIS/Include\core_cm4.h **** 
1018:C:/Users/Utente/Desktop/Tesi/Firmware_Software/DAVE project/S2GLP_Pulsed_Doppler/Libraries/CMSIS/Include\core_cm4.h **** /* DWT Comparator Function Register Definitions */
1019:C:/Users/Utente/Desktop/Tesi/Firmware_Software/DAVE project/S2GLP_Pulsed_Doppler/Libraries/CMSIS/Include\core_cm4.h **** #define DWT_FUNCTION_MATCHED_Pos           24U                                         /*!< DWT FUN
1020:C:/Users/Utente/Desktop/Tesi/Firmware_Software/DAVE project/S2GLP_Pulsed_Doppler/Libraries/CMSIS/Include\core_cm4.h **** #define DWT_FUNCTION_MATCHED_Msk           (0x1UL << DWT_FUNCTION_MATCHED_Pos)         /*!< DWT FUN
1021:C:/Users/Utente/Desktop/Tesi/Firmware_Software/DAVE project/S2GLP_Pulsed_Doppler/Libraries/CMSIS/Include\core_cm4.h **** 
1022:C:/Users/Utente/Desktop/Tesi/Firmware_Software/DAVE project/S2GLP_Pulsed_Doppler/Libraries/CMSIS/Include\core_cm4.h **** #define DWT_FUNCTION_DATAVADDR1_Pos        16U                                         /*!< DWT FUN
1023:C:/Users/Utente/Desktop/Tesi/Firmware_Software/DAVE project/S2GLP_Pulsed_Doppler/Libraries/CMSIS/Include\core_cm4.h **** #define DWT_FUNCTION_DATAVADDR1_Msk        (0xFUL << DWT_FUNCTION_DATAVADDR1_Pos)      /*!< DWT FUN
1024:C:/Users/Utente/Desktop/Tesi/Firmware_Software/DAVE project/S2GLP_Pulsed_Doppler/Libraries/CMSIS/Include\core_cm4.h **** 
1025:C:/Users/Utente/Desktop/Tesi/Firmware_Software/DAVE project/S2GLP_Pulsed_Doppler/Libraries/CMSIS/Include\core_cm4.h **** #define DWT_FUNCTION_DATAVADDR0_Pos        12U                                         /*!< DWT FUN
1026:C:/Users/Utente/Desktop/Tesi/Firmware_Software/DAVE project/S2GLP_Pulsed_Doppler/Libraries/CMSIS/Include\core_cm4.h **** #define DWT_FUNCTION_DATAVADDR0_Msk        (0xFUL << DWT_FUNCTION_DATAVADDR0_Pos)      /*!< DWT FUN
1027:C:/Users/Utente/Desktop/Tesi/Firmware_Software/DAVE project/S2GLP_Pulsed_Doppler/Libraries/CMSIS/Include\core_cm4.h **** 
1028:C:/Users/Utente/Desktop/Tesi/Firmware_Software/DAVE project/S2GLP_Pulsed_Doppler/Libraries/CMSIS/Include\core_cm4.h **** #define DWT_FUNCTION_DATAVSIZE_Pos         10U                                         /*!< DWT FUN
1029:C:/Users/Utente/Desktop/Tesi/Firmware_Software/DAVE project/S2GLP_Pulsed_Doppler/Libraries/CMSIS/Include\core_cm4.h **** #define DWT_FUNCTION_DATAVSIZE_Msk         (0x3UL << DWT_FUNCTION_DATAVSIZE_Pos)       /*!< DWT FUN
1030:C:/Users/Utente/Desktop/Tesi/Firmware_Software/DAVE project/S2GLP_Pulsed_Doppler/Libraries/CMSIS/Include\core_cm4.h **** 
1031:C:/Users/Utente/Desktop/Tesi/Firmware_Software/DAVE project/S2GLP_Pulsed_Doppler/Libraries/CMSIS/Include\core_cm4.h **** #define DWT_FUNCTION_LNK1ENA_Pos            9U                                         /*!< DWT FUN
1032:C:/Users/Utente/Desktop/Tesi/Firmware_Software/DAVE project/S2GLP_Pulsed_Doppler/Libraries/CMSIS/Include\core_cm4.h **** #define DWT_FUNCTION_LNK1ENA_Msk           (0x1UL << DWT_FUNCTION_LNK1ENA_Pos)         /*!< DWT FUN
1033:C:/Users/Utente/Desktop/Tesi/Firmware_Software/DAVE project/S2GLP_Pulsed_Doppler/Libraries/CMSIS/Include\core_cm4.h **** 
1034:C:/Users/Utente/Desktop/Tesi/Firmware_Software/DAVE project/S2GLP_Pulsed_Doppler/Libraries/CMSIS/Include\core_cm4.h **** #define DWT_FUNCTION_DATAVMATCH_Pos         8U                                         /*!< DWT FUN
1035:C:/Users/Utente/Desktop/Tesi/Firmware_Software/DAVE project/S2GLP_Pulsed_Doppler/Libraries/CMSIS/Include\core_cm4.h **** #define DWT_FUNCTION_DATAVMATCH_Msk        (0x1UL << DWT_FUNCTION_DATAVMATCH_Pos)      /*!< DWT FUN
1036:C:/Users/Utente/Desktop/Tesi/Firmware_Software/DAVE project/S2GLP_Pulsed_Doppler/Libraries/CMSIS/Include\core_cm4.h **** 
1037:C:/Users/Utente/Desktop/Tesi/Firmware_Software/DAVE project/S2GLP_Pulsed_Doppler/Libraries/CMSIS/Include\core_cm4.h **** #define DWT_FUNCTION_CYCMATCH_Pos           7U                                         /*!< DWT FUN
1038:C:/Users/Utente/Desktop/Tesi/Firmware_Software/DAVE project/S2GLP_Pulsed_Doppler/Libraries/CMSIS/Include\core_cm4.h **** #define DWT_FUNCTION_CYCMATCH_Msk          (0x1UL << DWT_FUNCTION_CYCMATCH_Pos)        /*!< DWT FUN
1039:C:/Users/Utente/Desktop/Tesi/Firmware_Software/DAVE project/S2GLP_Pulsed_Doppler/Libraries/CMSIS/Include\core_cm4.h **** 
1040:C:/Users/Utente/Desktop/Tesi/Firmware_Software/DAVE project/S2GLP_Pulsed_Doppler/Libraries/CMSIS/Include\core_cm4.h **** #define DWT_FUNCTION_EMITRANGE_Pos          5U                                         /*!< DWT FUN
1041:C:/Users/Utente/Desktop/Tesi/Firmware_Software/DAVE project/S2GLP_Pulsed_Doppler/Libraries/CMSIS/Include\core_cm4.h **** #define DWT_FUNCTION_EMITRANGE_Msk         (0x1UL << DWT_FUNCTION_EMITRANGE_Pos)       /*!< DWT FUN
1042:C:/Users/Utente/Desktop/Tesi/Firmware_Software/DAVE project/S2GLP_Pulsed_Doppler/Libraries/CMSIS/Include\core_cm4.h **** 
1043:C:/Users/Utente/Desktop/Tesi/Firmware_Software/DAVE project/S2GLP_Pulsed_Doppler/Libraries/CMSIS/Include\core_cm4.h **** #define DWT_FUNCTION_FUNCTION_Pos           0U                                         /*!< DWT FUN
1044:C:/Users/Utente/Desktop/Tesi/Firmware_Software/DAVE project/S2GLP_Pulsed_Doppler/Libraries/CMSIS/Include\core_cm4.h **** #define DWT_FUNCTION_FUNCTION_Msk          (0xFUL /*<< DWT_FUNCTION_FUNCTION_Pos*/)    /*!< DWT FUN
1045:C:/Users/Utente/Desktop/Tesi/Firmware_Software/DAVE project/S2GLP_Pulsed_Doppler/Libraries/CMSIS/Include\core_cm4.h **** 
1046:C:/Users/Utente/Desktop/Tesi/Firmware_Software/DAVE project/S2GLP_Pulsed_Doppler/Libraries/CMSIS/Include\core_cm4.h **** /*@}*/ /* end of group CMSIS_DWT */
1047:C:/Users/Utente/Desktop/Tesi/Firmware_Software/DAVE project/S2GLP_Pulsed_Doppler/Libraries/CMSIS/Include\core_cm4.h **** 
1048:C:/Users/Utente/Desktop/Tesi/Firmware_Software/DAVE project/S2GLP_Pulsed_Doppler/Libraries/CMSIS/Include\core_cm4.h **** 
1049:C:/Users/Utente/Desktop/Tesi/Firmware_Software/DAVE project/S2GLP_Pulsed_Doppler/Libraries/CMSIS/Include\core_cm4.h **** /**
1050:C:/Users/Utente/Desktop/Tesi/Firmware_Software/DAVE project/S2GLP_Pulsed_Doppler/Libraries/CMSIS/Include\core_cm4.h ****   \ingroup  CMSIS_core_register
1051:C:/Users/Utente/Desktop/Tesi/Firmware_Software/DAVE project/S2GLP_Pulsed_Doppler/Libraries/CMSIS/Include\core_cm4.h ****   \defgroup CMSIS_TPI     Trace Port Interface (TPI)
1052:C:/Users/Utente/Desktop/Tesi/Firmware_Software/DAVE project/S2GLP_Pulsed_Doppler/Libraries/CMSIS/Include\core_cm4.h ****   \brief    Type definitions for the Trace Port Interface (TPI)
1053:C:/Users/Utente/Desktop/Tesi/Firmware_Software/DAVE project/S2GLP_Pulsed_Doppler/Libraries/CMSIS/Include\core_cm4.h ****   @{
1054:C:/Users/Utente/Desktop/Tesi/Firmware_Software/DAVE project/S2GLP_Pulsed_Doppler/Libraries/CMSIS/Include\core_cm4.h ****  */
1055:C:/Users/Utente/Desktop/Tesi/Firmware_Software/DAVE project/S2GLP_Pulsed_Doppler/Libraries/CMSIS/Include\core_cm4.h **** 
1056:C:/Users/Utente/Desktop/Tesi/Firmware_Software/DAVE project/S2GLP_Pulsed_Doppler/Libraries/CMSIS/Include\core_cm4.h **** /**
1057:C:/Users/Utente/Desktop/Tesi/Firmware_Software/DAVE project/S2GLP_Pulsed_Doppler/Libraries/CMSIS/Include\core_cm4.h ****   \brief  Structure type to access the Trace Port Interface Register (TPI).
1058:C:/Users/Utente/Desktop/Tesi/Firmware_Software/DAVE project/S2GLP_Pulsed_Doppler/Libraries/CMSIS/Include\core_cm4.h ****  */
1059:C:/Users/Utente/Desktop/Tesi/Firmware_Software/DAVE project/S2GLP_Pulsed_Doppler/Libraries/CMSIS/Include\core_cm4.h **** typedef struct
1060:C:/Users/Utente/Desktop/Tesi/Firmware_Software/DAVE project/S2GLP_Pulsed_Doppler/Libraries/CMSIS/Include\core_cm4.h **** {
1061:C:/Users/Utente/Desktop/Tesi/Firmware_Software/DAVE project/S2GLP_Pulsed_Doppler/Libraries/CMSIS/Include\core_cm4.h ****   __IOM uint32_t SSPSR;                  /*!< Offset: 0x000 (R/ )  Supported Parallel Port Size Reg
1062:C:/Users/Utente/Desktop/Tesi/Firmware_Software/DAVE project/S2GLP_Pulsed_Doppler/Libraries/CMSIS/Include\core_cm4.h ****   __IOM uint32_t CSPSR;                  /*!< Offset: 0x004 (R/W)  Current Parallel Port Size Regis
1063:C:/Users/Utente/Desktop/Tesi/Firmware_Software/DAVE project/S2GLP_Pulsed_Doppler/Libraries/CMSIS/Include\core_cm4.h ****         uint32_t RESERVED0[2U];
1064:C:/Users/Utente/Desktop/Tesi/Firmware_Software/DAVE project/S2GLP_Pulsed_Doppler/Libraries/CMSIS/Include\core_cm4.h ****   __IOM uint32_t ACPR;                   /*!< Offset: 0x010 (R/W)  Asynchronous Clock Prescaler Reg
1065:C:/Users/Utente/Desktop/Tesi/Firmware_Software/DAVE project/S2GLP_Pulsed_Doppler/Libraries/CMSIS/Include\core_cm4.h ****         uint32_t RESERVED1[55U];
1066:C:/Users/Utente/Desktop/Tesi/Firmware_Software/DAVE project/S2GLP_Pulsed_Doppler/Libraries/CMSIS/Include\core_cm4.h ****   __IOM uint32_t SPPR;                   /*!< Offset: 0x0F0 (R/W)  Selected Pin Protocol Register *
1067:C:/Users/Utente/Desktop/Tesi/Firmware_Software/DAVE project/S2GLP_Pulsed_Doppler/Libraries/CMSIS/Include\core_cm4.h ****         uint32_t RESERVED2[131U];
1068:C:/Users/Utente/Desktop/Tesi/Firmware_Software/DAVE project/S2GLP_Pulsed_Doppler/Libraries/CMSIS/Include\core_cm4.h ****   __IM  uint32_t FFSR;                   /*!< Offset: 0x300 (R/ )  Formatter and Flush Status Regis
1069:C:/Users/Utente/Desktop/Tesi/Firmware_Software/DAVE project/S2GLP_Pulsed_Doppler/Libraries/CMSIS/Include\core_cm4.h ****   __IOM uint32_t FFCR;                   /*!< Offset: 0x304 (R/W)  Formatter and Flush Control Regi
1070:C:/Users/Utente/Desktop/Tesi/Firmware_Software/DAVE project/S2GLP_Pulsed_Doppler/Libraries/CMSIS/Include\core_cm4.h ****   __IM  uint32_t FSCR;                   /*!< Offset: 0x308 (R/ )  Formatter Synchronization Counte
1071:C:/Users/Utente/Desktop/Tesi/Firmware_Software/DAVE project/S2GLP_Pulsed_Doppler/Libraries/CMSIS/Include\core_cm4.h ****         uint32_t RESERVED3[759U];
1072:C:/Users/Utente/Desktop/Tesi/Firmware_Software/DAVE project/S2GLP_Pulsed_Doppler/Libraries/CMSIS/Include\core_cm4.h ****   __IM  uint32_t TRIGGER;                /*!< Offset: 0xEE8 (R/ )  TRIGGER */
1073:C:/Users/Utente/Desktop/Tesi/Firmware_Software/DAVE project/S2GLP_Pulsed_Doppler/Libraries/CMSIS/Include\core_cm4.h ****   __IM  uint32_t FIFO0;                  /*!< Offset: 0xEEC (R/ )  Integration ETM Data */
1074:C:/Users/Utente/Desktop/Tesi/Firmware_Software/DAVE project/S2GLP_Pulsed_Doppler/Libraries/CMSIS/Include\core_cm4.h ****   __IM  uint32_t ITATBCTR2;              /*!< Offset: 0xEF0 (R/ )  ITATBCTR2 */
1075:C:/Users/Utente/Desktop/Tesi/Firmware_Software/DAVE project/S2GLP_Pulsed_Doppler/Libraries/CMSIS/Include\core_cm4.h ****         uint32_t RESERVED4[1U];
1076:C:/Users/Utente/Desktop/Tesi/Firmware_Software/DAVE project/S2GLP_Pulsed_Doppler/Libraries/CMSIS/Include\core_cm4.h ****   __IM  uint32_t ITATBCTR0;              /*!< Offset: 0xEF8 (R/ )  ITATBCTR0 */
1077:C:/Users/Utente/Desktop/Tesi/Firmware_Software/DAVE project/S2GLP_Pulsed_Doppler/Libraries/CMSIS/Include\core_cm4.h ****   __IM  uint32_t FIFO1;                  /*!< Offset: 0xEFC (R/ )  Integration ITM Data */
1078:C:/Users/Utente/Desktop/Tesi/Firmware_Software/DAVE project/S2GLP_Pulsed_Doppler/Libraries/CMSIS/Include\core_cm4.h ****   __IOM uint32_t ITCTRL;                 /*!< Offset: 0xF00 (R/W)  Integration Mode Control */
1079:C:/Users/Utente/Desktop/Tesi/Firmware_Software/DAVE project/S2GLP_Pulsed_Doppler/Libraries/CMSIS/Include\core_cm4.h ****         uint32_t RESERVED5[39U];
1080:C:/Users/Utente/Desktop/Tesi/Firmware_Software/DAVE project/S2GLP_Pulsed_Doppler/Libraries/CMSIS/Include\core_cm4.h ****   __IOM uint32_t CLAIMSET;               /*!< Offset: 0xFA0 (R/W)  Claim tag set */
1081:C:/Users/Utente/Desktop/Tesi/Firmware_Software/DAVE project/S2GLP_Pulsed_Doppler/Libraries/CMSIS/Include\core_cm4.h ****   __IOM uint32_t CLAIMCLR;               /*!< Offset: 0xFA4 (R/W)  Claim tag clear */
1082:C:/Users/Utente/Desktop/Tesi/Firmware_Software/DAVE project/S2GLP_Pulsed_Doppler/Libraries/CMSIS/Include\core_cm4.h ****         uint32_t RESERVED7[8U];
1083:C:/Users/Utente/Desktop/Tesi/Firmware_Software/DAVE project/S2GLP_Pulsed_Doppler/Libraries/CMSIS/Include\core_cm4.h ****   __IM  uint32_t DEVID;                  /*!< Offset: 0xFC8 (R/ )  TPIU_DEVID */
1084:C:/Users/Utente/Desktop/Tesi/Firmware_Software/DAVE project/S2GLP_Pulsed_Doppler/Libraries/CMSIS/Include\core_cm4.h ****   __IM  uint32_t DEVTYPE;                /*!< Offset: 0xFCC (R/ )  TPIU_DEVTYPE */
1085:C:/Users/Utente/Desktop/Tesi/Firmware_Software/DAVE project/S2GLP_Pulsed_Doppler/Libraries/CMSIS/Include\core_cm4.h **** } TPI_Type;
1086:C:/Users/Utente/Desktop/Tesi/Firmware_Software/DAVE project/S2GLP_Pulsed_Doppler/Libraries/CMSIS/Include\core_cm4.h **** 
1087:C:/Users/Utente/Desktop/Tesi/Firmware_Software/DAVE project/S2GLP_Pulsed_Doppler/Libraries/CMSIS/Include\core_cm4.h **** /* TPI Asynchronous Clock Prescaler Register Definitions */
1088:C:/Users/Utente/Desktop/Tesi/Firmware_Software/DAVE project/S2GLP_Pulsed_Doppler/Libraries/CMSIS/Include\core_cm4.h **** #define TPI_ACPR_PRESCALER_Pos              0U                                         /*!< TPI ACP
1089:C:/Users/Utente/Desktop/Tesi/Firmware_Software/DAVE project/S2GLP_Pulsed_Doppler/Libraries/CMSIS/Include\core_cm4.h **** #define TPI_ACPR_PRESCALER_Msk             (0x1FFFUL /*<< TPI_ACPR_PRESCALER_Pos*/)    /*!< TPI ACP
1090:C:/Users/Utente/Desktop/Tesi/Firmware_Software/DAVE project/S2GLP_Pulsed_Doppler/Libraries/CMSIS/Include\core_cm4.h **** 
1091:C:/Users/Utente/Desktop/Tesi/Firmware_Software/DAVE project/S2GLP_Pulsed_Doppler/Libraries/CMSIS/Include\core_cm4.h **** /* TPI Selected Pin Protocol Register Definitions */
1092:C:/Users/Utente/Desktop/Tesi/Firmware_Software/DAVE project/S2GLP_Pulsed_Doppler/Libraries/CMSIS/Include\core_cm4.h **** #define TPI_SPPR_TXMODE_Pos                 0U                                         /*!< TPI SPP
1093:C:/Users/Utente/Desktop/Tesi/Firmware_Software/DAVE project/S2GLP_Pulsed_Doppler/Libraries/CMSIS/Include\core_cm4.h **** #define TPI_SPPR_TXMODE_Msk                (0x3UL /*<< TPI_SPPR_TXMODE_Pos*/)          /*!< TPI SPP
1094:C:/Users/Utente/Desktop/Tesi/Firmware_Software/DAVE project/S2GLP_Pulsed_Doppler/Libraries/CMSIS/Include\core_cm4.h **** 
1095:C:/Users/Utente/Desktop/Tesi/Firmware_Software/DAVE project/S2GLP_Pulsed_Doppler/Libraries/CMSIS/Include\core_cm4.h **** /* TPI Formatter and Flush Status Register Definitions */
1096:C:/Users/Utente/Desktop/Tesi/Firmware_Software/DAVE project/S2GLP_Pulsed_Doppler/Libraries/CMSIS/Include\core_cm4.h **** #define TPI_FFSR_FtNonStop_Pos              3U                                         /*!< TPI FFS
1097:C:/Users/Utente/Desktop/Tesi/Firmware_Software/DAVE project/S2GLP_Pulsed_Doppler/Libraries/CMSIS/Include\core_cm4.h **** #define TPI_FFSR_FtNonStop_Msk             (0x1UL << TPI_FFSR_FtNonStop_Pos)           /*!< TPI FFS
1098:C:/Users/Utente/Desktop/Tesi/Firmware_Software/DAVE project/S2GLP_Pulsed_Doppler/Libraries/CMSIS/Include\core_cm4.h **** 
1099:C:/Users/Utente/Desktop/Tesi/Firmware_Software/DAVE project/S2GLP_Pulsed_Doppler/Libraries/CMSIS/Include\core_cm4.h **** #define TPI_FFSR_TCPresent_Pos              2U                                         /*!< TPI FFS
1100:C:/Users/Utente/Desktop/Tesi/Firmware_Software/DAVE project/S2GLP_Pulsed_Doppler/Libraries/CMSIS/Include\core_cm4.h **** #define TPI_FFSR_TCPresent_Msk             (0x1UL << TPI_FFSR_TCPresent_Pos)           /*!< TPI FFS
1101:C:/Users/Utente/Desktop/Tesi/Firmware_Software/DAVE project/S2GLP_Pulsed_Doppler/Libraries/CMSIS/Include\core_cm4.h **** 
1102:C:/Users/Utente/Desktop/Tesi/Firmware_Software/DAVE project/S2GLP_Pulsed_Doppler/Libraries/CMSIS/Include\core_cm4.h **** #define TPI_FFSR_FtStopped_Pos              1U                                         /*!< TPI FFS
1103:C:/Users/Utente/Desktop/Tesi/Firmware_Software/DAVE project/S2GLP_Pulsed_Doppler/Libraries/CMSIS/Include\core_cm4.h **** #define TPI_FFSR_FtStopped_Msk             (0x1UL << TPI_FFSR_FtStopped_Pos)           /*!< TPI FFS
1104:C:/Users/Utente/Desktop/Tesi/Firmware_Software/DAVE project/S2GLP_Pulsed_Doppler/Libraries/CMSIS/Include\core_cm4.h **** 
1105:C:/Users/Utente/Desktop/Tesi/Firmware_Software/DAVE project/S2GLP_Pulsed_Doppler/Libraries/CMSIS/Include\core_cm4.h **** #define TPI_FFSR_FlInProg_Pos               0U                                         /*!< TPI FFS
1106:C:/Users/Utente/Desktop/Tesi/Firmware_Software/DAVE project/S2GLP_Pulsed_Doppler/Libraries/CMSIS/Include\core_cm4.h **** #define TPI_FFSR_FlInProg_Msk              (0x1UL /*<< TPI_FFSR_FlInProg_Pos*/)        /*!< TPI FFS
1107:C:/Users/Utente/Desktop/Tesi/Firmware_Software/DAVE project/S2GLP_Pulsed_Doppler/Libraries/CMSIS/Include\core_cm4.h **** 
1108:C:/Users/Utente/Desktop/Tesi/Firmware_Software/DAVE project/S2GLP_Pulsed_Doppler/Libraries/CMSIS/Include\core_cm4.h **** /* TPI Formatter and Flush Control Register Definitions */
1109:C:/Users/Utente/Desktop/Tesi/Firmware_Software/DAVE project/S2GLP_Pulsed_Doppler/Libraries/CMSIS/Include\core_cm4.h **** #define TPI_FFCR_TrigIn_Pos                 8U                                         /*!< TPI FFC
1110:C:/Users/Utente/Desktop/Tesi/Firmware_Software/DAVE project/S2GLP_Pulsed_Doppler/Libraries/CMSIS/Include\core_cm4.h **** #define TPI_FFCR_TrigIn_Msk                (0x1UL << TPI_FFCR_TrigIn_Pos)              /*!< TPI FFC
1111:C:/Users/Utente/Desktop/Tesi/Firmware_Software/DAVE project/S2GLP_Pulsed_Doppler/Libraries/CMSIS/Include\core_cm4.h **** 
1112:C:/Users/Utente/Desktop/Tesi/Firmware_Software/DAVE project/S2GLP_Pulsed_Doppler/Libraries/CMSIS/Include\core_cm4.h **** #define TPI_FFCR_EnFCont_Pos                1U                                         /*!< TPI FFC
1113:C:/Users/Utente/Desktop/Tesi/Firmware_Software/DAVE project/S2GLP_Pulsed_Doppler/Libraries/CMSIS/Include\core_cm4.h **** #define TPI_FFCR_EnFCont_Msk               (0x1UL << TPI_FFCR_EnFCont_Pos)             /*!< TPI FFC
1114:C:/Users/Utente/Desktop/Tesi/Firmware_Software/DAVE project/S2GLP_Pulsed_Doppler/Libraries/CMSIS/Include\core_cm4.h **** 
1115:C:/Users/Utente/Desktop/Tesi/Firmware_Software/DAVE project/S2GLP_Pulsed_Doppler/Libraries/CMSIS/Include\core_cm4.h **** /* TPI TRIGGER Register Definitions */
1116:C:/Users/Utente/Desktop/Tesi/Firmware_Software/DAVE project/S2GLP_Pulsed_Doppler/Libraries/CMSIS/Include\core_cm4.h **** #define TPI_TRIGGER_TRIGGER_Pos             0U                                         /*!< TPI TRI
1117:C:/Users/Utente/Desktop/Tesi/Firmware_Software/DAVE project/S2GLP_Pulsed_Doppler/Libraries/CMSIS/Include\core_cm4.h **** #define TPI_TRIGGER_TRIGGER_Msk            (0x1UL /*<< TPI_TRIGGER_TRIGGER_Pos*/)      /*!< TPI TRI
1118:C:/Users/Utente/Desktop/Tesi/Firmware_Software/DAVE project/S2GLP_Pulsed_Doppler/Libraries/CMSIS/Include\core_cm4.h **** 
1119:C:/Users/Utente/Desktop/Tesi/Firmware_Software/DAVE project/S2GLP_Pulsed_Doppler/Libraries/CMSIS/Include\core_cm4.h **** /* TPI Integration ETM Data Register Definitions (FIFO0) */
1120:C:/Users/Utente/Desktop/Tesi/Firmware_Software/DAVE project/S2GLP_Pulsed_Doppler/Libraries/CMSIS/Include\core_cm4.h **** #define TPI_FIFO0_ITM_ATVALID_Pos          29U                                         /*!< TPI FIF
1121:C:/Users/Utente/Desktop/Tesi/Firmware_Software/DAVE project/S2GLP_Pulsed_Doppler/Libraries/CMSIS/Include\core_cm4.h **** #define TPI_FIFO0_ITM_ATVALID_Msk          (0x3UL << TPI_FIFO0_ITM_ATVALID_Pos)        /*!< TPI FIF
1122:C:/Users/Utente/Desktop/Tesi/Firmware_Software/DAVE project/S2GLP_Pulsed_Doppler/Libraries/CMSIS/Include\core_cm4.h **** 
1123:C:/Users/Utente/Desktop/Tesi/Firmware_Software/DAVE project/S2GLP_Pulsed_Doppler/Libraries/CMSIS/Include\core_cm4.h **** #define TPI_FIFO0_ITM_bytecount_Pos        27U                                         /*!< TPI FIF
1124:C:/Users/Utente/Desktop/Tesi/Firmware_Software/DAVE project/S2GLP_Pulsed_Doppler/Libraries/CMSIS/Include\core_cm4.h **** #define TPI_FIFO0_ITM_bytecount_Msk        (0x3UL << TPI_FIFO0_ITM_bytecount_Pos)      /*!< TPI FIF
1125:C:/Users/Utente/Desktop/Tesi/Firmware_Software/DAVE project/S2GLP_Pulsed_Doppler/Libraries/CMSIS/Include\core_cm4.h **** 
1126:C:/Users/Utente/Desktop/Tesi/Firmware_Software/DAVE project/S2GLP_Pulsed_Doppler/Libraries/CMSIS/Include\core_cm4.h **** #define TPI_FIFO0_ETM_ATVALID_Pos          26U                                         /*!< TPI FIF
1127:C:/Users/Utente/Desktop/Tesi/Firmware_Software/DAVE project/S2GLP_Pulsed_Doppler/Libraries/CMSIS/Include\core_cm4.h **** #define TPI_FIFO0_ETM_ATVALID_Msk          (0x3UL << TPI_FIFO0_ETM_ATVALID_Pos)        /*!< TPI FIF
1128:C:/Users/Utente/Desktop/Tesi/Firmware_Software/DAVE project/S2GLP_Pulsed_Doppler/Libraries/CMSIS/Include\core_cm4.h **** 
1129:C:/Users/Utente/Desktop/Tesi/Firmware_Software/DAVE project/S2GLP_Pulsed_Doppler/Libraries/CMSIS/Include\core_cm4.h **** #define TPI_FIFO0_ETM_bytecount_Pos        24U                                         /*!< TPI FIF
1130:C:/Users/Utente/Desktop/Tesi/Firmware_Software/DAVE project/S2GLP_Pulsed_Doppler/Libraries/CMSIS/Include\core_cm4.h **** #define TPI_FIFO0_ETM_bytecount_Msk        (0x3UL << TPI_FIFO0_ETM_bytecount_Pos)      /*!< TPI FIF
1131:C:/Users/Utente/Desktop/Tesi/Firmware_Software/DAVE project/S2GLP_Pulsed_Doppler/Libraries/CMSIS/Include\core_cm4.h **** 
1132:C:/Users/Utente/Desktop/Tesi/Firmware_Software/DAVE project/S2GLP_Pulsed_Doppler/Libraries/CMSIS/Include\core_cm4.h **** #define TPI_FIFO0_ETM2_Pos                 16U                                         /*!< TPI FIF
1133:C:/Users/Utente/Desktop/Tesi/Firmware_Software/DAVE project/S2GLP_Pulsed_Doppler/Libraries/CMSIS/Include\core_cm4.h **** #define TPI_FIFO0_ETM2_Msk                 (0xFFUL << TPI_FIFO0_ETM2_Pos)              /*!< TPI FIF
1134:C:/Users/Utente/Desktop/Tesi/Firmware_Software/DAVE project/S2GLP_Pulsed_Doppler/Libraries/CMSIS/Include\core_cm4.h **** 
1135:C:/Users/Utente/Desktop/Tesi/Firmware_Software/DAVE project/S2GLP_Pulsed_Doppler/Libraries/CMSIS/Include\core_cm4.h **** #define TPI_FIFO0_ETM1_Pos                  8U                                         /*!< TPI FIF
1136:C:/Users/Utente/Desktop/Tesi/Firmware_Software/DAVE project/S2GLP_Pulsed_Doppler/Libraries/CMSIS/Include\core_cm4.h **** #define TPI_FIFO0_ETM1_Msk                 (0xFFUL << TPI_FIFO0_ETM1_Pos)              /*!< TPI FIF
1137:C:/Users/Utente/Desktop/Tesi/Firmware_Software/DAVE project/S2GLP_Pulsed_Doppler/Libraries/CMSIS/Include\core_cm4.h **** 
1138:C:/Users/Utente/Desktop/Tesi/Firmware_Software/DAVE project/S2GLP_Pulsed_Doppler/Libraries/CMSIS/Include\core_cm4.h **** #define TPI_FIFO0_ETM0_Pos                  0U                                         /*!< TPI FIF
1139:C:/Users/Utente/Desktop/Tesi/Firmware_Software/DAVE project/S2GLP_Pulsed_Doppler/Libraries/CMSIS/Include\core_cm4.h **** #define TPI_FIFO0_ETM0_Msk                 (0xFFUL /*<< TPI_FIFO0_ETM0_Pos*/)          /*!< TPI FIF
1140:C:/Users/Utente/Desktop/Tesi/Firmware_Software/DAVE project/S2GLP_Pulsed_Doppler/Libraries/CMSIS/Include\core_cm4.h **** 
1141:C:/Users/Utente/Desktop/Tesi/Firmware_Software/DAVE project/S2GLP_Pulsed_Doppler/Libraries/CMSIS/Include\core_cm4.h **** /* TPI ITATBCTR2 Register Definitions */
1142:C:/Users/Utente/Desktop/Tesi/Firmware_Software/DAVE project/S2GLP_Pulsed_Doppler/Libraries/CMSIS/Include\core_cm4.h **** #define TPI_ITATBCTR2_ATREADY_Pos           0U                                         /*!< TPI ITA
1143:C:/Users/Utente/Desktop/Tesi/Firmware_Software/DAVE project/S2GLP_Pulsed_Doppler/Libraries/CMSIS/Include\core_cm4.h **** #define TPI_ITATBCTR2_ATREADY_Msk          (0x1UL /*<< TPI_ITATBCTR2_ATREADY_Pos*/)    /*!< TPI ITA
1144:C:/Users/Utente/Desktop/Tesi/Firmware_Software/DAVE project/S2GLP_Pulsed_Doppler/Libraries/CMSIS/Include\core_cm4.h **** 
1145:C:/Users/Utente/Desktop/Tesi/Firmware_Software/DAVE project/S2GLP_Pulsed_Doppler/Libraries/CMSIS/Include\core_cm4.h **** /* TPI Integration ITM Data Register Definitions (FIFO1) */
1146:C:/Users/Utente/Desktop/Tesi/Firmware_Software/DAVE project/S2GLP_Pulsed_Doppler/Libraries/CMSIS/Include\core_cm4.h **** #define TPI_FIFO1_ITM_ATVALID_Pos          29U                                         /*!< TPI FIF
1147:C:/Users/Utente/Desktop/Tesi/Firmware_Software/DAVE project/S2GLP_Pulsed_Doppler/Libraries/CMSIS/Include\core_cm4.h **** #define TPI_FIFO1_ITM_ATVALID_Msk          (0x3UL << TPI_FIFO1_ITM_ATVALID_Pos)        /*!< TPI FIF
1148:C:/Users/Utente/Desktop/Tesi/Firmware_Software/DAVE project/S2GLP_Pulsed_Doppler/Libraries/CMSIS/Include\core_cm4.h **** 
1149:C:/Users/Utente/Desktop/Tesi/Firmware_Software/DAVE project/S2GLP_Pulsed_Doppler/Libraries/CMSIS/Include\core_cm4.h **** #define TPI_FIFO1_ITM_bytecount_Pos        27U                                         /*!< TPI FIF
1150:C:/Users/Utente/Desktop/Tesi/Firmware_Software/DAVE project/S2GLP_Pulsed_Doppler/Libraries/CMSIS/Include\core_cm4.h **** #define TPI_FIFO1_ITM_bytecount_Msk        (0x3UL << TPI_FIFO1_ITM_bytecount_Pos)      /*!< TPI FIF
1151:C:/Users/Utente/Desktop/Tesi/Firmware_Software/DAVE project/S2GLP_Pulsed_Doppler/Libraries/CMSIS/Include\core_cm4.h **** 
1152:C:/Users/Utente/Desktop/Tesi/Firmware_Software/DAVE project/S2GLP_Pulsed_Doppler/Libraries/CMSIS/Include\core_cm4.h **** #define TPI_FIFO1_ETM_ATVALID_Pos          26U                                         /*!< TPI FIF
1153:C:/Users/Utente/Desktop/Tesi/Firmware_Software/DAVE project/S2GLP_Pulsed_Doppler/Libraries/CMSIS/Include\core_cm4.h **** #define TPI_FIFO1_ETM_ATVALID_Msk          (0x3UL << TPI_FIFO1_ETM_ATVALID_Pos)        /*!< TPI FIF
1154:C:/Users/Utente/Desktop/Tesi/Firmware_Software/DAVE project/S2GLP_Pulsed_Doppler/Libraries/CMSIS/Include\core_cm4.h **** 
1155:C:/Users/Utente/Desktop/Tesi/Firmware_Software/DAVE project/S2GLP_Pulsed_Doppler/Libraries/CMSIS/Include\core_cm4.h **** #define TPI_FIFO1_ETM_bytecount_Pos        24U                                         /*!< TPI FIF
1156:C:/Users/Utente/Desktop/Tesi/Firmware_Software/DAVE project/S2GLP_Pulsed_Doppler/Libraries/CMSIS/Include\core_cm4.h **** #define TPI_FIFO1_ETM_bytecount_Msk        (0x3UL << TPI_FIFO1_ETM_bytecount_Pos)      /*!< TPI FIF
1157:C:/Users/Utente/Desktop/Tesi/Firmware_Software/DAVE project/S2GLP_Pulsed_Doppler/Libraries/CMSIS/Include\core_cm4.h **** 
1158:C:/Users/Utente/Desktop/Tesi/Firmware_Software/DAVE project/S2GLP_Pulsed_Doppler/Libraries/CMSIS/Include\core_cm4.h **** #define TPI_FIFO1_ITM2_Pos                 16U                                         /*!< TPI FIF
1159:C:/Users/Utente/Desktop/Tesi/Firmware_Software/DAVE project/S2GLP_Pulsed_Doppler/Libraries/CMSIS/Include\core_cm4.h **** #define TPI_FIFO1_ITM2_Msk                 (0xFFUL << TPI_FIFO1_ITM2_Pos)              /*!< TPI FIF
1160:C:/Users/Utente/Desktop/Tesi/Firmware_Software/DAVE project/S2GLP_Pulsed_Doppler/Libraries/CMSIS/Include\core_cm4.h **** 
1161:C:/Users/Utente/Desktop/Tesi/Firmware_Software/DAVE project/S2GLP_Pulsed_Doppler/Libraries/CMSIS/Include\core_cm4.h **** #define TPI_FIFO1_ITM1_Pos                  8U                                         /*!< TPI FIF
1162:C:/Users/Utente/Desktop/Tesi/Firmware_Software/DAVE project/S2GLP_Pulsed_Doppler/Libraries/CMSIS/Include\core_cm4.h **** #define TPI_FIFO1_ITM1_Msk                 (0xFFUL << TPI_FIFO1_ITM1_Pos)              /*!< TPI FIF
1163:C:/Users/Utente/Desktop/Tesi/Firmware_Software/DAVE project/S2GLP_Pulsed_Doppler/Libraries/CMSIS/Include\core_cm4.h **** 
1164:C:/Users/Utente/Desktop/Tesi/Firmware_Software/DAVE project/S2GLP_Pulsed_Doppler/Libraries/CMSIS/Include\core_cm4.h **** #define TPI_FIFO1_ITM0_Pos                  0U                                         /*!< TPI FIF
1165:C:/Users/Utente/Desktop/Tesi/Firmware_Software/DAVE project/S2GLP_Pulsed_Doppler/Libraries/CMSIS/Include\core_cm4.h **** #define TPI_FIFO1_ITM0_Msk                 (0xFFUL /*<< TPI_FIFO1_ITM0_Pos*/)          /*!< TPI FIF
1166:C:/Users/Utente/Desktop/Tesi/Firmware_Software/DAVE project/S2GLP_Pulsed_Doppler/Libraries/CMSIS/Include\core_cm4.h **** 
1167:C:/Users/Utente/Desktop/Tesi/Firmware_Software/DAVE project/S2GLP_Pulsed_Doppler/Libraries/CMSIS/Include\core_cm4.h **** /* TPI ITATBCTR0 Register Definitions */
1168:C:/Users/Utente/Desktop/Tesi/Firmware_Software/DAVE project/S2GLP_Pulsed_Doppler/Libraries/CMSIS/Include\core_cm4.h **** #define TPI_ITATBCTR0_ATREADY_Pos           0U                                         /*!< TPI ITA
1169:C:/Users/Utente/Desktop/Tesi/Firmware_Software/DAVE project/S2GLP_Pulsed_Doppler/Libraries/CMSIS/Include\core_cm4.h **** #define TPI_ITATBCTR0_ATREADY_Msk          (0x1UL /*<< TPI_ITATBCTR0_ATREADY_Pos*/)    /*!< TPI ITA
1170:C:/Users/Utente/Desktop/Tesi/Firmware_Software/DAVE project/S2GLP_Pulsed_Doppler/Libraries/CMSIS/Include\core_cm4.h **** 
1171:C:/Users/Utente/Desktop/Tesi/Firmware_Software/DAVE project/S2GLP_Pulsed_Doppler/Libraries/CMSIS/Include\core_cm4.h **** /* TPI Integration Mode Control Register Definitions */
1172:C:/Users/Utente/Desktop/Tesi/Firmware_Software/DAVE project/S2GLP_Pulsed_Doppler/Libraries/CMSIS/Include\core_cm4.h **** #define TPI_ITCTRL_Mode_Pos                 0U                                         /*!< TPI ITC
1173:C:/Users/Utente/Desktop/Tesi/Firmware_Software/DAVE project/S2GLP_Pulsed_Doppler/Libraries/CMSIS/Include\core_cm4.h **** #define TPI_ITCTRL_Mode_Msk                (0x1UL /*<< TPI_ITCTRL_Mode_Pos*/)          /*!< TPI ITC
1174:C:/Users/Utente/Desktop/Tesi/Firmware_Software/DAVE project/S2GLP_Pulsed_Doppler/Libraries/CMSIS/Include\core_cm4.h **** 
1175:C:/Users/Utente/Desktop/Tesi/Firmware_Software/DAVE project/S2GLP_Pulsed_Doppler/Libraries/CMSIS/Include\core_cm4.h **** /* TPI DEVID Register Definitions */
1176:C:/Users/Utente/Desktop/Tesi/Firmware_Software/DAVE project/S2GLP_Pulsed_Doppler/Libraries/CMSIS/Include\core_cm4.h **** #define TPI_DEVID_NRZVALID_Pos             11U                                         /*!< TPI DEV
1177:C:/Users/Utente/Desktop/Tesi/Firmware_Software/DAVE project/S2GLP_Pulsed_Doppler/Libraries/CMSIS/Include\core_cm4.h **** #define TPI_DEVID_NRZVALID_Msk             (0x1UL << TPI_DEVID_NRZVALID_Pos)           /*!< TPI DEV
1178:C:/Users/Utente/Desktop/Tesi/Firmware_Software/DAVE project/S2GLP_Pulsed_Doppler/Libraries/CMSIS/Include\core_cm4.h **** 
1179:C:/Users/Utente/Desktop/Tesi/Firmware_Software/DAVE project/S2GLP_Pulsed_Doppler/Libraries/CMSIS/Include\core_cm4.h **** #define TPI_DEVID_MANCVALID_Pos            10U                                         /*!< TPI DEV
1180:C:/Users/Utente/Desktop/Tesi/Firmware_Software/DAVE project/S2GLP_Pulsed_Doppler/Libraries/CMSIS/Include\core_cm4.h **** #define TPI_DEVID_MANCVALID_Msk            (0x1UL << TPI_DEVID_MANCVALID_Pos)          /*!< TPI DEV
1181:C:/Users/Utente/Desktop/Tesi/Firmware_Software/DAVE project/S2GLP_Pulsed_Doppler/Libraries/CMSIS/Include\core_cm4.h **** 
1182:C:/Users/Utente/Desktop/Tesi/Firmware_Software/DAVE project/S2GLP_Pulsed_Doppler/Libraries/CMSIS/Include\core_cm4.h **** #define TPI_DEVID_PTINVALID_Pos             9U                                         /*!< TPI DEV
1183:C:/Users/Utente/Desktop/Tesi/Firmware_Software/DAVE project/S2GLP_Pulsed_Doppler/Libraries/CMSIS/Include\core_cm4.h **** #define TPI_DEVID_PTINVALID_Msk            (0x1UL << TPI_DEVID_PTINVALID_Pos)          /*!< TPI DEV
1184:C:/Users/Utente/Desktop/Tesi/Firmware_Software/DAVE project/S2GLP_Pulsed_Doppler/Libraries/CMSIS/Include\core_cm4.h **** 
1185:C:/Users/Utente/Desktop/Tesi/Firmware_Software/DAVE project/S2GLP_Pulsed_Doppler/Libraries/CMSIS/Include\core_cm4.h **** #define TPI_DEVID_MinBufSz_Pos              6U                                         /*!< TPI DEV
1186:C:/Users/Utente/Desktop/Tesi/Firmware_Software/DAVE project/S2GLP_Pulsed_Doppler/Libraries/CMSIS/Include\core_cm4.h **** #define TPI_DEVID_MinBufSz_Msk             (0x7UL << TPI_DEVID_MinBufSz_Pos)           /*!< TPI DEV
1187:C:/Users/Utente/Desktop/Tesi/Firmware_Software/DAVE project/S2GLP_Pulsed_Doppler/Libraries/CMSIS/Include\core_cm4.h **** 
1188:C:/Users/Utente/Desktop/Tesi/Firmware_Software/DAVE project/S2GLP_Pulsed_Doppler/Libraries/CMSIS/Include\core_cm4.h **** #define TPI_DEVID_AsynClkIn_Pos             5U                                         /*!< TPI DEV
1189:C:/Users/Utente/Desktop/Tesi/Firmware_Software/DAVE project/S2GLP_Pulsed_Doppler/Libraries/CMSIS/Include\core_cm4.h **** #define TPI_DEVID_AsynClkIn_Msk            (0x1UL << TPI_DEVID_AsynClkIn_Pos)          /*!< TPI DEV
1190:C:/Users/Utente/Desktop/Tesi/Firmware_Software/DAVE project/S2GLP_Pulsed_Doppler/Libraries/CMSIS/Include\core_cm4.h **** 
1191:C:/Users/Utente/Desktop/Tesi/Firmware_Software/DAVE project/S2GLP_Pulsed_Doppler/Libraries/CMSIS/Include\core_cm4.h **** #define TPI_DEVID_NrTraceInput_Pos          0U                                         /*!< TPI DEV
1192:C:/Users/Utente/Desktop/Tesi/Firmware_Software/DAVE project/S2GLP_Pulsed_Doppler/Libraries/CMSIS/Include\core_cm4.h **** #define TPI_DEVID_NrTraceInput_Msk         (0x1FUL /*<< TPI_DEVID_NrTraceInput_Pos*/)  /*!< TPI DEV
1193:C:/Users/Utente/Desktop/Tesi/Firmware_Software/DAVE project/S2GLP_Pulsed_Doppler/Libraries/CMSIS/Include\core_cm4.h **** 
1194:C:/Users/Utente/Desktop/Tesi/Firmware_Software/DAVE project/S2GLP_Pulsed_Doppler/Libraries/CMSIS/Include\core_cm4.h **** /* TPI DEVTYPE Register Definitions */
1195:C:/Users/Utente/Desktop/Tesi/Firmware_Software/DAVE project/S2GLP_Pulsed_Doppler/Libraries/CMSIS/Include\core_cm4.h **** #define TPI_DEVTYPE_MajorType_Pos           4U                                         /*!< TPI DEV
1196:C:/Users/Utente/Desktop/Tesi/Firmware_Software/DAVE project/S2GLP_Pulsed_Doppler/Libraries/CMSIS/Include\core_cm4.h **** #define TPI_DEVTYPE_MajorType_Msk          (0xFUL << TPI_DEVTYPE_MajorType_Pos)        /*!< TPI DEV
1197:C:/Users/Utente/Desktop/Tesi/Firmware_Software/DAVE project/S2GLP_Pulsed_Doppler/Libraries/CMSIS/Include\core_cm4.h **** 
1198:C:/Users/Utente/Desktop/Tesi/Firmware_Software/DAVE project/S2GLP_Pulsed_Doppler/Libraries/CMSIS/Include\core_cm4.h **** #define TPI_DEVTYPE_SubType_Pos             0U                                         /*!< TPI DEV
1199:C:/Users/Utente/Desktop/Tesi/Firmware_Software/DAVE project/S2GLP_Pulsed_Doppler/Libraries/CMSIS/Include\core_cm4.h **** #define TPI_DEVTYPE_SubType_Msk            (0xFUL /*<< TPI_DEVTYPE_SubType_Pos*/)      /*!< TPI DEV
1200:C:/Users/Utente/Desktop/Tesi/Firmware_Software/DAVE project/S2GLP_Pulsed_Doppler/Libraries/CMSIS/Include\core_cm4.h **** 
1201:C:/Users/Utente/Desktop/Tesi/Firmware_Software/DAVE project/S2GLP_Pulsed_Doppler/Libraries/CMSIS/Include\core_cm4.h **** /*@}*/ /* end of group CMSIS_TPI */
1202:C:/Users/Utente/Desktop/Tesi/Firmware_Software/DAVE project/S2GLP_Pulsed_Doppler/Libraries/CMSIS/Include\core_cm4.h **** 
1203:C:/Users/Utente/Desktop/Tesi/Firmware_Software/DAVE project/S2GLP_Pulsed_Doppler/Libraries/CMSIS/Include\core_cm4.h **** 
1204:C:/Users/Utente/Desktop/Tesi/Firmware_Software/DAVE project/S2GLP_Pulsed_Doppler/Libraries/CMSIS/Include\core_cm4.h **** #if defined (__MPU_PRESENT) && (__MPU_PRESENT == 1U)
1205:C:/Users/Utente/Desktop/Tesi/Firmware_Software/DAVE project/S2GLP_Pulsed_Doppler/Libraries/CMSIS/Include\core_cm4.h **** /**
1206:C:/Users/Utente/Desktop/Tesi/Firmware_Software/DAVE project/S2GLP_Pulsed_Doppler/Libraries/CMSIS/Include\core_cm4.h ****   \ingroup  CMSIS_core_register
1207:C:/Users/Utente/Desktop/Tesi/Firmware_Software/DAVE project/S2GLP_Pulsed_Doppler/Libraries/CMSIS/Include\core_cm4.h ****   \defgroup CMSIS_MPU     Memory Protection Unit (MPU)
1208:C:/Users/Utente/Desktop/Tesi/Firmware_Software/DAVE project/S2GLP_Pulsed_Doppler/Libraries/CMSIS/Include\core_cm4.h ****   \brief    Type definitions for the Memory Protection Unit (MPU)
1209:C:/Users/Utente/Desktop/Tesi/Firmware_Software/DAVE project/S2GLP_Pulsed_Doppler/Libraries/CMSIS/Include\core_cm4.h ****   @{
1210:C:/Users/Utente/Desktop/Tesi/Firmware_Software/DAVE project/S2GLP_Pulsed_Doppler/Libraries/CMSIS/Include\core_cm4.h ****  */
1211:C:/Users/Utente/Desktop/Tesi/Firmware_Software/DAVE project/S2GLP_Pulsed_Doppler/Libraries/CMSIS/Include\core_cm4.h **** 
1212:C:/Users/Utente/Desktop/Tesi/Firmware_Software/DAVE project/S2GLP_Pulsed_Doppler/Libraries/CMSIS/Include\core_cm4.h **** /**
1213:C:/Users/Utente/Desktop/Tesi/Firmware_Software/DAVE project/S2GLP_Pulsed_Doppler/Libraries/CMSIS/Include\core_cm4.h ****   \brief  Structure type to access the Memory Protection Unit (MPU).
1214:C:/Users/Utente/Desktop/Tesi/Firmware_Software/DAVE project/S2GLP_Pulsed_Doppler/Libraries/CMSIS/Include\core_cm4.h ****  */
1215:C:/Users/Utente/Desktop/Tesi/Firmware_Software/DAVE project/S2GLP_Pulsed_Doppler/Libraries/CMSIS/Include\core_cm4.h **** typedef struct
1216:C:/Users/Utente/Desktop/Tesi/Firmware_Software/DAVE project/S2GLP_Pulsed_Doppler/Libraries/CMSIS/Include\core_cm4.h **** {
1217:C:/Users/Utente/Desktop/Tesi/Firmware_Software/DAVE project/S2GLP_Pulsed_Doppler/Libraries/CMSIS/Include\core_cm4.h ****   __IM  uint32_t TYPE;                   /*!< Offset: 0x000 (R/ )  MPU Type Register */
1218:C:/Users/Utente/Desktop/Tesi/Firmware_Software/DAVE project/S2GLP_Pulsed_Doppler/Libraries/CMSIS/Include\core_cm4.h ****   __IOM uint32_t CTRL;                   /*!< Offset: 0x004 (R/W)  MPU Control Register */
1219:C:/Users/Utente/Desktop/Tesi/Firmware_Software/DAVE project/S2GLP_Pulsed_Doppler/Libraries/CMSIS/Include\core_cm4.h ****   __IOM uint32_t RNR;                    /*!< Offset: 0x008 (R/W)  MPU Region RNRber Register */
1220:C:/Users/Utente/Desktop/Tesi/Firmware_Software/DAVE project/S2GLP_Pulsed_Doppler/Libraries/CMSIS/Include\core_cm4.h ****   __IOM uint32_t RBAR;                   /*!< Offset: 0x00C (R/W)  MPU Region Base Address Register
1221:C:/Users/Utente/Desktop/Tesi/Firmware_Software/DAVE project/S2GLP_Pulsed_Doppler/Libraries/CMSIS/Include\core_cm4.h ****   __IOM uint32_t RASR;                   /*!< Offset: 0x010 (R/W)  MPU Region Attribute and Size Re
1222:C:/Users/Utente/Desktop/Tesi/Firmware_Software/DAVE project/S2GLP_Pulsed_Doppler/Libraries/CMSIS/Include\core_cm4.h ****   __IOM uint32_t RBAR_A1;                /*!< Offset: 0x014 (R/W)  MPU Alias 1 Region Base Address 
1223:C:/Users/Utente/Desktop/Tesi/Firmware_Software/DAVE project/S2GLP_Pulsed_Doppler/Libraries/CMSIS/Include\core_cm4.h ****   __IOM uint32_t RASR_A1;                /*!< Offset: 0x018 (R/W)  MPU Alias 1 Region Attribute and
1224:C:/Users/Utente/Desktop/Tesi/Firmware_Software/DAVE project/S2GLP_Pulsed_Doppler/Libraries/CMSIS/Include\core_cm4.h ****   __IOM uint32_t RBAR_A2;                /*!< Offset: 0x01C (R/W)  MPU Alias 2 Region Base Address 
1225:C:/Users/Utente/Desktop/Tesi/Firmware_Software/DAVE project/S2GLP_Pulsed_Doppler/Libraries/CMSIS/Include\core_cm4.h ****   __IOM uint32_t RASR_A2;                /*!< Offset: 0x020 (R/W)  MPU Alias 2 Region Attribute and
1226:C:/Users/Utente/Desktop/Tesi/Firmware_Software/DAVE project/S2GLP_Pulsed_Doppler/Libraries/CMSIS/Include\core_cm4.h ****   __IOM uint32_t RBAR_A3;                /*!< Offset: 0x024 (R/W)  MPU Alias 3 Region Base Address 
1227:C:/Users/Utente/Desktop/Tesi/Firmware_Software/DAVE project/S2GLP_Pulsed_Doppler/Libraries/CMSIS/Include\core_cm4.h ****   __IOM uint32_t RASR_A3;                /*!< Offset: 0x028 (R/W)  MPU Alias 3 Region Attribute and
1228:C:/Users/Utente/Desktop/Tesi/Firmware_Software/DAVE project/S2GLP_Pulsed_Doppler/Libraries/CMSIS/Include\core_cm4.h **** } MPU_Type;
1229:C:/Users/Utente/Desktop/Tesi/Firmware_Software/DAVE project/S2GLP_Pulsed_Doppler/Libraries/CMSIS/Include\core_cm4.h **** 
1230:C:/Users/Utente/Desktop/Tesi/Firmware_Software/DAVE project/S2GLP_Pulsed_Doppler/Libraries/CMSIS/Include\core_cm4.h **** /* MPU Type Register Definitions */
1231:C:/Users/Utente/Desktop/Tesi/Firmware_Software/DAVE project/S2GLP_Pulsed_Doppler/Libraries/CMSIS/Include\core_cm4.h **** #define MPU_TYPE_IREGION_Pos               16U                                            /*!< MPU 
1232:C:/Users/Utente/Desktop/Tesi/Firmware_Software/DAVE project/S2GLP_Pulsed_Doppler/Libraries/CMSIS/Include\core_cm4.h **** #define MPU_TYPE_IREGION_Msk               (0xFFUL << MPU_TYPE_IREGION_Pos)               /*!< MPU 
1233:C:/Users/Utente/Desktop/Tesi/Firmware_Software/DAVE project/S2GLP_Pulsed_Doppler/Libraries/CMSIS/Include\core_cm4.h **** 
1234:C:/Users/Utente/Desktop/Tesi/Firmware_Software/DAVE project/S2GLP_Pulsed_Doppler/Libraries/CMSIS/Include\core_cm4.h **** #define MPU_TYPE_DREGION_Pos                8U                                            /*!< MPU 
1235:C:/Users/Utente/Desktop/Tesi/Firmware_Software/DAVE project/S2GLP_Pulsed_Doppler/Libraries/CMSIS/Include\core_cm4.h **** #define MPU_TYPE_DREGION_Msk               (0xFFUL << MPU_TYPE_DREGION_Pos)               /*!< MPU 
1236:C:/Users/Utente/Desktop/Tesi/Firmware_Software/DAVE project/S2GLP_Pulsed_Doppler/Libraries/CMSIS/Include\core_cm4.h **** 
1237:C:/Users/Utente/Desktop/Tesi/Firmware_Software/DAVE project/S2GLP_Pulsed_Doppler/Libraries/CMSIS/Include\core_cm4.h **** #define MPU_TYPE_SEPARATE_Pos               0U                                            /*!< MPU 
1238:C:/Users/Utente/Desktop/Tesi/Firmware_Software/DAVE project/S2GLP_Pulsed_Doppler/Libraries/CMSIS/Include\core_cm4.h **** #define MPU_TYPE_SEPARATE_Msk              (1UL /*<< MPU_TYPE_SEPARATE_Pos*/)             /*!< MPU 
1239:C:/Users/Utente/Desktop/Tesi/Firmware_Software/DAVE project/S2GLP_Pulsed_Doppler/Libraries/CMSIS/Include\core_cm4.h **** 
1240:C:/Users/Utente/Desktop/Tesi/Firmware_Software/DAVE project/S2GLP_Pulsed_Doppler/Libraries/CMSIS/Include\core_cm4.h **** /* MPU Control Register Definitions */
1241:C:/Users/Utente/Desktop/Tesi/Firmware_Software/DAVE project/S2GLP_Pulsed_Doppler/Libraries/CMSIS/Include\core_cm4.h **** #define MPU_CTRL_PRIVDEFENA_Pos             2U                                            /*!< MPU 
1242:C:/Users/Utente/Desktop/Tesi/Firmware_Software/DAVE project/S2GLP_Pulsed_Doppler/Libraries/CMSIS/Include\core_cm4.h **** #define MPU_CTRL_PRIVDEFENA_Msk            (1UL << MPU_CTRL_PRIVDEFENA_Pos)               /*!< MPU 
1243:C:/Users/Utente/Desktop/Tesi/Firmware_Software/DAVE project/S2GLP_Pulsed_Doppler/Libraries/CMSIS/Include\core_cm4.h **** 
1244:C:/Users/Utente/Desktop/Tesi/Firmware_Software/DAVE project/S2GLP_Pulsed_Doppler/Libraries/CMSIS/Include\core_cm4.h **** #define MPU_CTRL_HFNMIENA_Pos               1U                                            /*!< MPU 
1245:C:/Users/Utente/Desktop/Tesi/Firmware_Software/DAVE project/S2GLP_Pulsed_Doppler/Libraries/CMSIS/Include\core_cm4.h **** #define MPU_CTRL_HFNMIENA_Msk              (1UL << MPU_CTRL_HFNMIENA_Pos)                 /*!< MPU 
1246:C:/Users/Utente/Desktop/Tesi/Firmware_Software/DAVE project/S2GLP_Pulsed_Doppler/Libraries/CMSIS/Include\core_cm4.h **** 
1247:C:/Users/Utente/Desktop/Tesi/Firmware_Software/DAVE project/S2GLP_Pulsed_Doppler/Libraries/CMSIS/Include\core_cm4.h **** #define MPU_CTRL_ENABLE_Pos                 0U                                            /*!< MPU 
1248:C:/Users/Utente/Desktop/Tesi/Firmware_Software/DAVE project/S2GLP_Pulsed_Doppler/Libraries/CMSIS/Include\core_cm4.h **** #define MPU_CTRL_ENABLE_Msk                (1UL /*<< MPU_CTRL_ENABLE_Pos*/)               /*!< MPU 
1249:C:/Users/Utente/Desktop/Tesi/Firmware_Software/DAVE project/S2GLP_Pulsed_Doppler/Libraries/CMSIS/Include\core_cm4.h **** 
1250:C:/Users/Utente/Desktop/Tesi/Firmware_Software/DAVE project/S2GLP_Pulsed_Doppler/Libraries/CMSIS/Include\core_cm4.h **** /* MPU Region Number Register Definitions */
1251:C:/Users/Utente/Desktop/Tesi/Firmware_Software/DAVE project/S2GLP_Pulsed_Doppler/Libraries/CMSIS/Include\core_cm4.h **** #define MPU_RNR_REGION_Pos                  0U                                            /*!< MPU 
1252:C:/Users/Utente/Desktop/Tesi/Firmware_Software/DAVE project/S2GLP_Pulsed_Doppler/Libraries/CMSIS/Include\core_cm4.h **** #define MPU_RNR_REGION_Msk                 (0xFFUL /*<< MPU_RNR_REGION_Pos*/)             /*!< MPU 
1253:C:/Users/Utente/Desktop/Tesi/Firmware_Software/DAVE project/S2GLP_Pulsed_Doppler/Libraries/CMSIS/Include\core_cm4.h **** 
1254:C:/Users/Utente/Desktop/Tesi/Firmware_Software/DAVE project/S2GLP_Pulsed_Doppler/Libraries/CMSIS/Include\core_cm4.h **** /* MPU Region Base Address Register Definitions */
1255:C:/Users/Utente/Desktop/Tesi/Firmware_Software/DAVE project/S2GLP_Pulsed_Doppler/Libraries/CMSIS/Include\core_cm4.h **** #define MPU_RBAR_ADDR_Pos                   5U                                            /*!< MPU 
1256:C:/Users/Utente/Desktop/Tesi/Firmware_Software/DAVE project/S2GLP_Pulsed_Doppler/Libraries/CMSIS/Include\core_cm4.h **** #define MPU_RBAR_ADDR_Msk                  (0x7FFFFFFUL << MPU_RBAR_ADDR_Pos)             /*!< MPU 
1257:C:/Users/Utente/Desktop/Tesi/Firmware_Software/DAVE project/S2GLP_Pulsed_Doppler/Libraries/CMSIS/Include\core_cm4.h **** 
1258:C:/Users/Utente/Desktop/Tesi/Firmware_Software/DAVE project/S2GLP_Pulsed_Doppler/Libraries/CMSIS/Include\core_cm4.h **** #define MPU_RBAR_VALID_Pos                  4U                                            /*!< MPU 
1259:C:/Users/Utente/Desktop/Tesi/Firmware_Software/DAVE project/S2GLP_Pulsed_Doppler/Libraries/CMSIS/Include\core_cm4.h **** #define MPU_RBAR_VALID_Msk                 (1UL << MPU_RBAR_VALID_Pos)                    /*!< MPU 
1260:C:/Users/Utente/Desktop/Tesi/Firmware_Software/DAVE project/S2GLP_Pulsed_Doppler/Libraries/CMSIS/Include\core_cm4.h **** 
1261:C:/Users/Utente/Desktop/Tesi/Firmware_Software/DAVE project/S2GLP_Pulsed_Doppler/Libraries/CMSIS/Include\core_cm4.h **** #define MPU_RBAR_REGION_Pos                 0U                                            /*!< MPU 
1262:C:/Users/Utente/Desktop/Tesi/Firmware_Software/DAVE project/S2GLP_Pulsed_Doppler/Libraries/CMSIS/Include\core_cm4.h **** #define MPU_RBAR_REGION_Msk                (0xFUL /*<< MPU_RBAR_REGION_Pos*/)             /*!< MPU 
1263:C:/Users/Utente/Desktop/Tesi/Firmware_Software/DAVE project/S2GLP_Pulsed_Doppler/Libraries/CMSIS/Include\core_cm4.h **** 
1264:C:/Users/Utente/Desktop/Tesi/Firmware_Software/DAVE project/S2GLP_Pulsed_Doppler/Libraries/CMSIS/Include\core_cm4.h **** /* MPU Region Attribute and Size Register Definitions */
1265:C:/Users/Utente/Desktop/Tesi/Firmware_Software/DAVE project/S2GLP_Pulsed_Doppler/Libraries/CMSIS/Include\core_cm4.h **** #define MPU_RASR_ATTRS_Pos                 16U                                            /*!< MPU 
1266:C:/Users/Utente/Desktop/Tesi/Firmware_Software/DAVE project/S2GLP_Pulsed_Doppler/Libraries/CMSIS/Include\core_cm4.h **** #define MPU_RASR_ATTRS_Msk                 (0xFFFFUL << MPU_RASR_ATTRS_Pos)               /*!< MPU 
1267:C:/Users/Utente/Desktop/Tesi/Firmware_Software/DAVE project/S2GLP_Pulsed_Doppler/Libraries/CMSIS/Include\core_cm4.h **** 
1268:C:/Users/Utente/Desktop/Tesi/Firmware_Software/DAVE project/S2GLP_Pulsed_Doppler/Libraries/CMSIS/Include\core_cm4.h **** #define MPU_RASR_XN_Pos                    28U                                            /*!< MPU 
1269:C:/Users/Utente/Desktop/Tesi/Firmware_Software/DAVE project/S2GLP_Pulsed_Doppler/Libraries/CMSIS/Include\core_cm4.h **** #define MPU_RASR_XN_Msk                    (1UL << MPU_RASR_XN_Pos)                       /*!< MPU 
1270:C:/Users/Utente/Desktop/Tesi/Firmware_Software/DAVE project/S2GLP_Pulsed_Doppler/Libraries/CMSIS/Include\core_cm4.h **** 
1271:C:/Users/Utente/Desktop/Tesi/Firmware_Software/DAVE project/S2GLP_Pulsed_Doppler/Libraries/CMSIS/Include\core_cm4.h **** #define MPU_RASR_AP_Pos                    24U                                            /*!< MPU 
1272:C:/Users/Utente/Desktop/Tesi/Firmware_Software/DAVE project/S2GLP_Pulsed_Doppler/Libraries/CMSIS/Include\core_cm4.h **** #define MPU_RASR_AP_Msk                    (0x7UL << MPU_RASR_AP_Pos)                     /*!< MPU 
1273:C:/Users/Utente/Desktop/Tesi/Firmware_Software/DAVE project/S2GLP_Pulsed_Doppler/Libraries/CMSIS/Include\core_cm4.h **** 
1274:C:/Users/Utente/Desktop/Tesi/Firmware_Software/DAVE project/S2GLP_Pulsed_Doppler/Libraries/CMSIS/Include\core_cm4.h **** #define MPU_RASR_TEX_Pos                   19U                                            /*!< MPU 
1275:C:/Users/Utente/Desktop/Tesi/Firmware_Software/DAVE project/S2GLP_Pulsed_Doppler/Libraries/CMSIS/Include\core_cm4.h **** #define MPU_RASR_TEX_Msk                   (0x7UL << MPU_RASR_TEX_Pos)                    /*!< MPU 
1276:C:/Users/Utente/Desktop/Tesi/Firmware_Software/DAVE project/S2GLP_Pulsed_Doppler/Libraries/CMSIS/Include\core_cm4.h **** 
1277:C:/Users/Utente/Desktop/Tesi/Firmware_Software/DAVE project/S2GLP_Pulsed_Doppler/Libraries/CMSIS/Include\core_cm4.h **** #define MPU_RASR_S_Pos                     18U                                            /*!< MPU 
1278:C:/Users/Utente/Desktop/Tesi/Firmware_Software/DAVE project/S2GLP_Pulsed_Doppler/Libraries/CMSIS/Include\core_cm4.h **** #define MPU_RASR_S_Msk                     (1UL << MPU_RASR_S_Pos)                        /*!< MPU 
1279:C:/Users/Utente/Desktop/Tesi/Firmware_Software/DAVE project/S2GLP_Pulsed_Doppler/Libraries/CMSIS/Include\core_cm4.h **** 
1280:C:/Users/Utente/Desktop/Tesi/Firmware_Software/DAVE project/S2GLP_Pulsed_Doppler/Libraries/CMSIS/Include\core_cm4.h **** #define MPU_RASR_C_Pos                     17U                                            /*!< MPU 
1281:C:/Users/Utente/Desktop/Tesi/Firmware_Software/DAVE project/S2GLP_Pulsed_Doppler/Libraries/CMSIS/Include\core_cm4.h **** #define MPU_RASR_C_Msk                     (1UL << MPU_RASR_C_Pos)                        /*!< MPU 
1282:C:/Users/Utente/Desktop/Tesi/Firmware_Software/DAVE project/S2GLP_Pulsed_Doppler/Libraries/CMSIS/Include\core_cm4.h **** 
1283:C:/Users/Utente/Desktop/Tesi/Firmware_Software/DAVE project/S2GLP_Pulsed_Doppler/Libraries/CMSIS/Include\core_cm4.h **** #define MPU_RASR_B_Pos                     16U                                            /*!< MPU 
1284:C:/Users/Utente/Desktop/Tesi/Firmware_Software/DAVE project/S2GLP_Pulsed_Doppler/Libraries/CMSIS/Include\core_cm4.h **** #define MPU_RASR_B_Msk                     (1UL << MPU_RASR_B_Pos)                        /*!< MPU 
1285:C:/Users/Utente/Desktop/Tesi/Firmware_Software/DAVE project/S2GLP_Pulsed_Doppler/Libraries/CMSIS/Include\core_cm4.h **** 
1286:C:/Users/Utente/Desktop/Tesi/Firmware_Software/DAVE project/S2GLP_Pulsed_Doppler/Libraries/CMSIS/Include\core_cm4.h **** #define MPU_RASR_SRD_Pos                    8U                                            /*!< MPU 
1287:C:/Users/Utente/Desktop/Tesi/Firmware_Software/DAVE project/S2GLP_Pulsed_Doppler/Libraries/CMSIS/Include\core_cm4.h **** #define MPU_RASR_SRD_Msk                   (0xFFUL << MPU_RASR_SRD_Pos)                   /*!< MPU 
1288:C:/Users/Utente/Desktop/Tesi/Firmware_Software/DAVE project/S2GLP_Pulsed_Doppler/Libraries/CMSIS/Include\core_cm4.h **** 
1289:C:/Users/Utente/Desktop/Tesi/Firmware_Software/DAVE project/S2GLP_Pulsed_Doppler/Libraries/CMSIS/Include\core_cm4.h **** #define MPU_RASR_SIZE_Pos                   1U                                            /*!< MPU 
1290:C:/Users/Utente/Desktop/Tesi/Firmware_Software/DAVE project/S2GLP_Pulsed_Doppler/Libraries/CMSIS/Include\core_cm4.h **** #define MPU_RASR_SIZE_Msk                  (0x1FUL << MPU_RASR_SIZE_Pos)                  /*!< MPU 
1291:C:/Users/Utente/Desktop/Tesi/Firmware_Software/DAVE project/S2GLP_Pulsed_Doppler/Libraries/CMSIS/Include\core_cm4.h **** 
1292:C:/Users/Utente/Desktop/Tesi/Firmware_Software/DAVE project/S2GLP_Pulsed_Doppler/Libraries/CMSIS/Include\core_cm4.h **** #define MPU_RASR_ENABLE_Pos                 0U                                            /*!< MPU 
1293:C:/Users/Utente/Desktop/Tesi/Firmware_Software/DAVE project/S2GLP_Pulsed_Doppler/Libraries/CMSIS/Include\core_cm4.h **** #define MPU_RASR_ENABLE_Msk                (1UL /*<< MPU_RASR_ENABLE_Pos*/)               /*!< MPU 
1294:C:/Users/Utente/Desktop/Tesi/Firmware_Software/DAVE project/S2GLP_Pulsed_Doppler/Libraries/CMSIS/Include\core_cm4.h **** 
1295:C:/Users/Utente/Desktop/Tesi/Firmware_Software/DAVE project/S2GLP_Pulsed_Doppler/Libraries/CMSIS/Include\core_cm4.h **** /*@} end of group CMSIS_MPU */
1296:C:/Users/Utente/Desktop/Tesi/Firmware_Software/DAVE project/S2GLP_Pulsed_Doppler/Libraries/CMSIS/Include\core_cm4.h **** #endif /* defined (__MPU_PRESENT) && (__MPU_PRESENT == 1U) */
1297:C:/Users/Utente/Desktop/Tesi/Firmware_Software/DAVE project/S2GLP_Pulsed_Doppler/Libraries/CMSIS/Include\core_cm4.h **** 
1298:C:/Users/Utente/Desktop/Tesi/Firmware_Software/DAVE project/S2GLP_Pulsed_Doppler/Libraries/CMSIS/Include\core_cm4.h **** 
1299:C:/Users/Utente/Desktop/Tesi/Firmware_Software/DAVE project/S2GLP_Pulsed_Doppler/Libraries/CMSIS/Include\core_cm4.h **** /**
1300:C:/Users/Utente/Desktop/Tesi/Firmware_Software/DAVE project/S2GLP_Pulsed_Doppler/Libraries/CMSIS/Include\core_cm4.h ****   \ingroup  CMSIS_core_register
1301:C:/Users/Utente/Desktop/Tesi/Firmware_Software/DAVE project/S2GLP_Pulsed_Doppler/Libraries/CMSIS/Include\core_cm4.h ****   \defgroup CMSIS_FPU     Floating Point Unit (FPU)
1302:C:/Users/Utente/Desktop/Tesi/Firmware_Software/DAVE project/S2GLP_Pulsed_Doppler/Libraries/CMSIS/Include\core_cm4.h ****   \brief    Type definitions for the Floating Point Unit (FPU)
1303:C:/Users/Utente/Desktop/Tesi/Firmware_Software/DAVE project/S2GLP_Pulsed_Doppler/Libraries/CMSIS/Include\core_cm4.h ****   @{
1304:C:/Users/Utente/Desktop/Tesi/Firmware_Software/DAVE project/S2GLP_Pulsed_Doppler/Libraries/CMSIS/Include\core_cm4.h ****  */
1305:C:/Users/Utente/Desktop/Tesi/Firmware_Software/DAVE project/S2GLP_Pulsed_Doppler/Libraries/CMSIS/Include\core_cm4.h **** 
1306:C:/Users/Utente/Desktop/Tesi/Firmware_Software/DAVE project/S2GLP_Pulsed_Doppler/Libraries/CMSIS/Include\core_cm4.h **** /**
1307:C:/Users/Utente/Desktop/Tesi/Firmware_Software/DAVE project/S2GLP_Pulsed_Doppler/Libraries/CMSIS/Include\core_cm4.h ****   \brief  Structure type to access the Floating Point Unit (FPU).
1308:C:/Users/Utente/Desktop/Tesi/Firmware_Software/DAVE project/S2GLP_Pulsed_Doppler/Libraries/CMSIS/Include\core_cm4.h ****  */
1309:C:/Users/Utente/Desktop/Tesi/Firmware_Software/DAVE project/S2GLP_Pulsed_Doppler/Libraries/CMSIS/Include\core_cm4.h **** typedef struct
1310:C:/Users/Utente/Desktop/Tesi/Firmware_Software/DAVE project/S2GLP_Pulsed_Doppler/Libraries/CMSIS/Include\core_cm4.h **** {
1311:C:/Users/Utente/Desktop/Tesi/Firmware_Software/DAVE project/S2GLP_Pulsed_Doppler/Libraries/CMSIS/Include\core_cm4.h ****         uint32_t RESERVED0[1U];
1312:C:/Users/Utente/Desktop/Tesi/Firmware_Software/DAVE project/S2GLP_Pulsed_Doppler/Libraries/CMSIS/Include\core_cm4.h ****   __IOM uint32_t FPCCR;                  /*!< Offset: 0x004 (R/W)  Floating-Point Context Control R
1313:C:/Users/Utente/Desktop/Tesi/Firmware_Software/DAVE project/S2GLP_Pulsed_Doppler/Libraries/CMSIS/Include\core_cm4.h ****   __IOM uint32_t FPCAR;                  /*!< Offset: 0x008 (R/W)  Floating-Point Context Address R
1314:C:/Users/Utente/Desktop/Tesi/Firmware_Software/DAVE project/S2GLP_Pulsed_Doppler/Libraries/CMSIS/Include\core_cm4.h ****   __IOM uint32_t FPDSCR;                 /*!< Offset: 0x00C (R/W)  Floating-Point Default Status Co
1315:C:/Users/Utente/Desktop/Tesi/Firmware_Software/DAVE project/S2GLP_Pulsed_Doppler/Libraries/CMSIS/Include\core_cm4.h ****   __IM  uint32_t MVFR0;                  /*!< Offset: 0x010 (R/ )  Media and FP Feature Register 0 
1316:C:/Users/Utente/Desktop/Tesi/Firmware_Software/DAVE project/S2GLP_Pulsed_Doppler/Libraries/CMSIS/Include\core_cm4.h ****   __IM  uint32_t MVFR1;                  /*!< Offset: 0x014 (R/ )  Media and FP Feature Register 1 
1317:C:/Users/Utente/Desktop/Tesi/Firmware_Software/DAVE project/S2GLP_Pulsed_Doppler/Libraries/CMSIS/Include\core_cm4.h **** } FPU_Type;
1318:C:/Users/Utente/Desktop/Tesi/Firmware_Software/DAVE project/S2GLP_Pulsed_Doppler/Libraries/CMSIS/Include\core_cm4.h **** 
1319:C:/Users/Utente/Desktop/Tesi/Firmware_Software/DAVE project/S2GLP_Pulsed_Doppler/Libraries/CMSIS/Include\core_cm4.h **** /* Floating-Point Context Control Register Definitions */
1320:C:/Users/Utente/Desktop/Tesi/Firmware_Software/DAVE project/S2GLP_Pulsed_Doppler/Libraries/CMSIS/Include\core_cm4.h **** #define FPU_FPCCR_ASPEN_Pos                31U                                            /*!< FPCC
1321:C:/Users/Utente/Desktop/Tesi/Firmware_Software/DAVE project/S2GLP_Pulsed_Doppler/Libraries/CMSIS/Include\core_cm4.h **** #define FPU_FPCCR_ASPEN_Msk                (1UL << FPU_FPCCR_ASPEN_Pos)                   /*!< FPCC
1322:C:/Users/Utente/Desktop/Tesi/Firmware_Software/DAVE project/S2GLP_Pulsed_Doppler/Libraries/CMSIS/Include\core_cm4.h **** 
1323:C:/Users/Utente/Desktop/Tesi/Firmware_Software/DAVE project/S2GLP_Pulsed_Doppler/Libraries/CMSIS/Include\core_cm4.h **** #define FPU_FPCCR_LSPEN_Pos                30U                                            /*!< FPCC
1324:C:/Users/Utente/Desktop/Tesi/Firmware_Software/DAVE project/S2GLP_Pulsed_Doppler/Libraries/CMSIS/Include\core_cm4.h **** #define FPU_FPCCR_LSPEN_Msk                (1UL << FPU_FPCCR_LSPEN_Pos)                   /*!< FPCC
1325:C:/Users/Utente/Desktop/Tesi/Firmware_Software/DAVE project/S2GLP_Pulsed_Doppler/Libraries/CMSIS/Include\core_cm4.h **** 
1326:C:/Users/Utente/Desktop/Tesi/Firmware_Software/DAVE project/S2GLP_Pulsed_Doppler/Libraries/CMSIS/Include\core_cm4.h **** #define FPU_FPCCR_MONRDY_Pos                8U                                            /*!< FPCC
1327:C:/Users/Utente/Desktop/Tesi/Firmware_Software/DAVE project/S2GLP_Pulsed_Doppler/Libraries/CMSIS/Include\core_cm4.h **** #define FPU_FPCCR_MONRDY_Msk               (1UL << FPU_FPCCR_MONRDY_Pos)                  /*!< FPCC
1328:C:/Users/Utente/Desktop/Tesi/Firmware_Software/DAVE project/S2GLP_Pulsed_Doppler/Libraries/CMSIS/Include\core_cm4.h **** 
1329:C:/Users/Utente/Desktop/Tesi/Firmware_Software/DAVE project/S2GLP_Pulsed_Doppler/Libraries/CMSIS/Include\core_cm4.h **** #define FPU_FPCCR_BFRDY_Pos                 6U                                            /*!< FPCC
1330:C:/Users/Utente/Desktop/Tesi/Firmware_Software/DAVE project/S2GLP_Pulsed_Doppler/Libraries/CMSIS/Include\core_cm4.h **** #define FPU_FPCCR_BFRDY_Msk                (1UL << FPU_FPCCR_BFRDY_Pos)                   /*!< FPCC
1331:C:/Users/Utente/Desktop/Tesi/Firmware_Software/DAVE project/S2GLP_Pulsed_Doppler/Libraries/CMSIS/Include\core_cm4.h **** 
1332:C:/Users/Utente/Desktop/Tesi/Firmware_Software/DAVE project/S2GLP_Pulsed_Doppler/Libraries/CMSIS/Include\core_cm4.h **** #define FPU_FPCCR_MMRDY_Pos                 5U                                            /*!< FPCC
1333:C:/Users/Utente/Desktop/Tesi/Firmware_Software/DAVE project/S2GLP_Pulsed_Doppler/Libraries/CMSIS/Include\core_cm4.h **** #define FPU_FPCCR_MMRDY_Msk                (1UL << FPU_FPCCR_MMRDY_Pos)                   /*!< FPCC
1334:C:/Users/Utente/Desktop/Tesi/Firmware_Software/DAVE project/S2GLP_Pulsed_Doppler/Libraries/CMSIS/Include\core_cm4.h **** 
1335:C:/Users/Utente/Desktop/Tesi/Firmware_Software/DAVE project/S2GLP_Pulsed_Doppler/Libraries/CMSIS/Include\core_cm4.h **** #define FPU_FPCCR_HFRDY_Pos                 4U                                            /*!< FPCC
1336:C:/Users/Utente/Desktop/Tesi/Firmware_Software/DAVE project/S2GLP_Pulsed_Doppler/Libraries/CMSIS/Include\core_cm4.h **** #define FPU_FPCCR_HFRDY_Msk                (1UL << FPU_FPCCR_HFRDY_Pos)                   /*!< FPCC
1337:C:/Users/Utente/Desktop/Tesi/Firmware_Software/DAVE project/S2GLP_Pulsed_Doppler/Libraries/CMSIS/Include\core_cm4.h **** 
1338:C:/Users/Utente/Desktop/Tesi/Firmware_Software/DAVE project/S2GLP_Pulsed_Doppler/Libraries/CMSIS/Include\core_cm4.h **** #define FPU_FPCCR_THREAD_Pos                3U                                            /*!< FPCC
1339:C:/Users/Utente/Desktop/Tesi/Firmware_Software/DAVE project/S2GLP_Pulsed_Doppler/Libraries/CMSIS/Include\core_cm4.h **** #define FPU_FPCCR_THREAD_Msk               (1UL << FPU_FPCCR_THREAD_Pos)                  /*!< FPCC
1340:C:/Users/Utente/Desktop/Tesi/Firmware_Software/DAVE project/S2GLP_Pulsed_Doppler/Libraries/CMSIS/Include\core_cm4.h **** 
1341:C:/Users/Utente/Desktop/Tesi/Firmware_Software/DAVE project/S2GLP_Pulsed_Doppler/Libraries/CMSIS/Include\core_cm4.h **** #define FPU_FPCCR_USER_Pos                  1U                                            /*!< FPCC
1342:C:/Users/Utente/Desktop/Tesi/Firmware_Software/DAVE project/S2GLP_Pulsed_Doppler/Libraries/CMSIS/Include\core_cm4.h **** #define FPU_FPCCR_USER_Msk                 (1UL << FPU_FPCCR_USER_Pos)                    /*!< FPCC
1343:C:/Users/Utente/Desktop/Tesi/Firmware_Software/DAVE project/S2GLP_Pulsed_Doppler/Libraries/CMSIS/Include\core_cm4.h **** 
1344:C:/Users/Utente/Desktop/Tesi/Firmware_Software/DAVE project/S2GLP_Pulsed_Doppler/Libraries/CMSIS/Include\core_cm4.h **** #define FPU_FPCCR_LSPACT_Pos                0U                                            /*!< FPCC
1345:C:/Users/Utente/Desktop/Tesi/Firmware_Software/DAVE project/S2GLP_Pulsed_Doppler/Libraries/CMSIS/Include\core_cm4.h **** #define FPU_FPCCR_LSPACT_Msk               (1UL /*<< FPU_FPCCR_LSPACT_Pos*/)              /*!< FPCC
1346:C:/Users/Utente/Desktop/Tesi/Firmware_Software/DAVE project/S2GLP_Pulsed_Doppler/Libraries/CMSIS/Include\core_cm4.h **** 
1347:C:/Users/Utente/Desktop/Tesi/Firmware_Software/DAVE project/S2GLP_Pulsed_Doppler/Libraries/CMSIS/Include\core_cm4.h **** /* Floating-Point Context Address Register Definitions */
1348:C:/Users/Utente/Desktop/Tesi/Firmware_Software/DAVE project/S2GLP_Pulsed_Doppler/Libraries/CMSIS/Include\core_cm4.h **** #define FPU_FPCAR_ADDRESS_Pos               3U                                            /*!< FPCA
1349:C:/Users/Utente/Desktop/Tesi/Firmware_Software/DAVE project/S2GLP_Pulsed_Doppler/Libraries/CMSIS/Include\core_cm4.h **** #define FPU_FPCAR_ADDRESS_Msk              (0x1FFFFFFFUL << FPU_FPCAR_ADDRESS_Pos)        /*!< FPCA
1350:C:/Users/Utente/Desktop/Tesi/Firmware_Software/DAVE project/S2GLP_Pulsed_Doppler/Libraries/CMSIS/Include\core_cm4.h **** 
1351:C:/Users/Utente/Desktop/Tesi/Firmware_Software/DAVE project/S2GLP_Pulsed_Doppler/Libraries/CMSIS/Include\core_cm4.h **** /* Floating-Point Default Status Control Register Definitions */
1352:C:/Users/Utente/Desktop/Tesi/Firmware_Software/DAVE project/S2GLP_Pulsed_Doppler/Libraries/CMSIS/Include\core_cm4.h **** #define FPU_FPDSCR_AHP_Pos                 26U                                            /*!< FPDS
1353:C:/Users/Utente/Desktop/Tesi/Firmware_Software/DAVE project/S2GLP_Pulsed_Doppler/Libraries/CMSIS/Include\core_cm4.h **** #define FPU_FPDSCR_AHP_Msk                 (1UL << FPU_FPDSCR_AHP_Pos)                    /*!< FPDS
1354:C:/Users/Utente/Desktop/Tesi/Firmware_Software/DAVE project/S2GLP_Pulsed_Doppler/Libraries/CMSIS/Include\core_cm4.h **** 
1355:C:/Users/Utente/Desktop/Tesi/Firmware_Software/DAVE project/S2GLP_Pulsed_Doppler/Libraries/CMSIS/Include\core_cm4.h **** #define FPU_FPDSCR_DN_Pos                  25U                                            /*!< FPDS
1356:C:/Users/Utente/Desktop/Tesi/Firmware_Software/DAVE project/S2GLP_Pulsed_Doppler/Libraries/CMSIS/Include\core_cm4.h **** #define FPU_FPDSCR_DN_Msk                  (1UL << FPU_FPDSCR_DN_Pos)                     /*!< FPDS
1357:C:/Users/Utente/Desktop/Tesi/Firmware_Software/DAVE project/S2GLP_Pulsed_Doppler/Libraries/CMSIS/Include\core_cm4.h **** 
1358:C:/Users/Utente/Desktop/Tesi/Firmware_Software/DAVE project/S2GLP_Pulsed_Doppler/Libraries/CMSIS/Include\core_cm4.h **** #define FPU_FPDSCR_FZ_Pos                  24U                                            /*!< FPDS
1359:C:/Users/Utente/Desktop/Tesi/Firmware_Software/DAVE project/S2GLP_Pulsed_Doppler/Libraries/CMSIS/Include\core_cm4.h **** #define FPU_FPDSCR_FZ_Msk                  (1UL << FPU_FPDSCR_FZ_Pos)                     /*!< FPDS
1360:C:/Users/Utente/Desktop/Tesi/Firmware_Software/DAVE project/S2GLP_Pulsed_Doppler/Libraries/CMSIS/Include\core_cm4.h **** 
1361:C:/Users/Utente/Desktop/Tesi/Firmware_Software/DAVE project/S2GLP_Pulsed_Doppler/Libraries/CMSIS/Include\core_cm4.h **** #define FPU_FPDSCR_RMode_Pos               22U                                            /*!< FPDS
1362:C:/Users/Utente/Desktop/Tesi/Firmware_Software/DAVE project/S2GLP_Pulsed_Doppler/Libraries/CMSIS/Include\core_cm4.h **** #define FPU_FPDSCR_RMode_Msk               (3UL << FPU_FPDSCR_RMode_Pos)                  /*!< FPDS
1363:C:/Users/Utente/Desktop/Tesi/Firmware_Software/DAVE project/S2GLP_Pulsed_Doppler/Libraries/CMSIS/Include\core_cm4.h **** 
1364:C:/Users/Utente/Desktop/Tesi/Firmware_Software/DAVE project/S2GLP_Pulsed_Doppler/Libraries/CMSIS/Include\core_cm4.h **** /* Media and FP Feature Register 0 Definitions */
1365:C:/Users/Utente/Desktop/Tesi/Firmware_Software/DAVE project/S2GLP_Pulsed_Doppler/Libraries/CMSIS/Include\core_cm4.h **** #define FPU_MVFR0_FP_rounding_modes_Pos    28U                                            /*!< MVFR
1366:C:/Users/Utente/Desktop/Tesi/Firmware_Software/DAVE project/S2GLP_Pulsed_Doppler/Libraries/CMSIS/Include\core_cm4.h **** #define FPU_MVFR0_FP_rounding_modes_Msk    (0xFUL << FPU_MVFR0_FP_rounding_modes_Pos)     /*!< MVFR
1367:C:/Users/Utente/Desktop/Tesi/Firmware_Software/DAVE project/S2GLP_Pulsed_Doppler/Libraries/CMSIS/Include\core_cm4.h **** 
1368:C:/Users/Utente/Desktop/Tesi/Firmware_Software/DAVE project/S2GLP_Pulsed_Doppler/Libraries/CMSIS/Include\core_cm4.h **** #define FPU_MVFR0_Short_vectors_Pos        24U                                            /*!< MVFR
1369:C:/Users/Utente/Desktop/Tesi/Firmware_Software/DAVE project/S2GLP_Pulsed_Doppler/Libraries/CMSIS/Include\core_cm4.h **** #define FPU_MVFR0_Short_vectors_Msk        (0xFUL << FPU_MVFR0_Short_vectors_Pos)         /*!< MVFR
1370:C:/Users/Utente/Desktop/Tesi/Firmware_Software/DAVE project/S2GLP_Pulsed_Doppler/Libraries/CMSIS/Include\core_cm4.h **** 
1371:C:/Users/Utente/Desktop/Tesi/Firmware_Software/DAVE project/S2GLP_Pulsed_Doppler/Libraries/CMSIS/Include\core_cm4.h **** #define FPU_MVFR0_Square_root_Pos          20U                                            /*!< MVFR
1372:C:/Users/Utente/Desktop/Tesi/Firmware_Software/DAVE project/S2GLP_Pulsed_Doppler/Libraries/CMSIS/Include\core_cm4.h **** #define FPU_MVFR0_Square_root_Msk          (0xFUL << FPU_MVFR0_Square_root_Pos)           /*!< MVFR
1373:C:/Users/Utente/Desktop/Tesi/Firmware_Software/DAVE project/S2GLP_Pulsed_Doppler/Libraries/CMSIS/Include\core_cm4.h **** 
1374:C:/Users/Utente/Desktop/Tesi/Firmware_Software/DAVE project/S2GLP_Pulsed_Doppler/Libraries/CMSIS/Include\core_cm4.h **** #define FPU_MVFR0_Divide_Pos               16U                                            /*!< MVFR
1375:C:/Users/Utente/Desktop/Tesi/Firmware_Software/DAVE project/S2GLP_Pulsed_Doppler/Libraries/CMSIS/Include\core_cm4.h **** #define FPU_MVFR0_Divide_Msk               (0xFUL << FPU_MVFR0_Divide_Pos)                /*!< MVFR
1376:C:/Users/Utente/Desktop/Tesi/Firmware_Software/DAVE project/S2GLP_Pulsed_Doppler/Libraries/CMSIS/Include\core_cm4.h **** 
1377:C:/Users/Utente/Desktop/Tesi/Firmware_Software/DAVE project/S2GLP_Pulsed_Doppler/Libraries/CMSIS/Include\core_cm4.h **** #define FPU_MVFR0_FP_excep_trapping_Pos    12U                                            /*!< MVFR
1378:C:/Users/Utente/Desktop/Tesi/Firmware_Software/DAVE project/S2GLP_Pulsed_Doppler/Libraries/CMSIS/Include\core_cm4.h **** #define FPU_MVFR0_FP_excep_trapping_Msk    (0xFUL << FPU_MVFR0_FP_excep_trapping_Pos)     /*!< MVFR
1379:C:/Users/Utente/Desktop/Tesi/Firmware_Software/DAVE project/S2GLP_Pulsed_Doppler/Libraries/CMSIS/Include\core_cm4.h **** 
1380:C:/Users/Utente/Desktop/Tesi/Firmware_Software/DAVE project/S2GLP_Pulsed_Doppler/Libraries/CMSIS/Include\core_cm4.h **** #define FPU_MVFR0_Double_precision_Pos      8U                                            /*!< MVFR
1381:C:/Users/Utente/Desktop/Tesi/Firmware_Software/DAVE project/S2GLP_Pulsed_Doppler/Libraries/CMSIS/Include\core_cm4.h **** #define FPU_MVFR0_Double_precision_Msk     (0xFUL << FPU_MVFR0_Double_precision_Pos)      /*!< MVFR
1382:C:/Users/Utente/Desktop/Tesi/Firmware_Software/DAVE project/S2GLP_Pulsed_Doppler/Libraries/CMSIS/Include\core_cm4.h **** 
1383:C:/Users/Utente/Desktop/Tesi/Firmware_Software/DAVE project/S2GLP_Pulsed_Doppler/Libraries/CMSIS/Include\core_cm4.h **** #define FPU_MVFR0_Single_precision_Pos      4U                                            /*!< MVFR
1384:C:/Users/Utente/Desktop/Tesi/Firmware_Software/DAVE project/S2GLP_Pulsed_Doppler/Libraries/CMSIS/Include\core_cm4.h **** #define FPU_MVFR0_Single_precision_Msk     (0xFUL << FPU_MVFR0_Single_precision_Pos)      /*!< MVFR
1385:C:/Users/Utente/Desktop/Tesi/Firmware_Software/DAVE project/S2GLP_Pulsed_Doppler/Libraries/CMSIS/Include\core_cm4.h **** 
1386:C:/Users/Utente/Desktop/Tesi/Firmware_Software/DAVE project/S2GLP_Pulsed_Doppler/Libraries/CMSIS/Include\core_cm4.h **** #define FPU_MVFR0_A_SIMD_registers_Pos      0U                                            /*!< MVFR
1387:C:/Users/Utente/Desktop/Tesi/Firmware_Software/DAVE project/S2GLP_Pulsed_Doppler/Libraries/CMSIS/Include\core_cm4.h **** #define FPU_MVFR0_A_SIMD_registers_Msk     (0xFUL /*<< FPU_MVFR0_A_SIMD_registers_Pos*/)  /*!< MVFR
1388:C:/Users/Utente/Desktop/Tesi/Firmware_Software/DAVE project/S2GLP_Pulsed_Doppler/Libraries/CMSIS/Include\core_cm4.h **** 
1389:C:/Users/Utente/Desktop/Tesi/Firmware_Software/DAVE project/S2GLP_Pulsed_Doppler/Libraries/CMSIS/Include\core_cm4.h **** /* Media and FP Feature Register 1 Definitions */
1390:C:/Users/Utente/Desktop/Tesi/Firmware_Software/DAVE project/S2GLP_Pulsed_Doppler/Libraries/CMSIS/Include\core_cm4.h **** #define FPU_MVFR1_FP_fused_MAC_Pos         28U                                            /*!< MVFR
1391:C:/Users/Utente/Desktop/Tesi/Firmware_Software/DAVE project/S2GLP_Pulsed_Doppler/Libraries/CMSIS/Include\core_cm4.h **** #define FPU_MVFR1_FP_fused_MAC_Msk         (0xFUL << FPU_MVFR1_FP_fused_MAC_Pos)          /*!< MVFR
1392:C:/Users/Utente/Desktop/Tesi/Firmware_Software/DAVE project/S2GLP_Pulsed_Doppler/Libraries/CMSIS/Include\core_cm4.h **** 
1393:C:/Users/Utente/Desktop/Tesi/Firmware_Software/DAVE project/S2GLP_Pulsed_Doppler/Libraries/CMSIS/Include\core_cm4.h **** #define FPU_MVFR1_FP_HPFP_Pos              24U                                            /*!< MVFR
1394:C:/Users/Utente/Desktop/Tesi/Firmware_Software/DAVE project/S2GLP_Pulsed_Doppler/Libraries/CMSIS/Include\core_cm4.h **** #define FPU_MVFR1_FP_HPFP_Msk              (0xFUL << FPU_MVFR1_FP_HPFP_Pos)               /*!< MVFR
1395:C:/Users/Utente/Desktop/Tesi/Firmware_Software/DAVE project/S2GLP_Pulsed_Doppler/Libraries/CMSIS/Include\core_cm4.h **** 
1396:C:/Users/Utente/Desktop/Tesi/Firmware_Software/DAVE project/S2GLP_Pulsed_Doppler/Libraries/CMSIS/Include\core_cm4.h **** #define FPU_MVFR1_D_NaN_mode_Pos            4U                                            /*!< MVFR
1397:C:/Users/Utente/Desktop/Tesi/Firmware_Software/DAVE project/S2GLP_Pulsed_Doppler/Libraries/CMSIS/Include\core_cm4.h **** #define FPU_MVFR1_D_NaN_mode_Msk           (0xFUL << FPU_MVFR1_D_NaN_mode_Pos)            /*!< MVFR
1398:C:/Users/Utente/Desktop/Tesi/Firmware_Software/DAVE project/S2GLP_Pulsed_Doppler/Libraries/CMSIS/Include\core_cm4.h **** 
1399:C:/Users/Utente/Desktop/Tesi/Firmware_Software/DAVE project/S2GLP_Pulsed_Doppler/Libraries/CMSIS/Include\core_cm4.h **** #define FPU_MVFR1_FtZ_mode_Pos              0U                                            /*!< MVFR
1400:C:/Users/Utente/Desktop/Tesi/Firmware_Software/DAVE project/S2GLP_Pulsed_Doppler/Libraries/CMSIS/Include\core_cm4.h **** #define FPU_MVFR1_FtZ_mode_Msk             (0xFUL /*<< FPU_MVFR1_FtZ_mode_Pos*/)          /*!< MVFR
1401:C:/Users/Utente/Desktop/Tesi/Firmware_Software/DAVE project/S2GLP_Pulsed_Doppler/Libraries/CMSIS/Include\core_cm4.h **** 
1402:C:/Users/Utente/Desktop/Tesi/Firmware_Software/DAVE project/S2GLP_Pulsed_Doppler/Libraries/CMSIS/Include\core_cm4.h **** /*@} end of group CMSIS_FPU */
1403:C:/Users/Utente/Desktop/Tesi/Firmware_Software/DAVE project/S2GLP_Pulsed_Doppler/Libraries/CMSIS/Include\core_cm4.h **** 
1404:C:/Users/Utente/Desktop/Tesi/Firmware_Software/DAVE project/S2GLP_Pulsed_Doppler/Libraries/CMSIS/Include\core_cm4.h **** 
1405:C:/Users/Utente/Desktop/Tesi/Firmware_Software/DAVE project/S2GLP_Pulsed_Doppler/Libraries/CMSIS/Include\core_cm4.h **** /**
1406:C:/Users/Utente/Desktop/Tesi/Firmware_Software/DAVE project/S2GLP_Pulsed_Doppler/Libraries/CMSIS/Include\core_cm4.h ****   \ingroup  CMSIS_core_register
1407:C:/Users/Utente/Desktop/Tesi/Firmware_Software/DAVE project/S2GLP_Pulsed_Doppler/Libraries/CMSIS/Include\core_cm4.h ****   \defgroup CMSIS_CoreDebug       Core Debug Registers (CoreDebug)
1408:C:/Users/Utente/Desktop/Tesi/Firmware_Software/DAVE project/S2GLP_Pulsed_Doppler/Libraries/CMSIS/Include\core_cm4.h ****   \brief    Type definitions for the Core Debug Registers
1409:C:/Users/Utente/Desktop/Tesi/Firmware_Software/DAVE project/S2GLP_Pulsed_Doppler/Libraries/CMSIS/Include\core_cm4.h ****   @{
1410:C:/Users/Utente/Desktop/Tesi/Firmware_Software/DAVE project/S2GLP_Pulsed_Doppler/Libraries/CMSIS/Include\core_cm4.h ****  */
1411:C:/Users/Utente/Desktop/Tesi/Firmware_Software/DAVE project/S2GLP_Pulsed_Doppler/Libraries/CMSIS/Include\core_cm4.h **** 
1412:C:/Users/Utente/Desktop/Tesi/Firmware_Software/DAVE project/S2GLP_Pulsed_Doppler/Libraries/CMSIS/Include\core_cm4.h **** /**
1413:C:/Users/Utente/Desktop/Tesi/Firmware_Software/DAVE project/S2GLP_Pulsed_Doppler/Libraries/CMSIS/Include\core_cm4.h ****   \brief  Structure type to access the Core Debug Register (CoreDebug).
1414:C:/Users/Utente/Desktop/Tesi/Firmware_Software/DAVE project/S2GLP_Pulsed_Doppler/Libraries/CMSIS/Include\core_cm4.h ****  */
1415:C:/Users/Utente/Desktop/Tesi/Firmware_Software/DAVE project/S2GLP_Pulsed_Doppler/Libraries/CMSIS/Include\core_cm4.h **** typedef struct
1416:C:/Users/Utente/Desktop/Tesi/Firmware_Software/DAVE project/S2GLP_Pulsed_Doppler/Libraries/CMSIS/Include\core_cm4.h **** {
1417:C:/Users/Utente/Desktop/Tesi/Firmware_Software/DAVE project/S2GLP_Pulsed_Doppler/Libraries/CMSIS/Include\core_cm4.h ****   __IOM uint32_t DHCSR;                  /*!< Offset: 0x000 (R/W)  Debug Halting Control and Status
1418:C:/Users/Utente/Desktop/Tesi/Firmware_Software/DAVE project/S2GLP_Pulsed_Doppler/Libraries/CMSIS/Include\core_cm4.h ****   __OM  uint32_t DCRSR;                  /*!< Offset: 0x004 ( /W)  Debug Core Register Selector Reg
1419:C:/Users/Utente/Desktop/Tesi/Firmware_Software/DAVE project/S2GLP_Pulsed_Doppler/Libraries/CMSIS/Include\core_cm4.h ****   __IOM uint32_t DCRDR;                  /*!< Offset: 0x008 (R/W)  Debug Core Register Data Registe
1420:C:/Users/Utente/Desktop/Tesi/Firmware_Software/DAVE project/S2GLP_Pulsed_Doppler/Libraries/CMSIS/Include\core_cm4.h ****   __IOM uint32_t DEMCR;                  /*!< Offset: 0x00C (R/W)  Debug Exception and Monitor Cont
1421:C:/Users/Utente/Desktop/Tesi/Firmware_Software/DAVE project/S2GLP_Pulsed_Doppler/Libraries/CMSIS/Include\core_cm4.h **** } CoreDebug_Type;
1422:C:/Users/Utente/Desktop/Tesi/Firmware_Software/DAVE project/S2GLP_Pulsed_Doppler/Libraries/CMSIS/Include\core_cm4.h **** 
1423:C:/Users/Utente/Desktop/Tesi/Firmware_Software/DAVE project/S2GLP_Pulsed_Doppler/Libraries/CMSIS/Include\core_cm4.h **** /* Debug Halting Control and Status Register Definitions */
1424:C:/Users/Utente/Desktop/Tesi/Firmware_Software/DAVE project/S2GLP_Pulsed_Doppler/Libraries/CMSIS/Include\core_cm4.h **** #define CoreDebug_DHCSR_DBGKEY_Pos         16U                                            /*!< Core
1425:C:/Users/Utente/Desktop/Tesi/Firmware_Software/DAVE project/S2GLP_Pulsed_Doppler/Libraries/CMSIS/Include\core_cm4.h **** #define CoreDebug_DHCSR_DBGKEY_Msk         (0xFFFFUL << CoreDebug_DHCSR_DBGKEY_Pos)       /*!< Core
1426:C:/Users/Utente/Desktop/Tesi/Firmware_Software/DAVE project/S2GLP_Pulsed_Doppler/Libraries/CMSIS/Include\core_cm4.h **** 
1427:C:/Users/Utente/Desktop/Tesi/Firmware_Software/DAVE project/S2GLP_Pulsed_Doppler/Libraries/CMSIS/Include\core_cm4.h **** #define CoreDebug_DHCSR_S_RESET_ST_Pos     25U                                            /*!< Core
1428:C:/Users/Utente/Desktop/Tesi/Firmware_Software/DAVE project/S2GLP_Pulsed_Doppler/Libraries/CMSIS/Include\core_cm4.h **** #define CoreDebug_DHCSR_S_RESET_ST_Msk     (1UL << CoreDebug_DHCSR_S_RESET_ST_Pos)        /*!< Core
1429:C:/Users/Utente/Desktop/Tesi/Firmware_Software/DAVE project/S2GLP_Pulsed_Doppler/Libraries/CMSIS/Include\core_cm4.h **** 
1430:C:/Users/Utente/Desktop/Tesi/Firmware_Software/DAVE project/S2GLP_Pulsed_Doppler/Libraries/CMSIS/Include\core_cm4.h **** #define CoreDebug_DHCSR_S_RETIRE_ST_Pos    24U                                            /*!< Core
1431:C:/Users/Utente/Desktop/Tesi/Firmware_Software/DAVE project/S2GLP_Pulsed_Doppler/Libraries/CMSIS/Include\core_cm4.h **** #define CoreDebug_DHCSR_S_RETIRE_ST_Msk    (1UL << CoreDebug_DHCSR_S_RETIRE_ST_Pos)       /*!< Core
1432:C:/Users/Utente/Desktop/Tesi/Firmware_Software/DAVE project/S2GLP_Pulsed_Doppler/Libraries/CMSIS/Include\core_cm4.h **** 
1433:C:/Users/Utente/Desktop/Tesi/Firmware_Software/DAVE project/S2GLP_Pulsed_Doppler/Libraries/CMSIS/Include\core_cm4.h **** #define CoreDebug_DHCSR_S_LOCKUP_Pos       19U                                            /*!< Core
1434:C:/Users/Utente/Desktop/Tesi/Firmware_Software/DAVE project/S2GLP_Pulsed_Doppler/Libraries/CMSIS/Include\core_cm4.h **** #define CoreDebug_DHCSR_S_LOCKUP_Msk       (1UL << CoreDebug_DHCSR_S_LOCKUP_Pos)          /*!< Core
1435:C:/Users/Utente/Desktop/Tesi/Firmware_Software/DAVE project/S2GLP_Pulsed_Doppler/Libraries/CMSIS/Include\core_cm4.h **** 
1436:C:/Users/Utente/Desktop/Tesi/Firmware_Software/DAVE project/S2GLP_Pulsed_Doppler/Libraries/CMSIS/Include\core_cm4.h **** #define CoreDebug_DHCSR_S_SLEEP_Pos        18U                                            /*!< Core
1437:C:/Users/Utente/Desktop/Tesi/Firmware_Software/DAVE project/S2GLP_Pulsed_Doppler/Libraries/CMSIS/Include\core_cm4.h **** #define CoreDebug_DHCSR_S_SLEEP_Msk        (1UL << CoreDebug_DHCSR_S_SLEEP_Pos)           /*!< Core
1438:C:/Users/Utente/Desktop/Tesi/Firmware_Software/DAVE project/S2GLP_Pulsed_Doppler/Libraries/CMSIS/Include\core_cm4.h **** 
1439:C:/Users/Utente/Desktop/Tesi/Firmware_Software/DAVE project/S2GLP_Pulsed_Doppler/Libraries/CMSIS/Include\core_cm4.h **** #define CoreDebug_DHCSR_S_HALT_Pos         17U                                            /*!< Core
1440:C:/Users/Utente/Desktop/Tesi/Firmware_Software/DAVE project/S2GLP_Pulsed_Doppler/Libraries/CMSIS/Include\core_cm4.h **** #define CoreDebug_DHCSR_S_HALT_Msk         (1UL << CoreDebug_DHCSR_S_HALT_Pos)            /*!< Core
1441:C:/Users/Utente/Desktop/Tesi/Firmware_Software/DAVE project/S2GLP_Pulsed_Doppler/Libraries/CMSIS/Include\core_cm4.h **** 
1442:C:/Users/Utente/Desktop/Tesi/Firmware_Software/DAVE project/S2GLP_Pulsed_Doppler/Libraries/CMSIS/Include\core_cm4.h **** #define CoreDebug_DHCSR_S_REGRDY_Pos       16U                                            /*!< Core
1443:C:/Users/Utente/Desktop/Tesi/Firmware_Software/DAVE project/S2GLP_Pulsed_Doppler/Libraries/CMSIS/Include\core_cm4.h **** #define CoreDebug_DHCSR_S_REGRDY_Msk       (1UL << CoreDebug_DHCSR_S_REGRDY_Pos)          /*!< Core
1444:C:/Users/Utente/Desktop/Tesi/Firmware_Software/DAVE project/S2GLP_Pulsed_Doppler/Libraries/CMSIS/Include\core_cm4.h **** 
1445:C:/Users/Utente/Desktop/Tesi/Firmware_Software/DAVE project/S2GLP_Pulsed_Doppler/Libraries/CMSIS/Include\core_cm4.h **** #define CoreDebug_DHCSR_C_SNAPSTALL_Pos     5U                                            /*!< Core
1446:C:/Users/Utente/Desktop/Tesi/Firmware_Software/DAVE project/S2GLP_Pulsed_Doppler/Libraries/CMSIS/Include\core_cm4.h **** #define CoreDebug_DHCSR_C_SNAPSTALL_Msk    (1UL << CoreDebug_DHCSR_C_SNAPSTALL_Pos)       /*!< Core
1447:C:/Users/Utente/Desktop/Tesi/Firmware_Software/DAVE project/S2GLP_Pulsed_Doppler/Libraries/CMSIS/Include\core_cm4.h **** 
1448:C:/Users/Utente/Desktop/Tesi/Firmware_Software/DAVE project/S2GLP_Pulsed_Doppler/Libraries/CMSIS/Include\core_cm4.h **** #define CoreDebug_DHCSR_C_MASKINTS_Pos      3U                                            /*!< Core
1449:C:/Users/Utente/Desktop/Tesi/Firmware_Software/DAVE project/S2GLP_Pulsed_Doppler/Libraries/CMSIS/Include\core_cm4.h **** #define CoreDebug_DHCSR_C_MASKINTS_Msk     (1UL << CoreDebug_DHCSR_C_MASKINTS_Pos)        /*!< Core
1450:C:/Users/Utente/Desktop/Tesi/Firmware_Software/DAVE project/S2GLP_Pulsed_Doppler/Libraries/CMSIS/Include\core_cm4.h **** 
1451:C:/Users/Utente/Desktop/Tesi/Firmware_Software/DAVE project/S2GLP_Pulsed_Doppler/Libraries/CMSIS/Include\core_cm4.h **** #define CoreDebug_DHCSR_C_STEP_Pos          2U                                            /*!< Core
1452:C:/Users/Utente/Desktop/Tesi/Firmware_Software/DAVE project/S2GLP_Pulsed_Doppler/Libraries/CMSIS/Include\core_cm4.h **** #define CoreDebug_DHCSR_C_STEP_Msk         (1UL << CoreDebug_DHCSR_C_STEP_Pos)            /*!< Core
1453:C:/Users/Utente/Desktop/Tesi/Firmware_Software/DAVE project/S2GLP_Pulsed_Doppler/Libraries/CMSIS/Include\core_cm4.h **** 
1454:C:/Users/Utente/Desktop/Tesi/Firmware_Software/DAVE project/S2GLP_Pulsed_Doppler/Libraries/CMSIS/Include\core_cm4.h **** #define CoreDebug_DHCSR_C_HALT_Pos          1U                                            /*!< Core
1455:C:/Users/Utente/Desktop/Tesi/Firmware_Software/DAVE project/S2GLP_Pulsed_Doppler/Libraries/CMSIS/Include\core_cm4.h **** #define CoreDebug_DHCSR_C_HALT_Msk         (1UL << CoreDebug_DHCSR_C_HALT_Pos)            /*!< Core
1456:C:/Users/Utente/Desktop/Tesi/Firmware_Software/DAVE project/S2GLP_Pulsed_Doppler/Libraries/CMSIS/Include\core_cm4.h **** 
1457:C:/Users/Utente/Desktop/Tesi/Firmware_Software/DAVE project/S2GLP_Pulsed_Doppler/Libraries/CMSIS/Include\core_cm4.h **** #define CoreDebug_DHCSR_C_DEBUGEN_Pos       0U                                            /*!< Core
1458:C:/Users/Utente/Desktop/Tesi/Firmware_Software/DAVE project/S2GLP_Pulsed_Doppler/Libraries/CMSIS/Include\core_cm4.h **** #define CoreDebug_DHCSR_C_DEBUGEN_Msk      (1UL /*<< CoreDebug_DHCSR_C_DEBUGEN_Pos*/)     /*!< Core
1459:C:/Users/Utente/Desktop/Tesi/Firmware_Software/DAVE project/S2GLP_Pulsed_Doppler/Libraries/CMSIS/Include\core_cm4.h **** 
1460:C:/Users/Utente/Desktop/Tesi/Firmware_Software/DAVE project/S2GLP_Pulsed_Doppler/Libraries/CMSIS/Include\core_cm4.h **** /* Debug Core Register Selector Register Definitions */
1461:C:/Users/Utente/Desktop/Tesi/Firmware_Software/DAVE project/S2GLP_Pulsed_Doppler/Libraries/CMSIS/Include\core_cm4.h **** #define CoreDebug_DCRSR_REGWnR_Pos         16U                                            /*!< Core
1462:C:/Users/Utente/Desktop/Tesi/Firmware_Software/DAVE project/S2GLP_Pulsed_Doppler/Libraries/CMSIS/Include\core_cm4.h **** #define CoreDebug_DCRSR_REGWnR_Msk         (1UL << CoreDebug_DCRSR_REGWnR_Pos)            /*!< Core
1463:C:/Users/Utente/Desktop/Tesi/Firmware_Software/DAVE project/S2GLP_Pulsed_Doppler/Libraries/CMSIS/Include\core_cm4.h **** 
1464:C:/Users/Utente/Desktop/Tesi/Firmware_Software/DAVE project/S2GLP_Pulsed_Doppler/Libraries/CMSIS/Include\core_cm4.h **** #define CoreDebug_DCRSR_REGSEL_Pos          0U                                            /*!< Core
1465:C:/Users/Utente/Desktop/Tesi/Firmware_Software/DAVE project/S2GLP_Pulsed_Doppler/Libraries/CMSIS/Include\core_cm4.h **** #define CoreDebug_DCRSR_REGSEL_Msk         (0x1FUL /*<< CoreDebug_DCRSR_REGSEL_Pos*/)     /*!< Core
1466:C:/Users/Utente/Desktop/Tesi/Firmware_Software/DAVE project/S2GLP_Pulsed_Doppler/Libraries/CMSIS/Include\core_cm4.h **** 
1467:C:/Users/Utente/Desktop/Tesi/Firmware_Software/DAVE project/S2GLP_Pulsed_Doppler/Libraries/CMSIS/Include\core_cm4.h **** /* Debug Exception and Monitor Control Register Definitions */
1468:C:/Users/Utente/Desktop/Tesi/Firmware_Software/DAVE project/S2GLP_Pulsed_Doppler/Libraries/CMSIS/Include\core_cm4.h **** #define CoreDebug_DEMCR_TRCENA_Pos         24U                                            /*!< Core
1469:C:/Users/Utente/Desktop/Tesi/Firmware_Software/DAVE project/S2GLP_Pulsed_Doppler/Libraries/CMSIS/Include\core_cm4.h **** #define CoreDebug_DEMCR_TRCENA_Msk         (1UL << CoreDebug_DEMCR_TRCENA_Pos)            /*!< Core
1470:C:/Users/Utente/Desktop/Tesi/Firmware_Software/DAVE project/S2GLP_Pulsed_Doppler/Libraries/CMSIS/Include\core_cm4.h **** 
1471:C:/Users/Utente/Desktop/Tesi/Firmware_Software/DAVE project/S2GLP_Pulsed_Doppler/Libraries/CMSIS/Include\core_cm4.h **** #define CoreDebug_DEMCR_MON_REQ_Pos        19U                                            /*!< Core
1472:C:/Users/Utente/Desktop/Tesi/Firmware_Software/DAVE project/S2GLP_Pulsed_Doppler/Libraries/CMSIS/Include\core_cm4.h **** #define CoreDebug_DEMCR_MON_REQ_Msk        (1UL << CoreDebug_DEMCR_MON_REQ_Pos)           /*!< Core
1473:C:/Users/Utente/Desktop/Tesi/Firmware_Software/DAVE project/S2GLP_Pulsed_Doppler/Libraries/CMSIS/Include\core_cm4.h **** 
1474:C:/Users/Utente/Desktop/Tesi/Firmware_Software/DAVE project/S2GLP_Pulsed_Doppler/Libraries/CMSIS/Include\core_cm4.h **** #define CoreDebug_DEMCR_MON_STEP_Pos       18U                                            /*!< Core
1475:C:/Users/Utente/Desktop/Tesi/Firmware_Software/DAVE project/S2GLP_Pulsed_Doppler/Libraries/CMSIS/Include\core_cm4.h **** #define CoreDebug_DEMCR_MON_STEP_Msk       (1UL << CoreDebug_DEMCR_MON_STEP_Pos)          /*!< Core
1476:C:/Users/Utente/Desktop/Tesi/Firmware_Software/DAVE project/S2GLP_Pulsed_Doppler/Libraries/CMSIS/Include\core_cm4.h **** 
1477:C:/Users/Utente/Desktop/Tesi/Firmware_Software/DAVE project/S2GLP_Pulsed_Doppler/Libraries/CMSIS/Include\core_cm4.h **** #define CoreDebug_DEMCR_MON_PEND_Pos       17U                                            /*!< Core
1478:C:/Users/Utente/Desktop/Tesi/Firmware_Software/DAVE project/S2GLP_Pulsed_Doppler/Libraries/CMSIS/Include\core_cm4.h **** #define CoreDebug_DEMCR_MON_PEND_Msk       (1UL << CoreDebug_DEMCR_MON_PEND_Pos)          /*!< Core
1479:C:/Users/Utente/Desktop/Tesi/Firmware_Software/DAVE project/S2GLP_Pulsed_Doppler/Libraries/CMSIS/Include\core_cm4.h **** 
1480:C:/Users/Utente/Desktop/Tesi/Firmware_Software/DAVE project/S2GLP_Pulsed_Doppler/Libraries/CMSIS/Include\core_cm4.h **** #define CoreDebug_DEMCR_MON_EN_Pos         16U                                            /*!< Core
1481:C:/Users/Utente/Desktop/Tesi/Firmware_Software/DAVE project/S2GLP_Pulsed_Doppler/Libraries/CMSIS/Include\core_cm4.h **** #define CoreDebug_DEMCR_MON_EN_Msk         (1UL << CoreDebug_DEMCR_MON_EN_Pos)            /*!< Core
1482:C:/Users/Utente/Desktop/Tesi/Firmware_Software/DAVE project/S2GLP_Pulsed_Doppler/Libraries/CMSIS/Include\core_cm4.h **** 
1483:C:/Users/Utente/Desktop/Tesi/Firmware_Software/DAVE project/S2GLP_Pulsed_Doppler/Libraries/CMSIS/Include\core_cm4.h **** #define CoreDebug_DEMCR_VC_HARDERR_Pos     10U                                            /*!< Core
1484:C:/Users/Utente/Desktop/Tesi/Firmware_Software/DAVE project/S2GLP_Pulsed_Doppler/Libraries/CMSIS/Include\core_cm4.h **** #define CoreDebug_DEMCR_VC_HARDERR_Msk     (1UL << CoreDebug_DEMCR_VC_HARDERR_Pos)        /*!< Core
1485:C:/Users/Utente/Desktop/Tesi/Firmware_Software/DAVE project/S2GLP_Pulsed_Doppler/Libraries/CMSIS/Include\core_cm4.h **** 
1486:C:/Users/Utente/Desktop/Tesi/Firmware_Software/DAVE project/S2GLP_Pulsed_Doppler/Libraries/CMSIS/Include\core_cm4.h **** #define CoreDebug_DEMCR_VC_INTERR_Pos       9U                                            /*!< Core
1487:C:/Users/Utente/Desktop/Tesi/Firmware_Software/DAVE project/S2GLP_Pulsed_Doppler/Libraries/CMSIS/Include\core_cm4.h **** #define CoreDebug_DEMCR_VC_INTERR_Msk      (1UL << CoreDebug_DEMCR_VC_INTERR_Pos)         /*!< Core
1488:C:/Users/Utente/Desktop/Tesi/Firmware_Software/DAVE project/S2GLP_Pulsed_Doppler/Libraries/CMSIS/Include\core_cm4.h **** 
1489:C:/Users/Utente/Desktop/Tesi/Firmware_Software/DAVE project/S2GLP_Pulsed_Doppler/Libraries/CMSIS/Include\core_cm4.h **** #define CoreDebug_DEMCR_VC_BUSERR_Pos       8U                                            /*!< Core
1490:C:/Users/Utente/Desktop/Tesi/Firmware_Software/DAVE project/S2GLP_Pulsed_Doppler/Libraries/CMSIS/Include\core_cm4.h **** #define CoreDebug_DEMCR_VC_BUSERR_Msk      (1UL << CoreDebug_DEMCR_VC_BUSERR_Pos)         /*!< Core
1491:C:/Users/Utente/Desktop/Tesi/Firmware_Software/DAVE project/S2GLP_Pulsed_Doppler/Libraries/CMSIS/Include\core_cm4.h **** 
1492:C:/Users/Utente/Desktop/Tesi/Firmware_Software/DAVE project/S2GLP_Pulsed_Doppler/Libraries/CMSIS/Include\core_cm4.h **** #define CoreDebug_DEMCR_VC_STATERR_Pos      7U                                            /*!< Core
1493:C:/Users/Utente/Desktop/Tesi/Firmware_Software/DAVE project/S2GLP_Pulsed_Doppler/Libraries/CMSIS/Include\core_cm4.h **** #define CoreDebug_DEMCR_VC_STATERR_Msk     (1UL << CoreDebug_DEMCR_VC_STATERR_Pos)        /*!< Core
1494:C:/Users/Utente/Desktop/Tesi/Firmware_Software/DAVE project/S2GLP_Pulsed_Doppler/Libraries/CMSIS/Include\core_cm4.h **** 
1495:C:/Users/Utente/Desktop/Tesi/Firmware_Software/DAVE project/S2GLP_Pulsed_Doppler/Libraries/CMSIS/Include\core_cm4.h **** #define CoreDebug_DEMCR_VC_CHKERR_Pos       6U                                            /*!< Core
1496:C:/Users/Utente/Desktop/Tesi/Firmware_Software/DAVE project/S2GLP_Pulsed_Doppler/Libraries/CMSIS/Include\core_cm4.h **** #define CoreDebug_DEMCR_VC_CHKERR_Msk      (1UL << CoreDebug_DEMCR_VC_CHKERR_Pos)         /*!< Core
1497:C:/Users/Utente/Desktop/Tesi/Firmware_Software/DAVE project/S2GLP_Pulsed_Doppler/Libraries/CMSIS/Include\core_cm4.h **** 
1498:C:/Users/Utente/Desktop/Tesi/Firmware_Software/DAVE project/S2GLP_Pulsed_Doppler/Libraries/CMSIS/Include\core_cm4.h **** #define CoreDebug_DEMCR_VC_NOCPERR_Pos      5U                                            /*!< Core
1499:C:/Users/Utente/Desktop/Tesi/Firmware_Software/DAVE project/S2GLP_Pulsed_Doppler/Libraries/CMSIS/Include\core_cm4.h **** #define CoreDebug_DEMCR_VC_NOCPERR_Msk     (1UL << CoreDebug_DEMCR_VC_NOCPERR_Pos)        /*!< Core
1500:C:/Users/Utente/Desktop/Tesi/Firmware_Software/DAVE project/S2GLP_Pulsed_Doppler/Libraries/CMSIS/Include\core_cm4.h **** 
1501:C:/Users/Utente/Desktop/Tesi/Firmware_Software/DAVE project/S2GLP_Pulsed_Doppler/Libraries/CMSIS/Include\core_cm4.h **** #define CoreDebug_DEMCR_VC_MMERR_Pos        4U                                            /*!< Core
1502:C:/Users/Utente/Desktop/Tesi/Firmware_Software/DAVE project/S2GLP_Pulsed_Doppler/Libraries/CMSIS/Include\core_cm4.h **** #define CoreDebug_DEMCR_VC_MMERR_Msk       (1UL << CoreDebug_DEMCR_VC_MMERR_Pos)          /*!< Core
1503:C:/Users/Utente/Desktop/Tesi/Firmware_Software/DAVE project/S2GLP_Pulsed_Doppler/Libraries/CMSIS/Include\core_cm4.h **** 
1504:C:/Users/Utente/Desktop/Tesi/Firmware_Software/DAVE project/S2GLP_Pulsed_Doppler/Libraries/CMSIS/Include\core_cm4.h **** #define CoreDebug_DEMCR_VC_CORERESET_Pos    0U                                            /*!< Core
1505:C:/Users/Utente/Desktop/Tesi/Firmware_Software/DAVE project/S2GLP_Pulsed_Doppler/Libraries/CMSIS/Include\core_cm4.h **** #define CoreDebug_DEMCR_VC_CORERESET_Msk   (1UL /*<< CoreDebug_DEMCR_VC_CORERESET_Pos*/)  /*!< Core
1506:C:/Users/Utente/Desktop/Tesi/Firmware_Software/DAVE project/S2GLP_Pulsed_Doppler/Libraries/CMSIS/Include\core_cm4.h **** 
1507:C:/Users/Utente/Desktop/Tesi/Firmware_Software/DAVE project/S2GLP_Pulsed_Doppler/Libraries/CMSIS/Include\core_cm4.h **** /*@} end of group CMSIS_CoreDebug */
1508:C:/Users/Utente/Desktop/Tesi/Firmware_Software/DAVE project/S2GLP_Pulsed_Doppler/Libraries/CMSIS/Include\core_cm4.h **** 
1509:C:/Users/Utente/Desktop/Tesi/Firmware_Software/DAVE project/S2GLP_Pulsed_Doppler/Libraries/CMSIS/Include\core_cm4.h **** 
1510:C:/Users/Utente/Desktop/Tesi/Firmware_Software/DAVE project/S2GLP_Pulsed_Doppler/Libraries/CMSIS/Include\core_cm4.h **** /**
1511:C:/Users/Utente/Desktop/Tesi/Firmware_Software/DAVE project/S2GLP_Pulsed_Doppler/Libraries/CMSIS/Include\core_cm4.h ****   \ingroup    CMSIS_core_register
1512:C:/Users/Utente/Desktop/Tesi/Firmware_Software/DAVE project/S2GLP_Pulsed_Doppler/Libraries/CMSIS/Include\core_cm4.h ****   \defgroup   CMSIS_core_bitfield     Core register bit field macros
1513:C:/Users/Utente/Desktop/Tesi/Firmware_Software/DAVE project/S2GLP_Pulsed_Doppler/Libraries/CMSIS/Include\core_cm4.h ****   \brief      Macros for use with bit field definitions (xxx_Pos, xxx_Msk).
1514:C:/Users/Utente/Desktop/Tesi/Firmware_Software/DAVE project/S2GLP_Pulsed_Doppler/Libraries/CMSIS/Include\core_cm4.h ****   @{
1515:C:/Users/Utente/Desktop/Tesi/Firmware_Software/DAVE project/S2GLP_Pulsed_Doppler/Libraries/CMSIS/Include\core_cm4.h ****  */
1516:C:/Users/Utente/Desktop/Tesi/Firmware_Software/DAVE project/S2GLP_Pulsed_Doppler/Libraries/CMSIS/Include\core_cm4.h **** 
1517:C:/Users/Utente/Desktop/Tesi/Firmware_Software/DAVE project/S2GLP_Pulsed_Doppler/Libraries/CMSIS/Include\core_cm4.h **** /**
1518:C:/Users/Utente/Desktop/Tesi/Firmware_Software/DAVE project/S2GLP_Pulsed_Doppler/Libraries/CMSIS/Include\core_cm4.h ****   \brief   Mask and shift a bit field value for use in a register bit range.
1519:C:/Users/Utente/Desktop/Tesi/Firmware_Software/DAVE project/S2GLP_Pulsed_Doppler/Libraries/CMSIS/Include\core_cm4.h ****   \param[in] field  Name of the register bit field.
1520:C:/Users/Utente/Desktop/Tesi/Firmware_Software/DAVE project/S2GLP_Pulsed_Doppler/Libraries/CMSIS/Include\core_cm4.h ****   \param[in] value  Value of the bit field. This parameter is interpreted as an uint32_t type.
1521:C:/Users/Utente/Desktop/Tesi/Firmware_Software/DAVE project/S2GLP_Pulsed_Doppler/Libraries/CMSIS/Include\core_cm4.h ****   \return           Masked and shifted value.
1522:C:/Users/Utente/Desktop/Tesi/Firmware_Software/DAVE project/S2GLP_Pulsed_Doppler/Libraries/CMSIS/Include\core_cm4.h **** */
1523:C:/Users/Utente/Desktop/Tesi/Firmware_Software/DAVE project/S2GLP_Pulsed_Doppler/Libraries/CMSIS/Include\core_cm4.h **** #define _VAL2FLD(field, value)    (((uint32_t)(value) << field ## _Pos) & field ## _Msk)
1524:C:/Users/Utente/Desktop/Tesi/Firmware_Software/DAVE project/S2GLP_Pulsed_Doppler/Libraries/CMSIS/Include\core_cm4.h **** 
1525:C:/Users/Utente/Desktop/Tesi/Firmware_Software/DAVE project/S2GLP_Pulsed_Doppler/Libraries/CMSIS/Include\core_cm4.h **** /**
1526:C:/Users/Utente/Desktop/Tesi/Firmware_Software/DAVE project/S2GLP_Pulsed_Doppler/Libraries/CMSIS/Include\core_cm4.h ****   \brief     Mask and shift a register value to extract a bit filed value.
1527:C:/Users/Utente/Desktop/Tesi/Firmware_Software/DAVE project/S2GLP_Pulsed_Doppler/Libraries/CMSIS/Include\core_cm4.h ****   \param[in] field  Name of the register bit field.
1528:C:/Users/Utente/Desktop/Tesi/Firmware_Software/DAVE project/S2GLP_Pulsed_Doppler/Libraries/CMSIS/Include\core_cm4.h ****   \param[in] value  Value of register. This parameter is interpreted as an uint32_t type.
1529:C:/Users/Utente/Desktop/Tesi/Firmware_Software/DAVE project/S2GLP_Pulsed_Doppler/Libraries/CMSIS/Include\core_cm4.h ****   \return           Masked and shifted bit field value.
1530:C:/Users/Utente/Desktop/Tesi/Firmware_Software/DAVE project/S2GLP_Pulsed_Doppler/Libraries/CMSIS/Include\core_cm4.h **** */
1531:C:/Users/Utente/Desktop/Tesi/Firmware_Software/DAVE project/S2GLP_Pulsed_Doppler/Libraries/CMSIS/Include\core_cm4.h **** #define _FLD2VAL(field, value)    (((uint32_t)(value) & field ## _Msk) >> field ## _Pos)
1532:C:/Users/Utente/Desktop/Tesi/Firmware_Software/DAVE project/S2GLP_Pulsed_Doppler/Libraries/CMSIS/Include\core_cm4.h **** 
1533:C:/Users/Utente/Desktop/Tesi/Firmware_Software/DAVE project/S2GLP_Pulsed_Doppler/Libraries/CMSIS/Include\core_cm4.h **** /*@} end of group CMSIS_core_bitfield */
1534:C:/Users/Utente/Desktop/Tesi/Firmware_Software/DAVE project/S2GLP_Pulsed_Doppler/Libraries/CMSIS/Include\core_cm4.h **** 
1535:C:/Users/Utente/Desktop/Tesi/Firmware_Software/DAVE project/S2GLP_Pulsed_Doppler/Libraries/CMSIS/Include\core_cm4.h **** 
1536:C:/Users/Utente/Desktop/Tesi/Firmware_Software/DAVE project/S2GLP_Pulsed_Doppler/Libraries/CMSIS/Include\core_cm4.h **** /**
1537:C:/Users/Utente/Desktop/Tesi/Firmware_Software/DAVE project/S2GLP_Pulsed_Doppler/Libraries/CMSIS/Include\core_cm4.h ****   \ingroup    CMSIS_core_register
1538:C:/Users/Utente/Desktop/Tesi/Firmware_Software/DAVE project/S2GLP_Pulsed_Doppler/Libraries/CMSIS/Include\core_cm4.h ****   \defgroup   CMSIS_core_base     Core Definitions
1539:C:/Users/Utente/Desktop/Tesi/Firmware_Software/DAVE project/S2GLP_Pulsed_Doppler/Libraries/CMSIS/Include\core_cm4.h ****   \brief      Definitions for base addresses, unions, and structures.
1540:C:/Users/Utente/Desktop/Tesi/Firmware_Software/DAVE project/S2GLP_Pulsed_Doppler/Libraries/CMSIS/Include\core_cm4.h ****   @{
1541:C:/Users/Utente/Desktop/Tesi/Firmware_Software/DAVE project/S2GLP_Pulsed_Doppler/Libraries/CMSIS/Include\core_cm4.h ****  */
1542:C:/Users/Utente/Desktop/Tesi/Firmware_Software/DAVE project/S2GLP_Pulsed_Doppler/Libraries/CMSIS/Include\core_cm4.h **** 
1543:C:/Users/Utente/Desktop/Tesi/Firmware_Software/DAVE project/S2GLP_Pulsed_Doppler/Libraries/CMSIS/Include\core_cm4.h **** /* Memory mapping of Core Hardware */
1544:C:/Users/Utente/Desktop/Tesi/Firmware_Software/DAVE project/S2GLP_Pulsed_Doppler/Libraries/CMSIS/Include\core_cm4.h **** #define SCS_BASE            (0xE000E000UL)                            /*!< System Control Space Bas
1545:C:/Users/Utente/Desktop/Tesi/Firmware_Software/DAVE project/S2GLP_Pulsed_Doppler/Libraries/CMSIS/Include\core_cm4.h **** #define ITM_BASE            (0xE0000000UL)                            /*!< ITM Base Address */
1546:C:/Users/Utente/Desktop/Tesi/Firmware_Software/DAVE project/S2GLP_Pulsed_Doppler/Libraries/CMSIS/Include\core_cm4.h **** #define DWT_BASE            (0xE0001000UL)                            /*!< DWT Base Address */
1547:C:/Users/Utente/Desktop/Tesi/Firmware_Software/DAVE project/S2GLP_Pulsed_Doppler/Libraries/CMSIS/Include\core_cm4.h **** #define TPI_BASE            (0xE0040000UL)                            /*!< TPI Base Address */
1548:C:/Users/Utente/Desktop/Tesi/Firmware_Software/DAVE project/S2GLP_Pulsed_Doppler/Libraries/CMSIS/Include\core_cm4.h **** #define CoreDebug_BASE      (0xE000EDF0UL)                            /*!< Core Debug Base Address 
1549:C:/Users/Utente/Desktop/Tesi/Firmware_Software/DAVE project/S2GLP_Pulsed_Doppler/Libraries/CMSIS/Include\core_cm4.h **** #define SysTick_BASE        (SCS_BASE +  0x0010UL)                    /*!< SysTick Base Address */
1550:C:/Users/Utente/Desktop/Tesi/Firmware_Software/DAVE project/S2GLP_Pulsed_Doppler/Libraries/CMSIS/Include\core_cm4.h **** #define NVIC_BASE           (SCS_BASE +  0x0100UL)                    /*!< NVIC Base Address */
1551:C:/Users/Utente/Desktop/Tesi/Firmware_Software/DAVE project/S2GLP_Pulsed_Doppler/Libraries/CMSIS/Include\core_cm4.h **** #define SCB_BASE            (SCS_BASE +  0x0D00UL)                    /*!< System Control Block Bas
1552:C:/Users/Utente/Desktop/Tesi/Firmware_Software/DAVE project/S2GLP_Pulsed_Doppler/Libraries/CMSIS/Include\core_cm4.h **** 
1553:C:/Users/Utente/Desktop/Tesi/Firmware_Software/DAVE project/S2GLP_Pulsed_Doppler/Libraries/CMSIS/Include\core_cm4.h **** #define SCnSCB              ((SCnSCB_Type    *)     SCS_BASE      )   /*!< System control Register 
1554:C:/Users/Utente/Desktop/Tesi/Firmware_Software/DAVE project/S2GLP_Pulsed_Doppler/Libraries/CMSIS/Include\core_cm4.h **** #define SCB                 ((SCB_Type       *)     SCB_BASE      )   /*!< SCB configuration struct
1555:C:/Users/Utente/Desktop/Tesi/Firmware_Software/DAVE project/S2GLP_Pulsed_Doppler/Libraries/CMSIS/Include\core_cm4.h **** #define SysTick             ((SysTick_Type   *)     SysTick_BASE  )   /*!< SysTick configuration st
1556:C:/Users/Utente/Desktop/Tesi/Firmware_Software/DAVE project/S2GLP_Pulsed_Doppler/Libraries/CMSIS/Include\core_cm4.h **** #define NVIC                ((NVIC_Type      *)     NVIC_BASE     )   /*!< NVIC configuration struc
1557:C:/Users/Utente/Desktop/Tesi/Firmware_Software/DAVE project/S2GLP_Pulsed_Doppler/Libraries/CMSIS/Include\core_cm4.h **** #define ITM                 ((ITM_Type       *)     ITM_BASE      )   /*!< ITM configuration struct
1558:C:/Users/Utente/Desktop/Tesi/Firmware_Software/DAVE project/S2GLP_Pulsed_Doppler/Libraries/CMSIS/Include\core_cm4.h **** #define DWT                 ((DWT_Type       *)     DWT_BASE      )   /*!< DWT configuration struct
1559:C:/Users/Utente/Desktop/Tesi/Firmware_Software/DAVE project/S2GLP_Pulsed_Doppler/Libraries/CMSIS/Include\core_cm4.h **** #define TPI                 ((TPI_Type       *)     TPI_BASE      )   /*!< TPI configuration struct
1560:C:/Users/Utente/Desktop/Tesi/Firmware_Software/DAVE project/S2GLP_Pulsed_Doppler/Libraries/CMSIS/Include\core_cm4.h **** #define CoreDebug           ((CoreDebug_Type *)     CoreDebug_BASE)   /*!< Core Debug configuration
1561:C:/Users/Utente/Desktop/Tesi/Firmware_Software/DAVE project/S2GLP_Pulsed_Doppler/Libraries/CMSIS/Include\core_cm4.h **** 
1562:C:/Users/Utente/Desktop/Tesi/Firmware_Software/DAVE project/S2GLP_Pulsed_Doppler/Libraries/CMSIS/Include\core_cm4.h **** #if defined (__MPU_PRESENT) && (__MPU_PRESENT == 1U)
1563:C:/Users/Utente/Desktop/Tesi/Firmware_Software/DAVE project/S2GLP_Pulsed_Doppler/Libraries/CMSIS/Include\core_cm4.h ****   #define MPU_BASE          (SCS_BASE +  0x0D90UL)                    /*!< Memory Protection Unit *
1564:C:/Users/Utente/Desktop/Tesi/Firmware_Software/DAVE project/S2GLP_Pulsed_Doppler/Libraries/CMSIS/Include\core_cm4.h ****   #define MPU               ((MPU_Type       *)     MPU_BASE      )   /*!< Memory Protection Unit *
1565:C:/Users/Utente/Desktop/Tesi/Firmware_Software/DAVE project/S2GLP_Pulsed_Doppler/Libraries/CMSIS/Include\core_cm4.h **** #endif
1566:C:/Users/Utente/Desktop/Tesi/Firmware_Software/DAVE project/S2GLP_Pulsed_Doppler/Libraries/CMSIS/Include\core_cm4.h **** 
1567:C:/Users/Utente/Desktop/Tesi/Firmware_Software/DAVE project/S2GLP_Pulsed_Doppler/Libraries/CMSIS/Include\core_cm4.h **** #define FPU_BASE            (SCS_BASE +  0x0F30UL)                    /*!< Floating Point Unit */
1568:C:/Users/Utente/Desktop/Tesi/Firmware_Software/DAVE project/S2GLP_Pulsed_Doppler/Libraries/CMSIS/Include\core_cm4.h **** #define FPU                 ((FPU_Type       *)     FPU_BASE      )   /*!< Floating Point Unit */
1569:C:/Users/Utente/Desktop/Tesi/Firmware_Software/DAVE project/S2GLP_Pulsed_Doppler/Libraries/CMSIS/Include\core_cm4.h **** 
1570:C:/Users/Utente/Desktop/Tesi/Firmware_Software/DAVE project/S2GLP_Pulsed_Doppler/Libraries/CMSIS/Include\core_cm4.h **** /*@} */
1571:C:/Users/Utente/Desktop/Tesi/Firmware_Software/DAVE project/S2GLP_Pulsed_Doppler/Libraries/CMSIS/Include\core_cm4.h **** 
1572:C:/Users/Utente/Desktop/Tesi/Firmware_Software/DAVE project/S2GLP_Pulsed_Doppler/Libraries/CMSIS/Include\core_cm4.h **** 
1573:C:/Users/Utente/Desktop/Tesi/Firmware_Software/DAVE project/S2GLP_Pulsed_Doppler/Libraries/CMSIS/Include\core_cm4.h **** 
1574:C:/Users/Utente/Desktop/Tesi/Firmware_Software/DAVE project/S2GLP_Pulsed_Doppler/Libraries/CMSIS/Include\core_cm4.h **** /*******************************************************************************
1575:C:/Users/Utente/Desktop/Tesi/Firmware_Software/DAVE project/S2GLP_Pulsed_Doppler/Libraries/CMSIS/Include\core_cm4.h ****  *                Hardware Abstraction Layer
1576:C:/Users/Utente/Desktop/Tesi/Firmware_Software/DAVE project/S2GLP_Pulsed_Doppler/Libraries/CMSIS/Include\core_cm4.h ****   Core Function Interface contains:
1577:C:/Users/Utente/Desktop/Tesi/Firmware_Software/DAVE project/S2GLP_Pulsed_Doppler/Libraries/CMSIS/Include\core_cm4.h ****   - Core NVIC Functions
1578:C:/Users/Utente/Desktop/Tesi/Firmware_Software/DAVE project/S2GLP_Pulsed_Doppler/Libraries/CMSIS/Include\core_cm4.h ****   - Core SysTick Functions
1579:C:/Users/Utente/Desktop/Tesi/Firmware_Software/DAVE project/S2GLP_Pulsed_Doppler/Libraries/CMSIS/Include\core_cm4.h ****   - Core Debug Functions
1580:C:/Users/Utente/Desktop/Tesi/Firmware_Software/DAVE project/S2GLP_Pulsed_Doppler/Libraries/CMSIS/Include\core_cm4.h ****   - Core Register Access Functions
1581:C:/Users/Utente/Desktop/Tesi/Firmware_Software/DAVE project/S2GLP_Pulsed_Doppler/Libraries/CMSIS/Include\core_cm4.h ****  ******************************************************************************/
1582:C:/Users/Utente/Desktop/Tesi/Firmware_Software/DAVE project/S2GLP_Pulsed_Doppler/Libraries/CMSIS/Include\core_cm4.h **** /**
1583:C:/Users/Utente/Desktop/Tesi/Firmware_Software/DAVE project/S2GLP_Pulsed_Doppler/Libraries/CMSIS/Include\core_cm4.h ****   \defgroup CMSIS_Core_FunctionInterface Functions and Instructions Reference
1584:C:/Users/Utente/Desktop/Tesi/Firmware_Software/DAVE project/S2GLP_Pulsed_Doppler/Libraries/CMSIS/Include\core_cm4.h **** */
1585:C:/Users/Utente/Desktop/Tesi/Firmware_Software/DAVE project/S2GLP_Pulsed_Doppler/Libraries/CMSIS/Include\core_cm4.h **** 
1586:C:/Users/Utente/Desktop/Tesi/Firmware_Software/DAVE project/S2GLP_Pulsed_Doppler/Libraries/CMSIS/Include\core_cm4.h **** 
1587:C:/Users/Utente/Desktop/Tesi/Firmware_Software/DAVE project/S2GLP_Pulsed_Doppler/Libraries/CMSIS/Include\core_cm4.h **** 
1588:C:/Users/Utente/Desktop/Tesi/Firmware_Software/DAVE project/S2GLP_Pulsed_Doppler/Libraries/CMSIS/Include\core_cm4.h **** /* ##########################   NVIC functions  #################################### */
1589:C:/Users/Utente/Desktop/Tesi/Firmware_Software/DAVE project/S2GLP_Pulsed_Doppler/Libraries/CMSIS/Include\core_cm4.h **** /**
1590:C:/Users/Utente/Desktop/Tesi/Firmware_Software/DAVE project/S2GLP_Pulsed_Doppler/Libraries/CMSIS/Include\core_cm4.h ****   \ingroup  CMSIS_Core_FunctionInterface
1591:C:/Users/Utente/Desktop/Tesi/Firmware_Software/DAVE project/S2GLP_Pulsed_Doppler/Libraries/CMSIS/Include\core_cm4.h ****   \defgroup CMSIS_Core_NVICFunctions NVIC Functions
1592:C:/Users/Utente/Desktop/Tesi/Firmware_Software/DAVE project/S2GLP_Pulsed_Doppler/Libraries/CMSIS/Include\core_cm4.h ****   \brief    Functions that manage interrupts and exceptions via the NVIC.
1593:C:/Users/Utente/Desktop/Tesi/Firmware_Software/DAVE project/S2GLP_Pulsed_Doppler/Libraries/CMSIS/Include\core_cm4.h ****   @{
1594:C:/Users/Utente/Desktop/Tesi/Firmware_Software/DAVE project/S2GLP_Pulsed_Doppler/Libraries/CMSIS/Include\core_cm4.h ****  */
1595:C:/Users/Utente/Desktop/Tesi/Firmware_Software/DAVE project/S2GLP_Pulsed_Doppler/Libraries/CMSIS/Include\core_cm4.h **** 
1596:C:/Users/Utente/Desktop/Tesi/Firmware_Software/DAVE project/S2GLP_Pulsed_Doppler/Libraries/CMSIS/Include\core_cm4.h **** #ifdef CMSIS_NVIC_VIRTUAL
1597:C:/Users/Utente/Desktop/Tesi/Firmware_Software/DAVE project/S2GLP_Pulsed_Doppler/Libraries/CMSIS/Include\core_cm4.h ****   #ifndef CMSIS_NVIC_VIRTUAL_HEADER_FILE
1598:C:/Users/Utente/Desktop/Tesi/Firmware_Software/DAVE project/S2GLP_Pulsed_Doppler/Libraries/CMSIS/Include\core_cm4.h ****     #define CMSIS_NVIC_VIRTUAL_HEADER_FILE "cmsis_nvic_virtual.h"
1599:C:/Users/Utente/Desktop/Tesi/Firmware_Software/DAVE project/S2GLP_Pulsed_Doppler/Libraries/CMSIS/Include\core_cm4.h ****   #endif
1600:C:/Users/Utente/Desktop/Tesi/Firmware_Software/DAVE project/S2GLP_Pulsed_Doppler/Libraries/CMSIS/Include\core_cm4.h ****   #include CMSIS_NVIC_VIRTUAL_HEADER_FILE
1601:C:/Users/Utente/Desktop/Tesi/Firmware_Software/DAVE project/S2GLP_Pulsed_Doppler/Libraries/CMSIS/Include\core_cm4.h **** #else
1602:C:/Users/Utente/Desktop/Tesi/Firmware_Software/DAVE project/S2GLP_Pulsed_Doppler/Libraries/CMSIS/Include\core_cm4.h ****   #define NVIC_SetPriorityGrouping    __NVIC_SetPriorityGrouping
1603:C:/Users/Utente/Desktop/Tesi/Firmware_Software/DAVE project/S2GLP_Pulsed_Doppler/Libraries/CMSIS/Include\core_cm4.h ****   #define NVIC_GetPriorityGrouping    __NVIC_GetPriorityGrouping
1604:C:/Users/Utente/Desktop/Tesi/Firmware_Software/DAVE project/S2GLP_Pulsed_Doppler/Libraries/CMSIS/Include\core_cm4.h ****   #define NVIC_EnableIRQ              __NVIC_EnableIRQ
1605:C:/Users/Utente/Desktop/Tesi/Firmware_Software/DAVE project/S2GLP_Pulsed_Doppler/Libraries/CMSIS/Include\core_cm4.h ****   #define NVIC_GetEnableIRQ           __NVIC_GetEnableIRQ
1606:C:/Users/Utente/Desktop/Tesi/Firmware_Software/DAVE project/S2GLP_Pulsed_Doppler/Libraries/CMSIS/Include\core_cm4.h ****   #define NVIC_DisableIRQ             __NVIC_DisableIRQ
1607:C:/Users/Utente/Desktop/Tesi/Firmware_Software/DAVE project/S2GLP_Pulsed_Doppler/Libraries/CMSIS/Include\core_cm4.h ****   #define NVIC_GetPendingIRQ          __NVIC_GetPendingIRQ
1608:C:/Users/Utente/Desktop/Tesi/Firmware_Software/DAVE project/S2GLP_Pulsed_Doppler/Libraries/CMSIS/Include\core_cm4.h ****   #define NVIC_SetPendingIRQ          __NVIC_SetPendingIRQ
1609:C:/Users/Utente/Desktop/Tesi/Firmware_Software/DAVE project/S2GLP_Pulsed_Doppler/Libraries/CMSIS/Include\core_cm4.h ****   #define NVIC_ClearPendingIRQ        __NVIC_ClearPendingIRQ
1610:C:/Users/Utente/Desktop/Tesi/Firmware_Software/DAVE project/S2GLP_Pulsed_Doppler/Libraries/CMSIS/Include\core_cm4.h ****   #define NVIC_GetActive              __NVIC_GetActive
1611:C:/Users/Utente/Desktop/Tesi/Firmware_Software/DAVE project/S2GLP_Pulsed_Doppler/Libraries/CMSIS/Include\core_cm4.h ****   #define NVIC_SetPriority            __NVIC_SetPriority
1612:C:/Users/Utente/Desktop/Tesi/Firmware_Software/DAVE project/S2GLP_Pulsed_Doppler/Libraries/CMSIS/Include\core_cm4.h ****   #define NVIC_GetPriority            __NVIC_GetPriority
1613:C:/Users/Utente/Desktop/Tesi/Firmware_Software/DAVE project/S2GLP_Pulsed_Doppler/Libraries/CMSIS/Include\core_cm4.h ****   #define NVIC_SystemReset            __NVIC_SystemReset
1614:C:/Users/Utente/Desktop/Tesi/Firmware_Software/DAVE project/S2GLP_Pulsed_Doppler/Libraries/CMSIS/Include\core_cm4.h **** #endif /* CMSIS_NVIC_VIRTUAL */
1615:C:/Users/Utente/Desktop/Tesi/Firmware_Software/DAVE project/S2GLP_Pulsed_Doppler/Libraries/CMSIS/Include\core_cm4.h **** 
1616:C:/Users/Utente/Desktop/Tesi/Firmware_Software/DAVE project/S2GLP_Pulsed_Doppler/Libraries/CMSIS/Include\core_cm4.h **** #ifdef CMSIS_VECTAB_VIRTUAL
1617:C:/Users/Utente/Desktop/Tesi/Firmware_Software/DAVE project/S2GLP_Pulsed_Doppler/Libraries/CMSIS/Include\core_cm4.h ****   #ifndef CMSIS_VECTAB_VIRTUAL_HEADER_FILE
1618:C:/Users/Utente/Desktop/Tesi/Firmware_Software/DAVE project/S2GLP_Pulsed_Doppler/Libraries/CMSIS/Include\core_cm4.h ****    #define CMSIS_VECTAB_VIRTUAL_HEADER_FILE "cmsis_vectab_virtual.h"
1619:C:/Users/Utente/Desktop/Tesi/Firmware_Software/DAVE project/S2GLP_Pulsed_Doppler/Libraries/CMSIS/Include\core_cm4.h ****   #endif
1620:C:/Users/Utente/Desktop/Tesi/Firmware_Software/DAVE project/S2GLP_Pulsed_Doppler/Libraries/CMSIS/Include\core_cm4.h ****   #include CMSIS_VECTAB_VIRTUAL_HEADER_FILE
1621:C:/Users/Utente/Desktop/Tesi/Firmware_Software/DAVE project/S2GLP_Pulsed_Doppler/Libraries/CMSIS/Include\core_cm4.h **** #else
1622:C:/Users/Utente/Desktop/Tesi/Firmware_Software/DAVE project/S2GLP_Pulsed_Doppler/Libraries/CMSIS/Include\core_cm4.h ****   #define NVIC_SetVector              __NVIC_SetVector
1623:C:/Users/Utente/Desktop/Tesi/Firmware_Software/DAVE project/S2GLP_Pulsed_Doppler/Libraries/CMSIS/Include\core_cm4.h ****   #define NVIC_GetVector              __NVIC_GetVector
1624:C:/Users/Utente/Desktop/Tesi/Firmware_Software/DAVE project/S2GLP_Pulsed_Doppler/Libraries/CMSIS/Include\core_cm4.h **** #endif  /* (CMSIS_VECTAB_VIRTUAL) */
1625:C:/Users/Utente/Desktop/Tesi/Firmware_Software/DAVE project/S2GLP_Pulsed_Doppler/Libraries/CMSIS/Include\core_cm4.h **** 
1626:C:/Users/Utente/Desktop/Tesi/Firmware_Software/DAVE project/S2GLP_Pulsed_Doppler/Libraries/CMSIS/Include\core_cm4.h **** #define NVIC_USER_IRQ_OFFSET          16
1627:C:/Users/Utente/Desktop/Tesi/Firmware_Software/DAVE project/S2GLP_Pulsed_Doppler/Libraries/CMSIS/Include\core_cm4.h **** 
1628:C:/Users/Utente/Desktop/Tesi/Firmware_Software/DAVE project/S2GLP_Pulsed_Doppler/Libraries/CMSIS/Include\core_cm4.h **** 
1629:C:/Users/Utente/Desktop/Tesi/Firmware_Software/DAVE project/S2GLP_Pulsed_Doppler/Libraries/CMSIS/Include\core_cm4.h **** 
1630:C:/Users/Utente/Desktop/Tesi/Firmware_Software/DAVE project/S2GLP_Pulsed_Doppler/Libraries/CMSIS/Include\core_cm4.h **** /**
1631:C:/Users/Utente/Desktop/Tesi/Firmware_Software/DAVE project/S2GLP_Pulsed_Doppler/Libraries/CMSIS/Include\core_cm4.h ****   \brief   Set Priority Grouping
1632:C:/Users/Utente/Desktop/Tesi/Firmware_Software/DAVE project/S2GLP_Pulsed_Doppler/Libraries/CMSIS/Include\core_cm4.h ****   \details Sets the priority grouping field using the required unlock sequence.
1633:C:/Users/Utente/Desktop/Tesi/Firmware_Software/DAVE project/S2GLP_Pulsed_Doppler/Libraries/CMSIS/Include\core_cm4.h ****            The parameter PriorityGroup is assigned to the field SCB->AIRCR [10:8] PRIGROUP field.
1634:C:/Users/Utente/Desktop/Tesi/Firmware_Software/DAVE project/S2GLP_Pulsed_Doppler/Libraries/CMSIS/Include\core_cm4.h ****            Only values from 0..7 are used.
1635:C:/Users/Utente/Desktop/Tesi/Firmware_Software/DAVE project/S2GLP_Pulsed_Doppler/Libraries/CMSIS/Include\core_cm4.h ****            In case of a conflict between priority grouping and available
1636:C:/Users/Utente/Desktop/Tesi/Firmware_Software/DAVE project/S2GLP_Pulsed_Doppler/Libraries/CMSIS/Include\core_cm4.h ****            priority bits (__NVIC_PRIO_BITS), the smallest possible priority group is set.
1637:C:/Users/Utente/Desktop/Tesi/Firmware_Software/DAVE project/S2GLP_Pulsed_Doppler/Libraries/CMSIS/Include\core_cm4.h ****   \param [in]      PriorityGroup  Priority grouping field.
1638:C:/Users/Utente/Desktop/Tesi/Firmware_Software/DAVE project/S2GLP_Pulsed_Doppler/Libraries/CMSIS/Include\core_cm4.h ****  */
1639:C:/Users/Utente/Desktop/Tesi/Firmware_Software/DAVE project/S2GLP_Pulsed_Doppler/Libraries/CMSIS/Include\core_cm4.h **** __STATIC_INLINE void __NVIC_SetPriorityGrouping(uint32_t PriorityGroup)
1640:C:/Users/Utente/Desktop/Tesi/Firmware_Software/DAVE project/S2GLP_Pulsed_Doppler/Libraries/CMSIS/Include\core_cm4.h **** {
1641:C:/Users/Utente/Desktop/Tesi/Firmware_Software/DAVE project/S2GLP_Pulsed_Doppler/Libraries/CMSIS/Include\core_cm4.h ****   uint32_t reg_value;
1642:C:/Users/Utente/Desktop/Tesi/Firmware_Software/DAVE project/S2GLP_Pulsed_Doppler/Libraries/CMSIS/Include\core_cm4.h ****   uint32_t PriorityGroupTmp = (PriorityGroup & (uint32_t)0x07UL);             /* only values 0..7 a
1643:C:/Users/Utente/Desktop/Tesi/Firmware_Software/DAVE project/S2GLP_Pulsed_Doppler/Libraries/CMSIS/Include\core_cm4.h **** 
1644:C:/Users/Utente/Desktop/Tesi/Firmware_Software/DAVE project/S2GLP_Pulsed_Doppler/Libraries/CMSIS/Include\core_cm4.h ****   reg_value  =  SCB->AIRCR;                                                   /* read old register 
1645:C:/Users/Utente/Desktop/Tesi/Firmware_Software/DAVE project/S2GLP_Pulsed_Doppler/Libraries/CMSIS/Include\core_cm4.h ****   reg_value &= ~((uint32_t)(SCB_AIRCR_VECTKEY_Msk | SCB_AIRCR_PRIGROUP_Msk)); /* clear bits to chan
1646:C:/Users/Utente/Desktop/Tesi/Firmware_Software/DAVE project/S2GLP_Pulsed_Doppler/Libraries/CMSIS/Include\core_cm4.h ****   reg_value  =  (reg_value                                   |
1647:C:/Users/Utente/Desktop/Tesi/Firmware_Software/DAVE project/S2GLP_Pulsed_Doppler/Libraries/CMSIS/Include\core_cm4.h ****                 ((uint32_t)0x5FAUL << SCB_AIRCR_VECTKEY_Pos) |
1648:C:/Users/Utente/Desktop/Tesi/Firmware_Software/DAVE project/S2GLP_Pulsed_Doppler/Libraries/CMSIS/Include\core_cm4.h ****                 (PriorityGroupTmp << 8U)                      );              /* Insert write key a
1649:C:/Users/Utente/Desktop/Tesi/Firmware_Software/DAVE project/S2GLP_Pulsed_Doppler/Libraries/CMSIS/Include\core_cm4.h ****   SCB->AIRCR =  reg_value;
1650:C:/Users/Utente/Desktop/Tesi/Firmware_Software/DAVE project/S2GLP_Pulsed_Doppler/Libraries/CMSIS/Include\core_cm4.h **** }
1651:C:/Users/Utente/Desktop/Tesi/Firmware_Software/DAVE project/S2GLP_Pulsed_Doppler/Libraries/CMSIS/Include\core_cm4.h **** 
1652:C:/Users/Utente/Desktop/Tesi/Firmware_Software/DAVE project/S2GLP_Pulsed_Doppler/Libraries/CMSIS/Include\core_cm4.h **** 
1653:C:/Users/Utente/Desktop/Tesi/Firmware_Software/DAVE project/S2GLP_Pulsed_Doppler/Libraries/CMSIS/Include\core_cm4.h **** /**
1654:C:/Users/Utente/Desktop/Tesi/Firmware_Software/DAVE project/S2GLP_Pulsed_Doppler/Libraries/CMSIS/Include\core_cm4.h ****   \brief   Get Priority Grouping
1655:C:/Users/Utente/Desktop/Tesi/Firmware_Software/DAVE project/S2GLP_Pulsed_Doppler/Libraries/CMSIS/Include\core_cm4.h ****   \details Reads the priority grouping field from the NVIC Interrupt Controller.
1656:C:/Users/Utente/Desktop/Tesi/Firmware_Software/DAVE project/S2GLP_Pulsed_Doppler/Libraries/CMSIS/Include\core_cm4.h ****   \return                Priority grouping field (SCB->AIRCR [10:8] PRIGROUP field).
1657:C:/Users/Utente/Desktop/Tesi/Firmware_Software/DAVE project/S2GLP_Pulsed_Doppler/Libraries/CMSIS/Include\core_cm4.h ****  */
1658:C:/Users/Utente/Desktop/Tesi/Firmware_Software/DAVE project/S2GLP_Pulsed_Doppler/Libraries/CMSIS/Include\core_cm4.h **** __STATIC_INLINE uint32_t __NVIC_GetPriorityGrouping(void)
1659:C:/Users/Utente/Desktop/Tesi/Firmware_Software/DAVE project/S2GLP_Pulsed_Doppler/Libraries/CMSIS/Include\core_cm4.h **** {
1660:C:/Users/Utente/Desktop/Tesi/Firmware_Software/DAVE project/S2GLP_Pulsed_Doppler/Libraries/CMSIS/Include\core_cm4.h ****   return ((uint32_t)((SCB->AIRCR & SCB_AIRCR_PRIGROUP_Msk) >> SCB_AIRCR_PRIGROUP_Pos));
1661:C:/Users/Utente/Desktop/Tesi/Firmware_Software/DAVE project/S2GLP_Pulsed_Doppler/Libraries/CMSIS/Include\core_cm4.h **** }
1662:C:/Users/Utente/Desktop/Tesi/Firmware_Software/DAVE project/S2GLP_Pulsed_Doppler/Libraries/CMSIS/Include\core_cm4.h **** 
1663:C:/Users/Utente/Desktop/Tesi/Firmware_Software/DAVE project/S2GLP_Pulsed_Doppler/Libraries/CMSIS/Include\core_cm4.h **** 
1664:C:/Users/Utente/Desktop/Tesi/Firmware_Software/DAVE project/S2GLP_Pulsed_Doppler/Libraries/CMSIS/Include\core_cm4.h **** /**
1665:C:/Users/Utente/Desktop/Tesi/Firmware_Software/DAVE project/S2GLP_Pulsed_Doppler/Libraries/CMSIS/Include\core_cm4.h ****   \brief   Enable Interrupt
1666:C:/Users/Utente/Desktop/Tesi/Firmware_Software/DAVE project/S2GLP_Pulsed_Doppler/Libraries/CMSIS/Include\core_cm4.h ****   \details Enables a device specific interrupt in the NVIC interrupt controller.
1667:C:/Users/Utente/Desktop/Tesi/Firmware_Software/DAVE project/S2GLP_Pulsed_Doppler/Libraries/CMSIS/Include\core_cm4.h ****   \param [in]      IRQn  Device specific interrupt number.
1668:C:/Users/Utente/Desktop/Tesi/Firmware_Software/DAVE project/S2GLP_Pulsed_Doppler/Libraries/CMSIS/Include\core_cm4.h ****   \note    IRQn must not be negative.
1669:C:/Users/Utente/Desktop/Tesi/Firmware_Software/DAVE project/S2GLP_Pulsed_Doppler/Libraries/CMSIS/Include\core_cm4.h ****  */
1670:C:/Users/Utente/Desktop/Tesi/Firmware_Software/DAVE project/S2GLP_Pulsed_Doppler/Libraries/CMSIS/Include\core_cm4.h **** __STATIC_INLINE void __NVIC_EnableIRQ(IRQn_Type IRQn)
1671:C:/Users/Utente/Desktop/Tesi/Firmware_Software/DAVE project/S2GLP_Pulsed_Doppler/Libraries/CMSIS/Include\core_cm4.h **** {
1672:C:/Users/Utente/Desktop/Tesi/Firmware_Software/DAVE project/S2GLP_Pulsed_Doppler/Libraries/CMSIS/Include\core_cm4.h ****   if ((int32_t)(IRQn) >= 0)
1673:C:/Users/Utente/Desktop/Tesi/Firmware_Software/DAVE project/S2GLP_Pulsed_Doppler/Libraries/CMSIS/Include\core_cm4.h ****   {
1674:C:/Users/Utente/Desktop/Tesi/Firmware_Software/DAVE project/S2GLP_Pulsed_Doppler/Libraries/CMSIS/Include\core_cm4.h ****     NVIC->ISER[(((uint32_t)(int32_t)IRQn) >> 5UL)] = (uint32_t)(1UL << (((uint32_t)(int32_t)IRQn) &
1675:C:/Users/Utente/Desktop/Tesi/Firmware_Software/DAVE project/S2GLP_Pulsed_Doppler/Libraries/CMSIS/Include\core_cm4.h ****   }
1676:C:/Users/Utente/Desktop/Tesi/Firmware_Software/DAVE project/S2GLP_Pulsed_Doppler/Libraries/CMSIS/Include\core_cm4.h **** }
1677:C:/Users/Utente/Desktop/Tesi/Firmware_Software/DAVE project/S2GLP_Pulsed_Doppler/Libraries/CMSIS/Include\core_cm4.h **** 
1678:C:/Users/Utente/Desktop/Tesi/Firmware_Software/DAVE project/S2GLP_Pulsed_Doppler/Libraries/CMSIS/Include\core_cm4.h **** 
1679:C:/Users/Utente/Desktop/Tesi/Firmware_Software/DAVE project/S2GLP_Pulsed_Doppler/Libraries/CMSIS/Include\core_cm4.h **** /**
1680:C:/Users/Utente/Desktop/Tesi/Firmware_Software/DAVE project/S2GLP_Pulsed_Doppler/Libraries/CMSIS/Include\core_cm4.h ****   \brief   Get Interrupt Enable status
1681:C:/Users/Utente/Desktop/Tesi/Firmware_Software/DAVE project/S2GLP_Pulsed_Doppler/Libraries/CMSIS/Include\core_cm4.h ****   \details Returns a device specific interrupt enable status from the NVIC interrupt controller.
1682:C:/Users/Utente/Desktop/Tesi/Firmware_Software/DAVE project/S2GLP_Pulsed_Doppler/Libraries/CMSIS/Include\core_cm4.h ****   \param [in]      IRQn  Device specific interrupt number.
1683:C:/Users/Utente/Desktop/Tesi/Firmware_Software/DAVE project/S2GLP_Pulsed_Doppler/Libraries/CMSIS/Include\core_cm4.h ****   \return             0  Interrupt is not enabled.
1684:C:/Users/Utente/Desktop/Tesi/Firmware_Software/DAVE project/S2GLP_Pulsed_Doppler/Libraries/CMSIS/Include\core_cm4.h ****   \return             1  Interrupt is enabled.
1685:C:/Users/Utente/Desktop/Tesi/Firmware_Software/DAVE project/S2GLP_Pulsed_Doppler/Libraries/CMSIS/Include\core_cm4.h ****   \note    IRQn must not be negative.
1686:C:/Users/Utente/Desktop/Tesi/Firmware_Software/DAVE project/S2GLP_Pulsed_Doppler/Libraries/CMSIS/Include\core_cm4.h ****  */
1687:C:/Users/Utente/Desktop/Tesi/Firmware_Software/DAVE project/S2GLP_Pulsed_Doppler/Libraries/CMSIS/Include\core_cm4.h **** __STATIC_INLINE uint32_t __NVIC_GetEnableIRQ(IRQn_Type IRQn)
1688:C:/Users/Utente/Desktop/Tesi/Firmware_Software/DAVE project/S2GLP_Pulsed_Doppler/Libraries/CMSIS/Include\core_cm4.h **** {
1689:C:/Users/Utente/Desktop/Tesi/Firmware_Software/DAVE project/S2GLP_Pulsed_Doppler/Libraries/CMSIS/Include\core_cm4.h ****   if ((int32_t)(IRQn) >= 0)
1690:C:/Users/Utente/Desktop/Tesi/Firmware_Software/DAVE project/S2GLP_Pulsed_Doppler/Libraries/CMSIS/Include\core_cm4.h ****   {
1691:C:/Users/Utente/Desktop/Tesi/Firmware_Software/DAVE project/S2GLP_Pulsed_Doppler/Libraries/CMSIS/Include\core_cm4.h ****     return((uint32_t)(((NVIC->ISER[(((uint32_t)(int32_t)IRQn) >> 5UL)] & (1UL << (((uint32_t)(int32
1692:C:/Users/Utente/Desktop/Tesi/Firmware_Software/DAVE project/S2GLP_Pulsed_Doppler/Libraries/CMSIS/Include\core_cm4.h ****   }
1693:C:/Users/Utente/Desktop/Tesi/Firmware_Software/DAVE project/S2GLP_Pulsed_Doppler/Libraries/CMSIS/Include\core_cm4.h ****   else
1694:C:/Users/Utente/Desktop/Tesi/Firmware_Software/DAVE project/S2GLP_Pulsed_Doppler/Libraries/CMSIS/Include\core_cm4.h ****   {
1695:C:/Users/Utente/Desktop/Tesi/Firmware_Software/DAVE project/S2GLP_Pulsed_Doppler/Libraries/CMSIS/Include\core_cm4.h ****     return(0U);
1696:C:/Users/Utente/Desktop/Tesi/Firmware_Software/DAVE project/S2GLP_Pulsed_Doppler/Libraries/CMSIS/Include\core_cm4.h ****   }
1697:C:/Users/Utente/Desktop/Tesi/Firmware_Software/DAVE project/S2GLP_Pulsed_Doppler/Libraries/CMSIS/Include\core_cm4.h **** }
1698:C:/Users/Utente/Desktop/Tesi/Firmware_Software/DAVE project/S2GLP_Pulsed_Doppler/Libraries/CMSIS/Include\core_cm4.h **** 
1699:C:/Users/Utente/Desktop/Tesi/Firmware_Software/DAVE project/S2GLP_Pulsed_Doppler/Libraries/CMSIS/Include\core_cm4.h **** 
1700:C:/Users/Utente/Desktop/Tesi/Firmware_Software/DAVE project/S2GLP_Pulsed_Doppler/Libraries/CMSIS/Include\core_cm4.h **** /**
1701:C:/Users/Utente/Desktop/Tesi/Firmware_Software/DAVE project/S2GLP_Pulsed_Doppler/Libraries/CMSIS/Include\core_cm4.h ****   \brief   Disable Interrupt
1702:C:/Users/Utente/Desktop/Tesi/Firmware_Software/DAVE project/S2GLP_Pulsed_Doppler/Libraries/CMSIS/Include\core_cm4.h ****   \details Disables a device specific interrupt in the NVIC interrupt controller.
1703:C:/Users/Utente/Desktop/Tesi/Firmware_Software/DAVE project/S2GLP_Pulsed_Doppler/Libraries/CMSIS/Include\core_cm4.h ****   \param [in]      IRQn  Device specific interrupt number.
1704:C:/Users/Utente/Desktop/Tesi/Firmware_Software/DAVE project/S2GLP_Pulsed_Doppler/Libraries/CMSIS/Include\core_cm4.h ****   \note    IRQn must not be negative.
1705:C:/Users/Utente/Desktop/Tesi/Firmware_Software/DAVE project/S2GLP_Pulsed_Doppler/Libraries/CMSIS/Include\core_cm4.h ****  */
1706:C:/Users/Utente/Desktop/Tesi/Firmware_Software/DAVE project/S2GLP_Pulsed_Doppler/Libraries/CMSIS/Include\core_cm4.h **** __STATIC_INLINE void __NVIC_DisableIRQ(IRQn_Type IRQn)
1707:C:/Users/Utente/Desktop/Tesi/Firmware_Software/DAVE project/S2GLP_Pulsed_Doppler/Libraries/CMSIS/Include\core_cm4.h **** {
1708:C:/Users/Utente/Desktop/Tesi/Firmware_Software/DAVE project/S2GLP_Pulsed_Doppler/Libraries/CMSIS/Include\core_cm4.h ****   if ((int32_t)(IRQn) >= 0)
1709:C:/Users/Utente/Desktop/Tesi/Firmware_Software/DAVE project/S2GLP_Pulsed_Doppler/Libraries/CMSIS/Include\core_cm4.h ****   {
1710:C:/Users/Utente/Desktop/Tesi/Firmware_Software/DAVE project/S2GLP_Pulsed_Doppler/Libraries/CMSIS/Include\core_cm4.h ****     NVIC->ICER[(((uint32_t)(int32_t)IRQn) >> 5UL)] = (uint32_t)(1UL << (((uint32_t)(int32_t)IRQn) &
1711:C:/Users/Utente/Desktop/Tesi/Firmware_Software/DAVE project/S2GLP_Pulsed_Doppler/Libraries/CMSIS/Include\core_cm4.h ****     __DSB();
1712:C:/Users/Utente/Desktop/Tesi/Firmware_Software/DAVE project/S2GLP_Pulsed_Doppler/Libraries/CMSIS/Include\core_cm4.h ****     __ISB();
1713:C:/Users/Utente/Desktop/Tesi/Firmware_Software/DAVE project/S2GLP_Pulsed_Doppler/Libraries/CMSIS/Include\core_cm4.h ****   }
1714:C:/Users/Utente/Desktop/Tesi/Firmware_Software/DAVE project/S2GLP_Pulsed_Doppler/Libraries/CMSIS/Include\core_cm4.h **** }
1715:C:/Users/Utente/Desktop/Tesi/Firmware_Software/DAVE project/S2GLP_Pulsed_Doppler/Libraries/CMSIS/Include\core_cm4.h **** 
1716:C:/Users/Utente/Desktop/Tesi/Firmware_Software/DAVE project/S2GLP_Pulsed_Doppler/Libraries/CMSIS/Include\core_cm4.h **** 
1717:C:/Users/Utente/Desktop/Tesi/Firmware_Software/DAVE project/S2GLP_Pulsed_Doppler/Libraries/CMSIS/Include\core_cm4.h **** /**
1718:C:/Users/Utente/Desktop/Tesi/Firmware_Software/DAVE project/S2GLP_Pulsed_Doppler/Libraries/CMSIS/Include\core_cm4.h ****   \brief   Get Pending Interrupt
1719:C:/Users/Utente/Desktop/Tesi/Firmware_Software/DAVE project/S2GLP_Pulsed_Doppler/Libraries/CMSIS/Include\core_cm4.h ****   \details Reads the NVIC pending register and returns the pending bit for the specified device spe
1720:C:/Users/Utente/Desktop/Tesi/Firmware_Software/DAVE project/S2GLP_Pulsed_Doppler/Libraries/CMSIS/Include\core_cm4.h ****   \param [in]      IRQn  Device specific interrupt number.
1721:C:/Users/Utente/Desktop/Tesi/Firmware_Software/DAVE project/S2GLP_Pulsed_Doppler/Libraries/CMSIS/Include\core_cm4.h ****   \return             0  Interrupt status is not pending.
1722:C:/Users/Utente/Desktop/Tesi/Firmware_Software/DAVE project/S2GLP_Pulsed_Doppler/Libraries/CMSIS/Include\core_cm4.h ****   \return             1  Interrupt status is pending.
1723:C:/Users/Utente/Desktop/Tesi/Firmware_Software/DAVE project/S2GLP_Pulsed_Doppler/Libraries/CMSIS/Include\core_cm4.h ****   \note    IRQn must not be negative.
1724:C:/Users/Utente/Desktop/Tesi/Firmware_Software/DAVE project/S2GLP_Pulsed_Doppler/Libraries/CMSIS/Include\core_cm4.h ****  */
1725:C:/Users/Utente/Desktop/Tesi/Firmware_Software/DAVE project/S2GLP_Pulsed_Doppler/Libraries/CMSIS/Include\core_cm4.h **** __STATIC_INLINE uint32_t __NVIC_GetPendingIRQ(IRQn_Type IRQn)
1726:C:/Users/Utente/Desktop/Tesi/Firmware_Software/DAVE project/S2GLP_Pulsed_Doppler/Libraries/CMSIS/Include\core_cm4.h **** {
1727:C:/Users/Utente/Desktop/Tesi/Firmware_Software/DAVE project/S2GLP_Pulsed_Doppler/Libraries/CMSIS/Include\core_cm4.h ****   if ((int32_t)(IRQn) >= 0)
1728:C:/Users/Utente/Desktop/Tesi/Firmware_Software/DAVE project/S2GLP_Pulsed_Doppler/Libraries/CMSIS/Include\core_cm4.h ****   {
1729:C:/Users/Utente/Desktop/Tesi/Firmware_Software/DAVE project/S2GLP_Pulsed_Doppler/Libraries/CMSIS/Include\core_cm4.h ****     return((uint32_t)(((NVIC->ISPR[(((uint32_t)(int32_t)IRQn) >> 5UL)] & (1UL << (((uint32_t)(int32
1730:C:/Users/Utente/Desktop/Tesi/Firmware_Software/DAVE project/S2GLP_Pulsed_Doppler/Libraries/CMSIS/Include\core_cm4.h ****   }
1731:C:/Users/Utente/Desktop/Tesi/Firmware_Software/DAVE project/S2GLP_Pulsed_Doppler/Libraries/CMSIS/Include\core_cm4.h ****   else
1732:C:/Users/Utente/Desktop/Tesi/Firmware_Software/DAVE project/S2GLP_Pulsed_Doppler/Libraries/CMSIS/Include\core_cm4.h ****   {
1733:C:/Users/Utente/Desktop/Tesi/Firmware_Software/DAVE project/S2GLP_Pulsed_Doppler/Libraries/CMSIS/Include\core_cm4.h ****     return(0U);
1734:C:/Users/Utente/Desktop/Tesi/Firmware_Software/DAVE project/S2GLP_Pulsed_Doppler/Libraries/CMSIS/Include\core_cm4.h ****   }
1735:C:/Users/Utente/Desktop/Tesi/Firmware_Software/DAVE project/S2GLP_Pulsed_Doppler/Libraries/CMSIS/Include\core_cm4.h **** }
1736:C:/Users/Utente/Desktop/Tesi/Firmware_Software/DAVE project/S2GLP_Pulsed_Doppler/Libraries/CMSIS/Include\core_cm4.h **** 
1737:C:/Users/Utente/Desktop/Tesi/Firmware_Software/DAVE project/S2GLP_Pulsed_Doppler/Libraries/CMSIS/Include\core_cm4.h **** 
1738:C:/Users/Utente/Desktop/Tesi/Firmware_Software/DAVE project/S2GLP_Pulsed_Doppler/Libraries/CMSIS/Include\core_cm4.h **** /**
1739:C:/Users/Utente/Desktop/Tesi/Firmware_Software/DAVE project/S2GLP_Pulsed_Doppler/Libraries/CMSIS/Include\core_cm4.h ****   \brief   Set Pending Interrupt
1740:C:/Users/Utente/Desktop/Tesi/Firmware_Software/DAVE project/S2GLP_Pulsed_Doppler/Libraries/CMSIS/Include\core_cm4.h ****   \details Sets the pending bit of a device specific interrupt in the NVIC pending register.
1741:C:/Users/Utente/Desktop/Tesi/Firmware_Software/DAVE project/S2GLP_Pulsed_Doppler/Libraries/CMSIS/Include\core_cm4.h ****   \param [in]      IRQn  Device specific interrupt number.
1742:C:/Users/Utente/Desktop/Tesi/Firmware_Software/DAVE project/S2GLP_Pulsed_Doppler/Libraries/CMSIS/Include\core_cm4.h ****   \note    IRQn must not be negative.
1743:C:/Users/Utente/Desktop/Tesi/Firmware_Software/DAVE project/S2GLP_Pulsed_Doppler/Libraries/CMSIS/Include\core_cm4.h ****  */
1744:C:/Users/Utente/Desktop/Tesi/Firmware_Software/DAVE project/S2GLP_Pulsed_Doppler/Libraries/CMSIS/Include\core_cm4.h **** __STATIC_INLINE void __NVIC_SetPendingIRQ(IRQn_Type IRQn)
1745:C:/Users/Utente/Desktop/Tesi/Firmware_Software/DAVE project/S2GLP_Pulsed_Doppler/Libraries/CMSIS/Include\core_cm4.h **** {
1746:C:/Users/Utente/Desktop/Tesi/Firmware_Software/DAVE project/S2GLP_Pulsed_Doppler/Libraries/CMSIS/Include\core_cm4.h ****   if ((int32_t)(IRQn) >= 0)
1747:C:/Users/Utente/Desktop/Tesi/Firmware_Software/DAVE project/S2GLP_Pulsed_Doppler/Libraries/CMSIS/Include\core_cm4.h ****   {
1748:C:/Users/Utente/Desktop/Tesi/Firmware_Software/DAVE project/S2GLP_Pulsed_Doppler/Libraries/CMSIS/Include\core_cm4.h ****     NVIC->ISPR[(((uint32_t)(int32_t)IRQn) >> 5UL)] = (uint32_t)(1UL << (((uint32_t)(int32_t)IRQn) &
1749:C:/Users/Utente/Desktop/Tesi/Firmware_Software/DAVE project/S2GLP_Pulsed_Doppler/Libraries/CMSIS/Include\core_cm4.h ****   }
1750:C:/Users/Utente/Desktop/Tesi/Firmware_Software/DAVE project/S2GLP_Pulsed_Doppler/Libraries/CMSIS/Include\core_cm4.h **** }
1751:C:/Users/Utente/Desktop/Tesi/Firmware_Software/DAVE project/S2GLP_Pulsed_Doppler/Libraries/CMSIS/Include\core_cm4.h **** 
1752:C:/Users/Utente/Desktop/Tesi/Firmware_Software/DAVE project/S2GLP_Pulsed_Doppler/Libraries/CMSIS/Include\core_cm4.h **** 
1753:C:/Users/Utente/Desktop/Tesi/Firmware_Software/DAVE project/S2GLP_Pulsed_Doppler/Libraries/CMSIS/Include\core_cm4.h **** /**
1754:C:/Users/Utente/Desktop/Tesi/Firmware_Software/DAVE project/S2GLP_Pulsed_Doppler/Libraries/CMSIS/Include\core_cm4.h ****   \brief   Clear Pending Interrupt
1755:C:/Users/Utente/Desktop/Tesi/Firmware_Software/DAVE project/S2GLP_Pulsed_Doppler/Libraries/CMSIS/Include\core_cm4.h ****   \details Clears the pending bit of a device specific interrupt in the NVIC pending register.
1756:C:/Users/Utente/Desktop/Tesi/Firmware_Software/DAVE project/S2GLP_Pulsed_Doppler/Libraries/CMSIS/Include\core_cm4.h ****   \param [in]      IRQn  Device specific interrupt number.
1757:C:/Users/Utente/Desktop/Tesi/Firmware_Software/DAVE project/S2GLP_Pulsed_Doppler/Libraries/CMSIS/Include\core_cm4.h ****   \note    IRQn must not be negative.
1758:C:/Users/Utente/Desktop/Tesi/Firmware_Software/DAVE project/S2GLP_Pulsed_Doppler/Libraries/CMSIS/Include\core_cm4.h ****  */
1759:C:/Users/Utente/Desktop/Tesi/Firmware_Software/DAVE project/S2GLP_Pulsed_Doppler/Libraries/CMSIS/Include\core_cm4.h **** __STATIC_INLINE void __NVIC_ClearPendingIRQ(IRQn_Type IRQn)
1760:C:/Users/Utente/Desktop/Tesi/Firmware_Software/DAVE project/S2GLP_Pulsed_Doppler/Libraries/CMSIS/Include\core_cm4.h **** {
1761:C:/Users/Utente/Desktop/Tesi/Firmware_Software/DAVE project/S2GLP_Pulsed_Doppler/Libraries/CMSIS/Include\core_cm4.h ****   if ((int32_t)(IRQn) >= 0)
1762:C:/Users/Utente/Desktop/Tesi/Firmware_Software/DAVE project/S2GLP_Pulsed_Doppler/Libraries/CMSIS/Include\core_cm4.h ****   {
1763:C:/Users/Utente/Desktop/Tesi/Firmware_Software/DAVE project/S2GLP_Pulsed_Doppler/Libraries/CMSIS/Include\core_cm4.h ****     NVIC->ICPR[(((uint32_t)(int32_t)IRQn) >> 5UL)] = (uint32_t)(1UL << (((uint32_t)(int32_t)IRQn) &
 1596              	 .loc 2 1763 0
 1597 0082 224B     	 ldr r3,.L201+28
 1598 0084 4FF40062 	 mov r2,#2048
 1599 0088 C3F88C21 	 str r2,[r3,#396]
 1600              	.LVL119:
 1601              	.LBE137:
 1602              	.LBE136:
 1603              	.LBB138:
 1604              	.LBB139:
1710:C:/Users/Utente/Desktop/Tesi/Firmware_Software/DAVE project/S2GLP_Pulsed_Doppler/Libraries/CMSIS/Include\core_cm4.h ****     __DSB();
 1605              	 .loc 2 1710 0
 1606 008c C3F88C20 	 str r2,[r3,#140]
 1607              	.LBB140:
 1608              	.LBB141:
 1609              	 .file 3 "C:/Users/Utente/Desktop/Tesi/Firmware_Software/DAVE project/S2GLP_Pulsed_Doppler/Libraries/CMSIS/Include/cmsis_gcc.h"
   1:C:/Users/Utente/Desktop/Tesi/Firmware_Software/DAVE project/S2GLP_Pulsed_Doppler/Libraries/CMSIS/Include\cmsis_gcc.h **** /**************************************************************************//**
   2:C:/Users/Utente/Desktop/Tesi/Firmware_Software/DAVE project/S2GLP_Pulsed_Doppler/Libraries/CMSIS/Include\cmsis_gcc.h ****  * @file     cmsis_gcc.h
   3:C:/Users/Utente/Desktop/Tesi/Firmware_Software/DAVE project/S2GLP_Pulsed_Doppler/Libraries/CMSIS/Include\cmsis_gcc.h ****  * @brief    CMSIS compiler GCC header file
   4:C:/Users/Utente/Desktop/Tesi/Firmware_Software/DAVE project/S2GLP_Pulsed_Doppler/Libraries/CMSIS/Include\cmsis_gcc.h ****  * @version  V5.0.1
   5:C:/Users/Utente/Desktop/Tesi/Firmware_Software/DAVE project/S2GLP_Pulsed_Doppler/Libraries/CMSIS/Include\cmsis_gcc.h ****  * @date     02. February 2017
   6:C:/Users/Utente/Desktop/Tesi/Firmware_Software/DAVE project/S2GLP_Pulsed_Doppler/Libraries/CMSIS/Include\cmsis_gcc.h ****  ******************************************************************************/
   7:C:/Users/Utente/Desktop/Tesi/Firmware_Software/DAVE project/S2GLP_Pulsed_Doppler/Libraries/CMSIS/Include\cmsis_gcc.h **** /*
   8:C:/Users/Utente/Desktop/Tesi/Firmware_Software/DAVE project/S2GLP_Pulsed_Doppler/Libraries/CMSIS/Include\cmsis_gcc.h ****  * Copyright (c) 2009-2017 ARM Limited. All rights reserved.
   9:C:/Users/Utente/Desktop/Tesi/Firmware_Software/DAVE project/S2GLP_Pulsed_Doppler/Libraries/CMSIS/Include\cmsis_gcc.h ****  *
  10:C:/Users/Utente/Desktop/Tesi/Firmware_Software/DAVE project/S2GLP_Pulsed_Doppler/Libraries/CMSIS/Include\cmsis_gcc.h ****  * SPDX-License-Identifier: Apache-2.0
  11:C:/Users/Utente/Desktop/Tesi/Firmware_Software/DAVE project/S2GLP_Pulsed_Doppler/Libraries/CMSIS/Include\cmsis_gcc.h ****  *
  12:C:/Users/Utente/Desktop/Tesi/Firmware_Software/DAVE project/S2GLP_Pulsed_Doppler/Libraries/CMSIS/Include\cmsis_gcc.h ****  * Licensed under the Apache License, Version 2.0 (the License); you may
  13:C:/Users/Utente/Desktop/Tesi/Firmware_Software/DAVE project/S2GLP_Pulsed_Doppler/Libraries/CMSIS/Include\cmsis_gcc.h ****  * not use this file except in compliance with the License.
  14:C:/Users/Utente/Desktop/Tesi/Firmware_Software/DAVE project/S2GLP_Pulsed_Doppler/Libraries/CMSIS/Include\cmsis_gcc.h ****  * You may obtain a copy of the License at
  15:C:/Users/Utente/Desktop/Tesi/Firmware_Software/DAVE project/S2GLP_Pulsed_Doppler/Libraries/CMSIS/Include\cmsis_gcc.h ****  *
  16:C:/Users/Utente/Desktop/Tesi/Firmware_Software/DAVE project/S2GLP_Pulsed_Doppler/Libraries/CMSIS/Include\cmsis_gcc.h ****  * www.apache.org/licenses/LICENSE-2.0
  17:C:/Users/Utente/Desktop/Tesi/Firmware_Software/DAVE project/S2GLP_Pulsed_Doppler/Libraries/CMSIS/Include\cmsis_gcc.h ****  *
  18:C:/Users/Utente/Desktop/Tesi/Firmware_Software/DAVE project/S2GLP_Pulsed_Doppler/Libraries/CMSIS/Include\cmsis_gcc.h ****  * Unless required by applicable law or agreed to in writing, software
  19:C:/Users/Utente/Desktop/Tesi/Firmware_Software/DAVE project/S2GLP_Pulsed_Doppler/Libraries/CMSIS/Include\cmsis_gcc.h ****  * distributed under the License is distributed on an AS IS BASIS, WITHOUT
  20:C:/Users/Utente/Desktop/Tesi/Firmware_Software/DAVE project/S2GLP_Pulsed_Doppler/Libraries/CMSIS/Include\cmsis_gcc.h ****  * WARRANTIES OR CONDITIONS OF ANY KIND, either express or implied.
  21:C:/Users/Utente/Desktop/Tesi/Firmware_Software/DAVE project/S2GLP_Pulsed_Doppler/Libraries/CMSIS/Include\cmsis_gcc.h ****  * See the License for the specific language governing permissions and
  22:C:/Users/Utente/Desktop/Tesi/Firmware_Software/DAVE project/S2GLP_Pulsed_Doppler/Libraries/CMSIS/Include\cmsis_gcc.h ****  * limitations under the License.
  23:C:/Users/Utente/Desktop/Tesi/Firmware_Software/DAVE project/S2GLP_Pulsed_Doppler/Libraries/CMSIS/Include\cmsis_gcc.h ****  */
  24:C:/Users/Utente/Desktop/Tesi/Firmware_Software/DAVE project/S2GLP_Pulsed_Doppler/Libraries/CMSIS/Include\cmsis_gcc.h **** 
  25:C:/Users/Utente/Desktop/Tesi/Firmware_Software/DAVE project/S2GLP_Pulsed_Doppler/Libraries/CMSIS/Include\cmsis_gcc.h **** #ifndef __CMSIS_GCC_H
  26:C:/Users/Utente/Desktop/Tesi/Firmware_Software/DAVE project/S2GLP_Pulsed_Doppler/Libraries/CMSIS/Include\cmsis_gcc.h **** #define __CMSIS_GCC_H
  27:C:/Users/Utente/Desktop/Tesi/Firmware_Software/DAVE project/S2GLP_Pulsed_Doppler/Libraries/CMSIS/Include\cmsis_gcc.h **** 
  28:C:/Users/Utente/Desktop/Tesi/Firmware_Software/DAVE project/S2GLP_Pulsed_Doppler/Libraries/CMSIS/Include\cmsis_gcc.h **** /* ignore some GCC warnings */
  29:C:/Users/Utente/Desktop/Tesi/Firmware_Software/DAVE project/S2GLP_Pulsed_Doppler/Libraries/CMSIS/Include\cmsis_gcc.h **** #pragma GCC diagnostic push
  30:C:/Users/Utente/Desktop/Tesi/Firmware_Software/DAVE project/S2GLP_Pulsed_Doppler/Libraries/CMSIS/Include\cmsis_gcc.h **** #pragma GCC diagnostic ignored "-Wsign-conversion"
  31:C:/Users/Utente/Desktop/Tesi/Firmware_Software/DAVE project/S2GLP_Pulsed_Doppler/Libraries/CMSIS/Include\cmsis_gcc.h **** #pragma GCC diagnostic ignored "-Wconversion"
  32:C:/Users/Utente/Desktop/Tesi/Firmware_Software/DAVE project/S2GLP_Pulsed_Doppler/Libraries/CMSIS/Include\cmsis_gcc.h **** #pragma GCC diagnostic ignored "-Wunused-parameter"
  33:C:/Users/Utente/Desktop/Tesi/Firmware_Software/DAVE project/S2GLP_Pulsed_Doppler/Libraries/CMSIS/Include\cmsis_gcc.h **** 
  34:C:/Users/Utente/Desktop/Tesi/Firmware_Software/DAVE project/S2GLP_Pulsed_Doppler/Libraries/CMSIS/Include\cmsis_gcc.h **** /* CMSIS compiler specific defines */
  35:C:/Users/Utente/Desktop/Tesi/Firmware_Software/DAVE project/S2GLP_Pulsed_Doppler/Libraries/CMSIS/Include\cmsis_gcc.h **** #ifndef   __ASM
  36:C:/Users/Utente/Desktop/Tesi/Firmware_Software/DAVE project/S2GLP_Pulsed_Doppler/Libraries/CMSIS/Include\cmsis_gcc.h ****   #define __ASM                     __asm
  37:C:/Users/Utente/Desktop/Tesi/Firmware_Software/DAVE project/S2GLP_Pulsed_Doppler/Libraries/CMSIS/Include\cmsis_gcc.h **** #endif
  38:C:/Users/Utente/Desktop/Tesi/Firmware_Software/DAVE project/S2GLP_Pulsed_Doppler/Libraries/CMSIS/Include\cmsis_gcc.h **** #ifndef   __INLINE
  39:C:/Users/Utente/Desktop/Tesi/Firmware_Software/DAVE project/S2GLP_Pulsed_Doppler/Libraries/CMSIS/Include\cmsis_gcc.h ****   #define __INLINE                  inline
  40:C:/Users/Utente/Desktop/Tesi/Firmware_Software/DAVE project/S2GLP_Pulsed_Doppler/Libraries/CMSIS/Include\cmsis_gcc.h **** #endif
  41:C:/Users/Utente/Desktop/Tesi/Firmware_Software/DAVE project/S2GLP_Pulsed_Doppler/Libraries/CMSIS/Include\cmsis_gcc.h **** #ifndef   __STATIC_INLINE
  42:C:/Users/Utente/Desktop/Tesi/Firmware_Software/DAVE project/S2GLP_Pulsed_Doppler/Libraries/CMSIS/Include\cmsis_gcc.h ****   #define __STATIC_INLINE           static inline
  43:C:/Users/Utente/Desktop/Tesi/Firmware_Software/DAVE project/S2GLP_Pulsed_Doppler/Libraries/CMSIS/Include\cmsis_gcc.h **** #endif
  44:C:/Users/Utente/Desktop/Tesi/Firmware_Software/DAVE project/S2GLP_Pulsed_Doppler/Libraries/CMSIS/Include\cmsis_gcc.h **** #ifndef   __NO_RETURN
  45:C:/Users/Utente/Desktop/Tesi/Firmware_Software/DAVE project/S2GLP_Pulsed_Doppler/Libraries/CMSIS/Include\cmsis_gcc.h ****   #define __NO_RETURN               __attribute__((noreturn))
  46:C:/Users/Utente/Desktop/Tesi/Firmware_Software/DAVE project/S2GLP_Pulsed_Doppler/Libraries/CMSIS/Include\cmsis_gcc.h **** #endif
  47:C:/Users/Utente/Desktop/Tesi/Firmware_Software/DAVE project/S2GLP_Pulsed_Doppler/Libraries/CMSIS/Include\cmsis_gcc.h **** #ifndef   __USED
  48:C:/Users/Utente/Desktop/Tesi/Firmware_Software/DAVE project/S2GLP_Pulsed_Doppler/Libraries/CMSIS/Include\cmsis_gcc.h ****   #define __USED                    __attribute__((used))
  49:C:/Users/Utente/Desktop/Tesi/Firmware_Software/DAVE project/S2GLP_Pulsed_Doppler/Libraries/CMSIS/Include\cmsis_gcc.h **** #endif
  50:C:/Users/Utente/Desktop/Tesi/Firmware_Software/DAVE project/S2GLP_Pulsed_Doppler/Libraries/CMSIS/Include\cmsis_gcc.h **** #ifndef   __WEAK
  51:C:/Users/Utente/Desktop/Tesi/Firmware_Software/DAVE project/S2GLP_Pulsed_Doppler/Libraries/CMSIS/Include\cmsis_gcc.h ****   #define __WEAK                    __attribute__((weak))
  52:C:/Users/Utente/Desktop/Tesi/Firmware_Software/DAVE project/S2GLP_Pulsed_Doppler/Libraries/CMSIS/Include\cmsis_gcc.h **** #endif
  53:C:/Users/Utente/Desktop/Tesi/Firmware_Software/DAVE project/S2GLP_Pulsed_Doppler/Libraries/CMSIS/Include\cmsis_gcc.h **** #ifndef   __UNALIGNED_UINT32
  54:C:/Users/Utente/Desktop/Tesi/Firmware_Software/DAVE project/S2GLP_Pulsed_Doppler/Libraries/CMSIS/Include\cmsis_gcc.h **** #pragma GCC diagnostic push
  55:C:/Users/Utente/Desktop/Tesi/Firmware_Software/DAVE project/S2GLP_Pulsed_Doppler/Libraries/CMSIS/Include\cmsis_gcc.h **** #pragma GCC diagnostic ignored "-Wpacked"
  56:C:/Users/Utente/Desktop/Tesi/Firmware_Software/DAVE project/S2GLP_Pulsed_Doppler/Libraries/CMSIS/Include\cmsis_gcc.h **** #pragma GCC diagnostic ignored "-Wattributes"
  57:C:/Users/Utente/Desktop/Tesi/Firmware_Software/DAVE project/S2GLP_Pulsed_Doppler/Libraries/CMSIS/Include\cmsis_gcc.h ****   struct __attribute__((packed)) T_UINT32 { uint32_t v; };
  58:C:/Users/Utente/Desktop/Tesi/Firmware_Software/DAVE project/S2GLP_Pulsed_Doppler/Libraries/CMSIS/Include\cmsis_gcc.h **** #pragma GCC diagnostic pop
  59:C:/Users/Utente/Desktop/Tesi/Firmware_Software/DAVE project/S2GLP_Pulsed_Doppler/Libraries/CMSIS/Include\cmsis_gcc.h ****   #define __UNALIGNED_UINT32(x)     (((struct T_UINT32 *)(x))->v)
  60:C:/Users/Utente/Desktop/Tesi/Firmware_Software/DAVE project/S2GLP_Pulsed_Doppler/Libraries/CMSIS/Include\cmsis_gcc.h **** #endif
  61:C:/Users/Utente/Desktop/Tesi/Firmware_Software/DAVE project/S2GLP_Pulsed_Doppler/Libraries/CMSIS/Include\cmsis_gcc.h **** #ifndef   __ALIGNED
  62:C:/Users/Utente/Desktop/Tesi/Firmware_Software/DAVE project/S2GLP_Pulsed_Doppler/Libraries/CMSIS/Include\cmsis_gcc.h ****   #define __ALIGNED(x)              __attribute__((aligned(x)))
  63:C:/Users/Utente/Desktop/Tesi/Firmware_Software/DAVE project/S2GLP_Pulsed_Doppler/Libraries/CMSIS/Include\cmsis_gcc.h **** #endif
  64:C:/Users/Utente/Desktop/Tesi/Firmware_Software/DAVE project/S2GLP_Pulsed_Doppler/Libraries/CMSIS/Include\cmsis_gcc.h **** #ifndef   __PACKED
  65:C:/Users/Utente/Desktop/Tesi/Firmware_Software/DAVE project/S2GLP_Pulsed_Doppler/Libraries/CMSIS/Include\cmsis_gcc.h ****   #define __PACKED                  __attribute__((packed, aligned(1)))
  66:C:/Users/Utente/Desktop/Tesi/Firmware_Software/DAVE project/S2GLP_Pulsed_Doppler/Libraries/CMSIS/Include\cmsis_gcc.h **** #endif
  67:C:/Users/Utente/Desktop/Tesi/Firmware_Software/DAVE project/S2GLP_Pulsed_Doppler/Libraries/CMSIS/Include\cmsis_gcc.h **** #ifndef   __PACKED_STRUCT
  68:C:/Users/Utente/Desktop/Tesi/Firmware_Software/DAVE project/S2GLP_Pulsed_Doppler/Libraries/CMSIS/Include\cmsis_gcc.h ****   #define __PACKED_STRUCT           struct __attribute__((packed, aligned(1)))
  69:C:/Users/Utente/Desktop/Tesi/Firmware_Software/DAVE project/S2GLP_Pulsed_Doppler/Libraries/CMSIS/Include\cmsis_gcc.h **** #endif
  70:C:/Users/Utente/Desktop/Tesi/Firmware_Software/DAVE project/S2GLP_Pulsed_Doppler/Libraries/CMSIS/Include\cmsis_gcc.h **** 
  71:C:/Users/Utente/Desktop/Tesi/Firmware_Software/DAVE project/S2GLP_Pulsed_Doppler/Libraries/CMSIS/Include\cmsis_gcc.h **** 
  72:C:/Users/Utente/Desktop/Tesi/Firmware_Software/DAVE project/S2GLP_Pulsed_Doppler/Libraries/CMSIS/Include\cmsis_gcc.h **** /* ###########################  Core Function Access  ########################### */
  73:C:/Users/Utente/Desktop/Tesi/Firmware_Software/DAVE project/S2GLP_Pulsed_Doppler/Libraries/CMSIS/Include\cmsis_gcc.h **** /** \ingroup  CMSIS_Core_FunctionInterface
  74:C:/Users/Utente/Desktop/Tesi/Firmware_Software/DAVE project/S2GLP_Pulsed_Doppler/Libraries/CMSIS/Include\cmsis_gcc.h ****     \defgroup CMSIS_Core_RegAccFunctions CMSIS Core Register Access Functions
  75:C:/Users/Utente/Desktop/Tesi/Firmware_Software/DAVE project/S2GLP_Pulsed_Doppler/Libraries/CMSIS/Include\cmsis_gcc.h ****   @{
  76:C:/Users/Utente/Desktop/Tesi/Firmware_Software/DAVE project/S2GLP_Pulsed_Doppler/Libraries/CMSIS/Include\cmsis_gcc.h ****  */
  77:C:/Users/Utente/Desktop/Tesi/Firmware_Software/DAVE project/S2GLP_Pulsed_Doppler/Libraries/CMSIS/Include\cmsis_gcc.h **** 
  78:C:/Users/Utente/Desktop/Tesi/Firmware_Software/DAVE project/S2GLP_Pulsed_Doppler/Libraries/CMSIS/Include\cmsis_gcc.h **** /**
  79:C:/Users/Utente/Desktop/Tesi/Firmware_Software/DAVE project/S2GLP_Pulsed_Doppler/Libraries/CMSIS/Include\cmsis_gcc.h ****   \brief   Enable IRQ Interrupts
  80:C:/Users/Utente/Desktop/Tesi/Firmware_Software/DAVE project/S2GLP_Pulsed_Doppler/Libraries/CMSIS/Include\cmsis_gcc.h ****   \details Enables IRQ interrupts by clearing the I-bit in the CPSR.
  81:C:/Users/Utente/Desktop/Tesi/Firmware_Software/DAVE project/S2GLP_Pulsed_Doppler/Libraries/CMSIS/Include\cmsis_gcc.h ****            Can only be executed in Privileged modes.
  82:C:/Users/Utente/Desktop/Tesi/Firmware_Software/DAVE project/S2GLP_Pulsed_Doppler/Libraries/CMSIS/Include\cmsis_gcc.h ****  */
  83:C:/Users/Utente/Desktop/Tesi/Firmware_Software/DAVE project/S2GLP_Pulsed_Doppler/Libraries/CMSIS/Include\cmsis_gcc.h **** __attribute__((always_inline)) __STATIC_INLINE void __enable_irq(void)
  84:C:/Users/Utente/Desktop/Tesi/Firmware_Software/DAVE project/S2GLP_Pulsed_Doppler/Libraries/CMSIS/Include\cmsis_gcc.h **** {
  85:C:/Users/Utente/Desktop/Tesi/Firmware_Software/DAVE project/S2GLP_Pulsed_Doppler/Libraries/CMSIS/Include\cmsis_gcc.h ****   __ASM volatile ("cpsie i" : : : "memory");
  86:C:/Users/Utente/Desktop/Tesi/Firmware_Software/DAVE project/S2GLP_Pulsed_Doppler/Libraries/CMSIS/Include\cmsis_gcc.h **** }
  87:C:/Users/Utente/Desktop/Tesi/Firmware_Software/DAVE project/S2GLP_Pulsed_Doppler/Libraries/CMSIS/Include\cmsis_gcc.h **** 
  88:C:/Users/Utente/Desktop/Tesi/Firmware_Software/DAVE project/S2GLP_Pulsed_Doppler/Libraries/CMSIS/Include\cmsis_gcc.h **** 
  89:C:/Users/Utente/Desktop/Tesi/Firmware_Software/DAVE project/S2GLP_Pulsed_Doppler/Libraries/CMSIS/Include\cmsis_gcc.h **** /**
  90:C:/Users/Utente/Desktop/Tesi/Firmware_Software/DAVE project/S2GLP_Pulsed_Doppler/Libraries/CMSIS/Include\cmsis_gcc.h ****   \brief   Disable IRQ Interrupts
  91:C:/Users/Utente/Desktop/Tesi/Firmware_Software/DAVE project/S2GLP_Pulsed_Doppler/Libraries/CMSIS/Include\cmsis_gcc.h ****   \details Disables IRQ interrupts by setting the I-bit in the CPSR.
  92:C:/Users/Utente/Desktop/Tesi/Firmware_Software/DAVE project/S2GLP_Pulsed_Doppler/Libraries/CMSIS/Include\cmsis_gcc.h ****            Can only be executed in Privileged modes.
  93:C:/Users/Utente/Desktop/Tesi/Firmware_Software/DAVE project/S2GLP_Pulsed_Doppler/Libraries/CMSIS/Include\cmsis_gcc.h ****  */
  94:C:/Users/Utente/Desktop/Tesi/Firmware_Software/DAVE project/S2GLP_Pulsed_Doppler/Libraries/CMSIS/Include\cmsis_gcc.h **** __attribute__((always_inline)) __STATIC_INLINE void __disable_irq(void)
  95:C:/Users/Utente/Desktop/Tesi/Firmware_Software/DAVE project/S2GLP_Pulsed_Doppler/Libraries/CMSIS/Include\cmsis_gcc.h **** {
  96:C:/Users/Utente/Desktop/Tesi/Firmware_Software/DAVE project/S2GLP_Pulsed_Doppler/Libraries/CMSIS/Include\cmsis_gcc.h ****   __ASM volatile ("cpsid i" : : : "memory");
  97:C:/Users/Utente/Desktop/Tesi/Firmware_Software/DAVE project/S2GLP_Pulsed_Doppler/Libraries/CMSIS/Include\cmsis_gcc.h **** }
  98:C:/Users/Utente/Desktop/Tesi/Firmware_Software/DAVE project/S2GLP_Pulsed_Doppler/Libraries/CMSIS/Include\cmsis_gcc.h **** 
  99:C:/Users/Utente/Desktop/Tesi/Firmware_Software/DAVE project/S2GLP_Pulsed_Doppler/Libraries/CMSIS/Include\cmsis_gcc.h **** 
 100:C:/Users/Utente/Desktop/Tesi/Firmware_Software/DAVE project/S2GLP_Pulsed_Doppler/Libraries/CMSIS/Include\cmsis_gcc.h **** /**
 101:C:/Users/Utente/Desktop/Tesi/Firmware_Software/DAVE project/S2GLP_Pulsed_Doppler/Libraries/CMSIS/Include\cmsis_gcc.h ****   \brief   Get Control Register
 102:C:/Users/Utente/Desktop/Tesi/Firmware_Software/DAVE project/S2GLP_Pulsed_Doppler/Libraries/CMSIS/Include\cmsis_gcc.h ****   \details Returns the content of the Control Register.
 103:C:/Users/Utente/Desktop/Tesi/Firmware_Software/DAVE project/S2GLP_Pulsed_Doppler/Libraries/CMSIS/Include\cmsis_gcc.h ****   \return               Control Register value
 104:C:/Users/Utente/Desktop/Tesi/Firmware_Software/DAVE project/S2GLP_Pulsed_Doppler/Libraries/CMSIS/Include\cmsis_gcc.h ****  */
 105:C:/Users/Utente/Desktop/Tesi/Firmware_Software/DAVE project/S2GLP_Pulsed_Doppler/Libraries/CMSIS/Include\cmsis_gcc.h **** __attribute__((always_inline)) __STATIC_INLINE uint32_t __get_CONTROL(void)
 106:C:/Users/Utente/Desktop/Tesi/Firmware_Software/DAVE project/S2GLP_Pulsed_Doppler/Libraries/CMSIS/Include\cmsis_gcc.h **** {
 107:C:/Users/Utente/Desktop/Tesi/Firmware_Software/DAVE project/S2GLP_Pulsed_Doppler/Libraries/CMSIS/Include\cmsis_gcc.h ****   uint32_t result;
 108:C:/Users/Utente/Desktop/Tesi/Firmware_Software/DAVE project/S2GLP_Pulsed_Doppler/Libraries/CMSIS/Include\cmsis_gcc.h **** 
 109:C:/Users/Utente/Desktop/Tesi/Firmware_Software/DAVE project/S2GLP_Pulsed_Doppler/Libraries/CMSIS/Include\cmsis_gcc.h ****   __ASM volatile ("MRS %0, control" : "=r" (result) );
 110:C:/Users/Utente/Desktop/Tesi/Firmware_Software/DAVE project/S2GLP_Pulsed_Doppler/Libraries/CMSIS/Include\cmsis_gcc.h ****   return(result);
 111:C:/Users/Utente/Desktop/Tesi/Firmware_Software/DAVE project/S2GLP_Pulsed_Doppler/Libraries/CMSIS/Include\cmsis_gcc.h **** }
 112:C:/Users/Utente/Desktop/Tesi/Firmware_Software/DAVE project/S2GLP_Pulsed_Doppler/Libraries/CMSIS/Include\cmsis_gcc.h **** 
 113:C:/Users/Utente/Desktop/Tesi/Firmware_Software/DAVE project/S2GLP_Pulsed_Doppler/Libraries/CMSIS/Include\cmsis_gcc.h **** 
 114:C:/Users/Utente/Desktop/Tesi/Firmware_Software/DAVE project/S2GLP_Pulsed_Doppler/Libraries/CMSIS/Include\cmsis_gcc.h **** #if (defined (__ARM_FEATURE_CMSE ) && (__ARM_FEATURE_CMSE == 3))
 115:C:/Users/Utente/Desktop/Tesi/Firmware_Software/DAVE project/S2GLP_Pulsed_Doppler/Libraries/CMSIS/Include\cmsis_gcc.h **** /**
 116:C:/Users/Utente/Desktop/Tesi/Firmware_Software/DAVE project/S2GLP_Pulsed_Doppler/Libraries/CMSIS/Include\cmsis_gcc.h ****   \brief   Get Control Register (non-secure)
 117:C:/Users/Utente/Desktop/Tesi/Firmware_Software/DAVE project/S2GLP_Pulsed_Doppler/Libraries/CMSIS/Include\cmsis_gcc.h ****   \details Returns the content of the non-secure Control Register when in secure mode.
 118:C:/Users/Utente/Desktop/Tesi/Firmware_Software/DAVE project/S2GLP_Pulsed_Doppler/Libraries/CMSIS/Include\cmsis_gcc.h ****   \return               non-secure Control Register value
 119:C:/Users/Utente/Desktop/Tesi/Firmware_Software/DAVE project/S2GLP_Pulsed_Doppler/Libraries/CMSIS/Include\cmsis_gcc.h ****  */
 120:C:/Users/Utente/Desktop/Tesi/Firmware_Software/DAVE project/S2GLP_Pulsed_Doppler/Libraries/CMSIS/Include\cmsis_gcc.h **** __attribute__((always_inline)) __STATIC_INLINE uint32_t __TZ_get_CONTROL_NS(void)
 121:C:/Users/Utente/Desktop/Tesi/Firmware_Software/DAVE project/S2GLP_Pulsed_Doppler/Libraries/CMSIS/Include\cmsis_gcc.h **** {
 122:C:/Users/Utente/Desktop/Tesi/Firmware_Software/DAVE project/S2GLP_Pulsed_Doppler/Libraries/CMSIS/Include\cmsis_gcc.h ****   uint32_t result;
 123:C:/Users/Utente/Desktop/Tesi/Firmware_Software/DAVE project/S2GLP_Pulsed_Doppler/Libraries/CMSIS/Include\cmsis_gcc.h **** 
 124:C:/Users/Utente/Desktop/Tesi/Firmware_Software/DAVE project/S2GLP_Pulsed_Doppler/Libraries/CMSIS/Include\cmsis_gcc.h ****   __ASM volatile ("MRS %0, control_ns" : "=r" (result) );
 125:C:/Users/Utente/Desktop/Tesi/Firmware_Software/DAVE project/S2GLP_Pulsed_Doppler/Libraries/CMSIS/Include\cmsis_gcc.h ****   return(result);
 126:C:/Users/Utente/Desktop/Tesi/Firmware_Software/DAVE project/S2GLP_Pulsed_Doppler/Libraries/CMSIS/Include\cmsis_gcc.h **** }
 127:C:/Users/Utente/Desktop/Tesi/Firmware_Software/DAVE project/S2GLP_Pulsed_Doppler/Libraries/CMSIS/Include\cmsis_gcc.h **** #endif
 128:C:/Users/Utente/Desktop/Tesi/Firmware_Software/DAVE project/S2GLP_Pulsed_Doppler/Libraries/CMSIS/Include\cmsis_gcc.h **** 
 129:C:/Users/Utente/Desktop/Tesi/Firmware_Software/DAVE project/S2GLP_Pulsed_Doppler/Libraries/CMSIS/Include\cmsis_gcc.h **** 
 130:C:/Users/Utente/Desktop/Tesi/Firmware_Software/DAVE project/S2GLP_Pulsed_Doppler/Libraries/CMSIS/Include\cmsis_gcc.h **** /**
 131:C:/Users/Utente/Desktop/Tesi/Firmware_Software/DAVE project/S2GLP_Pulsed_Doppler/Libraries/CMSIS/Include\cmsis_gcc.h ****   \brief   Set Control Register
 132:C:/Users/Utente/Desktop/Tesi/Firmware_Software/DAVE project/S2GLP_Pulsed_Doppler/Libraries/CMSIS/Include\cmsis_gcc.h ****   \details Writes the given value to the Control Register.
 133:C:/Users/Utente/Desktop/Tesi/Firmware_Software/DAVE project/S2GLP_Pulsed_Doppler/Libraries/CMSIS/Include\cmsis_gcc.h ****   \param [in]    control  Control Register value to set
 134:C:/Users/Utente/Desktop/Tesi/Firmware_Software/DAVE project/S2GLP_Pulsed_Doppler/Libraries/CMSIS/Include\cmsis_gcc.h ****  */
 135:C:/Users/Utente/Desktop/Tesi/Firmware_Software/DAVE project/S2GLP_Pulsed_Doppler/Libraries/CMSIS/Include\cmsis_gcc.h **** __attribute__((always_inline)) __STATIC_INLINE void __set_CONTROL(uint32_t control)
 136:C:/Users/Utente/Desktop/Tesi/Firmware_Software/DAVE project/S2GLP_Pulsed_Doppler/Libraries/CMSIS/Include\cmsis_gcc.h **** {
 137:C:/Users/Utente/Desktop/Tesi/Firmware_Software/DAVE project/S2GLP_Pulsed_Doppler/Libraries/CMSIS/Include\cmsis_gcc.h ****   __ASM volatile ("MSR control, %0" : : "r" (control) : "memory");
 138:C:/Users/Utente/Desktop/Tesi/Firmware_Software/DAVE project/S2GLP_Pulsed_Doppler/Libraries/CMSIS/Include\cmsis_gcc.h **** }
 139:C:/Users/Utente/Desktop/Tesi/Firmware_Software/DAVE project/S2GLP_Pulsed_Doppler/Libraries/CMSIS/Include\cmsis_gcc.h **** 
 140:C:/Users/Utente/Desktop/Tesi/Firmware_Software/DAVE project/S2GLP_Pulsed_Doppler/Libraries/CMSIS/Include\cmsis_gcc.h **** 
 141:C:/Users/Utente/Desktop/Tesi/Firmware_Software/DAVE project/S2GLP_Pulsed_Doppler/Libraries/CMSIS/Include\cmsis_gcc.h **** #if (defined (__ARM_FEATURE_CMSE ) && (__ARM_FEATURE_CMSE == 3))
 142:C:/Users/Utente/Desktop/Tesi/Firmware_Software/DAVE project/S2GLP_Pulsed_Doppler/Libraries/CMSIS/Include\cmsis_gcc.h **** /**
 143:C:/Users/Utente/Desktop/Tesi/Firmware_Software/DAVE project/S2GLP_Pulsed_Doppler/Libraries/CMSIS/Include\cmsis_gcc.h ****   \brief   Set Control Register (non-secure)
 144:C:/Users/Utente/Desktop/Tesi/Firmware_Software/DAVE project/S2GLP_Pulsed_Doppler/Libraries/CMSIS/Include\cmsis_gcc.h ****   \details Writes the given value to the non-secure Control Register when in secure state.
 145:C:/Users/Utente/Desktop/Tesi/Firmware_Software/DAVE project/S2GLP_Pulsed_Doppler/Libraries/CMSIS/Include\cmsis_gcc.h ****   \param [in]    control  Control Register value to set
 146:C:/Users/Utente/Desktop/Tesi/Firmware_Software/DAVE project/S2GLP_Pulsed_Doppler/Libraries/CMSIS/Include\cmsis_gcc.h ****  */
 147:C:/Users/Utente/Desktop/Tesi/Firmware_Software/DAVE project/S2GLP_Pulsed_Doppler/Libraries/CMSIS/Include\cmsis_gcc.h **** __attribute__((always_inline)) __STATIC_INLINE void __TZ_set_CONTROL_NS(uint32_t control)
 148:C:/Users/Utente/Desktop/Tesi/Firmware_Software/DAVE project/S2GLP_Pulsed_Doppler/Libraries/CMSIS/Include\cmsis_gcc.h **** {
 149:C:/Users/Utente/Desktop/Tesi/Firmware_Software/DAVE project/S2GLP_Pulsed_Doppler/Libraries/CMSIS/Include\cmsis_gcc.h ****   __ASM volatile ("MSR control_ns, %0" : : "r" (control) : "memory");
 150:C:/Users/Utente/Desktop/Tesi/Firmware_Software/DAVE project/S2GLP_Pulsed_Doppler/Libraries/CMSIS/Include\cmsis_gcc.h **** }
 151:C:/Users/Utente/Desktop/Tesi/Firmware_Software/DAVE project/S2GLP_Pulsed_Doppler/Libraries/CMSIS/Include\cmsis_gcc.h **** #endif
 152:C:/Users/Utente/Desktop/Tesi/Firmware_Software/DAVE project/S2GLP_Pulsed_Doppler/Libraries/CMSIS/Include\cmsis_gcc.h **** 
 153:C:/Users/Utente/Desktop/Tesi/Firmware_Software/DAVE project/S2GLP_Pulsed_Doppler/Libraries/CMSIS/Include\cmsis_gcc.h **** 
 154:C:/Users/Utente/Desktop/Tesi/Firmware_Software/DAVE project/S2GLP_Pulsed_Doppler/Libraries/CMSIS/Include\cmsis_gcc.h **** /**
 155:C:/Users/Utente/Desktop/Tesi/Firmware_Software/DAVE project/S2GLP_Pulsed_Doppler/Libraries/CMSIS/Include\cmsis_gcc.h ****   \brief   Get IPSR Register
 156:C:/Users/Utente/Desktop/Tesi/Firmware_Software/DAVE project/S2GLP_Pulsed_Doppler/Libraries/CMSIS/Include\cmsis_gcc.h ****   \details Returns the content of the IPSR Register.
 157:C:/Users/Utente/Desktop/Tesi/Firmware_Software/DAVE project/S2GLP_Pulsed_Doppler/Libraries/CMSIS/Include\cmsis_gcc.h ****   \return               IPSR Register value
 158:C:/Users/Utente/Desktop/Tesi/Firmware_Software/DAVE project/S2GLP_Pulsed_Doppler/Libraries/CMSIS/Include\cmsis_gcc.h ****  */
 159:C:/Users/Utente/Desktop/Tesi/Firmware_Software/DAVE project/S2GLP_Pulsed_Doppler/Libraries/CMSIS/Include\cmsis_gcc.h **** __attribute__((always_inline)) __STATIC_INLINE uint32_t __get_IPSR(void)
 160:C:/Users/Utente/Desktop/Tesi/Firmware_Software/DAVE project/S2GLP_Pulsed_Doppler/Libraries/CMSIS/Include\cmsis_gcc.h **** {
 161:C:/Users/Utente/Desktop/Tesi/Firmware_Software/DAVE project/S2GLP_Pulsed_Doppler/Libraries/CMSIS/Include\cmsis_gcc.h ****   uint32_t result;
 162:C:/Users/Utente/Desktop/Tesi/Firmware_Software/DAVE project/S2GLP_Pulsed_Doppler/Libraries/CMSIS/Include\cmsis_gcc.h **** 
 163:C:/Users/Utente/Desktop/Tesi/Firmware_Software/DAVE project/S2GLP_Pulsed_Doppler/Libraries/CMSIS/Include\cmsis_gcc.h ****   __ASM volatile ("MRS %0, ipsr" : "=r" (result) );
 164:C:/Users/Utente/Desktop/Tesi/Firmware_Software/DAVE project/S2GLP_Pulsed_Doppler/Libraries/CMSIS/Include\cmsis_gcc.h ****   return(result);
 165:C:/Users/Utente/Desktop/Tesi/Firmware_Software/DAVE project/S2GLP_Pulsed_Doppler/Libraries/CMSIS/Include\cmsis_gcc.h **** }
 166:C:/Users/Utente/Desktop/Tesi/Firmware_Software/DAVE project/S2GLP_Pulsed_Doppler/Libraries/CMSIS/Include\cmsis_gcc.h **** 
 167:C:/Users/Utente/Desktop/Tesi/Firmware_Software/DAVE project/S2GLP_Pulsed_Doppler/Libraries/CMSIS/Include\cmsis_gcc.h **** 
 168:C:/Users/Utente/Desktop/Tesi/Firmware_Software/DAVE project/S2GLP_Pulsed_Doppler/Libraries/CMSIS/Include\cmsis_gcc.h **** /**
 169:C:/Users/Utente/Desktop/Tesi/Firmware_Software/DAVE project/S2GLP_Pulsed_Doppler/Libraries/CMSIS/Include\cmsis_gcc.h ****   \brief   Get APSR Register
 170:C:/Users/Utente/Desktop/Tesi/Firmware_Software/DAVE project/S2GLP_Pulsed_Doppler/Libraries/CMSIS/Include\cmsis_gcc.h ****   \details Returns the content of the APSR Register.
 171:C:/Users/Utente/Desktop/Tesi/Firmware_Software/DAVE project/S2GLP_Pulsed_Doppler/Libraries/CMSIS/Include\cmsis_gcc.h ****   \return               APSR Register value
 172:C:/Users/Utente/Desktop/Tesi/Firmware_Software/DAVE project/S2GLP_Pulsed_Doppler/Libraries/CMSIS/Include\cmsis_gcc.h ****  */
 173:C:/Users/Utente/Desktop/Tesi/Firmware_Software/DAVE project/S2GLP_Pulsed_Doppler/Libraries/CMSIS/Include\cmsis_gcc.h **** __attribute__((always_inline)) __STATIC_INLINE uint32_t __get_APSR(void)
 174:C:/Users/Utente/Desktop/Tesi/Firmware_Software/DAVE project/S2GLP_Pulsed_Doppler/Libraries/CMSIS/Include\cmsis_gcc.h **** {
 175:C:/Users/Utente/Desktop/Tesi/Firmware_Software/DAVE project/S2GLP_Pulsed_Doppler/Libraries/CMSIS/Include\cmsis_gcc.h ****   uint32_t result;
 176:C:/Users/Utente/Desktop/Tesi/Firmware_Software/DAVE project/S2GLP_Pulsed_Doppler/Libraries/CMSIS/Include\cmsis_gcc.h **** 
 177:C:/Users/Utente/Desktop/Tesi/Firmware_Software/DAVE project/S2GLP_Pulsed_Doppler/Libraries/CMSIS/Include\cmsis_gcc.h ****   __ASM volatile ("MRS %0, apsr" : "=r" (result) );
 178:C:/Users/Utente/Desktop/Tesi/Firmware_Software/DAVE project/S2GLP_Pulsed_Doppler/Libraries/CMSIS/Include\cmsis_gcc.h ****   return(result);
 179:C:/Users/Utente/Desktop/Tesi/Firmware_Software/DAVE project/S2GLP_Pulsed_Doppler/Libraries/CMSIS/Include\cmsis_gcc.h **** }
 180:C:/Users/Utente/Desktop/Tesi/Firmware_Software/DAVE project/S2GLP_Pulsed_Doppler/Libraries/CMSIS/Include\cmsis_gcc.h **** 
 181:C:/Users/Utente/Desktop/Tesi/Firmware_Software/DAVE project/S2GLP_Pulsed_Doppler/Libraries/CMSIS/Include\cmsis_gcc.h **** 
 182:C:/Users/Utente/Desktop/Tesi/Firmware_Software/DAVE project/S2GLP_Pulsed_Doppler/Libraries/CMSIS/Include\cmsis_gcc.h **** /**
 183:C:/Users/Utente/Desktop/Tesi/Firmware_Software/DAVE project/S2GLP_Pulsed_Doppler/Libraries/CMSIS/Include\cmsis_gcc.h ****   \brief   Get xPSR Register
 184:C:/Users/Utente/Desktop/Tesi/Firmware_Software/DAVE project/S2GLP_Pulsed_Doppler/Libraries/CMSIS/Include\cmsis_gcc.h ****   \details Returns the content of the xPSR Register.
 185:C:/Users/Utente/Desktop/Tesi/Firmware_Software/DAVE project/S2GLP_Pulsed_Doppler/Libraries/CMSIS/Include\cmsis_gcc.h ****   \return               xPSR Register value
 186:C:/Users/Utente/Desktop/Tesi/Firmware_Software/DAVE project/S2GLP_Pulsed_Doppler/Libraries/CMSIS/Include\cmsis_gcc.h ****  */
 187:C:/Users/Utente/Desktop/Tesi/Firmware_Software/DAVE project/S2GLP_Pulsed_Doppler/Libraries/CMSIS/Include\cmsis_gcc.h **** __attribute__((always_inline)) __STATIC_INLINE uint32_t __get_xPSR(void)
 188:C:/Users/Utente/Desktop/Tesi/Firmware_Software/DAVE project/S2GLP_Pulsed_Doppler/Libraries/CMSIS/Include\cmsis_gcc.h **** {
 189:C:/Users/Utente/Desktop/Tesi/Firmware_Software/DAVE project/S2GLP_Pulsed_Doppler/Libraries/CMSIS/Include\cmsis_gcc.h ****   uint32_t result;
 190:C:/Users/Utente/Desktop/Tesi/Firmware_Software/DAVE project/S2GLP_Pulsed_Doppler/Libraries/CMSIS/Include\cmsis_gcc.h **** 
 191:C:/Users/Utente/Desktop/Tesi/Firmware_Software/DAVE project/S2GLP_Pulsed_Doppler/Libraries/CMSIS/Include\cmsis_gcc.h ****   __ASM volatile ("MRS %0, xpsr" : "=r" (result) );
 192:C:/Users/Utente/Desktop/Tesi/Firmware_Software/DAVE project/S2GLP_Pulsed_Doppler/Libraries/CMSIS/Include\cmsis_gcc.h ****   return(result);
 193:C:/Users/Utente/Desktop/Tesi/Firmware_Software/DAVE project/S2GLP_Pulsed_Doppler/Libraries/CMSIS/Include\cmsis_gcc.h **** }
 194:C:/Users/Utente/Desktop/Tesi/Firmware_Software/DAVE project/S2GLP_Pulsed_Doppler/Libraries/CMSIS/Include\cmsis_gcc.h **** 
 195:C:/Users/Utente/Desktop/Tesi/Firmware_Software/DAVE project/S2GLP_Pulsed_Doppler/Libraries/CMSIS/Include\cmsis_gcc.h **** 
 196:C:/Users/Utente/Desktop/Tesi/Firmware_Software/DAVE project/S2GLP_Pulsed_Doppler/Libraries/CMSIS/Include\cmsis_gcc.h **** /**
 197:C:/Users/Utente/Desktop/Tesi/Firmware_Software/DAVE project/S2GLP_Pulsed_Doppler/Libraries/CMSIS/Include\cmsis_gcc.h ****   \brief   Get Process Stack Pointer
 198:C:/Users/Utente/Desktop/Tesi/Firmware_Software/DAVE project/S2GLP_Pulsed_Doppler/Libraries/CMSIS/Include\cmsis_gcc.h ****   \details Returns the current value of the Process Stack Pointer (PSP).
 199:C:/Users/Utente/Desktop/Tesi/Firmware_Software/DAVE project/S2GLP_Pulsed_Doppler/Libraries/CMSIS/Include\cmsis_gcc.h ****   \return               PSP Register value
 200:C:/Users/Utente/Desktop/Tesi/Firmware_Software/DAVE project/S2GLP_Pulsed_Doppler/Libraries/CMSIS/Include\cmsis_gcc.h ****  */
 201:C:/Users/Utente/Desktop/Tesi/Firmware_Software/DAVE project/S2GLP_Pulsed_Doppler/Libraries/CMSIS/Include\cmsis_gcc.h **** __attribute__((always_inline)) __STATIC_INLINE uint32_t __get_PSP(void)
 202:C:/Users/Utente/Desktop/Tesi/Firmware_Software/DAVE project/S2GLP_Pulsed_Doppler/Libraries/CMSIS/Include\cmsis_gcc.h **** {
 203:C:/Users/Utente/Desktop/Tesi/Firmware_Software/DAVE project/S2GLP_Pulsed_Doppler/Libraries/CMSIS/Include\cmsis_gcc.h ****   register uint32_t result;
 204:C:/Users/Utente/Desktop/Tesi/Firmware_Software/DAVE project/S2GLP_Pulsed_Doppler/Libraries/CMSIS/Include\cmsis_gcc.h **** 
 205:C:/Users/Utente/Desktop/Tesi/Firmware_Software/DAVE project/S2GLP_Pulsed_Doppler/Libraries/CMSIS/Include\cmsis_gcc.h ****   __ASM volatile ("MRS %0, psp"  : "=r" (result) );
 206:C:/Users/Utente/Desktop/Tesi/Firmware_Software/DAVE project/S2GLP_Pulsed_Doppler/Libraries/CMSIS/Include\cmsis_gcc.h ****   return(result);
 207:C:/Users/Utente/Desktop/Tesi/Firmware_Software/DAVE project/S2GLP_Pulsed_Doppler/Libraries/CMSIS/Include\cmsis_gcc.h **** }
 208:C:/Users/Utente/Desktop/Tesi/Firmware_Software/DAVE project/S2GLP_Pulsed_Doppler/Libraries/CMSIS/Include\cmsis_gcc.h **** 
 209:C:/Users/Utente/Desktop/Tesi/Firmware_Software/DAVE project/S2GLP_Pulsed_Doppler/Libraries/CMSIS/Include\cmsis_gcc.h **** 
 210:C:/Users/Utente/Desktop/Tesi/Firmware_Software/DAVE project/S2GLP_Pulsed_Doppler/Libraries/CMSIS/Include\cmsis_gcc.h **** #if (defined (__ARM_FEATURE_CMSE ) && (__ARM_FEATURE_CMSE == 3))
 211:C:/Users/Utente/Desktop/Tesi/Firmware_Software/DAVE project/S2GLP_Pulsed_Doppler/Libraries/CMSIS/Include\cmsis_gcc.h **** /**
 212:C:/Users/Utente/Desktop/Tesi/Firmware_Software/DAVE project/S2GLP_Pulsed_Doppler/Libraries/CMSIS/Include\cmsis_gcc.h ****   \brief   Get Process Stack Pointer (non-secure)
 213:C:/Users/Utente/Desktop/Tesi/Firmware_Software/DAVE project/S2GLP_Pulsed_Doppler/Libraries/CMSIS/Include\cmsis_gcc.h ****   \details Returns the current value of the non-secure Process Stack Pointer (PSP) when in secure s
 214:C:/Users/Utente/Desktop/Tesi/Firmware_Software/DAVE project/S2GLP_Pulsed_Doppler/Libraries/CMSIS/Include\cmsis_gcc.h ****   \return               PSP Register value
 215:C:/Users/Utente/Desktop/Tesi/Firmware_Software/DAVE project/S2GLP_Pulsed_Doppler/Libraries/CMSIS/Include\cmsis_gcc.h ****  */
 216:C:/Users/Utente/Desktop/Tesi/Firmware_Software/DAVE project/S2GLP_Pulsed_Doppler/Libraries/CMSIS/Include\cmsis_gcc.h **** __attribute__((always_inline)) __STATIC_INLINE uint32_t __TZ_get_PSP_NS(void)
 217:C:/Users/Utente/Desktop/Tesi/Firmware_Software/DAVE project/S2GLP_Pulsed_Doppler/Libraries/CMSIS/Include\cmsis_gcc.h **** {
 218:C:/Users/Utente/Desktop/Tesi/Firmware_Software/DAVE project/S2GLP_Pulsed_Doppler/Libraries/CMSIS/Include\cmsis_gcc.h ****   register uint32_t result;
 219:C:/Users/Utente/Desktop/Tesi/Firmware_Software/DAVE project/S2GLP_Pulsed_Doppler/Libraries/CMSIS/Include\cmsis_gcc.h **** 
 220:C:/Users/Utente/Desktop/Tesi/Firmware_Software/DAVE project/S2GLP_Pulsed_Doppler/Libraries/CMSIS/Include\cmsis_gcc.h ****   __ASM volatile ("MRS %0, psp_ns"  : "=r" (result) );
 221:C:/Users/Utente/Desktop/Tesi/Firmware_Software/DAVE project/S2GLP_Pulsed_Doppler/Libraries/CMSIS/Include\cmsis_gcc.h ****   return(result);
 222:C:/Users/Utente/Desktop/Tesi/Firmware_Software/DAVE project/S2GLP_Pulsed_Doppler/Libraries/CMSIS/Include\cmsis_gcc.h **** }
 223:C:/Users/Utente/Desktop/Tesi/Firmware_Software/DAVE project/S2GLP_Pulsed_Doppler/Libraries/CMSIS/Include\cmsis_gcc.h **** #endif
 224:C:/Users/Utente/Desktop/Tesi/Firmware_Software/DAVE project/S2GLP_Pulsed_Doppler/Libraries/CMSIS/Include\cmsis_gcc.h **** 
 225:C:/Users/Utente/Desktop/Tesi/Firmware_Software/DAVE project/S2GLP_Pulsed_Doppler/Libraries/CMSIS/Include\cmsis_gcc.h **** 
 226:C:/Users/Utente/Desktop/Tesi/Firmware_Software/DAVE project/S2GLP_Pulsed_Doppler/Libraries/CMSIS/Include\cmsis_gcc.h **** /**
 227:C:/Users/Utente/Desktop/Tesi/Firmware_Software/DAVE project/S2GLP_Pulsed_Doppler/Libraries/CMSIS/Include\cmsis_gcc.h ****   \brief   Set Process Stack Pointer
 228:C:/Users/Utente/Desktop/Tesi/Firmware_Software/DAVE project/S2GLP_Pulsed_Doppler/Libraries/CMSIS/Include\cmsis_gcc.h ****   \details Assigns the given value to the Process Stack Pointer (PSP).
 229:C:/Users/Utente/Desktop/Tesi/Firmware_Software/DAVE project/S2GLP_Pulsed_Doppler/Libraries/CMSIS/Include\cmsis_gcc.h ****   \param [in]    topOfProcStack  Process Stack Pointer value to set
 230:C:/Users/Utente/Desktop/Tesi/Firmware_Software/DAVE project/S2GLP_Pulsed_Doppler/Libraries/CMSIS/Include\cmsis_gcc.h ****  */
 231:C:/Users/Utente/Desktop/Tesi/Firmware_Software/DAVE project/S2GLP_Pulsed_Doppler/Libraries/CMSIS/Include\cmsis_gcc.h **** __attribute__((always_inline)) __STATIC_INLINE void __set_PSP(uint32_t topOfProcStack)
 232:C:/Users/Utente/Desktop/Tesi/Firmware_Software/DAVE project/S2GLP_Pulsed_Doppler/Libraries/CMSIS/Include\cmsis_gcc.h **** {
 233:C:/Users/Utente/Desktop/Tesi/Firmware_Software/DAVE project/S2GLP_Pulsed_Doppler/Libraries/CMSIS/Include\cmsis_gcc.h ****   __ASM volatile ("MSR psp, %0" : : "r" (topOfProcStack) : );
 234:C:/Users/Utente/Desktop/Tesi/Firmware_Software/DAVE project/S2GLP_Pulsed_Doppler/Libraries/CMSIS/Include\cmsis_gcc.h **** }
 235:C:/Users/Utente/Desktop/Tesi/Firmware_Software/DAVE project/S2GLP_Pulsed_Doppler/Libraries/CMSIS/Include\cmsis_gcc.h **** 
 236:C:/Users/Utente/Desktop/Tesi/Firmware_Software/DAVE project/S2GLP_Pulsed_Doppler/Libraries/CMSIS/Include\cmsis_gcc.h **** 
 237:C:/Users/Utente/Desktop/Tesi/Firmware_Software/DAVE project/S2GLP_Pulsed_Doppler/Libraries/CMSIS/Include\cmsis_gcc.h **** #if (defined (__ARM_FEATURE_CMSE ) && (__ARM_FEATURE_CMSE == 3))
 238:C:/Users/Utente/Desktop/Tesi/Firmware_Software/DAVE project/S2GLP_Pulsed_Doppler/Libraries/CMSIS/Include\cmsis_gcc.h **** /**
 239:C:/Users/Utente/Desktop/Tesi/Firmware_Software/DAVE project/S2GLP_Pulsed_Doppler/Libraries/CMSIS/Include\cmsis_gcc.h ****   \brief   Set Process Stack Pointer (non-secure)
 240:C:/Users/Utente/Desktop/Tesi/Firmware_Software/DAVE project/S2GLP_Pulsed_Doppler/Libraries/CMSIS/Include\cmsis_gcc.h ****   \details Assigns the given value to the non-secure Process Stack Pointer (PSP) when in secure sta
 241:C:/Users/Utente/Desktop/Tesi/Firmware_Software/DAVE project/S2GLP_Pulsed_Doppler/Libraries/CMSIS/Include\cmsis_gcc.h ****   \param [in]    topOfProcStack  Process Stack Pointer value to set
 242:C:/Users/Utente/Desktop/Tesi/Firmware_Software/DAVE project/S2GLP_Pulsed_Doppler/Libraries/CMSIS/Include\cmsis_gcc.h ****  */
 243:C:/Users/Utente/Desktop/Tesi/Firmware_Software/DAVE project/S2GLP_Pulsed_Doppler/Libraries/CMSIS/Include\cmsis_gcc.h **** __attribute__((always_inline)) __STATIC_INLINE void __TZ_set_PSP_NS(uint32_t topOfProcStack)
 244:C:/Users/Utente/Desktop/Tesi/Firmware_Software/DAVE project/S2GLP_Pulsed_Doppler/Libraries/CMSIS/Include\cmsis_gcc.h **** {
 245:C:/Users/Utente/Desktop/Tesi/Firmware_Software/DAVE project/S2GLP_Pulsed_Doppler/Libraries/CMSIS/Include\cmsis_gcc.h ****   __ASM volatile ("MSR psp_ns, %0" : : "r" (topOfProcStack) : );
 246:C:/Users/Utente/Desktop/Tesi/Firmware_Software/DAVE project/S2GLP_Pulsed_Doppler/Libraries/CMSIS/Include\cmsis_gcc.h **** }
 247:C:/Users/Utente/Desktop/Tesi/Firmware_Software/DAVE project/S2GLP_Pulsed_Doppler/Libraries/CMSIS/Include\cmsis_gcc.h **** #endif
 248:C:/Users/Utente/Desktop/Tesi/Firmware_Software/DAVE project/S2GLP_Pulsed_Doppler/Libraries/CMSIS/Include\cmsis_gcc.h **** 
 249:C:/Users/Utente/Desktop/Tesi/Firmware_Software/DAVE project/S2GLP_Pulsed_Doppler/Libraries/CMSIS/Include\cmsis_gcc.h **** 
 250:C:/Users/Utente/Desktop/Tesi/Firmware_Software/DAVE project/S2GLP_Pulsed_Doppler/Libraries/CMSIS/Include\cmsis_gcc.h **** /**
 251:C:/Users/Utente/Desktop/Tesi/Firmware_Software/DAVE project/S2GLP_Pulsed_Doppler/Libraries/CMSIS/Include\cmsis_gcc.h ****   \brief   Get Main Stack Pointer
 252:C:/Users/Utente/Desktop/Tesi/Firmware_Software/DAVE project/S2GLP_Pulsed_Doppler/Libraries/CMSIS/Include\cmsis_gcc.h ****   \details Returns the current value of the Main Stack Pointer (MSP).
 253:C:/Users/Utente/Desktop/Tesi/Firmware_Software/DAVE project/S2GLP_Pulsed_Doppler/Libraries/CMSIS/Include\cmsis_gcc.h ****   \return               MSP Register value
 254:C:/Users/Utente/Desktop/Tesi/Firmware_Software/DAVE project/S2GLP_Pulsed_Doppler/Libraries/CMSIS/Include\cmsis_gcc.h ****  */
 255:C:/Users/Utente/Desktop/Tesi/Firmware_Software/DAVE project/S2GLP_Pulsed_Doppler/Libraries/CMSIS/Include\cmsis_gcc.h **** __attribute__((always_inline)) __STATIC_INLINE uint32_t __get_MSP(void)
 256:C:/Users/Utente/Desktop/Tesi/Firmware_Software/DAVE project/S2GLP_Pulsed_Doppler/Libraries/CMSIS/Include\cmsis_gcc.h **** {
 257:C:/Users/Utente/Desktop/Tesi/Firmware_Software/DAVE project/S2GLP_Pulsed_Doppler/Libraries/CMSIS/Include\cmsis_gcc.h ****   register uint32_t result;
 258:C:/Users/Utente/Desktop/Tesi/Firmware_Software/DAVE project/S2GLP_Pulsed_Doppler/Libraries/CMSIS/Include\cmsis_gcc.h **** 
 259:C:/Users/Utente/Desktop/Tesi/Firmware_Software/DAVE project/S2GLP_Pulsed_Doppler/Libraries/CMSIS/Include\cmsis_gcc.h ****   __ASM volatile ("MRS %0, msp" : "=r" (result) );
 260:C:/Users/Utente/Desktop/Tesi/Firmware_Software/DAVE project/S2GLP_Pulsed_Doppler/Libraries/CMSIS/Include\cmsis_gcc.h ****   return(result);
 261:C:/Users/Utente/Desktop/Tesi/Firmware_Software/DAVE project/S2GLP_Pulsed_Doppler/Libraries/CMSIS/Include\cmsis_gcc.h **** }
 262:C:/Users/Utente/Desktop/Tesi/Firmware_Software/DAVE project/S2GLP_Pulsed_Doppler/Libraries/CMSIS/Include\cmsis_gcc.h **** 
 263:C:/Users/Utente/Desktop/Tesi/Firmware_Software/DAVE project/S2GLP_Pulsed_Doppler/Libraries/CMSIS/Include\cmsis_gcc.h **** 
 264:C:/Users/Utente/Desktop/Tesi/Firmware_Software/DAVE project/S2GLP_Pulsed_Doppler/Libraries/CMSIS/Include\cmsis_gcc.h **** #if (defined (__ARM_FEATURE_CMSE ) && (__ARM_FEATURE_CMSE == 3))
 265:C:/Users/Utente/Desktop/Tesi/Firmware_Software/DAVE project/S2GLP_Pulsed_Doppler/Libraries/CMSIS/Include\cmsis_gcc.h **** /**
 266:C:/Users/Utente/Desktop/Tesi/Firmware_Software/DAVE project/S2GLP_Pulsed_Doppler/Libraries/CMSIS/Include\cmsis_gcc.h ****   \brief   Get Main Stack Pointer (non-secure)
 267:C:/Users/Utente/Desktop/Tesi/Firmware_Software/DAVE project/S2GLP_Pulsed_Doppler/Libraries/CMSIS/Include\cmsis_gcc.h ****   \details Returns the current value of the non-secure Main Stack Pointer (MSP) when in secure stat
 268:C:/Users/Utente/Desktop/Tesi/Firmware_Software/DAVE project/S2GLP_Pulsed_Doppler/Libraries/CMSIS/Include\cmsis_gcc.h ****   \return               MSP Register value
 269:C:/Users/Utente/Desktop/Tesi/Firmware_Software/DAVE project/S2GLP_Pulsed_Doppler/Libraries/CMSIS/Include\cmsis_gcc.h ****  */
 270:C:/Users/Utente/Desktop/Tesi/Firmware_Software/DAVE project/S2GLP_Pulsed_Doppler/Libraries/CMSIS/Include\cmsis_gcc.h **** __attribute__((always_inline)) __STATIC_INLINE uint32_t __TZ_get_MSP_NS(void)
 271:C:/Users/Utente/Desktop/Tesi/Firmware_Software/DAVE project/S2GLP_Pulsed_Doppler/Libraries/CMSIS/Include\cmsis_gcc.h **** {
 272:C:/Users/Utente/Desktop/Tesi/Firmware_Software/DAVE project/S2GLP_Pulsed_Doppler/Libraries/CMSIS/Include\cmsis_gcc.h ****   register uint32_t result;
 273:C:/Users/Utente/Desktop/Tesi/Firmware_Software/DAVE project/S2GLP_Pulsed_Doppler/Libraries/CMSIS/Include\cmsis_gcc.h **** 
 274:C:/Users/Utente/Desktop/Tesi/Firmware_Software/DAVE project/S2GLP_Pulsed_Doppler/Libraries/CMSIS/Include\cmsis_gcc.h ****   __ASM volatile ("MRS %0, msp_ns" : "=r" (result) );
 275:C:/Users/Utente/Desktop/Tesi/Firmware_Software/DAVE project/S2GLP_Pulsed_Doppler/Libraries/CMSIS/Include\cmsis_gcc.h ****   return(result);
 276:C:/Users/Utente/Desktop/Tesi/Firmware_Software/DAVE project/S2GLP_Pulsed_Doppler/Libraries/CMSIS/Include\cmsis_gcc.h **** }
 277:C:/Users/Utente/Desktop/Tesi/Firmware_Software/DAVE project/S2GLP_Pulsed_Doppler/Libraries/CMSIS/Include\cmsis_gcc.h **** #endif
 278:C:/Users/Utente/Desktop/Tesi/Firmware_Software/DAVE project/S2GLP_Pulsed_Doppler/Libraries/CMSIS/Include\cmsis_gcc.h **** 
 279:C:/Users/Utente/Desktop/Tesi/Firmware_Software/DAVE project/S2GLP_Pulsed_Doppler/Libraries/CMSIS/Include\cmsis_gcc.h **** 
 280:C:/Users/Utente/Desktop/Tesi/Firmware_Software/DAVE project/S2GLP_Pulsed_Doppler/Libraries/CMSIS/Include\cmsis_gcc.h **** /**
 281:C:/Users/Utente/Desktop/Tesi/Firmware_Software/DAVE project/S2GLP_Pulsed_Doppler/Libraries/CMSIS/Include\cmsis_gcc.h ****   \brief   Set Main Stack Pointer
 282:C:/Users/Utente/Desktop/Tesi/Firmware_Software/DAVE project/S2GLP_Pulsed_Doppler/Libraries/CMSIS/Include\cmsis_gcc.h ****   \details Assigns the given value to the Main Stack Pointer (MSP).
 283:C:/Users/Utente/Desktop/Tesi/Firmware_Software/DAVE project/S2GLP_Pulsed_Doppler/Libraries/CMSIS/Include\cmsis_gcc.h ****   \param [in]    topOfMainStack  Main Stack Pointer value to set
 284:C:/Users/Utente/Desktop/Tesi/Firmware_Software/DAVE project/S2GLP_Pulsed_Doppler/Libraries/CMSIS/Include\cmsis_gcc.h ****  */
 285:C:/Users/Utente/Desktop/Tesi/Firmware_Software/DAVE project/S2GLP_Pulsed_Doppler/Libraries/CMSIS/Include\cmsis_gcc.h **** __attribute__((always_inline)) __STATIC_INLINE void __set_MSP(uint32_t topOfMainStack)
 286:C:/Users/Utente/Desktop/Tesi/Firmware_Software/DAVE project/S2GLP_Pulsed_Doppler/Libraries/CMSIS/Include\cmsis_gcc.h **** {
 287:C:/Users/Utente/Desktop/Tesi/Firmware_Software/DAVE project/S2GLP_Pulsed_Doppler/Libraries/CMSIS/Include\cmsis_gcc.h ****   __ASM volatile ("MSR msp, %0" : : "r" (topOfMainStack) : );
 288:C:/Users/Utente/Desktop/Tesi/Firmware_Software/DAVE project/S2GLP_Pulsed_Doppler/Libraries/CMSIS/Include\cmsis_gcc.h **** }
 289:C:/Users/Utente/Desktop/Tesi/Firmware_Software/DAVE project/S2GLP_Pulsed_Doppler/Libraries/CMSIS/Include\cmsis_gcc.h **** 
 290:C:/Users/Utente/Desktop/Tesi/Firmware_Software/DAVE project/S2GLP_Pulsed_Doppler/Libraries/CMSIS/Include\cmsis_gcc.h **** 
 291:C:/Users/Utente/Desktop/Tesi/Firmware_Software/DAVE project/S2GLP_Pulsed_Doppler/Libraries/CMSIS/Include\cmsis_gcc.h **** #if (defined (__ARM_FEATURE_CMSE ) && (__ARM_FEATURE_CMSE == 3))
 292:C:/Users/Utente/Desktop/Tesi/Firmware_Software/DAVE project/S2GLP_Pulsed_Doppler/Libraries/CMSIS/Include\cmsis_gcc.h **** /**
 293:C:/Users/Utente/Desktop/Tesi/Firmware_Software/DAVE project/S2GLP_Pulsed_Doppler/Libraries/CMSIS/Include\cmsis_gcc.h ****   \brief   Set Main Stack Pointer (non-secure)
 294:C:/Users/Utente/Desktop/Tesi/Firmware_Software/DAVE project/S2GLP_Pulsed_Doppler/Libraries/CMSIS/Include\cmsis_gcc.h ****   \details Assigns the given value to the non-secure Main Stack Pointer (MSP) when in secure state.
 295:C:/Users/Utente/Desktop/Tesi/Firmware_Software/DAVE project/S2GLP_Pulsed_Doppler/Libraries/CMSIS/Include\cmsis_gcc.h ****   \param [in]    topOfMainStack  Main Stack Pointer value to set
 296:C:/Users/Utente/Desktop/Tesi/Firmware_Software/DAVE project/S2GLP_Pulsed_Doppler/Libraries/CMSIS/Include\cmsis_gcc.h ****  */
 297:C:/Users/Utente/Desktop/Tesi/Firmware_Software/DAVE project/S2GLP_Pulsed_Doppler/Libraries/CMSIS/Include\cmsis_gcc.h **** __attribute__((always_inline)) __STATIC_INLINE void __TZ_set_MSP_NS(uint32_t topOfMainStack)
 298:C:/Users/Utente/Desktop/Tesi/Firmware_Software/DAVE project/S2GLP_Pulsed_Doppler/Libraries/CMSIS/Include\cmsis_gcc.h **** {
 299:C:/Users/Utente/Desktop/Tesi/Firmware_Software/DAVE project/S2GLP_Pulsed_Doppler/Libraries/CMSIS/Include\cmsis_gcc.h ****   __ASM volatile ("MSR msp_ns, %0" : : "r" (topOfMainStack) : );
 300:C:/Users/Utente/Desktop/Tesi/Firmware_Software/DAVE project/S2GLP_Pulsed_Doppler/Libraries/CMSIS/Include\cmsis_gcc.h **** }
 301:C:/Users/Utente/Desktop/Tesi/Firmware_Software/DAVE project/S2GLP_Pulsed_Doppler/Libraries/CMSIS/Include\cmsis_gcc.h **** #endif
 302:C:/Users/Utente/Desktop/Tesi/Firmware_Software/DAVE project/S2GLP_Pulsed_Doppler/Libraries/CMSIS/Include\cmsis_gcc.h **** 
 303:C:/Users/Utente/Desktop/Tesi/Firmware_Software/DAVE project/S2GLP_Pulsed_Doppler/Libraries/CMSIS/Include\cmsis_gcc.h **** 
 304:C:/Users/Utente/Desktop/Tesi/Firmware_Software/DAVE project/S2GLP_Pulsed_Doppler/Libraries/CMSIS/Include\cmsis_gcc.h **** /**
 305:C:/Users/Utente/Desktop/Tesi/Firmware_Software/DAVE project/S2GLP_Pulsed_Doppler/Libraries/CMSIS/Include\cmsis_gcc.h ****   \brief   Get Priority Mask
 306:C:/Users/Utente/Desktop/Tesi/Firmware_Software/DAVE project/S2GLP_Pulsed_Doppler/Libraries/CMSIS/Include\cmsis_gcc.h ****   \details Returns the current state of the priority mask bit from the Priority Mask Register.
 307:C:/Users/Utente/Desktop/Tesi/Firmware_Software/DAVE project/S2GLP_Pulsed_Doppler/Libraries/CMSIS/Include\cmsis_gcc.h ****   \return               Priority Mask value
 308:C:/Users/Utente/Desktop/Tesi/Firmware_Software/DAVE project/S2GLP_Pulsed_Doppler/Libraries/CMSIS/Include\cmsis_gcc.h ****  */
 309:C:/Users/Utente/Desktop/Tesi/Firmware_Software/DAVE project/S2GLP_Pulsed_Doppler/Libraries/CMSIS/Include\cmsis_gcc.h **** __attribute__((always_inline)) __STATIC_INLINE uint32_t __get_PRIMASK(void)
 310:C:/Users/Utente/Desktop/Tesi/Firmware_Software/DAVE project/S2GLP_Pulsed_Doppler/Libraries/CMSIS/Include\cmsis_gcc.h **** {
 311:C:/Users/Utente/Desktop/Tesi/Firmware_Software/DAVE project/S2GLP_Pulsed_Doppler/Libraries/CMSIS/Include\cmsis_gcc.h ****   uint32_t result;
 312:C:/Users/Utente/Desktop/Tesi/Firmware_Software/DAVE project/S2GLP_Pulsed_Doppler/Libraries/CMSIS/Include\cmsis_gcc.h **** 
 313:C:/Users/Utente/Desktop/Tesi/Firmware_Software/DAVE project/S2GLP_Pulsed_Doppler/Libraries/CMSIS/Include\cmsis_gcc.h ****   __ASM volatile ("MRS %0, primask" : "=r" (result) );
 314:C:/Users/Utente/Desktop/Tesi/Firmware_Software/DAVE project/S2GLP_Pulsed_Doppler/Libraries/CMSIS/Include\cmsis_gcc.h ****   return(result);
 315:C:/Users/Utente/Desktop/Tesi/Firmware_Software/DAVE project/S2GLP_Pulsed_Doppler/Libraries/CMSIS/Include\cmsis_gcc.h **** }
 316:C:/Users/Utente/Desktop/Tesi/Firmware_Software/DAVE project/S2GLP_Pulsed_Doppler/Libraries/CMSIS/Include\cmsis_gcc.h **** 
 317:C:/Users/Utente/Desktop/Tesi/Firmware_Software/DAVE project/S2GLP_Pulsed_Doppler/Libraries/CMSIS/Include\cmsis_gcc.h **** 
 318:C:/Users/Utente/Desktop/Tesi/Firmware_Software/DAVE project/S2GLP_Pulsed_Doppler/Libraries/CMSIS/Include\cmsis_gcc.h **** #if (defined (__ARM_FEATURE_CMSE ) && (__ARM_FEATURE_CMSE == 3))
 319:C:/Users/Utente/Desktop/Tesi/Firmware_Software/DAVE project/S2GLP_Pulsed_Doppler/Libraries/CMSIS/Include\cmsis_gcc.h **** /**
 320:C:/Users/Utente/Desktop/Tesi/Firmware_Software/DAVE project/S2GLP_Pulsed_Doppler/Libraries/CMSIS/Include\cmsis_gcc.h ****   \brief   Get Priority Mask (non-secure)
 321:C:/Users/Utente/Desktop/Tesi/Firmware_Software/DAVE project/S2GLP_Pulsed_Doppler/Libraries/CMSIS/Include\cmsis_gcc.h ****   \details Returns the current state of the non-secure priority mask bit from the Priority Mask Reg
 322:C:/Users/Utente/Desktop/Tesi/Firmware_Software/DAVE project/S2GLP_Pulsed_Doppler/Libraries/CMSIS/Include\cmsis_gcc.h ****   \return               Priority Mask value
 323:C:/Users/Utente/Desktop/Tesi/Firmware_Software/DAVE project/S2GLP_Pulsed_Doppler/Libraries/CMSIS/Include\cmsis_gcc.h ****  */
 324:C:/Users/Utente/Desktop/Tesi/Firmware_Software/DAVE project/S2GLP_Pulsed_Doppler/Libraries/CMSIS/Include\cmsis_gcc.h **** __attribute__((always_inline)) __STATIC_INLINE uint32_t __TZ_get_PRIMASK_NS(void)
 325:C:/Users/Utente/Desktop/Tesi/Firmware_Software/DAVE project/S2GLP_Pulsed_Doppler/Libraries/CMSIS/Include\cmsis_gcc.h **** {
 326:C:/Users/Utente/Desktop/Tesi/Firmware_Software/DAVE project/S2GLP_Pulsed_Doppler/Libraries/CMSIS/Include\cmsis_gcc.h ****   uint32_t result;
 327:C:/Users/Utente/Desktop/Tesi/Firmware_Software/DAVE project/S2GLP_Pulsed_Doppler/Libraries/CMSIS/Include\cmsis_gcc.h **** 
 328:C:/Users/Utente/Desktop/Tesi/Firmware_Software/DAVE project/S2GLP_Pulsed_Doppler/Libraries/CMSIS/Include\cmsis_gcc.h ****   __ASM volatile ("MRS %0, primask_ns" : "=r" (result) );
 329:C:/Users/Utente/Desktop/Tesi/Firmware_Software/DAVE project/S2GLP_Pulsed_Doppler/Libraries/CMSIS/Include\cmsis_gcc.h ****   return(result);
 330:C:/Users/Utente/Desktop/Tesi/Firmware_Software/DAVE project/S2GLP_Pulsed_Doppler/Libraries/CMSIS/Include\cmsis_gcc.h **** }
 331:C:/Users/Utente/Desktop/Tesi/Firmware_Software/DAVE project/S2GLP_Pulsed_Doppler/Libraries/CMSIS/Include\cmsis_gcc.h **** #endif
 332:C:/Users/Utente/Desktop/Tesi/Firmware_Software/DAVE project/S2GLP_Pulsed_Doppler/Libraries/CMSIS/Include\cmsis_gcc.h **** 
 333:C:/Users/Utente/Desktop/Tesi/Firmware_Software/DAVE project/S2GLP_Pulsed_Doppler/Libraries/CMSIS/Include\cmsis_gcc.h **** 
 334:C:/Users/Utente/Desktop/Tesi/Firmware_Software/DAVE project/S2GLP_Pulsed_Doppler/Libraries/CMSIS/Include\cmsis_gcc.h **** /**
 335:C:/Users/Utente/Desktop/Tesi/Firmware_Software/DAVE project/S2GLP_Pulsed_Doppler/Libraries/CMSIS/Include\cmsis_gcc.h ****   \brief   Set Priority Mask
 336:C:/Users/Utente/Desktop/Tesi/Firmware_Software/DAVE project/S2GLP_Pulsed_Doppler/Libraries/CMSIS/Include\cmsis_gcc.h ****   \details Assigns the given value to the Priority Mask Register.
 337:C:/Users/Utente/Desktop/Tesi/Firmware_Software/DAVE project/S2GLP_Pulsed_Doppler/Libraries/CMSIS/Include\cmsis_gcc.h ****   \param [in]    priMask  Priority Mask
 338:C:/Users/Utente/Desktop/Tesi/Firmware_Software/DAVE project/S2GLP_Pulsed_Doppler/Libraries/CMSIS/Include\cmsis_gcc.h ****  */
 339:C:/Users/Utente/Desktop/Tesi/Firmware_Software/DAVE project/S2GLP_Pulsed_Doppler/Libraries/CMSIS/Include\cmsis_gcc.h **** __attribute__((always_inline)) __STATIC_INLINE void __set_PRIMASK(uint32_t priMask)
 340:C:/Users/Utente/Desktop/Tesi/Firmware_Software/DAVE project/S2GLP_Pulsed_Doppler/Libraries/CMSIS/Include\cmsis_gcc.h **** {
 341:C:/Users/Utente/Desktop/Tesi/Firmware_Software/DAVE project/S2GLP_Pulsed_Doppler/Libraries/CMSIS/Include\cmsis_gcc.h ****   __ASM volatile ("MSR primask, %0" : : "r" (priMask) : "memory");
 342:C:/Users/Utente/Desktop/Tesi/Firmware_Software/DAVE project/S2GLP_Pulsed_Doppler/Libraries/CMSIS/Include\cmsis_gcc.h **** }
 343:C:/Users/Utente/Desktop/Tesi/Firmware_Software/DAVE project/S2GLP_Pulsed_Doppler/Libraries/CMSIS/Include\cmsis_gcc.h **** 
 344:C:/Users/Utente/Desktop/Tesi/Firmware_Software/DAVE project/S2GLP_Pulsed_Doppler/Libraries/CMSIS/Include\cmsis_gcc.h **** 
 345:C:/Users/Utente/Desktop/Tesi/Firmware_Software/DAVE project/S2GLP_Pulsed_Doppler/Libraries/CMSIS/Include\cmsis_gcc.h **** #if (defined (__ARM_FEATURE_CMSE ) && (__ARM_FEATURE_CMSE == 3))
 346:C:/Users/Utente/Desktop/Tesi/Firmware_Software/DAVE project/S2GLP_Pulsed_Doppler/Libraries/CMSIS/Include\cmsis_gcc.h **** /**
 347:C:/Users/Utente/Desktop/Tesi/Firmware_Software/DAVE project/S2GLP_Pulsed_Doppler/Libraries/CMSIS/Include\cmsis_gcc.h ****   \brief   Set Priority Mask (non-secure)
 348:C:/Users/Utente/Desktop/Tesi/Firmware_Software/DAVE project/S2GLP_Pulsed_Doppler/Libraries/CMSIS/Include\cmsis_gcc.h ****   \details Assigns the given value to the non-secure Priority Mask Register when in secure state.
 349:C:/Users/Utente/Desktop/Tesi/Firmware_Software/DAVE project/S2GLP_Pulsed_Doppler/Libraries/CMSIS/Include\cmsis_gcc.h ****   \param [in]    priMask  Priority Mask
 350:C:/Users/Utente/Desktop/Tesi/Firmware_Software/DAVE project/S2GLP_Pulsed_Doppler/Libraries/CMSIS/Include\cmsis_gcc.h ****  */
 351:C:/Users/Utente/Desktop/Tesi/Firmware_Software/DAVE project/S2GLP_Pulsed_Doppler/Libraries/CMSIS/Include\cmsis_gcc.h **** __attribute__((always_inline)) __STATIC_INLINE void __TZ_set_PRIMASK_NS(uint32_t priMask)
 352:C:/Users/Utente/Desktop/Tesi/Firmware_Software/DAVE project/S2GLP_Pulsed_Doppler/Libraries/CMSIS/Include\cmsis_gcc.h **** {
 353:C:/Users/Utente/Desktop/Tesi/Firmware_Software/DAVE project/S2GLP_Pulsed_Doppler/Libraries/CMSIS/Include\cmsis_gcc.h ****   __ASM volatile ("MSR primask_ns, %0" : : "r" (priMask) : "memory");
 354:C:/Users/Utente/Desktop/Tesi/Firmware_Software/DAVE project/S2GLP_Pulsed_Doppler/Libraries/CMSIS/Include\cmsis_gcc.h **** }
 355:C:/Users/Utente/Desktop/Tesi/Firmware_Software/DAVE project/S2GLP_Pulsed_Doppler/Libraries/CMSIS/Include\cmsis_gcc.h **** #endif
 356:C:/Users/Utente/Desktop/Tesi/Firmware_Software/DAVE project/S2GLP_Pulsed_Doppler/Libraries/CMSIS/Include\cmsis_gcc.h **** 
 357:C:/Users/Utente/Desktop/Tesi/Firmware_Software/DAVE project/S2GLP_Pulsed_Doppler/Libraries/CMSIS/Include\cmsis_gcc.h **** 
 358:C:/Users/Utente/Desktop/Tesi/Firmware_Software/DAVE project/S2GLP_Pulsed_Doppler/Libraries/CMSIS/Include\cmsis_gcc.h **** #if ((defined (__ARM_ARCH_7M__      ) && (__ARM_ARCH_7M__      == 1)) || \
 359:C:/Users/Utente/Desktop/Tesi/Firmware_Software/DAVE project/S2GLP_Pulsed_Doppler/Libraries/CMSIS/Include\cmsis_gcc.h ****      (defined (__ARM_ARCH_7EM__     ) && (__ARM_ARCH_7EM__     == 1)) || \
 360:C:/Users/Utente/Desktop/Tesi/Firmware_Software/DAVE project/S2GLP_Pulsed_Doppler/Libraries/CMSIS/Include\cmsis_gcc.h ****      (defined (__ARM_ARCH_8M_MAIN__ ) && (__ARM_ARCH_8M_MAIN__ == 1))    )
 361:C:/Users/Utente/Desktop/Tesi/Firmware_Software/DAVE project/S2GLP_Pulsed_Doppler/Libraries/CMSIS/Include\cmsis_gcc.h **** /**
 362:C:/Users/Utente/Desktop/Tesi/Firmware_Software/DAVE project/S2GLP_Pulsed_Doppler/Libraries/CMSIS/Include\cmsis_gcc.h ****   \brief   Enable FIQ
 363:C:/Users/Utente/Desktop/Tesi/Firmware_Software/DAVE project/S2GLP_Pulsed_Doppler/Libraries/CMSIS/Include\cmsis_gcc.h ****   \details Enables FIQ interrupts by clearing the F-bit in the CPSR.
 364:C:/Users/Utente/Desktop/Tesi/Firmware_Software/DAVE project/S2GLP_Pulsed_Doppler/Libraries/CMSIS/Include\cmsis_gcc.h ****            Can only be executed in Privileged modes.
 365:C:/Users/Utente/Desktop/Tesi/Firmware_Software/DAVE project/S2GLP_Pulsed_Doppler/Libraries/CMSIS/Include\cmsis_gcc.h ****  */
 366:C:/Users/Utente/Desktop/Tesi/Firmware_Software/DAVE project/S2GLP_Pulsed_Doppler/Libraries/CMSIS/Include\cmsis_gcc.h **** __attribute__((always_inline)) __STATIC_INLINE void __enable_fault_irq(void)
 367:C:/Users/Utente/Desktop/Tesi/Firmware_Software/DAVE project/S2GLP_Pulsed_Doppler/Libraries/CMSIS/Include\cmsis_gcc.h **** {
 368:C:/Users/Utente/Desktop/Tesi/Firmware_Software/DAVE project/S2GLP_Pulsed_Doppler/Libraries/CMSIS/Include\cmsis_gcc.h ****   __ASM volatile ("cpsie f" : : : "memory");
 369:C:/Users/Utente/Desktop/Tesi/Firmware_Software/DAVE project/S2GLP_Pulsed_Doppler/Libraries/CMSIS/Include\cmsis_gcc.h **** }
 370:C:/Users/Utente/Desktop/Tesi/Firmware_Software/DAVE project/S2GLP_Pulsed_Doppler/Libraries/CMSIS/Include\cmsis_gcc.h **** 
 371:C:/Users/Utente/Desktop/Tesi/Firmware_Software/DAVE project/S2GLP_Pulsed_Doppler/Libraries/CMSIS/Include\cmsis_gcc.h **** 
 372:C:/Users/Utente/Desktop/Tesi/Firmware_Software/DAVE project/S2GLP_Pulsed_Doppler/Libraries/CMSIS/Include\cmsis_gcc.h **** /**
 373:C:/Users/Utente/Desktop/Tesi/Firmware_Software/DAVE project/S2GLP_Pulsed_Doppler/Libraries/CMSIS/Include\cmsis_gcc.h ****   \brief   Disable FIQ
 374:C:/Users/Utente/Desktop/Tesi/Firmware_Software/DAVE project/S2GLP_Pulsed_Doppler/Libraries/CMSIS/Include\cmsis_gcc.h ****   \details Disables FIQ interrupts by setting the F-bit in the CPSR.
 375:C:/Users/Utente/Desktop/Tesi/Firmware_Software/DAVE project/S2GLP_Pulsed_Doppler/Libraries/CMSIS/Include\cmsis_gcc.h ****            Can only be executed in Privileged modes.
 376:C:/Users/Utente/Desktop/Tesi/Firmware_Software/DAVE project/S2GLP_Pulsed_Doppler/Libraries/CMSIS/Include\cmsis_gcc.h ****  */
 377:C:/Users/Utente/Desktop/Tesi/Firmware_Software/DAVE project/S2GLP_Pulsed_Doppler/Libraries/CMSIS/Include\cmsis_gcc.h **** __attribute__((always_inline)) __STATIC_INLINE void __disable_fault_irq(void)
 378:C:/Users/Utente/Desktop/Tesi/Firmware_Software/DAVE project/S2GLP_Pulsed_Doppler/Libraries/CMSIS/Include\cmsis_gcc.h **** {
 379:C:/Users/Utente/Desktop/Tesi/Firmware_Software/DAVE project/S2GLP_Pulsed_Doppler/Libraries/CMSIS/Include\cmsis_gcc.h ****   __ASM volatile ("cpsid f" : : : "memory");
 380:C:/Users/Utente/Desktop/Tesi/Firmware_Software/DAVE project/S2GLP_Pulsed_Doppler/Libraries/CMSIS/Include\cmsis_gcc.h **** }
 381:C:/Users/Utente/Desktop/Tesi/Firmware_Software/DAVE project/S2GLP_Pulsed_Doppler/Libraries/CMSIS/Include\cmsis_gcc.h **** 
 382:C:/Users/Utente/Desktop/Tesi/Firmware_Software/DAVE project/S2GLP_Pulsed_Doppler/Libraries/CMSIS/Include\cmsis_gcc.h **** 
 383:C:/Users/Utente/Desktop/Tesi/Firmware_Software/DAVE project/S2GLP_Pulsed_Doppler/Libraries/CMSIS/Include\cmsis_gcc.h **** /**
 384:C:/Users/Utente/Desktop/Tesi/Firmware_Software/DAVE project/S2GLP_Pulsed_Doppler/Libraries/CMSIS/Include\cmsis_gcc.h ****   \brief   Get Base Priority
 385:C:/Users/Utente/Desktop/Tesi/Firmware_Software/DAVE project/S2GLP_Pulsed_Doppler/Libraries/CMSIS/Include\cmsis_gcc.h ****   \details Returns the current value of the Base Priority register.
 386:C:/Users/Utente/Desktop/Tesi/Firmware_Software/DAVE project/S2GLP_Pulsed_Doppler/Libraries/CMSIS/Include\cmsis_gcc.h ****   \return               Base Priority register value
 387:C:/Users/Utente/Desktop/Tesi/Firmware_Software/DAVE project/S2GLP_Pulsed_Doppler/Libraries/CMSIS/Include\cmsis_gcc.h ****  */
 388:C:/Users/Utente/Desktop/Tesi/Firmware_Software/DAVE project/S2GLP_Pulsed_Doppler/Libraries/CMSIS/Include\cmsis_gcc.h **** __attribute__((always_inline)) __STATIC_INLINE uint32_t __get_BASEPRI(void)
 389:C:/Users/Utente/Desktop/Tesi/Firmware_Software/DAVE project/S2GLP_Pulsed_Doppler/Libraries/CMSIS/Include\cmsis_gcc.h **** {
 390:C:/Users/Utente/Desktop/Tesi/Firmware_Software/DAVE project/S2GLP_Pulsed_Doppler/Libraries/CMSIS/Include\cmsis_gcc.h ****   uint32_t result;
 391:C:/Users/Utente/Desktop/Tesi/Firmware_Software/DAVE project/S2GLP_Pulsed_Doppler/Libraries/CMSIS/Include\cmsis_gcc.h **** 
 392:C:/Users/Utente/Desktop/Tesi/Firmware_Software/DAVE project/S2GLP_Pulsed_Doppler/Libraries/CMSIS/Include\cmsis_gcc.h ****   __ASM volatile ("MRS %0, basepri" : "=r" (result) );
 393:C:/Users/Utente/Desktop/Tesi/Firmware_Software/DAVE project/S2GLP_Pulsed_Doppler/Libraries/CMSIS/Include\cmsis_gcc.h ****   return(result);
 394:C:/Users/Utente/Desktop/Tesi/Firmware_Software/DAVE project/S2GLP_Pulsed_Doppler/Libraries/CMSIS/Include\cmsis_gcc.h **** }
 395:C:/Users/Utente/Desktop/Tesi/Firmware_Software/DAVE project/S2GLP_Pulsed_Doppler/Libraries/CMSIS/Include\cmsis_gcc.h **** 
 396:C:/Users/Utente/Desktop/Tesi/Firmware_Software/DAVE project/S2GLP_Pulsed_Doppler/Libraries/CMSIS/Include\cmsis_gcc.h **** 
 397:C:/Users/Utente/Desktop/Tesi/Firmware_Software/DAVE project/S2GLP_Pulsed_Doppler/Libraries/CMSIS/Include\cmsis_gcc.h **** #if (defined (__ARM_FEATURE_CMSE ) && (__ARM_FEATURE_CMSE == 3))
 398:C:/Users/Utente/Desktop/Tesi/Firmware_Software/DAVE project/S2GLP_Pulsed_Doppler/Libraries/CMSIS/Include\cmsis_gcc.h **** /**
 399:C:/Users/Utente/Desktop/Tesi/Firmware_Software/DAVE project/S2GLP_Pulsed_Doppler/Libraries/CMSIS/Include\cmsis_gcc.h ****   \brief   Get Base Priority (non-secure)
 400:C:/Users/Utente/Desktop/Tesi/Firmware_Software/DAVE project/S2GLP_Pulsed_Doppler/Libraries/CMSIS/Include\cmsis_gcc.h ****   \details Returns the current value of the non-secure Base Priority register when in secure state.
 401:C:/Users/Utente/Desktop/Tesi/Firmware_Software/DAVE project/S2GLP_Pulsed_Doppler/Libraries/CMSIS/Include\cmsis_gcc.h ****   \return               Base Priority register value
 402:C:/Users/Utente/Desktop/Tesi/Firmware_Software/DAVE project/S2GLP_Pulsed_Doppler/Libraries/CMSIS/Include\cmsis_gcc.h ****  */
 403:C:/Users/Utente/Desktop/Tesi/Firmware_Software/DAVE project/S2GLP_Pulsed_Doppler/Libraries/CMSIS/Include\cmsis_gcc.h **** __attribute__((always_inline)) __STATIC_INLINE uint32_t __TZ_get_BASEPRI_NS(void)
 404:C:/Users/Utente/Desktop/Tesi/Firmware_Software/DAVE project/S2GLP_Pulsed_Doppler/Libraries/CMSIS/Include\cmsis_gcc.h **** {
 405:C:/Users/Utente/Desktop/Tesi/Firmware_Software/DAVE project/S2GLP_Pulsed_Doppler/Libraries/CMSIS/Include\cmsis_gcc.h ****   uint32_t result;
 406:C:/Users/Utente/Desktop/Tesi/Firmware_Software/DAVE project/S2GLP_Pulsed_Doppler/Libraries/CMSIS/Include\cmsis_gcc.h **** 
 407:C:/Users/Utente/Desktop/Tesi/Firmware_Software/DAVE project/S2GLP_Pulsed_Doppler/Libraries/CMSIS/Include\cmsis_gcc.h ****   __ASM volatile ("MRS %0, basepri_ns" : "=r" (result) );
 408:C:/Users/Utente/Desktop/Tesi/Firmware_Software/DAVE project/S2GLP_Pulsed_Doppler/Libraries/CMSIS/Include\cmsis_gcc.h ****   return(result);
 409:C:/Users/Utente/Desktop/Tesi/Firmware_Software/DAVE project/S2GLP_Pulsed_Doppler/Libraries/CMSIS/Include\cmsis_gcc.h **** }
 410:C:/Users/Utente/Desktop/Tesi/Firmware_Software/DAVE project/S2GLP_Pulsed_Doppler/Libraries/CMSIS/Include\cmsis_gcc.h **** #endif
 411:C:/Users/Utente/Desktop/Tesi/Firmware_Software/DAVE project/S2GLP_Pulsed_Doppler/Libraries/CMSIS/Include\cmsis_gcc.h **** 
 412:C:/Users/Utente/Desktop/Tesi/Firmware_Software/DAVE project/S2GLP_Pulsed_Doppler/Libraries/CMSIS/Include\cmsis_gcc.h **** 
 413:C:/Users/Utente/Desktop/Tesi/Firmware_Software/DAVE project/S2GLP_Pulsed_Doppler/Libraries/CMSIS/Include\cmsis_gcc.h **** /**
 414:C:/Users/Utente/Desktop/Tesi/Firmware_Software/DAVE project/S2GLP_Pulsed_Doppler/Libraries/CMSIS/Include\cmsis_gcc.h ****   \brief   Set Base Priority
 415:C:/Users/Utente/Desktop/Tesi/Firmware_Software/DAVE project/S2GLP_Pulsed_Doppler/Libraries/CMSIS/Include\cmsis_gcc.h ****   \details Assigns the given value to the Base Priority register.
 416:C:/Users/Utente/Desktop/Tesi/Firmware_Software/DAVE project/S2GLP_Pulsed_Doppler/Libraries/CMSIS/Include\cmsis_gcc.h ****   \param [in]    basePri  Base Priority value to set
 417:C:/Users/Utente/Desktop/Tesi/Firmware_Software/DAVE project/S2GLP_Pulsed_Doppler/Libraries/CMSIS/Include\cmsis_gcc.h ****  */
 418:C:/Users/Utente/Desktop/Tesi/Firmware_Software/DAVE project/S2GLP_Pulsed_Doppler/Libraries/CMSIS/Include\cmsis_gcc.h **** __attribute__((always_inline)) __STATIC_INLINE void __set_BASEPRI(uint32_t basePri)
 419:C:/Users/Utente/Desktop/Tesi/Firmware_Software/DAVE project/S2GLP_Pulsed_Doppler/Libraries/CMSIS/Include\cmsis_gcc.h **** {
 420:C:/Users/Utente/Desktop/Tesi/Firmware_Software/DAVE project/S2GLP_Pulsed_Doppler/Libraries/CMSIS/Include\cmsis_gcc.h ****   __ASM volatile ("MSR basepri, %0" : : "r" (basePri) : "memory");
 421:C:/Users/Utente/Desktop/Tesi/Firmware_Software/DAVE project/S2GLP_Pulsed_Doppler/Libraries/CMSIS/Include\cmsis_gcc.h **** }
 422:C:/Users/Utente/Desktop/Tesi/Firmware_Software/DAVE project/S2GLP_Pulsed_Doppler/Libraries/CMSIS/Include\cmsis_gcc.h **** 
 423:C:/Users/Utente/Desktop/Tesi/Firmware_Software/DAVE project/S2GLP_Pulsed_Doppler/Libraries/CMSIS/Include\cmsis_gcc.h **** 
 424:C:/Users/Utente/Desktop/Tesi/Firmware_Software/DAVE project/S2GLP_Pulsed_Doppler/Libraries/CMSIS/Include\cmsis_gcc.h **** #if (defined (__ARM_FEATURE_CMSE ) && (__ARM_FEATURE_CMSE == 3))
 425:C:/Users/Utente/Desktop/Tesi/Firmware_Software/DAVE project/S2GLP_Pulsed_Doppler/Libraries/CMSIS/Include\cmsis_gcc.h **** /**
 426:C:/Users/Utente/Desktop/Tesi/Firmware_Software/DAVE project/S2GLP_Pulsed_Doppler/Libraries/CMSIS/Include\cmsis_gcc.h ****   \brief   Set Base Priority (non-secure)
 427:C:/Users/Utente/Desktop/Tesi/Firmware_Software/DAVE project/S2GLP_Pulsed_Doppler/Libraries/CMSIS/Include\cmsis_gcc.h ****   \details Assigns the given value to the non-secure Base Priority register when in secure state.
 428:C:/Users/Utente/Desktop/Tesi/Firmware_Software/DAVE project/S2GLP_Pulsed_Doppler/Libraries/CMSIS/Include\cmsis_gcc.h ****   \param [in]    basePri  Base Priority value to set
 429:C:/Users/Utente/Desktop/Tesi/Firmware_Software/DAVE project/S2GLP_Pulsed_Doppler/Libraries/CMSIS/Include\cmsis_gcc.h ****  */
 430:C:/Users/Utente/Desktop/Tesi/Firmware_Software/DAVE project/S2GLP_Pulsed_Doppler/Libraries/CMSIS/Include\cmsis_gcc.h **** __attribute__((always_inline)) __STATIC_INLINE void __TZ_set_BASEPRI_NS(uint32_t basePri)
 431:C:/Users/Utente/Desktop/Tesi/Firmware_Software/DAVE project/S2GLP_Pulsed_Doppler/Libraries/CMSIS/Include\cmsis_gcc.h **** {
 432:C:/Users/Utente/Desktop/Tesi/Firmware_Software/DAVE project/S2GLP_Pulsed_Doppler/Libraries/CMSIS/Include\cmsis_gcc.h ****   __ASM volatile ("MSR basepri_ns, %0" : : "r" (basePri) : "memory");
 433:C:/Users/Utente/Desktop/Tesi/Firmware_Software/DAVE project/S2GLP_Pulsed_Doppler/Libraries/CMSIS/Include\cmsis_gcc.h **** }
 434:C:/Users/Utente/Desktop/Tesi/Firmware_Software/DAVE project/S2GLP_Pulsed_Doppler/Libraries/CMSIS/Include\cmsis_gcc.h **** #endif
 435:C:/Users/Utente/Desktop/Tesi/Firmware_Software/DAVE project/S2GLP_Pulsed_Doppler/Libraries/CMSIS/Include\cmsis_gcc.h **** 
 436:C:/Users/Utente/Desktop/Tesi/Firmware_Software/DAVE project/S2GLP_Pulsed_Doppler/Libraries/CMSIS/Include\cmsis_gcc.h **** 
 437:C:/Users/Utente/Desktop/Tesi/Firmware_Software/DAVE project/S2GLP_Pulsed_Doppler/Libraries/CMSIS/Include\cmsis_gcc.h **** /**
 438:C:/Users/Utente/Desktop/Tesi/Firmware_Software/DAVE project/S2GLP_Pulsed_Doppler/Libraries/CMSIS/Include\cmsis_gcc.h ****   \brief   Set Base Priority with condition
 439:C:/Users/Utente/Desktop/Tesi/Firmware_Software/DAVE project/S2GLP_Pulsed_Doppler/Libraries/CMSIS/Include\cmsis_gcc.h ****   \details Assigns the given value to the Base Priority register only if BASEPRI masking is disable
 440:C:/Users/Utente/Desktop/Tesi/Firmware_Software/DAVE project/S2GLP_Pulsed_Doppler/Libraries/CMSIS/Include\cmsis_gcc.h ****            or the new value increases the BASEPRI priority level.
 441:C:/Users/Utente/Desktop/Tesi/Firmware_Software/DAVE project/S2GLP_Pulsed_Doppler/Libraries/CMSIS/Include\cmsis_gcc.h ****   \param [in]    basePri  Base Priority value to set
 442:C:/Users/Utente/Desktop/Tesi/Firmware_Software/DAVE project/S2GLP_Pulsed_Doppler/Libraries/CMSIS/Include\cmsis_gcc.h ****  */
 443:C:/Users/Utente/Desktop/Tesi/Firmware_Software/DAVE project/S2GLP_Pulsed_Doppler/Libraries/CMSIS/Include\cmsis_gcc.h **** __attribute__((always_inline)) __STATIC_INLINE void __set_BASEPRI_MAX(uint32_t basePri)
 444:C:/Users/Utente/Desktop/Tesi/Firmware_Software/DAVE project/S2GLP_Pulsed_Doppler/Libraries/CMSIS/Include\cmsis_gcc.h **** {
 445:C:/Users/Utente/Desktop/Tesi/Firmware_Software/DAVE project/S2GLP_Pulsed_Doppler/Libraries/CMSIS/Include\cmsis_gcc.h ****   __ASM volatile ("MSR basepri_max, %0" : : "r" (basePri) : "memory");
 446:C:/Users/Utente/Desktop/Tesi/Firmware_Software/DAVE project/S2GLP_Pulsed_Doppler/Libraries/CMSIS/Include\cmsis_gcc.h **** }
 447:C:/Users/Utente/Desktop/Tesi/Firmware_Software/DAVE project/S2GLP_Pulsed_Doppler/Libraries/CMSIS/Include\cmsis_gcc.h **** 
 448:C:/Users/Utente/Desktop/Tesi/Firmware_Software/DAVE project/S2GLP_Pulsed_Doppler/Libraries/CMSIS/Include\cmsis_gcc.h **** 
 449:C:/Users/Utente/Desktop/Tesi/Firmware_Software/DAVE project/S2GLP_Pulsed_Doppler/Libraries/CMSIS/Include\cmsis_gcc.h **** /**
 450:C:/Users/Utente/Desktop/Tesi/Firmware_Software/DAVE project/S2GLP_Pulsed_Doppler/Libraries/CMSIS/Include\cmsis_gcc.h ****   \brief   Get Fault Mask
 451:C:/Users/Utente/Desktop/Tesi/Firmware_Software/DAVE project/S2GLP_Pulsed_Doppler/Libraries/CMSIS/Include\cmsis_gcc.h ****   \details Returns the current value of the Fault Mask register.
 452:C:/Users/Utente/Desktop/Tesi/Firmware_Software/DAVE project/S2GLP_Pulsed_Doppler/Libraries/CMSIS/Include\cmsis_gcc.h ****   \return               Fault Mask register value
 453:C:/Users/Utente/Desktop/Tesi/Firmware_Software/DAVE project/S2GLP_Pulsed_Doppler/Libraries/CMSIS/Include\cmsis_gcc.h ****  */
 454:C:/Users/Utente/Desktop/Tesi/Firmware_Software/DAVE project/S2GLP_Pulsed_Doppler/Libraries/CMSIS/Include\cmsis_gcc.h **** __attribute__((always_inline)) __STATIC_INLINE uint32_t __get_FAULTMASK(void)
 455:C:/Users/Utente/Desktop/Tesi/Firmware_Software/DAVE project/S2GLP_Pulsed_Doppler/Libraries/CMSIS/Include\cmsis_gcc.h **** {
 456:C:/Users/Utente/Desktop/Tesi/Firmware_Software/DAVE project/S2GLP_Pulsed_Doppler/Libraries/CMSIS/Include\cmsis_gcc.h ****   uint32_t result;
 457:C:/Users/Utente/Desktop/Tesi/Firmware_Software/DAVE project/S2GLP_Pulsed_Doppler/Libraries/CMSIS/Include\cmsis_gcc.h **** 
 458:C:/Users/Utente/Desktop/Tesi/Firmware_Software/DAVE project/S2GLP_Pulsed_Doppler/Libraries/CMSIS/Include\cmsis_gcc.h ****   __ASM volatile ("MRS %0, faultmask" : "=r" (result) );
 459:C:/Users/Utente/Desktop/Tesi/Firmware_Software/DAVE project/S2GLP_Pulsed_Doppler/Libraries/CMSIS/Include\cmsis_gcc.h ****   return(result);
 460:C:/Users/Utente/Desktop/Tesi/Firmware_Software/DAVE project/S2GLP_Pulsed_Doppler/Libraries/CMSIS/Include\cmsis_gcc.h **** }
 461:C:/Users/Utente/Desktop/Tesi/Firmware_Software/DAVE project/S2GLP_Pulsed_Doppler/Libraries/CMSIS/Include\cmsis_gcc.h **** 
 462:C:/Users/Utente/Desktop/Tesi/Firmware_Software/DAVE project/S2GLP_Pulsed_Doppler/Libraries/CMSIS/Include\cmsis_gcc.h **** 
 463:C:/Users/Utente/Desktop/Tesi/Firmware_Software/DAVE project/S2GLP_Pulsed_Doppler/Libraries/CMSIS/Include\cmsis_gcc.h **** #if (defined (__ARM_FEATURE_CMSE ) && (__ARM_FEATURE_CMSE == 3))
 464:C:/Users/Utente/Desktop/Tesi/Firmware_Software/DAVE project/S2GLP_Pulsed_Doppler/Libraries/CMSIS/Include\cmsis_gcc.h **** /**
 465:C:/Users/Utente/Desktop/Tesi/Firmware_Software/DAVE project/S2GLP_Pulsed_Doppler/Libraries/CMSIS/Include\cmsis_gcc.h ****   \brief   Get Fault Mask (non-secure)
 466:C:/Users/Utente/Desktop/Tesi/Firmware_Software/DAVE project/S2GLP_Pulsed_Doppler/Libraries/CMSIS/Include\cmsis_gcc.h ****   \details Returns the current value of the non-secure Fault Mask register when in secure state.
 467:C:/Users/Utente/Desktop/Tesi/Firmware_Software/DAVE project/S2GLP_Pulsed_Doppler/Libraries/CMSIS/Include\cmsis_gcc.h ****   \return               Fault Mask register value
 468:C:/Users/Utente/Desktop/Tesi/Firmware_Software/DAVE project/S2GLP_Pulsed_Doppler/Libraries/CMSIS/Include\cmsis_gcc.h ****  */
 469:C:/Users/Utente/Desktop/Tesi/Firmware_Software/DAVE project/S2GLP_Pulsed_Doppler/Libraries/CMSIS/Include\cmsis_gcc.h **** __attribute__((always_inline)) __STATIC_INLINE uint32_t __TZ_get_FAULTMASK_NS(void)
 470:C:/Users/Utente/Desktop/Tesi/Firmware_Software/DAVE project/S2GLP_Pulsed_Doppler/Libraries/CMSIS/Include\cmsis_gcc.h **** {
 471:C:/Users/Utente/Desktop/Tesi/Firmware_Software/DAVE project/S2GLP_Pulsed_Doppler/Libraries/CMSIS/Include\cmsis_gcc.h ****   uint32_t result;
 472:C:/Users/Utente/Desktop/Tesi/Firmware_Software/DAVE project/S2GLP_Pulsed_Doppler/Libraries/CMSIS/Include\cmsis_gcc.h **** 
 473:C:/Users/Utente/Desktop/Tesi/Firmware_Software/DAVE project/S2GLP_Pulsed_Doppler/Libraries/CMSIS/Include\cmsis_gcc.h ****   __ASM volatile ("MRS %0, faultmask_ns" : "=r" (result) );
 474:C:/Users/Utente/Desktop/Tesi/Firmware_Software/DAVE project/S2GLP_Pulsed_Doppler/Libraries/CMSIS/Include\cmsis_gcc.h ****   return(result);
 475:C:/Users/Utente/Desktop/Tesi/Firmware_Software/DAVE project/S2GLP_Pulsed_Doppler/Libraries/CMSIS/Include\cmsis_gcc.h **** }
 476:C:/Users/Utente/Desktop/Tesi/Firmware_Software/DAVE project/S2GLP_Pulsed_Doppler/Libraries/CMSIS/Include\cmsis_gcc.h **** #endif
 477:C:/Users/Utente/Desktop/Tesi/Firmware_Software/DAVE project/S2GLP_Pulsed_Doppler/Libraries/CMSIS/Include\cmsis_gcc.h **** 
 478:C:/Users/Utente/Desktop/Tesi/Firmware_Software/DAVE project/S2GLP_Pulsed_Doppler/Libraries/CMSIS/Include\cmsis_gcc.h **** 
 479:C:/Users/Utente/Desktop/Tesi/Firmware_Software/DAVE project/S2GLP_Pulsed_Doppler/Libraries/CMSIS/Include\cmsis_gcc.h **** /**
 480:C:/Users/Utente/Desktop/Tesi/Firmware_Software/DAVE project/S2GLP_Pulsed_Doppler/Libraries/CMSIS/Include\cmsis_gcc.h ****   \brief   Set Fault Mask
 481:C:/Users/Utente/Desktop/Tesi/Firmware_Software/DAVE project/S2GLP_Pulsed_Doppler/Libraries/CMSIS/Include\cmsis_gcc.h ****   \details Assigns the given value to the Fault Mask register.
 482:C:/Users/Utente/Desktop/Tesi/Firmware_Software/DAVE project/S2GLP_Pulsed_Doppler/Libraries/CMSIS/Include\cmsis_gcc.h ****   \param [in]    faultMask  Fault Mask value to set
 483:C:/Users/Utente/Desktop/Tesi/Firmware_Software/DAVE project/S2GLP_Pulsed_Doppler/Libraries/CMSIS/Include\cmsis_gcc.h ****  */
 484:C:/Users/Utente/Desktop/Tesi/Firmware_Software/DAVE project/S2GLP_Pulsed_Doppler/Libraries/CMSIS/Include\cmsis_gcc.h **** __attribute__((always_inline)) __STATIC_INLINE void __set_FAULTMASK(uint32_t faultMask)
 485:C:/Users/Utente/Desktop/Tesi/Firmware_Software/DAVE project/S2GLP_Pulsed_Doppler/Libraries/CMSIS/Include\cmsis_gcc.h **** {
 486:C:/Users/Utente/Desktop/Tesi/Firmware_Software/DAVE project/S2GLP_Pulsed_Doppler/Libraries/CMSIS/Include\cmsis_gcc.h ****   __ASM volatile ("MSR faultmask, %0" : : "r" (faultMask) : "memory");
 487:C:/Users/Utente/Desktop/Tesi/Firmware_Software/DAVE project/S2GLP_Pulsed_Doppler/Libraries/CMSIS/Include\cmsis_gcc.h **** }
 488:C:/Users/Utente/Desktop/Tesi/Firmware_Software/DAVE project/S2GLP_Pulsed_Doppler/Libraries/CMSIS/Include\cmsis_gcc.h **** 
 489:C:/Users/Utente/Desktop/Tesi/Firmware_Software/DAVE project/S2GLP_Pulsed_Doppler/Libraries/CMSIS/Include\cmsis_gcc.h **** 
 490:C:/Users/Utente/Desktop/Tesi/Firmware_Software/DAVE project/S2GLP_Pulsed_Doppler/Libraries/CMSIS/Include\cmsis_gcc.h **** #if (defined (__ARM_FEATURE_CMSE ) && (__ARM_FEATURE_CMSE == 3))
 491:C:/Users/Utente/Desktop/Tesi/Firmware_Software/DAVE project/S2GLP_Pulsed_Doppler/Libraries/CMSIS/Include\cmsis_gcc.h **** /**
 492:C:/Users/Utente/Desktop/Tesi/Firmware_Software/DAVE project/S2GLP_Pulsed_Doppler/Libraries/CMSIS/Include\cmsis_gcc.h ****   \brief   Set Fault Mask (non-secure)
 493:C:/Users/Utente/Desktop/Tesi/Firmware_Software/DAVE project/S2GLP_Pulsed_Doppler/Libraries/CMSIS/Include\cmsis_gcc.h ****   \details Assigns the given value to the non-secure Fault Mask register when in secure state.
 494:C:/Users/Utente/Desktop/Tesi/Firmware_Software/DAVE project/S2GLP_Pulsed_Doppler/Libraries/CMSIS/Include\cmsis_gcc.h ****   \param [in]    faultMask  Fault Mask value to set
 495:C:/Users/Utente/Desktop/Tesi/Firmware_Software/DAVE project/S2GLP_Pulsed_Doppler/Libraries/CMSIS/Include\cmsis_gcc.h ****  */
 496:C:/Users/Utente/Desktop/Tesi/Firmware_Software/DAVE project/S2GLP_Pulsed_Doppler/Libraries/CMSIS/Include\cmsis_gcc.h **** __attribute__((always_inline)) __STATIC_INLINE void __TZ_set_FAULTMASK_NS(uint32_t faultMask)
 497:C:/Users/Utente/Desktop/Tesi/Firmware_Software/DAVE project/S2GLP_Pulsed_Doppler/Libraries/CMSIS/Include\cmsis_gcc.h **** {
 498:C:/Users/Utente/Desktop/Tesi/Firmware_Software/DAVE project/S2GLP_Pulsed_Doppler/Libraries/CMSIS/Include\cmsis_gcc.h ****   __ASM volatile ("MSR faultmask_ns, %0" : : "r" (faultMask) : "memory");
 499:C:/Users/Utente/Desktop/Tesi/Firmware_Software/DAVE project/S2GLP_Pulsed_Doppler/Libraries/CMSIS/Include\cmsis_gcc.h **** }
 500:C:/Users/Utente/Desktop/Tesi/Firmware_Software/DAVE project/S2GLP_Pulsed_Doppler/Libraries/CMSIS/Include\cmsis_gcc.h **** #endif
 501:C:/Users/Utente/Desktop/Tesi/Firmware_Software/DAVE project/S2GLP_Pulsed_Doppler/Libraries/CMSIS/Include\cmsis_gcc.h **** 
 502:C:/Users/Utente/Desktop/Tesi/Firmware_Software/DAVE project/S2GLP_Pulsed_Doppler/Libraries/CMSIS/Include\cmsis_gcc.h **** #endif /* ((defined (__ARM_ARCH_7M__      ) && (__ARM_ARCH_7M__      == 1)) || \
 503:C:/Users/Utente/Desktop/Tesi/Firmware_Software/DAVE project/S2GLP_Pulsed_Doppler/Libraries/CMSIS/Include\cmsis_gcc.h ****            (defined (__ARM_ARCH_7EM__     ) && (__ARM_ARCH_7EM__     == 1)) || \
 504:C:/Users/Utente/Desktop/Tesi/Firmware_Software/DAVE project/S2GLP_Pulsed_Doppler/Libraries/CMSIS/Include\cmsis_gcc.h ****            (defined (__ARM_ARCH_8M_MAIN__ ) && (__ARM_ARCH_8M_MAIN__ == 1))    ) */
 505:C:/Users/Utente/Desktop/Tesi/Firmware_Software/DAVE project/S2GLP_Pulsed_Doppler/Libraries/CMSIS/Include\cmsis_gcc.h **** 
 506:C:/Users/Utente/Desktop/Tesi/Firmware_Software/DAVE project/S2GLP_Pulsed_Doppler/Libraries/CMSIS/Include\cmsis_gcc.h **** 
 507:C:/Users/Utente/Desktop/Tesi/Firmware_Software/DAVE project/S2GLP_Pulsed_Doppler/Libraries/CMSIS/Include\cmsis_gcc.h **** #if ((defined (__ARM_ARCH_8M_MAIN__ ) && (__ARM_ARCH_8M_MAIN__ == 1)) || \
 508:C:/Users/Utente/Desktop/Tesi/Firmware_Software/DAVE project/S2GLP_Pulsed_Doppler/Libraries/CMSIS/Include\cmsis_gcc.h ****      (defined (__ARM_ARCH_8M_BASE__ ) && (__ARM_ARCH_8M_BASE__ == 1))    )
 509:C:/Users/Utente/Desktop/Tesi/Firmware_Software/DAVE project/S2GLP_Pulsed_Doppler/Libraries/CMSIS/Include\cmsis_gcc.h **** 
 510:C:/Users/Utente/Desktop/Tesi/Firmware_Software/DAVE project/S2GLP_Pulsed_Doppler/Libraries/CMSIS/Include\cmsis_gcc.h **** /**
 511:C:/Users/Utente/Desktop/Tesi/Firmware_Software/DAVE project/S2GLP_Pulsed_Doppler/Libraries/CMSIS/Include\cmsis_gcc.h ****   \brief   Get Process Stack Pointer Limit
 512:C:/Users/Utente/Desktop/Tesi/Firmware_Software/DAVE project/S2GLP_Pulsed_Doppler/Libraries/CMSIS/Include\cmsis_gcc.h ****   \details Returns the current value of the Process Stack Pointer Limit (PSPLIM).
 513:C:/Users/Utente/Desktop/Tesi/Firmware_Software/DAVE project/S2GLP_Pulsed_Doppler/Libraries/CMSIS/Include\cmsis_gcc.h ****   \return               PSPLIM Register value
 514:C:/Users/Utente/Desktop/Tesi/Firmware_Software/DAVE project/S2GLP_Pulsed_Doppler/Libraries/CMSIS/Include\cmsis_gcc.h ****  */
 515:C:/Users/Utente/Desktop/Tesi/Firmware_Software/DAVE project/S2GLP_Pulsed_Doppler/Libraries/CMSIS/Include\cmsis_gcc.h **** __attribute__((always_inline)) __STATIC_INLINE uint32_t __get_PSPLIM(void)
 516:C:/Users/Utente/Desktop/Tesi/Firmware_Software/DAVE project/S2GLP_Pulsed_Doppler/Libraries/CMSIS/Include\cmsis_gcc.h **** {
 517:C:/Users/Utente/Desktop/Tesi/Firmware_Software/DAVE project/S2GLP_Pulsed_Doppler/Libraries/CMSIS/Include\cmsis_gcc.h ****   register uint32_t result;
 518:C:/Users/Utente/Desktop/Tesi/Firmware_Software/DAVE project/S2GLP_Pulsed_Doppler/Libraries/CMSIS/Include\cmsis_gcc.h **** 
 519:C:/Users/Utente/Desktop/Tesi/Firmware_Software/DAVE project/S2GLP_Pulsed_Doppler/Libraries/CMSIS/Include\cmsis_gcc.h ****   __ASM volatile ("MRS %0, psplim"  : "=r" (result) );
 520:C:/Users/Utente/Desktop/Tesi/Firmware_Software/DAVE project/S2GLP_Pulsed_Doppler/Libraries/CMSIS/Include\cmsis_gcc.h ****   return(result);
 521:C:/Users/Utente/Desktop/Tesi/Firmware_Software/DAVE project/S2GLP_Pulsed_Doppler/Libraries/CMSIS/Include\cmsis_gcc.h **** }
 522:C:/Users/Utente/Desktop/Tesi/Firmware_Software/DAVE project/S2GLP_Pulsed_Doppler/Libraries/CMSIS/Include\cmsis_gcc.h **** 
 523:C:/Users/Utente/Desktop/Tesi/Firmware_Software/DAVE project/S2GLP_Pulsed_Doppler/Libraries/CMSIS/Include\cmsis_gcc.h **** 
 524:C:/Users/Utente/Desktop/Tesi/Firmware_Software/DAVE project/S2GLP_Pulsed_Doppler/Libraries/CMSIS/Include\cmsis_gcc.h **** #if ((defined (__ARM_FEATURE_CMSE  ) && (__ARM_FEATURE_CMSE   == 3)) && \
 525:C:/Users/Utente/Desktop/Tesi/Firmware_Software/DAVE project/S2GLP_Pulsed_Doppler/Libraries/CMSIS/Include\cmsis_gcc.h ****      (defined (__ARM_ARCH_8M_MAIN__) && (__ARM_ARCH_8M_MAIN__ == 1))    )
 526:C:/Users/Utente/Desktop/Tesi/Firmware_Software/DAVE project/S2GLP_Pulsed_Doppler/Libraries/CMSIS/Include\cmsis_gcc.h **** /**
 527:C:/Users/Utente/Desktop/Tesi/Firmware_Software/DAVE project/S2GLP_Pulsed_Doppler/Libraries/CMSIS/Include\cmsis_gcc.h ****   \brief   Get Process Stack Pointer Limit (non-secure)
 528:C:/Users/Utente/Desktop/Tesi/Firmware_Software/DAVE project/S2GLP_Pulsed_Doppler/Libraries/CMSIS/Include\cmsis_gcc.h ****   \details Returns the current value of the non-secure Process Stack Pointer Limit (PSPLIM) when in
 529:C:/Users/Utente/Desktop/Tesi/Firmware_Software/DAVE project/S2GLP_Pulsed_Doppler/Libraries/CMSIS/Include\cmsis_gcc.h ****   \return               PSPLIM Register value
 530:C:/Users/Utente/Desktop/Tesi/Firmware_Software/DAVE project/S2GLP_Pulsed_Doppler/Libraries/CMSIS/Include\cmsis_gcc.h ****  */
 531:C:/Users/Utente/Desktop/Tesi/Firmware_Software/DAVE project/S2GLP_Pulsed_Doppler/Libraries/CMSIS/Include\cmsis_gcc.h **** __attribute__((always_inline)) __STATIC_INLINE uint32_t __TZ_get_PSPLIM_NS(void)
 532:C:/Users/Utente/Desktop/Tesi/Firmware_Software/DAVE project/S2GLP_Pulsed_Doppler/Libraries/CMSIS/Include\cmsis_gcc.h **** {
 533:C:/Users/Utente/Desktop/Tesi/Firmware_Software/DAVE project/S2GLP_Pulsed_Doppler/Libraries/CMSIS/Include\cmsis_gcc.h ****   register uint32_t result;
 534:C:/Users/Utente/Desktop/Tesi/Firmware_Software/DAVE project/S2GLP_Pulsed_Doppler/Libraries/CMSIS/Include\cmsis_gcc.h **** 
 535:C:/Users/Utente/Desktop/Tesi/Firmware_Software/DAVE project/S2GLP_Pulsed_Doppler/Libraries/CMSIS/Include\cmsis_gcc.h ****   __ASM volatile ("MRS %0, psplim_ns"  : "=r" (result) );
 536:C:/Users/Utente/Desktop/Tesi/Firmware_Software/DAVE project/S2GLP_Pulsed_Doppler/Libraries/CMSIS/Include\cmsis_gcc.h ****   return(result);
 537:C:/Users/Utente/Desktop/Tesi/Firmware_Software/DAVE project/S2GLP_Pulsed_Doppler/Libraries/CMSIS/Include\cmsis_gcc.h **** }
 538:C:/Users/Utente/Desktop/Tesi/Firmware_Software/DAVE project/S2GLP_Pulsed_Doppler/Libraries/CMSIS/Include\cmsis_gcc.h **** #endif
 539:C:/Users/Utente/Desktop/Tesi/Firmware_Software/DAVE project/S2GLP_Pulsed_Doppler/Libraries/CMSIS/Include\cmsis_gcc.h **** 
 540:C:/Users/Utente/Desktop/Tesi/Firmware_Software/DAVE project/S2GLP_Pulsed_Doppler/Libraries/CMSIS/Include\cmsis_gcc.h **** 
 541:C:/Users/Utente/Desktop/Tesi/Firmware_Software/DAVE project/S2GLP_Pulsed_Doppler/Libraries/CMSIS/Include\cmsis_gcc.h **** /**
 542:C:/Users/Utente/Desktop/Tesi/Firmware_Software/DAVE project/S2GLP_Pulsed_Doppler/Libraries/CMSIS/Include\cmsis_gcc.h ****   \brief   Set Process Stack Pointer Limit
 543:C:/Users/Utente/Desktop/Tesi/Firmware_Software/DAVE project/S2GLP_Pulsed_Doppler/Libraries/CMSIS/Include\cmsis_gcc.h ****   \details Assigns the given value to the Process Stack Pointer Limit (PSPLIM).
 544:C:/Users/Utente/Desktop/Tesi/Firmware_Software/DAVE project/S2GLP_Pulsed_Doppler/Libraries/CMSIS/Include\cmsis_gcc.h ****   \param [in]    ProcStackPtrLimit  Process Stack Pointer Limit value to set
 545:C:/Users/Utente/Desktop/Tesi/Firmware_Software/DAVE project/S2GLP_Pulsed_Doppler/Libraries/CMSIS/Include\cmsis_gcc.h ****  */
 546:C:/Users/Utente/Desktop/Tesi/Firmware_Software/DAVE project/S2GLP_Pulsed_Doppler/Libraries/CMSIS/Include\cmsis_gcc.h **** __attribute__((always_inline)) __STATIC_INLINE void __set_PSPLIM(uint32_t ProcStackPtrLimit)
 547:C:/Users/Utente/Desktop/Tesi/Firmware_Software/DAVE project/S2GLP_Pulsed_Doppler/Libraries/CMSIS/Include\cmsis_gcc.h **** {
 548:C:/Users/Utente/Desktop/Tesi/Firmware_Software/DAVE project/S2GLP_Pulsed_Doppler/Libraries/CMSIS/Include\cmsis_gcc.h ****   __ASM volatile ("MSR psplim, %0" : : "r" (ProcStackPtrLimit));
 549:C:/Users/Utente/Desktop/Tesi/Firmware_Software/DAVE project/S2GLP_Pulsed_Doppler/Libraries/CMSIS/Include\cmsis_gcc.h **** }
 550:C:/Users/Utente/Desktop/Tesi/Firmware_Software/DAVE project/S2GLP_Pulsed_Doppler/Libraries/CMSIS/Include\cmsis_gcc.h **** 
 551:C:/Users/Utente/Desktop/Tesi/Firmware_Software/DAVE project/S2GLP_Pulsed_Doppler/Libraries/CMSIS/Include\cmsis_gcc.h **** 
 552:C:/Users/Utente/Desktop/Tesi/Firmware_Software/DAVE project/S2GLP_Pulsed_Doppler/Libraries/CMSIS/Include\cmsis_gcc.h **** #if ((defined (__ARM_FEATURE_CMSE  ) && (__ARM_FEATURE_CMSE   == 3)) && \
 553:C:/Users/Utente/Desktop/Tesi/Firmware_Software/DAVE project/S2GLP_Pulsed_Doppler/Libraries/CMSIS/Include\cmsis_gcc.h ****      (defined (__ARM_ARCH_8M_MAIN__) && (__ARM_ARCH_8M_MAIN__ == 1))    )
 554:C:/Users/Utente/Desktop/Tesi/Firmware_Software/DAVE project/S2GLP_Pulsed_Doppler/Libraries/CMSIS/Include\cmsis_gcc.h **** /**
 555:C:/Users/Utente/Desktop/Tesi/Firmware_Software/DAVE project/S2GLP_Pulsed_Doppler/Libraries/CMSIS/Include\cmsis_gcc.h ****   \brief   Set Process Stack Pointer (non-secure)
 556:C:/Users/Utente/Desktop/Tesi/Firmware_Software/DAVE project/S2GLP_Pulsed_Doppler/Libraries/CMSIS/Include\cmsis_gcc.h ****   \details Assigns the given value to the non-secure Process Stack Pointer Limit (PSPLIM) when in s
 557:C:/Users/Utente/Desktop/Tesi/Firmware_Software/DAVE project/S2GLP_Pulsed_Doppler/Libraries/CMSIS/Include\cmsis_gcc.h ****   \param [in]    ProcStackPtrLimit  Process Stack Pointer Limit value to set
 558:C:/Users/Utente/Desktop/Tesi/Firmware_Software/DAVE project/S2GLP_Pulsed_Doppler/Libraries/CMSIS/Include\cmsis_gcc.h ****  */
 559:C:/Users/Utente/Desktop/Tesi/Firmware_Software/DAVE project/S2GLP_Pulsed_Doppler/Libraries/CMSIS/Include\cmsis_gcc.h **** __attribute__((always_inline)) __STATIC_INLINE void __TZ_set_PSPLIM_NS(uint32_t ProcStackPtrLimit)
 560:C:/Users/Utente/Desktop/Tesi/Firmware_Software/DAVE project/S2GLP_Pulsed_Doppler/Libraries/CMSIS/Include\cmsis_gcc.h **** {
 561:C:/Users/Utente/Desktop/Tesi/Firmware_Software/DAVE project/S2GLP_Pulsed_Doppler/Libraries/CMSIS/Include\cmsis_gcc.h ****   __ASM volatile ("MSR psplim_ns, %0\n" : : "r" (ProcStackPtrLimit));
 562:C:/Users/Utente/Desktop/Tesi/Firmware_Software/DAVE project/S2GLP_Pulsed_Doppler/Libraries/CMSIS/Include\cmsis_gcc.h **** }
 563:C:/Users/Utente/Desktop/Tesi/Firmware_Software/DAVE project/S2GLP_Pulsed_Doppler/Libraries/CMSIS/Include\cmsis_gcc.h **** #endif
 564:C:/Users/Utente/Desktop/Tesi/Firmware_Software/DAVE project/S2GLP_Pulsed_Doppler/Libraries/CMSIS/Include\cmsis_gcc.h **** 
 565:C:/Users/Utente/Desktop/Tesi/Firmware_Software/DAVE project/S2GLP_Pulsed_Doppler/Libraries/CMSIS/Include\cmsis_gcc.h **** 
 566:C:/Users/Utente/Desktop/Tesi/Firmware_Software/DAVE project/S2GLP_Pulsed_Doppler/Libraries/CMSIS/Include\cmsis_gcc.h **** /**
 567:C:/Users/Utente/Desktop/Tesi/Firmware_Software/DAVE project/S2GLP_Pulsed_Doppler/Libraries/CMSIS/Include\cmsis_gcc.h ****   \brief   Get Main Stack Pointer Limit
 568:C:/Users/Utente/Desktop/Tesi/Firmware_Software/DAVE project/S2GLP_Pulsed_Doppler/Libraries/CMSIS/Include\cmsis_gcc.h ****   \details Returns the current value of the Main Stack Pointer Limit (MSPLIM).
 569:C:/Users/Utente/Desktop/Tesi/Firmware_Software/DAVE project/S2GLP_Pulsed_Doppler/Libraries/CMSIS/Include\cmsis_gcc.h ****   \return               MSPLIM Register value
 570:C:/Users/Utente/Desktop/Tesi/Firmware_Software/DAVE project/S2GLP_Pulsed_Doppler/Libraries/CMSIS/Include\cmsis_gcc.h ****  */
 571:C:/Users/Utente/Desktop/Tesi/Firmware_Software/DAVE project/S2GLP_Pulsed_Doppler/Libraries/CMSIS/Include\cmsis_gcc.h **** __attribute__((always_inline)) __STATIC_INLINE uint32_t __get_MSPLIM(void)
 572:C:/Users/Utente/Desktop/Tesi/Firmware_Software/DAVE project/S2GLP_Pulsed_Doppler/Libraries/CMSIS/Include\cmsis_gcc.h **** {
 573:C:/Users/Utente/Desktop/Tesi/Firmware_Software/DAVE project/S2GLP_Pulsed_Doppler/Libraries/CMSIS/Include\cmsis_gcc.h ****   register uint32_t result;
 574:C:/Users/Utente/Desktop/Tesi/Firmware_Software/DAVE project/S2GLP_Pulsed_Doppler/Libraries/CMSIS/Include\cmsis_gcc.h **** 
 575:C:/Users/Utente/Desktop/Tesi/Firmware_Software/DAVE project/S2GLP_Pulsed_Doppler/Libraries/CMSIS/Include\cmsis_gcc.h ****   __ASM volatile ("MRS %0, msplim" : "=r" (result) );
 576:C:/Users/Utente/Desktop/Tesi/Firmware_Software/DAVE project/S2GLP_Pulsed_Doppler/Libraries/CMSIS/Include\cmsis_gcc.h **** 
 577:C:/Users/Utente/Desktop/Tesi/Firmware_Software/DAVE project/S2GLP_Pulsed_Doppler/Libraries/CMSIS/Include\cmsis_gcc.h ****   return(result);
 578:C:/Users/Utente/Desktop/Tesi/Firmware_Software/DAVE project/S2GLP_Pulsed_Doppler/Libraries/CMSIS/Include\cmsis_gcc.h **** }
 579:C:/Users/Utente/Desktop/Tesi/Firmware_Software/DAVE project/S2GLP_Pulsed_Doppler/Libraries/CMSIS/Include\cmsis_gcc.h **** 
 580:C:/Users/Utente/Desktop/Tesi/Firmware_Software/DAVE project/S2GLP_Pulsed_Doppler/Libraries/CMSIS/Include\cmsis_gcc.h **** 
 581:C:/Users/Utente/Desktop/Tesi/Firmware_Software/DAVE project/S2GLP_Pulsed_Doppler/Libraries/CMSIS/Include\cmsis_gcc.h **** #if ((defined (__ARM_FEATURE_CMSE  ) && (__ARM_FEATURE_CMSE   == 3)) && \
 582:C:/Users/Utente/Desktop/Tesi/Firmware_Software/DAVE project/S2GLP_Pulsed_Doppler/Libraries/CMSIS/Include\cmsis_gcc.h ****      (defined (__ARM_ARCH_8M_MAIN__) && (__ARM_ARCH_8M_MAIN__ == 1))    )
 583:C:/Users/Utente/Desktop/Tesi/Firmware_Software/DAVE project/S2GLP_Pulsed_Doppler/Libraries/CMSIS/Include\cmsis_gcc.h **** /**
 584:C:/Users/Utente/Desktop/Tesi/Firmware_Software/DAVE project/S2GLP_Pulsed_Doppler/Libraries/CMSIS/Include\cmsis_gcc.h ****   \brief   Get Main Stack Pointer Limit (non-secure)
 585:C:/Users/Utente/Desktop/Tesi/Firmware_Software/DAVE project/S2GLP_Pulsed_Doppler/Libraries/CMSIS/Include\cmsis_gcc.h ****   \details Returns the current value of the non-secure Main Stack Pointer Limit(MSPLIM) when in sec
 586:C:/Users/Utente/Desktop/Tesi/Firmware_Software/DAVE project/S2GLP_Pulsed_Doppler/Libraries/CMSIS/Include\cmsis_gcc.h ****   \return               MSPLIM Register value
 587:C:/Users/Utente/Desktop/Tesi/Firmware_Software/DAVE project/S2GLP_Pulsed_Doppler/Libraries/CMSIS/Include\cmsis_gcc.h ****  */
 588:C:/Users/Utente/Desktop/Tesi/Firmware_Software/DAVE project/S2GLP_Pulsed_Doppler/Libraries/CMSIS/Include\cmsis_gcc.h **** __attribute__((always_inline)) __STATIC_INLINE uint32_t __TZ_get_MSPLIM_NS(void)
 589:C:/Users/Utente/Desktop/Tesi/Firmware_Software/DAVE project/S2GLP_Pulsed_Doppler/Libraries/CMSIS/Include\cmsis_gcc.h **** {
 590:C:/Users/Utente/Desktop/Tesi/Firmware_Software/DAVE project/S2GLP_Pulsed_Doppler/Libraries/CMSIS/Include\cmsis_gcc.h ****   register uint32_t result;
 591:C:/Users/Utente/Desktop/Tesi/Firmware_Software/DAVE project/S2GLP_Pulsed_Doppler/Libraries/CMSIS/Include\cmsis_gcc.h **** 
 592:C:/Users/Utente/Desktop/Tesi/Firmware_Software/DAVE project/S2GLP_Pulsed_Doppler/Libraries/CMSIS/Include\cmsis_gcc.h ****   __ASM volatile ("MRS %0, msplim_ns" : "=r" (result) );
 593:C:/Users/Utente/Desktop/Tesi/Firmware_Software/DAVE project/S2GLP_Pulsed_Doppler/Libraries/CMSIS/Include\cmsis_gcc.h ****   return(result);
 594:C:/Users/Utente/Desktop/Tesi/Firmware_Software/DAVE project/S2GLP_Pulsed_Doppler/Libraries/CMSIS/Include\cmsis_gcc.h **** }
 595:C:/Users/Utente/Desktop/Tesi/Firmware_Software/DAVE project/S2GLP_Pulsed_Doppler/Libraries/CMSIS/Include\cmsis_gcc.h **** #endif
 596:C:/Users/Utente/Desktop/Tesi/Firmware_Software/DAVE project/S2GLP_Pulsed_Doppler/Libraries/CMSIS/Include\cmsis_gcc.h **** 
 597:C:/Users/Utente/Desktop/Tesi/Firmware_Software/DAVE project/S2GLP_Pulsed_Doppler/Libraries/CMSIS/Include\cmsis_gcc.h **** 
 598:C:/Users/Utente/Desktop/Tesi/Firmware_Software/DAVE project/S2GLP_Pulsed_Doppler/Libraries/CMSIS/Include\cmsis_gcc.h **** /**
 599:C:/Users/Utente/Desktop/Tesi/Firmware_Software/DAVE project/S2GLP_Pulsed_Doppler/Libraries/CMSIS/Include\cmsis_gcc.h ****   \brief   Set Main Stack Pointer Limit
 600:C:/Users/Utente/Desktop/Tesi/Firmware_Software/DAVE project/S2GLP_Pulsed_Doppler/Libraries/CMSIS/Include\cmsis_gcc.h ****   \details Assigns the given value to the Main Stack Pointer Limit (MSPLIM).
 601:C:/Users/Utente/Desktop/Tesi/Firmware_Software/DAVE project/S2GLP_Pulsed_Doppler/Libraries/CMSIS/Include\cmsis_gcc.h ****   \param [in]    MainStackPtrLimit  Main Stack Pointer Limit value to set
 602:C:/Users/Utente/Desktop/Tesi/Firmware_Software/DAVE project/S2GLP_Pulsed_Doppler/Libraries/CMSIS/Include\cmsis_gcc.h ****  */
 603:C:/Users/Utente/Desktop/Tesi/Firmware_Software/DAVE project/S2GLP_Pulsed_Doppler/Libraries/CMSIS/Include\cmsis_gcc.h **** __attribute__((always_inline)) __STATIC_INLINE void __set_MSPLIM(uint32_t MainStackPtrLimit)
 604:C:/Users/Utente/Desktop/Tesi/Firmware_Software/DAVE project/S2GLP_Pulsed_Doppler/Libraries/CMSIS/Include\cmsis_gcc.h **** {
 605:C:/Users/Utente/Desktop/Tesi/Firmware_Software/DAVE project/S2GLP_Pulsed_Doppler/Libraries/CMSIS/Include\cmsis_gcc.h ****   __ASM volatile ("MSR msplim, %0" : : "r" (MainStackPtrLimit));
 606:C:/Users/Utente/Desktop/Tesi/Firmware_Software/DAVE project/S2GLP_Pulsed_Doppler/Libraries/CMSIS/Include\cmsis_gcc.h **** }
 607:C:/Users/Utente/Desktop/Tesi/Firmware_Software/DAVE project/S2GLP_Pulsed_Doppler/Libraries/CMSIS/Include\cmsis_gcc.h **** 
 608:C:/Users/Utente/Desktop/Tesi/Firmware_Software/DAVE project/S2GLP_Pulsed_Doppler/Libraries/CMSIS/Include\cmsis_gcc.h **** 
 609:C:/Users/Utente/Desktop/Tesi/Firmware_Software/DAVE project/S2GLP_Pulsed_Doppler/Libraries/CMSIS/Include\cmsis_gcc.h **** #if ((defined (__ARM_FEATURE_CMSE  ) && (__ARM_FEATURE_CMSE   == 3)) && \
 610:C:/Users/Utente/Desktop/Tesi/Firmware_Software/DAVE project/S2GLP_Pulsed_Doppler/Libraries/CMSIS/Include\cmsis_gcc.h ****      (defined (__ARM_ARCH_8M_MAIN__) && (__ARM_ARCH_8M_MAIN__ == 1))    )
 611:C:/Users/Utente/Desktop/Tesi/Firmware_Software/DAVE project/S2GLP_Pulsed_Doppler/Libraries/CMSIS/Include\cmsis_gcc.h **** /**
 612:C:/Users/Utente/Desktop/Tesi/Firmware_Software/DAVE project/S2GLP_Pulsed_Doppler/Libraries/CMSIS/Include\cmsis_gcc.h ****   \brief   Set Main Stack Pointer Limit (non-secure)
 613:C:/Users/Utente/Desktop/Tesi/Firmware_Software/DAVE project/S2GLP_Pulsed_Doppler/Libraries/CMSIS/Include\cmsis_gcc.h ****   \details Assigns the given value to the non-secure Main Stack Pointer Limit (MSPLIM) when in secu
 614:C:/Users/Utente/Desktop/Tesi/Firmware_Software/DAVE project/S2GLP_Pulsed_Doppler/Libraries/CMSIS/Include\cmsis_gcc.h ****   \param [in]    MainStackPtrLimit  Main Stack Pointer value to set
 615:C:/Users/Utente/Desktop/Tesi/Firmware_Software/DAVE project/S2GLP_Pulsed_Doppler/Libraries/CMSIS/Include\cmsis_gcc.h ****  */
 616:C:/Users/Utente/Desktop/Tesi/Firmware_Software/DAVE project/S2GLP_Pulsed_Doppler/Libraries/CMSIS/Include\cmsis_gcc.h **** __attribute__((always_inline)) __STATIC_INLINE void __TZ_set_MSPLIM_NS(uint32_t MainStackPtrLimit)
 617:C:/Users/Utente/Desktop/Tesi/Firmware_Software/DAVE project/S2GLP_Pulsed_Doppler/Libraries/CMSIS/Include\cmsis_gcc.h **** {
 618:C:/Users/Utente/Desktop/Tesi/Firmware_Software/DAVE project/S2GLP_Pulsed_Doppler/Libraries/CMSIS/Include\cmsis_gcc.h ****   __ASM volatile ("MSR msplim_ns, %0" : : "r" (MainStackPtrLimit));
 619:C:/Users/Utente/Desktop/Tesi/Firmware_Software/DAVE project/S2GLP_Pulsed_Doppler/Libraries/CMSIS/Include\cmsis_gcc.h **** }
 620:C:/Users/Utente/Desktop/Tesi/Firmware_Software/DAVE project/S2GLP_Pulsed_Doppler/Libraries/CMSIS/Include\cmsis_gcc.h **** #endif
 621:C:/Users/Utente/Desktop/Tesi/Firmware_Software/DAVE project/S2GLP_Pulsed_Doppler/Libraries/CMSIS/Include\cmsis_gcc.h **** 
 622:C:/Users/Utente/Desktop/Tesi/Firmware_Software/DAVE project/S2GLP_Pulsed_Doppler/Libraries/CMSIS/Include\cmsis_gcc.h **** #endif /* ((defined (__ARM_ARCH_8M_MAIN__ ) && (__ARM_ARCH_8M_MAIN__ == 1)) || \
 623:C:/Users/Utente/Desktop/Tesi/Firmware_Software/DAVE project/S2GLP_Pulsed_Doppler/Libraries/CMSIS/Include\cmsis_gcc.h ****            (defined (__ARM_ARCH_8M_BASE__ ) && (__ARM_ARCH_8M_BASE__ == 1))    ) */
 624:C:/Users/Utente/Desktop/Tesi/Firmware_Software/DAVE project/S2GLP_Pulsed_Doppler/Libraries/CMSIS/Include\cmsis_gcc.h **** 
 625:C:/Users/Utente/Desktop/Tesi/Firmware_Software/DAVE project/S2GLP_Pulsed_Doppler/Libraries/CMSIS/Include\cmsis_gcc.h **** 
 626:C:/Users/Utente/Desktop/Tesi/Firmware_Software/DAVE project/S2GLP_Pulsed_Doppler/Libraries/CMSIS/Include\cmsis_gcc.h **** #if ((defined (__ARM_ARCH_7EM__     ) && (__ARM_ARCH_7EM__     == 1)) || \
 627:C:/Users/Utente/Desktop/Tesi/Firmware_Software/DAVE project/S2GLP_Pulsed_Doppler/Libraries/CMSIS/Include\cmsis_gcc.h ****      (defined (__ARM_ARCH_8M_MAIN__ ) && (__ARM_ARCH_8M_MAIN__ == 1))    )
 628:C:/Users/Utente/Desktop/Tesi/Firmware_Software/DAVE project/S2GLP_Pulsed_Doppler/Libraries/CMSIS/Include\cmsis_gcc.h **** 
 629:C:/Users/Utente/Desktop/Tesi/Firmware_Software/DAVE project/S2GLP_Pulsed_Doppler/Libraries/CMSIS/Include\cmsis_gcc.h **** /**
 630:C:/Users/Utente/Desktop/Tesi/Firmware_Software/DAVE project/S2GLP_Pulsed_Doppler/Libraries/CMSIS/Include\cmsis_gcc.h ****   \brief   Get FPSCR
 631:C:/Users/Utente/Desktop/Tesi/Firmware_Software/DAVE project/S2GLP_Pulsed_Doppler/Libraries/CMSIS/Include\cmsis_gcc.h ****   \details Returns the current value of the Floating Point Status/Control register.
 632:C:/Users/Utente/Desktop/Tesi/Firmware_Software/DAVE project/S2GLP_Pulsed_Doppler/Libraries/CMSIS/Include\cmsis_gcc.h ****   \return               Floating Point Status/Control register value
 633:C:/Users/Utente/Desktop/Tesi/Firmware_Software/DAVE project/S2GLP_Pulsed_Doppler/Libraries/CMSIS/Include\cmsis_gcc.h ****  */
 634:C:/Users/Utente/Desktop/Tesi/Firmware_Software/DAVE project/S2GLP_Pulsed_Doppler/Libraries/CMSIS/Include\cmsis_gcc.h **** __attribute__((always_inline)) __STATIC_INLINE uint32_t __get_FPSCR(void)
 635:C:/Users/Utente/Desktop/Tesi/Firmware_Software/DAVE project/S2GLP_Pulsed_Doppler/Libraries/CMSIS/Include\cmsis_gcc.h **** {
 636:C:/Users/Utente/Desktop/Tesi/Firmware_Software/DAVE project/S2GLP_Pulsed_Doppler/Libraries/CMSIS/Include\cmsis_gcc.h **** #if ((defined (__FPU_PRESENT) && (__FPU_PRESENT == 1U)) && \
 637:C:/Users/Utente/Desktop/Tesi/Firmware_Software/DAVE project/S2GLP_Pulsed_Doppler/Libraries/CMSIS/Include\cmsis_gcc.h ****      (defined (__FPU_USED   ) && (__FPU_USED    == 1U))     )
 638:C:/Users/Utente/Desktop/Tesi/Firmware_Software/DAVE project/S2GLP_Pulsed_Doppler/Libraries/CMSIS/Include\cmsis_gcc.h ****   uint32_t result;
 639:C:/Users/Utente/Desktop/Tesi/Firmware_Software/DAVE project/S2GLP_Pulsed_Doppler/Libraries/CMSIS/Include\cmsis_gcc.h **** 
 640:C:/Users/Utente/Desktop/Tesi/Firmware_Software/DAVE project/S2GLP_Pulsed_Doppler/Libraries/CMSIS/Include\cmsis_gcc.h ****   __ASM volatile ("VMRS %0, fpscr" : "=r" (result) );
 641:C:/Users/Utente/Desktop/Tesi/Firmware_Software/DAVE project/S2GLP_Pulsed_Doppler/Libraries/CMSIS/Include\cmsis_gcc.h ****   return(result);
 642:C:/Users/Utente/Desktop/Tesi/Firmware_Software/DAVE project/S2GLP_Pulsed_Doppler/Libraries/CMSIS/Include\cmsis_gcc.h **** #else
 643:C:/Users/Utente/Desktop/Tesi/Firmware_Software/DAVE project/S2GLP_Pulsed_Doppler/Libraries/CMSIS/Include\cmsis_gcc.h ****    return(0U);
 644:C:/Users/Utente/Desktop/Tesi/Firmware_Software/DAVE project/S2GLP_Pulsed_Doppler/Libraries/CMSIS/Include\cmsis_gcc.h **** #endif
 645:C:/Users/Utente/Desktop/Tesi/Firmware_Software/DAVE project/S2GLP_Pulsed_Doppler/Libraries/CMSIS/Include\cmsis_gcc.h **** }
 646:C:/Users/Utente/Desktop/Tesi/Firmware_Software/DAVE project/S2GLP_Pulsed_Doppler/Libraries/CMSIS/Include\cmsis_gcc.h **** 
 647:C:/Users/Utente/Desktop/Tesi/Firmware_Software/DAVE project/S2GLP_Pulsed_Doppler/Libraries/CMSIS/Include\cmsis_gcc.h **** 
 648:C:/Users/Utente/Desktop/Tesi/Firmware_Software/DAVE project/S2GLP_Pulsed_Doppler/Libraries/CMSIS/Include\cmsis_gcc.h **** /**
 649:C:/Users/Utente/Desktop/Tesi/Firmware_Software/DAVE project/S2GLP_Pulsed_Doppler/Libraries/CMSIS/Include\cmsis_gcc.h ****   \brief   Set FPSCR
 650:C:/Users/Utente/Desktop/Tesi/Firmware_Software/DAVE project/S2GLP_Pulsed_Doppler/Libraries/CMSIS/Include\cmsis_gcc.h ****   \details Assigns the given value to the Floating Point Status/Control register.
 651:C:/Users/Utente/Desktop/Tesi/Firmware_Software/DAVE project/S2GLP_Pulsed_Doppler/Libraries/CMSIS/Include\cmsis_gcc.h ****   \param [in]    fpscr  Floating Point Status/Control value to set
 652:C:/Users/Utente/Desktop/Tesi/Firmware_Software/DAVE project/S2GLP_Pulsed_Doppler/Libraries/CMSIS/Include\cmsis_gcc.h ****  */
 653:C:/Users/Utente/Desktop/Tesi/Firmware_Software/DAVE project/S2GLP_Pulsed_Doppler/Libraries/CMSIS/Include\cmsis_gcc.h **** __attribute__((always_inline)) __STATIC_INLINE void __set_FPSCR(uint32_t fpscr)
 654:C:/Users/Utente/Desktop/Tesi/Firmware_Software/DAVE project/S2GLP_Pulsed_Doppler/Libraries/CMSIS/Include\cmsis_gcc.h **** {
 655:C:/Users/Utente/Desktop/Tesi/Firmware_Software/DAVE project/S2GLP_Pulsed_Doppler/Libraries/CMSIS/Include\cmsis_gcc.h **** #if ((defined (__FPU_PRESENT) && (__FPU_PRESENT == 1U)) && \
 656:C:/Users/Utente/Desktop/Tesi/Firmware_Software/DAVE project/S2GLP_Pulsed_Doppler/Libraries/CMSIS/Include\cmsis_gcc.h ****      (defined (__FPU_USED   ) && (__FPU_USED    == 1U))     )
 657:C:/Users/Utente/Desktop/Tesi/Firmware_Software/DAVE project/S2GLP_Pulsed_Doppler/Libraries/CMSIS/Include\cmsis_gcc.h ****   __ASM volatile ("VMSR fpscr, %0" : : "r" (fpscr) : "vfpcc", "memory");
 658:C:/Users/Utente/Desktop/Tesi/Firmware_Software/DAVE project/S2GLP_Pulsed_Doppler/Libraries/CMSIS/Include\cmsis_gcc.h **** #else
 659:C:/Users/Utente/Desktop/Tesi/Firmware_Software/DAVE project/S2GLP_Pulsed_Doppler/Libraries/CMSIS/Include\cmsis_gcc.h ****   (void)fpscr;
 660:C:/Users/Utente/Desktop/Tesi/Firmware_Software/DAVE project/S2GLP_Pulsed_Doppler/Libraries/CMSIS/Include\cmsis_gcc.h **** #endif
 661:C:/Users/Utente/Desktop/Tesi/Firmware_Software/DAVE project/S2GLP_Pulsed_Doppler/Libraries/CMSIS/Include\cmsis_gcc.h **** }
 662:C:/Users/Utente/Desktop/Tesi/Firmware_Software/DAVE project/S2GLP_Pulsed_Doppler/Libraries/CMSIS/Include\cmsis_gcc.h **** 
 663:C:/Users/Utente/Desktop/Tesi/Firmware_Software/DAVE project/S2GLP_Pulsed_Doppler/Libraries/CMSIS/Include\cmsis_gcc.h **** #endif /* ((defined (__ARM_ARCH_7EM__     ) && (__ARM_ARCH_7EM__     == 1)) || \
 664:C:/Users/Utente/Desktop/Tesi/Firmware_Software/DAVE project/S2GLP_Pulsed_Doppler/Libraries/CMSIS/Include\cmsis_gcc.h ****            (defined (__ARM_ARCH_8M_MAIN__ ) && (__ARM_ARCH_8M_MAIN__ == 1))    ) */
 665:C:/Users/Utente/Desktop/Tesi/Firmware_Software/DAVE project/S2GLP_Pulsed_Doppler/Libraries/CMSIS/Include\cmsis_gcc.h **** 
 666:C:/Users/Utente/Desktop/Tesi/Firmware_Software/DAVE project/S2GLP_Pulsed_Doppler/Libraries/CMSIS/Include\cmsis_gcc.h **** 
 667:C:/Users/Utente/Desktop/Tesi/Firmware_Software/DAVE project/S2GLP_Pulsed_Doppler/Libraries/CMSIS/Include\cmsis_gcc.h **** 
 668:C:/Users/Utente/Desktop/Tesi/Firmware_Software/DAVE project/S2GLP_Pulsed_Doppler/Libraries/CMSIS/Include\cmsis_gcc.h **** /*@} end of CMSIS_Core_RegAccFunctions */
 669:C:/Users/Utente/Desktop/Tesi/Firmware_Software/DAVE project/S2GLP_Pulsed_Doppler/Libraries/CMSIS/Include\cmsis_gcc.h **** 
 670:C:/Users/Utente/Desktop/Tesi/Firmware_Software/DAVE project/S2GLP_Pulsed_Doppler/Libraries/CMSIS/Include\cmsis_gcc.h **** 
 671:C:/Users/Utente/Desktop/Tesi/Firmware_Software/DAVE project/S2GLP_Pulsed_Doppler/Libraries/CMSIS/Include\cmsis_gcc.h **** /* ##########################  Core Instruction Access  ######################### */
 672:C:/Users/Utente/Desktop/Tesi/Firmware_Software/DAVE project/S2GLP_Pulsed_Doppler/Libraries/CMSIS/Include\cmsis_gcc.h **** /** \defgroup CMSIS_Core_InstructionInterface CMSIS Core Instruction Interface
 673:C:/Users/Utente/Desktop/Tesi/Firmware_Software/DAVE project/S2GLP_Pulsed_Doppler/Libraries/CMSIS/Include\cmsis_gcc.h ****   Access to dedicated instructions
 674:C:/Users/Utente/Desktop/Tesi/Firmware_Software/DAVE project/S2GLP_Pulsed_Doppler/Libraries/CMSIS/Include\cmsis_gcc.h ****   @{
 675:C:/Users/Utente/Desktop/Tesi/Firmware_Software/DAVE project/S2GLP_Pulsed_Doppler/Libraries/CMSIS/Include\cmsis_gcc.h **** */
 676:C:/Users/Utente/Desktop/Tesi/Firmware_Software/DAVE project/S2GLP_Pulsed_Doppler/Libraries/CMSIS/Include\cmsis_gcc.h **** 
 677:C:/Users/Utente/Desktop/Tesi/Firmware_Software/DAVE project/S2GLP_Pulsed_Doppler/Libraries/CMSIS/Include\cmsis_gcc.h **** /* Define macros for porting to both thumb1 and thumb2.
 678:C:/Users/Utente/Desktop/Tesi/Firmware_Software/DAVE project/S2GLP_Pulsed_Doppler/Libraries/CMSIS/Include\cmsis_gcc.h ****  * For thumb1, use low register (r0-r7), specified by constraint "l"
 679:C:/Users/Utente/Desktop/Tesi/Firmware_Software/DAVE project/S2GLP_Pulsed_Doppler/Libraries/CMSIS/Include\cmsis_gcc.h ****  * Otherwise, use general registers, specified by constraint "r" */
 680:C:/Users/Utente/Desktop/Tesi/Firmware_Software/DAVE project/S2GLP_Pulsed_Doppler/Libraries/CMSIS/Include\cmsis_gcc.h **** #if defined (__thumb__) && !defined (__thumb2__)
 681:C:/Users/Utente/Desktop/Tesi/Firmware_Software/DAVE project/S2GLP_Pulsed_Doppler/Libraries/CMSIS/Include\cmsis_gcc.h **** #define __CMSIS_GCC_OUT_REG(r) "=l" (r)
 682:C:/Users/Utente/Desktop/Tesi/Firmware_Software/DAVE project/S2GLP_Pulsed_Doppler/Libraries/CMSIS/Include\cmsis_gcc.h **** #define __CMSIS_GCC_RW_REG(r) "+l" (r)
 683:C:/Users/Utente/Desktop/Tesi/Firmware_Software/DAVE project/S2GLP_Pulsed_Doppler/Libraries/CMSIS/Include\cmsis_gcc.h **** #define __CMSIS_GCC_USE_REG(r) "l" (r)
 684:C:/Users/Utente/Desktop/Tesi/Firmware_Software/DAVE project/S2GLP_Pulsed_Doppler/Libraries/CMSIS/Include\cmsis_gcc.h **** #else
 685:C:/Users/Utente/Desktop/Tesi/Firmware_Software/DAVE project/S2GLP_Pulsed_Doppler/Libraries/CMSIS/Include\cmsis_gcc.h **** #define __CMSIS_GCC_OUT_REG(r) "=r" (r)
 686:C:/Users/Utente/Desktop/Tesi/Firmware_Software/DAVE project/S2GLP_Pulsed_Doppler/Libraries/CMSIS/Include\cmsis_gcc.h **** #define __CMSIS_GCC_RW_REG(r) "+r" (r)
 687:C:/Users/Utente/Desktop/Tesi/Firmware_Software/DAVE project/S2GLP_Pulsed_Doppler/Libraries/CMSIS/Include\cmsis_gcc.h **** #define __CMSIS_GCC_USE_REG(r) "r" (r)
 688:C:/Users/Utente/Desktop/Tesi/Firmware_Software/DAVE project/S2GLP_Pulsed_Doppler/Libraries/CMSIS/Include\cmsis_gcc.h **** #endif
 689:C:/Users/Utente/Desktop/Tesi/Firmware_Software/DAVE project/S2GLP_Pulsed_Doppler/Libraries/CMSIS/Include\cmsis_gcc.h **** 
 690:C:/Users/Utente/Desktop/Tesi/Firmware_Software/DAVE project/S2GLP_Pulsed_Doppler/Libraries/CMSIS/Include\cmsis_gcc.h **** /**
 691:C:/Users/Utente/Desktop/Tesi/Firmware_Software/DAVE project/S2GLP_Pulsed_Doppler/Libraries/CMSIS/Include\cmsis_gcc.h ****   \brief   No Operation
 692:C:/Users/Utente/Desktop/Tesi/Firmware_Software/DAVE project/S2GLP_Pulsed_Doppler/Libraries/CMSIS/Include\cmsis_gcc.h ****   \details No Operation does nothing. This instruction can be used for code alignment purposes.
 693:C:/Users/Utente/Desktop/Tesi/Firmware_Software/DAVE project/S2GLP_Pulsed_Doppler/Libraries/CMSIS/Include\cmsis_gcc.h ****  */
 694:C:/Users/Utente/Desktop/Tesi/Firmware_Software/DAVE project/S2GLP_Pulsed_Doppler/Libraries/CMSIS/Include\cmsis_gcc.h **** //__attribute__((always_inline)) __STATIC_INLINE void __NOP(void)
 695:C:/Users/Utente/Desktop/Tesi/Firmware_Software/DAVE project/S2GLP_Pulsed_Doppler/Libraries/CMSIS/Include\cmsis_gcc.h **** //{
 696:C:/Users/Utente/Desktop/Tesi/Firmware_Software/DAVE project/S2GLP_Pulsed_Doppler/Libraries/CMSIS/Include\cmsis_gcc.h **** //  __ASM volatile ("nop");
 697:C:/Users/Utente/Desktop/Tesi/Firmware_Software/DAVE project/S2GLP_Pulsed_Doppler/Libraries/CMSIS/Include\cmsis_gcc.h **** //}
 698:C:/Users/Utente/Desktop/Tesi/Firmware_Software/DAVE project/S2GLP_Pulsed_Doppler/Libraries/CMSIS/Include\cmsis_gcc.h **** #define __NOP()                             __ASM volatile ("nop")       /* This implementation gen
 699:C:/Users/Utente/Desktop/Tesi/Firmware_Software/DAVE project/S2GLP_Pulsed_Doppler/Libraries/CMSIS/Include\cmsis_gcc.h **** 
 700:C:/Users/Utente/Desktop/Tesi/Firmware_Software/DAVE project/S2GLP_Pulsed_Doppler/Libraries/CMSIS/Include\cmsis_gcc.h **** /**
 701:C:/Users/Utente/Desktop/Tesi/Firmware_Software/DAVE project/S2GLP_Pulsed_Doppler/Libraries/CMSIS/Include\cmsis_gcc.h ****   \brief   Wait For Interrupt
 702:C:/Users/Utente/Desktop/Tesi/Firmware_Software/DAVE project/S2GLP_Pulsed_Doppler/Libraries/CMSIS/Include\cmsis_gcc.h ****   \details Wait For Interrupt is a hint instruction that suspends execution until one of a number o
 703:C:/Users/Utente/Desktop/Tesi/Firmware_Software/DAVE project/S2GLP_Pulsed_Doppler/Libraries/CMSIS/Include\cmsis_gcc.h ****  */
 704:C:/Users/Utente/Desktop/Tesi/Firmware_Software/DAVE project/S2GLP_Pulsed_Doppler/Libraries/CMSIS/Include\cmsis_gcc.h **** //__attribute__((always_inline)) __STATIC_INLINE void __WFI(void)
 705:C:/Users/Utente/Desktop/Tesi/Firmware_Software/DAVE project/S2GLP_Pulsed_Doppler/Libraries/CMSIS/Include\cmsis_gcc.h **** //{
 706:C:/Users/Utente/Desktop/Tesi/Firmware_Software/DAVE project/S2GLP_Pulsed_Doppler/Libraries/CMSIS/Include\cmsis_gcc.h **** //  __ASM volatile ("wfi");
 707:C:/Users/Utente/Desktop/Tesi/Firmware_Software/DAVE project/S2GLP_Pulsed_Doppler/Libraries/CMSIS/Include\cmsis_gcc.h **** //}
 708:C:/Users/Utente/Desktop/Tesi/Firmware_Software/DAVE project/S2GLP_Pulsed_Doppler/Libraries/CMSIS/Include\cmsis_gcc.h **** #define __WFI()                             __ASM volatile ("wfi")       /* This implementation gen
 709:C:/Users/Utente/Desktop/Tesi/Firmware_Software/DAVE project/S2GLP_Pulsed_Doppler/Libraries/CMSIS/Include\cmsis_gcc.h **** 
 710:C:/Users/Utente/Desktop/Tesi/Firmware_Software/DAVE project/S2GLP_Pulsed_Doppler/Libraries/CMSIS/Include\cmsis_gcc.h **** 
 711:C:/Users/Utente/Desktop/Tesi/Firmware_Software/DAVE project/S2GLP_Pulsed_Doppler/Libraries/CMSIS/Include\cmsis_gcc.h **** /**
 712:C:/Users/Utente/Desktop/Tesi/Firmware_Software/DAVE project/S2GLP_Pulsed_Doppler/Libraries/CMSIS/Include\cmsis_gcc.h ****   \brief   Wait For Event
 713:C:/Users/Utente/Desktop/Tesi/Firmware_Software/DAVE project/S2GLP_Pulsed_Doppler/Libraries/CMSIS/Include\cmsis_gcc.h ****   \details Wait For Event is a hint instruction that permits the processor to enter
 714:C:/Users/Utente/Desktop/Tesi/Firmware_Software/DAVE project/S2GLP_Pulsed_Doppler/Libraries/CMSIS/Include\cmsis_gcc.h ****            a low-power state until one of a number of events occurs.
 715:C:/Users/Utente/Desktop/Tesi/Firmware_Software/DAVE project/S2GLP_Pulsed_Doppler/Libraries/CMSIS/Include\cmsis_gcc.h ****  */
 716:C:/Users/Utente/Desktop/Tesi/Firmware_Software/DAVE project/S2GLP_Pulsed_Doppler/Libraries/CMSIS/Include\cmsis_gcc.h **** //__attribute__((always_inline)) __STATIC_INLINE void __WFE(void)
 717:C:/Users/Utente/Desktop/Tesi/Firmware_Software/DAVE project/S2GLP_Pulsed_Doppler/Libraries/CMSIS/Include\cmsis_gcc.h **** //{
 718:C:/Users/Utente/Desktop/Tesi/Firmware_Software/DAVE project/S2GLP_Pulsed_Doppler/Libraries/CMSIS/Include\cmsis_gcc.h **** //  __ASM volatile ("wfe");
 719:C:/Users/Utente/Desktop/Tesi/Firmware_Software/DAVE project/S2GLP_Pulsed_Doppler/Libraries/CMSIS/Include\cmsis_gcc.h **** //}
 720:C:/Users/Utente/Desktop/Tesi/Firmware_Software/DAVE project/S2GLP_Pulsed_Doppler/Libraries/CMSIS/Include\cmsis_gcc.h **** #define __WFE()                             __ASM volatile ("wfe")       /* This implementation gen
 721:C:/Users/Utente/Desktop/Tesi/Firmware_Software/DAVE project/S2GLP_Pulsed_Doppler/Libraries/CMSIS/Include\cmsis_gcc.h **** 
 722:C:/Users/Utente/Desktop/Tesi/Firmware_Software/DAVE project/S2GLP_Pulsed_Doppler/Libraries/CMSIS/Include\cmsis_gcc.h **** 
 723:C:/Users/Utente/Desktop/Tesi/Firmware_Software/DAVE project/S2GLP_Pulsed_Doppler/Libraries/CMSIS/Include\cmsis_gcc.h **** /**
 724:C:/Users/Utente/Desktop/Tesi/Firmware_Software/DAVE project/S2GLP_Pulsed_Doppler/Libraries/CMSIS/Include\cmsis_gcc.h ****   \brief   Send Event
 725:C:/Users/Utente/Desktop/Tesi/Firmware_Software/DAVE project/S2GLP_Pulsed_Doppler/Libraries/CMSIS/Include\cmsis_gcc.h ****   \details Send Event is a hint instruction. It causes an event to be signaled to the CPU.
 726:C:/Users/Utente/Desktop/Tesi/Firmware_Software/DAVE project/S2GLP_Pulsed_Doppler/Libraries/CMSIS/Include\cmsis_gcc.h ****  */
 727:C:/Users/Utente/Desktop/Tesi/Firmware_Software/DAVE project/S2GLP_Pulsed_Doppler/Libraries/CMSIS/Include\cmsis_gcc.h **** //__attribute__((always_inline)) __STATIC_INLINE void __SEV(void)
 728:C:/Users/Utente/Desktop/Tesi/Firmware_Software/DAVE project/S2GLP_Pulsed_Doppler/Libraries/CMSIS/Include\cmsis_gcc.h **** //{
 729:C:/Users/Utente/Desktop/Tesi/Firmware_Software/DAVE project/S2GLP_Pulsed_Doppler/Libraries/CMSIS/Include\cmsis_gcc.h **** //  __ASM volatile ("sev");
 730:C:/Users/Utente/Desktop/Tesi/Firmware_Software/DAVE project/S2GLP_Pulsed_Doppler/Libraries/CMSIS/Include\cmsis_gcc.h **** //}
 731:C:/Users/Utente/Desktop/Tesi/Firmware_Software/DAVE project/S2GLP_Pulsed_Doppler/Libraries/CMSIS/Include\cmsis_gcc.h **** #define __SEV()                             __ASM volatile ("sev")       /* This implementation gen
 732:C:/Users/Utente/Desktop/Tesi/Firmware_Software/DAVE project/S2GLP_Pulsed_Doppler/Libraries/CMSIS/Include\cmsis_gcc.h **** 
 733:C:/Users/Utente/Desktop/Tesi/Firmware_Software/DAVE project/S2GLP_Pulsed_Doppler/Libraries/CMSIS/Include\cmsis_gcc.h **** 
 734:C:/Users/Utente/Desktop/Tesi/Firmware_Software/DAVE project/S2GLP_Pulsed_Doppler/Libraries/CMSIS/Include\cmsis_gcc.h **** /**
 735:C:/Users/Utente/Desktop/Tesi/Firmware_Software/DAVE project/S2GLP_Pulsed_Doppler/Libraries/CMSIS/Include\cmsis_gcc.h ****   \brief   Instruction Synchronization Barrier
 736:C:/Users/Utente/Desktop/Tesi/Firmware_Software/DAVE project/S2GLP_Pulsed_Doppler/Libraries/CMSIS/Include\cmsis_gcc.h ****   \details Instruction Synchronization Barrier flushes the pipeline in the processor,
 737:C:/Users/Utente/Desktop/Tesi/Firmware_Software/DAVE project/S2GLP_Pulsed_Doppler/Libraries/CMSIS/Include\cmsis_gcc.h ****            so that all instructions following the ISB are fetched from cache or memory,
 738:C:/Users/Utente/Desktop/Tesi/Firmware_Software/DAVE project/S2GLP_Pulsed_Doppler/Libraries/CMSIS/Include\cmsis_gcc.h ****            after the instruction has been completed.
 739:C:/Users/Utente/Desktop/Tesi/Firmware_Software/DAVE project/S2GLP_Pulsed_Doppler/Libraries/CMSIS/Include\cmsis_gcc.h ****  */
 740:C:/Users/Utente/Desktop/Tesi/Firmware_Software/DAVE project/S2GLP_Pulsed_Doppler/Libraries/CMSIS/Include\cmsis_gcc.h **** __attribute__((always_inline)) __STATIC_INLINE void __ISB(void)
 741:C:/Users/Utente/Desktop/Tesi/Firmware_Software/DAVE project/S2GLP_Pulsed_Doppler/Libraries/CMSIS/Include\cmsis_gcc.h **** {
 742:C:/Users/Utente/Desktop/Tesi/Firmware_Software/DAVE project/S2GLP_Pulsed_Doppler/Libraries/CMSIS/Include\cmsis_gcc.h ****   __ASM volatile ("isb 0xF":::"memory");
 743:C:/Users/Utente/Desktop/Tesi/Firmware_Software/DAVE project/S2GLP_Pulsed_Doppler/Libraries/CMSIS/Include\cmsis_gcc.h **** }
 744:C:/Users/Utente/Desktop/Tesi/Firmware_Software/DAVE project/S2GLP_Pulsed_Doppler/Libraries/CMSIS/Include\cmsis_gcc.h **** 
 745:C:/Users/Utente/Desktop/Tesi/Firmware_Software/DAVE project/S2GLP_Pulsed_Doppler/Libraries/CMSIS/Include\cmsis_gcc.h **** 
 746:C:/Users/Utente/Desktop/Tesi/Firmware_Software/DAVE project/S2GLP_Pulsed_Doppler/Libraries/CMSIS/Include\cmsis_gcc.h **** /**
 747:C:/Users/Utente/Desktop/Tesi/Firmware_Software/DAVE project/S2GLP_Pulsed_Doppler/Libraries/CMSIS/Include\cmsis_gcc.h ****   \brief   Data Synchronization Barrier
 748:C:/Users/Utente/Desktop/Tesi/Firmware_Software/DAVE project/S2GLP_Pulsed_Doppler/Libraries/CMSIS/Include\cmsis_gcc.h ****   \details Acts as a special kind of Data Memory Barrier.
 749:C:/Users/Utente/Desktop/Tesi/Firmware_Software/DAVE project/S2GLP_Pulsed_Doppler/Libraries/CMSIS/Include\cmsis_gcc.h ****            It completes when all explicit memory accesses before this instruction complete.
 750:C:/Users/Utente/Desktop/Tesi/Firmware_Software/DAVE project/S2GLP_Pulsed_Doppler/Libraries/CMSIS/Include\cmsis_gcc.h ****  */
 751:C:/Users/Utente/Desktop/Tesi/Firmware_Software/DAVE project/S2GLP_Pulsed_Doppler/Libraries/CMSIS/Include\cmsis_gcc.h **** __attribute__((always_inline)) __STATIC_INLINE void __DSB(void)
 752:C:/Users/Utente/Desktop/Tesi/Firmware_Software/DAVE project/S2GLP_Pulsed_Doppler/Libraries/CMSIS/Include\cmsis_gcc.h **** {
 753:C:/Users/Utente/Desktop/Tesi/Firmware_Software/DAVE project/S2GLP_Pulsed_Doppler/Libraries/CMSIS/Include\cmsis_gcc.h ****   __ASM volatile ("dsb 0xF":::"memory");
 1610              	 .loc 3 753 0
 1611              	
 1612 0090 BFF34F8F 	 dsb 0xF
 1613              	
 1614              	 .thumb
 1615              	.LBE141:
 1616              	.LBE140:
 1617              	.LBB142:
 1618              	.LBB143:
 742:C:/Users/Utente/Desktop/Tesi/Firmware_Software/DAVE project/S2GLP_Pulsed_Doppler/Libraries/CMSIS/Include\cmsis_gcc.h **** }
 1619              	 .loc 3 742 0
 1620              	
 1621 0094 BFF36F8F 	 isb 0xF
 1622              	
 1623              	.LVL120:
 1624              	 .thumb
 1625              	.L188:
 1626              	.LBE143:
 1627              	.LBE142:
 1628              	.LBE139:
 1629              	.LBE138:
 1630              	.LBE135:
 242:../Dave/Generated/USBD/usbd.c **** 
 1631              	 .loc 1 242 0
 1632 0098 2846     	 mov r0,r5
 1633 009a 70BD     	 pop {r4,r5,r6,pc}
 1634              	.LVL121:
 1635              	.L193:
 207:../Dave/Generated/USBD/usbd.c **** 	}
 1636              	 .loc 1 207 0
 1637 009c 0546     	 mov r5,r0
 1638              	.LVL122:
 242:../Dave/Generated/USBD/usbd.c **** 
 1639              	 .loc 1 242 0
 1640 009e 2846     	 mov r0,r5
 1641 00a0 70BD     	 pop {r4,r5,r6,pc}
 1642              	.LVL123:
 1643              	.L200:
 1644              	.LBB144:
 1645              	.LBB145:
 1646              	.LBB146:
1660:C:/Users/Utente/Desktop/Tesi/Firmware_Software/DAVE project/S2GLP_Pulsed_Doppler/Libraries/CMSIS/Include\core_cm4.h **** }
 1647              	 .loc 2 1660 0
 1648 00a2 1B4B     	 ldr r3,.L201+32
 1649 00a4 DB68     	 ldr r3,[r3,#12]
 1650 00a6 C3F30223 	 ubfx r3,r3,#8,#3
 1651              	.LVL124:
 1652              	.LBE146:
 1653              	.LBE145:
 1654              	.LBB147:
 1655              	.LBB148:
1764:C:/Users/Utente/Desktop/Tesi/Firmware_Software/DAVE project/S2GLP_Pulsed_Doppler/Libraries/CMSIS/Include\core_cm4.h ****   }
1765:C:/Users/Utente/Desktop/Tesi/Firmware_Software/DAVE project/S2GLP_Pulsed_Doppler/Libraries/CMSIS/Include\core_cm4.h **** }
1766:C:/Users/Utente/Desktop/Tesi/Firmware_Software/DAVE project/S2GLP_Pulsed_Doppler/Libraries/CMSIS/Include\core_cm4.h **** 
1767:C:/Users/Utente/Desktop/Tesi/Firmware_Software/DAVE project/S2GLP_Pulsed_Doppler/Libraries/CMSIS/Include\core_cm4.h **** 
1768:C:/Users/Utente/Desktop/Tesi/Firmware_Software/DAVE project/S2GLP_Pulsed_Doppler/Libraries/CMSIS/Include\core_cm4.h **** /**
1769:C:/Users/Utente/Desktop/Tesi/Firmware_Software/DAVE project/S2GLP_Pulsed_Doppler/Libraries/CMSIS/Include\core_cm4.h ****   \brief   Get Active Interrupt
1770:C:/Users/Utente/Desktop/Tesi/Firmware_Software/DAVE project/S2GLP_Pulsed_Doppler/Libraries/CMSIS/Include\core_cm4.h ****   \details Reads the active register in the NVIC and returns the active bit for the device specific
1771:C:/Users/Utente/Desktop/Tesi/Firmware_Software/DAVE project/S2GLP_Pulsed_Doppler/Libraries/CMSIS/Include\core_cm4.h ****   \param [in]      IRQn  Device specific interrupt number.
1772:C:/Users/Utente/Desktop/Tesi/Firmware_Software/DAVE project/S2GLP_Pulsed_Doppler/Libraries/CMSIS/Include\core_cm4.h ****   \return             0  Interrupt status is not active.
1773:C:/Users/Utente/Desktop/Tesi/Firmware_Software/DAVE project/S2GLP_Pulsed_Doppler/Libraries/CMSIS/Include\core_cm4.h ****   \return             1  Interrupt status is active.
1774:C:/Users/Utente/Desktop/Tesi/Firmware_Software/DAVE project/S2GLP_Pulsed_Doppler/Libraries/CMSIS/Include\core_cm4.h ****   \note    IRQn must not be negative.
1775:C:/Users/Utente/Desktop/Tesi/Firmware_Software/DAVE project/S2GLP_Pulsed_Doppler/Libraries/CMSIS/Include\core_cm4.h ****  */
1776:C:/Users/Utente/Desktop/Tesi/Firmware_Software/DAVE project/S2GLP_Pulsed_Doppler/Libraries/CMSIS/Include\core_cm4.h **** __STATIC_INLINE uint32_t __NVIC_GetActive(IRQn_Type IRQn)
1777:C:/Users/Utente/Desktop/Tesi/Firmware_Software/DAVE project/S2GLP_Pulsed_Doppler/Libraries/CMSIS/Include\core_cm4.h **** {
1778:C:/Users/Utente/Desktop/Tesi/Firmware_Software/DAVE project/S2GLP_Pulsed_Doppler/Libraries/CMSIS/Include\core_cm4.h ****   if ((int32_t)(IRQn) >= 0)
1779:C:/Users/Utente/Desktop/Tesi/Firmware_Software/DAVE project/S2GLP_Pulsed_Doppler/Libraries/CMSIS/Include\core_cm4.h ****   {
1780:C:/Users/Utente/Desktop/Tesi/Firmware_Software/DAVE project/S2GLP_Pulsed_Doppler/Libraries/CMSIS/Include\core_cm4.h ****     return((uint32_t)(((NVIC->IABR[(((uint32_t)(int32_t)IRQn) >> 5UL)] & (1UL << (((uint32_t)(int32
1781:C:/Users/Utente/Desktop/Tesi/Firmware_Software/DAVE project/S2GLP_Pulsed_Doppler/Libraries/CMSIS/Include\core_cm4.h ****   }
1782:C:/Users/Utente/Desktop/Tesi/Firmware_Software/DAVE project/S2GLP_Pulsed_Doppler/Libraries/CMSIS/Include\core_cm4.h ****   else
1783:C:/Users/Utente/Desktop/Tesi/Firmware_Software/DAVE project/S2GLP_Pulsed_Doppler/Libraries/CMSIS/Include\core_cm4.h ****   {
1784:C:/Users/Utente/Desktop/Tesi/Firmware_Software/DAVE project/S2GLP_Pulsed_Doppler/Libraries/CMSIS/Include\core_cm4.h ****     return(0U);
1785:C:/Users/Utente/Desktop/Tesi/Firmware_Software/DAVE project/S2GLP_Pulsed_Doppler/Libraries/CMSIS/Include\core_cm4.h ****   }
1786:C:/Users/Utente/Desktop/Tesi/Firmware_Software/DAVE project/S2GLP_Pulsed_Doppler/Libraries/CMSIS/Include\core_cm4.h **** }
1787:C:/Users/Utente/Desktop/Tesi/Firmware_Software/DAVE project/S2GLP_Pulsed_Doppler/Libraries/CMSIS/Include\core_cm4.h **** 
1788:C:/Users/Utente/Desktop/Tesi/Firmware_Software/DAVE project/S2GLP_Pulsed_Doppler/Libraries/CMSIS/Include\core_cm4.h **** 
1789:C:/Users/Utente/Desktop/Tesi/Firmware_Software/DAVE project/S2GLP_Pulsed_Doppler/Libraries/CMSIS/Include\core_cm4.h **** /**
1790:C:/Users/Utente/Desktop/Tesi/Firmware_Software/DAVE project/S2GLP_Pulsed_Doppler/Libraries/CMSIS/Include\core_cm4.h ****   \brief   Set Interrupt Priority
1791:C:/Users/Utente/Desktop/Tesi/Firmware_Software/DAVE project/S2GLP_Pulsed_Doppler/Libraries/CMSIS/Include\core_cm4.h ****   \details Sets the priority of a device specific interrupt or a processor exception.
1792:C:/Users/Utente/Desktop/Tesi/Firmware_Software/DAVE project/S2GLP_Pulsed_Doppler/Libraries/CMSIS/Include\core_cm4.h ****            The interrupt number can be positive to specify a device specific interrupt,
1793:C:/Users/Utente/Desktop/Tesi/Firmware_Software/DAVE project/S2GLP_Pulsed_Doppler/Libraries/CMSIS/Include\core_cm4.h ****            or negative to specify a processor exception.
1794:C:/Users/Utente/Desktop/Tesi/Firmware_Software/DAVE project/S2GLP_Pulsed_Doppler/Libraries/CMSIS/Include\core_cm4.h ****   \param [in]      IRQn  Interrupt number.
1795:C:/Users/Utente/Desktop/Tesi/Firmware_Software/DAVE project/S2GLP_Pulsed_Doppler/Libraries/CMSIS/Include\core_cm4.h ****   \param [in]  priority  Priority to set.
1796:C:/Users/Utente/Desktop/Tesi/Firmware_Software/DAVE project/S2GLP_Pulsed_Doppler/Libraries/CMSIS/Include\core_cm4.h ****   \note    The priority cannot be set for every processor exception.
1797:C:/Users/Utente/Desktop/Tesi/Firmware_Software/DAVE project/S2GLP_Pulsed_Doppler/Libraries/CMSIS/Include\core_cm4.h ****  */
1798:C:/Users/Utente/Desktop/Tesi/Firmware_Software/DAVE project/S2GLP_Pulsed_Doppler/Libraries/CMSIS/Include\core_cm4.h **** __STATIC_INLINE void __NVIC_SetPriority(IRQn_Type IRQn, uint32_t priority)
1799:C:/Users/Utente/Desktop/Tesi/Firmware_Software/DAVE project/S2GLP_Pulsed_Doppler/Libraries/CMSIS/Include\core_cm4.h **** {
1800:C:/Users/Utente/Desktop/Tesi/Firmware_Software/DAVE project/S2GLP_Pulsed_Doppler/Libraries/CMSIS/Include\core_cm4.h ****   if ((int32_t)(IRQn) >= 0)
1801:C:/Users/Utente/Desktop/Tesi/Firmware_Software/DAVE project/S2GLP_Pulsed_Doppler/Libraries/CMSIS/Include\core_cm4.h ****   {
1802:C:/Users/Utente/Desktop/Tesi/Firmware_Software/DAVE project/S2GLP_Pulsed_Doppler/Libraries/CMSIS/Include\core_cm4.h ****     NVIC->IP[((uint32_t)(int32_t)IRQn)]               = (uint8_t)((priority << (8U - __NVIC_PRIO_BI
1803:C:/Users/Utente/Desktop/Tesi/Firmware_Software/DAVE project/S2GLP_Pulsed_Doppler/Libraries/CMSIS/Include\core_cm4.h ****   }
1804:C:/Users/Utente/Desktop/Tesi/Firmware_Software/DAVE project/S2GLP_Pulsed_Doppler/Libraries/CMSIS/Include\core_cm4.h ****   else
1805:C:/Users/Utente/Desktop/Tesi/Firmware_Software/DAVE project/S2GLP_Pulsed_Doppler/Libraries/CMSIS/Include\core_cm4.h ****   {
1806:C:/Users/Utente/Desktop/Tesi/Firmware_Software/DAVE project/S2GLP_Pulsed_Doppler/Libraries/CMSIS/Include\core_cm4.h ****     SCB->SHP[(((uint32_t)(int32_t)IRQn) & 0xFUL)-4UL] = (uint8_t)((priority << (8U - __NVIC_PRIO_BI
1807:C:/Users/Utente/Desktop/Tesi/Firmware_Software/DAVE project/S2GLP_Pulsed_Doppler/Libraries/CMSIS/Include\core_cm4.h ****   }
1808:C:/Users/Utente/Desktop/Tesi/Firmware_Software/DAVE project/S2GLP_Pulsed_Doppler/Libraries/CMSIS/Include\core_cm4.h **** }
1809:C:/Users/Utente/Desktop/Tesi/Firmware_Software/DAVE project/S2GLP_Pulsed_Doppler/Libraries/CMSIS/Include\core_cm4.h **** 
1810:C:/Users/Utente/Desktop/Tesi/Firmware_Software/DAVE project/S2GLP_Pulsed_Doppler/Libraries/CMSIS/Include\core_cm4.h **** 
1811:C:/Users/Utente/Desktop/Tesi/Firmware_Software/DAVE project/S2GLP_Pulsed_Doppler/Libraries/CMSIS/Include\core_cm4.h **** /**
1812:C:/Users/Utente/Desktop/Tesi/Firmware_Software/DAVE project/S2GLP_Pulsed_Doppler/Libraries/CMSIS/Include\core_cm4.h ****   \brief   Get Interrupt Priority
1813:C:/Users/Utente/Desktop/Tesi/Firmware_Software/DAVE project/S2GLP_Pulsed_Doppler/Libraries/CMSIS/Include\core_cm4.h ****   \details Reads the priority of a device specific interrupt or a processor exception.
1814:C:/Users/Utente/Desktop/Tesi/Firmware_Software/DAVE project/S2GLP_Pulsed_Doppler/Libraries/CMSIS/Include\core_cm4.h ****            The interrupt number can be positive to specify a device specific interrupt,
1815:C:/Users/Utente/Desktop/Tesi/Firmware_Software/DAVE project/S2GLP_Pulsed_Doppler/Libraries/CMSIS/Include\core_cm4.h ****            or negative to specify a processor exception.
1816:C:/Users/Utente/Desktop/Tesi/Firmware_Software/DAVE project/S2GLP_Pulsed_Doppler/Libraries/CMSIS/Include\core_cm4.h ****   \param [in]   IRQn  Interrupt number.
1817:C:/Users/Utente/Desktop/Tesi/Firmware_Software/DAVE project/S2GLP_Pulsed_Doppler/Libraries/CMSIS/Include\core_cm4.h ****   \return             Interrupt Priority.
1818:C:/Users/Utente/Desktop/Tesi/Firmware_Software/DAVE project/S2GLP_Pulsed_Doppler/Libraries/CMSIS/Include\core_cm4.h ****                       Value is aligned automatically to the implemented priority bits of the microc
1819:C:/Users/Utente/Desktop/Tesi/Firmware_Software/DAVE project/S2GLP_Pulsed_Doppler/Libraries/CMSIS/Include\core_cm4.h ****  */
1820:C:/Users/Utente/Desktop/Tesi/Firmware_Software/DAVE project/S2GLP_Pulsed_Doppler/Libraries/CMSIS/Include\core_cm4.h **** __STATIC_INLINE uint32_t __NVIC_GetPriority(IRQn_Type IRQn)
1821:C:/Users/Utente/Desktop/Tesi/Firmware_Software/DAVE project/S2GLP_Pulsed_Doppler/Libraries/CMSIS/Include\core_cm4.h **** {
1822:C:/Users/Utente/Desktop/Tesi/Firmware_Software/DAVE project/S2GLP_Pulsed_Doppler/Libraries/CMSIS/Include\core_cm4.h **** 
1823:C:/Users/Utente/Desktop/Tesi/Firmware_Software/DAVE project/S2GLP_Pulsed_Doppler/Libraries/CMSIS/Include\core_cm4.h ****   if ((int32_t)(IRQn) >= 0)
1824:C:/Users/Utente/Desktop/Tesi/Firmware_Software/DAVE project/S2GLP_Pulsed_Doppler/Libraries/CMSIS/Include\core_cm4.h ****   {
1825:C:/Users/Utente/Desktop/Tesi/Firmware_Software/DAVE project/S2GLP_Pulsed_Doppler/Libraries/CMSIS/Include\core_cm4.h ****     return(((uint32_t)NVIC->IP[((uint32_t)(int32_t)IRQn)]               >> (8U - __NVIC_PRIO_BITS))
1826:C:/Users/Utente/Desktop/Tesi/Firmware_Software/DAVE project/S2GLP_Pulsed_Doppler/Libraries/CMSIS/Include\core_cm4.h ****   }
1827:C:/Users/Utente/Desktop/Tesi/Firmware_Software/DAVE project/S2GLP_Pulsed_Doppler/Libraries/CMSIS/Include\core_cm4.h ****   else
1828:C:/Users/Utente/Desktop/Tesi/Firmware_Software/DAVE project/S2GLP_Pulsed_Doppler/Libraries/CMSIS/Include\core_cm4.h ****   {
1829:C:/Users/Utente/Desktop/Tesi/Firmware_Software/DAVE project/S2GLP_Pulsed_Doppler/Libraries/CMSIS/Include\core_cm4.h ****     return(((uint32_t)SCB->SHP[(((uint32_t)(int32_t)IRQn) & 0xFUL)-4UL] >> (8U - __NVIC_PRIO_BITS))
1830:C:/Users/Utente/Desktop/Tesi/Firmware_Software/DAVE project/S2GLP_Pulsed_Doppler/Libraries/CMSIS/Include\core_cm4.h ****   }
1831:C:/Users/Utente/Desktop/Tesi/Firmware_Software/DAVE project/S2GLP_Pulsed_Doppler/Libraries/CMSIS/Include\core_cm4.h **** }
1832:C:/Users/Utente/Desktop/Tesi/Firmware_Software/DAVE project/S2GLP_Pulsed_Doppler/Libraries/CMSIS/Include\core_cm4.h **** 
1833:C:/Users/Utente/Desktop/Tesi/Firmware_Software/DAVE project/S2GLP_Pulsed_Doppler/Libraries/CMSIS/Include\core_cm4.h **** 
1834:C:/Users/Utente/Desktop/Tesi/Firmware_Software/DAVE project/S2GLP_Pulsed_Doppler/Libraries/CMSIS/Include\core_cm4.h **** /**
1835:C:/Users/Utente/Desktop/Tesi/Firmware_Software/DAVE project/S2GLP_Pulsed_Doppler/Libraries/CMSIS/Include\core_cm4.h ****   \brief   Encode Priority
1836:C:/Users/Utente/Desktop/Tesi/Firmware_Software/DAVE project/S2GLP_Pulsed_Doppler/Libraries/CMSIS/Include\core_cm4.h ****   \details Encodes the priority for an interrupt with the given priority group,
1837:C:/Users/Utente/Desktop/Tesi/Firmware_Software/DAVE project/S2GLP_Pulsed_Doppler/Libraries/CMSIS/Include\core_cm4.h ****            preemptive priority value, and subpriority value.
1838:C:/Users/Utente/Desktop/Tesi/Firmware_Software/DAVE project/S2GLP_Pulsed_Doppler/Libraries/CMSIS/Include\core_cm4.h ****            In case of a conflict between priority grouping and available
1839:C:/Users/Utente/Desktop/Tesi/Firmware_Software/DAVE project/S2GLP_Pulsed_Doppler/Libraries/CMSIS/Include\core_cm4.h ****            priority bits (__NVIC_PRIO_BITS), the smallest possible priority group is set.
1840:C:/Users/Utente/Desktop/Tesi/Firmware_Software/DAVE project/S2GLP_Pulsed_Doppler/Libraries/CMSIS/Include\core_cm4.h ****   \param [in]     PriorityGroup  Used priority group.
1841:C:/Users/Utente/Desktop/Tesi/Firmware_Software/DAVE project/S2GLP_Pulsed_Doppler/Libraries/CMSIS/Include\core_cm4.h ****   \param [in]   PreemptPriority  Preemptive priority value (starting from 0).
1842:C:/Users/Utente/Desktop/Tesi/Firmware_Software/DAVE project/S2GLP_Pulsed_Doppler/Libraries/CMSIS/Include\core_cm4.h ****   \param [in]       SubPriority  Subpriority value (starting from 0).
1843:C:/Users/Utente/Desktop/Tesi/Firmware_Software/DAVE project/S2GLP_Pulsed_Doppler/Libraries/CMSIS/Include\core_cm4.h ****   \return                        Encoded priority. Value can be used in the function \ref NVIC_SetP
1844:C:/Users/Utente/Desktop/Tesi/Firmware_Software/DAVE project/S2GLP_Pulsed_Doppler/Libraries/CMSIS/Include\core_cm4.h ****  */
1845:C:/Users/Utente/Desktop/Tesi/Firmware_Software/DAVE project/S2GLP_Pulsed_Doppler/Libraries/CMSIS/Include\core_cm4.h **** __STATIC_INLINE uint32_t NVIC_EncodePriority (uint32_t PriorityGroup, uint32_t PreemptPriority, uin
1846:C:/Users/Utente/Desktop/Tesi/Firmware_Software/DAVE project/S2GLP_Pulsed_Doppler/Libraries/CMSIS/Include\core_cm4.h **** {
1847:C:/Users/Utente/Desktop/Tesi/Firmware_Software/DAVE project/S2GLP_Pulsed_Doppler/Libraries/CMSIS/Include\core_cm4.h ****   uint32_t PriorityGroupTmp = (PriorityGroup & (uint32_t)0x07UL);   /* only values 0..7 are used   
1848:C:/Users/Utente/Desktop/Tesi/Firmware_Software/DAVE project/S2GLP_Pulsed_Doppler/Libraries/CMSIS/Include\core_cm4.h ****   uint32_t PreemptPriorityBits;
1849:C:/Users/Utente/Desktop/Tesi/Firmware_Software/DAVE project/S2GLP_Pulsed_Doppler/Libraries/CMSIS/Include\core_cm4.h ****   uint32_t SubPriorityBits;
1850:C:/Users/Utente/Desktop/Tesi/Firmware_Software/DAVE project/S2GLP_Pulsed_Doppler/Libraries/CMSIS/Include\core_cm4.h **** 
1851:C:/Users/Utente/Desktop/Tesi/Firmware_Software/DAVE project/S2GLP_Pulsed_Doppler/Libraries/CMSIS/Include\core_cm4.h ****   PreemptPriorityBits = ((7UL - PriorityGroupTmp) > (uint32_t)(__NVIC_PRIO_BITS)) ? (uint32_t)(__NV
 1656              	 .loc 2 1851 0
 1657 00aa C3F10701 	 rsb r1,r3,#7
 1658 00ae 0629     	 cmp r1,#6
 1659 00b0 28BF     	 it cs
 1660 00b2 0621     	 movcs r1,#6
 1661              	.LVL125:
1852:C:/Users/Utente/Desktop/Tesi/Firmware_Software/DAVE project/S2GLP_Pulsed_Doppler/Libraries/CMSIS/Include\core_cm4.h ****   SubPriorityBits     = ((PriorityGroupTmp + (uint32_t)(__NVIC_PRIO_BITS)) < (uint32_t)7UL) ? (uint
 1662              	 .loc 2 1852 0
 1663 00b4 CBB1     	 cbz r3,.L194
 1664 00b6 5A1E     	 subs r2,r3,#1
 1665              	.L190:
 1666              	.LVL126:
1853:C:/Users/Utente/Desktop/Tesi/Firmware_Software/DAVE project/S2GLP_Pulsed_Doppler/Libraries/CMSIS/Include\core_cm4.h **** 
1854:C:/Users/Utente/Desktop/Tesi/Firmware_Software/DAVE project/S2GLP_Pulsed_Doppler/Libraries/CMSIS/Include\core_cm4.h ****   return (
1855:C:/Users/Utente/Desktop/Tesi/Firmware_Software/DAVE project/S2GLP_Pulsed_Doppler/Libraries/CMSIS/Include\core_cm4.h ****            ((PreemptPriority & (uint32_t)((1UL << (PreemptPriorityBits)) - 1UL)) << SubPriorityBits
 1667              	 .loc 2 1855 0
 1668 00b8 0123     	 movs r3,#1
 1669              	.LVL127:
 1670 00ba 8B40     	 lsls r3,r3,r1
 1671 00bc 013B     	 subs r3,r3,#1
 1672 00be 9340     	 lsls r3,r3,r2
 1673              	.LVL128:
 1674              	.LBE148:
 1675              	.LBE147:
 1676              	.LBB150:
 1677              	.LBB151:
1802:C:/Users/Utente/Desktop/Tesi/Firmware_Software/DAVE project/S2GLP_Pulsed_Doppler/Libraries/CMSIS/Include\core_cm4.h ****   }
 1678              	 .loc 2 1802 0
 1679 00c0 9B00     	 lsls r3,r3,#2
 1680              	.LVL129:
 1681 00c2 124A     	 ldr r2,.L201+28
 1682              	.LVL130:
 1683 00c4 DBB2     	 uxtb r3,r3
 1684 00c6 82F86B33 	 strb r3,[r2,#875]
 1685              	.LVL131:
 1686              	.LBE151:
 1687              	.LBE150:
 1688              	.LBE144:
 226:../Dave/Generated/USBD/usbd.c **** 	       (uint16_t)XMC_USBD_MAX_PACKET_SIZE);
 1689              	 .loc 1 226 0
 1690 00ca 2368     	 ldr r3,[r4]
 1691              	.LBB159:
 1692              	.LBB152:
 1693              	.LBB153:
1763:C:/Users/Utente/Desktop/Tesi/Firmware_Software/DAVE project/S2GLP_Pulsed_Doppler/Libraries/CMSIS/Include\core_cm4.h ****   }
 1694              	 .loc 2 1763 0
 1695 00cc 4FF40061 	 mov r1,#2048
 1696              	.LVL132:
 1697              	.LBE153:
 1698              	.LBE152:
 1699              	.LBE159:
 226:../Dave/Generated/USBD/usbd.c **** 	       (uint16_t)XMC_USBD_MAX_PACKET_SIZE);
 1700              	 .loc 1 226 0
 1701 00d0 0020     	 movs r0,#0
 1702              	.LVL133:
 1703              	.LBB160:
 1704              	.LBB155:
 1705              	.LBB154:
1763:C:/Users/Utente/Desktop/Tesi/Firmware_Software/DAVE project/S2GLP_Pulsed_Doppler/Libraries/CMSIS/Include\core_cm4.h ****   }
 1706              	 .loc 2 1763 0
 1707 00d2 C2F88C11 	 str r1,[r2,#396]
 1708              	.LVL134:
 1709              	.LBE154:
 1710              	.LBE155:
 1711              	.LBE160:
 226:../Dave/Generated/USBD/usbd.c **** 	       (uint16_t)XMC_USBD_MAX_PACKET_SIZE);
 1712              	 .loc 1 226 0
 1713 00d6 DB69     	 ldr r3,[r3,#28]
 1714              	.LBB161:
 1715              	.LBB156:
 1716              	.LBB157:
1674:C:/Users/Utente/Desktop/Tesi/Firmware_Software/DAVE project/S2GLP_Pulsed_Doppler/Libraries/CMSIS/Include\core_cm4.h ****   }
 1717              	 .loc 2 1674 0
 1718 00d8 D160     	 str r1,[r2,#12]
 1719              	.LBE157:
 1720              	.LBE156:
 1721              	.LBE161:
 226:../Dave/Generated/USBD/usbd.c **** 	       (uint16_t)XMC_USBD_MAX_PACKET_SIZE);
 1722              	 .loc 1 226 0
 1723 00da 0146     	 mov r1,r0
 1724 00dc 4022     	 movs r2,#64
 1725 00de 9847     	 blx r3
 1726              	.LVL135:
 230:../Dave/Generated/USBD/usbd.c **** 	  {
 1727              	 .loc 1 230 0
 1728 00e0 0546     	 mov r5,r0
 1729 00e2 0028     	 cmp r0,#0
 1730 00e4 C7D1     	 bne .L189
 1731              	.LVL136:
 242:../Dave/Generated/USBD/usbd.c **** 
 1732              	 .loc 1 242 0
 1733 00e6 2846     	 mov r0,r5
 1734 00e8 70BD     	 pop {r4,r5,r6,pc}
 1735              	.LVL137:
 1736              	.L194:
 1737              	.LBB162:
 1738              	.LBB158:
 1739              	.LBB149:
1852:C:/Users/Utente/Desktop/Tesi/Firmware_Software/DAVE project/S2GLP_Pulsed_Doppler/Libraries/CMSIS/Include\core_cm4.h **** 
 1740              	 .loc 2 1852 0
 1741 00ea 1A46     	 mov r2,r3
 1742 00ec E4E7     	 b .L190
 1743              	.L202:
 1744 00ee 00BF     	 .align 2
 1745              	.L201:
 1746 00f0 00000000 	 .word device
 1747 00f4 00000000 	 .word USB_DeviceState
 1748 00f8 00000000 	 .word Driver_USBD0
 1749 00fc 00000000 	 .word endpoint0_out_buffer
 1750 0100 00000000 	 .word endpoint0_in_buffer
 1751 0104 00000000 	 .word USBD_SignalDeviceEventHandler
 1752 0108 00000000 	 .word USBD_SignalEndpointEvent_Handler
 1753 010c 00E100E0 	 .word -536813312
 1754 0110 00ED00E0 	 .word -536810240
 1755              	.LBE149:
 1756              	.LBE158:
 1757              	.LBE162:
 1758              	 .cfi_endproc
 1759              	.LFE180:
 1761              	 .section .text.USBD_Connect,"ax",%progbits
 1762              	 .align 2
 1763              	 .global USBD_Connect
 1764              	 .thumb
 1765              	 .thumb_func
 1767              	USBD_Connect:
 1768              	.LFB181:
 251:../Dave/Generated/USBD/usbd.c ****   return (USBD_STATUS_t)device.Driver->DeviceConnect();
 1769              	 .loc 1 251 0
 1770              	 .cfi_startproc
 1771              	 
 1772              	 
 1773              	 
 252:../Dave/Generated/USBD/usbd.c **** }
 1774              	 .loc 1 252 0
 1775 0000 014B     	 ldr r3,.L204
 1776 0002 1B68     	 ldr r3,[r3]
 1777 0004 DB68     	 ldr r3,[r3,#12]
 1778 0006 1847     	 bx r3
 1779              	.LVL138:
 1780              	.L205:
 1781              	 .align 2
 1782              	.L204:
 1783 0008 00000000 	 .word device
 1784              	 .cfi_endproc
 1785              	.LFE181:
 1787              	 .section .text.USBD_Disconnect,"ax",%progbits
 1788              	 .align 2
 1789              	 .global USBD_Disconnect
 1790              	 .thumb
 1791              	 .thumb_func
 1793              	USBD_Disconnect:
 1794              	.LFB182:
 263:../Dave/Generated/USBD/usbd.c ****   return (USBD_STATUS_t)device.Driver->DeviceDisconnect();
 1795              	 .loc 1 263 0
 1796              	 .cfi_startproc
 1797              	 
 1798              	 
 1799              	 
 264:../Dave/Generated/USBD/usbd.c **** }
 1800              	 .loc 1 264 0
 1801 0000 014B     	 ldr r3,.L207
 1802 0002 1B68     	 ldr r3,[r3]
 1803 0004 1B69     	 ldr r3,[r3,#16]
 1804 0006 1847     	 bx r3
 1805              	.LVL139:
 1806              	.L208:
 1807              	 .align 2
 1808              	.L207:
 1809 0008 00000000 	 .word device
 1810              	 .cfi_endproc
 1811              	.LFE182:
 1813              	 .section .text.USBD_IsEnumDone,"ax",%progbits
 1814              	 .align 2
 1815              	 .global USBD_IsEnumDone
 1816              	 .thumb
 1817              	 .thumb_func
 1819              	USBD_IsEnumDone:
 1820              	.LFB183:
 274:../Dave/Generated/USBD/usbd.c ****   return device.Driver->IsEnumDone();
 1821              	 .loc 1 274 0
 1822              	 .cfi_startproc
 1823              	 
 1824              	 
 1825              	 
 275:../Dave/Generated/USBD/usbd.c **** }
 1826              	 .loc 1 275 0
 1827 0000 014B     	 ldr r3,.L210
 1828 0002 1B68     	 ldr r3,[r3]
 1829 0004 DB6B     	 ldr r3,[r3,#60]
 1830 0006 1847     	 bx r3
 1831              	.LVL140:
 1832              	.L211:
 1833              	 .align 2
 1834              	.L210:
 1835 0008 00000000 	 .word device
 1836              	 .cfi_endproc
 1837              	.LFE183:
 1839              	 .section .text.USBD_SetEndpointBuffer,"ax",%progbits
 1840              	 .align 2
 1841              	 .global USBD_SetEndpointBuffer
 1842              	 .thumb
 1843              	 .thumb_func
 1845              	USBD_SetEndpointBuffer:
 1846              	.LFB184:
 286:../Dave/Generated/USBD/usbd.c ****   uint32_t number;
 1847              	 .loc 1 286 0
 1848              	 .cfi_startproc
 1849              	 
 1850              	 
 1851              	 
 1852              	.LVL141:
 293:../Dave/Generated/USBD/usbd.c ****   {
 1853              	 .loc 1 293 0
 1854 0000 10F0800F 	 tst r0,#128
 286:../Dave/Generated/USBD/usbd.c ****   uint32_t number;
 1855              	 .loc 1 286 0
 1856 0004 10B4     	 push {r4}
 1857              	.LCFI11:
 1858              	 .cfi_def_cfa_offset 4
 1859              	 .cfi_offset 4,-4
 295:../Dave/Generated/USBD/usbd.c ****     device.Endpoints[number].InBufferLength = len;
 1860              	 .loc 1 295 0
 1861 0006 0A4B     	 ldr r3,.L217
 290:../Dave/Generated/USBD/usbd.c ****   XMC_ASSERT("USBD_SetEndpointBuffer: invalid ep address", (number < (uint8_t)USBD_MAX_NUM_EPS));
 1862              	 .loc 1 290 0
 1863 0008 00F00F04 	 and r4,r0,#15
 1864              	.LVL142:
 295:../Dave/Generated/USBD/usbd.c ****     device.Endpoints[number].InBufferLength = len;
 1865              	 .loc 1 295 0
 1866 000c 4FF02C00 	 mov r0,#44
 1867              	.LVL143:
 293:../Dave/Generated/USBD/usbd.c ****   {
 1868              	 .loc 1 293 0
 1869 0010 06D1     	 bne .L216
 300:../Dave/Generated/USBD/usbd.c ****     device.Endpoints[number].OutBufferLength = len;
 1870              	 .loc 1 300 0
 1871 0012 00FB0433 	 mla r3,r0,r4,r3
 304:../Dave/Generated/USBD/usbd.c **** 
 1872              	 .loc 1 304 0
 1873 0016 5DF8044B 	 ldr r4,[sp],#4
 1874              	.LCFI12:
 1875              	 .cfi_remember_state
 1876              	 .cfi_restore 4
 1877              	 .cfi_def_cfa_offset 0
 1878              	.LVL144:
 300:../Dave/Generated/USBD/usbd.c ****     device.Endpoints[number].OutBufferLength = len;
 1879              	 .loc 1 300 0
 1880 001a 5961     	 str r1,[r3,#20]
 301:../Dave/Generated/USBD/usbd.c ****   }
 1881              	 .loc 1 301 0
 1882 001c 9A61     	 str r2,[r3,#24]
 304:../Dave/Generated/USBD/usbd.c **** 
 1883              	 .loc 1 304 0
 1884 001e 7047     	 bx lr
 1885              	.LVL145:
 1886              	.L216:
 1887              	.LCFI13:
 1888              	 .cfi_restore_state
 295:../Dave/Generated/USBD/usbd.c ****     device.Endpoints[number].InBufferLength = len;
 1889              	 .loc 1 295 0
 1890 0020 00FB0434 	 mla r4,r0,r4,r3
 1891              	.LVL146:
 1892 0024 2162     	 str r1,[r4,#32]
 296:../Dave/Generated/USBD/usbd.c ****   }
 1893              	 .loc 1 296 0
 1894 0026 6262     	 str r2,[r4,#36]
 304:../Dave/Generated/USBD/usbd.c **** 
 1895              	 .loc 1 304 0
 1896 0028 5DF8044B 	 ldr r4,[sp],#4
 1897              	.LCFI14:
 1898              	 .cfi_restore 4
 1899              	 .cfi_def_cfa_offset 0
 1900 002c 7047     	 bx lr
 1901              	.L218:
 1902 002e 00BF     	 .align 2
 1903              	.L217:
 1904 0030 00000000 	 .word device
 1905              	 .cfi_endproc
 1906              	.LFE184:
 1908              	 .section .text.USB0_0_IRQHandler,"ax",%progbits
 1909              	 .align 2
 1910              	 .global USB0_0_IRQHandler
 1911              	 .thumb
 1912              	 .thumb_func
 1914              	USB0_0_IRQHandler:
 1915              	.LFB185:
 313:../Dave/Generated/USBD/usbd.c ****   XMC_USBD_IRQHandler(&(USBD_handle->usb_init));
 1916              	 .loc 1 313 0
 1917              	 .cfi_startproc
 1918              	 
 1919              	 
 1920              	 
 314:../Dave/Generated/USBD/usbd.c **** }
 1921              	 .loc 1 314 0
 1922 0000 014B     	 ldr r3,.L220
 1923 0002 1868     	 ldr r0,[r3]
 1924 0004 FFF7FEBF 	 b XMC_USBD_IRQHandler
 1925              	.LVL147:
 1926              	.L221:
 1927              	 .align 2
 1928              	.L220:
 1929 0008 00000000 	 .word USBD_handle
 1930              	 .cfi_endproc
 1931              	.LFE185:
 1933              	 .section .text.USBD_GetAppVersion,"ax",%progbits
 1934              	 .align 2
 1935              	 .global USBD_GetAppVersion
 1936              	 .thumb
 1937              	 .thumb_func
 1939              	USBD_GetAppVersion:
 1940              	.LFB186:
 321:../Dave/Generated/USBD/usbd.c ****   DAVE_APP_VERSION_t version;
 1941              	 .loc 1 321 0
 1942              	 .cfi_startproc
 1943              	 
 1944              	 
 1945              	 
 1946              	.LVL148:
 328:../Dave/Generated/USBD/usbd.c **** }
 1947              	 .loc 1 328 0
 1948 0000 0023     	 movs r3,#0
 1949 0002 1846     	 mov r0,r3
 1950 0004 0422     	 movs r2,#4
 1951 0006 62F30700 	 bfi r0,r2,#0,#8
 1952 000a 63F30F20 	 bfi r0,r3,#8,#8
 1953 000e 0E23     	 movs r3,#14
 1954 0010 63F31740 	 bfi r0,r3,#16,#8
 321:../Dave/Generated/USBD/usbd.c ****   DAVE_APP_VERSION_t version;
 1955              	 .loc 1 321 0
 1956 0014 82B0     	 sub sp,sp,#8
 1957              	.LCFI15:
 1958              	 .cfi_def_cfa_offset 8
 329:../Dave/Generated/USBD/usbd.c **** 
 1959              	 .loc 1 329 0
 1960 0016 02B0     	 add sp,sp,#8
 1961              	.LCFI16:
 1962              	 .cfi_def_cfa_offset 0
 1963              	 
 1964 0018 7047     	 bx lr
 1965              	 .cfi_endproc
 1966              	.LFE186:
 1968              	 .comm endpoint0_out_buffer,256,4
 1969              	 .comm endpoint0_in_buffer,256,4
 1970              	 .comm device,324,4
 1971 001a 00BF     	 .text
 1972              	.Letext0:
 1973              	 .file 4 "c:\\infineon\\tools\\dave ide\\4.5.0.202105191637\\eclipse\\arm-gcc-49\\arm-none-eabi\\include\\machine\\_default_types.h"
 1974              	 .file 5 "c:\\infineon\\tools\\dave ide\\4.5.0.202105191637\\eclipse\\arm-gcc-49\\arm-none-eabi\\include\\stdint.h"
 1975              	 .file 6 "C:/Users/Utente/Desktop/Tesi/Firmware_Software/DAVE project/S2GLP_Pulsed_Doppler/Libraries/CMSIS/Infineon/XMC4700_series/Include/XMC4700.h"
 1976              	 .file 7 "C:/Users/Utente/Desktop/Tesi/Firmware_Software/DAVE project/S2GLP_Pulsed_Doppler/Libraries/XMCLib/inc/xmc4_scu.h"
 1977              	 .file 8 "../Dave/Generated/USBD/./usb/core/std_request_type.h"
 1978              	 .file 9 "C:/Users/Utente/Desktop/Tesi/Firmware_Software/DAVE project/S2GLP_Pulsed_Doppler/Libraries/XMCLib/inc/xmc_usbd_regs.h"
 1979              	 .file 10 "C:/Users/Utente/Desktop/Tesi/Firmware_Software/DAVE project/S2GLP_Pulsed_Doppler/Libraries/XMCLib/inc/xmc_usbd.h"
 1980              	 .file 11 "C:/Users/Utente/Desktop/Tesi/Firmware_Software/DAVE project/S2GLP_Pulsed_Doppler/Dave/Generated/DAVE_Common.h"
 1981              	 .file 12 "../Dave/Generated/USBD/./usb/core/./xmc4000/../../../usbd.h"
 1982              	 .file 13 "../Dave/Generated/USBD/./usb/core/device.h"
 1983              	 .file 14 "C:/Users/Utente/Desktop/Tesi/Firmware_Software/DAVE project/S2GLP_Pulsed_Doppler/Libraries/CMSIS/Infineon/XMC4700_series/Include/system_XMC4700.h"
 1984              	 .file 15 "../Dave/Generated/USBD/./usb/core/./xmc4000/../../../usbd_extern.h"
 1985              	 .file 16 "../Dave/Generated/USBD/./usb/core/usb_task.h"
DEFINED SYMBOLS
                            *ABS*:00000000 usbd.c
    {standard input}:20     .text.USBD_SignalDeviceEventHandler:00000000 $t
    {standard input}:24     .text.USBD_SignalDeviceEventHandler:00000000 USBD_SignalDeviceEventHandler
    {standard input}:37     .text.USBD_SignalDeviceEventHandler:00000008 $d
    {standard input}:47     .text.USBD_SignalDeviceEventHandler:0000001c $t
    {standard input}:469    .text.USBD_SignalDeviceEventHandler:000002fc $d
                            *COM*:00000144 device
    {standard input}:475    .text.USBD_HandleEP0_Stall:00000000 $t
    {standard input}:479    .text.USBD_HandleEP0_Stall:00000000 USBD_HandleEP0_Stall
    {standard input}:529    .text.USBD_HandleEP0_Stall:00000024 $d
    {standard input}:536    .text.USBD_Handle_DeviceRequest:00000000 $t
    {standard input}:540    .text.USBD_Handle_DeviceRequest:00000000 USBD_Handle_DeviceRequest
    {standard input}:614    .text.USBD_Handle_DeviceRequest:00000040 $d
    {standard input}:627    .text.USBD_Handle_DeviceRequest:0000005a $t
    {standard input}:1031   .text.USBD_Handle_DeviceRequest:0000028c $d
    {standard input}:1037   .text.USBD_Handle_DeviceRequest:0000029c $t
    {standard input}:1119   .text.USBD_Handle_DeviceRequest:00000314 $d
    {standard input}:1125   .text.USBD_SignalEndpointEvent_Handler:00000000 $t
    {standard input}:1129   .text.USBD_SignalEndpointEvent_Handler:00000000 USBD_SignalEndpointEvent_Handler
    {standard input}:1465   .text.USBD_SignalEndpointEvent_Handler:000001d0 $d
    {standard input}:1473   .text.USBD_Init:00000000 $t
    {standard input}:1478   .text.USBD_Init:00000000 USBD_Init
    {standard input}:1746   .text.USBD_Init:000000f0 $d
                            *COM*:00000100 endpoint0_out_buffer
                            *COM*:00000100 endpoint0_in_buffer
    {standard input}:1762   .text.USBD_Connect:00000000 $t
    {standard input}:1767   .text.USBD_Connect:00000000 USBD_Connect
    {standard input}:1783   .text.USBD_Connect:00000008 $d
    {standard input}:1788   .text.USBD_Disconnect:00000000 $t
    {standard input}:1793   .text.USBD_Disconnect:00000000 USBD_Disconnect
    {standard input}:1809   .text.USBD_Disconnect:00000008 $d
    {standard input}:1814   .text.USBD_IsEnumDone:00000000 $t
    {standard input}:1819   .text.USBD_IsEnumDone:00000000 USBD_IsEnumDone
    {standard input}:1835   .text.USBD_IsEnumDone:00000008 $d
    {standard input}:1840   .text.USBD_SetEndpointBuffer:00000000 $t
    {standard input}:1845   .text.USBD_SetEndpointBuffer:00000000 USBD_SetEndpointBuffer
    {standard input}:1904   .text.USBD_SetEndpointBuffer:00000030 $d
    {standard input}:1909   .text.USB0_0_IRQHandler:00000000 $t
    {standard input}:1914   .text.USB0_0_IRQHandler:00000000 USB0_0_IRQHandler
    {standard input}:1929   .text.USB0_0_IRQHandler:00000008 $d
    {standard input}:1934   .text.USBD_GetAppVersion:00000000 $t
    {standard input}:1939   .text.USBD_GetAppVersion:00000000 USBD_GetAppVersion
                     .debug_frame:00000010 $d

UNDEFINED SYMBOLS
USB_DeviceState
USB_ControlRequest
XMC_USBD_Disable
memset
XMC_SCU_CLOCK_EnableClock
Driver_USBD0
XMC_USBD_IRQHandler
USBD_handle
