   1              	 .syntax unified
   2              	 .cpu cortex-m4
   3              	 .eabi_attribute 27,3
   4              	 .fpu fpv4-sp-d16
   5              	 .eabi_attribute 20,1
   6              	 .eabi_attribute 21,1
   7              	 .eabi_attribute 23,3
   8              	 .eabi_attribute 24,1
   9              	 .eabi_attribute 25,1
  10              	 .eabi_attribute 26,1
  11              	 .eabi_attribute 30,2
  12              	 .eabi_attribute 34,1
  13              	 .eabi_attribute 18,4
  14              	 .thumb
  15              	 .file "arm_cfft_radix4_f32.c"
  16              	 .text
  17              	.Ltext0:
  18              	 .cfi_sections .debug_frame
  19              	 .section .text.arm_radix4_butterfly_f32,"ax",%progbits
  20              	 .align 2
  21              	 .global arm_radix4_butterfly_f32
  22              	 .thumb
  23              	 .thumb_func
  25              	arm_radix4_butterfly_f32:
  26              	.LFB136:
  27              	 .file 1 "../Dave/Generated/CMSIS_DSP/TransformFunctions/arm_cfft_radix4_f32.c"
   1:../Dave/Generated/CMSIS_DSP/TransformFunctions/arm_cfft_radix4_f32.c **** /* ----------------------------------------------------------------------
   2:../Dave/Generated/CMSIS_DSP/TransformFunctions/arm_cfft_radix4_f32.c ****  * Project:      CMSIS DSP Library
   3:../Dave/Generated/CMSIS_DSP/TransformFunctions/arm_cfft_radix4_f32.c ****  * Title:        arm_cfft_radix4_f32.c
   4:../Dave/Generated/CMSIS_DSP/TransformFunctions/arm_cfft_radix4_f32.c ****  * Description:  Radix-4 Decimation in Frequency CFFT & CIFFT Floating point processing function
   5:../Dave/Generated/CMSIS_DSP/TransformFunctions/arm_cfft_radix4_f32.c ****  *
   6:../Dave/Generated/CMSIS_DSP/TransformFunctions/arm_cfft_radix4_f32.c ****  * $Date:        27. January 2017
   7:../Dave/Generated/CMSIS_DSP/TransformFunctions/arm_cfft_radix4_f32.c ****  * $Revision:    V.1.5.1
   8:../Dave/Generated/CMSIS_DSP/TransformFunctions/arm_cfft_radix4_f32.c ****  *
   9:../Dave/Generated/CMSIS_DSP/TransformFunctions/arm_cfft_radix4_f32.c ****  * Target Processor: Cortex-M cores
  10:../Dave/Generated/CMSIS_DSP/TransformFunctions/arm_cfft_radix4_f32.c ****  * -------------------------------------------------------------------- */
  11:../Dave/Generated/CMSIS_DSP/TransformFunctions/arm_cfft_radix4_f32.c **** /*
  12:../Dave/Generated/CMSIS_DSP/TransformFunctions/arm_cfft_radix4_f32.c ****  * Copyright (C) 2010-2017 ARM Limited or its affiliates. All rights reserved.
  13:../Dave/Generated/CMSIS_DSP/TransformFunctions/arm_cfft_radix4_f32.c ****  *
  14:../Dave/Generated/CMSIS_DSP/TransformFunctions/arm_cfft_radix4_f32.c ****  * SPDX-License-Identifier: Apache-2.0
  15:../Dave/Generated/CMSIS_DSP/TransformFunctions/arm_cfft_radix4_f32.c ****  *
  16:../Dave/Generated/CMSIS_DSP/TransformFunctions/arm_cfft_radix4_f32.c ****  * Licensed under the Apache License, Version 2.0 (the License); you may
  17:../Dave/Generated/CMSIS_DSP/TransformFunctions/arm_cfft_radix4_f32.c ****  * not use this file except in compliance with the License.
  18:../Dave/Generated/CMSIS_DSP/TransformFunctions/arm_cfft_radix4_f32.c ****  * You may obtain a copy of the License at
  19:../Dave/Generated/CMSIS_DSP/TransformFunctions/arm_cfft_radix4_f32.c ****  *
  20:../Dave/Generated/CMSIS_DSP/TransformFunctions/arm_cfft_radix4_f32.c ****  * www.apache.org/licenses/LICENSE-2.0
  21:../Dave/Generated/CMSIS_DSP/TransformFunctions/arm_cfft_radix4_f32.c ****  *
  22:../Dave/Generated/CMSIS_DSP/TransformFunctions/arm_cfft_radix4_f32.c ****  * Unless required by applicable law or agreed to in writing, software
  23:../Dave/Generated/CMSIS_DSP/TransformFunctions/arm_cfft_radix4_f32.c ****  * distributed under the License is distributed on an AS IS BASIS, WITHOUT
  24:../Dave/Generated/CMSIS_DSP/TransformFunctions/arm_cfft_radix4_f32.c ****  * WARRANTIES OR CONDITIONS OF ANY KIND, either express or implied.
  25:../Dave/Generated/CMSIS_DSP/TransformFunctions/arm_cfft_radix4_f32.c ****  * See the License for the specific language governing permissions and
  26:../Dave/Generated/CMSIS_DSP/TransformFunctions/arm_cfft_radix4_f32.c ****  * limitations under the License.
  27:../Dave/Generated/CMSIS_DSP/TransformFunctions/arm_cfft_radix4_f32.c ****  */
  28:../Dave/Generated/CMSIS_DSP/TransformFunctions/arm_cfft_radix4_f32.c **** 
  29:../Dave/Generated/CMSIS_DSP/TransformFunctions/arm_cfft_radix4_f32.c **** #include "CMSIS_DSP/cmsis_dsp.h"
  30:../Dave/Generated/CMSIS_DSP/TransformFunctions/arm_cfft_radix4_f32.c **** 
  31:../Dave/Generated/CMSIS_DSP/TransformFunctions/arm_cfft_radix4_f32.c **** extern void arm_bitreversal_f32(
  32:../Dave/Generated/CMSIS_DSP/TransformFunctions/arm_cfft_radix4_f32.c **** float32_t * pSrc,
  33:../Dave/Generated/CMSIS_DSP/TransformFunctions/arm_cfft_radix4_f32.c **** uint16_t fftSize,
  34:../Dave/Generated/CMSIS_DSP/TransformFunctions/arm_cfft_radix4_f32.c **** uint16_t bitRevFactor,
  35:../Dave/Generated/CMSIS_DSP/TransformFunctions/arm_cfft_radix4_f32.c **** uint16_t * pBitRevTab);
  36:../Dave/Generated/CMSIS_DSP/TransformFunctions/arm_cfft_radix4_f32.c **** 
  37:../Dave/Generated/CMSIS_DSP/TransformFunctions/arm_cfft_radix4_f32.c **** void arm_radix4_butterfly_f32(
  38:../Dave/Generated/CMSIS_DSP/TransformFunctions/arm_cfft_radix4_f32.c **** float32_t * pSrc,
  39:../Dave/Generated/CMSIS_DSP/TransformFunctions/arm_cfft_radix4_f32.c **** uint16_t fftLen,
  40:../Dave/Generated/CMSIS_DSP/TransformFunctions/arm_cfft_radix4_f32.c **** float32_t * pCoef,
  41:../Dave/Generated/CMSIS_DSP/TransformFunctions/arm_cfft_radix4_f32.c **** uint16_t twidCoefModifier);
  42:../Dave/Generated/CMSIS_DSP/TransformFunctions/arm_cfft_radix4_f32.c **** 
  43:../Dave/Generated/CMSIS_DSP/TransformFunctions/arm_cfft_radix4_f32.c **** void arm_radix4_butterfly_inverse_f32(
  44:../Dave/Generated/CMSIS_DSP/TransformFunctions/arm_cfft_radix4_f32.c **** float32_t * pSrc,
  45:../Dave/Generated/CMSIS_DSP/TransformFunctions/arm_cfft_radix4_f32.c **** uint16_t fftLen,
  46:../Dave/Generated/CMSIS_DSP/TransformFunctions/arm_cfft_radix4_f32.c **** float32_t * pCoef,
  47:../Dave/Generated/CMSIS_DSP/TransformFunctions/arm_cfft_radix4_f32.c **** uint16_t twidCoefModifier,
  48:../Dave/Generated/CMSIS_DSP/TransformFunctions/arm_cfft_radix4_f32.c **** float32_t onebyfftLen);
  49:../Dave/Generated/CMSIS_DSP/TransformFunctions/arm_cfft_radix4_f32.c **** 
  50:../Dave/Generated/CMSIS_DSP/TransformFunctions/arm_cfft_radix4_f32.c **** 
  51:../Dave/Generated/CMSIS_DSP/TransformFunctions/arm_cfft_radix4_f32.c **** /**
  52:../Dave/Generated/CMSIS_DSP/TransformFunctions/arm_cfft_radix4_f32.c **** * @ingroup groupTransforms
  53:../Dave/Generated/CMSIS_DSP/TransformFunctions/arm_cfft_radix4_f32.c **** */
  54:../Dave/Generated/CMSIS_DSP/TransformFunctions/arm_cfft_radix4_f32.c **** 
  55:../Dave/Generated/CMSIS_DSP/TransformFunctions/arm_cfft_radix4_f32.c **** /**
  56:../Dave/Generated/CMSIS_DSP/TransformFunctions/arm_cfft_radix4_f32.c **** * @addtogroup ComplexFFT
  57:../Dave/Generated/CMSIS_DSP/TransformFunctions/arm_cfft_radix4_f32.c **** * @{
  58:../Dave/Generated/CMSIS_DSP/TransformFunctions/arm_cfft_radix4_f32.c **** */
  59:../Dave/Generated/CMSIS_DSP/TransformFunctions/arm_cfft_radix4_f32.c **** 
  60:../Dave/Generated/CMSIS_DSP/TransformFunctions/arm_cfft_radix4_f32.c **** /**
  61:../Dave/Generated/CMSIS_DSP/TransformFunctions/arm_cfft_radix4_f32.c **** * @details
  62:../Dave/Generated/CMSIS_DSP/TransformFunctions/arm_cfft_radix4_f32.c **** * @brief Processing function for the floating-point Radix-4 CFFT/CIFFT.
  63:../Dave/Generated/CMSIS_DSP/TransformFunctions/arm_cfft_radix4_f32.c **** * @deprecated Do not use this function.  It has been superseded by \ref arm_cfft_f32 and will be re
  64:../Dave/Generated/CMSIS_DSP/TransformFunctions/arm_cfft_radix4_f32.c **** * in the future.
  65:../Dave/Generated/CMSIS_DSP/TransformFunctions/arm_cfft_radix4_f32.c **** * @param[in]      *S    points to an instance of the floating-point Radix-4 CFFT/CIFFT structure.
  66:../Dave/Generated/CMSIS_DSP/TransformFunctions/arm_cfft_radix4_f32.c **** * @param[in, out] *pSrc points to the complex data buffer of size <code>2*fftLen</code>. Processing
  67:../Dave/Generated/CMSIS_DSP/TransformFunctions/arm_cfft_radix4_f32.c **** * @return none.
  68:../Dave/Generated/CMSIS_DSP/TransformFunctions/arm_cfft_radix4_f32.c **** */
  69:../Dave/Generated/CMSIS_DSP/TransformFunctions/arm_cfft_radix4_f32.c **** 
  70:../Dave/Generated/CMSIS_DSP/TransformFunctions/arm_cfft_radix4_f32.c **** void arm_cfft_radix4_f32(
  71:../Dave/Generated/CMSIS_DSP/TransformFunctions/arm_cfft_radix4_f32.c ****   const arm_cfft_radix4_instance_f32 * S,
  72:../Dave/Generated/CMSIS_DSP/TransformFunctions/arm_cfft_radix4_f32.c ****   float32_t * pSrc)
  73:../Dave/Generated/CMSIS_DSP/TransformFunctions/arm_cfft_radix4_f32.c **** {
  74:../Dave/Generated/CMSIS_DSP/TransformFunctions/arm_cfft_radix4_f32.c ****    if (S->ifftFlag == 1u)
  75:../Dave/Generated/CMSIS_DSP/TransformFunctions/arm_cfft_radix4_f32.c ****    {
  76:../Dave/Generated/CMSIS_DSP/TransformFunctions/arm_cfft_radix4_f32.c ****       /*  Complex IFFT radix-4  */
  77:../Dave/Generated/CMSIS_DSP/TransformFunctions/arm_cfft_radix4_f32.c ****       arm_radix4_butterfly_inverse_f32(pSrc, S->fftLen, S->pTwiddle, S->twidCoefModifier, S->onebyf
  78:../Dave/Generated/CMSIS_DSP/TransformFunctions/arm_cfft_radix4_f32.c ****    }
  79:../Dave/Generated/CMSIS_DSP/TransformFunctions/arm_cfft_radix4_f32.c ****    else
  80:../Dave/Generated/CMSIS_DSP/TransformFunctions/arm_cfft_radix4_f32.c ****    {
  81:../Dave/Generated/CMSIS_DSP/TransformFunctions/arm_cfft_radix4_f32.c ****       /*  Complex FFT radix-4  */
  82:../Dave/Generated/CMSIS_DSP/TransformFunctions/arm_cfft_radix4_f32.c ****       arm_radix4_butterfly_f32(pSrc, S->fftLen, S->pTwiddle, S->twidCoefModifier);
  83:../Dave/Generated/CMSIS_DSP/TransformFunctions/arm_cfft_radix4_f32.c ****    }
  84:../Dave/Generated/CMSIS_DSP/TransformFunctions/arm_cfft_radix4_f32.c **** 
  85:../Dave/Generated/CMSIS_DSP/TransformFunctions/arm_cfft_radix4_f32.c ****    if (S->bitReverseFlag == 1u)
  86:../Dave/Generated/CMSIS_DSP/TransformFunctions/arm_cfft_radix4_f32.c ****    {
  87:../Dave/Generated/CMSIS_DSP/TransformFunctions/arm_cfft_radix4_f32.c ****       /*  Bit Reversal */
  88:../Dave/Generated/CMSIS_DSP/TransformFunctions/arm_cfft_radix4_f32.c ****       arm_bitreversal_f32(pSrc, S->fftLen, S->bitRevFactor, S->pBitRevTable);
  89:../Dave/Generated/CMSIS_DSP/TransformFunctions/arm_cfft_radix4_f32.c ****    }
  90:../Dave/Generated/CMSIS_DSP/TransformFunctions/arm_cfft_radix4_f32.c **** 
  91:../Dave/Generated/CMSIS_DSP/TransformFunctions/arm_cfft_radix4_f32.c **** }
  92:../Dave/Generated/CMSIS_DSP/TransformFunctions/arm_cfft_radix4_f32.c **** 
  93:../Dave/Generated/CMSIS_DSP/TransformFunctions/arm_cfft_radix4_f32.c **** /**
  94:../Dave/Generated/CMSIS_DSP/TransformFunctions/arm_cfft_radix4_f32.c **** * @} end of ComplexFFT group
  95:../Dave/Generated/CMSIS_DSP/TransformFunctions/arm_cfft_radix4_f32.c **** */
  96:../Dave/Generated/CMSIS_DSP/TransformFunctions/arm_cfft_radix4_f32.c **** 
  97:../Dave/Generated/CMSIS_DSP/TransformFunctions/arm_cfft_radix4_f32.c **** /* ----------------------------------------------------------------------
  98:../Dave/Generated/CMSIS_DSP/TransformFunctions/arm_cfft_radix4_f32.c ****  * Internal helper function used by the FFTs
  99:../Dave/Generated/CMSIS_DSP/TransformFunctions/arm_cfft_radix4_f32.c ****  * ---------------------------------------------------------------------- */
 100:../Dave/Generated/CMSIS_DSP/TransformFunctions/arm_cfft_radix4_f32.c **** 
 101:../Dave/Generated/CMSIS_DSP/TransformFunctions/arm_cfft_radix4_f32.c **** /*
 102:../Dave/Generated/CMSIS_DSP/TransformFunctions/arm_cfft_radix4_f32.c **** * @brief  Core function for the floating-point CFFT butterfly process.
 103:../Dave/Generated/CMSIS_DSP/TransformFunctions/arm_cfft_radix4_f32.c **** * @param[in, out] *pSrc            points to the in-place buffer of floating-point data type.
 104:../Dave/Generated/CMSIS_DSP/TransformFunctions/arm_cfft_radix4_f32.c **** * @param[in]      fftLen           length of the FFT.
 105:../Dave/Generated/CMSIS_DSP/TransformFunctions/arm_cfft_radix4_f32.c **** * @param[in]      *pCoef           points to the twiddle coefficient buffer.
 106:../Dave/Generated/CMSIS_DSP/TransformFunctions/arm_cfft_radix4_f32.c **** * @param[in]      twidCoefModifier twiddle coefficient modifier that supports different size FFTs w
 107:../Dave/Generated/CMSIS_DSP/TransformFunctions/arm_cfft_radix4_f32.c **** * @return none.
 108:../Dave/Generated/CMSIS_DSP/TransformFunctions/arm_cfft_radix4_f32.c **** */
 109:../Dave/Generated/CMSIS_DSP/TransformFunctions/arm_cfft_radix4_f32.c **** 
 110:../Dave/Generated/CMSIS_DSP/TransformFunctions/arm_cfft_radix4_f32.c **** void arm_radix4_butterfly_f32(
 111:../Dave/Generated/CMSIS_DSP/TransformFunctions/arm_cfft_radix4_f32.c **** float32_t * pSrc,
 112:../Dave/Generated/CMSIS_DSP/TransformFunctions/arm_cfft_radix4_f32.c **** uint16_t fftLen,
 113:../Dave/Generated/CMSIS_DSP/TransformFunctions/arm_cfft_radix4_f32.c **** float32_t * pCoef,
 114:../Dave/Generated/CMSIS_DSP/TransformFunctions/arm_cfft_radix4_f32.c **** uint16_t twidCoefModifier)
 115:../Dave/Generated/CMSIS_DSP/TransformFunctions/arm_cfft_radix4_f32.c **** {
  28              	 .loc 1 115 0
  29              	 .cfi_startproc
  30              	 
  31              	 
  32              	.LVL0:
  33 0000 2DE9F04F 	 push {r4,r5,r6,r7,r8,r9,r10,fp,lr}
  34              	.LCFI0:
  35              	 .cfi_def_cfa_offset 36
  36              	 .cfi_offset 4,-36
  37              	 .cfi_offset 5,-32
  38              	 .cfi_offset 6,-28
  39              	 .cfi_offset 7,-24
  40              	 .cfi_offset 8,-20
  41              	 .cfi_offset 9,-16
  42              	 .cfi_offset 10,-12
  43              	 .cfi_offset 11,-8
  44              	 .cfi_offset 14,-4
  45 0004 2DED068B 	 fstmfdd sp!,{d8,d9,d10}
  46              	.LCFI1:
  47              	 .cfi_def_cfa_offset 60
  48              	 .cfi_offset 80,-60
  49              	 .cfi_offset 81,-56
  50              	 .cfi_offset 82,-52
  51              	 .cfi_offset 83,-48
  52              	 .cfi_offset 84,-44
  53              	 .cfi_offset 85,-40
  54 0008 8A46     	 mov r10,r1
  55              	.LVL1:
 116:../Dave/Generated/CMSIS_DSP/TransformFunctions/arm_cfft_radix4_f32.c **** 
 117:../Dave/Generated/CMSIS_DSP/TransformFunctions/arm_cfft_radix4_f32.c ****    float32_t co1, co2, co3, si1, si2, si3;
 118:../Dave/Generated/CMSIS_DSP/TransformFunctions/arm_cfft_radix4_f32.c ****    uint32_t ia1, ia2, ia3;
 119:../Dave/Generated/CMSIS_DSP/TransformFunctions/arm_cfft_radix4_f32.c ****    uint32_t i0, i1, i2, i3;
 120:../Dave/Generated/CMSIS_DSP/TransformFunctions/arm_cfft_radix4_f32.c ****    uint32_t n1, n2, j, k;
 121:../Dave/Generated/CMSIS_DSP/TransformFunctions/arm_cfft_radix4_f32.c **** 
 122:../Dave/Generated/CMSIS_DSP/TransformFunctions/arm_cfft_radix4_f32.c **** #if defined (ARM_MATH_DSP)
 123:../Dave/Generated/CMSIS_DSP/TransformFunctions/arm_cfft_radix4_f32.c **** 
 124:../Dave/Generated/CMSIS_DSP/TransformFunctions/arm_cfft_radix4_f32.c ****    /* Run the below code for Cortex-M4 and Cortex-M3 */
 125:../Dave/Generated/CMSIS_DSP/TransformFunctions/arm_cfft_radix4_f32.c **** 
 126:../Dave/Generated/CMSIS_DSP/TransformFunctions/arm_cfft_radix4_f32.c ****    float32_t xaIn, yaIn, xbIn, ybIn, xcIn, ycIn, xdIn, ydIn;
 127:../Dave/Generated/CMSIS_DSP/TransformFunctions/arm_cfft_radix4_f32.c ****    float32_t Xaplusc, Xbplusd, Yaplusc, Ybplusd, Xaminusc, Xbminusd, Yaminusc,
 128:../Dave/Generated/CMSIS_DSP/TransformFunctions/arm_cfft_radix4_f32.c ****    Ybminusd;
 129:../Dave/Generated/CMSIS_DSP/TransformFunctions/arm_cfft_radix4_f32.c ****    float32_t Xb12C_out, Yb12C_out, Xc12C_out, Yc12C_out, Xd12C_out, Yd12C_out;
 130:../Dave/Generated/CMSIS_DSP/TransformFunctions/arm_cfft_radix4_f32.c ****    float32_t Xb12_out, Yb12_out, Xc12_out, Yc12_out, Xd12_out, Yd12_out;
 131:../Dave/Generated/CMSIS_DSP/TransformFunctions/arm_cfft_radix4_f32.c ****    float32_t *ptr1;
 132:../Dave/Generated/CMSIS_DSP/TransformFunctions/arm_cfft_radix4_f32.c ****    float32_t p0,p1,p2,p3,p4,p5;
 133:../Dave/Generated/CMSIS_DSP/TransformFunctions/arm_cfft_radix4_f32.c ****    float32_t a0,a1,a2,a3,a4,a5,a6,a7;
 134:../Dave/Generated/CMSIS_DSP/TransformFunctions/arm_cfft_radix4_f32.c **** 
 135:../Dave/Generated/CMSIS_DSP/TransformFunctions/arm_cfft_radix4_f32.c ****    /*  Initializations for the first stage */
 136:../Dave/Generated/CMSIS_DSP/TransformFunctions/arm_cfft_radix4_f32.c ****    n2 = fftLen;
 137:../Dave/Generated/CMSIS_DSP/TransformFunctions/arm_cfft_radix4_f32.c ****    n1 = n2;
 138:../Dave/Generated/CMSIS_DSP/TransformFunctions/arm_cfft_radix4_f32.c **** 
 139:../Dave/Generated/CMSIS_DSP/TransformFunctions/arm_cfft_radix4_f32.c ****    /* n2 = fftLen/4 */
 140:../Dave/Generated/CMSIS_DSP/TransformFunctions/arm_cfft_radix4_f32.c ****    n2 >>= 2u;
  56              	 .loc 1 140 0
  57 000a 8908     	 lsrs r1,r1,#2
  58              	.LVL2:
 115:../Dave/Generated/CMSIS_DSP/TransformFunctions/arm_cfft_radix4_f32.c **** 
  59              	 .loc 1 115 0
  60 000c 8DB0     	 sub sp,sp,#52
  61              	.LCFI2:
  62              	 .cfi_def_cfa_offset 112
  63 000e 4FEAC10C 	 lsl ip,r1,#3
  64 0012 00EB0C04 	 add r4,r0,ip
  65              	 .loc 1 140 0
  66 0016 0D46     	 mov r5,r1
 115:../Dave/Generated/CMSIS_DSP/TransformFunctions/arm_cfft_radix4_f32.c **** 
  67              	 .loc 1 115 0
  68 0018 1F46     	 mov r7,r3
  69 001a 9146     	 mov r9,r2
  70 001c 0A92     	 str r2,[sp,#40]
  71 001e 04EB0C02 	 add r2,r4,ip
  72              	.LVL3:
  73 0022 0646     	 mov r6,r0
  74 0024 0093     	 str r3,[sp]
  75 0026 07EB470E 	 add lr,r7,r7,lsl#1
  76 002a 05EB4503 	 add r3,r5,r5,lsl#1
  77              	.LVL4:
  78 002e A2EBC507 	 sub r7,r2,r5,lsl#3
  79 0032 0990     	 str r0,[sp,#36]
  80 0034 0CF10400 	 add r0,ip,#4
  81              	.LVL5:
  82 0038 0197     	 str r7,[sp,#4]
  83              	 .loc 1 140 0
  84 003a 0391     	 str r1,[sp,#12]
  85 003c 3044     	 add r0,r0,r6
  86 003e 3146     	 mov r1,r6
  87 0040 06EBC303 	 add r3,r6,r3,lsl#3
  88 0044 371D     	 adds r7,r6,#4
  89 0046 009E     	 ldr r6,[sp]
  90              	.LVL6:
  91 0048 AB46     	 mov fp,r5
  92              	.LVL7:
  93 004a F500     	 lsls r5,r6,#3
  94              	.LVL8:
  95 004c 0295     	 str r5,[sp,#8]
  96 004e CDF810B0 	 str fp,[sp,#16]
  97 0052 DDF808B0 	 ldr fp,[sp,#8]
  98              	.LVL9:
  99 0056 CDF808A0 	 str r10,[sp,#8]
 100 005a DDF804A0 	 ldr r10,[sp,#4]
 101              	.LVL10:
 102 005e 4FEA0618 	 lsl r8,r6,#4
 103 0062 4FEACE0E 	 lsl lr,lr,#3
 104 0066 4E46     	 mov r6,r9
 105 0068 4D46     	 mov r5,r9
 106              	.LVL11:
 107              	.L2:
 141:../Dave/Generated/CMSIS_DSP/TransformFunctions/arm_cfft_radix4_f32.c ****    i0 = 0u;
 142:../Dave/Generated/CMSIS_DSP/TransformFunctions/arm_cfft_radix4_f32.c ****    ia1 = 0u;
 143:../Dave/Generated/CMSIS_DSP/TransformFunctions/arm_cfft_radix4_f32.c **** 
 144:../Dave/Generated/CMSIS_DSP/TransformFunctions/arm_cfft_radix4_f32.c ****    j = n2;
 145:../Dave/Generated/CMSIS_DSP/TransformFunctions/arm_cfft_radix4_f32.c **** 
 146:../Dave/Generated/CMSIS_DSP/TransformFunctions/arm_cfft_radix4_f32.c ****    /*  Calculation of first stage */
 147:../Dave/Generated/CMSIS_DSP/TransformFunctions/arm_cfft_radix4_f32.c ****    do
 148:../Dave/Generated/CMSIS_DSP/TransformFunctions/arm_cfft_radix4_f32.c ****    {
 149:../Dave/Generated/CMSIS_DSP/TransformFunctions/arm_cfft_radix4_f32.c ****       /*  index calculation for the input as, */
 150:../Dave/Generated/CMSIS_DSP/TransformFunctions/arm_cfft_radix4_f32.c ****       /*  pSrc[i0 + 0], pSrc[i0 + fftLen/4], pSrc[i0 + fftLen/2], pSrc[i0 + 3fftLen/4] */
 151:../Dave/Generated/CMSIS_DSP/TransformFunctions/arm_cfft_radix4_f32.c ****       i1 = i0 + n2;
 152:../Dave/Generated/CMSIS_DSP/TransformFunctions/arm_cfft_radix4_f32.c ****       i2 = i1 + n2;
 153:../Dave/Generated/CMSIS_DSP/TransformFunctions/arm_cfft_radix4_f32.c ****       i3 = i2 + n2;
 154:../Dave/Generated/CMSIS_DSP/TransformFunctions/arm_cfft_radix4_f32.c **** 
 155:../Dave/Generated/CMSIS_DSP/TransformFunctions/arm_cfft_radix4_f32.c ****       xaIn = pSrc[(2u * i0)];
 108              	 .loc 1 155 0 discriminator 1
 109 006a 17ED014A 	 flds s8,[r7,#-4]
 110              	.LVL12:
 156:../Dave/Generated/CMSIS_DSP/TransformFunctions/arm_cfft_radix4_f32.c ****       yaIn = pSrc[(2u * i0) + 1u];
 157:../Dave/Generated/CMSIS_DSP/TransformFunctions/arm_cfft_radix4_f32.c **** 
 158:../Dave/Generated/CMSIS_DSP/TransformFunctions/arm_cfft_radix4_f32.c ****       xbIn = pSrc[(2u * i1)];
 111              	 .loc 1 158 0 discriminator 1
 112 006e 10ED016A 	 flds s12,[r0,#-4]
 156:../Dave/Generated/CMSIS_DSP/TransformFunctions/arm_cfft_radix4_f32.c ****       yaIn = pSrc[(2u * i0) + 1u];
 113              	 .loc 1 156 0 discriminator 1
 114 0072 D1ED017A 	 flds s15,[r1,#4]
 115              	.LVL13:
 159:../Dave/Generated/CMSIS_DSP/TransformFunctions/arm_cfft_radix4_f32.c ****       ybIn = pSrc[(2u * i1) + 1u];
 116              	 .loc 1 159 0 discriminator 1
 117 0076 D4ED014A 	 flds s9,[r4,#4]
 118              	.LVL14:
 160:../Dave/Generated/CMSIS_DSP/TransformFunctions/arm_cfft_radix4_f32.c **** 
 161:../Dave/Generated/CMSIS_DSP/TransformFunctions/arm_cfft_radix4_f32.c ****       xcIn = pSrc[(2u * i2)];
 162:../Dave/Generated/CMSIS_DSP/TransformFunctions/arm_cfft_radix4_f32.c ****       ycIn = pSrc[(2u * i2) + 1u];
 119              	 .loc 1 162 0 discriminator 1
 120 007a D2ED016A 	 flds s13,[r2,#4]
 163:../Dave/Generated/CMSIS_DSP/TransformFunctions/arm_cfft_radix4_f32.c **** 
 164:../Dave/Generated/CMSIS_DSP/TransformFunctions/arm_cfft_radix4_f32.c ****       xdIn = pSrc[(2u * i3)];
 165:../Dave/Generated/CMSIS_DSP/TransformFunctions/arm_cfft_radix4_f32.c ****       ydIn = pSrc[(2u * i3) + 1u];
 121              	 .loc 1 165 0 discriminator 1
 122 007e 93ED015A 	 flds s10,[r3,#4]
 161:../Dave/Generated/CMSIS_DSP/TransformFunctions/arm_cfft_radix4_f32.c ****       ycIn = pSrc[(2u * i2) + 1u];
 123              	 .loc 1 161 0 discriminator 1
 124 0082 D2ED005A 	 flds s11,[r2]
 125              	.LVL15:
 164:../Dave/Generated/CMSIS_DSP/TransformFunctions/arm_cfft_radix4_f32.c ****       ydIn = pSrc[(2u * i3) + 1u];
 126              	 .loc 1 164 0 discriminator 1
 127 0086 93ED007A 	 flds s14,[r3]
 128              	.LVL16:
 166:../Dave/Generated/CMSIS_DSP/TransformFunctions/arm_cfft_radix4_f32.c **** 
 167:../Dave/Generated/CMSIS_DSP/TransformFunctions/arm_cfft_radix4_f32.c ****       /* xa + xc */
 168:../Dave/Generated/CMSIS_DSP/TransformFunctions/arm_cfft_radix4_f32.c ****       Xaplusc = xaIn + xcIn;
 169:../Dave/Generated/CMSIS_DSP/TransformFunctions/arm_cfft_radix4_f32.c ****       /* xb + xd */
 170:../Dave/Generated/CMSIS_DSP/TransformFunctions/arm_cfft_radix4_f32.c ****       Xbplusd = xbIn + xdIn;
 171:../Dave/Generated/CMSIS_DSP/TransformFunctions/arm_cfft_radix4_f32.c ****       /* ya + yc */
 172:../Dave/Generated/CMSIS_DSP/TransformFunctions/arm_cfft_radix4_f32.c ****       Yaplusc = yaIn + ycIn;
 173:../Dave/Generated/CMSIS_DSP/TransformFunctions/arm_cfft_radix4_f32.c ****       /* yb + yd */
 174:../Dave/Generated/CMSIS_DSP/TransformFunctions/arm_cfft_radix4_f32.c ****       Ybplusd = ybIn + ydIn;
 175:../Dave/Generated/CMSIS_DSP/TransformFunctions/arm_cfft_radix4_f32.c **** 
 176:../Dave/Generated/CMSIS_DSP/TransformFunctions/arm_cfft_radix4_f32.c ****       /*  index calculation for the coefficients */
 177:../Dave/Generated/CMSIS_DSP/TransformFunctions/arm_cfft_radix4_f32.c ****       ia2 = ia1 + ia1;
 178:../Dave/Generated/CMSIS_DSP/TransformFunctions/arm_cfft_radix4_f32.c ****       co2 = pCoef[ia2 * 2u];
 129              	 .loc 1 178 0 discriminator 1
 130 008a 99ED001A 	 flds s2,[r9]
 179:../Dave/Generated/CMSIS_DSP/TransformFunctions/arm_cfft_radix4_f32.c ****       si2 = pCoef[(ia2 * 2u) + 1u];
 131              	 .loc 1 179 0 discriminator 1
 132 008e D9ED011A 	 flds s3,[r9,#4]
 168:../Dave/Generated/CMSIS_DSP/TransformFunctions/arm_cfft_radix4_f32.c ****       /* xb + xd */
 133              	 .loc 1 168 0 discriminator 1
 134 0092 34EE252A 	 fadds s4,s8,s11
 135              	.LVL17:
 170:../Dave/Generated/CMSIS_DSP/TransformFunctions/arm_cfft_radix4_f32.c ****       /* ya + yc */
 136              	 .loc 1 170 0 discriminator 1
 137 0096 76EE072A 	 fadds s5,s12,s14
 138              	.LVL18:
 172:../Dave/Generated/CMSIS_DSP/TransformFunctions/arm_cfft_radix4_f32.c ****       /* yb + yd */
 139              	 .loc 1 172 0 discriminator 1
 140 009a 37EEA63A 	 fadds s6,s15,s13
 141              	.LVL19:
 174:../Dave/Generated/CMSIS_DSP/TransformFunctions/arm_cfft_radix4_f32.c **** 
 142              	 .loc 1 174 0 discriminator 1
 143 009e 74EE853A 	 fadds s7,s9,s10
 144              	.LVL20:
 180:../Dave/Generated/CMSIS_DSP/TransformFunctions/arm_cfft_radix4_f32.c **** 
 181:../Dave/Generated/CMSIS_DSP/TransformFunctions/arm_cfft_radix4_f32.c ****       /* xa - xc */
 182:../Dave/Generated/CMSIS_DSP/TransformFunctions/arm_cfft_radix4_f32.c ****       Xaminusc = xaIn - xcIn;
 183:../Dave/Generated/CMSIS_DSP/TransformFunctions/arm_cfft_radix4_f32.c ****       /* xb - xd */
 184:../Dave/Generated/CMSIS_DSP/TransformFunctions/arm_cfft_radix4_f32.c ****       Xbminusd = xbIn - xdIn;
 185:../Dave/Generated/CMSIS_DSP/TransformFunctions/arm_cfft_radix4_f32.c ****       /* ya - yc */
 186:../Dave/Generated/CMSIS_DSP/TransformFunctions/arm_cfft_radix4_f32.c ****       Yaminusc = yaIn - ycIn;
 187:../Dave/Generated/CMSIS_DSP/TransformFunctions/arm_cfft_radix4_f32.c ****       /* yb - yd */
 188:../Dave/Generated/CMSIS_DSP/TransformFunctions/arm_cfft_radix4_f32.c ****       Ybminusd = ybIn - ydIn;
 189:../Dave/Generated/CMSIS_DSP/TransformFunctions/arm_cfft_radix4_f32.c **** 
 190:../Dave/Generated/CMSIS_DSP/TransformFunctions/arm_cfft_radix4_f32.c ****       /* xa' = xa + xb + xc + xd */
 191:../Dave/Generated/CMSIS_DSP/TransformFunctions/arm_cfft_radix4_f32.c ****       pSrc[(2u * i0)] = Xaplusc + Xbplusd;
 145              	 .loc 1 191 0 discriminator 1
 146 00a2 32EE220A 	 fadds s0,s4,s5
 192:../Dave/Generated/CMSIS_DSP/TransformFunctions/arm_cfft_radix4_f32.c ****       /* ya' = ya + yb + yc + yd */
 193:../Dave/Generated/CMSIS_DSP/TransformFunctions/arm_cfft_radix4_f32.c ****       pSrc[(2u * i0) + 1u] = Yaplusc + Ybplusd;
 147              	 .loc 1 193 0 discriminator 1
 148 00a6 73EE230A 	 fadds s1,s6,s7
 182:../Dave/Generated/CMSIS_DSP/TransformFunctions/arm_cfft_radix4_f32.c ****       /* xb - xd */
 149              	 .loc 1 182 0 discriminator 1
 150 00aa 74EE655A 	 fsubs s11,s8,s11
 151              	.LVL21:
 184:../Dave/Generated/CMSIS_DSP/TransformFunctions/arm_cfft_radix4_f32.c ****       /* ya - yc */
 152              	 .loc 1 184 0 discriminator 1
 153 00ae 36EE477A 	 fsubs s14,s12,s14
 154              	.LVL22:
 186:../Dave/Generated/CMSIS_DSP/TransformFunctions/arm_cfft_radix4_f32.c ****       /* yb - yd */
 155              	 .loc 1 186 0 discriminator 1
 156 00b2 77EEE67A 	 fsubs s15,s15,s13
 157              	.LVL23:
 188:../Dave/Generated/CMSIS_DSP/TransformFunctions/arm_cfft_radix4_f32.c **** 
 158              	 .loc 1 188 0 discriminator 1
 159 00b6 74EEC56A 	 fsubs s13,s9,s10
 160              	.LVL24:
 191:../Dave/Generated/CMSIS_DSP/TransformFunctions/arm_cfft_radix4_f32.c ****       /* ya' = ya + yb + yc + yd */
 161              	 .loc 1 191 0 discriminator 1
 162 00ba 07ED010A 	 fsts s0,[r7,#-4]
 163              	.LVL25:
 164              	 .loc 1 193 0 discriminator 1
 165 00be C1ED010A 	 fsts s1,[r1,#4]
 194:../Dave/Generated/CMSIS_DSP/TransformFunctions/arm_cfft_radix4_f32.c **** 
 195:../Dave/Generated/CMSIS_DSP/TransformFunctions/arm_cfft_radix4_f32.c ****       /* (xa - xc) + (yb - yd) */
 196:../Dave/Generated/CMSIS_DSP/TransformFunctions/arm_cfft_radix4_f32.c ****       Xb12C_out = (Xaminusc + Ybminusd);
 197:../Dave/Generated/CMSIS_DSP/TransformFunctions/arm_cfft_radix4_f32.c ****       /* (ya - yc) + (xb - xd) */
 198:../Dave/Generated/CMSIS_DSP/TransformFunctions/arm_cfft_radix4_f32.c ****       Yb12C_out = (Yaminusc - Xbminusd);
 199:../Dave/Generated/CMSIS_DSP/TransformFunctions/arm_cfft_radix4_f32.c ****       /* (xa + xc) - (xb + xd) */
 200:../Dave/Generated/CMSIS_DSP/TransformFunctions/arm_cfft_radix4_f32.c ****       Xc12C_out = (Xaplusc - Xbplusd);
 201:../Dave/Generated/CMSIS_DSP/TransformFunctions/arm_cfft_radix4_f32.c ****       /* (ya + yc) - (yb + yd) */
 202:../Dave/Generated/CMSIS_DSP/TransformFunctions/arm_cfft_radix4_f32.c ****       Yc12C_out = (Yaplusc - Ybplusd);
 203:../Dave/Generated/CMSIS_DSP/TransformFunctions/arm_cfft_radix4_f32.c ****       /* (xa - xc) - (yb - yd) */
 204:../Dave/Generated/CMSIS_DSP/TransformFunctions/arm_cfft_radix4_f32.c ****       Xd12C_out = (Xaminusc - Ybminusd);
 205:../Dave/Generated/CMSIS_DSP/TransformFunctions/arm_cfft_radix4_f32.c ****       /* (ya - yc) + (xb - xd) */
 206:../Dave/Generated/CMSIS_DSP/TransformFunctions/arm_cfft_radix4_f32.c ****       Yd12C_out = (Xbminusd + Yaminusc);
 207:../Dave/Generated/CMSIS_DSP/TransformFunctions/arm_cfft_radix4_f32.c **** 
 208:../Dave/Generated/CMSIS_DSP/TransformFunctions/arm_cfft_radix4_f32.c ****       co1 = pCoef[ia1 * 2u];
 209:../Dave/Generated/CMSIS_DSP/TransformFunctions/arm_cfft_radix4_f32.c ****       si1 = pCoef[(ia1 * 2u) + 1u];
 166              	 .loc 1 209 0 discriminator 1
 167 00c2 95ED014A 	 flds s8,[r5,#4]
 168              	.LVL26:
 210:../Dave/Generated/CMSIS_DSP/TransformFunctions/arm_cfft_radix4_f32.c **** 
 211:../Dave/Generated/CMSIS_DSP/TransformFunctions/arm_cfft_radix4_f32.c ****       /*  index calculation for the coefficients */
 212:../Dave/Generated/CMSIS_DSP/TransformFunctions/arm_cfft_radix4_f32.c ****       ia3 = ia2 + ia1;
 213:../Dave/Generated/CMSIS_DSP/TransformFunctions/arm_cfft_radix4_f32.c ****       co3 = pCoef[ia3 * 2u];
 214:../Dave/Generated/CMSIS_DSP/TransformFunctions/arm_cfft_radix4_f32.c ****       si3 = pCoef[(ia3 * 2u) + 1u];
 169              	 .loc 1 214 0 discriminator 1
 170 00c6 D6ED014A 	 flds s9,[r6,#4]
 171              	.LVL27:
 200:../Dave/Generated/CMSIS_DSP/TransformFunctions/arm_cfft_radix4_f32.c ****       /* (ya + yc) - (yb + yd) */
 172              	 .loc 1 200 0 discriminator 1
 173 00ca 32EE625A 	 fsubs s10,s4,s5
 174              	.LVL28:
 198:../Dave/Generated/CMSIS_DSP/TransformFunctions/arm_cfft_radix4_f32.c ****       /* (xa + xc) - (xb + xd) */
 175              	 .loc 1 198 0 discriminator 1
 176 00ce 77EEC70A 	 fsubs s1,s15,s14
 196:../Dave/Generated/CMSIS_DSP/TransformFunctions/arm_cfft_radix4_f32.c ****       /* (ya - yc) + (xb - xd) */
 177              	 .loc 1 196 0 discriminator 1
 178 00d2 35EEA62A 	 fadds s4,s11,s13
 179              	.LVL29:
 202:../Dave/Generated/CMSIS_DSP/TransformFunctions/arm_cfft_radix4_f32.c ****       /* (xa - xc) - (yb - yd) */
 180              	 .loc 1 202 0 discriminator 1
 181 00d6 33EE636A 	 fsubs s12,s6,s7
 182              	.LVL30:
 206:../Dave/Generated/CMSIS_DSP/TransformFunctions/arm_cfft_radix4_f32.c **** 
 183              	 .loc 1 206 0 discriminator 1
 184 00da 77EE277A 	 fadds s15,s14,s15
 185              	.LVL31:
 204:../Dave/Generated/CMSIS_DSP/TransformFunctions/arm_cfft_radix4_f32.c ****       /* (ya - yc) + (xb - xd) */
 186              	 .loc 1 204 0 discriminator 1
 187 00de 35EEE67A 	 fsubs s14,s11,s13
 188              	.LVL32:
 208:../Dave/Generated/CMSIS_DSP/TransformFunctions/arm_cfft_radix4_f32.c ****       si1 = pCoef[(ia1 * 2u) + 1u];
 189              	 .loc 1 208 0 discriminator 1
 190 00e2 D5ED002A 	 flds s5,[r5]
 191              	.LVL33:
 213:../Dave/Generated/CMSIS_DSP/TransformFunctions/arm_cfft_radix4_f32.c ****       si3 = pCoef[(ia3 * 2u) + 1u];
 192              	 .loc 1 213 0 discriminator 1
 193 00e6 96ED003A 	 flds s6,[r6]
 194              	.LVL34:
 215:../Dave/Generated/CMSIS_DSP/TransformFunctions/arm_cfft_radix4_f32.c **** 
 216:../Dave/Generated/CMSIS_DSP/TransformFunctions/arm_cfft_radix4_f32.c ****       Xb12_out = Xb12C_out * co1;
 217:../Dave/Generated/CMSIS_DSP/TransformFunctions/arm_cfft_radix4_f32.c ****       Yb12_out = Yb12C_out * co1;
 218:../Dave/Generated/CMSIS_DSP/TransformFunctions/arm_cfft_radix4_f32.c ****       Xc12_out = Xc12C_out * co2;
 219:../Dave/Generated/CMSIS_DSP/TransformFunctions/arm_cfft_radix4_f32.c ****       Yc12_out = Yc12C_out * co2;
 220:../Dave/Generated/CMSIS_DSP/TransformFunctions/arm_cfft_radix4_f32.c ****       Xd12_out = Xd12C_out * co3;
 221:../Dave/Generated/CMSIS_DSP/TransformFunctions/arm_cfft_radix4_f32.c ****       Yd12_out = Yd12C_out * co3;
 222:../Dave/Generated/CMSIS_DSP/TransformFunctions/arm_cfft_radix4_f32.c **** 
 223:../Dave/Generated/CMSIS_DSP/TransformFunctions/arm_cfft_radix4_f32.c ****       /* xb' = (xa+yb-xc-yd)co1 - (ya-xb-yc+xd)(si1) */
 224:../Dave/Generated/CMSIS_DSP/TransformFunctions/arm_cfft_radix4_f32.c ****       //Xb12_out -= Yb12C_out * si1;
 225:../Dave/Generated/CMSIS_DSP/TransformFunctions/arm_cfft_radix4_f32.c ****       p0 = Yb12C_out * si1;
 195              	 .loc 1 225 0 discriminator 1
 196 00ea 60EE845A 	 fmuls s11,s1,s8
 197              	.LVL35:
 226:../Dave/Generated/CMSIS_DSP/TransformFunctions/arm_cfft_radix4_f32.c ****       /* yb' = (ya-xb-yc+xd)co1 + (xa+yb-xc-yd)(si1) */
 227:../Dave/Generated/CMSIS_DSP/TransformFunctions/arm_cfft_radix4_f32.c ****       //Yb12_out += Xb12C_out * si1;
 228:../Dave/Generated/CMSIS_DSP/TransformFunctions/arm_cfft_radix4_f32.c ****       p1 = Xb12C_out * si1;
 229:../Dave/Generated/CMSIS_DSP/TransformFunctions/arm_cfft_radix4_f32.c ****       /* xc' = (xa-xb+xc-xd)co2 - (ya-yb+yc-yd)(si2) */
 230:../Dave/Generated/CMSIS_DSP/TransformFunctions/arm_cfft_radix4_f32.c ****       //Xc12_out -= Yc12C_out * si2;
 231:../Dave/Generated/CMSIS_DSP/TransformFunctions/arm_cfft_radix4_f32.c ****       p2 = Yc12C_out * si2;
 198              	 .loc 1 231 0 discriminator 1
 199 00ee 66EE213A 	 fmuls s7,s12,s3
 200              	.LVL36:
 232:../Dave/Generated/CMSIS_DSP/TransformFunctions/arm_cfft_radix4_f32.c ****       /* yc' = (ya-yb+yc-yd)co2 + (xa-xb+xc-xd)(si2) */
 233:../Dave/Generated/CMSIS_DSP/TransformFunctions/arm_cfft_radix4_f32.c ****       //Yc12_out += Xc12C_out * si2;
 234:../Dave/Generated/CMSIS_DSP/TransformFunctions/arm_cfft_radix4_f32.c ****       p3 = Xc12C_out * si2;
 235:../Dave/Generated/CMSIS_DSP/TransformFunctions/arm_cfft_radix4_f32.c ****       /* xd' = (xa-yb-xc+yd)co3 - (ya+xb-yc-xd)(si3) */
 236:../Dave/Generated/CMSIS_DSP/TransformFunctions/arm_cfft_radix4_f32.c ****       //Xd12_out -= Yd12C_out * si3;
 237:../Dave/Generated/CMSIS_DSP/TransformFunctions/arm_cfft_radix4_f32.c ****       p4 = Yd12C_out * si3;
 201              	 .loc 1 237 0 discriminator 1
 202 00f2 67EEA46A 	 fmuls s13,s15,s9
 203              	.LVL37:
 204 00f6 24EE424A 	 fnmuls s8,s8,s4
 205              	.LVL38:
 206 00fa 61EEC51A 	 fnmuls s3,s3,s10
 207              	.LVL39:
 208 00fe 64EEC74A 	 fnmuls s9,s9,s14
 209              	.LVL40:
 238:../Dave/Generated/CMSIS_DSP/TransformFunctions/arm_cfft_radix4_f32.c ****       /* yd' = (ya+xb-yc-xd)co3 + (xa-yb-xc+yd)(si3) */
 239:../Dave/Generated/CMSIS_DSP/TransformFunctions/arm_cfft_radix4_f32.c ****       //Yd12_out += Xd12C_out * si3;
 240:../Dave/Generated/CMSIS_DSP/TransformFunctions/arm_cfft_radix4_f32.c ****       p5 = Xd12C_out * si3;
 241:../Dave/Generated/CMSIS_DSP/TransformFunctions/arm_cfft_radix4_f32.c **** 
 242:../Dave/Generated/CMSIS_DSP/TransformFunctions/arm_cfft_radix4_f32.c ****       Xb12_out += p0;
 243:../Dave/Generated/CMSIS_DSP/TransformFunctions/arm_cfft_radix4_f32.c ****       Yb12_out -= p1;
 210              	 .loc 1 243 0 discriminator 1
 211 0102 A0EEA24A 	 vfma.f32 s8,s1,s5
 212              	.LVL41:
 213 0106 0831     	 adds r1,r1,#8
 244:../Dave/Generated/CMSIS_DSP/TransformFunctions/arm_cfft_radix4_f32.c ****       Xc12_out += p2;
 245:../Dave/Generated/CMSIS_DSP/TransformFunctions/arm_cfft_radix4_f32.c ****       Yc12_out -= p3;
 246:../Dave/Generated/CMSIS_DSP/TransformFunctions/arm_cfft_radix4_f32.c ****       Xd12_out += p4;
 247:../Dave/Generated/CMSIS_DSP/TransformFunctions/arm_cfft_radix4_f32.c ****       Yd12_out -= p5;
 248:../Dave/Generated/CMSIS_DSP/TransformFunctions/arm_cfft_radix4_f32.c **** 
 249:../Dave/Generated/CMSIS_DSP/TransformFunctions/arm_cfft_radix4_f32.c ****       /* xc' = (xa-xb+xc-xd)co2 + (ya-yb+yc-yd)(si2) */
 250:../Dave/Generated/CMSIS_DSP/TransformFunctions/arm_cfft_radix4_f32.c ****       pSrc[2u * i1] = Xc12_out;
 251:../Dave/Generated/CMSIS_DSP/TransformFunctions/arm_cfft_radix4_f32.c **** 
 252:../Dave/Generated/CMSIS_DSP/TransformFunctions/arm_cfft_radix4_f32.c ****       /* yc' = (ya-yb+yc-yd)co2 - (xa-xb+xc-xd)(si2) */
 253:../Dave/Generated/CMSIS_DSP/TransformFunctions/arm_cfft_radix4_f32.c ****       pSrc[(2u * i1) + 1u] = Yc12_out;
 254:../Dave/Generated/CMSIS_DSP/TransformFunctions/arm_cfft_radix4_f32.c **** 
 255:../Dave/Generated/CMSIS_DSP/TransformFunctions/arm_cfft_radix4_f32.c ****       /* xb' = (xa+yb-xc-yd)co1 + (ya-xb-yc+xd)(si1) */
 256:../Dave/Generated/CMSIS_DSP/TransformFunctions/arm_cfft_radix4_f32.c ****       pSrc[2u * i2] = Xb12_out;
 257:../Dave/Generated/CMSIS_DSP/TransformFunctions/arm_cfft_radix4_f32.c **** 
 258:../Dave/Generated/CMSIS_DSP/TransformFunctions/arm_cfft_radix4_f32.c ****       /* yb' = (ya-xb-yc+xd)co1 - (xa+yb-xc-yd)(si1) */
 259:../Dave/Generated/CMSIS_DSP/TransformFunctions/arm_cfft_radix4_f32.c ****       pSrc[(2u * i2) + 1u] = Yb12_out;
 260:../Dave/Generated/CMSIS_DSP/TransformFunctions/arm_cfft_radix4_f32.c **** 
 261:../Dave/Generated/CMSIS_DSP/TransformFunctions/arm_cfft_radix4_f32.c ****       /* xd' = (xa-yb-xc+yd)co3 + (ya+xb-yc-xd)(si3) */
 262:../Dave/Generated/CMSIS_DSP/TransformFunctions/arm_cfft_radix4_f32.c ****       pSrc[2u * i3] = Xd12_out;
 263:../Dave/Generated/CMSIS_DSP/TransformFunctions/arm_cfft_radix4_f32.c **** 
 264:../Dave/Generated/CMSIS_DSP/TransformFunctions/arm_cfft_radix4_f32.c ****       /* yd' = (ya+xb-yc-xd)co3 - (xa-yb-xc+yd)(si3) */
 265:../Dave/Generated/CMSIS_DSP/TransformFunctions/arm_cfft_radix4_f32.c ****       pSrc[(2u * i3) + 1u] = Yd12_out;
 266:../Dave/Generated/CMSIS_DSP/TransformFunctions/arm_cfft_radix4_f32.c **** 
 267:../Dave/Generated/CMSIS_DSP/TransformFunctions/arm_cfft_radix4_f32.c ****       /*  Twiddle coefficients index modifier */
 268:../Dave/Generated/CMSIS_DSP/TransformFunctions/arm_cfft_radix4_f32.c ****       ia1 += twidCoefModifier;
 269:../Dave/Generated/CMSIS_DSP/TransformFunctions/arm_cfft_radix4_f32.c **** 
 270:../Dave/Generated/CMSIS_DSP/TransformFunctions/arm_cfft_radix4_f32.c ****       /*  Updating input index */
 271:../Dave/Generated/CMSIS_DSP/TransformFunctions/arm_cfft_radix4_f32.c ****       i0++;
 272:../Dave/Generated/CMSIS_DSP/TransformFunctions/arm_cfft_radix4_f32.c **** 
 273:../Dave/Generated/CMSIS_DSP/TransformFunctions/arm_cfft_radix4_f32.c ****    }
 274:../Dave/Generated/CMSIS_DSP/TransformFunctions/arm_cfft_radix4_f32.c ****    while (--j);
 214              	 .loc 1 274 0 discriminator 1
 215 0108 5145     	 cmp r1,r10
 242:../Dave/Generated/CMSIS_DSP/TransformFunctions/arm_cfft_radix4_f32.c ****       Yb12_out -= p1;
 216              	 .loc 1 242 0 discriminator 1
 217 010a E2EE225A 	 vfma.f32 s11,s4,s5
 218              	.LVL42:
 219 010e 07F10807 	 add r7,r7,#8
 220 0112 C144     	 add r9,r9,r8
 244:../Dave/Generated/CMSIS_DSP/TransformFunctions/arm_cfft_radix4_f32.c ****       Xc12_out += p2;
 221              	 .loc 1 244 0 discriminator 1
 222 0114 E5EE013A 	 vfma.f32 s7,s10,s2
 223              	.LVL43:
 224 0118 5D44     	 add r5,r5,fp
 225              	.LVL44:
 226 011a 7644     	 add r6,r6,lr
 227              	.LVL45:
 245:../Dave/Generated/CMSIS_DSP/TransformFunctions/arm_cfft_radix4_f32.c ****       Xd12_out += p4;
 228              	 .loc 1 245 0 discriminator 1
 229 011c E6EE011A 	 vfma.f32 s3,s12,s2
 230              	.LVL46:
 231 0120 00F10800 	 add r0,r0,#8
 232 0124 04F10804 	 add r4,r4,#8
 246:../Dave/Generated/CMSIS_DSP/TransformFunctions/arm_cfft_radix4_f32.c ****       Yd12_out -= p5;
 233              	 .loc 1 246 0 discriminator 1
 234 0128 E7EE036A 	 vfma.f32 s13,s14,s6
 235              	.LVL47:
 236 012c 02F10802 	 add r2,r2,#8
 237 0130 03F10803 	 add r3,r3,#8
 247:../Dave/Generated/CMSIS_DSP/TransformFunctions/arm_cfft_radix4_f32.c **** 
 238              	 .loc 1 247 0 discriminator 1
 239 0134 E7EE834A 	 vfma.f32 s9,s15,s6
 240              	.LVL48:
 250:../Dave/Generated/CMSIS_DSP/TransformFunctions/arm_cfft_radix4_f32.c **** 
 241              	 .loc 1 250 0 discriminator 1
 242 0138 40ED033A 	 fsts s7,[r0,#-12]
 253:../Dave/Generated/CMSIS_DSP/TransformFunctions/arm_cfft_radix4_f32.c **** 
 243              	 .loc 1 253 0 discriminator 1
 244 013c 44ED011A 	 fsts s3,[r4,#-4]
 256:../Dave/Generated/CMSIS_DSP/TransformFunctions/arm_cfft_radix4_f32.c **** 
 245              	 .loc 1 256 0 discriminator 1
 246 0140 42ED025A 	 fsts s11,[r2,#-8]
 259:../Dave/Generated/CMSIS_DSP/TransformFunctions/arm_cfft_radix4_f32.c **** 
 247              	 .loc 1 259 0 discriminator 1
 248 0144 02ED014A 	 fsts s8,[r2,#-4]
 262:../Dave/Generated/CMSIS_DSP/TransformFunctions/arm_cfft_radix4_f32.c **** 
 249              	 .loc 1 262 0 discriminator 1
 250 0148 43ED026A 	 fsts s13,[r3,#-8]
 265:../Dave/Generated/CMSIS_DSP/TransformFunctions/arm_cfft_radix4_f32.c **** 
 251              	 .loc 1 265 0 discriminator 1
 252 014c 43ED014A 	 fsts s9,[r3,#-4]
 253              	 .loc 1 274 0 discriminator 1
 254 0150 8BD1     	 bne .L2
 275:../Dave/Generated/CMSIS_DSP/TransformFunctions/arm_cfft_radix4_f32.c **** 
 276:../Dave/Generated/CMSIS_DSP/TransformFunctions/arm_cfft_radix4_f32.c ****    twidCoefModifier <<= 2u;
 255              	 .loc 1 276 0
 256 0152 009B     	 ldr r3,[sp]
 277:../Dave/Generated/CMSIS_DSP/TransformFunctions/arm_cfft_radix4_f32.c **** 
 278:../Dave/Generated/CMSIS_DSP/TransformFunctions/arm_cfft_radix4_f32.c ****    /*  Calculation of second stage to excluding last stage */
 279:../Dave/Generated/CMSIS_DSP/TransformFunctions/arm_cfft_radix4_f32.c ****    for (k = fftLen >> 2u; k > 4u; k >>= 2u)
 257              	 .loc 1 279 0
 258 0154 BDF80C20 	 ldrh r2,[sp,#12]
 259 0158 DDF810B0 	 ldr fp,[sp,#16]
 260 015c DDF808A0 	 ldr r10,[sp,#8]
 261 0160 0B92     	 str r2,[sp,#44]
 276:../Dave/Generated/CMSIS_DSP/TransformFunctions/arm_cfft_radix4_f32.c **** 
 262              	 .loc 1 276 0
 263 0162 9B00     	 lsls r3,r3,#2
 264 0164 9BB2     	 uxth r3,r3
 265              	 .loc 1 279 0
 266 0166 042A     	 cmp r2,#4
 276:../Dave/Generated/CMSIS_DSP/TransformFunctions/arm_cfft_radix4_f32.c **** 
 267              	 .loc 1 276 0
 268 0168 0693     	 str r3,[sp,#24]
 269              	.LVL49:
 270              	 .loc 1 279 0
 271 016a 40F2AD80 	 bls .L8
 272 016e 0792     	 str r2,[sp,#28]
 273              	.LVL50:
 274              	.L7:
 275 0170 0698     	 ldr r0,[sp,#24]
 280:../Dave/Generated/CMSIS_DSP/TransformFunctions/arm_cfft_radix4_f32.c ****    {
 281:../Dave/Generated/CMSIS_DSP/TransformFunctions/arm_cfft_radix4_f32.c ****       /*  Initializations for the first stage */
 282:../Dave/Generated/CMSIS_DSP/TransformFunctions/arm_cfft_radix4_f32.c ****       n1 = n2;
 283:../Dave/Generated/CMSIS_DSP/TransformFunctions/arm_cfft_radix4_f32.c ****       n2 >>= 2u;
 276              	 .loc 1 283 0
 277 0172 0A9F     	 ldr r7,[sp,#40]
 278 0174 099E     	 ldr r6,[sp,#36]
 279 0176 4FEA9B03 	 lsr r3,fp,#2
 280 017a 1946     	 mov r1,r3
 281 017c 0893     	 str r3,[sp,#32]
 282              	.LVL51:
 283 017e 00EB4003 	 add r3,r0,r0,lsl#1
 284 0182 4A1E     	 subs r2,r1,#1
 285 0184 DB00     	 lsls r3,r3,#3
 286 0186 0592     	 str r2,[sp,#20]
 287 0188 0393     	 str r3,[sp,#12]
 288 018a 0A01     	 lsls r2,r1,#4
 289 018c 0301     	 lsls r3,r0,#4
 290 018e 0492     	 str r2,[sp,#16]
 291 0190 0293     	 str r3,[sp,#8]
 292 0192 C200     	 lsls r2,r0,#3
 284:../Dave/Generated/CMSIS_DSP/TransformFunctions/arm_cfft_radix4_f32.c ****       ia1 = 0u;
 285:../Dave/Generated/CMSIS_DSP/TransformFunctions/arm_cfft_radix4_f32.c **** 
 286:../Dave/Generated/CMSIS_DSP/TransformFunctions/arm_cfft_radix4_f32.c ****       /*  Calculation of first stage */
 287:../Dave/Generated/CMSIS_DSP/TransformFunctions/arm_cfft_radix4_f32.c ****       j = 0;
 293              	 .loc 1 287 0
 294 0194 0023     	 movs r3,#0
 295 0196 06EBC109 	 add r9,r6,r1,lsl#3
 296 019a 0192     	 str r2,[sp,#4]
 283:../Dave/Generated/CMSIS_DSP/TransformFunctions/arm_cfft_radix4_f32.c ****       ia1 = 0u;
 297              	 .loc 1 283 0
 298 019c B846     	 mov r8,r7
 299 019e BE46     	 mov lr,r7
 300              	 .loc 1 287 0
 301 01a0 0093     	 str r3,[sp]
 302              	.LVL52:
 303              	.L6:
 304 01a2 049B     	 ldr r3,[sp,#16]
 288:../Dave/Generated/CMSIS_DSP/TransformFunctions/arm_cfft_radix4_f32.c ****       do
 289:../Dave/Generated/CMSIS_DSP/TransformFunctions/arm_cfft_radix4_f32.c ****       {
 290:../Dave/Generated/CMSIS_DSP/TransformFunctions/arm_cfft_radix4_f32.c ****          /*  index calculation for the coefficients */
 291:../Dave/Generated/CMSIS_DSP/TransformFunctions/arm_cfft_radix4_f32.c ****          ia2 = ia1 + ia1;
 292:../Dave/Generated/CMSIS_DSP/TransformFunctions/arm_cfft_radix4_f32.c ****          ia3 = ia2 + ia1;
 293:../Dave/Generated/CMSIS_DSP/TransformFunctions/arm_cfft_radix4_f32.c ****          co1 = pCoef[ia1 * 2u];
 305              	 .loc 1 293 0
 306 01a4 97ED000A 	 flds s0,[r7]
 307              	.LVL53:
 294:../Dave/Generated/CMSIS_DSP/TransformFunctions/arm_cfft_radix4_f32.c ****          si1 = pCoef[(ia1 * 2u) + 1u];
 308              	 .loc 1 294 0
 309 01a8 D7ED010A 	 flds s1,[r7,#4]
 310              	.LVL54:
 295:../Dave/Generated/CMSIS_DSP/TransformFunctions/arm_cfft_radix4_f32.c ****          co2 = pCoef[ia2 * 2u];
 311              	 .loc 1 295 0
 312 01ac 9EED001A 	 flds s2,[lr]
 313              	.LVL55:
 296:../Dave/Generated/CMSIS_DSP/TransformFunctions/arm_cfft_radix4_f32.c ****          si2 = pCoef[(ia2 * 2u) + 1u];
 314              	 .loc 1 296 0
 315 01b0 DEED011A 	 flds s3,[lr,#4]
 316              	.LVL56:
 297:../Dave/Generated/CMSIS_DSP/TransformFunctions/arm_cfft_radix4_f32.c ****          co3 = pCoef[ia3 * 2u];
 317              	 .loc 1 297 0
 318 01b4 98ED002A 	 flds s4,[r8]
 319              	.LVL57:
 298:../Dave/Generated/CMSIS_DSP/TransformFunctions/arm_cfft_radix4_f32.c ****          si3 = pCoef[(ia3 * 2u) + 1u];
 320              	 .loc 1 298 0
 321 01b8 D8ED012A 	 flds s5,[r8,#4]
 322              	.LVL58:
 299:../Dave/Generated/CMSIS_DSP/TransformFunctions/arm_cfft_radix4_f32.c **** 
 300:../Dave/Generated/CMSIS_DSP/TransformFunctions/arm_cfft_radix4_f32.c ****          /*  Twiddle coefficients index modifier */
 301:../Dave/Generated/CMSIS_DSP/TransformFunctions/arm_cfft_radix4_f32.c ****          ia1 += twidCoefModifier;
 302:../Dave/Generated/CMSIS_DSP/TransformFunctions/arm_cfft_radix4_f32.c **** 
 303:../Dave/Generated/CMSIS_DSP/TransformFunctions/arm_cfft_radix4_f32.c ****          i0 = j;
 323              	 .loc 1 303 0
 324 01bc 009D     	 ldr r5,[sp]
 325 01be F118     	 adds r1,r6,r3
 326 01c0 09EB0302 	 add r2,r9,r3
 327 01c4 341D     	 adds r4,r6,#4
 298:../Dave/Generated/CMSIS_DSP/TransformFunctions/arm_cfft_radix4_f32.c ****          si3 = pCoef[(ia3 * 2u) + 1u];
 328              	 .loc 1 298 0
 329 01c6 4B46     	 mov r3,r9
 330 01c8 3046     	 mov r0,r6
 331              	.LVL59:
 332              	.L5:
 304:../Dave/Generated/CMSIS_DSP/TransformFunctions/arm_cfft_radix4_f32.c ****          do
 305:../Dave/Generated/CMSIS_DSP/TransformFunctions/arm_cfft_radix4_f32.c ****          {
 306:../Dave/Generated/CMSIS_DSP/TransformFunctions/arm_cfft_radix4_f32.c ****             /*  index calculation for the input as, */
 307:../Dave/Generated/CMSIS_DSP/TransformFunctions/arm_cfft_radix4_f32.c ****             /*  pSrc[i0 + 0], pSrc[i0 + fftLen/4], pSrc[i0 + fftLen/2], pSrc[i0 + 3fftLen/4] */
 308:../Dave/Generated/CMSIS_DSP/TransformFunctions/arm_cfft_radix4_f32.c ****             i1 = i0 + n2;
 309:../Dave/Generated/CMSIS_DSP/TransformFunctions/arm_cfft_radix4_f32.c ****             i2 = i1 + n2;
 310:../Dave/Generated/CMSIS_DSP/TransformFunctions/arm_cfft_radix4_f32.c ****             i3 = i2 + n2;
 311:../Dave/Generated/CMSIS_DSP/TransformFunctions/arm_cfft_radix4_f32.c **** 
 312:../Dave/Generated/CMSIS_DSP/TransformFunctions/arm_cfft_radix4_f32.c ****             xaIn = pSrc[(2u * i0)];
 333              	 .loc 1 312 0 discriminator 1
 334 01ca 14ED014A 	 flds s8,[r4,#-4]
 335              	.LVL60:
 313:../Dave/Generated/CMSIS_DSP/TransformFunctions/arm_cfft_radix4_f32.c ****             yaIn = pSrc[(2u * i0) + 1u];
 336              	 .loc 1 313 0 discriminator 1
 337 01ce 90ED016A 	 flds s12,[r0,#4]
 338              	.LVL61:
 314:../Dave/Generated/CMSIS_DSP/TransformFunctions/arm_cfft_radix4_f32.c **** 
 315:../Dave/Generated/CMSIS_DSP/TransformFunctions/arm_cfft_radix4_f32.c ****             xbIn = pSrc[(2u * i1)];
 316:../Dave/Generated/CMSIS_DSP/TransformFunctions/arm_cfft_radix4_f32.c ****             ybIn = pSrc[(2u * i1) + 1u];
 317:../Dave/Generated/CMSIS_DSP/TransformFunctions/arm_cfft_radix4_f32.c **** 
 318:../Dave/Generated/CMSIS_DSP/TransformFunctions/arm_cfft_radix4_f32.c ****             xcIn = pSrc[(2u * i2)];
 319:../Dave/Generated/CMSIS_DSP/TransformFunctions/arm_cfft_radix4_f32.c ****             ycIn = pSrc[(2u * i2) + 1u];
 320:../Dave/Generated/CMSIS_DSP/TransformFunctions/arm_cfft_radix4_f32.c **** 
 321:../Dave/Generated/CMSIS_DSP/TransformFunctions/arm_cfft_radix4_f32.c ****             xdIn = pSrc[(2u * i3)];
 339              	 .loc 1 321 0 discriminator 1
 340 01d2 D2ED007A 	 flds s15,[r2]
 341              	.LVL62:
 316:../Dave/Generated/CMSIS_DSP/TransformFunctions/arm_cfft_radix4_f32.c **** 
 342              	 .loc 1 316 0 discriminator 1
 343 01d6 D3ED014A 	 flds s9,[r3,#4]
 319:../Dave/Generated/CMSIS_DSP/TransformFunctions/arm_cfft_radix4_f32.c **** 
 344              	 .loc 1 319 0 discriminator 1
 345 01da D1ED016A 	 flds s13,[r1,#4]
 322:../Dave/Generated/CMSIS_DSP/TransformFunctions/arm_cfft_radix4_f32.c ****             ydIn = pSrc[(2u * i3) + 1u];
 346              	 .loc 1 322 0 discriminator 1
 347 01de 92ED015A 	 flds s10,[r2,#4]
 318:../Dave/Generated/CMSIS_DSP/TransformFunctions/arm_cfft_radix4_f32.c ****             ycIn = pSrc[(2u * i2) + 1u];
 348              	 .loc 1 318 0 discriminator 1
 349 01e2 D1ED005A 	 flds s11,[r1]
 315:../Dave/Generated/CMSIS_DSP/TransformFunctions/arm_cfft_radix4_f32.c ****             ybIn = pSrc[(2u * i1) + 1u];
 350              	 .loc 1 315 0 discriminator 1
 351 01e6 93ED007A 	 flds s14,[r3]
 352              	.LVL63:
 323:../Dave/Generated/CMSIS_DSP/TransformFunctions/arm_cfft_radix4_f32.c **** 
 324:../Dave/Generated/CMSIS_DSP/TransformFunctions/arm_cfft_radix4_f32.c ****             /* xa - xc */
 325:../Dave/Generated/CMSIS_DSP/TransformFunctions/arm_cfft_radix4_f32.c ****             Xaminusc = xaIn - xcIn;
 326:../Dave/Generated/CMSIS_DSP/TransformFunctions/arm_cfft_radix4_f32.c ****             /* (xb - xd) */
 327:../Dave/Generated/CMSIS_DSP/TransformFunctions/arm_cfft_radix4_f32.c ****             Xbminusd = xbIn - xdIn;
 328:../Dave/Generated/CMSIS_DSP/TransformFunctions/arm_cfft_radix4_f32.c ****             /* ya - yc */
 329:../Dave/Generated/CMSIS_DSP/TransformFunctions/arm_cfft_radix4_f32.c ****             Yaminusc = yaIn - ycIn;
 330:../Dave/Generated/CMSIS_DSP/TransformFunctions/arm_cfft_radix4_f32.c ****             /* (yb - yd) */
 331:../Dave/Generated/CMSIS_DSP/TransformFunctions/arm_cfft_radix4_f32.c ****             Ybminusd = ybIn - ydIn;
 332:../Dave/Generated/CMSIS_DSP/TransformFunctions/arm_cfft_radix4_f32.c **** 
 333:../Dave/Generated/CMSIS_DSP/TransformFunctions/arm_cfft_radix4_f32.c ****             /* xa + xc */
 334:../Dave/Generated/CMSIS_DSP/TransformFunctions/arm_cfft_radix4_f32.c ****             Xaplusc = xaIn + xcIn;
 353              	 .loc 1 334 0 discriminator 1
 354 01ea 34EE253A 	 fadds s6,s8,s11
 335:../Dave/Generated/CMSIS_DSP/TransformFunctions/arm_cfft_radix4_f32.c ****             /* xb + xd */
 336:../Dave/Generated/CMSIS_DSP/TransformFunctions/arm_cfft_radix4_f32.c ****             Xbplusd = xbIn + xdIn;
 355              	 .loc 1 336 0 discriminator 1
 356 01ee 77EE273A 	 fadds s7,s14,s15
 325:../Dave/Generated/CMSIS_DSP/TransformFunctions/arm_cfft_radix4_f32.c ****             /* (xb - xd) */
 357              	 .loc 1 325 0 discriminator 1
 358 01f2 74EE655A 	 fsubs s11,s8,s11
 359              	.LVL64:
 327:../Dave/Generated/CMSIS_DSP/TransformFunctions/arm_cfft_radix4_f32.c ****             /* ya - yc */
 360              	 .loc 1 327 0 discriminator 1
 361 01f6 37EE677A 	 fsubs s14,s14,s15
 362              	.LVL65:
 337:../Dave/Generated/CMSIS_DSP/TransformFunctions/arm_cfft_radix4_f32.c ****             /* ya + yc */
 338:../Dave/Generated/CMSIS_DSP/TransformFunctions/arm_cfft_radix4_f32.c ****             Yaplusc = yaIn + ycIn;
 363              	 .loc 1 338 0 discriminator 1
 364 01fa 36EE264A 	 fadds s8,s12,s13
 365              	.LVL66:
 329:../Dave/Generated/CMSIS_DSP/TransformFunctions/arm_cfft_radix4_f32.c ****             /* (yb - yd) */
 366              	 .loc 1 329 0 discriminator 1
 367 01fe 76EE667A 	 fsubs s15,s12,s13
 368              	.LVL67:
 339:../Dave/Generated/CMSIS_DSP/TransformFunctions/arm_cfft_radix4_f32.c ****             /* yb + yd */
 340:../Dave/Generated/CMSIS_DSP/TransformFunctions/arm_cfft_radix4_f32.c ****             Ybplusd = ybIn + ydIn;
 369              	 .loc 1 340 0 discriminator 1
 370 0202 34EE856A 	 fadds s12,s9,s10
 371              	.LVL68:
 331:../Dave/Generated/CMSIS_DSP/TransformFunctions/arm_cfft_radix4_f32.c **** 
 372              	 .loc 1 331 0 discriminator 1
 373 0206 74EEC56A 	 fsubs s13,s9,s10
 374              	.LVL69:
 341:../Dave/Generated/CMSIS_DSP/TransformFunctions/arm_cfft_radix4_f32.c **** 
 342:../Dave/Generated/CMSIS_DSP/TransformFunctions/arm_cfft_radix4_f32.c ****             /* (xa - xc) + (yb - yd) */
 343:../Dave/Generated/CMSIS_DSP/TransformFunctions/arm_cfft_radix4_f32.c ****             Xb12C_out = (Xaminusc + Ybminusd);
 344:../Dave/Generated/CMSIS_DSP/TransformFunctions/arm_cfft_radix4_f32.c ****             /* (ya - yc) -  (xb - xd) */
 345:../Dave/Generated/CMSIS_DSP/TransformFunctions/arm_cfft_radix4_f32.c ****             Yb12C_out = (Yaminusc - Xbminusd);
 375              	 .loc 1 345 0 discriminator 1
 376 020a 77EEC79A 	 fsubs s19,s15,s14
 343:../Dave/Generated/CMSIS_DSP/TransformFunctions/arm_cfft_radix4_f32.c ****             /* (ya - yc) -  (xb - xd) */
 377              	 .loc 1 343 0 discriminator 1
 378 020e 35EEA69A 	 fadds s18,s11,s13
 379              	.LVL70:
 346:../Dave/Generated/CMSIS_DSP/TransformFunctions/arm_cfft_radix4_f32.c ****             /* xa + xc -(xb + xd) */
 347:../Dave/Generated/CMSIS_DSP/TransformFunctions/arm_cfft_radix4_f32.c ****             Xc12C_out = (Xaplusc - Xbplusd);
 380              	 .loc 1 347 0 discriminator 1
 381 0212 33EE63AA 	 fsubs s20,s6,s7
 382              	.LVL71:
 348:../Dave/Generated/CMSIS_DSP/TransformFunctions/arm_cfft_radix4_f32.c ****             /* (ya + yc) - (yb + yd) */
 349:../Dave/Generated/CMSIS_DSP/TransformFunctions/arm_cfft_radix4_f32.c ****             Yc12C_out = (Yaplusc - Ybplusd);
 383              	 .loc 1 349 0 discriminator 1
 384 0216 74EE46AA 	 fsubs s21,s8,s12
 385              	.LVL72:
 350:../Dave/Generated/CMSIS_DSP/TransformFunctions/arm_cfft_radix4_f32.c ****             /* (xa - xc) - (yb - yd) */
 351:../Dave/Generated/CMSIS_DSP/TransformFunctions/arm_cfft_radix4_f32.c ****             Xd12C_out = (Xaminusc - Ybminusd);
 386              	 .loc 1 351 0 discriminator 1
 387 021a 75EEE66A 	 fsubs s13,s11,s13
 388              	.LVL73:
 352:../Dave/Generated/CMSIS_DSP/TransformFunctions/arm_cfft_radix4_f32.c ****             /* (ya - yc) +  (xb - xd) */
 353:../Dave/Generated/CMSIS_DSP/TransformFunctions/arm_cfft_radix4_f32.c ****             Yd12C_out = (Xbminusd + Yaminusc);
 389              	 .loc 1 353 0 discriminator 1
 390 021e 77EE277A 	 fadds s15,s14,s15
 391              	.LVL74:
 392 0222 21EECA8A 	 fnmuls s16,s3,s20
 354:../Dave/Generated/CMSIS_DSP/TransformFunctions/arm_cfft_radix4_f32.c **** 
 355:../Dave/Generated/CMSIS_DSP/TransformFunctions/arm_cfft_radix4_f32.c ****             pSrc[(2u * i0)] = Xaplusc + Xbplusd;
 356:../Dave/Generated/CMSIS_DSP/TransformFunctions/arm_cfft_radix4_f32.c ****             pSrc[(2u * i0) + 1u] = Yaplusc + Ybplusd;
 357:../Dave/Generated/CMSIS_DSP/TransformFunctions/arm_cfft_radix4_f32.c **** 
 358:../Dave/Generated/CMSIS_DSP/TransformFunctions/arm_cfft_radix4_f32.c ****             Xb12_out = Xb12C_out * co1;
 359:../Dave/Generated/CMSIS_DSP/TransformFunctions/arm_cfft_radix4_f32.c ****             Yb12_out = Yb12C_out * co1;
 360:../Dave/Generated/CMSIS_DSP/TransformFunctions/arm_cfft_radix4_f32.c ****             Xc12_out = Xc12C_out * co2;
 361:../Dave/Generated/CMSIS_DSP/TransformFunctions/arm_cfft_radix4_f32.c ****             Yc12_out = Yc12C_out * co2;
 362:../Dave/Generated/CMSIS_DSP/TransformFunctions/arm_cfft_radix4_f32.c ****             Xd12_out = Xd12C_out * co3;
 363:../Dave/Generated/CMSIS_DSP/TransformFunctions/arm_cfft_radix4_f32.c ****             Yd12_out = Yd12C_out * co3;
 364:../Dave/Generated/CMSIS_DSP/TransformFunctions/arm_cfft_radix4_f32.c **** 
 365:../Dave/Generated/CMSIS_DSP/TransformFunctions/arm_cfft_radix4_f32.c ****             /* xb' = (xa+yb-xc-yd)co1 - (ya-xb-yc+xd)(si1) */
 366:../Dave/Generated/CMSIS_DSP/TransformFunctions/arm_cfft_radix4_f32.c ****             //Xb12_out -= Yb12C_out * si1;
 367:../Dave/Generated/CMSIS_DSP/TransformFunctions/arm_cfft_radix4_f32.c ****             p0 = Yb12C_out * si1;
 368:../Dave/Generated/CMSIS_DSP/TransformFunctions/arm_cfft_radix4_f32.c ****             /* yb' = (ya-xb-yc+xd)co1 + (xa+yb-xc-yd)(si1) */
 369:../Dave/Generated/CMSIS_DSP/TransformFunctions/arm_cfft_radix4_f32.c ****             //Yb12_out += Xb12C_out * si1;
 370:../Dave/Generated/CMSIS_DSP/TransformFunctions/arm_cfft_radix4_f32.c ****             p1 = Xb12C_out * si1;
 371:../Dave/Generated/CMSIS_DSP/TransformFunctions/arm_cfft_radix4_f32.c ****             /* xc' = (xa-xb+xc-xd)co2 - (ya-yb+yc-yd)(si2) */
 372:../Dave/Generated/CMSIS_DSP/TransformFunctions/arm_cfft_radix4_f32.c ****             //Xc12_out -= Yc12C_out * si2;
 373:../Dave/Generated/CMSIS_DSP/TransformFunctions/arm_cfft_radix4_f32.c ****             p2 = Yc12C_out * si2;
 393              	 .loc 1 373 0 discriminator 1
 394 0226 6AEEA18A 	 fmuls s17,s21,s3
 395 022a 20EEC95A 	 fnmuls s10,s1,s18
 396              	.LVL75:
 367:../Dave/Generated/CMSIS_DSP/TransformFunctions/arm_cfft_radix4_f32.c ****             /* yb' = (ya-xb-yc+xd)co1 + (xa+yb-xc-yd)(si1) */
 397              	 .loc 1 367 0 discriminator 1
 398 022e 69EEA04A 	 fmuls s9,s19,s1
 399              	.LVL76:
 374:../Dave/Generated/CMSIS_DSP/TransformFunctions/arm_cfft_radix4_f32.c ****             /* yc' = (ya-yb+yc-yd)co2 + (xa-xb+xc-xd)(si2) */
 375:../Dave/Generated/CMSIS_DSP/TransformFunctions/arm_cfft_radix4_f32.c ****             //Yc12_out += Xc12C_out * si2;
 376:../Dave/Generated/CMSIS_DSP/TransformFunctions/arm_cfft_radix4_f32.c ****             p3 = Xc12C_out * si2;
 377:../Dave/Generated/CMSIS_DSP/TransformFunctions/arm_cfft_radix4_f32.c ****             /* xd' = (xa-yb-xc+yd)co3 - (ya+xb-yc-xd)(si3) */
 378:../Dave/Generated/CMSIS_DSP/TransformFunctions/arm_cfft_radix4_f32.c ****             //Xd12_out -= Yd12C_out * si3;
 379:../Dave/Generated/CMSIS_DSP/TransformFunctions/arm_cfft_radix4_f32.c ****             p4 = Yd12C_out * si3;
 400              	 .loc 1 379 0 discriminator 1
 401 0232 67EEA25A 	 fmuls s11,s15,s5
 402              	.LVL77:
 403 0236 22EEE67A 	 fnmuls s14,s5,s13
 404              	.LVL78:
 380:../Dave/Generated/CMSIS_DSP/TransformFunctions/arm_cfft_radix4_f32.c ****             /* yd' = (ya+xb-yc-xd)co3 + (xa-yb-xc+yd)(si3) */
 381:../Dave/Generated/CMSIS_DSP/TransformFunctions/arm_cfft_radix4_f32.c ****             //Yd12_out += Xd12C_out * si3;
 382:../Dave/Generated/CMSIS_DSP/TransformFunctions/arm_cfft_radix4_f32.c ****             p5 = Xd12C_out * si3;
 383:../Dave/Generated/CMSIS_DSP/TransformFunctions/arm_cfft_radix4_f32.c **** 
 384:../Dave/Generated/CMSIS_DSP/TransformFunctions/arm_cfft_radix4_f32.c ****             Xb12_out += p0;
 385:../Dave/Generated/CMSIS_DSP/TransformFunctions/arm_cfft_radix4_f32.c ****             Yb12_out -= p1;
 386:../Dave/Generated/CMSIS_DSP/TransformFunctions/arm_cfft_radix4_f32.c ****             Xc12_out += p2;
 387:../Dave/Generated/CMSIS_DSP/TransformFunctions/arm_cfft_radix4_f32.c ****             Yc12_out -= p3;
 405              	 .loc 1 387 0 discriminator 1
 406 023a AAEE818A 	 vfma.f32 s16,s21,s2
 388:../Dave/Generated/CMSIS_DSP/TransformFunctions/arm_cfft_radix4_f32.c ****             Xd12_out += p4;
 389:../Dave/Generated/CMSIS_DSP/TransformFunctions/arm_cfft_radix4_f32.c ****             Yd12_out -= p5;
 390:../Dave/Generated/CMSIS_DSP/TransformFunctions/arm_cfft_radix4_f32.c **** 
 391:../Dave/Generated/CMSIS_DSP/TransformFunctions/arm_cfft_radix4_f32.c ****             /* xc' = (xa-xb+xc-xd)co2 + (ya-yb+yc-yd)(si2) */
 392:../Dave/Generated/CMSIS_DSP/TransformFunctions/arm_cfft_radix4_f32.c ****             pSrc[2u * i1] = Xc12_out;
 393:../Dave/Generated/CMSIS_DSP/TransformFunctions/arm_cfft_radix4_f32.c **** 
 394:../Dave/Generated/CMSIS_DSP/TransformFunctions/arm_cfft_radix4_f32.c ****             /* yc' = (ya-yb+yc-yd)co2 - (xa-xb+xc-xd)(si2) */
 395:../Dave/Generated/CMSIS_DSP/TransformFunctions/arm_cfft_radix4_f32.c ****             pSrc[(2u * i1) + 1u] = Yc12_out;
 396:../Dave/Generated/CMSIS_DSP/TransformFunctions/arm_cfft_radix4_f32.c **** 
 397:../Dave/Generated/CMSIS_DSP/TransformFunctions/arm_cfft_radix4_f32.c ****             /* xb' = (xa+yb-xc-yd)co1 + (ya-xb-yc+xd)(si1) */
 398:../Dave/Generated/CMSIS_DSP/TransformFunctions/arm_cfft_radix4_f32.c ****             pSrc[2u * i2] = Xb12_out;
 399:../Dave/Generated/CMSIS_DSP/TransformFunctions/arm_cfft_radix4_f32.c **** 
 400:../Dave/Generated/CMSIS_DSP/TransformFunctions/arm_cfft_radix4_f32.c ****             /* yb' = (ya-xb-yc+xd)co1 - (xa+yb-xc-yd)(si1) */
 401:../Dave/Generated/CMSIS_DSP/TransformFunctions/arm_cfft_radix4_f32.c ****             pSrc[(2u * i2) + 1u] = Yb12_out;
 402:../Dave/Generated/CMSIS_DSP/TransformFunctions/arm_cfft_radix4_f32.c **** 
 403:../Dave/Generated/CMSIS_DSP/TransformFunctions/arm_cfft_radix4_f32.c ****             /* xd' = (xa-yb-xc+yd)co3 + (ya+xb-yc-xd)(si3) */
 404:../Dave/Generated/CMSIS_DSP/TransformFunctions/arm_cfft_radix4_f32.c ****             pSrc[2u * i3] = Xd12_out;
 405:../Dave/Generated/CMSIS_DSP/TransformFunctions/arm_cfft_radix4_f32.c **** 
 406:../Dave/Generated/CMSIS_DSP/TransformFunctions/arm_cfft_radix4_f32.c ****             /* yd' = (ya+xb-yc-xd)co3 - (xa-yb-xc+yd)(si3) */
 407:../Dave/Generated/CMSIS_DSP/TransformFunctions/arm_cfft_radix4_f32.c ****             pSrc[(2u * i3) + 1u] = Yd12_out;
 408:../Dave/Generated/CMSIS_DSP/TransformFunctions/arm_cfft_radix4_f32.c **** 
 409:../Dave/Generated/CMSIS_DSP/TransformFunctions/arm_cfft_radix4_f32.c ****             i0 += n1;
 407              	 .loc 1 409 0 discriminator 1
 408 023e 5D44     	 add r5,r5,fp
 409              	.LVL79:
 410:../Dave/Generated/CMSIS_DSP/TransformFunctions/arm_cfft_radix4_f32.c ****          } while (i0 < fftLen);
 410              	 .loc 1 410 0 discriminator 1
 411 0240 AA45     	 cmp r10,r5
 386:../Dave/Generated/CMSIS_DSP/TransformFunctions/arm_cfft_radix4_f32.c ****             Yc12_out -= p3;
 412              	 .loc 1 386 0 discriminator 1
 413 0242 EAEE018A 	 vfma.f32 s17,s20,s2
 385:../Dave/Generated/CMSIS_DSP/TransformFunctions/arm_cfft_radix4_f32.c ****             Xc12_out += p2;
 414              	 .loc 1 385 0 discriminator 1
 415 0246 A9EE805A 	 vfma.f32 s10,s19,s0
 384:../Dave/Generated/CMSIS_DSP/TransformFunctions/arm_cfft_radix4_f32.c ****             Yb12_out -= p1;
 416              	 .loc 1 384 0 discriminator 1
 417 024a E9EE004A 	 vfma.f32 s9,s18,s0
 388:../Dave/Generated/CMSIS_DSP/TransformFunctions/arm_cfft_radix4_f32.c ****             Yd12_out -= p5;
 418              	 .loc 1 388 0 discriminator 1
 419 024e E6EE825A 	 vfma.f32 s11,s13,s4
 389:../Dave/Generated/CMSIS_DSP/TransformFunctions/arm_cfft_radix4_f32.c **** 
 420              	 .loc 1 389 0 discriminator 1
 421 0252 A7EE827A 	 vfma.f32 s14,s15,s4
 355:../Dave/Generated/CMSIS_DSP/TransformFunctions/arm_cfft_radix4_f32.c ****             pSrc[(2u * i0) + 1u] = Yaplusc + Ybplusd;
 422              	 .loc 1 355 0 discriminator 1
 423 0256 73EE233A 	 fadds s7,s6,s7
 424              	.LVL80:
 356:../Dave/Generated/CMSIS_DSP/TransformFunctions/arm_cfft_radix4_f32.c **** 
 425              	 .loc 1 356 0 discriminator 1
 426 025a 34EE066A 	 fadds s12,s8,s12
 427              	.LVL81:
 355:../Dave/Generated/CMSIS_DSP/TransformFunctions/arm_cfft_radix4_f32.c ****             pSrc[(2u * i0) + 1u] = Yaplusc + Ybplusd;
 428              	 .loc 1 355 0 discriminator 1
 429 025e 44ED013A 	 fsts s7,[r4,#-4]
 430              	.LVL82:
 356:../Dave/Generated/CMSIS_DSP/TransformFunctions/arm_cfft_radix4_f32.c **** 
 431              	 .loc 1 356 0 discriminator 1
 432 0262 80ED016A 	 fsts s12,[r0,#4]
 433              	.LVL83:
 434 0266 6444     	 add r4,r4,ip
 392:../Dave/Generated/CMSIS_DSP/TransformFunctions/arm_cfft_radix4_f32.c **** 
 435              	 .loc 1 392 0 discriminator 1
 436 0268 C3ED008A 	 fsts s17,[r3]
 395:../Dave/Generated/CMSIS_DSP/TransformFunctions/arm_cfft_radix4_f32.c **** 
 437              	 .loc 1 395 0 discriminator 1
 438 026c 83ED018A 	 fsts s16,[r3,#4]
 439 0270 6044     	 add r0,r0,ip
 398:../Dave/Generated/CMSIS_DSP/TransformFunctions/arm_cfft_radix4_f32.c **** 
 440              	 .loc 1 398 0 discriminator 1
 441 0272 C1ED004A 	 fsts s9,[r1]
 401:../Dave/Generated/CMSIS_DSP/TransformFunctions/arm_cfft_radix4_f32.c **** 
 442              	 .loc 1 401 0 discriminator 1
 443 0276 81ED015A 	 fsts s10,[r1,#4]
 444 027a 6344     	 add r3,r3,ip
 404:../Dave/Generated/CMSIS_DSP/TransformFunctions/arm_cfft_radix4_f32.c **** 
 445              	 .loc 1 404 0 discriminator 1
 446 027c C2ED005A 	 fsts s11,[r2]
 407:../Dave/Generated/CMSIS_DSP/TransformFunctions/arm_cfft_radix4_f32.c **** 
 447              	 .loc 1 407 0 discriminator 1
 448 0280 82ED017A 	 fsts s14,[r2,#4]
 449 0284 6144     	 add r1,r1,ip
 450 0286 6244     	 add r2,r2,ip
 451              	 .loc 1 410 0 discriminator 1
 452 0288 9FD8     	 bhi .L5
 453 028a 019A     	 ldr r2,[sp,#4]
 411:../Dave/Generated/CMSIS_DSP/TransformFunctions/arm_cfft_radix4_f32.c ****          j++;
 454              	 .loc 1 411 0
 455 028c 009B     	 ldr r3,[sp]
 456 028e 1744     	 add r7,r7,r2
 457 0290 029A     	 ldr r2,[sp,#8]
 458 0292 9644     	 add lr,lr,r2
 459 0294 039A     	 ldr r2,[sp,#12]
 460 0296 9044     	 add r8,r8,r2
 412:../Dave/Generated/CMSIS_DSP/TransformFunctions/arm_cfft_radix4_f32.c ****       } while (j <= (n2 - 1u));
 461              	 .loc 1 412 0
 462 0298 059A     	 ldr r2,[sp,#20]
 411:../Dave/Generated/CMSIS_DSP/TransformFunctions/arm_cfft_radix4_f32.c ****          j++;
 463              	 .loc 1 411 0
 464 029a 0133     	 adds r3,r3,#1
 465              	 .loc 1 412 0
 466 029c 9342     	 cmp r3,r2
 411:../Dave/Generated/CMSIS_DSP/TransformFunctions/arm_cfft_radix4_f32.c ****          j++;
 467              	 .loc 1 411 0
 468 029e 0093     	 str r3,[sp]
 469              	.LVL84:
 470 02a0 06F10806 	 add r6,r6,#8
 471 02a4 09F10809 	 add r9,r9,#8
 472              	 .loc 1 412 0
 473 02a8 7FF67BAF 	 bls .L6
 413:../Dave/Generated/CMSIS_DSP/TransformFunctions/arm_cfft_radix4_f32.c ****       twidCoefModifier <<= 2u;
 474              	 .loc 1 413 0 discriminator 2
 475 02ac 069B     	 ldr r3,[sp,#24]
 476              	.LVL85:
 279:../Dave/Generated/CMSIS_DSP/TransformFunctions/arm_cfft_radix4_f32.c ****    {
 477              	 .loc 1 279 0 discriminator 2
 478 02ae 079A     	 ldr r2,[sp,#28]
 283:../Dave/Generated/CMSIS_DSP/TransformFunctions/arm_cfft_radix4_f32.c ****       ia1 = 0u;
 479              	 .loc 1 283 0 discriminator 2
 480 02b0 DDF820B0 	 ldr fp,[sp,#32]
 481              	.LVL86:
 279:../Dave/Generated/CMSIS_DSP/TransformFunctions/arm_cfft_radix4_f32.c ****    {
 482              	 .loc 1 279 0 discriminator 2
 483 02b4 9208     	 lsrs r2,r2,#2
 484              	 .loc 1 413 0 discriminator 2
 485 02b6 9B00     	 lsls r3,r3,#2
 486 02b8 9BB2     	 uxth r3,r3
 279:../Dave/Generated/CMSIS_DSP/TransformFunctions/arm_cfft_radix4_f32.c ****    {
 487              	 .loc 1 279 0 discriminator 2
 488 02ba 042A     	 cmp r2,#4
 489 02bc 0792     	 str r2,[sp,#28]
 490              	.LVL87:
 491              	 .loc 1 413 0 discriminator 2
 492 02be 0693     	 str r3,[sp,#24]
 493              	.LVL88:
 279:../Dave/Generated/CMSIS_DSP/TransformFunctions/arm_cfft_radix4_f32.c ****    {
 494              	 .loc 1 279 0 discriminator 2
 495 02c0 02D9     	 bls .L8
 496 02c2 4FEACB0C 	 lsl ip,fp,#3
 497 02c6 53E7     	 b .L7
 498              	.LVL89:
 499              	.L8:
 500 02c8 099B     	 ldr r3,[sp,#36]
 501 02ca 0B9A     	 ldr r2,[sp,#44]
 502              	.LVL90:
 503 02cc 2033     	 adds r3,r3,#32
 504              	.LVL91:
 505              	.L4:
 414:../Dave/Generated/CMSIS_DSP/TransformFunctions/arm_cfft_radix4_f32.c ****    }
 415:../Dave/Generated/CMSIS_DSP/TransformFunctions/arm_cfft_radix4_f32.c **** 
 416:../Dave/Generated/CMSIS_DSP/TransformFunctions/arm_cfft_radix4_f32.c ****    j = fftLen >> 2;
 417:../Dave/Generated/CMSIS_DSP/TransformFunctions/arm_cfft_radix4_f32.c ****    ptr1 = &pSrc[0];
 418:../Dave/Generated/CMSIS_DSP/TransformFunctions/arm_cfft_radix4_f32.c **** 
 419:../Dave/Generated/CMSIS_DSP/TransformFunctions/arm_cfft_radix4_f32.c ****    /*  Calculations of last stage */
 420:../Dave/Generated/CMSIS_DSP/TransformFunctions/arm_cfft_radix4_f32.c ****    do
 421:../Dave/Generated/CMSIS_DSP/TransformFunctions/arm_cfft_radix4_f32.c ****    {
 422:../Dave/Generated/CMSIS_DSP/TransformFunctions/arm_cfft_radix4_f32.c ****       xaIn = ptr1[0];
 423:../Dave/Generated/CMSIS_DSP/TransformFunctions/arm_cfft_radix4_f32.c ****       yaIn = ptr1[1];
 424:../Dave/Generated/CMSIS_DSP/TransformFunctions/arm_cfft_radix4_f32.c ****       xbIn = ptr1[2];
 425:../Dave/Generated/CMSIS_DSP/TransformFunctions/arm_cfft_radix4_f32.c ****       ybIn = ptr1[3];
 426:../Dave/Generated/CMSIS_DSP/TransformFunctions/arm_cfft_radix4_f32.c ****       xcIn = ptr1[4];
 506              	 .loc 1 426 0 discriminator 1
 507 02ce 53ED044A 	 flds s9,[r3,#-16]
 424:../Dave/Generated/CMSIS_DSP/TransformFunctions/arm_cfft_radix4_f32.c ****       ybIn = ptr1[3];
 508              	 .loc 1 424 0 discriminator 1
 509 02d2 13ED066A 	 flds s12,[r3,#-24]
 425:../Dave/Generated/CMSIS_DSP/TransformFunctions/arm_cfft_radix4_f32.c ****       xcIn = ptr1[4];
 510              	 .loc 1 425 0 discriminator 1
 511 02d6 13ED055A 	 flds s10,[r3,#-20]
 427:../Dave/Generated/CMSIS_DSP/TransformFunctions/arm_cfft_radix4_f32.c ****       ycIn = ptr1[5];
 428:../Dave/Generated/CMSIS_DSP/TransformFunctions/arm_cfft_radix4_f32.c ****       xdIn = ptr1[6];
 429:../Dave/Generated/CMSIS_DSP/TransformFunctions/arm_cfft_radix4_f32.c ****       ydIn = ptr1[7];
 512              	 .loc 1 429 0 discriminator 1
 513 02da 53ED015A 	 flds s11,[r3,#-4]
 423:../Dave/Generated/CMSIS_DSP/TransformFunctions/arm_cfft_radix4_f32.c ****       xbIn = ptr1[2];
 514              	 .loc 1 423 0 discriminator 1
 515 02de 53ED076A 	 flds s13,[r3,#-28]
 422:../Dave/Generated/CMSIS_DSP/TransformFunctions/arm_cfft_radix4_f32.c ****       yaIn = ptr1[1];
 516              	 .loc 1 422 0 discriminator 1
 517 02e2 13ED084A 	 flds s8,[r3,#-32]
 518              	.LVL92:
 428:../Dave/Generated/CMSIS_DSP/TransformFunctions/arm_cfft_radix4_f32.c ****       ydIn = ptr1[7];
 519              	 .loc 1 428 0 discriminator 1
 520 02e6 13ED027A 	 flds s14,[r3,#-8]
 427:../Dave/Generated/CMSIS_DSP/TransformFunctions/arm_cfft_radix4_f32.c ****       xdIn = ptr1[6];
 521              	 .loc 1 427 0 discriminator 1
 522 02ea 53ED037A 	 flds s15,[r3,#-12]
 523              	.LVL93:
 430:../Dave/Generated/CMSIS_DSP/TransformFunctions/arm_cfft_radix4_f32.c **** 
 431:../Dave/Generated/CMSIS_DSP/TransformFunctions/arm_cfft_radix4_f32.c ****       /* xa + xc */
 432:../Dave/Generated/CMSIS_DSP/TransformFunctions/arm_cfft_radix4_f32.c ****       Xaplusc = xaIn + xcIn;
 524              	 .loc 1 432 0 discriminator 1
 525 02ee 34EE243A 	 fadds s6,s8,s9
 526              	.LVL94:
 433:../Dave/Generated/CMSIS_DSP/TransformFunctions/arm_cfft_radix4_f32.c **** 
 434:../Dave/Generated/CMSIS_DSP/TransformFunctions/arm_cfft_radix4_f32.c ****       /* xa - xc */
 435:../Dave/Generated/CMSIS_DSP/TransformFunctions/arm_cfft_radix4_f32.c ****       Xaminusc = xaIn - xcIn;
 436:../Dave/Generated/CMSIS_DSP/TransformFunctions/arm_cfft_radix4_f32.c **** 
 437:../Dave/Generated/CMSIS_DSP/TransformFunctions/arm_cfft_radix4_f32.c ****       /* ya + yc */
 438:../Dave/Generated/CMSIS_DSP/TransformFunctions/arm_cfft_radix4_f32.c ****       Yaplusc = yaIn + ycIn;
 439:../Dave/Generated/CMSIS_DSP/TransformFunctions/arm_cfft_radix4_f32.c **** 
 440:../Dave/Generated/CMSIS_DSP/TransformFunctions/arm_cfft_radix4_f32.c ****       /* ya - yc */
 441:../Dave/Generated/CMSIS_DSP/TransformFunctions/arm_cfft_radix4_f32.c ****       Yaminusc = yaIn - ycIn;
 442:../Dave/Generated/CMSIS_DSP/TransformFunctions/arm_cfft_radix4_f32.c **** 
 443:../Dave/Generated/CMSIS_DSP/TransformFunctions/arm_cfft_radix4_f32.c ****       /* xb + xd */
 444:../Dave/Generated/CMSIS_DSP/TransformFunctions/arm_cfft_radix4_f32.c ****       Xbplusd = xbIn + xdIn;
 527              	 .loc 1 444 0 discriminator 1
 528 02f2 76EE073A 	 fadds s7,s12,s14
 435:../Dave/Generated/CMSIS_DSP/TransformFunctions/arm_cfft_radix4_f32.c **** 
 529              	 .loc 1 435 0 discriminator 1
 530 02f6 34EE644A 	 fsubs s8,s8,s9
 531              	.LVL95:
 445:../Dave/Generated/CMSIS_DSP/TransformFunctions/arm_cfft_radix4_f32.c **** 
 446:../Dave/Generated/CMSIS_DSP/TransformFunctions/arm_cfft_radix4_f32.c ****       /* yb + yd */
 447:../Dave/Generated/CMSIS_DSP/TransformFunctions/arm_cfft_radix4_f32.c ****       Ybplusd = ybIn + ydIn;
 448:../Dave/Generated/CMSIS_DSP/TransformFunctions/arm_cfft_radix4_f32.c **** 
 449:../Dave/Generated/CMSIS_DSP/TransformFunctions/arm_cfft_radix4_f32.c ****       /* (xb-xd) */
 450:../Dave/Generated/CMSIS_DSP/TransformFunctions/arm_cfft_radix4_f32.c ****       Xbminusd = xbIn - xdIn;
 532              	 .loc 1 450 0 discriminator 1
 533 02fa 36EE477A 	 fsubs s14,s12,s14
 534              	.LVL96:
 451:../Dave/Generated/CMSIS_DSP/TransformFunctions/arm_cfft_radix4_f32.c **** 
 452:../Dave/Generated/CMSIS_DSP/TransformFunctions/arm_cfft_radix4_f32.c ****       /* (yb-yd) */
 453:../Dave/Generated/CMSIS_DSP/TransformFunctions/arm_cfft_radix4_f32.c ****       Ybminusd = ybIn - ydIn;
 535              	 .loc 1 453 0 discriminator 1
 536 02fe 75EE654A 	 fsubs s9,s10,s11
 537              	.LVL97:
 447:../Dave/Generated/CMSIS_DSP/TransformFunctions/arm_cfft_radix4_f32.c **** 
 538              	 .loc 1 447 0 discriminator 1
 539 0302 35EE256A 	 fadds s12,s10,s11
 540              	.LVL98:
 438:../Dave/Generated/CMSIS_DSP/TransformFunctions/arm_cfft_radix4_f32.c **** 
 541              	 .loc 1 438 0 discriminator 1
 542 0306 76EEA75A 	 fadds s11,s13,s15
 543              	.LVL99:
 441:../Dave/Generated/CMSIS_DSP/TransformFunctions/arm_cfft_radix4_f32.c **** 
 544              	 .loc 1 441 0 discriminator 1
 545 030a 76EEE77A 	 fsubs s15,s13,s15
 546              	.LVL100:
 454:../Dave/Generated/CMSIS_DSP/TransformFunctions/arm_cfft_radix4_f32.c **** 
 455:../Dave/Generated/CMSIS_DSP/TransformFunctions/arm_cfft_radix4_f32.c ****       /* xa' = xa + xb + xc + xd */
 456:../Dave/Generated/CMSIS_DSP/TransformFunctions/arm_cfft_radix4_f32.c ****       a0 = (Xaplusc + Xbplusd);
 547              	 .loc 1 456 0 discriminator 1
 548 030e 73EE232A 	 fadds s5,s6,s7
 549              	.LVL101:
 457:../Dave/Generated/CMSIS_DSP/TransformFunctions/arm_cfft_radix4_f32.c ****       /* ya' = ya + yb + yc + yd */
 458:../Dave/Generated/CMSIS_DSP/TransformFunctions/arm_cfft_radix4_f32.c ****       a1 = (Yaplusc + Ybplusd);
 550              	 .loc 1 458 0 discriminator 1
 551 0312 35EE865A 	 fadds s10,s11,s12
 552              	.LVL102:
 459:../Dave/Generated/CMSIS_DSP/TransformFunctions/arm_cfft_radix4_f32.c ****       /* xc' = (xa-xb+xc-xd) */
 460:../Dave/Generated/CMSIS_DSP/TransformFunctions/arm_cfft_radix4_f32.c ****       a2 = (Xaplusc - Xbplusd);
 553              	 .loc 1 460 0 discriminator 1
 554 0316 73EE633A 	 fsubs s7,s6,s7
 555              	.LVL103:
 461:../Dave/Generated/CMSIS_DSP/TransformFunctions/arm_cfft_radix4_f32.c ****       /* yc' = (ya-yb+yc-yd) */
 462:../Dave/Generated/CMSIS_DSP/TransformFunctions/arm_cfft_radix4_f32.c ****       a3 = (Yaplusc - Ybplusd);
 463:../Dave/Generated/CMSIS_DSP/TransformFunctions/arm_cfft_radix4_f32.c ****       /* xb' = (xa+yb-xc-yd) */
 464:../Dave/Generated/CMSIS_DSP/TransformFunctions/arm_cfft_radix4_f32.c ****       a4 = (Xaminusc + Ybminusd);
 465:../Dave/Generated/CMSIS_DSP/TransformFunctions/arm_cfft_radix4_f32.c ****       /* yb' = (ya-xb-yc+xd) */
 466:../Dave/Generated/CMSIS_DSP/TransformFunctions/arm_cfft_radix4_f32.c ****       a5 = (Yaminusc - Xbminusd);
 556              	 .loc 1 466 0 discriminator 1
 557 031a 77EEC76A 	 fsubs s13,s15,s14
 558              	.LVL104:
 464:../Dave/Generated/CMSIS_DSP/TransformFunctions/arm_cfft_radix4_f32.c ****       /* yb' = (ya-xb-yc+xd) */
 559              	 .loc 1 464 0 discriminator 1
 560 031e 34EE243A 	 fadds s6,s8,s9
 561              	.LVL105:
 462:../Dave/Generated/CMSIS_DSP/TransformFunctions/arm_cfft_radix4_f32.c ****       /* xb' = (xa+yb-xc-yd) */
 562              	 .loc 1 462 0 discriminator 1
 563 0322 35EEC66A 	 fsubs s12,s11,s12
 564              	.LVL106:
 467:../Dave/Generated/CMSIS_DSP/TransformFunctions/arm_cfft_radix4_f32.c ****       /* xd' = (xa-yb-xc+yd)) */
 468:../Dave/Generated/CMSIS_DSP/TransformFunctions/arm_cfft_radix4_f32.c ****       a6 = (Xaminusc - Ybminusd);
 565              	 .loc 1 468 0 discriminator 1
 566 0326 74EE644A 	 fsubs s9,s8,s9
 567              	.LVL107:
 469:../Dave/Generated/CMSIS_DSP/TransformFunctions/arm_cfft_radix4_f32.c ****       /* yd' = (ya+xb-yc-xd) */
 470:../Dave/Generated/CMSIS_DSP/TransformFunctions/arm_cfft_radix4_f32.c ****       a7 = (Xbminusd + Yaminusc);
 568              	 .loc 1 470 0 discriminator 1
 569 032a 77EE277A 	 fadds s15,s14,s15
 570              	.LVL108:
 471:../Dave/Generated/CMSIS_DSP/TransformFunctions/arm_cfft_radix4_f32.c **** 
 472:../Dave/Generated/CMSIS_DSP/TransformFunctions/arm_cfft_radix4_f32.c ****       ptr1[0] = a0;
 473:../Dave/Generated/CMSIS_DSP/TransformFunctions/arm_cfft_radix4_f32.c ****       ptr1[1] = a1;
 474:../Dave/Generated/CMSIS_DSP/TransformFunctions/arm_cfft_radix4_f32.c ****       ptr1[2] = a2;
 475:../Dave/Generated/CMSIS_DSP/TransformFunctions/arm_cfft_radix4_f32.c ****       ptr1[3] = a3;
 476:../Dave/Generated/CMSIS_DSP/TransformFunctions/arm_cfft_radix4_f32.c ****       ptr1[4] = a4;
 477:../Dave/Generated/CMSIS_DSP/TransformFunctions/arm_cfft_radix4_f32.c ****       ptr1[5] = a5;
 478:../Dave/Generated/CMSIS_DSP/TransformFunctions/arm_cfft_radix4_f32.c ****       ptr1[6] = a6;
 479:../Dave/Generated/CMSIS_DSP/TransformFunctions/arm_cfft_radix4_f32.c ****       ptr1[7] = a7;
 480:../Dave/Generated/CMSIS_DSP/TransformFunctions/arm_cfft_radix4_f32.c **** 
 481:../Dave/Generated/CMSIS_DSP/TransformFunctions/arm_cfft_radix4_f32.c ****       /* increment pointer by 8 */
 482:../Dave/Generated/CMSIS_DSP/TransformFunctions/arm_cfft_radix4_f32.c ****       ptr1 += 8u;
 483:../Dave/Generated/CMSIS_DSP/TransformFunctions/arm_cfft_radix4_f32.c ****    } while (--j);
 571              	 .loc 1 483 0 discriminator 1
 572 032e 013A     	 subs r2,r2,#1
 573              	.LVL109:
 472:../Dave/Generated/CMSIS_DSP/TransformFunctions/arm_cfft_radix4_f32.c ****       ptr1[1] = a1;
 574              	 .loc 1 472 0 discriminator 1
 575 0330 43ED082A 	 fsts s5,[r3,#-32]
 576              	.LVL110:
 474:../Dave/Generated/CMSIS_DSP/TransformFunctions/arm_cfft_radix4_f32.c ****       ptr1[3] = a3;
 577              	 .loc 1 474 0 discriminator 1
 578 0334 43ED063A 	 fsts s7,[r3,#-24]
 579              	.LVL111:
 476:../Dave/Generated/CMSIS_DSP/TransformFunctions/arm_cfft_radix4_f32.c ****       ptr1[5] = a5;
 580              	 .loc 1 476 0 discriminator 1
 581 0338 03ED043A 	 fsts s6,[r3,#-16]
 582              	.LVL112:
 478:../Dave/Generated/CMSIS_DSP/TransformFunctions/arm_cfft_radix4_f32.c ****       ptr1[7] = a7;
 583              	 .loc 1 478 0 discriminator 1
 584 033c 43ED024A 	 fsts s9,[r3,#-8]
 585              	.LVL113:
 473:../Dave/Generated/CMSIS_DSP/TransformFunctions/arm_cfft_radix4_f32.c ****       ptr1[2] = a2;
 586              	 .loc 1 473 0 discriminator 1
 587 0340 03ED075A 	 fsts s10,[r3,#-28]
 588              	.LVL114:
 475:../Dave/Generated/CMSIS_DSP/TransformFunctions/arm_cfft_radix4_f32.c ****       ptr1[4] = a4;
 589              	 .loc 1 475 0 discriminator 1
 590 0344 03ED056A 	 fsts s12,[r3,#-20]
 591              	.LVL115:
 477:../Dave/Generated/CMSIS_DSP/TransformFunctions/arm_cfft_radix4_f32.c ****       ptr1[6] = a6;
 592              	 .loc 1 477 0 discriminator 1
 593 0348 43ED036A 	 fsts s13,[r3,#-12]
 594              	.LVL116:
 479:../Dave/Generated/CMSIS_DSP/TransformFunctions/arm_cfft_radix4_f32.c **** 
 595              	 .loc 1 479 0 discriminator 1
 596 034c 43ED017A 	 fsts s15,[r3,#-4]
 597              	.LVL117:
 598 0350 03F12003 	 add r3,r3,#32
 599              	.LVL118:
 600              	 .loc 1 483 0 discriminator 1
 601 0354 BBD1     	 bne .L4
 484:../Dave/Generated/CMSIS_DSP/TransformFunctions/arm_cfft_radix4_f32.c **** 
 485:../Dave/Generated/CMSIS_DSP/TransformFunctions/arm_cfft_radix4_f32.c **** #else
 486:../Dave/Generated/CMSIS_DSP/TransformFunctions/arm_cfft_radix4_f32.c **** 
 487:../Dave/Generated/CMSIS_DSP/TransformFunctions/arm_cfft_radix4_f32.c ****    float32_t t1, t2, r1, r2, s1, s2;
 488:../Dave/Generated/CMSIS_DSP/TransformFunctions/arm_cfft_radix4_f32.c **** 
 489:../Dave/Generated/CMSIS_DSP/TransformFunctions/arm_cfft_radix4_f32.c ****    /* Run the below code for Cortex-M0 */
 490:../Dave/Generated/CMSIS_DSP/TransformFunctions/arm_cfft_radix4_f32.c **** 
 491:../Dave/Generated/CMSIS_DSP/TransformFunctions/arm_cfft_radix4_f32.c ****    /*  Initializations for the fft calculation */
 492:../Dave/Generated/CMSIS_DSP/TransformFunctions/arm_cfft_radix4_f32.c ****    n2 = fftLen;
 493:../Dave/Generated/CMSIS_DSP/TransformFunctions/arm_cfft_radix4_f32.c ****    n1 = n2;
 494:../Dave/Generated/CMSIS_DSP/TransformFunctions/arm_cfft_radix4_f32.c ****    for (k = fftLen; k > 1u; k >>= 2u)
 495:../Dave/Generated/CMSIS_DSP/TransformFunctions/arm_cfft_radix4_f32.c ****    {
 496:../Dave/Generated/CMSIS_DSP/TransformFunctions/arm_cfft_radix4_f32.c ****       /*  Initializations for the fft calculation */
 497:../Dave/Generated/CMSIS_DSP/TransformFunctions/arm_cfft_radix4_f32.c ****       n1 = n2;
 498:../Dave/Generated/CMSIS_DSP/TransformFunctions/arm_cfft_radix4_f32.c ****       n2 >>= 2u;
 499:../Dave/Generated/CMSIS_DSP/TransformFunctions/arm_cfft_radix4_f32.c ****       ia1 = 0u;
 500:../Dave/Generated/CMSIS_DSP/TransformFunctions/arm_cfft_radix4_f32.c **** 
 501:../Dave/Generated/CMSIS_DSP/TransformFunctions/arm_cfft_radix4_f32.c ****       /*  FFT Calculation */
 502:../Dave/Generated/CMSIS_DSP/TransformFunctions/arm_cfft_radix4_f32.c ****       j = 0;
 503:../Dave/Generated/CMSIS_DSP/TransformFunctions/arm_cfft_radix4_f32.c ****       do
 504:../Dave/Generated/CMSIS_DSP/TransformFunctions/arm_cfft_radix4_f32.c ****       {
 505:../Dave/Generated/CMSIS_DSP/TransformFunctions/arm_cfft_radix4_f32.c ****          /*  index calculation for the coefficients */
 506:../Dave/Generated/CMSIS_DSP/TransformFunctions/arm_cfft_radix4_f32.c ****          ia2 = ia1 + ia1;
 507:../Dave/Generated/CMSIS_DSP/TransformFunctions/arm_cfft_radix4_f32.c ****          ia3 = ia2 + ia1;
 508:../Dave/Generated/CMSIS_DSP/TransformFunctions/arm_cfft_radix4_f32.c ****          co1 = pCoef[ia1 * 2u];
 509:../Dave/Generated/CMSIS_DSP/TransformFunctions/arm_cfft_radix4_f32.c ****          si1 = pCoef[(ia1 * 2u) + 1u];
 510:../Dave/Generated/CMSIS_DSP/TransformFunctions/arm_cfft_radix4_f32.c ****          co2 = pCoef[ia2 * 2u];
 511:../Dave/Generated/CMSIS_DSP/TransformFunctions/arm_cfft_radix4_f32.c ****          si2 = pCoef[(ia2 * 2u) + 1u];
 512:../Dave/Generated/CMSIS_DSP/TransformFunctions/arm_cfft_radix4_f32.c ****          co3 = pCoef[ia3 * 2u];
 513:../Dave/Generated/CMSIS_DSP/TransformFunctions/arm_cfft_radix4_f32.c ****          si3 = pCoef[(ia3 * 2u) + 1u];
 514:../Dave/Generated/CMSIS_DSP/TransformFunctions/arm_cfft_radix4_f32.c **** 
 515:../Dave/Generated/CMSIS_DSP/TransformFunctions/arm_cfft_radix4_f32.c ****          /*  Twiddle coefficients index modifier */
 516:../Dave/Generated/CMSIS_DSP/TransformFunctions/arm_cfft_radix4_f32.c ****          ia1 = ia1 + twidCoefModifier;
 517:../Dave/Generated/CMSIS_DSP/TransformFunctions/arm_cfft_radix4_f32.c **** 
 518:../Dave/Generated/CMSIS_DSP/TransformFunctions/arm_cfft_radix4_f32.c ****          i0 = j;
 519:../Dave/Generated/CMSIS_DSP/TransformFunctions/arm_cfft_radix4_f32.c ****          do
 520:../Dave/Generated/CMSIS_DSP/TransformFunctions/arm_cfft_radix4_f32.c ****          {
 521:../Dave/Generated/CMSIS_DSP/TransformFunctions/arm_cfft_radix4_f32.c ****             /*  index calculation for the input as, */
 522:../Dave/Generated/CMSIS_DSP/TransformFunctions/arm_cfft_radix4_f32.c ****             /*  pSrc[i0 + 0], pSrc[i0 + fftLen/4], pSrc[i0 + fftLen/2], pSrc[i0 + 3fftLen/4] */
 523:../Dave/Generated/CMSIS_DSP/TransformFunctions/arm_cfft_radix4_f32.c ****             i1 = i0 + n2;
 524:../Dave/Generated/CMSIS_DSP/TransformFunctions/arm_cfft_radix4_f32.c ****             i2 = i1 + n2;
 525:../Dave/Generated/CMSIS_DSP/TransformFunctions/arm_cfft_radix4_f32.c ****             i3 = i2 + n2;
 526:../Dave/Generated/CMSIS_DSP/TransformFunctions/arm_cfft_radix4_f32.c **** 
 527:../Dave/Generated/CMSIS_DSP/TransformFunctions/arm_cfft_radix4_f32.c ****             /* xa + xc */
 528:../Dave/Generated/CMSIS_DSP/TransformFunctions/arm_cfft_radix4_f32.c ****             r1 = pSrc[(2u * i0)] + pSrc[(2u * i2)];
 529:../Dave/Generated/CMSIS_DSP/TransformFunctions/arm_cfft_radix4_f32.c **** 
 530:../Dave/Generated/CMSIS_DSP/TransformFunctions/arm_cfft_radix4_f32.c ****             /* xa - xc */
 531:../Dave/Generated/CMSIS_DSP/TransformFunctions/arm_cfft_radix4_f32.c ****             r2 = pSrc[(2u * i0)] - pSrc[(2u * i2)];
 532:../Dave/Generated/CMSIS_DSP/TransformFunctions/arm_cfft_radix4_f32.c **** 
 533:../Dave/Generated/CMSIS_DSP/TransformFunctions/arm_cfft_radix4_f32.c ****             /* ya + yc */
 534:../Dave/Generated/CMSIS_DSP/TransformFunctions/arm_cfft_radix4_f32.c ****             s1 = pSrc[(2u * i0) + 1u] + pSrc[(2u * i2) + 1u];
 535:../Dave/Generated/CMSIS_DSP/TransformFunctions/arm_cfft_radix4_f32.c **** 
 536:../Dave/Generated/CMSIS_DSP/TransformFunctions/arm_cfft_radix4_f32.c ****             /* ya - yc */
 537:../Dave/Generated/CMSIS_DSP/TransformFunctions/arm_cfft_radix4_f32.c ****             s2 = pSrc[(2u * i0) + 1u] - pSrc[(2u * i2) + 1u];
 538:../Dave/Generated/CMSIS_DSP/TransformFunctions/arm_cfft_radix4_f32.c **** 
 539:../Dave/Generated/CMSIS_DSP/TransformFunctions/arm_cfft_radix4_f32.c ****             /* xb + xd */
 540:../Dave/Generated/CMSIS_DSP/TransformFunctions/arm_cfft_radix4_f32.c ****             t1 = pSrc[2u * i1] + pSrc[2u * i3];
 541:../Dave/Generated/CMSIS_DSP/TransformFunctions/arm_cfft_radix4_f32.c **** 
 542:../Dave/Generated/CMSIS_DSP/TransformFunctions/arm_cfft_radix4_f32.c ****             /* xa' = xa + xb + xc + xd */
 543:../Dave/Generated/CMSIS_DSP/TransformFunctions/arm_cfft_radix4_f32.c ****             pSrc[2u * i0] = r1 + t1;
 544:../Dave/Generated/CMSIS_DSP/TransformFunctions/arm_cfft_radix4_f32.c **** 
 545:../Dave/Generated/CMSIS_DSP/TransformFunctions/arm_cfft_radix4_f32.c ****             /* xa + xc -(xb + xd) */
 546:../Dave/Generated/CMSIS_DSP/TransformFunctions/arm_cfft_radix4_f32.c ****             r1 = r1 - t1;
 547:../Dave/Generated/CMSIS_DSP/TransformFunctions/arm_cfft_radix4_f32.c **** 
 548:../Dave/Generated/CMSIS_DSP/TransformFunctions/arm_cfft_radix4_f32.c ****             /* yb + yd */
 549:../Dave/Generated/CMSIS_DSP/TransformFunctions/arm_cfft_radix4_f32.c ****             t2 = pSrc[(2u * i1) + 1u] + pSrc[(2u * i3) + 1u];
 550:../Dave/Generated/CMSIS_DSP/TransformFunctions/arm_cfft_radix4_f32.c **** 
 551:../Dave/Generated/CMSIS_DSP/TransformFunctions/arm_cfft_radix4_f32.c ****             /* ya' = ya + yb + yc + yd */
 552:../Dave/Generated/CMSIS_DSP/TransformFunctions/arm_cfft_radix4_f32.c ****             pSrc[(2u * i0) + 1u] = s1 + t2;
 553:../Dave/Generated/CMSIS_DSP/TransformFunctions/arm_cfft_radix4_f32.c **** 
 554:../Dave/Generated/CMSIS_DSP/TransformFunctions/arm_cfft_radix4_f32.c ****             /* (ya + yc) - (yb + yd) */
 555:../Dave/Generated/CMSIS_DSP/TransformFunctions/arm_cfft_radix4_f32.c ****             s1 = s1 - t2;
 556:../Dave/Generated/CMSIS_DSP/TransformFunctions/arm_cfft_radix4_f32.c **** 
 557:../Dave/Generated/CMSIS_DSP/TransformFunctions/arm_cfft_radix4_f32.c ****             /* (yb - yd) */
 558:../Dave/Generated/CMSIS_DSP/TransformFunctions/arm_cfft_radix4_f32.c ****             t1 = pSrc[(2u * i1) + 1u] - pSrc[(2u * i3) + 1u];
 559:../Dave/Generated/CMSIS_DSP/TransformFunctions/arm_cfft_radix4_f32.c **** 
 560:../Dave/Generated/CMSIS_DSP/TransformFunctions/arm_cfft_radix4_f32.c ****             /* (xb - xd) */
 561:../Dave/Generated/CMSIS_DSP/TransformFunctions/arm_cfft_radix4_f32.c ****             t2 = pSrc[2u * i1] - pSrc[2u * i3];
 562:../Dave/Generated/CMSIS_DSP/TransformFunctions/arm_cfft_radix4_f32.c **** 
 563:../Dave/Generated/CMSIS_DSP/TransformFunctions/arm_cfft_radix4_f32.c ****             /* xc' = (xa-xb+xc-xd)co2 + (ya-yb+yc-yd)(si2) */
 564:../Dave/Generated/CMSIS_DSP/TransformFunctions/arm_cfft_radix4_f32.c ****             pSrc[2u * i1] = (r1 * co2) + (s1 * si2);
 565:../Dave/Generated/CMSIS_DSP/TransformFunctions/arm_cfft_radix4_f32.c **** 
 566:../Dave/Generated/CMSIS_DSP/TransformFunctions/arm_cfft_radix4_f32.c ****             /* yc' = (ya-yb+yc-yd)co2 - (xa-xb+xc-xd)(si2) */
 567:../Dave/Generated/CMSIS_DSP/TransformFunctions/arm_cfft_radix4_f32.c ****             pSrc[(2u * i1) + 1u] = (s1 * co2) - (r1 * si2);
 568:../Dave/Generated/CMSIS_DSP/TransformFunctions/arm_cfft_radix4_f32.c **** 
 569:../Dave/Generated/CMSIS_DSP/TransformFunctions/arm_cfft_radix4_f32.c ****             /* (xa - xc) + (yb - yd) */
 570:../Dave/Generated/CMSIS_DSP/TransformFunctions/arm_cfft_radix4_f32.c ****             r1 = r2 + t1;
 571:../Dave/Generated/CMSIS_DSP/TransformFunctions/arm_cfft_radix4_f32.c **** 
 572:../Dave/Generated/CMSIS_DSP/TransformFunctions/arm_cfft_radix4_f32.c ****             /* (xa - xc) - (yb - yd) */
 573:../Dave/Generated/CMSIS_DSP/TransformFunctions/arm_cfft_radix4_f32.c ****             r2 = r2 - t1;
 574:../Dave/Generated/CMSIS_DSP/TransformFunctions/arm_cfft_radix4_f32.c **** 
 575:../Dave/Generated/CMSIS_DSP/TransformFunctions/arm_cfft_radix4_f32.c ****             /* (ya - yc) -  (xb - xd) */
 576:../Dave/Generated/CMSIS_DSP/TransformFunctions/arm_cfft_radix4_f32.c ****             s1 = s2 - t2;
 577:../Dave/Generated/CMSIS_DSP/TransformFunctions/arm_cfft_radix4_f32.c **** 
 578:../Dave/Generated/CMSIS_DSP/TransformFunctions/arm_cfft_radix4_f32.c ****             /* (ya - yc) +  (xb - xd) */
 579:../Dave/Generated/CMSIS_DSP/TransformFunctions/arm_cfft_radix4_f32.c ****             s2 = s2 + t2;
 580:../Dave/Generated/CMSIS_DSP/TransformFunctions/arm_cfft_radix4_f32.c **** 
 581:../Dave/Generated/CMSIS_DSP/TransformFunctions/arm_cfft_radix4_f32.c ****             /* xb' = (xa+yb-xc-yd)co1 + (ya-xb-yc+xd)(si1) */
 582:../Dave/Generated/CMSIS_DSP/TransformFunctions/arm_cfft_radix4_f32.c ****             pSrc[2u * i2] = (r1 * co1) + (s1 * si1);
 583:../Dave/Generated/CMSIS_DSP/TransformFunctions/arm_cfft_radix4_f32.c **** 
 584:../Dave/Generated/CMSIS_DSP/TransformFunctions/arm_cfft_radix4_f32.c ****             /* yb' = (ya-xb-yc+xd)co1 - (xa+yb-xc-yd)(si1) */
 585:../Dave/Generated/CMSIS_DSP/TransformFunctions/arm_cfft_radix4_f32.c ****             pSrc[(2u * i2) + 1u] = (s1 * co1) - (r1 * si1);
 586:../Dave/Generated/CMSIS_DSP/TransformFunctions/arm_cfft_radix4_f32.c **** 
 587:../Dave/Generated/CMSIS_DSP/TransformFunctions/arm_cfft_radix4_f32.c ****             /* xd' = (xa-yb-xc+yd)co3 + (ya+xb-yc-xd)(si3) */
 588:../Dave/Generated/CMSIS_DSP/TransformFunctions/arm_cfft_radix4_f32.c ****             pSrc[2u * i3] = (r2 * co3) + (s2 * si3);
 589:../Dave/Generated/CMSIS_DSP/TransformFunctions/arm_cfft_radix4_f32.c **** 
 590:../Dave/Generated/CMSIS_DSP/TransformFunctions/arm_cfft_radix4_f32.c ****             /* yd' = (ya+xb-yc-xd)co3 - (xa-yb-xc+yd)(si3) */
 591:../Dave/Generated/CMSIS_DSP/TransformFunctions/arm_cfft_radix4_f32.c ****             pSrc[(2u * i3) + 1u] = (s2 * co3) - (r2 * si3);
 592:../Dave/Generated/CMSIS_DSP/TransformFunctions/arm_cfft_radix4_f32.c **** 
 593:../Dave/Generated/CMSIS_DSP/TransformFunctions/arm_cfft_radix4_f32.c ****             i0 += n1;
 594:../Dave/Generated/CMSIS_DSP/TransformFunctions/arm_cfft_radix4_f32.c ****          } while ( i0 < fftLen);
 595:../Dave/Generated/CMSIS_DSP/TransformFunctions/arm_cfft_radix4_f32.c ****          j++;
 596:../Dave/Generated/CMSIS_DSP/TransformFunctions/arm_cfft_radix4_f32.c ****       } while (j <= (n2 - 1u));
 597:../Dave/Generated/CMSIS_DSP/TransformFunctions/arm_cfft_radix4_f32.c ****       twidCoefModifier <<= 2u;
 598:../Dave/Generated/CMSIS_DSP/TransformFunctions/arm_cfft_radix4_f32.c ****    }
 599:../Dave/Generated/CMSIS_DSP/TransformFunctions/arm_cfft_radix4_f32.c **** 
 600:../Dave/Generated/CMSIS_DSP/TransformFunctions/arm_cfft_radix4_f32.c **** #endif /* #if defined (ARM_MATH_DSP) */
 601:../Dave/Generated/CMSIS_DSP/TransformFunctions/arm_cfft_radix4_f32.c **** 
 602:../Dave/Generated/CMSIS_DSP/TransformFunctions/arm_cfft_radix4_f32.c **** }
 602              	 .loc 1 602 0
 603 0356 0DB0     	 add sp,sp,#52
 604              	.LCFI3:
 605              	 .cfi_def_cfa_offset 60
 606              	 
 607 0358 BDEC068B 	 fldmfdd sp!,{d8-d10}
 608              	.LCFI4:
 609              	 .cfi_restore 84
 610              	 .cfi_restore 85
 611              	 .cfi_restore 82
 612              	 .cfi_restore 83
 613              	 .cfi_restore 80
 614              	 .cfi_restore 81
 615              	 .cfi_def_cfa_offset 36
 616 035c BDE8F08F 	 pop {r4,r5,r6,r7,r8,r9,r10,fp,pc}
 617              	 .cfi_endproc
 618              	.LFE136:
 620              	 .section .text.arm_radix4_butterfly_inverse_f32,"ax",%progbits
 621              	 .align 2
 622              	 .global arm_radix4_butterfly_inverse_f32
 623              	 .thumb
 624              	 .thumb_func
 626              	arm_radix4_butterfly_inverse_f32:
 627              	.LFB137:
 603:../Dave/Generated/CMSIS_DSP/TransformFunctions/arm_cfft_radix4_f32.c **** 
 604:../Dave/Generated/CMSIS_DSP/TransformFunctions/arm_cfft_radix4_f32.c **** /*
 605:../Dave/Generated/CMSIS_DSP/TransformFunctions/arm_cfft_radix4_f32.c **** * @brief  Core function for the floating-point CIFFT butterfly process.
 606:../Dave/Generated/CMSIS_DSP/TransformFunctions/arm_cfft_radix4_f32.c **** * @param[in, out] *pSrc            points to the in-place buffer of floating-point data type.
 607:../Dave/Generated/CMSIS_DSP/TransformFunctions/arm_cfft_radix4_f32.c **** * @param[in]      fftLen           length of the FFT.
 608:../Dave/Generated/CMSIS_DSP/TransformFunctions/arm_cfft_radix4_f32.c **** * @param[in]      *pCoef           points to twiddle coefficient buffer.
 609:../Dave/Generated/CMSIS_DSP/TransformFunctions/arm_cfft_radix4_f32.c **** * @param[in]      twidCoefModifier twiddle coefficient modifier that supports different size FFTs w
 610:../Dave/Generated/CMSIS_DSP/TransformFunctions/arm_cfft_radix4_f32.c **** * @param[in]      onebyfftLen      value of 1/fftLen.
 611:../Dave/Generated/CMSIS_DSP/TransformFunctions/arm_cfft_radix4_f32.c **** * @return none.
 612:../Dave/Generated/CMSIS_DSP/TransformFunctions/arm_cfft_radix4_f32.c **** */
 613:../Dave/Generated/CMSIS_DSP/TransformFunctions/arm_cfft_radix4_f32.c **** 
 614:../Dave/Generated/CMSIS_DSP/TransformFunctions/arm_cfft_radix4_f32.c **** void arm_radix4_butterfly_inverse_f32(
 615:../Dave/Generated/CMSIS_DSP/TransformFunctions/arm_cfft_radix4_f32.c **** float32_t * pSrc,
 616:../Dave/Generated/CMSIS_DSP/TransformFunctions/arm_cfft_radix4_f32.c **** uint16_t fftLen,
 617:../Dave/Generated/CMSIS_DSP/TransformFunctions/arm_cfft_radix4_f32.c **** float32_t * pCoef,
 618:../Dave/Generated/CMSIS_DSP/TransformFunctions/arm_cfft_radix4_f32.c **** uint16_t twidCoefModifier,
 619:../Dave/Generated/CMSIS_DSP/TransformFunctions/arm_cfft_radix4_f32.c **** float32_t onebyfftLen)
 620:../Dave/Generated/CMSIS_DSP/TransformFunctions/arm_cfft_radix4_f32.c **** {
 628              	 .loc 1 620 0
 629              	 .cfi_startproc
 630              	 
 631              	 
 632              	.LVL119:
 633 0000 2DE9F04F 	 push {r4,r5,r6,r7,r8,r9,r10,fp,lr}
 634              	.LCFI5:
 635              	 .cfi_def_cfa_offset 36
 636              	 .cfi_offset 4,-36
 637              	 .cfi_offset 5,-32
 638              	 .cfi_offset 6,-28
 639              	 .cfi_offset 7,-24
 640              	 .cfi_offset 8,-20
 641              	 .cfi_offset 9,-16
 642              	 .cfi_offset 10,-12
 643              	 .cfi_offset 11,-8
 644              	 .cfi_offset 14,-4
 645 0004 2DED088B 	 fstmfdd sp!,{d8,d9,d10,d11}
 646              	.LCFI6:
 647              	 .cfi_def_cfa_offset 68
 648              	 .cfi_offset 80,-68
 649              	 .cfi_offset 81,-64
 650              	 .cfi_offset 82,-60
 651              	 .cfi_offset 83,-56
 652              	 .cfi_offset 84,-52
 653              	 .cfi_offset 85,-48
 654              	 .cfi_offset 86,-44
 655              	 .cfi_offset 87,-40
 656 0008 8DB0     	 sub sp,sp,#52
 657              	.LCFI7:
 658              	 .cfi_def_cfa_offset 120
 659              	 .loc 1 620 0
 660 000a 8A46     	 mov r10,r1
 661              	.LVL120:
 662 000c 0093     	 str r3,[sp]
 621:../Dave/Generated/CMSIS_DSP/TransformFunctions/arm_cfft_radix4_f32.c ****    float32_t co1, co2, co3, si1, si2, si3;
 622:../Dave/Generated/CMSIS_DSP/TransformFunctions/arm_cfft_radix4_f32.c ****    uint32_t ia1, ia2, ia3;
 623:../Dave/Generated/CMSIS_DSP/TransformFunctions/arm_cfft_radix4_f32.c ****    uint32_t i0, i1, i2, i3;
 624:../Dave/Generated/CMSIS_DSP/TransformFunctions/arm_cfft_radix4_f32.c ****    uint32_t n1, n2, j, k;
 625:../Dave/Generated/CMSIS_DSP/TransformFunctions/arm_cfft_radix4_f32.c **** 
 626:../Dave/Generated/CMSIS_DSP/TransformFunctions/arm_cfft_radix4_f32.c **** #if defined (ARM_MATH_DSP)
 627:../Dave/Generated/CMSIS_DSP/TransformFunctions/arm_cfft_radix4_f32.c **** 
 628:../Dave/Generated/CMSIS_DSP/TransformFunctions/arm_cfft_radix4_f32.c ****    float32_t xaIn, yaIn, xbIn, ybIn, xcIn, ycIn, xdIn, ydIn;
 629:../Dave/Generated/CMSIS_DSP/TransformFunctions/arm_cfft_radix4_f32.c ****    float32_t Xaplusc, Xbplusd, Yaplusc, Ybplusd, Xaminusc, Xbminusd, Yaminusc,
 630:../Dave/Generated/CMSIS_DSP/TransformFunctions/arm_cfft_radix4_f32.c ****    Ybminusd;
 631:../Dave/Generated/CMSIS_DSP/TransformFunctions/arm_cfft_radix4_f32.c ****    float32_t Xb12C_out, Yb12C_out, Xc12C_out, Yc12C_out, Xd12C_out, Yd12C_out;
 632:../Dave/Generated/CMSIS_DSP/TransformFunctions/arm_cfft_radix4_f32.c ****    float32_t Xb12_out, Yb12_out, Xc12_out, Yc12_out, Xd12_out, Yd12_out;
 633:../Dave/Generated/CMSIS_DSP/TransformFunctions/arm_cfft_radix4_f32.c ****    float32_t *ptr1;
 634:../Dave/Generated/CMSIS_DSP/TransformFunctions/arm_cfft_radix4_f32.c ****    float32_t p0,p1,p2,p3,p4,p5,p6,p7;
 635:../Dave/Generated/CMSIS_DSP/TransformFunctions/arm_cfft_radix4_f32.c ****    float32_t a0,a1,a2,a3,a4,a5,a6,a7;
 636:../Dave/Generated/CMSIS_DSP/TransformFunctions/arm_cfft_radix4_f32.c **** 
 637:../Dave/Generated/CMSIS_DSP/TransformFunctions/arm_cfft_radix4_f32.c **** 
 638:../Dave/Generated/CMSIS_DSP/TransformFunctions/arm_cfft_radix4_f32.c ****    /*  Initializations for the first stage */
 639:../Dave/Generated/CMSIS_DSP/TransformFunctions/arm_cfft_radix4_f32.c ****    n2 = fftLen;
 640:../Dave/Generated/CMSIS_DSP/TransformFunctions/arm_cfft_radix4_f32.c ****    n1 = n2;
 641:../Dave/Generated/CMSIS_DSP/TransformFunctions/arm_cfft_radix4_f32.c **** 
 642:../Dave/Generated/CMSIS_DSP/TransformFunctions/arm_cfft_radix4_f32.c ****    /* n2 = fftLen/4 */
 643:../Dave/Generated/CMSIS_DSP/TransformFunctions/arm_cfft_radix4_f32.c ****    n2 >>= 2u;
 663              	 .loc 1 643 0
 664 000e 8908     	 lsrs r1,r1,#2
 665              	.LVL121:
 666 0010 009C     	 ldr r4,[sp]
 667 0012 0391     	 str r1,[sp,#12]
 668 0014 0D46     	 mov r5,r1
 669 0016 00EB0111 	 add r1,r0,r1,lsl#4
 620:../Dave/Generated/CMSIS_DSP/TransformFunctions/arm_cfft_radix4_f32.c ****    float32_t co1, co2, co3, si1, si2, si3;
 670              	 .loc 1 620 0
 671 001a 1F46     	 mov r7,r3
 672              	 .loc 1 643 0
 673 001c AB46     	 mov fp,r5
 674              	.LVL122:
 675 001e 4FEAC50C 	 lsl ip,r5,#3
 676 0022 A1EBC508 	 sub r8,r1,r5,lsl#3
 677 0026 05EB4503 	 add r3,r5,r5,lsl#1
 678              	.LVL123:
 679 002a 2501     	 lsls r5,r4,#4
 680              	.LVL124:
 681 002c E400     	 lsls r4,r4,#3
 682 002e 0294     	 str r4,[sp,#8]
 683 0030 0195     	 str r5,[sp,#4]
 620:../Dave/Generated/CMSIS_DSP/TransformFunctions/arm_cfft_radix4_f32.c ****    float32_t co1, co2, co3, si1, si2, si3;
 684              	 .loc 1 620 0
 685 0032 0646     	 mov r6,r0
 686 0034 9146     	 mov r9,r2
 687 0036 07EB470E 	 add lr,r7,r7,lsl#1
 688 003a 0990     	 str r0,[sp,#36]
 689              	 .loc 1 643 0
 690 003c CDF810B0 	 str fp,[sp,#16]
 691 0040 0CF10400 	 add r0,ip,#4
 692              	.LVL125:
 693 0044 DDF808B0 	 ldr fp,[sp,#8]
 694              	.LVL126:
 620:../Dave/Generated/CMSIS_DSP/TransformFunctions/arm_cfft_radix4_f32.c ****    float32_t co1, co2, co3, si1, si2, si3;
 695              	 .loc 1 620 0
 696 0048 9DED1E8A 	 flds s16,[sp,#120]
 697              	 .loc 1 643 0
 698 004c CDF808A0 	 str r10,[sp,#8]
 699 0050 DDF804A0 	 ldr r10,[sp,#4]
 700              	.LVL127:
 620:../Dave/Generated/CMSIS_DSP/TransformFunctions/arm_cfft_radix4_f32.c ****    float32_t co1, co2, co3, si1, si2, si3;
 701              	 .loc 1 620 0
 702 0054 0A92     	 str r2,[sp,#40]
 703 0056 3044     	 add r0,r0,r6
 704 0058 3246     	 mov r2,r6
 705              	.LVL128:
 706 005a 06EBC303 	 add r3,r6,r3,lsl#3
 707              	 .loc 1 643 0
 708 005e 4746     	 mov r7,r8
 709 0060 4FEACE0E 	 lsl lr,lr,#3
 710 0064 0436     	 adds r6,r6,#4
 711              	.LVL129:
 712 0066 4D46     	 mov r5,r9
 713 0068 4C46     	 mov r4,r9
 714              	.LVL130:
 715              	.L17:
 644:../Dave/Generated/CMSIS_DSP/TransformFunctions/arm_cfft_radix4_f32.c ****    i0 = 0u;
 645:../Dave/Generated/CMSIS_DSP/TransformFunctions/arm_cfft_radix4_f32.c ****    ia1 = 0u;
 646:../Dave/Generated/CMSIS_DSP/TransformFunctions/arm_cfft_radix4_f32.c **** 
 647:../Dave/Generated/CMSIS_DSP/TransformFunctions/arm_cfft_radix4_f32.c ****    j = n2;
 648:../Dave/Generated/CMSIS_DSP/TransformFunctions/arm_cfft_radix4_f32.c **** 
 649:../Dave/Generated/CMSIS_DSP/TransformFunctions/arm_cfft_radix4_f32.c ****    /*  Calculation of first stage */
 650:../Dave/Generated/CMSIS_DSP/TransformFunctions/arm_cfft_radix4_f32.c ****    do
 651:../Dave/Generated/CMSIS_DSP/TransformFunctions/arm_cfft_radix4_f32.c ****    {
 652:../Dave/Generated/CMSIS_DSP/TransformFunctions/arm_cfft_radix4_f32.c ****       /*  index calculation for the input as, */
 653:../Dave/Generated/CMSIS_DSP/TransformFunctions/arm_cfft_radix4_f32.c ****       /*  pSrc[i0 + 0], pSrc[i0 + fftLen/4], pSrc[i0 + fftLen/2], pSrc[i0 + 3fftLen/4] */
 654:../Dave/Generated/CMSIS_DSP/TransformFunctions/arm_cfft_radix4_f32.c ****       i1 = i0 + n2;
 655:../Dave/Generated/CMSIS_DSP/TransformFunctions/arm_cfft_radix4_f32.c ****       i2 = i1 + n2;
 656:../Dave/Generated/CMSIS_DSP/TransformFunctions/arm_cfft_radix4_f32.c ****       i3 = i2 + n2;
 657:../Dave/Generated/CMSIS_DSP/TransformFunctions/arm_cfft_radix4_f32.c **** 
 658:../Dave/Generated/CMSIS_DSP/TransformFunctions/arm_cfft_radix4_f32.c ****       /*  Butterfly implementation */
 659:../Dave/Generated/CMSIS_DSP/TransformFunctions/arm_cfft_radix4_f32.c ****       xaIn = pSrc[(2u * i0)];
 660:../Dave/Generated/CMSIS_DSP/TransformFunctions/arm_cfft_radix4_f32.c ****       yaIn = pSrc[(2u * i0) + 1u];
 716              	 .loc 1 660 0 discriminator 1
 717 006a D2ED016A 	 flds s13,[r2,#4]
 659:../Dave/Generated/CMSIS_DSP/TransformFunctions/arm_cfft_radix4_f32.c ****       yaIn = pSrc[(2u * i0) + 1u];
 718              	 .loc 1 659 0 discriminator 1
 719 006e 16ED014A 	 flds s8,[r6,#-4]
 720              	.LVL131:
 661:../Dave/Generated/CMSIS_DSP/TransformFunctions/arm_cfft_radix4_f32.c **** 
 662:../Dave/Generated/CMSIS_DSP/TransformFunctions/arm_cfft_radix4_f32.c ****       xcIn = pSrc[(2u * i2)];
 663:../Dave/Generated/CMSIS_DSP/TransformFunctions/arm_cfft_radix4_f32.c ****       ycIn = pSrc[(2u * i2) + 1u];
 664:../Dave/Generated/CMSIS_DSP/TransformFunctions/arm_cfft_radix4_f32.c **** 
 665:../Dave/Generated/CMSIS_DSP/TransformFunctions/arm_cfft_radix4_f32.c ****       xbIn = pSrc[(2u * i1)];
 721              	 .loc 1 665 0 discriminator 1
 722 0072 10ED016A 	 flds s12,[r0,#-4]
 666:../Dave/Generated/CMSIS_DSP/TransformFunctions/arm_cfft_radix4_f32.c ****       ybIn = pSrc[(2u * i1) + 1u];
 723              	 .loc 1 666 0 discriminator 1
 724 0076 D7ED014A 	 flds s9,[r7,#4]
 667:../Dave/Generated/CMSIS_DSP/TransformFunctions/arm_cfft_radix4_f32.c **** 
 668:../Dave/Generated/CMSIS_DSP/TransformFunctions/arm_cfft_radix4_f32.c ****       xdIn = pSrc[(2u * i3)];
 669:../Dave/Generated/CMSIS_DSP/TransformFunctions/arm_cfft_radix4_f32.c ****       ydIn = pSrc[(2u * i3) + 1u];
 725              	 .loc 1 669 0 discriminator 1
 726 007a 93ED015A 	 flds s10,[r3,#4]
 662:../Dave/Generated/CMSIS_DSP/TransformFunctions/arm_cfft_radix4_f32.c ****       ycIn = pSrc[(2u * i2) + 1u];
 727              	 .loc 1 662 0 discriminator 1
 728 007e D1ED005A 	 flds s11,[r1]
 729              	.LVL132:
 668:../Dave/Generated/CMSIS_DSP/TransformFunctions/arm_cfft_radix4_f32.c ****       ydIn = pSrc[(2u * i3) + 1u];
 730              	 .loc 1 668 0 discriminator 1
 731 0082 D3ED007A 	 flds s15,[r3]
 663:../Dave/Generated/CMSIS_DSP/TransformFunctions/arm_cfft_radix4_f32.c **** 
 732              	 .loc 1 663 0 discriminator 1
 733 0086 91ED017A 	 flds s14,[r1,#4]
 734              	.LVL133:
 670:../Dave/Generated/CMSIS_DSP/TransformFunctions/arm_cfft_radix4_f32.c **** 
 671:../Dave/Generated/CMSIS_DSP/TransformFunctions/arm_cfft_radix4_f32.c ****       /* xa + xc */
 672:../Dave/Generated/CMSIS_DSP/TransformFunctions/arm_cfft_radix4_f32.c ****       Xaplusc = xaIn + xcIn;
 673:../Dave/Generated/CMSIS_DSP/TransformFunctions/arm_cfft_radix4_f32.c ****       /* xb + xd */
 674:../Dave/Generated/CMSIS_DSP/TransformFunctions/arm_cfft_radix4_f32.c ****       Xbplusd = xbIn + xdIn;
 675:../Dave/Generated/CMSIS_DSP/TransformFunctions/arm_cfft_radix4_f32.c ****       /* ya + yc */
 676:../Dave/Generated/CMSIS_DSP/TransformFunctions/arm_cfft_radix4_f32.c ****       Yaplusc = yaIn + ycIn;
 677:../Dave/Generated/CMSIS_DSP/TransformFunctions/arm_cfft_radix4_f32.c ****       /* yb + yd */
 678:../Dave/Generated/CMSIS_DSP/TransformFunctions/arm_cfft_radix4_f32.c ****       Ybplusd = ybIn + ydIn;
 679:../Dave/Generated/CMSIS_DSP/TransformFunctions/arm_cfft_radix4_f32.c **** 
 680:../Dave/Generated/CMSIS_DSP/TransformFunctions/arm_cfft_radix4_f32.c ****       /*  index calculation for the coefficients */
 681:../Dave/Generated/CMSIS_DSP/TransformFunctions/arm_cfft_radix4_f32.c ****       ia2 = ia1 + ia1;
 682:../Dave/Generated/CMSIS_DSP/TransformFunctions/arm_cfft_radix4_f32.c ****       co2 = pCoef[ia2 * 2u];
 735              	 .loc 1 682 0 discriminator 1
 736 008a 99ED001A 	 flds s2,[r9]
 683:../Dave/Generated/CMSIS_DSP/TransformFunctions/arm_cfft_radix4_f32.c ****       si2 = pCoef[(ia2 * 2u) + 1u];
 737              	 .loc 1 683 0 discriminator 1
 738 008e D9ED011A 	 flds s3,[r9,#4]
 672:../Dave/Generated/CMSIS_DSP/TransformFunctions/arm_cfft_radix4_f32.c ****       /* xb + xd */
 739              	 .loc 1 672 0 discriminator 1
 740 0092 34EE252A 	 fadds s4,s8,s11
 741              	.LVL134:
 674:../Dave/Generated/CMSIS_DSP/TransformFunctions/arm_cfft_radix4_f32.c ****       /* ya + yc */
 742              	 .loc 1 674 0 discriminator 1
 743 0096 76EE272A 	 fadds s5,s12,s15
 744              	.LVL135:
 676:../Dave/Generated/CMSIS_DSP/TransformFunctions/arm_cfft_radix4_f32.c ****       /* yb + yd */
 745              	 .loc 1 676 0 discriminator 1
 746 009a 36EE873A 	 fadds s6,s13,s14
 747              	.LVL136:
 678:../Dave/Generated/CMSIS_DSP/TransformFunctions/arm_cfft_radix4_f32.c **** 
 748              	 .loc 1 678 0 discriminator 1
 749 009e 74EE853A 	 fadds s7,s9,s10
 750              	.LVL137:
 684:../Dave/Generated/CMSIS_DSP/TransformFunctions/arm_cfft_radix4_f32.c **** 
 685:../Dave/Generated/CMSIS_DSP/TransformFunctions/arm_cfft_radix4_f32.c ****       /* xa - xc */
 686:../Dave/Generated/CMSIS_DSP/TransformFunctions/arm_cfft_radix4_f32.c ****       Xaminusc = xaIn - xcIn;
 687:../Dave/Generated/CMSIS_DSP/TransformFunctions/arm_cfft_radix4_f32.c ****       /* xb - xd */
 688:../Dave/Generated/CMSIS_DSP/TransformFunctions/arm_cfft_radix4_f32.c ****       Xbminusd = xbIn - xdIn;
 689:../Dave/Generated/CMSIS_DSP/TransformFunctions/arm_cfft_radix4_f32.c ****       /* ya - yc */
 690:../Dave/Generated/CMSIS_DSP/TransformFunctions/arm_cfft_radix4_f32.c ****       Yaminusc = yaIn - ycIn;
 691:../Dave/Generated/CMSIS_DSP/TransformFunctions/arm_cfft_radix4_f32.c ****       /* yb - yd */
 692:../Dave/Generated/CMSIS_DSP/TransformFunctions/arm_cfft_radix4_f32.c ****       Ybminusd = ybIn - ydIn;
 693:../Dave/Generated/CMSIS_DSP/TransformFunctions/arm_cfft_radix4_f32.c **** 
 694:../Dave/Generated/CMSIS_DSP/TransformFunctions/arm_cfft_radix4_f32.c ****       /* xa' = xa + xb + xc + xd */
 695:../Dave/Generated/CMSIS_DSP/TransformFunctions/arm_cfft_radix4_f32.c ****       pSrc[(2u * i0)] = Xaplusc + Xbplusd;
 751              	 .loc 1 695 0 discriminator 1
 752 00a2 32EE220A 	 fadds s0,s4,s5
 696:../Dave/Generated/CMSIS_DSP/TransformFunctions/arm_cfft_radix4_f32.c **** 
 697:../Dave/Generated/CMSIS_DSP/TransformFunctions/arm_cfft_radix4_f32.c ****       /* ya' = ya + yb + yc + yd */
 698:../Dave/Generated/CMSIS_DSP/TransformFunctions/arm_cfft_radix4_f32.c ****       pSrc[(2u * i0) + 1u] = Yaplusc + Ybplusd;
 753              	 .loc 1 698 0 discriminator 1
 754 00a6 73EE230A 	 fadds s1,s6,s7
 686:../Dave/Generated/CMSIS_DSP/TransformFunctions/arm_cfft_radix4_f32.c ****       /* xb - xd */
 755              	 .loc 1 686 0 discriminator 1
 756 00aa 74EE655A 	 fsubs s11,s8,s11
 757              	.LVL138:
 690:../Dave/Generated/CMSIS_DSP/TransformFunctions/arm_cfft_radix4_f32.c ****       /* yb - yd */
 758              	 .loc 1 690 0 discriminator 1
 759 00ae 36EEC77A 	 fsubs s14,s13,s14
 760              	.LVL139:
 688:../Dave/Generated/CMSIS_DSP/TransformFunctions/arm_cfft_radix4_f32.c ****       /* ya - yc */
 761              	 .loc 1 688 0 discriminator 1
 762 00b2 76EE677A 	 fsubs s15,s12,s15
 763              	.LVL140:
 692:../Dave/Generated/CMSIS_DSP/TransformFunctions/arm_cfft_radix4_f32.c **** 
 764              	 .loc 1 692 0 discriminator 1
 765 00b6 74EEC56A 	 fsubs s13,s9,s10
 766              	.LVL141:
 695:../Dave/Generated/CMSIS_DSP/TransformFunctions/arm_cfft_radix4_f32.c **** 
 767              	 .loc 1 695 0 discriminator 1
 768 00ba 06ED010A 	 fsts s0,[r6,#-4]
 769              	.LVL142:
 770              	 .loc 1 698 0 discriminator 1
 771 00be C2ED010A 	 fsts s1,[r2,#4]
 699:../Dave/Generated/CMSIS_DSP/TransformFunctions/arm_cfft_radix4_f32.c **** 
 700:../Dave/Generated/CMSIS_DSP/TransformFunctions/arm_cfft_radix4_f32.c ****       /* (xa - xc) - (yb - yd) */
 701:../Dave/Generated/CMSIS_DSP/TransformFunctions/arm_cfft_radix4_f32.c ****       Xb12C_out = (Xaminusc - Ybminusd);
 702:../Dave/Generated/CMSIS_DSP/TransformFunctions/arm_cfft_radix4_f32.c ****       /* (ya - yc) + (xb - xd) */
 703:../Dave/Generated/CMSIS_DSP/TransformFunctions/arm_cfft_radix4_f32.c ****       Yb12C_out = (Yaminusc + Xbminusd);
 704:../Dave/Generated/CMSIS_DSP/TransformFunctions/arm_cfft_radix4_f32.c ****       /* (xa + xc) - (xb + xd) */
 705:../Dave/Generated/CMSIS_DSP/TransformFunctions/arm_cfft_radix4_f32.c ****       Xc12C_out = (Xaplusc - Xbplusd);
 706:../Dave/Generated/CMSIS_DSP/TransformFunctions/arm_cfft_radix4_f32.c ****       /* (ya + yc) - (yb + yd) */
 707:../Dave/Generated/CMSIS_DSP/TransformFunctions/arm_cfft_radix4_f32.c ****       Yc12C_out = (Yaplusc - Ybplusd);
 708:../Dave/Generated/CMSIS_DSP/TransformFunctions/arm_cfft_radix4_f32.c ****       /* (xa - xc) + (yb - yd) */
 709:../Dave/Generated/CMSIS_DSP/TransformFunctions/arm_cfft_radix4_f32.c ****       Xd12C_out = (Xaminusc + Ybminusd);
 710:../Dave/Generated/CMSIS_DSP/TransformFunctions/arm_cfft_radix4_f32.c ****       /* (ya - yc) - (xb - xd) */
 711:../Dave/Generated/CMSIS_DSP/TransformFunctions/arm_cfft_radix4_f32.c ****       Yd12C_out = (Yaminusc - Xbminusd);
 712:../Dave/Generated/CMSIS_DSP/TransformFunctions/arm_cfft_radix4_f32.c **** 
 713:../Dave/Generated/CMSIS_DSP/TransformFunctions/arm_cfft_radix4_f32.c ****       co1 = pCoef[ia1 * 2u];
 714:../Dave/Generated/CMSIS_DSP/TransformFunctions/arm_cfft_radix4_f32.c ****       si1 = pCoef[(ia1 * 2u) + 1u];
 772              	 .loc 1 714 0 discriminator 1
 773 00c2 94ED014A 	 flds s8,[r4,#4]
 774              	.LVL143:
 715:../Dave/Generated/CMSIS_DSP/TransformFunctions/arm_cfft_radix4_f32.c **** 
 716:../Dave/Generated/CMSIS_DSP/TransformFunctions/arm_cfft_radix4_f32.c ****       /*  index calculation for the coefficients */
 717:../Dave/Generated/CMSIS_DSP/TransformFunctions/arm_cfft_radix4_f32.c ****       ia3 = ia2 + ia1;
 718:../Dave/Generated/CMSIS_DSP/TransformFunctions/arm_cfft_radix4_f32.c ****       co3 = pCoef[ia3 * 2u];
 719:../Dave/Generated/CMSIS_DSP/TransformFunctions/arm_cfft_radix4_f32.c ****       si3 = pCoef[(ia3 * 2u) + 1u];
 775              	 .loc 1 719 0 discriminator 1
 776 00c6 D5ED014A 	 flds s9,[r5,#4]
 777              	.LVL144:
 705:../Dave/Generated/CMSIS_DSP/TransformFunctions/arm_cfft_radix4_f32.c ****       /* (ya + yc) - (yb + yd) */
 778              	 .loc 1 705 0 discriminator 1
 779 00ca 32EE625A 	 fsubs s10,s4,s5
 780              	.LVL145:
 703:../Dave/Generated/CMSIS_DSP/TransformFunctions/arm_cfft_radix4_f32.c ****       /* (xa + xc) - (xb + xd) */
 781              	 .loc 1 703 0 discriminator 1
 782 00ce 77EE270A 	 fadds s1,s14,s15
 701:../Dave/Generated/CMSIS_DSP/TransformFunctions/arm_cfft_radix4_f32.c ****       /* (ya - yc) + (xb - xd) */
 783              	 .loc 1 701 0 discriminator 1
 784 00d2 35EEE62A 	 fsubs s4,s11,s13
 785              	.LVL146:
 707:../Dave/Generated/CMSIS_DSP/TransformFunctions/arm_cfft_radix4_f32.c ****       /* (xa - xc) + (yb - yd) */
 786              	 .loc 1 707 0 discriminator 1
 787 00d6 33EE636A 	 fsubs s12,s6,s7
 788              	.LVL147:
 711:../Dave/Generated/CMSIS_DSP/TransformFunctions/arm_cfft_radix4_f32.c **** 
 789              	 .loc 1 711 0 discriminator 1
 790 00da 77EE677A 	 fsubs s15,s14,s15
 791              	.LVL148:
 709:../Dave/Generated/CMSIS_DSP/TransformFunctions/arm_cfft_radix4_f32.c ****       /* (ya - yc) - (xb - xd) */
 792              	 .loc 1 709 0 discriminator 1
 793 00de 35EEA67A 	 fadds s14,s11,s13
 794              	.LVL149:
 713:../Dave/Generated/CMSIS_DSP/TransformFunctions/arm_cfft_radix4_f32.c ****       si1 = pCoef[(ia1 * 2u) + 1u];
 795              	 .loc 1 713 0 discriminator 1
 796 00e2 D4ED002A 	 flds s5,[r4]
 797              	.LVL150:
 718:../Dave/Generated/CMSIS_DSP/TransformFunctions/arm_cfft_radix4_f32.c ****       si3 = pCoef[(ia3 * 2u) + 1u];
 798              	 .loc 1 718 0 discriminator 1
 799 00e6 95ED003A 	 flds s6,[r5]
 800              	.LVL151:
 801 00ea 64EE605A 	 fnmuls s11,s8,s1
 802              	.LVL152:
 803 00ee 61EEC63A 	 fnmuls s7,s3,s12
 804              	.LVL153:
 805 00f2 64EEE76A 	 fnmuls s13,s9,s15
 806              	.LVL154:
 720:../Dave/Generated/CMSIS_DSP/TransformFunctions/arm_cfft_radix4_f32.c **** 
 721:../Dave/Generated/CMSIS_DSP/TransformFunctions/arm_cfft_radix4_f32.c ****       Xb12_out = Xb12C_out * co1;
 722:../Dave/Generated/CMSIS_DSP/TransformFunctions/arm_cfft_radix4_f32.c ****       Yb12_out = Yb12C_out * co1;
 723:../Dave/Generated/CMSIS_DSP/TransformFunctions/arm_cfft_radix4_f32.c ****       Xc12_out = Xc12C_out * co2;
 724:../Dave/Generated/CMSIS_DSP/TransformFunctions/arm_cfft_radix4_f32.c ****       Yc12_out = Yc12C_out * co2;
 725:../Dave/Generated/CMSIS_DSP/TransformFunctions/arm_cfft_radix4_f32.c ****       Xd12_out = Xd12C_out * co3;
 726:../Dave/Generated/CMSIS_DSP/TransformFunctions/arm_cfft_radix4_f32.c ****       Yd12_out = Yd12C_out * co3;
 727:../Dave/Generated/CMSIS_DSP/TransformFunctions/arm_cfft_radix4_f32.c **** 
 728:../Dave/Generated/CMSIS_DSP/TransformFunctions/arm_cfft_radix4_f32.c ****       /* xb' = (xa+yb-xc-yd)co1 - (ya-xb-yc+xd)(si1) */
 729:../Dave/Generated/CMSIS_DSP/TransformFunctions/arm_cfft_radix4_f32.c ****       //Xb12_out -= Yb12C_out * si1;
 730:../Dave/Generated/CMSIS_DSP/TransformFunctions/arm_cfft_radix4_f32.c ****       p0 = Yb12C_out * si1;
 731:../Dave/Generated/CMSIS_DSP/TransformFunctions/arm_cfft_radix4_f32.c ****       /* yb' = (ya-xb-yc+xd)co1 + (xa+yb-xc-yd)(si1) */
 732:../Dave/Generated/CMSIS_DSP/TransformFunctions/arm_cfft_radix4_f32.c ****       //Yb12_out += Xb12C_out * si1;
 733:../Dave/Generated/CMSIS_DSP/TransformFunctions/arm_cfft_radix4_f32.c ****       p1 = Xb12C_out * si1;
 807              	 .loc 1 733 0 discriminator 1
 808 00f6 22EE044A 	 fmuls s8,s4,s8
 809              	.LVL155:
 734:../Dave/Generated/CMSIS_DSP/TransformFunctions/arm_cfft_radix4_f32.c ****       /* xc' = (xa-xb+xc-xd)co2 - (ya-yb+yc-yd)(si2) */
 735:../Dave/Generated/CMSIS_DSP/TransformFunctions/arm_cfft_radix4_f32.c ****       //Xc12_out -= Yc12C_out * si2;
 736:../Dave/Generated/CMSIS_DSP/TransformFunctions/arm_cfft_radix4_f32.c ****       p2 = Yc12C_out * si2;
 737:../Dave/Generated/CMSIS_DSP/TransformFunctions/arm_cfft_radix4_f32.c ****       /* yc' = (ya-yb+yc-yd)co2 + (xa-xb+xc-xd)(si2) */
 738:../Dave/Generated/CMSIS_DSP/TransformFunctions/arm_cfft_radix4_f32.c ****       //Yc12_out += Xc12C_out * si2;
 739:../Dave/Generated/CMSIS_DSP/TransformFunctions/arm_cfft_radix4_f32.c ****       p3 = Xc12C_out * si2;
 810              	 .loc 1 739 0 discriminator 1
 811 00fa 65EE211A 	 fmuls s3,s10,s3
 812              	.LVL156:
 740:../Dave/Generated/CMSIS_DSP/TransformFunctions/arm_cfft_radix4_f32.c ****       /* xd' = (xa-yb-xc+yd)co3 - (ya+xb-yc-xd)(si3) */
 741:../Dave/Generated/CMSIS_DSP/TransformFunctions/arm_cfft_radix4_f32.c ****       //Xd12_out -= Yd12C_out * si3;
 742:../Dave/Generated/CMSIS_DSP/TransformFunctions/arm_cfft_radix4_f32.c ****       p4 = Yd12C_out * si3;
 743:../Dave/Generated/CMSIS_DSP/TransformFunctions/arm_cfft_radix4_f32.c ****       /* yd' = (ya+xb-yc-xd)co3 + (xa-yb-xc+yd)(si3) */
 744:../Dave/Generated/CMSIS_DSP/TransformFunctions/arm_cfft_radix4_f32.c ****       //Yd12_out += Xd12C_out * si3;
 745:../Dave/Generated/CMSIS_DSP/TransformFunctions/arm_cfft_radix4_f32.c ****       p5 = Xd12C_out * si3;
 813              	 .loc 1 745 0 discriminator 1
 814 00fe 67EE244A 	 fmuls s9,s14,s9
 815              	.LVL157:
 746:../Dave/Generated/CMSIS_DSP/TransformFunctions/arm_cfft_radix4_f32.c **** 
 747:../Dave/Generated/CMSIS_DSP/TransformFunctions/arm_cfft_radix4_f32.c ****       Xb12_out -= p0;
 748:../Dave/Generated/CMSIS_DSP/TransformFunctions/arm_cfft_radix4_f32.c ****       Yb12_out += p1;
 816              	 .loc 1 748 0 discriminator 1
 817 0102 A0EEA24A 	 vfma.f32 s8,s1,s5
 818              	.LVL158:
 819 0106 0832     	 adds r2,r2,#8
 749:../Dave/Generated/CMSIS_DSP/TransformFunctions/arm_cfft_radix4_f32.c ****       Xc12_out -= p2;
 750:../Dave/Generated/CMSIS_DSP/TransformFunctions/arm_cfft_radix4_f32.c ****       Yc12_out += p3;
 751:../Dave/Generated/CMSIS_DSP/TransformFunctions/arm_cfft_radix4_f32.c ****       Xd12_out -= p4;
 752:../Dave/Generated/CMSIS_DSP/TransformFunctions/arm_cfft_radix4_f32.c ****       Yd12_out += p5;
 753:../Dave/Generated/CMSIS_DSP/TransformFunctions/arm_cfft_radix4_f32.c **** 
 754:../Dave/Generated/CMSIS_DSP/TransformFunctions/arm_cfft_radix4_f32.c ****       /* xc' = (xa-xb+xc-xd)co2 - (ya-yb+yc-yd)(si2) */
 755:../Dave/Generated/CMSIS_DSP/TransformFunctions/arm_cfft_radix4_f32.c ****       pSrc[2u * i1] = Xc12_out;
 756:../Dave/Generated/CMSIS_DSP/TransformFunctions/arm_cfft_radix4_f32.c **** 
 757:../Dave/Generated/CMSIS_DSP/TransformFunctions/arm_cfft_radix4_f32.c ****       /* yc' = (ya-yb+yc-yd)co2 + (xa-xb+xc-xd)(si2) */
 758:../Dave/Generated/CMSIS_DSP/TransformFunctions/arm_cfft_radix4_f32.c ****       pSrc[(2u * i1) + 1u] = Yc12_out;
 759:../Dave/Generated/CMSIS_DSP/TransformFunctions/arm_cfft_radix4_f32.c **** 
 760:../Dave/Generated/CMSIS_DSP/TransformFunctions/arm_cfft_radix4_f32.c ****       /* xb' = (xa+yb-xc-yd)co1 - (ya-xb-yc+xd)(si1) */
 761:../Dave/Generated/CMSIS_DSP/TransformFunctions/arm_cfft_radix4_f32.c ****       pSrc[2u * i2] = Xb12_out;
 762:../Dave/Generated/CMSIS_DSP/TransformFunctions/arm_cfft_radix4_f32.c **** 
 763:../Dave/Generated/CMSIS_DSP/TransformFunctions/arm_cfft_radix4_f32.c ****       /* yb' = (ya-xb-yc+xd)co1 + (xa+yb-xc-yd)(si1) */
 764:../Dave/Generated/CMSIS_DSP/TransformFunctions/arm_cfft_radix4_f32.c ****       pSrc[(2u * i2) + 1u] = Yb12_out;
 765:../Dave/Generated/CMSIS_DSP/TransformFunctions/arm_cfft_radix4_f32.c **** 
 766:../Dave/Generated/CMSIS_DSP/TransformFunctions/arm_cfft_radix4_f32.c ****       /* xd' = (xa-yb-xc+yd)co3 - (ya+xb-yc-xd)(si3) */
 767:../Dave/Generated/CMSIS_DSP/TransformFunctions/arm_cfft_radix4_f32.c ****       pSrc[2u * i3] = Xd12_out;
 768:../Dave/Generated/CMSIS_DSP/TransformFunctions/arm_cfft_radix4_f32.c **** 
 769:../Dave/Generated/CMSIS_DSP/TransformFunctions/arm_cfft_radix4_f32.c ****       /* yd' = (ya+xb-yc-xd)co3 + (xa-yb-xc+yd)(si3) */
 770:../Dave/Generated/CMSIS_DSP/TransformFunctions/arm_cfft_radix4_f32.c ****       pSrc[(2u * i3) + 1u] = Yd12_out;
 771:../Dave/Generated/CMSIS_DSP/TransformFunctions/arm_cfft_radix4_f32.c **** 
 772:../Dave/Generated/CMSIS_DSP/TransformFunctions/arm_cfft_radix4_f32.c ****       /*  Twiddle coefficients index modifier */
 773:../Dave/Generated/CMSIS_DSP/TransformFunctions/arm_cfft_radix4_f32.c ****       ia1 = ia1 + twidCoefModifier;
 774:../Dave/Generated/CMSIS_DSP/TransformFunctions/arm_cfft_radix4_f32.c **** 
 775:../Dave/Generated/CMSIS_DSP/TransformFunctions/arm_cfft_radix4_f32.c ****       /*  Updating input index */
 776:../Dave/Generated/CMSIS_DSP/TransformFunctions/arm_cfft_radix4_f32.c ****       i0 = i0 + 1u;
 777:../Dave/Generated/CMSIS_DSP/TransformFunctions/arm_cfft_radix4_f32.c **** 
 778:../Dave/Generated/CMSIS_DSP/TransformFunctions/arm_cfft_radix4_f32.c ****    } while (--j);
 820              	 .loc 1 778 0 discriminator 1
 821 0108 4245     	 cmp r2,r8
 747:../Dave/Generated/CMSIS_DSP/TransformFunctions/arm_cfft_radix4_f32.c ****       Yb12_out += p1;
 822              	 .loc 1 747 0 discriminator 1
 823 010a E2EE225A 	 vfma.f32 s11,s4,s5
 824              	.LVL159:
 825 010e 06F10806 	 add r6,r6,#8
 826 0112 D144     	 add r9,r9,r10
 749:../Dave/Generated/CMSIS_DSP/TransformFunctions/arm_cfft_radix4_f32.c ****       Xc12_out -= p2;
 827              	 .loc 1 749 0 discriminator 1
 828 0114 E5EE013A 	 vfma.f32 s7,s10,s2
 829              	.LVL160:
 830 0118 5C44     	 add r4,r4,fp
 831              	.LVL161:
 832 011a 7544     	 add r5,r5,lr
 833              	.LVL162:
 750:../Dave/Generated/CMSIS_DSP/TransformFunctions/arm_cfft_radix4_f32.c ****       Xd12_out -= p4;
 834              	 .loc 1 750 0 discriminator 1
 835 011c E6EE011A 	 vfma.f32 s3,s12,s2
 836              	.LVL163:
 837 0120 00F10800 	 add r0,r0,#8
 838 0124 07F10807 	 add r7,r7,#8
 751:../Dave/Generated/CMSIS_DSP/TransformFunctions/arm_cfft_radix4_f32.c ****       Yd12_out += p5;
 839              	 .loc 1 751 0 discriminator 1
 840 0128 E7EE036A 	 vfma.f32 s13,s14,s6
 841              	.LVL164:
 842 012c 01F10801 	 add r1,r1,#8
 843 0130 03F10803 	 add r3,r3,#8
 752:../Dave/Generated/CMSIS_DSP/TransformFunctions/arm_cfft_radix4_f32.c **** 
 844              	 .loc 1 752 0 discriminator 1
 845 0134 E7EE834A 	 vfma.f32 s9,s15,s6
 846              	.LVL165:
 755:../Dave/Generated/CMSIS_DSP/TransformFunctions/arm_cfft_radix4_f32.c **** 
 847              	 .loc 1 755 0 discriminator 1
 848 0138 40ED033A 	 fsts s7,[r0,#-12]
 758:../Dave/Generated/CMSIS_DSP/TransformFunctions/arm_cfft_radix4_f32.c **** 
 849              	 .loc 1 758 0 discriminator 1
 850 013c 47ED011A 	 fsts s3,[r7,#-4]
 761:../Dave/Generated/CMSIS_DSP/TransformFunctions/arm_cfft_radix4_f32.c **** 
 851              	 .loc 1 761 0 discriminator 1
 852 0140 41ED025A 	 fsts s11,[r1,#-8]
 764:../Dave/Generated/CMSIS_DSP/TransformFunctions/arm_cfft_radix4_f32.c **** 
 853              	 .loc 1 764 0 discriminator 1
 854 0144 01ED014A 	 fsts s8,[r1,#-4]
 767:../Dave/Generated/CMSIS_DSP/TransformFunctions/arm_cfft_radix4_f32.c **** 
 855              	 .loc 1 767 0 discriminator 1
 856 0148 43ED026A 	 fsts s13,[r3,#-8]
 770:../Dave/Generated/CMSIS_DSP/TransformFunctions/arm_cfft_radix4_f32.c **** 
 857              	 .loc 1 770 0 discriminator 1
 858 014c 43ED014A 	 fsts s9,[r3,#-4]
 859              	 .loc 1 778 0 discriminator 1
 860 0150 8BD1     	 bne .L17
 779:../Dave/Generated/CMSIS_DSP/TransformFunctions/arm_cfft_radix4_f32.c **** 
 780:../Dave/Generated/CMSIS_DSP/TransformFunctions/arm_cfft_radix4_f32.c ****    twidCoefModifier <<= 2u;
 861              	 .loc 1 780 0
 862 0152 009B     	 ldr r3,[sp]
 781:../Dave/Generated/CMSIS_DSP/TransformFunctions/arm_cfft_radix4_f32.c **** 
 782:../Dave/Generated/CMSIS_DSP/TransformFunctions/arm_cfft_radix4_f32.c ****    /*  Calculation of second stage to excluding last stage */
 783:../Dave/Generated/CMSIS_DSP/TransformFunctions/arm_cfft_radix4_f32.c ****    for (k = fftLen >> 2u; k > 4u; k >>= 2u)
 863              	 .loc 1 783 0
 864 0154 BDF80C20 	 ldrh r2,[sp,#12]
 865 0158 DDF810B0 	 ldr fp,[sp,#16]
 866 015c DDF808A0 	 ldr r10,[sp,#8]
 867 0160 0B92     	 str r2,[sp,#44]
 780:../Dave/Generated/CMSIS_DSP/TransformFunctions/arm_cfft_radix4_f32.c **** 
 868              	 .loc 1 780 0
 869 0162 9B00     	 lsls r3,r3,#2
 870 0164 9BB2     	 uxth r3,r3
 871              	 .loc 1 783 0
 872 0166 042A     	 cmp r2,#4
 780:../Dave/Generated/CMSIS_DSP/TransformFunctions/arm_cfft_radix4_f32.c **** 
 873              	 .loc 1 780 0
 874 0168 0693     	 str r3,[sp,#24]
 875              	.LVL166:
 876              	 .loc 1 783 0
 877 016a 40F2AD80 	 bls .L23
 878 016e 0792     	 str r2,[sp,#28]
 879              	.LVL167:
 880              	.L22:
 881 0170 0698     	 ldr r0,[sp,#24]
 784:../Dave/Generated/CMSIS_DSP/TransformFunctions/arm_cfft_radix4_f32.c ****    {
 785:../Dave/Generated/CMSIS_DSP/TransformFunctions/arm_cfft_radix4_f32.c ****       /*  Initializations for the first stage */
 786:../Dave/Generated/CMSIS_DSP/TransformFunctions/arm_cfft_radix4_f32.c ****       n1 = n2;
 787:../Dave/Generated/CMSIS_DSP/TransformFunctions/arm_cfft_radix4_f32.c ****       n2 >>= 2u;
 882              	 .loc 1 787 0
 883 0172 0A9F     	 ldr r7,[sp,#40]
 884 0174 099E     	 ldr r6,[sp,#36]
 885 0176 4FEA9B03 	 lsr r3,fp,#2
 886 017a 1946     	 mov r1,r3
 887 017c 0893     	 str r3,[sp,#32]
 888              	.LVL168:
 889 017e 00EB4003 	 add r3,r0,r0,lsl#1
 890 0182 4A1E     	 subs r2,r1,#1
 891 0184 DB00     	 lsls r3,r3,#3
 892 0186 0592     	 str r2,[sp,#20]
 893 0188 0393     	 str r3,[sp,#12]
 894 018a 0A01     	 lsls r2,r1,#4
 895 018c 0301     	 lsls r3,r0,#4
 896 018e 0492     	 str r2,[sp,#16]
 897 0190 0293     	 str r3,[sp,#8]
 898 0192 C200     	 lsls r2,r0,#3
 788:../Dave/Generated/CMSIS_DSP/TransformFunctions/arm_cfft_radix4_f32.c ****       ia1 = 0u;
 789:../Dave/Generated/CMSIS_DSP/TransformFunctions/arm_cfft_radix4_f32.c **** 
 790:../Dave/Generated/CMSIS_DSP/TransformFunctions/arm_cfft_radix4_f32.c ****       /*  Calculation of first stage */
 791:../Dave/Generated/CMSIS_DSP/TransformFunctions/arm_cfft_radix4_f32.c ****       j = 0;
 899              	 .loc 1 791 0
 900 0194 0023     	 movs r3,#0
 901 0196 06EBC109 	 add r9,r6,r1,lsl#3
 902 019a 0192     	 str r2,[sp,#4]
 787:../Dave/Generated/CMSIS_DSP/TransformFunctions/arm_cfft_radix4_f32.c ****       ia1 = 0u;
 903              	 .loc 1 787 0
 904 019c B846     	 mov r8,r7
 905 019e BE46     	 mov lr,r7
 906              	 .loc 1 791 0
 907 01a0 0093     	 str r3,[sp]
 908              	.LVL169:
 909              	.L21:
 910 01a2 049B     	 ldr r3,[sp,#16]
 792:../Dave/Generated/CMSIS_DSP/TransformFunctions/arm_cfft_radix4_f32.c ****       do
 793:../Dave/Generated/CMSIS_DSP/TransformFunctions/arm_cfft_radix4_f32.c ****       {
 794:../Dave/Generated/CMSIS_DSP/TransformFunctions/arm_cfft_radix4_f32.c ****          /*  index calculation for the coefficients */
 795:../Dave/Generated/CMSIS_DSP/TransformFunctions/arm_cfft_radix4_f32.c ****          ia2 = ia1 + ia1;
 796:../Dave/Generated/CMSIS_DSP/TransformFunctions/arm_cfft_radix4_f32.c ****          ia3 = ia2 + ia1;
 797:../Dave/Generated/CMSIS_DSP/TransformFunctions/arm_cfft_radix4_f32.c ****          co1 = pCoef[ia1 * 2u];
 911              	 .loc 1 797 0
 912 01a4 97ED000A 	 flds s0,[r7]
 913              	.LVL170:
 798:../Dave/Generated/CMSIS_DSP/TransformFunctions/arm_cfft_radix4_f32.c ****          si1 = pCoef[(ia1 * 2u) + 1u];
 914              	 .loc 1 798 0
 915 01a8 D7ED010A 	 flds s1,[r7,#4]
 916              	.LVL171:
 799:../Dave/Generated/CMSIS_DSP/TransformFunctions/arm_cfft_radix4_f32.c ****          co2 = pCoef[ia2 * 2u];
 917              	 .loc 1 799 0
 918 01ac 9EED001A 	 flds s2,[lr]
 919              	.LVL172:
 800:../Dave/Generated/CMSIS_DSP/TransformFunctions/arm_cfft_radix4_f32.c ****          si2 = pCoef[(ia2 * 2u) + 1u];
 920              	 .loc 1 800 0
 921 01b0 DEED011A 	 flds s3,[lr,#4]
 922              	.LVL173:
 801:../Dave/Generated/CMSIS_DSP/TransformFunctions/arm_cfft_radix4_f32.c ****          co3 = pCoef[ia3 * 2u];
 923              	 .loc 1 801 0
 924 01b4 98ED002A 	 flds s4,[r8]
 925              	.LVL174:
 802:../Dave/Generated/CMSIS_DSP/TransformFunctions/arm_cfft_radix4_f32.c ****          si3 = pCoef[(ia3 * 2u) + 1u];
 926              	 .loc 1 802 0
 927 01b8 D8ED012A 	 flds s5,[r8,#4]
 928              	.LVL175:
 803:../Dave/Generated/CMSIS_DSP/TransformFunctions/arm_cfft_radix4_f32.c **** 
 804:../Dave/Generated/CMSIS_DSP/TransformFunctions/arm_cfft_radix4_f32.c ****          /*  Twiddle coefficients index modifier */
 805:../Dave/Generated/CMSIS_DSP/TransformFunctions/arm_cfft_radix4_f32.c ****          ia1 = ia1 + twidCoefModifier;
 806:../Dave/Generated/CMSIS_DSP/TransformFunctions/arm_cfft_radix4_f32.c **** 
 807:../Dave/Generated/CMSIS_DSP/TransformFunctions/arm_cfft_radix4_f32.c ****          i0 = j;
 929              	 .loc 1 807 0
 930 01bc 009D     	 ldr r5,[sp]
 931 01be F118     	 adds r1,r6,r3
 932 01c0 09EB0302 	 add r2,r9,r3
 933 01c4 341D     	 adds r4,r6,#4
 802:../Dave/Generated/CMSIS_DSP/TransformFunctions/arm_cfft_radix4_f32.c ****          si3 = pCoef[(ia3 * 2u) + 1u];
 934              	 .loc 1 802 0
 935 01c6 4B46     	 mov r3,r9
 936 01c8 3046     	 mov r0,r6
 937              	.LVL176:
 938              	.L20:
 808:../Dave/Generated/CMSIS_DSP/TransformFunctions/arm_cfft_radix4_f32.c ****          do
 809:../Dave/Generated/CMSIS_DSP/TransformFunctions/arm_cfft_radix4_f32.c ****          {
 810:../Dave/Generated/CMSIS_DSP/TransformFunctions/arm_cfft_radix4_f32.c ****             /*  index calculation for the input as, */
 811:../Dave/Generated/CMSIS_DSP/TransformFunctions/arm_cfft_radix4_f32.c ****             /*  pSrc[i0 + 0], pSrc[i0 + fftLen/4], pSrc[i0 + fftLen/2], pSrc[i0 + 3fftLen/4] */
 812:../Dave/Generated/CMSIS_DSP/TransformFunctions/arm_cfft_radix4_f32.c ****             i1 = i0 + n2;
 813:../Dave/Generated/CMSIS_DSP/TransformFunctions/arm_cfft_radix4_f32.c ****             i2 = i1 + n2;
 814:../Dave/Generated/CMSIS_DSP/TransformFunctions/arm_cfft_radix4_f32.c ****             i3 = i2 + n2;
 815:../Dave/Generated/CMSIS_DSP/TransformFunctions/arm_cfft_radix4_f32.c **** 
 816:../Dave/Generated/CMSIS_DSP/TransformFunctions/arm_cfft_radix4_f32.c ****             xaIn = pSrc[(2u * i0)];
 939              	 .loc 1 816 0 discriminator 1
 940 01ca 14ED014A 	 flds s8,[r4,#-4]
 941              	.LVL177:
 817:../Dave/Generated/CMSIS_DSP/TransformFunctions/arm_cfft_radix4_f32.c ****             yaIn = pSrc[(2u * i0) + 1u];
 942              	 .loc 1 817 0 discriminator 1
 943 01ce 90ED016A 	 flds s12,[r0,#4]
 944              	.LVL178:
 818:../Dave/Generated/CMSIS_DSP/TransformFunctions/arm_cfft_radix4_f32.c **** 
 819:../Dave/Generated/CMSIS_DSP/TransformFunctions/arm_cfft_radix4_f32.c ****             xbIn = pSrc[(2u * i1)];
 820:../Dave/Generated/CMSIS_DSP/TransformFunctions/arm_cfft_radix4_f32.c ****             ybIn = pSrc[(2u * i1) + 1u];
 821:../Dave/Generated/CMSIS_DSP/TransformFunctions/arm_cfft_radix4_f32.c **** 
 822:../Dave/Generated/CMSIS_DSP/TransformFunctions/arm_cfft_radix4_f32.c ****             xcIn = pSrc[(2u * i2)];
 823:../Dave/Generated/CMSIS_DSP/TransformFunctions/arm_cfft_radix4_f32.c ****             ycIn = pSrc[(2u * i2) + 1u];
 824:../Dave/Generated/CMSIS_DSP/TransformFunctions/arm_cfft_radix4_f32.c **** 
 825:../Dave/Generated/CMSIS_DSP/TransformFunctions/arm_cfft_radix4_f32.c ****             xdIn = pSrc[(2u * i3)];
 945              	 .loc 1 825 0 discriminator 1
 946 01d2 D2ED007A 	 flds s15,[r2]
 947              	.LVL179:
 820:../Dave/Generated/CMSIS_DSP/TransformFunctions/arm_cfft_radix4_f32.c **** 
 948              	 .loc 1 820 0 discriminator 1
 949 01d6 D3ED014A 	 flds s9,[r3,#4]
 823:../Dave/Generated/CMSIS_DSP/TransformFunctions/arm_cfft_radix4_f32.c **** 
 950              	 .loc 1 823 0 discriminator 1
 951 01da D1ED016A 	 flds s13,[r1,#4]
 826:../Dave/Generated/CMSIS_DSP/TransformFunctions/arm_cfft_radix4_f32.c ****             ydIn = pSrc[(2u * i3) + 1u];
 952              	 .loc 1 826 0 discriminator 1
 953 01de 92ED015A 	 flds s10,[r2,#4]
 822:../Dave/Generated/CMSIS_DSP/TransformFunctions/arm_cfft_radix4_f32.c ****             ycIn = pSrc[(2u * i2) + 1u];
 954              	 .loc 1 822 0 discriminator 1
 955 01e2 D1ED005A 	 flds s11,[r1]
 819:../Dave/Generated/CMSIS_DSP/TransformFunctions/arm_cfft_radix4_f32.c ****             ybIn = pSrc[(2u * i1) + 1u];
 956              	 .loc 1 819 0 discriminator 1
 957 01e6 93ED007A 	 flds s14,[r3]
 958              	.LVL180:
 827:../Dave/Generated/CMSIS_DSP/TransformFunctions/arm_cfft_radix4_f32.c **** 
 828:../Dave/Generated/CMSIS_DSP/TransformFunctions/arm_cfft_radix4_f32.c ****             /* xa - xc */
 829:../Dave/Generated/CMSIS_DSP/TransformFunctions/arm_cfft_radix4_f32.c ****             Xaminusc = xaIn - xcIn;
 830:../Dave/Generated/CMSIS_DSP/TransformFunctions/arm_cfft_radix4_f32.c ****             /* (xb - xd) */
 831:../Dave/Generated/CMSIS_DSP/TransformFunctions/arm_cfft_radix4_f32.c ****             Xbminusd = xbIn - xdIn;
 832:../Dave/Generated/CMSIS_DSP/TransformFunctions/arm_cfft_radix4_f32.c ****             /* ya - yc */
 833:../Dave/Generated/CMSIS_DSP/TransformFunctions/arm_cfft_radix4_f32.c ****             Yaminusc = yaIn - ycIn;
 834:../Dave/Generated/CMSIS_DSP/TransformFunctions/arm_cfft_radix4_f32.c ****             /* (yb - yd) */
 835:../Dave/Generated/CMSIS_DSP/TransformFunctions/arm_cfft_radix4_f32.c ****             Ybminusd = ybIn - ydIn;
 836:../Dave/Generated/CMSIS_DSP/TransformFunctions/arm_cfft_radix4_f32.c **** 
 837:../Dave/Generated/CMSIS_DSP/TransformFunctions/arm_cfft_radix4_f32.c ****             /* xa + xc */
 838:../Dave/Generated/CMSIS_DSP/TransformFunctions/arm_cfft_radix4_f32.c ****             Xaplusc = xaIn + xcIn;
 959              	 .loc 1 838 0 discriminator 1
 960 01ea 34EE253A 	 fadds s6,s8,s11
 839:../Dave/Generated/CMSIS_DSP/TransformFunctions/arm_cfft_radix4_f32.c ****             /* xb + xd */
 840:../Dave/Generated/CMSIS_DSP/TransformFunctions/arm_cfft_radix4_f32.c ****             Xbplusd = xbIn + xdIn;
 961              	 .loc 1 840 0 discriminator 1
 962 01ee 77EE273A 	 fadds s7,s14,s15
 829:../Dave/Generated/CMSIS_DSP/TransformFunctions/arm_cfft_radix4_f32.c ****             /* (xb - xd) */
 963              	 .loc 1 829 0 discriminator 1
 964 01f2 74EE655A 	 fsubs s11,s8,s11
 965              	.LVL181:
 831:../Dave/Generated/CMSIS_DSP/TransformFunctions/arm_cfft_radix4_f32.c ****             /* ya - yc */
 966              	 .loc 1 831 0 discriminator 1
 967 01f6 37EE677A 	 fsubs s14,s14,s15
 968              	.LVL182:
 841:../Dave/Generated/CMSIS_DSP/TransformFunctions/arm_cfft_radix4_f32.c ****             /* ya + yc */
 842:../Dave/Generated/CMSIS_DSP/TransformFunctions/arm_cfft_radix4_f32.c ****             Yaplusc = yaIn + ycIn;
 969              	 .loc 1 842 0 discriminator 1
 970 01fa 36EE264A 	 fadds s8,s12,s13
 971              	.LVL183:
 833:../Dave/Generated/CMSIS_DSP/TransformFunctions/arm_cfft_radix4_f32.c ****             /* (yb - yd) */
 972              	 .loc 1 833 0 discriminator 1
 973 01fe 76EE667A 	 fsubs s15,s12,s13
 974              	.LVL184:
 843:../Dave/Generated/CMSIS_DSP/TransformFunctions/arm_cfft_radix4_f32.c ****             /* yb + yd */
 844:../Dave/Generated/CMSIS_DSP/TransformFunctions/arm_cfft_radix4_f32.c ****             Ybplusd = ybIn + ydIn;
 975              	 .loc 1 844 0 discriminator 1
 976 0202 34EE856A 	 fadds s12,s9,s10
 977              	.LVL185:
 835:../Dave/Generated/CMSIS_DSP/TransformFunctions/arm_cfft_radix4_f32.c **** 
 978              	 .loc 1 835 0 discriminator 1
 979 0206 74EEC56A 	 fsubs s13,s9,s10
 980              	.LVL186:
 845:../Dave/Generated/CMSIS_DSP/TransformFunctions/arm_cfft_radix4_f32.c **** 
 846:../Dave/Generated/CMSIS_DSP/TransformFunctions/arm_cfft_radix4_f32.c ****             /* (xa - xc) - (yb - yd) */
 847:../Dave/Generated/CMSIS_DSP/TransformFunctions/arm_cfft_radix4_f32.c ****             Xb12C_out = (Xaminusc - Ybminusd);
 848:../Dave/Generated/CMSIS_DSP/TransformFunctions/arm_cfft_radix4_f32.c ****             /* (ya - yc) +  (xb - xd) */
 849:../Dave/Generated/CMSIS_DSP/TransformFunctions/arm_cfft_radix4_f32.c ****             Yb12C_out = (Yaminusc + Xbminusd);
 981              	 .loc 1 849 0 discriminator 1
 982 020a 37EE87AA 	 fadds s20,s15,s14
 847:../Dave/Generated/CMSIS_DSP/TransformFunctions/arm_cfft_radix4_f32.c ****             /* (ya - yc) +  (xb - xd) */
 983              	 .loc 1 847 0 discriminator 1
 984 020e 75EEE69A 	 fsubs s19,s11,s13
 985              	.LVL187:
 850:../Dave/Generated/CMSIS_DSP/TransformFunctions/arm_cfft_radix4_f32.c ****             /* xa + xc -(xb + xd) */
 851:../Dave/Generated/CMSIS_DSP/TransformFunctions/arm_cfft_radix4_f32.c ****             Xc12C_out = (Xaplusc - Xbplusd);
 986              	 .loc 1 851 0 discriminator 1
 987 0212 73EE63AA 	 fsubs s21,s6,s7
 988              	.LVL188:
 852:../Dave/Generated/CMSIS_DSP/TransformFunctions/arm_cfft_radix4_f32.c ****             /* (ya + yc) - (yb + yd) */
 853:../Dave/Generated/CMSIS_DSP/TransformFunctions/arm_cfft_radix4_f32.c ****             Yc12C_out = (Yaplusc - Ybplusd);
 989              	 .loc 1 853 0 discriminator 1
 990 0216 34EE46BA 	 fsubs s22,s8,s12
 991              	.LVL189:
 854:../Dave/Generated/CMSIS_DSP/TransformFunctions/arm_cfft_radix4_f32.c ****             /* (xa - xc) + (yb - yd) */
 855:../Dave/Generated/CMSIS_DSP/TransformFunctions/arm_cfft_radix4_f32.c ****             Xd12C_out = (Xaminusc + Ybminusd);
 992              	 .loc 1 855 0 discriminator 1
 993 021a 75EEA66A 	 fadds s13,s11,s13
 994              	.LVL190:
 856:../Dave/Generated/CMSIS_DSP/TransformFunctions/arm_cfft_radix4_f32.c ****             /* (ya - yc) -  (xb - xd) */
 857:../Dave/Generated/CMSIS_DSP/TransformFunctions/arm_cfft_radix4_f32.c ****             Yd12C_out = (Yaminusc - Xbminusd);
 995              	 .loc 1 857 0 discriminator 1
 996 021e 77EEC77A 	 fsubs s15,s15,s14
 997              	.LVL191:
 858:../Dave/Generated/CMSIS_DSP/TransformFunctions/arm_cfft_radix4_f32.c **** 
 859:../Dave/Generated/CMSIS_DSP/TransformFunctions/arm_cfft_radix4_f32.c ****             pSrc[(2u * i0)] = Xaplusc + Xbplusd;
 860:../Dave/Generated/CMSIS_DSP/TransformFunctions/arm_cfft_radix4_f32.c ****             pSrc[(2u * i0) + 1u] = Yaplusc + Ybplusd;
 861:../Dave/Generated/CMSIS_DSP/TransformFunctions/arm_cfft_radix4_f32.c **** 
 862:../Dave/Generated/CMSIS_DSP/TransformFunctions/arm_cfft_radix4_f32.c ****             Xb12_out = Xb12C_out * co1;
 863:../Dave/Generated/CMSIS_DSP/TransformFunctions/arm_cfft_radix4_f32.c ****             Yb12_out = Yb12C_out * co1;
 864:../Dave/Generated/CMSIS_DSP/TransformFunctions/arm_cfft_radix4_f32.c ****             Xc12_out = Xc12C_out * co2;
 865:../Dave/Generated/CMSIS_DSP/TransformFunctions/arm_cfft_radix4_f32.c ****             Yc12_out = Yc12C_out * co2;
 866:../Dave/Generated/CMSIS_DSP/TransformFunctions/arm_cfft_radix4_f32.c ****             Xd12_out = Xd12C_out * co3;
 867:../Dave/Generated/CMSIS_DSP/TransformFunctions/arm_cfft_radix4_f32.c ****             Yd12_out = Yd12C_out * co3;
 868:../Dave/Generated/CMSIS_DSP/TransformFunctions/arm_cfft_radix4_f32.c **** 
 869:../Dave/Generated/CMSIS_DSP/TransformFunctions/arm_cfft_radix4_f32.c ****             /* xb' = (xa+yb-xc-yd)co1 - (ya-xb-yc+xd)(si1) */
 870:../Dave/Generated/CMSIS_DSP/TransformFunctions/arm_cfft_radix4_f32.c ****             //Xb12_out -= Yb12C_out * si1;
 871:../Dave/Generated/CMSIS_DSP/TransformFunctions/arm_cfft_radix4_f32.c ****             p0 = Yb12C_out * si1;
 872:../Dave/Generated/CMSIS_DSP/TransformFunctions/arm_cfft_radix4_f32.c ****             /* yb' = (ya-xb-yc+xd)co1 + (xa+yb-xc-yd)(si1) */
 873:../Dave/Generated/CMSIS_DSP/TransformFunctions/arm_cfft_radix4_f32.c ****             //Yb12_out += Xb12C_out * si1;
 874:../Dave/Generated/CMSIS_DSP/TransformFunctions/arm_cfft_radix4_f32.c ****             p1 = Xb12C_out * si1;
 875:../Dave/Generated/CMSIS_DSP/TransformFunctions/arm_cfft_radix4_f32.c ****             /* xc' = (xa-xb+xc-xd)co2 - (ya-yb+yc-yd)(si2) */
 876:../Dave/Generated/CMSIS_DSP/TransformFunctions/arm_cfft_radix4_f32.c ****             //Xc12_out -= Yc12C_out * si2;
 877:../Dave/Generated/CMSIS_DSP/TransformFunctions/arm_cfft_radix4_f32.c ****             p2 = Yc12C_out * si2;
 878:../Dave/Generated/CMSIS_DSP/TransformFunctions/arm_cfft_radix4_f32.c ****             /* yc' = (ya-yb+yc-yd)co2 + (xa-xb+xc-xd)(si2) */
 879:../Dave/Generated/CMSIS_DSP/TransformFunctions/arm_cfft_radix4_f32.c ****             //Yc12_out += Xc12C_out * si2;
 880:../Dave/Generated/CMSIS_DSP/TransformFunctions/arm_cfft_radix4_f32.c ****             p3 = Xc12C_out * si2;
 998              	 .loc 1 880 0 discriminator 1
 999 0222 6AEEA18A 	 fmuls s17,s21,s3
 1000 0226 21EECB9A 	 fnmuls s18,s3,s22
 874:../Dave/Generated/CMSIS_DSP/TransformFunctions/arm_cfft_radix4_f32.c ****             /* xc' = (xa-xb+xc-xd)co2 - (ya-yb+yc-yd)(si2) */
 1001              	 .loc 1 874 0 discriminator 1
 1002 022a 29EEA05A 	 fmuls s10,s19,s1
 1003              	.LVL192:
 1004 022e 60EECA4A 	 fnmuls s9,s1,s20
 1005              	.LVL193:
 1006 0232 62EEE75A 	 fnmuls s11,s5,s15
 1007              	.LVL194:
 881:../Dave/Generated/CMSIS_DSP/TransformFunctions/arm_cfft_radix4_f32.c ****             /* xd' = (xa-yb-xc+yd)co3 - (ya+xb-yc-xd)(si3) */
 882:../Dave/Generated/CMSIS_DSP/TransformFunctions/arm_cfft_radix4_f32.c ****             //Xd12_out -= Yd12C_out * si3;
 883:../Dave/Generated/CMSIS_DSP/TransformFunctions/arm_cfft_radix4_f32.c ****             p4 = Yd12C_out * si3;
 884:../Dave/Generated/CMSIS_DSP/TransformFunctions/arm_cfft_radix4_f32.c ****             /* yd' = (ya+xb-yc-xd)co3 + (xa-yb-xc+yd)(si3) */
 885:../Dave/Generated/CMSIS_DSP/TransformFunctions/arm_cfft_radix4_f32.c ****             //Yd12_out += Xd12C_out * si3;
 886:../Dave/Generated/CMSIS_DSP/TransformFunctions/arm_cfft_radix4_f32.c ****             p5 = Xd12C_out * si3;
 1008              	 .loc 1 886 0 discriminator 1
 1009 0236 26EEA27A 	 fmuls s14,s13,s5
 1010              	.LVL195:
 887:../Dave/Generated/CMSIS_DSP/TransformFunctions/arm_cfft_radix4_f32.c **** 
 888:../Dave/Generated/CMSIS_DSP/TransformFunctions/arm_cfft_radix4_f32.c ****             Xb12_out -= p0;
 889:../Dave/Generated/CMSIS_DSP/TransformFunctions/arm_cfft_radix4_f32.c ****             Yb12_out += p1;
 890:../Dave/Generated/CMSIS_DSP/TransformFunctions/arm_cfft_radix4_f32.c ****             Xc12_out -= p2;
 891:../Dave/Generated/CMSIS_DSP/TransformFunctions/arm_cfft_radix4_f32.c ****             Yc12_out += p3;
 1011              	 .loc 1 891 0 discriminator 1
 1012 023a EBEE018A 	 vfma.f32 s17,s22,s2
 892:../Dave/Generated/CMSIS_DSP/TransformFunctions/arm_cfft_radix4_f32.c ****             Xd12_out -= p4;
 893:../Dave/Generated/CMSIS_DSP/TransformFunctions/arm_cfft_radix4_f32.c ****             Yd12_out += p5;
 894:../Dave/Generated/CMSIS_DSP/TransformFunctions/arm_cfft_radix4_f32.c **** 
 895:../Dave/Generated/CMSIS_DSP/TransformFunctions/arm_cfft_radix4_f32.c ****             /* xc' = (xa-xb+xc-xd)co2 - (ya-yb+yc-yd)(si2) */
 896:../Dave/Generated/CMSIS_DSP/TransformFunctions/arm_cfft_radix4_f32.c ****             pSrc[2u * i1] = Xc12_out;
 897:../Dave/Generated/CMSIS_DSP/TransformFunctions/arm_cfft_radix4_f32.c **** 
 898:../Dave/Generated/CMSIS_DSP/TransformFunctions/arm_cfft_radix4_f32.c ****             /* yc' = (ya-yb+yc-yd)co2 + (xa-xb+xc-xd)(si2) */
 899:../Dave/Generated/CMSIS_DSP/TransformFunctions/arm_cfft_radix4_f32.c ****             pSrc[(2u * i1) + 1u] = Yc12_out;
 900:../Dave/Generated/CMSIS_DSP/TransformFunctions/arm_cfft_radix4_f32.c **** 
 901:../Dave/Generated/CMSIS_DSP/TransformFunctions/arm_cfft_radix4_f32.c ****             /* xb' = (xa+yb-xc-yd)co1 - (ya-xb-yc+xd)(si1) */
 902:../Dave/Generated/CMSIS_DSP/TransformFunctions/arm_cfft_radix4_f32.c ****             pSrc[2u * i2] = Xb12_out;
 903:../Dave/Generated/CMSIS_DSP/TransformFunctions/arm_cfft_radix4_f32.c **** 
 904:../Dave/Generated/CMSIS_DSP/TransformFunctions/arm_cfft_radix4_f32.c ****             /* yb' = (ya-xb-yc+xd)co1 + (xa+yb-xc-yd)(si1) */
 905:../Dave/Generated/CMSIS_DSP/TransformFunctions/arm_cfft_radix4_f32.c ****             pSrc[(2u * i2) + 1u] = Yb12_out;
 906:../Dave/Generated/CMSIS_DSP/TransformFunctions/arm_cfft_radix4_f32.c **** 
 907:../Dave/Generated/CMSIS_DSP/TransformFunctions/arm_cfft_radix4_f32.c ****             /* xd' = (xa-yb-xc+yd)co3 - (ya+xb-yc-xd)(si3) */
 908:../Dave/Generated/CMSIS_DSP/TransformFunctions/arm_cfft_radix4_f32.c ****             pSrc[2u * i3] = Xd12_out;
 909:../Dave/Generated/CMSIS_DSP/TransformFunctions/arm_cfft_radix4_f32.c **** 
 910:../Dave/Generated/CMSIS_DSP/TransformFunctions/arm_cfft_radix4_f32.c ****             /* yd' = (ya+xb-yc-xd)co3 + (xa-yb-xc+yd)(si3) */
 911:../Dave/Generated/CMSIS_DSP/TransformFunctions/arm_cfft_radix4_f32.c ****             pSrc[(2u * i3) + 1u] = Yd12_out;
 912:../Dave/Generated/CMSIS_DSP/TransformFunctions/arm_cfft_radix4_f32.c **** 
 913:../Dave/Generated/CMSIS_DSP/TransformFunctions/arm_cfft_radix4_f32.c ****             i0 += n1;
 1013              	 .loc 1 913 0 discriminator 1
 1014 023e 5D44     	 add r5,r5,fp
 1015              	.LVL196:
 914:../Dave/Generated/CMSIS_DSP/TransformFunctions/arm_cfft_radix4_f32.c ****          } while (i0 < fftLen);
 1016              	 .loc 1 914 0 discriminator 1
 1017 0240 AA45     	 cmp r10,r5
 890:../Dave/Generated/CMSIS_DSP/TransformFunctions/arm_cfft_radix4_f32.c ****             Yc12_out += p3;
 1018              	 .loc 1 890 0 discriminator 1
 1019 0242 AAEE819A 	 vfma.f32 s18,s21,s2
 889:../Dave/Generated/CMSIS_DSP/TransformFunctions/arm_cfft_radix4_f32.c ****             Xc12_out -= p2;
 1020              	 .loc 1 889 0 discriminator 1
 1021 0246 AAEE005A 	 vfma.f32 s10,s20,s0
 888:../Dave/Generated/CMSIS_DSP/TransformFunctions/arm_cfft_radix4_f32.c ****             Yb12_out += p1;
 1022              	 .loc 1 888 0 discriminator 1
 1023 024a E9EE804A 	 vfma.f32 s9,s19,s0
 892:../Dave/Generated/CMSIS_DSP/TransformFunctions/arm_cfft_radix4_f32.c ****             Yd12_out += p5;
 1024              	 .loc 1 892 0 discriminator 1
 1025 024e E6EE825A 	 vfma.f32 s11,s13,s4
 893:../Dave/Generated/CMSIS_DSP/TransformFunctions/arm_cfft_radix4_f32.c **** 
 1026              	 .loc 1 893 0 discriminator 1
 1027 0252 A7EE827A 	 vfma.f32 s14,s15,s4
 859:../Dave/Generated/CMSIS_DSP/TransformFunctions/arm_cfft_radix4_f32.c ****             pSrc[(2u * i0) + 1u] = Yaplusc + Ybplusd;
 1028              	 .loc 1 859 0 discriminator 1
 1029 0256 73EE233A 	 fadds s7,s6,s7
 1030              	.LVL197:
 860:../Dave/Generated/CMSIS_DSP/TransformFunctions/arm_cfft_radix4_f32.c **** 
 1031              	 .loc 1 860 0 discriminator 1
 1032 025a 34EE066A 	 fadds s12,s8,s12
 1033              	.LVL198:
 859:../Dave/Generated/CMSIS_DSP/TransformFunctions/arm_cfft_radix4_f32.c ****             pSrc[(2u * i0) + 1u] = Yaplusc + Ybplusd;
 1034              	 .loc 1 859 0 discriminator 1
 1035 025e 44ED013A 	 fsts s7,[r4,#-4]
 1036              	.LVL199:
 860:../Dave/Generated/CMSIS_DSP/TransformFunctions/arm_cfft_radix4_f32.c **** 
 1037              	 .loc 1 860 0 discriminator 1
 1038 0262 80ED016A 	 fsts s12,[r0,#4]
 1039              	.LVL200:
 1040 0266 6444     	 add r4,r4,ip
 896:../Dave/Generated/CMSIS_DSP/TransformFunctions/arm_cfft_radix4_f32.c **** 
 1041              	 .loc 1 896 0 discriminator 1
 1042 0268 83ED009A 	 fsts s18,[r3]
 899:../Dave/Generated/CMSIS_DSP/TransformFunctions/arm_cfft_radix4_f32.c **** 
 1043              	 .loc 1 899 0 discriminator 1
 1044 026c C3ED018A 	 fsts s17,[r3,#4]
 1045 0270 6044     	 add r0,r0,ip
 902:../Dave/Generated/CMSIS_DSP/TransformFunctions/arm_cfft_radix4_f32.c **** 
 1046              	 .loc 1 902 0 discriminator 1
 1047 0272 C1ED004A 	 fsts s9,[r1]
 905:../Dave/Generated/CMSIS_DSP/TransformFunctions/arm_cfft_radix4_f32.c **** 
 1048              	 .loc 1 905 0 discriminator 1
 1049 0276 81ED015A 	 fsts s10,[r1,#4]
 1050 027a 6344     	 add r3,r3,ip
 908:../Dave/Generated/CMSIS_DSP/TransformFunctions/arm_cfft_radix4_f32.c **** 
 1051              	 .loc 1 908 0 discriminator 1
 1052 027c C2ED005A 	 fsts s11,[r2]
 911:../Dave/Generated/CMSIS_DSP/TransformFunctions/arm_cfft_radix4_f32.c **** 
 1053              	 .loc 1 911 0 discriminator 1
 1054 0280 82ED017A 	 fsts s14,[r2,#4]
 1055 0284 6144     	 add r1,r1,ip
 1056 0286 6244     	 add r2,r2,ip
 1057              	 .loc 1 914 0 discriminator 1
 1058 0288 9FD8     	 bhi .L20
 1059 028a 019A     	 ldr r2,[sp,#4]
 915:../Dave/Generated/CMSIS_DSP/TransformFunctions/arm_cfft_radix4_f32.c ****          j++;
 1060              	 .loc 1 915 0
 1061 028c 009B     	 ldr r3,[sp]
 1062 028e 1744     	 add r7,r7,r2
 1063 0290 029A     	 ldr r2,[sp,#8]
 1064 0292 9644     	 add lr,lr,r2
 1065 0294 039A     	 ldr r2,[sp,#12]
 1066 0296 9044     	 add r8,r8,r2
 916:../Dave/Generated/CMSIS_DSP/TransformFunctions/arm_cfft_radix4_f32.c ****       } while (j <= (n2 - 1u));
 1067              	 .loc 1 916 0
 1068 0298 059A     	 ldr r2,[sp,#20]
 915:../Dave/Generated/CMSIS_DSP/TransformFunctions/arm_cfft_radix4_f32.c ****          j++;
 1069              	 .loc 1 915 0
 1070 029a 0133     	 adds r3,r3,#1
 1071              	 .loc 1 916 0
 1072 029c 9342     	 cmp r3,r2
 915:../Dave/Generated/CMSIS_DSP/TransformFunctions/arm_cfft_radix4_f32.c ****          j++;
 1073              	 .loc 1 915 0
 1074 029e 0093     	 str r3,[sp]
 1075              	.LVL201:
 1076 02a0 06F10806 	 add r6,r6,#8
 1077 02a4 09F10809 	 add r9,r9,#8
 1078              	 .loc 1 916 0
 1079 02a8 7FF67BAF 	 bls .L21
 917:../Dave/Generated/CMSIS_DSP/TransformFunctions/arm_cfft_radix4_f32.c ****       twidCoefModifier <<= 2u;
 1080              	 .loc 1 917 0 discriminator 2
 1081 02ac 069B     	 ldr r3,[sp,#24]
 1082              	.LVL202:
 783:../Dave/Generated/CMSIS_DSP/TransformFunctions/arm_cfft_radix4_f32.c ****    {
 1083              	 .loc 1 783 0 discriminator 2
 1084 02ae 079A     	 ldr r2,[sp,#28]
 787:../Dave/Generated/CMSIS_DSP/TransformFunctions/arm_cfft_radix4_f32.c ****       ia1 = 0u;
 1085              	 .loc 1 787 0 discriminator 2
 1086 02b0 DDF820B0 	 ldr fp,[sp,#32]
 1087              	.LVL203:
 783:../Dave/Generated/CMSIS_DSP/TransformFunctions/arm_cfft_radix4_f32.c ****    {
 1088              	 .loc 1 783 0 discriminator 2
 1089 02b4 9208     	 lsrs r2,r2,#2
 1090              	 .loc 1 917 0 discriminator 2
 1091 02b6 9B00     	 lsls r3,r3,#2
 1092 02b8 9BB2     	 uxth r3,r3
 783:../Dave/Generated/CMSIS_DSP/TransformFunctions/arm_cfft_radix4_f32.c ****    {
 1093              	 .loc 1 783 0 discriminator 2
 1094 02ba 042A     	 cmp r2,#4
 1095 02bc 0792     	 str r2,[sp,#28]
 1096              	.LVL204:
 1097              	 .loc 1 917 0 discriminator 2
 1098 02be 0693     	 str r3,[sp,#24]
 1099              	.LVL205:
 783:../Dave/Generated/CMSIS_DSP/TransformFunctions/arm_cfft_radix4_f32.c ****    {
 1100              	 .loc 1 783 0 discriminator 2
 1101 02c0 02D9     	 bls .L23
 1102 02c2 4FEACB0C 	 lsl ip,fp,#3
 1103 02c6 53E7     	 b .L22
 1104              	.LVL206:
 1105              	.L23:
 1106 02c8 099B     	 ldr r3,[sp,#36]
 1107 02ca 0B9A     	 ldr r2,[sp,#44]
 1108              	.LVL207:
 1109 02cc 2033     	 adds r3,r3,#32
 1110              	.LVL208:
 1111              	.L19:
 918:../Dave/Generated/CMSIS_DSP/TransformFunctions/arm_cfft_radix4_f32.c ****    }
 919:../Dave/Generated/CMSIS_DSP/TransformFunctions/arm_cfft_radix4_f32.c ****    /*  Initializations of last stage */
 920:../Dave/Generated/CMSIS_DSP/TransformFunctions/arm_cfft_radix4_f32.c **** 
 921:../Dave/Generated/CMSIS_DSP/TransformFunctions/arm_cfft_radix4_f32.c ****    j = fftLen >> 2;
 922:../Dave/Generated/CMSIS_DSP/TransformFunctions/arm_cfft_radix4_f32.c ****    ptr1 = &pSrc[0];
 923:../Dave/Generated/CMSIS_DSP/TransformFunctions/arm_cfft_radix4_f32.c **** 
 924:../Dave/Generated/CMSIS_DSP/TransformFunctions/arm_cfft_radix4_f32.c ****    /*  Calculations of last stage */
 925:../Dave/Generated/CMSIS_DSP/TransformFunctions/arm_cfft_radix4_f32.c ****    do
 926:../Dave/Generated/CMSIS_DSP/TransformFunctions/arm_cfft_radix4_f32.c ****    {
 927:../Dave/Generated/CMSIS_DSP/TransformFunctions/arm_cfft_radix4_f32.c ****       xaIn = ptr1[0];
 928:../Dave/Generated/CMSIS_DSP/TransformFunctions/arm_cfft_radix4_f32.c ****       yaIn = ptr1[1];
 929:../Dave/Generated/CMSIS_DSP/TransformFunctions/arm_cfft_radix4_f32.c ****       xbIn = ptr1[2];
 930:../Dave/Generated/CMSIS_DSP/TransformFunctions/arm_cfft_radix4_f32.c ****       ybIn = ptr1[3];
 931:../Dave/Generated/CMSIS_DSP/TransformFunctions/arm_cfft_radix4_f32.c ****       xcIn = ptr1[4];
 1112              	 .loc 1 931 0 discriminator 1
 1113 02ce 53ED044A 	 flds s9,[r3,#-16]
 929:../Dave/Generated/CMSIS_DSP/TransformFunctions/arm_cfft_radix4_f32.c ****       ybIn = ptr1[3];
 1114              	 .loc 1 929 0 discriminator 1
 1115 02d2 13ED066A 	 flds s12,[r3,#-24]
 930:../Dave/Generated/CMSIS_DSP/TransformFunctions/arm_cfft_radix4_f32.c ****       xcIn = ptr1[4];
 1116              	 .loc 1 930 0 discriminator 1
 1117 02d6 13ED055A 	 flds s10,[r3,#-20]
 932:../Dave/Generated/CMSIS_DSP/TransformFunctions/arm_cfft_radix4_f32.c ****       ycIn = ptr1[5];
 933:../Dave/Generated/CMSIS_DSP/TransformFunctions/arm_cfft_radix4_f32.c ****       xdIn = ptr1[6];
 934:../Dave/Generated/CMSIS_DSP/TransformFunctions/arm_cfft_radix4_f32.c ****       ydIn = ptr1[7];
 1118              	 .loc 1 934 0 discriminator 1
 1119 02da 53ED015A 	 flds s11,[r3,#-4]
 928:../Dave/Generated/CMSIS_DSP/TransformFunctions/arm_cfft_radix4_f32.c ****       xbIn = ptr1[2];
 1120              	 .loc 1 928 0 discriminator 1
 1121 02de 53ED076A 	 flds s13,[r3,#-28]
 927:../Dave/Generated/CMSIS_DSP/TransformFunctions/arm_cfft_radix4_f32.c ****       yaIn = ptr1[1];
 1122              	 .loc 1 927 0 discriminator 1
 1123 02e2 13ED084A 	 flds s8,[r3,#-32]
 1124              	.LVL209:
 933:../Dave/Generated/CMSIS_DSP/TransformFunctions/arm_cfft_radix4_f32.c ****       ydIn = ptr1[7];
 1125              	 .loc 1 933 0 discriminator 1
 1126 02e6 53ED027A 	 flds s15,[r3,#-8]
 932:../Dave/Generated/CMSIS_DSP/TransformFunctions/arm_cfft_radix4_f32.c ****       xdIn = ptr1[6];
 1127              	 .loc 1 932 0 discriminator 1
 1128 02ea 13ED037A 	 flds s14,[r3,#-12]
 1129              	.LVL210:
 935:../Dave/Generated/CMSIS_DSP/TransformFunctions/arm_cfft_radix4_f32.c **** 
 936:../Dave/Generated/CMSIS_DSP/TransformFunctions/arm_cfft_radix4_f32.c ****       /*  Butterfly implementation */
 937:../Dave/Generated/CMSIS_DSP/TransformFunctions/arm_cfft_radix4_f32.c ****       /* xa + xc */
 938:../Dave/Generated/CMSIS_DSP/TransformFunctions/arm_cfft_radix4_f32.c ****       Xaplusc = xaIn + xcIn;
 1130              	 .loc 1 938 0 discriminator 1
 1131 02ee 34EE243A 	 fadds s6,s8,s9
 1132              	.LVL211:
 939:../Dave/Generated/CMSIS_DSP/TransformFunctions/arm_cfft_radix4_f32.c **** 
 940:../Dave/Generated/CMSIS_DSP/TransformFunctions/arm_cfft_radix4_f32.c ****       /* xa - xc */
 941:../Dave/Generated/CMSIS_DSP/TransformFunctions/arm_cfft_radix4_f32.c ****       Xaminusc = xaIn - xcIn;
 942:../Dave/Generated/CMSIS_DSP/TransformFunctions/arm_cfft_radix4_f32.c **** 
 943:../Dave/Generated/CMSIS_DSP/TransformFunctions/arm_cfft_radix4_f32.c ****       /* ya + yc */
 944:../Dave/Generated/CMSIS_DSP/TransformFunctions/arm_cfft_radix4_f32.c ****       Yaplusc = yaIn + ycIn;
 945:../Dave/Generated/CMSIS_DSP/TransformFunctions/arm_cfft_radix4_f32.c **** 
 946:../Dave/Generated/CMSIS_DSP/TransformFunctions/arm_cfft_radix4_f32.c ****       /* ya - yc */
 947:../Dave/Generated/CMSIS_DSP/TransformFunctions/arm_cfft_radix4_f32.c ****       Yaminusc = yaIn - ycIn;
 948:../Dave/Generated/CMSIS_DSP/TransformFunctions/arm_cfft_radix4_f32.c **** 
 949:../Dave/Generated/CMSIS_DSP/TransformFunctions/arm_cfft_radix4_f32.c ****       /* xb + xd */
 950:../Dave/Generated/CMSIS_DSP/TransformFunctions/arm_cfft_radix4_f32.c ****       Xbplusd = xbIn + xdIn;
 1133              	 .loc 1 950 0 discriminator 1
 1134 02f2 76EE273A 	 fadds s7,s12,s15
 941:../Dave/Generated/CMSIS_DSP/TransformFunctions/arm_cfft_radix4_f32.c **** 
 1135              	 .loc 1 941 0 discriminator 1
 1136 02f6 34EE644A 	 fsubs s8,s8,s9
 1137              	.LVL212:
 951:../Dave/Generated/CMSIS_DSP/TransformFunctions/arm_cfft_radix4_f32.c **** 
 952:../Dave/Generated/CMSIS_DSP/TransformFunctions/arm_cfft_radix4_f32.c ****       /* yb + yd */
 953:../Dave/Generated/CMSIS_DSP/TransformFunctions/arm_cfft_radix4_f32.c ****       Ybplusd = ybIn + ydIn;
 954:../Dave/Generated/CMSIS_DSP/TransformFunctions/arm_cfft_radix4_f32.c **** 
 955:../Dave/Generated/CMSIS_DSP/TransformFunctions/arm_cfft_radix4_f32.c ****       /* (xb-xd) */
 956:../Dave/Generated/CMSIS_DSP/TransformFunctions/arm_cfft_radix4_f32.c ****       Xbminusd = xbIn - xdIn;
 1138              	 .loc 1 956 0 discriminator 1
 1139 02fa 76EE677A 	 fsubs s15,s12,s15
 1140              	.LVL213:
 957:../Dave/Generated/CMSIS_DSP/TransformFunctions/arm_cfft_radix4_f32.c **** 
 958:../Dave/Generated/CMSIS_DSP/TransformFunctions/arm_cfft_radix4_f32.c ****       /* (yb-yd) */
 959:../Dave/Generated/CMSIS_DSP/TransformFunctions/arm_cfft_radix4_f32.c ****       Ybminusd = ybIn - ydIn;
 1141              	 .loc 1 959 0 discriminator 1
 1142 02fe 75EE654A 	 fsubs s9,s10,s11
 1143              	.LVL214:
 953:../Dave/Generated/CMSIS_DSP/TransformFunctions/arm_cfft_radix4_f32.c **** 
 1144              	 .loc 1 953 0 discriminator 1
 1145 0302 35EE256A 	 fadds s12,s10,s11
 1146              	.LVL215:
 944:../Dave/Generated/CMSIS_DSP/TransformFunctions/arm_cfft_radix4_f32.c **** 
 1147              	 .loc 1 944 0 discriminator 1
 1148 0306 76EE875A 	 fadds s11,s13,s14
 1149              	.LVL216:
 947:../Dave/Generated/CMSIS_DSP/TransformFunctions/arm_cfft_radix4_f32.c **** 
 1150              	 .loc 1 947 0 discriminator 1
 1151 030a 36EEC77A 	 fsubs s14,s13,s14
 1152              	.LVL217:
 960:../Dave/Generated/CMSIS_DSP/TransformFunctions/arm_cfft_radix4_f32.c **** 
 961:../Dave/Generated/CMSIS_DSP/TransformFunctions/arm_cfft_radix4_f32.c ****       /* xa' = (xa+xb+xc+xd) * onebyfftLen */
 962:../Dave/Generated/CMSIS_DSP/TransformFunctions/arm_cfft_radix4_f32.c ****       a0 = (Xaplusc + Xbplusd);
 1153              	 .loc 1 962 0 discriminator 1
 1154 030e 73EE232A 	 fadds s5,s6,s7
 1155              	.LVL218:
 963:../Dave/Generated/CMSIS_DSP/TransformFunctions/arm_cfft_radix4_f32.c ****       /* ya' = (ya+yb+yc+yd) * onebyfftLen */
 964:../Dave/Generated/CMSIS_DSP/TransformFunctions/arm_cfft_radix4_f32.c ****       a1 = (Yaplusc + Ybplusd);
 965:../Dave/Generated/CMSIS_DSP/TransformFunctions/arm_cfft_radix4_f32.c ****       /* xc' = (xa-xb+xc-xd) * onebyfftLen */
 966:../Dave/Generated/CMSIS_DSP/TransformFunctions/arm_cfft_radix4_f32.c ****       a2 = (Xaplusc - Xbplusd);
 967:../Dave/Generated/CMSIS_DSP/TransformFunctions/arm_cfft_radix4_f32.c ****       /* yc' = (ya-yb+yc-yd) * onebyfftLen  */
 968:../Dave/Generated/CMSIS_DSP/TransformFunctions/arm_cfft_radix4_f32.c ****       a3 = (Yaplusc - Ybplusd);
 969:../Dave/Generated/CMSIS_DSP/TransformFunctions/arm_cfft_radix4_f32.c ****       /* xb' = (xa-yb-xc+yd) * onebyfftLen */
 970:../Dave/Generated/CMSIS_DSP/TransformFunctions/arm_cfft_radix4_f32.c ****       a4 = (Xaminusc - Ybminusd);
 971:../Dave/Generated/CMSIS_DSP/TransformFunctions/arm_cfft_radix4_f32.c ****       /* yb' = (ya+xb-yc-xd) * onebyfftLen */
 972:../Dave/Generated/CMSIS_DSP/TransformFunctions/arm_cfft_radix4_f32.c ****       a5 = (Yaminusc + Xbminusd);
 973:../Dave/Generated/CMSIS_DSP/TransformFunctions/arm_cfft_radix4_f32.c ****       /* xd' = (xa-yb-xc+yd) * onebyfftLen */
 974:../Dave/Generated/CMSIS_DSP/TransformFunctions/arm_cfft_radix4_f32.c ****       a6 = (Xaminusc + Ybminusd);
 1156              	 .loc 1 974 0 discriminator 1
 1157 0312 74EE246A 	 fadds s13,s8,s9
 1158              	.LVL219:
 972:../Dave/Generated/CMSIS_DSP/TransformFunctions/arm_cfft_radix4_f32.c ****       /* xd' = (xa-yb-xc+yd) * onebyfftLen */
 1159              	 .loc 1 972 0 discriminator 1
 1160 0316 37EE275A 	 fadds s10,s14,s15
 1161              	.LVL220:
 966:../Dave/Generated/CMSIS_DSP/TransformFunctions/arm_cfft_radix4_f32.c ****       /* yc' = (ya-yb+yc-yd) * onebyfftLen  */
 1162              	 .loc 1 966 0 discriminator 1
 1163 031a 73EE633A 	 fsubs s7,s6,s7
 1164              	.LVL221:
 975:../Dave/Generated/CMSIS_DSP/TransformFunctions/arm_cfft_radix4_f32.c ****       /* yd' = (ya-xb-yc+xd) * onebyfftLen */
 976:../Dave/Generated/CMSIS_DSP/TransformFunctions/arm_cfft_radix4_f32.c ****       a7 = (Yaminusc - Xbminusd);
 1165              	 .loc 1 976 0 discriminator 1
 1166 031e 77EE677A 	 fsubs s15,s14,s15
 1167              	.LVL222:
 970:../Dave/Generated/CMSIS_DSP/TransformFunctions/arm_cfft_radix4_f32.c ****       /* yb' = (ya+xb-yc-xd) * onebyfftLen */
 1168              	 .loc 1 970 0 discriminator 1
 1169 0322 34EE643A 	 fsubs s6,s8,s9
 1170              	.LVL223:
 964:../Dave/Generated/CMSIS_DSP/TransformFunctions/arm_cfft_radix4_f32.c ****       /* xc' = (xa-xb+xc-xd) * onebyfftLen */
 1171              	 .loc 1 964 0 discriminator 1
 1172 0326 75EE864A 	 fadds s9,s11,s12
 1173              	.LVL224:
 968:../Dave/Generated/CMSIS_DSP/TransformFunctions/arm_cfft_radix4_f32.c ****       /* xb' = (xa-yb-xc+yd) * onebyfftLen */
 1174              	 .loc 1 968 0 discriminator 1
 1175 032a 35EEC66A 	 fsubs s12,s11,s12
 1176              	.LVL225:
 977:../Dave/Generated/CMSIS_DSP/TransformFunctions/arm_cfft_radix4_f32.c **** 
 978:../Dave/Generated/CMSIS_DSP/TransformFunctions/arm_cfft_radix4_f32.c ****       p0 = a0 * onebyfftLen;
 1177              	 .loc 1 978 0 discriminator 1
 1178 032e 62EE882A 	 fmuls s5,s5,s16
 1179              	.LVL226:
 979:../Dave/Generated/CMSIS_DSP/TransformFunctions/arm_cfft_radix4_f32.c ****       p1 = a1 * onebyfftLen;
 980:../Dave/Generated/CMSIS_DSP/TransformFunctions/arm_cfft_radix4_f32.c ****       p2 = a2 * onebyfftLen;
 981:../Dave/Generated/CMSIS_DSP/TransformFunctions/arm_cfft_radix4_f32.c ****       p3 = a3 * onebyfftLen;
 1180              	 .loc 1 981 0 discriminator 1
 1181 0332 26EE087A 	 fmuls s14,s12,s16
 1182              	.LVL227:
 980:../Dave/Generated/CMSIS_DSP/TransformFunctions/arm_cfft_radix4_f32.c ****       p3 = a3 * onebyfftLen;
 1183              	 .loc 1 980 0 discriminator 1
 1184 0336 63EE885A 	 fmuls s11,s7,s16
 1185              	.LVL228:
 982:../Dave/Generated/CMSIS_DSP/TransformFunctions/arm_cfft_radix4_f32.c ****       p4 = a4 * onebyfftLen;
 1186              	 .loc 1 982 0 discriminator 1
 1187 033a 23EE084A 	 fmuls s8,s6,s16
 1188              	.LVL229:
 983:../Dave/Generated/CMSIS_DSP/TransformFunctions/arm_cfft_radix4_f32.c ****       p5 = a5 * onebyfftLen;
 984:../Dave/Generated/CMSIS_DSP/TransformFunctions/arm_cfft_radix4_f32.c ****       p6 = a6 * onebyfftLen;
 1189              	 .loc 1 984 0 discriminator 1
 1190 033e 66EE886A 	 fmuls s13,s13,s16
 1191              	.LVL230:
 979:../Dave/Generated/CMSIS_DSP/TransformFunctions/arm_cfft_radix4_f32.c ****       p2 = a2 * onebyfftLen;
 1192              	 .loc 1 979 0 discriminator 1
 1193 0342 64EE884A 	 fmuls s9,s9,s16
 1194              	.LVL231:
 983:../Dave/Generated/CMSIS_DSP/TransformFunctions/arm_cfft_radix4_f32.c ****       p5 = a5 * onebyfftLen;
 1195              	 .loc 1 983 0 discriminator 1
 1196 0346 25EE086A 	 fmuls s12,s10,s16
 1197              	.LVL232:
 985:../Dave/Generated/CMSIS_DSP/TransformFunctions/arm_cfft_radix4_f32.c ****       p7 = a7 * onebyfftLen;
 1198              	 .loc 1 985 0 discriminator 1
 1199 034a 67EE887A 	 fmuls s15,s15,s16
 1200              	.LVL233:
 986:../Dave/Generated/CMSIS_DSP/TransformFunctions/arm_cfft_radix4_f32.c **** 
 987:../Dave/Generated/CMSIS_DSP/TransformFunctions/arm_cfft_radix4_f32.c ****       /* xa' = (xa+xb+xc+xd) * onebyfftLen */
 988:../Dave/Generated/CMSIS_DSP/TransformFunctions/arm_cfft_radix4_f32.c ****       ptr1[0] = p0;
 989:../Dave/Generated/CMSIS_DSP/TransformFunctions/arm_cfft_radix4_f32.c ****       /* ya' = (ya+yb+yc+yd) * onebyfftLen */
 990:../Dave/Generated/CMSIS_DSP/TransformFunctions/arm_cfft_radix4_f32.c ****       ptr1[1] = p1;
 991:../Dave/Generated/CMSIS_DSP/TransformFunctions/arm_cfft_radix4_f32.c ****       /* xc' = (xa-xb+xc-xd) * onebyfftLen */
 992:../Dave/Generated/CMSIS_DSP/TransformFunctions/arm_cfft_radix4_f32.c ****       ptr1[2] = p2;
 993:../Dave/Generated/CMSIS_DSP/TransformFunctions/arm_cfft_radix4_f32.c ****       /* yc' = (ya-yb+yc-yd) * onebyfftLen  */
 994:../Dave/Generated/CMSIS_DSP/TransformFunctions/arm_cfft_radix4_f32.c ****       ptr1[3] = p3;
 995:../Dave/Generated/CMSIS_DSP/TransformFunctions/arm_cfft_radix4_f32.c ****       /* xb' = (xa-yb-xc+yd) * onebyfftLen */
 996:../Dave/Generated/CMSIS_DSP/TransformFunctions/arm_cfft_radix4_f32.c ****       ptr1[4] = p4;
 997:../Dave/Generated/CMSIS_DSP/TransformFunctions/arm_cfft_radix4_f32.c ****       /* yb' = (ya+xb-yc-xd) * onebyfftLen */
 998:../Dave/Generated/CMSIS_DSP/TransformFunctions/arm_cfft_radix4_f32.c ****       ptr1[5] = p5;
 999:../Dave/Generated/CMSIS_DSP/TransformFunctions/arm_cfft_radix4_f32.c ****       /* xd' = (xa-yb-xc+yd) * onebyfftLen */
1000:../Dave/Generated/CMSIS_DSP/TransformFunctions/arm_cfft_radix4_f32.c ****       ptr1[6] = p6;
1001:../Dave/Generated/CMSIS_DSP/TransformFunctions/arm_cfft_radix4_f32.c ****       /* yd' = (ya-xb-yc+xd) * onebyfftLen */
1002:../Dave/Generated/CMSIS_DSP/TransformFunctions/arm_cfft_radix4_f32.c ****       ptr1[7] = p7;
1003:../Dave/Generated/CMSIS_DSP/TransformFunctions/arm_cfft_radix4_f32.c **** 
1004:../Dave/Generated/CMSIS_DSP/TransformFunctions/arm_cfft_radix4_f32.c ****       /* increment source pointer by 8 for next calculations */
1005:../Dave/Generated/CMSIS_DSP/TransformFunctions/arm_cfft_radix4_f32.c ****       ptr1 = ptr1 + 8u;
1006:../Dave/Generated/CMSIS_DSP/TransformFunctions/arm_cfft_radix4_f32.c **** 
1007:../Dave/Generated/CMSIS_DSP/TransformFunctions/arm_cfft_radix4_f32.c ****    } while (--j);
 1201              	 .loc 1 1007 0 discriminator 1
 1202 034e 013A     	 subs r2,r2,#1
 1203              	.LVL234:
 988:../Dave/Generated/CMSIS_DSP/TransformFunctions/arm_cfft_radix4_f32.c ****       /* ya' = (ya+yb+yc+yd) * onebyfftLen */
 1204              	 .loc 1 988 0 discriminator 1
 1205 0350 43ED082A 	 fsts s5,[r3,#-32]
 1206              	.LVL235:
 992:../Dave/Generated/CMSIS_DSP/TransformFunctions/arm_cfft_radix4_f32.c ****       /* yc' = (ya-yb+yc-yd) * onebyfftLen  */
 1207              	 .loc 1 992 0 discriminator 1
 1208 0354 43ED065A 	 fsts s11,[r3,#-24]
 1209              	.LVL236:
 996:../Dave/Generated/CMSIS_DSP/TransformFunctions/arm_cfft_radix4_f32.c ****       /* yb' = (ya+xb-yc-xd) * onebyfftLen */
 1210              	 .loc 1 996 0 discriminator 1
 1211 0358 03ED044A 	 fsts s8,[r3,#-16]
 1212              	.LVL237:
1000:../Dave/Generated/CMSIS_DSP/TransformFunctions/arm_cfft_radix4_f32.c ****       /* yd' = (ya-xb-yc+xd) * onebyfftLen */
 1213              	 .loc 1 1000 0 discriminator 1
 1214 035c 43ED026A 	 fsts s13,[r3,#-8]
 1215              	.LVL238:
 990:../Dave/Generated/CMSIS_DSP/TransformFunctions/arm_cfft_radix4_f32.c ****       /* xc' = (xa-xb+xc-xd) * onebyfftLen */
 1216              	 .loc 1 990 0 discriminator 1
 1217 0360 43ED074A 	 fsts s9,[r3,#-28]
 1218              	.LVL239:
 994:../Dave/Generated/CMSIS_DSP/TransformFunctions/arm_cfft_radix4_f32.c ****       /* xb' = (xa-yb-xc+yd) * onebyfftLen */
 1219              	 .loc 1 994 0 discriminator 1
 1220 0364 03ED057A 	 fsts s14,[r3,#-20]
 1221              	.LVL240:
 998:../Dave/Generated/CMSIS_DSP/TransformFunctions/arm_cfft_radix4_f32.c ****       /* xd' = (xa-yb-xc+yd) * onebyfftLen */
 1222              	 .loc 1 998 0 discriminator 1
 1223 0368 03ED036A 	 fsts s12,[r3,#-12]
 1224              	.LVL241:
1002:../Dave/Generated/CMSIS_DSP/TransformFunctions/arm_cfft_radix4_f32.c **** 
 1225              	 .loc 1 1002 0 discriminator 1
 1226 036c 43ED017A 	 fsts s15,[r3,#-4]
 1227              	.LVL242:
 1228 0370 03F12003 	 add r3,r3,#32
 1229              	.LVL243:
 1230              	 .loc 1 1007 0 discriminator 1
 1231 0374 ABD1     	 bne .L19
1008:../Dave/Generated/CMSIS_DSP/TransformFunctions/arm_cfft_radix4_f32.c **** 
1009:../Dave/Generated/CMSIS_DSP/TransformFunctions/arm_cfft_radix4_f32.c **** #else
1010:../Dave/Generated/CMSIS_DSP/TransformFunctions/arm_cfft_radix4_f32.c **** 
1011:../Dave/Generated/CMSIS_DSP/TransformFunctions/arm_cfft_radix4_f32.c ****    float32_t t1, t2, r1, r2, s1, s2;
1012:../Dave/Generated/CMSIS_DSP/TransformFunctions/arm_cfft_radix4_f32.c **** 
1013:../Dave/Generated/CMSIS_DSP/TransformFunctions/arm_cfft_radix4_f32.c ****    /* Run the below code for Cortex-M0 */
1014:../Dave/Generated/CMSIS_DSP/TransformFunctions/arm_cfft_radix4_f32.c **** 
1015:../Dave/Generated/CMSIS_DSP/TransformFunctions/arm_cfft_radix4_f32.c ****    /*  Initializations for the first stage */
1016:../Dave/Generated/CMSIS_DSP/TransformFunctions/arm_cfft_radix4_f32.c ****    n2 = fftLen;
1017:../Dave/Generated/CMSIS_DSP/TransformFunctions/arm_cfft_radix4_f32.c ****    n1 = n2;
1018:../Dave/Generated/CMSIS_DSP/TransformFunctions/arm_cfft_radix4_f32.c **** 
1019:../Dave/Generated/CMSIS_DSP/TransformFunctions/arm_cfft_radix4_f32.c ****    /*  Calculation of first stage */
1020:../Dave/Generated/CMSIS_DSP/TransformFunctions/arm_cfft_radix4_f32.c ****    for (k = fftLen; k > 4u; k >>= 2u)
1021:../Dave/Generated/CMSIS_DSP/TransformFunctions/arm_cfft_radix4_f32.c ****    {
1022:../Dave/Generated/CMSIS_DSP/TransformFunctions/arm_cfft_radix4_f32.c ****       /*  Initializations for the first stage */
1023:../Dave/Generated/CMSIS_DSP/TransformFunctions/arm_cfft_radix4_f32.c ****       n1 = n2;
1024:../Dave/Generated/CMSIS_DSP/TransformFunctions/arm_cfft_radix4_f32.c ****       n2 >>= 2u;
1025:../Dave/Generated/CMSIS_DSP/TransformFunctions/arm_cfft_radix4_f32.c ****       ia1 = 0u;
1026:../Dave/Generated/CMSIS_DSP/TransformFunctions/arm_cfft_radix4_f32.c **** 
1027:../Dave/Generated/CMSIS_DSP/TransformFunctions/arm_cfft_radix4_f32.c ****       /*  Calculation of first stage */
1028:../Dave/Generated/CMSIS_DSP/TransformFunctions/arm_cfft_radix4_f32.c ****       j = 0;
1029:../Dave/Generated/CMSIS_DSP/TransformFunctions/arm_cfft_radix4_f32.c ****       do
1030:../Dave/Generated/CMSIS_DSP/TransformFunctions/arm_cfft_radix4_f32.c ****       {
1031:../Dave/Generated/CMSIS_DSP/TransformFunctions/arm_cfft_radix4_f32.c ****          /*  index calculation for the coefficients */
1032:../Dave/Generated/CMSIS_DSP/TransformFunctions/arm_cfft_radix4_f32.c ****          ia2 = ia1 + ia1;
1033:../Dave/Generated/CMSIS_DSP/TransformFunctions/arm_cfft_radix4_f32.c ****          ia3 = ia2 + ia1;
1034:../Dave/Generated/CMSIS_DSP/TransformFunctions/arm_cfft_radix4_f32.c ****          co1 = pCoef[ia1 * 2u];
1035:../Dave/Generated/CMSIS_DSP/TransformFunctions/arm_cfft_radix4_f32.c ****          si1 = pCoef[(ia1 * 2u) + 1u];
1036:../Dave/Generated/CMSIS_DSP/TransformFunctions/arm_cfft_radix4_f32.c ****          co2 = pCoef[ia2 * 2u];
1037:../Dave/Generated/CMSIS_DSP/TransformFunctions/arm_cfft_radix4_f32.c ****          si2 = pCoef[(ia2 * 2u) + 1u];
1038:../Dave/Generated/CMSIS_DSP/TransformFunctions/arm_cfft_radix4_f32.c ****          co3 = pCoef[ia3 * 2u];
1039:../Dave/Generated/CMSIS_DSP/TransformFunctions/arm_cfft_radix4_f32.c ****          si3 = pCoef[(ia3 * 2u) + 1u];
1040:../Dave/Generated/CMSIS_DSP/TransformFunctions/arm_cfft_radix4_f32.c **** 
1041:../Dave/Generated/CMSIS_DSP/TransformFunctions/arm_cfft_radix4_f32.c ****          /*  Twiddle coefficients index modifier */
1042:../Dave/Generated/CMSIS_DSP/TransformFunctions/arm_cfft_radix4_f32.c ****          ia1 = ia1 + twidCoefModifier;
1043:../Dave/Generated/CMSIS_DSP/TransformFunctions/arm_cfft_radix4_f32.c **** 
1044:../Dave/Generated/CMSIS_DSP/TransformFunctions/arm_cfft_radix4_f32.c ****          i0 = j;
1045:../Dave/Generated/CMSIS_DSP/TransformFunctions/arm_cfft_radix4_f32.c ****          do
1046:../Dave/Generated/CMSIS_DSP/TransformFunctions/arm_cfft_radix4_f32.c ****          {
1047:../Dave/Generated/CMSIS_DSP/TransformFunctions/arm_cfft_radix4_f32.c ****             /*  index calculation for the input as, */
1048:../Dave/Generated/CMSIS_DSP/TransformFunctions/arm_cfft_radix4_f32.c ****             /*  pSrc[i0 + 0], pSrc[i0 + fftLen/4], pSrc[i0 + fftLen/2], pSrc[i0 + 3fftLen/4] */
1049:../Dave/Generated/CMSIS_DSP/TransformFunctions/arm_cfft_radix4_f32.c ****             i1 = i0 + n2;
1050:../Dave/Generated/CMSIS_DSP/TransformFunctions/arm_cfft_radix4_f32.c ****             i2 = i1 + n2;
1051:../Dave/Generated/CMSIS_DSP/TransformFunctions/arm_cfft_radix4_f32.c ****             i3 = i2 + n2;
1052:../Dave/Generated/CMSIS_DSP/TransformFunctions/arm_cfft_radix4_f32.c **** 
1053:../Dave/Generated/CMSIS_DSP/TransformFunctions/arm_cfft_radix4_f32.c ****             /* xa + xc */
1054:../Dave/Generated/CMSIS_DSP/TransformFunctions/arm_cfft_radix4_f32.c ****             r1 = pSrc[(2u * i0)] + pSrc[(2u * i2)];
1055:../Dave/Generated/CMSIS_DSP/TransformFunctions/arm_cfft_radix4_f32.c **** 
1056:../Dave/Generated/CMSIS_DSP/TransformFunctions/arm_cfft_radix4_f32.c ****             /* xa - xc */
1057:../Dave/Generated/CMSIS_DSP/TransformFunctions/arm_cfft_radix4_f32.c ****             r2 = pSrc[(2u * i0)] - pSrc[(2u * i2)];
1058:../Dave/Generated/CMSIS_DSP/TransformFunctions/arm_cfft_radix4_f32.c **** 
1059:../Dave/Generated/CMSIS_DSP/TransformFunctions/arm_cfft_radix4_f32.c ****             /* ya + yc */
1060:../Dave/Generated/CMSIS_DSP/TransformFunctions/arm_cfft_radix4_f32.c ****             s1 = pSrc[(2u * i0) + 1u] + pSrc[(2u * i2) + 1u];
1061:../Dave/Generated/CMSIS_DSP/TransformFunctions/arm_cfft_radix4_f32.c **** 
1062:../Dave/Generated/CMSIS_DSP/TransformFunctions/arm_cfft_radix4_f32.c ****             /* ya - yc */
1063:../Dave/Generated/CMSIS_DSP/TransformFunctions/arm_cfft_radix4_f32.c ****             s2 = pSrc[(2u * i0) + 1u] - pSrc[(2u * i2) + 1u];
1064:../Dave/Generated/CMSIS_DSP/TransformFunctions/arm_cfft_radix4_f32.c **** 
1065:../Dave/Generated/CMSIS_DSP/TransformFunctions/arm_cfft_radix4_f32.c ****             /* xb + xd */
1066:../Dave/Generated/CMSIS_DSP/TransformFunctions/arm_cfft_radix4_f32.c ****             t1 = pSrc[2u * i1] + pSrc[2u * i3];
1067:../Dave/Generated/CMSIS_DSP/TransformFunctions/arm_cfft_radix4_f32.c **** 
1068:../Dave/Generated/CMSIS_DSP/TransformFunctions/arm_cfft_radix4_f32.c ****             /* xa' = xa + xb + xc + xd */
1069:../Dave/Generated/CMSIS_DSP/TransformFunctions/arm_cfft_radix4_f32.c ****             pSrc[2u * i0] = r1 + t1;
1070:../Dave/Generated/CMSIS_DSP/TransformFunctions/arm_cfft_radix4_f32.c **** 
1071:../Dave/Generated/CMSIS_DSP/TransformFunctions/arm_cfft_radix4_f32.c ****             /* xa + xc -(xb + xd) */
1072:../Dave/Generated/CMSIS_DSP/TransformFunctions/arm_cfft_radix4_f32.c ****             r1 = r1 - t1;
1073:../Dave/Generated/CMSIS_DSP/TransformFunctions/arm_cfft_radix4_f32.c **** 
1074:../Dave/Generated/CMSIS_DSP/TransformFunctions/arm_cfft_radix4_f32.c ****             /* yb + yd */
1075:../Dave/Generated/CMSIS_DSP/TransformFunctions/arm_cfft_radix4_f32.c ****             t2 = pSrc[(2u * i1) + 1u] + pSrc[(2u * i3) + 1u];
1076:../Dave/Generated/CMSIS_DSP/TransformFunctions/arm_cfft_radix4_f32.c **** 
1077:../Dave/Generated/CMSIS_DSP/TransformFunctions/arm_cfft_radix4_f32.c ****             /* ya' = ya + yb + yc + yd */
1078:../Dave/Generated/CMSIS_DSP/TransformFunctions/arm_cfft_radix4_f32.c ****             pSrc[(2u * i0) + 1u] = s1 + t2;
1079:../Dave/Generated/CMSIS_DSP/TransformFunctions/arm_cfft_radix4_f32.c **** 
1080:../Dave/Generated/CMSIS_DSP/TransformFunctions/arm_cfft_radix4_f32.c ****             /* (ya + yc) - (yb + yd) */
1081:../Dave/Generated/CMSIS_DSP/TransformFunctions/arm_cfft_radix4_f32.c ****             s1 = s1 - t2;
1082:../Dave/Generated/CMSIS_DSP/TransformFunctions/arm_cfft_radix4_f32.c **** 
1083:../Dave/Generated/CMSIS_DSP/TransformFunctions/arm_cfft_radix4_f32.c ****             /* (yb - yd) */
1084:../Dave/Generated/CMSIS_DSP/TransformFunctions/arm_cfft_radix4_f32.c ****             t1 = pSrc[(2u * i1) + 1u] - pSrc[(2u * i3) + 1u];
1085:../Dave/Generated/CMSIS_DSP/TransformFunctions/arm_cfft_radix4_f32.c **** 
1086:../Dave/Generated/CMSIS_DSP/TransformFunctions/arm_cfft_radix4_f32.c ****             /* (xb - xd) */
1087:../Dave/Generated/CMSIS_DSP/TransformFunctions/arm_cfft_radix4_f32.c ****             t2 = pSrc[2u * i1] - pSrc[2u * i3];
1088:../Dave/Generated/CMSIS_DSP/TransformFunctions/arm_cfft_radix4_f32.c **** 
1089:../Dave/Generated/CMSIS_DSP/TransformFunctions/arm_cfft_radix4_f32.c ****             /* xc' = (xa-xb+xc-xd)co2 - (ya-yb+yc-yd)(si2) */
1090:../Dave/Generated/CMSIS_DSP/TransformFunctions/arm_cfft_radix4_f32.c ****             pSrc[2u * i1] = (r1 * co2) - (s1 * si2);
1091:../Dave/Generated/CMSIS_DSP/TransformFunctions/arm_cfft_radix4_f32.c **** 
1092:../Dave/Generated/CMSIS_DSP/TransformFunctions/arm_cfft_radix4_f32.c ****             /* yc' = (ya-yb+yc-yd)co2 + (xa-xb+xc-xd)(si2) */
1093:../Dave/Generated/CMSIS_DSP/TransformFunctions/arm_cfft_radix4_f32.c ****             pSrc[(2u * i1) + 1u] = (s1 * co2) + (r1 * si2);
1094:../Dave/Generated/CMSIS_DSP/TransformFunctions/arm_cfft_radix4_f32.c **** 
1095:../Dave/Generated/CMSIS_DSP/TransformFunctions/arm_cfft_radix4_f32.c ****             /* (xa - xc) - (yb - yd) */
1096:../Dave/Generated/CMSIS_DSP/TransformFunctions/arm_cfft_radix4_f32.c ****             r1 = r2 - t1;
1097:../Dave/Generated/CMSIS_DSP/TransformFunctions/arm_cfft_radix4_f32.c **** 
1098:../Dave/Generated/CMSIS_DSP/TransformFunctions/arm_cfft_radix4_f32.c ****             /* (xa - xc) + (yb - yd) */
1099:../Dave/Generated/CMSIS_DSP/TransformFunctions/arm_cfft_radix4_f32.c ****             r2 = r2 + t1;
1100:../Dave/Generated/CMSIS_DSP/TransformFunctions/arm_cfft_radix4_f32.c **** 
1101:../Dave/Generated/CMSIS_DSP/TransformFunctions/arm_cfft_radix4_f32.c ****             /* (ya - yc) +  (xb - xd) */
1102:../Dave/Generated/CMSIS_DSP/TransformFunctions/arm_cfft_radix4_f32.c ****             s1 = s2 + t2;
1103:../Dave/Generated/CMSIS_DSP/TransformFunctions/arm_cfft_radix4_f32.c **** 
1104:../Dave/Generated/CMSIS_DSP/TransformFunctions/arm_cfft_radix4_f32.c ****             /* (ya - yc) -  (xb - xd) */
1105:../Dave/Generated/CMSIS_DSP/TransformFunctions/arm_cfft_radix4_f32.c ****             s2 = s2 - t2;
1106:../Dave/Generated/CMSIS_DSP/TransformFunctions/arm_cfft_radix4_f32.c **** 
1107:../Dave/Generated/CMSIS_DSP/TransformFunctions/arm_cfft_radix4_f32.c ****             /* xb' = (xa+yb-xc-yd)co1 - (ya-xb-yc+xd)(si1) */
1108:../Dave/Generated/CMSIS_DSP/TransformFunctions/arm_cfft_radix4_f32.c ****             pSrc[2u * i2] = (r1 * co1) - (s1 * si1);
1109:../Dave/Generated/CMSIS_DSP/TransformFunctions/arm_cfft_radix4_f32.c **** 
1110:../Dave/Generated/CMSIS_DSP/TransformFunctions/arm_cfft_radix4_f32.c ****             /* yb' = (ya-xb-yc+xd)co1 + (xa+yb-xc-yd)(si1) */
1111:../Dave/Generated/CMSIS_DSP/TransformFunctions/arm_cfft_radix4_f32.c ****             pSrc[(2u * i2) + 1u] = (s1 * co1) + (r1 * si1);
1112:../Dave/Generated/CMSIS_DSP/TransformFunctions/arm_cfft_radix4_f32.c **** 
1113:../Dave/Generated/CMSIS_DSP/TransformFunctions/arm_cfft_radix4_f32.c ****             /* xd' = (xa-yb-xc+yd)co3 - (ya+xb-yc-xd)(si3) */
1114:../Dave/Generated/CMSIS_DSP/TransformFunctions/arm_cfft_radix4_f32.c ****             pSrc[2u * i3] = (r2 * co3) - (s2 * si3);
1115:../Dave/Generated/CMSIS_DSP/TransformFunctions/arm_cfft_radix4_f32.c **** 
1116:../Dave/Generated/CMSIS_DSP/TransformFunctions/arm_cfft_radix4_f32.c ****             /* yd' = (ya+xb-yc-xd)co3 + (xa-yb-xc+yd)(si3) */
1117:../Dave/Generated/CMSIS_DSP/TransformFunctions/arm_cfft_radix4_f32.c ****             pSrc[(2u * i3) + 1u] = (s2 * co3) + (r2 * si3);
1118:../Dave/Generated/CMSIS_DSP/TransformFunctions/arm_cfft_radix4_f32.c **** 
1119:../Dave/Generated/CMSIS_DSP/TransformFunctions/arm_cfft_radix4_f32.c ****             i0 += n1;
1120:../Dave/Generated/CMSIS_DSP/TransformFunctions/arm_cfft_radix4_f32.c ****          } while ( i0 < fftLen);
1121:../Dave/Generated/CMSIS_DSP/TransformFunctions/arm_cfft_radix4_f32.c ****          j++;
1122:../Dave/Generated/CMSIS_DSP/TransformFunctions/arm_cfft_radix4_f32.c ****       } while (j <= (n2 - 1u));
1123:../Dave/Generated/CMSIS_DSP/TransformFunctions/arm_cfft_radix4_f32.c ****       twidCoefModifier <<= 2u;
1124:../Dave/Generated/CMSIS_DSP/TransformFunctions/arm_cfft_radix4_f32.c ****    }
1125:../Dave/Generated/CMSIS_DSP/TransformFunctions/arm_cfft_radix4_f32.c ****    /*  Initializations of last stage */
1126:../Dave/Generated/CMSIS_DSP/TransformFunctions/arm_cfft_radix4_f32.c ****    n1 = n2;
1127:../Dave/Generated/CMSIS_DSP/TransformFunctions/arm_cfft_radix4_f32.c ****    n2 >>= 2u;
1128:../Dave/Generated/CMSIS_DSP/TransformFunctions/arm_cfft_radix4_f32.c **** 
1129:../Dave/Generated/CMSIS_DSP/TransformFunctions/arm_cfft_radix4_f32.c ****    /*  Calculations of last stage */
1130:../Dave/Generated/CMSIS_DSP/TransformFunctions/arm_cfft_radix4_f32.c ****    for (i0 = 0u; i0 <= (fftLen - n1); i0 += n1)
1131:../Dave/Generated/CMSIS_DSP/TransformFunctions/arm_cfft_radix4_f32.c ****    {
1132:../Dave/Generated/CMSIS_DSP/TransformFunctions/arm_cfft_radix4_f32.c ****       /*  index calculation for the input as, */
1133:../Dave/Generated/CMSIS_DSP/TransformFunctions/arm_cfft_radix4_f32.c ****       /*  pSrc[i0 + 0], pSrc[i0 + fftLen/4], pSrc[i0 + fftLen/2], pSrc[i0 + 3fftLen/4] */
1134:../Dave/Generated/CMSIS_DSP/TransformFunctions/arm_cfft_radix4_f32.c ****       i1 = i0 + n2;
1135:../Dave/Generated/CMSIS_DSP/TransformFunctions/arm_cfft_radix4_f32.c ****       i2 = i1 + n2;
1136:../Dave/Generated/CMSIS_DSP/TransformFunctions/arm_cfft_radix4_f32.c ****       i3 = i2 + n2;
1137:../Dave/Generated/CMSIS_DSP/TransformFunctions/arm_cfft_radix4_f32.c **** 
1138:../Dave/Generated/CMSIS_DSP/TransformFunctions/arm_cfft_radix4_f32.c ****       /*  Butterfly implementation */
1139:../Dave/Generated/CMSIS_DSP/TransformFunctions/arm_cfft_radix4_f32.c ****       /* xa + xc */
1140:../Dave/Generated/CMSIS_DSP/TransformFunctions/arm_cfft_radix4_f32.c ****       r1 = pSrc[2u * i0] + pSrc[2u * i2];
1141:../Dave/Generated/CMSIS_DSP/TransformFunctions/arm_cfft_radix4_f32.c **** 
1142:../Dave/Generated/CMSIS_DSP/TransformFunctions/arm_cfft_radix4_f32.c ****       /* xa - xc */
1143:../Dave/Generated/CMSIS_DSP/TransformFunctions/arm_cfft_radix4_f32.c ****       r2 = pSrc[2u * i0] - pSrc[2u * i2];
1144:../Dave/Generated/CMSIS_DSP/TransformFunctions/arm_cfft_radix4_f32.c **** 
1145:../Dave/Generated/CMSIS_DSP/TransformFunctions/arm_cfft_radix4_f32.c ****       /* ya + yc */
1146:../Dave/Generated/CMSIS_DSP/TransformFunctions/arm_cfft_radix4_f32.c ****       s1 = pSrc[(2u * i0) + 1u] + pSrc[(2u * i2) + 1u];
1147:../Dave/Generated/CMSIS_DSP/TransformFunctions/arm_cfft_radix4_f32.c **** 
1148:../Dave/Generated/CMSIS_DSP/TransformFunctions/arm_cfft_radix4_f32.c ****       /* ya - yc */
1149:../Dave/Generated/CMSIS_DSP/TransformFunctions/arm_cfft_radix4_f32.c ****       s2 = pSrc[(2u * i0) + 1u] - pSrc[(2u * i2) + 1u];
1150:../Dave/Generated/CMSIS_DSP/TransformFunctions/arm_cfft_radix4_f32.c **** 
1151:../Dave/Generated/CMSIS_DSP/TransformFunctions/arm_cfft_radix4_f32.c ****       /* xc + xd */
1152:../Dave/Generated/CMSIS_DSP/TransformFunctions/arm_cfft_radix4_f32.c ****       t1 = pSrc[2u * i1] + pSrc[2u * i3];
1153:../Dave/Generated/CMSIS_DSP/TransformFunctions/arm_cfft_radix4_f32.c **** 
1154:../Dave/Generated/CMSIS_DSP/TransformFunctions/arm_cfft_radix4_f32.c ****       /* xa' = xa + xb + xc + xd */
1155:../Dave/Generated/CMSIS_DSP/TransformFunctions/arm_cfft_radix4_f32.c ****       pSrc[2u * i0] = (r1 + t1) * onebyfftLen;
1156:../Dave/Generated/CMSIS_DSP/TransformFunctions/arm_cfft_radix4_f32.c **** 
1157:../Dave/Generated/CMSIS_DSP/TransformFunctions/arm_cfft_radix4_f32.c ****       /* (xa + xb) - (xc + xd) */
1158:../Dave/Generated/CMSIS_DSP/TransformFunctions/arm_cfft_radix4_f32.c ****       r1 = r1 - t1;
1159:../Dave/Generated/CMSIS_DSP/TransformFunctions/arm_cfft_radix4_f32.c **** 
1160:../Dave/Generated/CMSIS_DSP/TransformFunctions/arm_cfft_radix4_f32.c ****       /* yb + yd */
1161:../Dave/Generated/CMSIS_DSP/TransformFunctions/arm_cfft_radix4_f32.c ****       t2 = pSrc[(2u * i1) + 1u] + pSrc[(2u * i3) + 1u];
1162:../Dave/Generated/CMSIS_DSP/TransformFunctions/arm_cfft_radix4_f32.c **** 
1163:../Dave/Generated/CMSIS_DSP/TransformFunctions/arm_cfft_radix4_f32.c ****       /* ya' = ya + yb + yc + yd */
1164:../Dave/Generated/CMSIS_DSP/TransformFunctions/arm_cfft_radix4_f32.c ****       pSrc[(2u * i0) + 1u] = (s1 + t2) * onebyfftLen;
1165:../Dave/Generated/CMSIS_DSP/TransformFunctions/arm_cfft_radix4_f32.c **** 
1166:../Dave/Generated/CMSIS_DSP/TransformFunctions/arm_cfft_radix4_f32.c ****       /* (ya + yc) - (yb + yd) */
1167:../Dave/Generated/CMSIS_DSP/TransformFunctions/arm_cfft_radix4_f32.c ****       s1 = s1 - t2;
1168:../Dave/Generated/CMSIS_DSP/TransformFunctions/arm_cfft_radix4_f32.c **** 
1169:../Dave/Generated/CMSIS_DSP/TransformFunctions/arm_cfft_radix4_f32.c ****       /* (yb-yd) */
1170:../Dave/Generated/CMSIS_DSP/TransformFunctions/arm_cfft_radix4_f32.c ****       t1 = pSrc[(2u * i1) + 1u] - pSrc[(2u * i3) + 1u];
1171:../Dave/Generated/CMSIS_DSP/TransformFunctions/arm_cfft_radix4_f32.c **** 
1172:../Dave/Generated/CMSIS_DSP/TransformFunctions/arm_cfft_radix4_f32.c ****       /* (xb-xd) */
1173:../Dave/Generated/CMSIS_DSP/TransformFunctions/arm_cfft_radix4_f32.c ****       t2 = pSrc[2u * i1] - pSrc[2u * i3];
1174:../Dave/Generated/CMSIS_DSP/TransformFunctions/arm_cfft_radix4_f32.c **** 
1175:../Dave/Generated/CMSIS_DSP/TransformFunctions/arm_cfft_radix4_f32.c ****       /* xc' = (xa-xb+xc-xd)co2 - (ya-yb+yc-yd)(si2) */
1176:../Dave/Generated/CMSIS_DSP/TransformFunctions/arm_cfft_radix4_f32.c ****       pSrc[2u * i1] = r1 * onebyfftLen;
1177:../Dave/Generated/CMSIS_DSP/TransformFunctions/arm_cfft_radix4_f32.c **** 
1178:../Dave/Generated/CMSIS_DSP/TransformFunctions/arm_cfft_radix4_f32.c ****       /* yc' = (ya-yb+yc-yd)co2 + (xa-xb+xc-xd)(si2) */
1179:../Dave/Generated/CMSIS_DSP/TransformFunctions/arm_cfft_radix4_f32.c ****       pSrc[(2u * i1) + 1u] = s1 * onebyfftLen;
1180:../Dave/Generated/CMSIS_DSP/TransformFunctions/arm_cfft_radix4_f32.c **** 
1181:../Dave/Generated/CMSIS_DSP/TransformFunctions/arm_cfft_radix4_f32.c ****       /* (xa - xc) - (yb-yd) */
1182:../Dave/Generated/CMSIS_DSP/TransformFunctions/arm_cfft_radix4_f32.c ****       r1 = r2 - t1;
1183:../Dave/Generated/CMSIS_DSP/TransformFunctions/arm_cfft_radix4_f32.c **** 
1184:../Dave/Generated/CMSIS_DSP/TransformFunctions/arm_cfft_radix4_f32.c ****       /* (xa - xc) + (yb-yd) */
1185:../Dave/Generated/CMSIS_DSP/TransformFunctions/arm_cfft_radix4_f32.c ****       r2 = r2 + t1;
1186:../Dave/Generated/CMSIS_DSP/TransformFunctions/arm_cfft_radix4_f32.c **** 
1187:../Dave/Generated/CMSIS_DSP/TransformFunctions/arm_cfft_radix4_f32.c ****       /* (ya - yc) + (xb-xd) */
1188:../Dave/Generated/CMSIS_DSP/TransformFunctions/arm_cfft_radix4_f32.c ****       s1 = s2 + t2;
1189:../Dave/Generated/CMSIS_DSP/TransformFunctions/arm_cfft_radix4_f32.c **** 
1190:../Dave/Generated/CMSIS_DSP/TransformFunctions/arm_cfft_radix4_f32.c ****       /* (ya - yc) - (xb-xd) */
1191:../Dave/Generated/CMSIS_DSP/TransformFunctions/arm_cfft_radix4_f32.c ****       s2 = s2 - t2;
1192:../Dave/Generated/CMSIS_DSP/TransformFunctions/arm_cfft_radix4_f32.c **** 
1193:../Dave/Generated/CMSIS_DSP/TransformFunctions/arm_cfft_radix4_f32.c ****       /* xb' = (xa+yb-xc-yd)co1 - (ya-xb-yc+xd)(si1) */
1194:../Dave/Generated/CMSIS_DSP/TransformFunctions/arm_cfft_radix4_f32.c ****       pSrc[2u * i2] = r1 * onebyfftLen;
1195:../Dave/Generated/CMSIS_DSP/TransformFunctions/arm_cfft_radix4_f32.c **** 
1196:../Dave/Generated/CMSIS_DSP/TransformFunctions/arm_cfft_radix4_f32.c ****       /* yb' = (ya-xb-yc+xd)co1 + (xa+yb-xc-yd)(si1) */
1197:../Dave/Generated/CMSIS_DSP/TransformFunctions/arm_cfft_radix4_f32.c ****       pSrc[(2u * i2) + 1u] = s1 * onebyfftLen;
1198:../Dave/Generated/CMSIS_DSP/TransformFunctions/arm_cfft_radix4_f32.c **** 
1199:../Dave/Generated/CMSIS_DSP/TransformFunctions/arm_cfft_radix4_f32.c ****       /* xd' = (xa-yb-xc+yd)co3 - (ya+xb-yc-xd)(si3) */
1200:../Dave/Generated/CMSIS_DSP/TransformFunctions/arm_cfft_radix4_f32.c ****       pSrc[2u * i3] = r2 * onebyfftLen;
1201:../Dave/Generated/CMSIS_DSP/TransformFunctions/arm_cfft_radix4_f32.c **** 
1202:../Dave/Generated/CMSIS_DSP/TransformFunctions/arm_cfft_radix4_f32.c ****       /* yd' = (ya+xb-yc-xd)co3 + (xa-yb-xc+yd)(si3) */
1203:../Dave/Generated/CMSIS_DSP/TransformFunctions/arm_cfft_radix4_f32.c ****       pSrc[(2u * i3) + 1u] = s2 * onebyfftLen;
1204:../Dave/Generated/CMSIS_DSP/TransformFunctions/arm_cfft_radix4_f32.c ****    }
1205:../Dave/Generated/CMSIS_DSP/TransformFunctions/arm_cfft_radix4_f32.c **** 
1206:../Dave/Generated/CMSIS_DSP/TransformFunctions/arm_cfft_radix4_f32.c **** #endif /* #if defined (ARM_MATH_DSP) */
1207:../Dave/Generated/CMSIS_DSP/TransformFunctions/arm_cfft_radix4_f32.c **** }
 1232              	 .loc 1 1207 0
 1233 0376 0DB0     	 add sp,sp,#52
 1234              	.LCFI8:
 1235              	 .cfi_def_cfa_offset 68
 1236              	 
 1237 0378 BDEC088B 	 fldmfdd sp!,{d8-d11}
 1238              	.LCFI9:
 1239              	 .cfi_restore 86
 1240              	 .cfi_restore 87
 1241              	 .cfi_restore 84
 1242              	 .cfi_restore 85
 1243              	 .cfi_restore 82
 1244              	 .cfi_restore 83
 1245              	 .cfi_restore 80
 1246              	 .cfi_restore 81
 1247              	 .cfi_def_cfa_offset 36
 1248 037c BDE8F08F 	 pop {r4,r5,r6,r7,r8,r9,r10,fp,pc}
 1249              	 .cfi_endproc
 1250              	.LFE137:
 1252              	 .section .text.arm_cfft_radix4_f32,"ax",%progbits
 1253              	 .align 2
 1254              	 .global arm_cfft_radix4_f32
 1255              	 .thumb
 1256              	 .thumb_func
 1258              	arm_cfft_radix4_f32:
 1259              	.LFB135:
  73:../Dave/Generated/CMSIS_DSP/TransformFunctions/arm_cfft_radix4_f32.c ****    if (S->ifftFlag == 1u)
 1260              	 .loc 1 73 0
 1261              	 .cfi_startproc
 1262              	 
 1263              	 
 1264              	.LVL244:
 1265 0000 30B5     	 push {r4,r5,lr}
 1266              	.LCFI10:
 1267              	 .cfi_def_cfa_offset 12
 1268              	 .cfi_offset 4,-12
 1269              	 .cfi_offset 5,-8
 1270              	 .cfi_offset 14,-4
  74:../Dave/Generated/CMSIS_DSP/TransformFunctions/arm_cfft_radix4_f32.c ****    {
 1271              	 .loc 1 74 0
 1272 0002 8378     	 ldrb r3,[r0,#2]
 1273 0004 012B     	 cmp r3,#1
  73:../Dave/Generated/CMSIS_DSP/TransformFunctions/arm_cfft_radix4_f32.c ****    if (S->ifftFlag == 1u)
 1274              	 .loc 1 73 0
 1275 0006 83B0     	 sub sp,sp,#12
 1276              	.LCFI11:
 1277              	 .cfi_def_cfa_offset 24
  73:../Dave/Generated/CMSIS_DSP/TransformFunctions/arm_cfft_radix4_f32.c ****    if (S->ifftFlag == 1u)
 1278              	 .loc 1 73 0
 1279 0008 0446     	 mov r4,r0
 1280 000a 0D46     	 mov r5,r1
  74:../Dave/Generated/CMSIS_DSP/TransformFunctions/arm_cfft_radix4_f32.c ****    {
 1281              	 .loc 1 74 0
 1282 000c 0AD0     	 beq .L35
  82:../Dave/Generated/CMSIS_DSP/TransformFunctions/arm_cfft_radix4_f32.c ****    }
 1283              	 .loc 1 82 0
 1284 000e 0846     	 mov r0,r1
 1285              	.LVL245:
 1286 0010 A389     	 ldrh r3,[r4,#12]
 1287 0012 2188     	 ldrh r1,[r4]
 1288              	.LVL246:
 1289 0014 6268     	 ldr r2,[r4,#4]
 1290 0016 FFF7FEFF 	 bl arm_radix4_butterfly_f32
 1291              	.LVL247:
  85:../Dave/Generated/CMSIS_DSP/TransformFunctions/arm_cfft_radix4_f32.c ****    {
 1292              	 .loc 1 85 0
 1293 001a E378     	 ldrb r3,[r4,#3]
 1294 001c 012B     	 cmp r3,#1
 1295 001e 0CD0     	 beq .L36
 1296              	.L30:
  91:../Dave/Generated/CMSIS_DSP/TransformFunctions/arm_cfft_radix4_f32.c **** 
 1297              	 .loc 1 91 0
 1298 0020 03B0     	 add sp,sp,#12
 1299              	.LCFI12:
 1300              	 .cfi_remember_state
 1301              	 .cfi_def_cfa_offset 12
 1302              	 
 1303 0022 30BD     	 pop {r4,r5,pc}
 1304              	.LVL248:
 1305              	.L35:
 1306              	.LCFI13:
 1307              	 .cfi_restore_state
  77:../Dave/Generated/CMSIS_DSP/TransformFunctions/arm_cfft_radix4_f32.c ****    }
 1308              	 .loc 1 77 0
 1309 0024 8389     	 ldrh r3,[r0,#12]
 1310 0026 0188     	 ldrh r1,[r0]
 1311              	.LVL249:
 1312 0028 4268     	 ldr r2,[r0,#4]
 1313 002a 0069     	 ldr r0,[r0,#16]
 1314              	.LVL250:
 1315 002c 0090     	 str r0,[sp]
 1316 002e 2846     	 mov r0,r5
 1317 0030 FFF7FEFF 	 bl arm_radix4_butterfly_inverse_f32
 1318              	.LVL251:
  85:../Dave/Generated/CMSIS_DSP/TransformFunctions/arm_cfft_radix4_f32.c ****    {
 1319              	 .loc 1 85 0
 1320 0034 E378     	 ldrb r3,[r4,#3]
 1321 0036 012B     	 cmp r3,#1
 1322 0038 F2D1     	 bne .L30
 1323              	.L36:
  88:../Dave/Generated/CMSIS_DSP/TransformFunctions/arm_cfft_radix4_f32.c ****    }
 1324              	 .loc 1 88 0
 1325 003a 2188     	 ldrh r1,[r4]
 1326 003c E289     	 ldrh r2,[r4,#14]
 1327 003e A368     	 ldr r3,[r4,#8]
 1328 0040 2846     	 mov r0,r5
  91:../Dave/Generated/CMSIS_DSP/TransformFunctions/arm_cfft_radix4_f32.c **** 
 1329              	 .loc 1 91 0
 1330 0042 03B0     	 add sp,sp,#12
 1331              	.LCFI14:
 1332              	 .cfi_def_cfa_offset 12
 1333              	 
 1334 0044 BDE83040 	 pop {r4,r5,lr}
 1335              	.LCFI15:
 1336              	 .cfi_restore 14
 1337              	 .cfi_restore 5
 1338              	 .cfi_restore 4
 1339              	 .cfi_def_cfa_offset 0
 1340              	.LVL252:
  88:../Dave/Generated/CMSIS_DSP/TransformFunctions/arm_cfft_radix4_f32.c ****    }
 1341              	 .loc 1 88 0
 1342 0048 FFF7FEBF 	 b arm_bitreversal_f32
 1343              	.LVL253:
 1344              	 .cfi_endproc
 1345              	.LFE135:
 1347              	 .text
 1348              	.Letext0:
 1349              	 .file 2 "c:\\infineon\\tools\\dave ide\\4.5.0.202105191637\\eclipse\\arm-gcc-49\\arm-none-eabi\\include\\machine\\_default_types.h"
 1350              	 .file 3 "c:\\infineon\\tools\\dave ide\\4.5.0.202105191637\\eclipse\\arm-gcc-49\\arm-none-eabi\\include\\stdint.h"
 1351              	 .file 4 "C:/Users/Utente/Desktop/Tesi/Firmware_Software/DAVE project/S2GLP_Pulsed_Doppler/Dave/Generated/CMSIS_DSP/arm_math.h"