   1              	 .syntax unified
   2              	 .cpu cortex-m4
   3              	 .eabi_attribute 27,3
   4              	 .fpu fpv4-sp-d16
   5              	 .eabi_attribute 20,1
   6              	 .eabi_attribute 21,1
   7              	 .eabi_attribute 23,3
   8              	 .eabi_attribute 24,1
   9              	 .eabi_attribute 25,1
  10              	 .eabi_attribute 26,1
  11              	 .eabi_attribute 30,2
  12              	 .eabi_attribute 34,1
  13              	 .eabi_attribute 18,4
  14              	 .thumb
  15              	 .file "arm_rfft_q31.c"
  16              	 .text
  17              	.Ltext0:
  18              	 .cfi_sections .debug_frame
  19              	 .section .text.arm_split_rfft_q31,"ax",%progbits
  20              	 .align 2
  21              	 .global arm_split_rfft_q31
  22              	 .thumb
  23              	 .thumb_func
  25              	arm_split_rfft_q31:
  26              	.LFB136:
  27              	 .file 1 "../Dave/Generated/CMSIS_DSP/TransformFunctions/arm_rfft_q31.c"
   1:../Dave/Generated/CMSIS_DSP/TransformFunctions/arm_rfft_q31.c **** /* ----------------------------------------------------------------------
   2:../Dave/Generated/CMSIS_DSP/TransformFunctions/arm_rfft_q31.c ****  * Project:      CMSIS DSP Library
   3:../Dave/Generated/CMSIS_DSP/TransformFunctions/arm_rfft_q31.c ****  * Title:        arm_rfft_q31.c
   4:../Dave/Generated/CMSIS_DSP/TransformFunctions/arm_rfft_q31.c ****  * Description:  FFT & RIFFT Q31 process function
   5:../Dave/Generated/CMSIS_DSP/TransformFunctions/arm_rfft_q31.c ****  *
   6:../Dave/Generated/CMSIS_DSP/TransformFunctions/arm_rfft_q31.c ****  * $Date:        27. January 2017
   7:../Dave/Generated/CMSIS_DSP/TransformFunctions/arm_rfft_q31.c ****  * $Revision:    V.1.5.1
   8:../Dave/Generated/CMSIS_DSP/TransformFunctions/arm_rfft_q31.c ****  *
   9:../Dave/Generated/CMSIS_DSP/TransformFunctions/arm_rfft_q31.c ****  * Target Processor: Cortex-M cores
  10:../Dave/Generated/CMSIS_DSP/TransformFunctions/arm_rfft_q31.c ****  * -------------------------------------------------------------------- */
  11:../Dave/Generated/CMSIS_DSP/TransformFunctions/arm_rfft_q31.c **** /*
  12:../Dave/Generated/CMSIS_DSP/TransformFunctions/arm_rfft_q31.c ****  * Copyright (C) 2010-2017 ARM Limited or its affiliates. All rights reserved.
  13:../Dave/Generated/CMSIS_DSP/TransformFunctions/arm_rfft_q31.c ****  *
  14:../Dave/Generated/CMSIS_DSP/TransformFunctions/arm_rfft_q31.c ****  * SPDX-License-Identifier: Apache-2.0
  15:../Dave/Generated/CMSIS_DSP/TransformFunctions/arm_rfft_q31.c ****  *
  16:../Dave/Generated/CMSIS_DSP/TransformFunctions/arm_rfft_q31.c ****  * Licensed under the Apache License, Version 2.0 (the License); you may
  17:../Dave/Generated/CMSIS_DSP/TransformFunctions/arm_rfft_q31.c ****  * not use this file except in compliance with the License.
  18:../Dave/Generated/CMSIS_DSP/TransformFunctions/arm_rfft_q31.c ****  * You may obtain a copy of the License at
  19:../Dave/Generated/CMSIS_DSP/TransformFunctions/arm_rfft_q31.c ****  *
  20:../Dave/Generated/CMSIS_DSP/TransformFunctions/arm_rfft_q31.c ****  * www.apache.org/licenses/LICENSE-2.0
  21:../Dave/Generated/CMSIS_DSP/TransformFunctions/arm_rfft_q31.c ****  *
  22:../Dave/Generated/CMSIS_DSP/TransformFunctions/arm_rfft_q31.c ****  * Unless required by applicable law or agreed to in writing, software
  23:../Dave/Generated/CMSIS_DSP/TransformFunctions/arm_rfft_q31.c ****  * distributed under the License is distributed on an AS IS BASIS, WITHOUT
  24:../Dave/Generated/CMSIS_DSP/TransformFunctions/arm_rfft_q31.c ****  * WARRANTIES OR CONDITIONS OF ANY KIND, either express or implied.
  25:../Dave/Generated/CMSIS_DSP/TransformFunctions/arm_rfft_q31.c ****  * See the License for the specific language governing permissions and
  26:../Dave/Generated/CMSIS_DSP/TransformFunctions/arm_rfft_q31.c ****  * limitations under the License.
  27:../Dave/Generated/CMSIS_DSP/TransformFunctions/arm_rfft_q31.c ****  */
  28:../Dave/Generated/CMSIS_DSP/TransformFunctions/arm_rfft_q31.c **** 
  29:../Dave/Generated/CMSIS_DSP/TransformFunctions/arm_rfft_q31.c **** #include "CMSIS_DSP/cmsis_dsp.h"
  30:../Dave/Generated/CMSIS_DSP/TransformFunctions/arm_rfft_q31.c **** 
  31:../Dave/Generated/CMSIS_DSP/TransformFunctions/arm_rfft_q31.c **** /* ----------------------------------------------------------------------
  32:../Dave/Generated/CMSIS_DSP/TransformFunctions/arm_rfft_q31.c ****  * Internal functions prototypes
  33:../Dave/Generated/CMSIS_DSP/TransformFunctions/arm_rfft_q31.c ****  * -------------------------------------------------------------------- */
  34:../Dave/Generated/CMSIS_DSP/TransformFunctions/arm_rfft_q31.c **** 
  35:../Dave/Generated/CMSIS_DSP/TransformFunctions/arm_rfft_q31.c **** void arm_split_rfft_q31(
  36:../Dave/Generated/CMSIS_DSP/TransformFunctions/arm_rfft_q31.c ****     q31_t * pSrc,
  37:../Dave/Generated/CMSIS_DSP/TransformFunctions/arm_rfft_q31.c ****     uint32_t fftLen,
  38:../Dave/Generated/CMSIS_DSP/TransformFunctions/arm_rfft_q31.c ****     q31_t * pATable,
  39:../Dave/Generated/CMSIS_DSP/TransformFunctions/arm_rfft_q31.c ****     q31_t * pBTable,
  40:../Dave/Generated/CMSIS_DSP/TransformFunctions/arm_rfft_q31.c ****     q31_t * pDst,
  41:../Dave/Generated/CMSIS_DSP/TransformFunctions/arm_rfft_q31.c ****     uint32_t modifier);
  42:../Dave/Generated/CMSIS_DSP/TransformFunctions/arm_rfft_q31.c **** 
  43:../Dave/Generated/CMSIS_DSP/TransformFunctions/arm_rfft_q31.c **** void arm_split_rifft_q31(
  44:../Dave/Generated/CMSIS_DSP/TransformFunctions/arm_rfft_q31.c ****     q31_t * pSrc,
  45:../Dave/Generated/CMSIS_DSP/TransformFunctions/arm_rfft_q31.c ****     uint32_t fftLen,
  46:../Dave/Generated/CMSIS_DSP/TransformFunctions/arm_rfft_q31.c ****     q31_t * pATable,
  47:../Dave/Generated/CMSIS_DSP/TransformFunctions/arm_rfft_q31.c ****     q31_t * pBTable,
  48:../Dave/Generated/CMSIS_DSP/TransformFunctions/arm_rfft_q31.c ****     q31_t * pDst,
  49:../Dave/Generated/CMSIS_DSP/TransformFunctions/arm_rfft_q31.c ****     uint32_t modifier);
  50:../Dave/Generated/CMSIS_DSP/TransformFunctions/arm_rfft_q31.c **** 
  51:../Dave/Generated/CMSIS_DSP/TransformFunctions/arm_rfft_q31.c **** /**
  52:../Dave/Generated/CMSIS_DSP/TransformFunctions/arm_rfft_q31.c **** * @addtogroup RealFFT
  53:../Dave/Generated/CMSIS_DSP/TransformFunctions/arm_rfft_q31.c **** * @{
  54:../Dave/Generated/CMSIS_DSP/TransformFunctions/arm_rfft_q31.c **** */
  55:../Dave/Generated/CMSIS_DSP/TransformFunctions/arm_rfft_q31.c **** 
  56:../Dave/Generated/CMSIS_DSP/TransformFunctions/arm_rfft_q31.c **** /**
  57:../Dave/Generated/CMSIS_DSP/TransformFunctions/arm_rfft_q31.c **** * @brief Processing function for the Q31 RFFT/RIFFT.
  58:../Dave/Generated/CMSIS_DSP/TransformFunctions/arm_rfft_q31.c **** * @param[in]  *S    points to an instance of the Q31 RFFT/RIFFT structure.
  59:../Dave/Generated/CMSIS_DSP/TransformFunctions/arm_rfft_q31.c **** * @param[in]  *pSrc points to the input buffer.
  60:../Dave/Generated/CMSIS_DSP/TransformFunctions/arm_rfft_q31.c **** * @param[out] *pDst points to the output buffer.
  61:../Dave/Generated/CMSIS_DSP/TransformFunctions/arm_rfft_q31.c **** * @return none.
  62:../Dave/Generated/CMSIS_DSP/TransformFunctions/arm_rfft_q31.c **** *
  63:../Dave/Generated/CMSIS_DSP/TransformFunctions/arm_rfft_q31.c **** * \par Input an output formats:
  64:../Dave/Generated/CMSIS_DSP/TransformFunctions/arm_rfft_q31.c **** * \par
  65:../Dave/Generated/CMSIS_DSP/TransformFunctions/arm_rfft_q31.c **** * Internally input is downscaled by 2 for every stage to avoid saturations inside CFFT/CIFFT proces
  66:../Dave/Generated/CMSIS_DSP/TransformFunctions/arm_rfft_q31.c **** * Hence the output format is different for different RFFT sizes.
  67:../Dave/Generated/CMSIS_DSP/TransformFunctions/arm_rfft_q31.c **** * The input and output formats for different RFFT sizes and number of bits to upscale are mentioned
  68:../Dave/Generated/CMSIS_DSP/TransformFunctions/arm_rfft_q31.c **** * \par
  69:../Dave/Generated/CMSIS_DSP/TransformFunctions/arm_rfft_q31.c **** * \image html RFFTQ31.gif "Input and Output Formats for Q31 RFFT"
  70:../Dave/Generated/CMSIS_DSP/TransformFunctions/arm_rfft_q31.c **** *
  71:../Dave/Generated/CMSIS_DSP/TransformFunctions/arm_rfft_q31.c **** * \par
  72:../Dave/Generated/CMSIS_DSP/TransformFunctions/arm_rfft_q31.c **** * \image html RIFFTQ31.gif "Input and Output Formats for Q31 RIFFT"
  73:../Dave/Generated/CMSIS_DSP/TransformFunctions/arm_rfft_q31.c **** */
  74:../Dave/Generated/CMSIS_DSP/TransformFunctions/arm_rfft_q31.c **** void arm_rfft_q31(
  75:../Dave/Generated/CMSIS_DSP/TransformFunctions/arm_rfft_q31.c ****     const arm_rfft_instance_q31 * S,
  76:../Dave/Generated/CMSIS_DSP/TransformFunctions/arm_rfft_q31.c ****     q31_t * pSrc,
  77:../Dave/Generated/CMSIS_DSP/TransformFunctions/arm_rfft_q31.c ****     q31_t * pDst)
  78:../Dave/Generated/CMSIS_DSP/TransformFunctions/arm_rfft_q31.c **** {
  79:../Dave/Generated/CMSIS_DSP/TransformFunctions/arm_rfft_q31.c ****     const arm_cfft_instance_q31 *S_CFFT = S->pCfft;
  80:../Dave/Generated/CMSIS_DSP/TransformFunctions/arm_rfft_q31.c ****     uint32_t i;
  81:../Dave/Generated/CMSIS_DSP/TransformFunctions/arm_rfft_q31.c ****     uint32_t L2 = S->fftLenReal >> 1;
  82:../Dave/Generated/CMSIS_DSP/TransformFunctions/arm_rfft_q31.c **** 
  83:../Dave/Generated/CMSIS_DSP/TransformFunctions/arm_rfft_q31.c ****     /* Calculation of RIFFT of input */
  84:../Dave/Generated/CMSIS_DSP/TransformFunctions/arm_rfft_q31.c ****     if (S->ifftFlagR == 1u)
  85:../Dave/Generated/CMSIS_DSP/TransformFunctions/arm_rfft_q31.c ****     {
  86:../Dave/Generated/CMSIS_DSP/TransformFunctions/arm_rfft_q31.c ****         /*  Real IFFT core process */
  87:../Dave/Generated/CMSIS_DSP/TransformFunctions/arm_rfft_q31.c ****         arm_split_rifft_q31(pSrc, L2, S->pTwiddleAReal,
  88:../Dave/Generated/CMSIS_DSP/TransformFunctions/arm_rfft_q31.c ****                             S->pTwiddleBReal, pDst, S->twidCoefRModifier);
  89:../Dave/Generated/CMSIS_DSP/TransformFunctions/arm_rfft_q31.c **** 
  90:../Dave/Generated/CMSIS_DSP/TransformFunctions/arm_rfft_q31.c ****         /* Complex IFFT process */
  91:../Dave/Generated/CMSIS_DSP/TransformFunctions/arm_rfft_q31.c ****         arm_cfft_q31(S_CFFT, pDst, S->ifftFlagR, S->bitReverseFlagR);
  92:../Dave/Generated/CMSIS_DSP/TransformFunctions/arm_rfft_q31.c **** 
  93:../Dave/Generated/CMSIS_DSP/TransformFunctions/arm_rfft_q31.c ****         for(i=0;i<S->fftLenReal;i++)
  94:../Dave/Generated/CMSIS_DSP/TransformFunctions/arm_rfft_q31.c ****         {
  95:../Dave/Generated/CMSIS_DSP/TransformFunctions/arm_rfft_q31.c ****             pDst[i] = pDst[i] << 1;
  96:../Dave/Generated/CMSIS_DSP/TransformFunctions/arm_rfft_q31.c ****         }
  97:../Dave/Generated/CMSIS_DSP/TransformFunctions/arm_rfft_q31.c ****     }
  98:../Dave/Generated/CMSIS_DSP/TransformFunctions/arm_rfft_q31.c ****     else
  99:../Dave/Generated/CMSIS_DSP/TransformFunctions/arm_rfft_q31.c ****     {
 100:../Dave/Generated/CMSIS_DSP/TransformFunctions/arm_rfft_q31.c ****         /* Calculation of RFFT of input */
 101:../Dave/Generated/CMSIS_DSP/TransformFunctions/arm_rfft_q31.c **** 
 102:../Dave/Generated/CMSIS_DSP/TransformFunctions/arm_rfft_q31.c ****         /* Complex FFT process */
 103:../Dave/Generated/CMSIS_DSP/TransformFunctions/arm_rfft_q31.c ****         arm_cfft_q31(S_CFFT, pSrc, S->ifftFlagR, S->bitReverseFlagR);
 104:../Dave/Generated/CMSIS_DSP/TransformFunctions/arm_rfft_q31.c **** 
 105:../Dave/Generated/CMSIS_DSP/TransformFunctions/arm_rfft_q31.c ****         /*  Real FFT core process */
 106:../Dave/Generated/CMSIS_DSP/TransformFunctions/arm_rfft_q31.c ****         arm_split_rfft_q31(pSrc, L2, S->pTwiddleAReal,
 107:../Dave/Generated/CMSIS_DSP/TransformFunctions/arm_rfft_q31.c ****                             S->pTwiddleBReal, pDst, S->twidCoefRModifier);
 108:../Dave/Generated/CMSIS_DSP/TransformFunctions/arm_rfft_q31.c ****     }
 109:../Dave/Generated/CMSIS_DSP/TransformFunctions/arm_rfft_q31.c **** }
 110:../Dave/Generated/CMSIS_DSP/TransformFunctions/arm_rfft_q31.c **** 
 111:../Dave/Generated/CMSIS_DSP/TransformFunctions/arm_rfft_q31.c **** /**
 112:../Dave/Generated/CMSIS_DSP/TransformFunctions/arm_rfft_q31.c **** * @} end of RealFFT group
 113:../Dave/Generated/CMSIS_DSP/TransformFunctions/arm_rfft_q31.c **** */
 114:../Dave/Generated/CMSIS_DSP/TransformFunctions/arm_rfft_q31.c **** 
 115:../Dave/Generated/CMSIS_DSP/TransformFunctions/arm_rfft_q31.c **** /**
 116:../Dave/Generated/CMSIS_DSP/TransformFunctions/arm_rfft_q31.c **** * @brief  Core Real FFT process
 117:../Dave/Generated/CMSIS_DSP/TransformFunctions/arm_rfft_q31.c **** * @param[in]   *pSrc 				points to the input buffer.
 118:../Dave/Generated/CMSIS_DSP/TransformFunctions/arm_rfft_q31.c **** * @param[in]   fftLen  			    length of FFT.
 119:../Dave/Generated/CMSIS_DSP/TransformFunctions/arm_rfft_q31.c **** * @param[in]   *pATable 			points to the twiddle Coef A buffer.
 120:../Dave/Generated/CMSIS_DSP/TransformFunctions/arm_rfft_q31.c **** * @param[in]   *pBTable 			points to the twiddle Coef B buffer.
 121:../Dave/Generated/CMSIS_DSP/TransformFunctions/arm_rfft_q31.c **** * @param[out]  *pDst 				points to the output buffer.
 122:../Dave/Generated/CMSIS_DSP/TransformFunctions/arm_rfft_q31.c **** * @param[in]   modifier 	        twiddle coefficient modifier that supports different size FFTs wit
 123:../Dave/Generated/CMSIS_DSP/TransformFunctions/arm_rfft_q31.c **** * @return none.
 124:../Dave/Generated/CMSIS_DSP/TransformFunctions/arm_rfft_q31.c **** */
 125:../Dave/Generated/CMSIS_DSP/TransformFunctions/arm_rfft_q31.c **** void arm_split_rfft_q31(
 126:../Dave/Generated/CMSIS_DSP/TransformFunctions/arm_rfft_q31.c ****     q31_t * pSrc,
 127:../Dave/Generated/CMSIS_DSP/TransformFunctions/arm_rfft_q31.c ****     uint32_t fftLen,
 128:../Dave/Generated/CMSIS_DSP/TransformFunctions/arm_rfft_q31.c ****     q31_t * pATable,
 129:../Dave/Generated/CMSIS_DSP/TransformFunctions/arm_rfft_q31.c ****     q31_t * pBTable,
 130:../Dave/Generated/CMSIS_DSP/TransformFunctions/arm_rfft_q31.c ****     q31_t * pDst,
 131:../Dave/Generated/CMSIS_DSP/TransformFunctions/arm_rfft_q31.c ****     uint32_t modifier)
 132:../Dave/Generated/CMSIS_DSP/TransformFunctions/arm_rfft_q31.c **** {
  28              	 .loc 1 132 0
  29              	 .cfi_startproc
  30              	 
  31              	 
  32              	.LVL0:
  33 0000 2DE9F04F 	 push {r4,r5,r6,r7,r8,r9,r10,fp,lr}
  34              	.LCFI0:
  35              	 .cfi_def_cfa_offset 36
  36              	 .cfi_offset 4,-36
  37              	 .cfi_offset 5,-32
  38              	 .cfi_offset 6,-28
  39              	 .cfi_offset 7,-24
  40              	 .cfi_offset 8,-20
  41              	 .cfi_offset 9,-16
  42              	 .cfi_offset 10,-12
  43              	 .cfi_offset 11,-8
  44              	 .cfi_offset 14,-4
  45 0004 95B0     	 sub sp,sp,#84
  46              	.LCFI1:
  47              	 .cfi_def_cfa_offset 120
  48              	.LVL1:
  49              	 .loc 1 132 0
  50 0006 1F9C     	 ldr r4,[sp,#124]
  51 0008 1290     	 str r0,[sp,#72]
 133:../Dave/Generated/CMSIS_DSP/TransformFunctions/arm_rfft_q31.c ****     uint32_t i;                                    /* Loop Counter */
 134:../Dave/Generated/CMSIS_DSP/TransformFunctions/arm_rfft_q31.c ****     q31_t outR, outI;                              /* Temporary variables for output */
 135:../Dave/Generated/CMSIS_DSP/TransformFunctions/arm_rfft_q31.c ****     q31_t *pCoefA, *pCoefB;                        /* Temporary pointers for twiddle factors */
 136:../Dave/Generated/CMSIS_DSP/TransformFunctions/arm_rfft_q31.c ****     q31_t CoefA1, CoefA2, CoefB1;                  /* Temporary variables for twiddle coefficients 
 137:../Dave/Generated/CMSIS_DSP/TransformFunctions/arm_rfft_q31.c ****     q31_t *pOut1 = &pDst[2], *pOut2 = &pDst[(4u * fftLen) - 1u];
 138:../Dave/Generated/CMSIS_DSP/TransformFunctions/arm_rfft_q31.c ****     q31_t *pIn1 = &pSrc[2], *pIn2 = &pSrc[(2u * fftLen) - 1u];
 139:../Dave/Generated/CMSIS_DSP/TransformFunctions/arm_rfft_q31.c **** 
 140:../Dave/Generated/CMSIS_DSP/TransformFunctions/arm_rfft_q31.c ****     /* Init coefficient pointers */
 141:../Dave/Generated/CMSIS_DSP/TransformFunctions/arm_rfft_q31.c ****     pCoefA = &pATable[modifier * 2u];
  52              	 .loc 1 141 0
  53 000a E400     	 lsls r4,r4,#3
  54 000c 1019     	 adds r0,r2,r4
  55              	.LVL2:
 138:../Dave/Generated/CMSIS_DSP/TransformFunctions/arm_rfft_q31.c **** 
  56              	 .loc 1 138 0
  57 000e 0A46     	 mov r2,r1
  58              	.LVL3:
 132:../Dave/Generated/CMSIS_DSP/TransformFunctions/arm_rfft_q31.c ****     uint32_t i;                                    /* Loop Counter */
  59              	 .loc 1 132 0
  60 0010 1391     	 str r1,[sp,#76]
 142:../Dave/Generated/CMSIS_DSP/TransformFunctions/arm_rfft_q31.c ****     pCoefB = &pBTable[modifier * 2u];
  61              	 .loc 1 142 0
  62 0012 1F19     	 adds r7,r3,r4
 143:../Dave/Generated/CMSIS_DSP/TransformFunctions/arm_rfft_q31.c **** 
 144:../Dave/Generated/CMSIS_DSP/TransformFunctions/arm_rfft_q31.c ****     i = fftLen - 1u;
 145:../Dave/Generated/CMSIS_DSP/TransformFunctions/arm_rfft_q31.c **** 
 146:../Dave/Generated/CMSIS_DSP/TransformFunctions/arm_rfft_q31.c ****     while (i > 0u)
  63              	 .loc 1 146 0
  64 0014 013A     	 subs r2,r2,#1
 137:../Dave/Generated/CMSIS_DSP/TransformFunctions/arm_rfft_q31.c ****     q31_t *pIn1 = &pSrc[2], *pIn2 = &pSrc[(2u * fftLen) - 1u];
  65              	 .loc 1 137 0
  66 0016 4FEA0113 	 lsl r3,r1,#4
  67              	.LVL4:
 138:../Dave/Generated/CMSIS_DSP/TransformFunctions/arm_rfft_q31.c **** 
  68              	 .loc 1 138 0
  69 001a 4FEAC101 	 lsl r1,r1,#3
  70              	.LVL5:
 141:../Dave/Generated/CMSIS_DSP/TransformFunctions/arm_rfft_q31.c ****     pCoefB = &pBTable[modifier * 2u];
  71              	 .loc 1 141 0
  72 001e 0F94     	 str r4,[sp,#60]
 138:../Dave/Generated/CMSIS_DSP/TransformFunctions/arm_rfft_q31.c **** 
  73              	 .loc 1 138 0
  74 0020 1191     	 str r1,[sp,#68]
  75              	.LVL6:
  76              	 .loc 1 146 0
  77 0022 0D92     	 str r2,[sp,#52]
  78 0024 00F09980 	 beq .L4
  79 0028 1E9A     	 ldr r2,[sp,#120]
 147:../Dave/Generated/CMSIS_DSP/TransformFunctions/arm_rfft_q31.c ****     {
 148:../Dave/Generated/CMSIS_DSP/TransformFunctions/arm_rfft_q31.c ****         /*
 149:../Dave/Generated/CMSIS_DSP/TransformFunctions/arm_rfft_q31.c ****         outR = (pSrc[2 * i] * pATable[2 * i] - pSrc[2 * i + 1] * pATable[2 * i + 1]
 150:../Dave/Generated/CMSIS_DSP/TransformFunctions/arm_rfft_q31.c ****         + pSrc[2 * n - 2 * i] * pBTable[2 * i] +
 151:../Dave/Generated/CMSIS_DSP/TransformFunctions/arm_rfft_q31.c ****         pSrc[2 * n - 2 * i + 1] * pBTable[2 * i + 1]);
 152:../Dave/Generated/CMSIS_DSP/TransformFunctions/arm_rfft_q31.c ****         */
 153:../Dave/Generated/CMSIS_DSP/TransformFunctions/arm_rfft_q31.c **** 
 154:../Dave/Generated/CMSIS_DSP/TransformFunctions/arm_rfft_q31.c ****         /* outI = (pIn[2 * i + 1] * pATable[2 * i] + pIn[2 * i] * pATable[2 * i + 1] +
 155:../Dave/Generated/CMSIS_DSP/TransformFunctions/arm_rfft_q31.c ****         pIn[2 * n - 2 * i] * pBTable[2 * i + 1] -
 156:../Dave/Generated/CMSIS_DSP/TransformFunctions/arm_rfft_q31.c ****         pIn[2 * n - 2 * i + 1] * pBTable[2 * i]); */
 157:../Dave/Generated/CMSIS_DSP/TransformFunctions/arm_rfft_q31.c **** 
 158:../Dave/Generated/CMSIS_DSP/TransformFunctions/arm_rfft_q31.c ****         CoefA1 = *pCoefA++;
 159:../Dave/Generated/CMSIS_DSP/TransformFunctions/arm_rfft_q31.c ****         CoefA2 = *pCoefA;
 160:../Dave/Generated/CMSIS_DSP/TransformFunctions/arm_rfft_q31.c **** 
 161:../Dave/Generated/CMSIS_DSP/TransformFunctions/arm_rfft_q31.c ****         /* outR = (pSrc[2 * i] * pATable[2 * i] */
 162:../Dave/Generated/CMSIS_DSP/TransformFunctions/arm_rfft_q31.c ****         mult_32x32_keep32_R(outR, *pIn1, CoefA1);
  80              	 .loc 1 162 0
  81 002a 1097     	 str r7,[sp,#64]
  82 002c 0C3B     	 subs r3,r3,#12
  83              	.LVL7:
  84 002e D318     	 adds r3,r2,r3
  85              	.LVL8:
  86 0030 129A     	 ldr r2,[sp,#72]
  87 0032 A1F10C06 	 sub r6,r1,#12
  88 0036 1946     	 mov r1,r3
  89              	.LVL9:
  90 0038 1E9B     	 ldr r3,[sp,#120]
  91 003a 0E91     	 str r1,[sp,#56]
  92 003c 1644     	 add r6,r6,r2
  93 003e 02F1100E 	 add lr,r2,#16
  94 0042 03F1100C 	 add ip,r3,#16
 146:../Dave/Generated/CMSIS_DSP/TransformFunctions/arm_rfft_q31.c ****     {
  95              	 .loc 1 146 0
  96 0046 0022     	 movs r2,#0
  97              	 .loc 1 162 0
  98 0048 8146     	 mov r9,r0
  99 004a 0196     	 str r6,[sp,#4]
 100              	.LVL10:
 101              	.L3:
 102 004c 09EB0203 	 add r3,r9,r2
 103              	.LVL11:
 163:../Dave/Generated/CMSIS_DSP/TransformFunctions/arm_rfft_q31.c **** 
 164:../Dave/Generated/CMSIS_DSP/TransformFunctions/arm_rfft_q31.c ****         /* outI = pIn[2 * i] * pATable[2 * i + 1] */
 165:../Dave/Generated/CMSIS_DSP/TransformFunctions/arm_rfft_q31.c ****         mult_32x32_keep32_R(outI, *pIn1++, CoefA2);
 166:../Dave/Generated/CMSIS_DSP/TransformFunctions/arm_rfft_q31.c **** 
 167:../Dave/Generated/CMSIS_DSP/TransformFunctions/arm_rfft_q31.c ****         /* - pSrc[2 * i + 1] * pATable[2 * i + 1] */
 168:../Dave/Generated/CMSIS_DSP/TransformFunctions/arm_rfft_q31.c ****         multSub_32x32_keep32_R(outR, *pIn1, CoefA2);
 169:../Dave/Generated/CMSIS_DSP/TransformFunctions/arm_rfft_q31.c **** 
 170:../Dave/Generated/CMSIS_DSP/TransformFunctions/arm_rfft_q31.c ****         /* (pIn[2 * i + 1] * pATable[2 * i] */
 171:../Dave/Generated/CMSIS_DSP/TransformFunctions/arm_rfft_q31.c ****         multAcc_32x32_keep32_R(outI, *pIn1++, CoefA1);
 172:../Dave/Generated/CMSIS_DSP/TransformFunctions/arm_rfft_q31.c **** 
 173:../Dave/Generated/CMSIS_DSP/TransformFunctions/arm_rfft_q31.c ****         /* pSrc[2 * n - 2 * i] * pBTable[2 * i]  */
 174:../Dave/Generated/CMSIS_DSP/TransformFunctions/arm_rfft_q31.c ****         multSub_32x32_keep32_R(outR, *pIn2, CoefA2);
 104              	 .loc 1 174 0
 105 0050 019C     	 ldr r4,[sp,#4]
 159:../Dave/Generated/CMSIS_DSP/TransformFunctions/arm_rfft_q31.c **** 
 106              	 .loc 1 159 0
 107 0052 5B68     	 ldr r3,[r3,#4]
 108              	.LVL12:
 165:../Dave/Generated/CMSIS_DSP/TransformFunctions/arm_rfft_q31.c **** 
 109              	 .loc 1 165 0
 110 0054 5EF8085C 	 ldr r5,[lr,#-8]
 111              	 .loc 1 174 0
 112 0058 D4F80880 	 ldr r8,[r4,#8]
 175:../Dave/Generated/CMSIS_DSP/TransformFunctions/arm_rfft_q31.c ****         CoefB1 = *pCoefB;
 113              	 .loc 1 175 0
 114 005c 109C     	 ldr r4,[sp,#64]
 158:../Dave/Generated/CMSIS_DSP/TransformFunctions/arm_rfft_q31.c ****         CoefA2 = *pCoefA;
 115              	 .loc 1 158 0
 116 005e 59F80210 	 ldr r1,[r9,r2]
 117              	.LVL13:
 118              	 .loc 1 175 0
 119 0062 A458     	 ldr r4,[r4,r2]
 120 0064 0C94     	 str r4,[sp,#48]
 165:../Dave/Generated/CMSIS_DSP/TransformFunctions/arm_rfft_q31.c **** 
 121              	 .loc 1 165 0
 122 0066 4FF00046 	 mov r6,#-2147483648
 123 006a 0027     	 movs r7,#0
 168:../Dave/Generated/CMSIS_DSP/TransformFunctions/arm_rfft_q31.c **** 
 124              	 .loc 1 168 0
 125 006c 4FF0000A 	 mov r10,#0
 165:../Dave/Generated/CMSIS_DSP/TransformFunctions/arm_rfft_q31.c **** 
 126              	 .loc 1 165 0
 127 0070 C3FB0567 	 smlal r6,r7,r3,r5
 162:../Dave/Generated/CMSIS_DSP/TransformFunctions/arm_rfft_q31.c **** 
 128              	 .loc 1 162 0
 129 0074 5EF8085C 	 ldr r5,[lr,#-8]
 171:../Dave/Generated/CMSIS_DSP/TransformFunctions/arm_rfft_q31.c **** 
 130              	 .loc 1 171 0
 131 0078 0597     	 str r7,[sp,#20]
 132 007a CDF810A0 	 str r10,[sp,#16]
 162:../Dave/Generated/CMSIS_DSP/TransformFunctions/arm_rfft_q31.c **** 
 133              	 .loc 1 162 0
 134 007e 4FF00046 	 mov r6,#-2147483648
 135 0082 0027     	 movs r7,#0
 136 0084 C1FB0567 	 smlal r6,r7,r1,r5
 171:../Dave/Generated/CMSIS_DSP/TransformFunctions/arm_rfft_q31.c **** 
 137              	 .loc 1 171 0
 138 0088 DDE90445 	 ldrd r4,[sp,#16]
 168:../Dave/Generated/CMSIS_DSP/TransformFunctions/arm_rfft_q31.c **** 
 139              	 .loc 1 168 0
 140 008c 5EF8040C 	 ldr r0,[lr,#-4]
 141              	.LVL14:
 176:../Dave/Generated/CMSIS_DSP/TransformFunctions/arm_rfft_q31.c **** 
 177:../Dave/Generated/CMSIS_DSP/TransformFunctions/arm_rfft_q31.c ****         /* pIn[2 * n - 2 * i] * pBTable[2 * i + 1] */
 178:../Dave/Generated/CMSIS_DSP/TransformFunctions/arm_rfft_q31.c ****         multSub_32x32_keep32_R(outI, *pIn2--, CoefB1);
 142              	 .loc 1 178 0
 143 0090 CDF818A0 	 str r10,[sp,#24]
 171:../Dave/Generated/CMSIS_DSP/TransformFunctions/arm_rfft_q31.c **** 
 144              	 .loc 1 171 0
 145 0094 C0FB0145 	 smlal r4,r5,r0,r1
 146 0098 2646     	 mov r6,r4
 168:../Dave/Generated/CMSIS_DSP/TransformFunctions/arm_rfft_q31.c **** 
 147              	 .loc 1 168 0
 148 009a 83FB0001 	 smull r0,r1,r3,r0
 149              	.LVL15:
 171:../Dave/Generated/CMSIS_DSP/TransformFunctions/arm_rfft_q31.c **** 
 150              	 .loc 1 171 0
 151 009e 16F10044 	 adds r4,r6,#-2147483648
 152 00a2 45F10005 	 adc r5,r5,#0
 153              	.LVL16:
 168:../Dave/Generated/CMSIS_DSP/TransformFunctions/arm_rfft_q31.c **** 
 154              	 .loc 1 168 0
 155 00a6 BB46     	 mov fp,r7
 156 00a8 BAEB0006 	 subs r6,r10,r0
 157 00ac 6BEB0107 	 sbc r7,fp,r1
 158 00b0 16F10040 	 adds r0,r6,#-2147483648
 159 00b4 47F10001 	 adc r1,r7,#0
 160              	.LVL17:
 161              	 .loc 1 178 0
 162 00b8 0795     	 str r5,[sp,#28]
 174:../Dave/Generated/CMSIS_DSP/TransformFunctions/arm_rfft_q31.c ****         CoefB1 = *pCoefB;
 163              	 .loc 1 174 0
 164 00ba 0391     	 str r1,[sp,#12]
 165              	 .loc 1 178 0
 166 00bc 0C9D     	 ldr r5,[sp,#48]
 174:../Dave/Generated/CMSIS_DSP/TransformFunctions/arm_rfft_q31.c ****         CoefB1 = *pCoefB;
 167              	 .loc 1 174 0
 168 00be CDF808A0 	 str r10,[sp,#8]
 169              	 .loc 1 178 0
 170 00c2 DDE90601 	 ldrd r0,[sp,#24]
 171 00c6 88FB0545 	 smull r4,r5,r8,r5
 172 00ca 001B     	 subs r0,r0,r4
 173 00cc 0646     	 mov r6,r0
 174 00ce 61EB0501 	 sbc r1,r1,r5
 175 00d2 16F10044 	 adds r4,r6,#-2147483648
 179:../Dave/Generated/CMSIS_DSP/TransformFunctions/arm_rfft_q31.c **** 
 180:../Dave/Generated/CMSIS_DSP/TransformFunctions/arm_rfft_q31.c ****         /* pSrc[2 * n - 2 * i + 1] * pBTable[2 * i + 1] */
 181:../Dave/Generated/CMSIS_DSP/TransformFunctions/arm_rfft_q31.c ****         multAcc_32x32_keep32_R(outR, *pIn2, CoefB1);
 176              	 .loc 1 181 0
 177 00d6 019E     	 ldr r6,[sp,#4]
 182:../Dave/Generated/CMSIS_DSP/TransformFunctions/arm_rfft_q31.c **** 
 183:../Dave/Generated/CMSIS_DSP/TransformFunctions/arm_rfft_q31.c ****         /* pIn[2 * n - 2 * i + 1] * pBTable[2 * i] */
 184:../Dave/Generated/CMSIS_DSP/TransformFunctions/arm_rfft_q31.c ****         multSub_32x32_keep32_R(outI, *pIn2--, CoefA2);
 178              	 .loc 1 184 0
 179 00d8 CDF828A0 	 str r10,[sp,#40]
 178:../Dave/Generated/CMSIS_DSP/TransformFunctions/arm_rfft_q31.c **** 
 180              	 .loc 1 178 0
 181 00dc 0F46     	 mov r7,r1
 182 00de 47F10005 	 adc r5,r7,#0
 174:../Dave/Generated/CMSIS_DSP/TransformFunctions/arm_rfft_q31.c ****         CoefB1 = *pCoefB;
 183              	 .loc 1 174 0
 184 00e2 83FB0801 	 smull r0,r1,r3,r8
 181:../Dave/Generated/CMSIS_DSP/TransformFunctions/arm_rfft_q31.c **** 
 185              	 .loc 1 181 0
 186 00e6 D6F80480 	 ldr r8,[r6,#4]
 187              	 .loc 1 184 0
 188 00ea 0B95     	 str r5,[sp,#44]
 174:../Dave/Generated/CMSIS_DSP/TransformFunctions/arm_rfft_q31.c ****         CoefB1 = *pCoefB;
 189              	 .loc 1 174 0
 190 00ec DDE90267 	 ldrd r6,[sp,#8]
 191 00f0 361A     	 subs r6,r6,r0
 192 00f2 67EB0107 	 sbc r7,r7,r1
 193 00f6 16F10040 	 adds r0,r6,#-2147483648
 194 00fa 47F10001 	 adc r1,r7,#0
 195              	.LVL18:
 181:../Dave/Generated/CMSIS_DSP/TransformFunctions/arm_rfft_q31.c **** 
 196              	 .loc 1 181 0
 197 00fe 0991     	 str r1,[sp,#36]
 198              	 .loc 1 184 0
 199 0100 DDE90A01 	 ldrd r0,[sp,#40]
 200 0104 83FB0845 	 smull r4,r5,r3,r8
 201 0108 001B     	 subs r0,r0,r4
 202 010a 61EB0501 	 sbc r1,r1,r5
 203              	.LVL19:
 181:../Dave/Generated/CMSIS_DSP/TransformFunctions/arm_rfft_q31.c **** 
 204              	 .loc 1 181 0
 205 010e CDF820A0 	 str r10,[sp,#32]
 206              	 .loc 1 184 0
 207 0112 10F10046 	 adds r6,r0,#-2147483648
 208 0116 41F10007 	 adc r7,r1,#0
 181:../Dave/Generated/CMSIS_DSP/TransformFunctions/arm_rfft_q31.c **** 
 209              	 .loc 1 181 0
 210 011a DDE90801 	 ldrd r0,[sp,#32]
 211 011e 0C9D     	 ldr r5,[sp,#48]
 212 0120 C8FB0501 	 smlal r0,r1,r8,r5
 213 0124 10F10044 	 adds r4,r0,#-2147483648
 214 0128 41F10005 	 adc r5,r1,#0
 215              	.LVL20:
 216 012c 0F99     	 ldr r1,[sp,#60]
 217 012e 0A44     	 add r2,r2,r1
 218              	.LVL21:
 219 0130 0199     	 ldr r1,[sp,#4]
 220 0132 0839     	 subs r1,r1,#8
 221 0134 0191     	 str r1,[sp,#4]
 222              	.LVL22:
 185:../Dave/Generated/CMSIS_DSP/TransformFunctions/arm_rfft_q31.c **** 
 186:../Dave/Generated/CMSIS_DSP/TransformFunctions/arm_rfft_q31.c ****         /* write output */
 187:../Dave/Generated/CMSIS_DSP/TransformFunctions/arm_rfft_q31.c ****         *pOut1++ = outR;
 223              	 .loc 1 187 0
 224 0136 0CE9A000 	 stmdb ip,{r5,r7}
 225              	.LVL23:
 188:../Dave/Generated/CMSIS_DSP/TransformFunctions/arm_rfft_q31.c ****         *pOut1++ = outI;
 189:../Dave/Generated/CMSIS_DSP/TransformFunctions/arm_rfft_q31.c **** 
 190:../Dave/Generated/CMSIS_DSP/TransformFunctions/arm_rfft_q31.c ****         /* write complex conjugate output */
 191:../Dave/Generated/CMSIS_DSP/TransformFunctions/arm_rfft_q31.c ****         *pOut2-- = -outI;
 226              	 .loc 1 191 0
 227 013a 0E99     	 ldr r1,[sp,#56]
 228              	.LVL24:
 229 013c 7B42     	 negs r3,r7
 230              	.LVL25:
 231 013e 8B60     	 str r3,[r1,#8]
 232              	.LVL26:
 233 0140 A1F10803 	 sub r3,r1,#8
 234 0144 0E93     	 str r3,[sp,#56]
 146:../Dave/Generated/CMSIS_DSP/TransformFunctions/arm_rfft_q31.c ****     {
 235              	 .loc 1 146 0
 236 0146 0D9B     	 ldr r3,[sp,#52]
 192:../Dave/Generated/CMSIS_DSP/TransformFunctions/arm_rfft_q31.c ****         *pOut2-- = outR;
 237              	 .loc 1 192 0
 238 0148 4D60     	 str r5,[r1,#4]
 239              	.LVL27:
 146:../Dave/Generated/CMSIS_DSP/TransformFunctions/arm_rfft_q31.c ****     {
 240              	 .loc 1 146 0
 241 014a 013B     	 subs r3,r3,#1
 242              	.LVL28:
 243 014c 0EF1080E 	 add lr,lr,#8
 244              	.LVL29:
 245 0150 0CF1080C 	 add ip,ip,#8
 246 0154 0D93     	 str r3,[sp,#52]
 247 0156 7FF479AF 	 bne .L3
 248              	.LVL30:
 249              	.L4:
 193:../Dave/Generated/CMSIS_DSP/TransformFunctions/arm_rfft_q31.c **** 
 194:../Dave/Generated/CMSIS_DSP/TransformFunctions/arm_rfft_q31.c ****         /* update coefficient pointer */
 195:../Dave/Generated/CMSIS_DSP/TransformFunctions/arm_rfft_q31.c ****         pCoefB = pCoefB + (modifier * 2u);
 196:../Dave/Generated/CMSIS_DSP/TransformFunctions/arm_rfft_q31.c ****         pCoefA = pCoefA + ((modifier * 2u) - 1u);
 197:../Dave/Generated/CMSIS_DSP/TransformFunctions/arm_rfft_q31.c **** 
 198:../Dave/Generated/CMSIS_DSP/TransformFunctions/arm_rfft_q31.c ****         i--;
 199:../Dave/Generated/CMSIS_DSP/TransformFunctions/arm_rfft_q31.c ****     }
 200:../Dave/Generated/CMSIS_DSP/TransformFunctions/arm_rfft_q31.c ****     pDst[2u * fftLen] = (pSrc[0] - pSrc[1]) >> 1;
 250              	 .loc 1 200 0
 251 015a 1298     	 ldr r0,[sp,#72]
 201:../Dave/Generated/CMSIS_DSP/TransformFunctions/arm_rfft_q31.c ****     pDst[(2u * fftLen) + 1u] = 0;
 252              	 .loc 1 201 0
 253 015c 1E9C     	 ldr r4,[sp,#120]
 200:../Dave/Generated/CMSIS_DSP/TransformFunctions/arm_rfft_q31.c ****     pDst[(2u * fftLen) + 1u] = 0;
 254              	 .loc 1 200 0
 255 015e 4268     	 ldr r2,[r0,#4]
 256 0160 0368     	 ldr r3,[r0]
 257 0162 9B1A     	 subs r3,r3,r2
 258              	 .loc 1 201 0
 259 0164 119A     	 ldr r2,[sp,#68]
 260 0166 2244     	 add r2,r2,r4
 261 0168 1146     	 mov r1,r2
 200:../Dave/Generated/CMSIS_DSP/TransformFunctions/arm_rfft_q31.c ****     pDst[(2u * fftLen) + 1u] = 0;
 262              	 .loc 1 200 0
 263 016a 2246     	 mov r2,r4
 264 016c 139C     	 ldr r4,[sp,#76]
 265 016e 5B10     	 asrs r3,r3,#1
 266 0170 42F83430 	 str r3,[r2,r4,lsl#3]
 267              	 .loc 1 201 0
 268 0174 0022     	 movs r2,#0
 269 0176 4A60     	 str r2,[r1,#4]
 202:../Dave/Generated/CMSIS_DSP/TransformFunctions/arm_rfft_q31.c **** 
 203:../Dave/Generated/CMSIS_DSP/TransformFunctions/arm_rfft_q31.c ****     pDst[0] = (pSrc[0] + pSrc[1]) >> 1;
 270              	 .loc 1 203 0
 271 0178 0168     	 ldr r1,[r0]
 272 017a 4368     	 ldr r3,[r0,#4]
 204:../Dave/Generated/CMSIS_DSP/TransformFunctions/arm_rfft_q31.c ****     pDst[1] = 0;
 273              	 .loc 1 204 0
 274 017c 1E98     	 ldr r0,[sp,#120]
 203:../Dave/Generated/CMSIS_DSP/TransformFunctions/arm_rfft_q31.c ****     pDst[1] = 0;
 275              	 .loc 1 203 0
 276 017e 0B44     	 add r3,r3,r1
 277 0180 5B10     	 asrs r3,r3,#1
 278              	 .loc 1 204 0
 279 0182 4260     	 str r2,[r0,#4]
 203:../Dave/Generated/CMSIS_DSP/TransformFunctions/arm_rfft_q31.c ****     pDst[1] = 0;
 280              	 .loc 1 203 0
 281 0184 0360     	 str r3,[r0]
 205:../Dave/Generated/CMSIS_DSP/TransformFunctions/arm_rfft_q31.c **** }
 282              	 .loc 1 205 0
 283 0186 15B0     	 add sp,sp,#84
 284              	.LCFI2:
 285              	 .cfi_def_cfa_offset 36
 286              	 
 287 0188 BDE8F08F 	 pop {r4,r5,r6,r7,r8,r9,r10,fp,pc}
 288              	 .cfi_endproc
 289              	.LFE136:
 291              	 .section .text.arm_split_rifft_q31,"ax",%progbits
 292              	 .align 2
 293              	 .global arm_split_rifft_q31
 294              	 .thumb
 295              	 .thumb_func
 297              	arm_split_rifft_q31:
 298              	.LFB137:
 206:../Dave/Generated/CMSIS_DSP/TransformFunctions/arm_rfft_q31.c **** 
 207:../Dave/Generated/CMSIS_DSP/TransformFunctions/arm_rfft_q31.c **** /**
 208:../Dave/Generated/CMSIS_DSP/TransformFunctions/arm_rfft_q31.c **** * @brief  Core Real IFFT process
 209:../Dave/Generated/CMSIS_DSP/TransformFunctions/arm_rfft_q31.c **** * @param[in]   *pSrc 				points to the input buffer.
 210:../Dave/Generated/CMSIS_DSP/TransformFunctions/arm_rfft_q31.c **** * @param[in]   fftLen  			    length of FFT.
 211:../Dave/Generated/CMSIS_DSP/TransformFunctions/arm_rfft_q31.c **** * @param[in]   *pATable 			points to the twiddle Coef A buffer.
 212:../Dave/Generated/CMSIS_DSP/TransformFunctions/arm_rfft_q31.c **** * @param[in]   *pBTable 			points to the twiddle Coef B buffer.
 213:../Dave/Generated/CMSIS_DSP/TransformFunctions/arm_rfft_q31.c **** * @param[out]  *pDst 				points to the output buffer.
 214:../Dave/Generated/CMSIS_DSP/TransformFunctions/arm_rfft_q31.c **** * @param[in]   modifier 	        twiddle coefficient modifier that supports different size FFTs wit
 215:../Dave/Generated/CMSIS_DSP/TransformFunctions/arm_rfft_q31.c **** * @return none.
 216:../Dave/Generated/CMSIS_DSP/TransformFunctions/arm_rfft_q31.c **** */
 217:../Dave/Generated/CMSIS_DSP/TransformFunctions/arm_rfft_q31.c **** void arm_split_rifft_q31(
 218:../Dave/Generated/CMSIS_DSP/TransformFunctions/arm_rfft_q31.c ****     q31_t * pSrc,
 219:../Dave/Generated/CMSIS_DSP/TransformFunctions/arm_rfft_q31.c ****     uint32_t fftLen,
 220:../Dave/Generated/CMSIS_DSP/TransformFunctions/arm_rfft_q31.c ****     q31_t * pATable,
 221:../Dave/Generated/CMSIS_DSP/TransformFunctions/arm_rfft_q31.c ****     q31_t * pBTable,
 222:../Dave/Generated/CMSIS_DSP/TransformFunctions/arm_rfft_q31.c ****     q31_t * pDst,
 223:../Dave/Generated/CMSIS_DSP/TransformFunctions/arm_rfft_q31.c ****     uint32_t modifier)
 224:../Dave/Generated/CMSIS_DSP/TransformFunctions/arm_rfft_q31.c **** {
 299              	 .loc 1 224 0
 300              	 .cfi_startproc
 301              	 
 302              	 
 303              	.LVL31:
 304 0000 2DE9F04F 	 push {r4,r5,r6,r7,r8,r9,r10,fp,lr}
 305              	.LCFI3:
 306              	 .cfi_def_cfa_offset 36
 307              	 .cfi_offset 4,-36
 308              	 .cfi_offset 5,-32
 309              	 .cfi_offset 6,-28
 310              	 .cfi_offset 7,-24
 311              	 .cfi_offset 8,-20
 312              	 .cfi_offset 9,-16
 313              	 .cfi_offset 10,-12
 314              	 .cfi_offset 11,-8
 315              	 .cfi_offset 14,-4
 316 0004 8E46     	 mov lr,r1
 317 0006 91B0     	 sub sp,sp,#68
 318              	.LCFI4:
 319              	 .cfi_def_cfa_offset 104
 320              	.LVL32:
 225:../Dave/Generated/CMSIS_DSP/TransformFunctions/arm_rfft_q31.c ****     q31_t outR, outI;                              /* Temporary variables for output */
 226:../Dave/Generated/CMSIS_DSP/TransformFunctions/arm_rfft_q31.c ****     q31_t *pCoefA, *pCoefB;                        /* Temporary pointers for twiddle factors */
 227:../Dave/Generated/CMSIS_DSP/TransformFunctions/arm_rfft_q31.c ****     q31_t CoefA1, CoefA2, CoefB1;                  /* Temporary variables for twiddle coefficients 
 228:../Dave/Generated/CMSIS_DSP/TransformFunctions/arm_rfft_q31.c ****     q31_t *pIn1 = &pSrc[0], *pIn2 = &pSrc[(2u * fftLen) + 1u];
 321              	 .loc 1 228 0
 322 0008 CC00     	 lsls r4,r1,#3
 323              	.LVL33:
 229:../Dave/Generated/CMSIS_DSP/TransformFunctions/arm_rfft_q31.c **** 
 230:../Dave/Generated/CMSIS_DSP/TransformFunctions/arm_rfft_q31.c ****     pCoefA = &pATable[0];
 231:../Dave/Generated/CMSIS_DSP/TransformFunctions/arm_rfft_q31.c ****     pCoefB = &pBTable[0];
 232:../Dave/Generated/CMSIS_DSP/TransformFunctions/arm_rfft_q31.c **** 
 233:../Dave/Generated/CMSIS_DSP/TransformFunctions/arm_rfft_q31.c ****     while (fftLen > 0u)
 324              	 .loc 1 233 0
 325 000a 0029     	 cmp r1,#0
 326 000c 00F09580 	 beq .L9
 327 0010 9A46     	 mov r10,r3
 328              	.LVL34:
 329 0012 1B9B     	 ldr r3,[sp,#108]
 330              	.LVL35:
 234:../Dave/Generated/CMSIS_DSP/TransformFunctions/arm_rfft_q31.c ****     {
 235:../Dave/Generated/CMSIS_DSP/TransformFunctions/arm_rfft_q31.c ****         /*
 236:../Dave/Generated/CMSIS_DSP/TransformFunctions/arm_rfft_q31.c ****         outR = (pIn[2 * i] * pATable[2 * i] + pIn[2 * i + 1] * pATable[2 * i + 1] +
 237:../Dave/Generated/CMSIS_DSP/TransformFunctions/arm_rfft_q31.c ****         pIn[2 * n - 2 * i] * pBTable[2 * i] -
 238:../Dave/Generated/CMSIS_DSP/TransformFunctions/arm_rfft_q31.c ****         pIn[2 * n - 2 * i + 1] * pBTable[2 * i + 1]);
 239:../Dave/Generated/CMSIS_DSP/TransformFunctions/arm_rfft_q31.c **** 
 240:../Dave/Generated/CMSIS_DSP/TransformFunctions/arm_rfft_q31.c ****         outI = (pIn[2 * i + 1] * pATable[2 * i] - pIn[2 * i] * pATable[2 * i + 1] -
 241:../Dave/Generated/CMSIS_DSP/TransformFunctions/arm_rfft_q31.c ****         pIn[2 * n - 2 * i] * pBTable[2 * i + 1] -
 242:../Dave/Generated/CMSIS_DSP/TransformFunctions/arm_rfft_q31.c ****         pIn[2 * n - 2 * i + 1] * pBTable[2 * i]);
 243:../Dave/Generated/CMSIS_DSP/TransformFunctions/arm_rfft_q31.c ****         */
 244:../Dave/Generated/CMSIS_DSP/TransformFunctions/arm_rfft_q31.c ****         CoefA1 = *pCoefA++;
 245:../Dave/Generated/CMSIS_DSP/TransformFunctions/arm_rfft_q31.c ****         CoefA2 = *pCoefA;
 246:../Dave/Generated/CMSIS_DSP/TransformFunctions/arm_rfft_q31.c **** 
 247:../Dave/Generated/CMSIS_DSP/TransformFunctions/arm_rfft_q31.c ****         /* outR = (pIn[2 * i] * pATable[2 * i] */
 248:../Dave/Generated/CMSIS_DSP/TransformFunctions/arm_rfft_q31.c ****         mult_32x32_keep32_R(outR, *pIn1, CoefA1);
 331              	 .loc 1 248 0
 332 0014 0D91     	 str r1,[sp,#52]
 333 0016 4FEAC30B 	 lsl fp,r3,#3
 334 001a 1A9B     	 ldr r3,[sp,#104]
 335 001c CDF830B0 	 str fp,[sp,#48]
 336 0020 043C     	 subs r4,r4,#4
 337              	.LVL36:
 338 0022 0833     	 adds r3,r3,#8
 339 0024 0444     	 add r4,r4,r0
 340              	.LVL37:
 341 0026 9446     	 mov ip,r2
 342 0028 0830     	 adds r0,r0,#8
 343              	.LVL38:
 344 002a 1D46     	 mov r5,r3
 345 002c CDF804A0 	 str r10,[sp,#4]
 346              	.LVL39:
 347              	.L11:
 244:../Dave/Generated/CMSIS_DSP/TransformFunctions/arm_rfft_q31.c ****         CoefA2 = *pCoefA;
 348              	 .loc 1 244 0
 349 0030 DCF80060 	 ldr r6,[ip]
 350              	.LVL40:
 351              	 .loc 1 248 0
 352 0034 50F8087C 	 ldr r7,[r0,#-8]
 245:../Dave/Generated/CMSIS_DSP/TransformFunctions/arm_rfft_q31.c **** 
 353              	 .loc 1 245 0
 354 0038 DCF80410 	 ldr r1,[ip,#4]
 355              	.LVL41:
 249:../Dave/Generated/CMSIS_DSP/TransformFunctions/arm_rfft_q31.c **** 
 250:../Dave/Generated/CMSIS_DSP/TransformFunctions/arm_rfft_q31.c ****         /* - pIn[2 * i] * pATable[2 * i + 1] */
 251:../Dave/Generated/CMSIS_DSP/TransformFunctions/arm_rfft_q31.c ****         mult_32x32_keep32_R(outI, *pIn1++, -CoefA2);
 252:../Dave/Generated/CMSIS_DSP/TransformFunctions/arm_rfft_q31.c **** 
 253:../Dave/Generated/CMSIS_DSP/TransformFunctions/arm_rfft_q31.c ****         /* pIn[2 * i + 1] * pATable[2 * i + 1] */
 254:../Dave/Generated/CMSIS_DSP/TransformFunctions/arm_rfft_q31.c ****         multAcc_32x32_keep32_R(outR, *pIn1, CoefA2);
 255:../Dave/Generated/CMSIS_DSP/TransformFunctions/arm_rfft_q31.c **** 
 256:../Dave/Generated/CMSIS_DSP/TransformFunctions/arm_rfft_q31.c ****         /* pIn[2 * i + 1] * pATable[2 * i] */
 257:../Dave/Generated/CMSIS_DSP/TransformFunctions/arm_rfft_q31.c ****         multAcc_32x32_keep32_R(outI, *pIn1++, CoefA1);
 258:../Dave/Generated/CMSIS_DSP/TransformFunctions/arm_rfft_q31.c **** 
 259:../Dave/Generated/CMSIS_DSP/TransformFunctions/arm_rfft_q31.c ****         /* pIn[2 * n - 2 * i] * pBTable[2 * i] */
 260:../Dave/Generated/CMSIS_DSP/TransformFunctions/arm_rfft_q31.c ****         multAcc_32x32_keep32_R(outR, *pIn2, CoefA2);
 356              	 .loc 1 260 0
 357 003c D4F808E0 	 ldr lr,[r4,#8]
 248:../Dave/Generated/CMSIS_DSP/TransformFunctions/arm_rfft_q31.c **** 
 358              	 .loc 1 248 0
 359 0040 4FF00042 	 mov r2,#-2147483648
 360 0044 0023     	 movs r3,#0
 361 0046 C6FB0723 	 smlal r2,r3,r6,r7
 254:../Dave/Generated/CMSIS_DSP/TransformFunctions/arm_rfft_q31.c **** 
 362              	 .loc 1 254 0
 363 004a 9946     	 mov r9,r3
 251:../Dave/Generated/CMSIS_DSP/TransformFunctions/arm_rfft_q31.c **** 
 364              	 .loc 1 251 0
 365 004c 4FF0004A 	 mov r10,#-2147483648
 366 0050 4B42     	 negs r3,r1
 367              	.LVL42:
 368 0052 4FF0000B 	 mov fp,#0
 254:../Dave/Generated/CMSIS_DSP/TransformFunctions/arm_rfft_q31.c **** 
 369              	 .loc 1 254 0
 370 0056 4FF00008 	 mov r8,#0
 251:../Dave/Generated/CMSIS_DSP/TransformFunctions/arm_rfft_q31.c **** 
 371              	 .loc 1 251 0
 372 005a C3FB07AB 	 smlal r10,fp,r3,r7
 257:../Dave/Generated/CMSIS_DSP/TransformFunctions/arm_rfft_q31.c **** 
 373              	 .loc 1 257 0
 374 005e CDF814B0 	 str fp,[sp,#20]
 375 0062 CDF81080 	 str r8,[sp,#16]
 376 0066 DDE904AB 	 ldrd r10,[sp,#16]
 377 006a 50F8043C 	 ldr r3,[r0,#-4]
 378              	.LVL43:
 261:../Dave/Generated/CMSIS_DSP/TransformFunctions/arm_rfft_q31.c ****         CoefB1 = *pCoefB;
 262:../Dave/Generated/CMSIS_DSP/TransformFunctions/arm_rfft_q31.c **** 
 263:../Dave/Generated/CMSIS_DSP/TransformFunctions/arm_rfft_q31.c ****         /* pIn[2 * n - 2 * i] * pBTable[2 * i + 1] */
 264:../Dave/Generated/CMSIS_DSP/TransformFunctions/arm_rfft_q31.c ****         multSub_32x32_keep32_R(outI, *pIn2--, CoefB1);
 379              	 .loc 1 264 0
 380 006e CDF81880 	 str r8,[sp,#24]
 257:../Dave/Generated/CMSIS_DSP/TransformFunctions/arm_rfft_q31.c **** 
 381              	 .loc 1 257 0
 382 0072 C3FB06AB 	 smlal r10,fp,r3,r6
 254:../Dave/Generated/CMSIS_DSP/TransformFunctions/arm_rfft_q31.c **** 
 383              	 .loc 1 254 0
 384 0076 4F46     	 mov r7,r9
 385              	.LVL44:
 386 0078 4646     	 mov r6,r8
 387              	.LVL45:
 257:../Dave/Generated/CMSIS_DSP/TransformFunctions/arm_rfft_q31.c **** 
 388              	 .loc 1 257 0
 389 007a CDE90EAB 	 strd r10,[sp,#56]
 254:../Dave/Generated/CMSIS_DSP/TransformFunctions/arm_rfft_q31.c **** 
 390              	 .loc 1 254 0
 391 007e C1FB0367 	 smlal r6,r7,r1,r3
 392 0082 B246     	 mov r10,r6
 393 0084 BB46     	 mov fp,r7
 257:../Dave/Generated/CMSIS_DSP/TransformFunctions/arm_rfft_q31.c **** 
 394              	 .loc 1 257 0
 395 0086 DDE90E67 	 ldrd r6,[sp,#56]
 396 008a 16F10046 	 adds r6,r6,#-2147483648
 397 008e 47F10007 	 adc r7,r7,#0
 254:../Dave/Generated/CMSIS_DSP/TransformFunctions/arm_rfft_q31.c **** 
 398              	 .loc 1 254 0
 399 0092 1AF10042 	 adds r2,r10,#-2147483648
 400 0096 4BF10003 	 adc r3,fp,#0
 260:../Dave/Generated/CMSIS_DSP/TransformFunctions/arm_rfft_q31.c ****         CoefB1 = *pCoefB;
 401              	 .loc 1 260 0
 402 009a 0393     	 str r3,[sp,#12]
 403              	 .loc 1 264 0
 404 009c 019B     	 ldr r3,[sp,#4]
 405 009e 0797     	 str r7,[sp,#28]
 406 00a0 DDE90667 	 ldrd r6,[sp,#24]
 407 00a4 1B68     	 ldr r3,[r3]
 260:../Dave/Generated/CMSIS_DSP/TransformFunctions/arm_rfft_q31.c ****         CoefB1 = *pCoefB;
 408              	 .loc 1 260 0
 409 00a6 CDF80880 	 str r8,[sp,#8]
 410              	 .loc 1 264 0
 411 00aa 8EFB0323 	 smull r2,r3,lr,r3
 412 00ae B61A     	 subs r6,r6,r2
 413 00b0 67EB0307 	 sbc r7,r7,r3
 414 00b4 3246     	 mov r2,r6
 415 00b6 3B46     	 mov r3,r7
 260:../Dave/Generated/CMSIS_DSP/TransformFunctions/arm_rfft_q31.c ****         CoefB1 = *pCoefB;
 416              	 .loc 1 260 0
 417 00b8 DDE90267 	 ldrd r6,[sp,#8]
 418 00bc CEFB0167 	 smlal r6,r7,lr,r1
 419              	 .loc 1 264 0
 420 00c0 12F10042 	 adds r2,r2,#-2147483648
 260:../Dave/Generated/CMSIS_DSP/TransformFunctions/arm_rfft_q31.c ****         CoefB1 = *pCoefB;
 421              	 .loc 1 260 0
 422 00c4 B246     	 mov r10,r6
 423              	 .loc 1 264 0
 424 00c6 43F10003 	 adc r3,r3,#0
 260:../Dave/Generated/CMSIS_DSP/TransformFunctions/arm_rfft_q31.c ****         CoefB1 = *pCoefB;
 425              	 .loc 1 260 0
 426 00ca 1AF10046 	 adds r6,r10,#-2147483648
 427 00ce 47F10007 	 adc r7,r7,#0
 428              	.LVL46:
 265:../Dave/Generated/CMSIS_DSP/TransformFunctions/arm_rfft_q31.c **** 
 266:../Dave/Generated/CMSIS_DSP/TransformFunctions/arm_rfft_q31.c ****         /* pIn[2 * n - 2 * i + 1] * pBTable[2 * i + 1] */
 267:../Dave/Generated/CMSIS_DSP/TransformFunctions/arm_rfft_q31.c ****         multAcc_32x32_keep32_R(outR, *pIn2, CoefB1);
 268:../Dave/Generated/CMSIS_DSP/TransformFunctions/arm_rfft_q31.c **** 
 269:../Dave/Generated/CMSIS_DSP/TransformFunctions/arm_rfft_q31.c ****         /* pIn[2 * n - 2 * i + 1] * pBTable[2 * i] */
 270:../Dave/Generated/CMSIS_DSP/TransformFunctions/arm_rfft_q31.c ****         multAcc_32x32_keep32_R(outI, *pIn2--, CoefA2);
 429              	 .loc 1 270 0
 430 00d2 0B93     	 str r3,[sp,#44]
 431 00d4 CDF82880 	 str r8,[sp,#40]
 267:../Dave/Generated/CMSIS_DSP/TransformFunctions/arm_rfft_q31.c **** 
 432              	 .loc 1 267 0
 433 00d8 0997     	 str r7,[sp,#36]
 434              	 .loc 1 270 0
 435 00da DDE90A67 	 ldrd r6,[sp,#40]
 267:../Dave/Generated/CMSIS_DSP/TransformFunctions/arm_rfft_q31.c **** 
 436              	 .loc 1 267 0
 437 00de 6368     	 ldr r3,[r4,#4]
 438              	.LVL47:
 439 00e0 019A     	 ldr r2,[sp,#4]
 440 00e2 CDF82080 	 str r8,[sp,#32]
 441              	 .loc 1 270 0
 442 00e6 C3FB0167 	 smlal r6,r7,r3,r1
 443 00ea CDE90E67 	 strd r6,[sp,#56]
 267:../Dave/Generated/CMSIS_DSP/TransformFunctions/arm_rfft_q31.c **** 
 444              	 .loc 1 267 0
 445 00ee DDE90867 	 ldrd r6,[sp,#32]
 446 00f2 1168     	 ldr r1,[r2]
 447              	.LVL48:
 448 00f4 C3FB0167 	 smlal r6,r7,r3,r1
 271:../Dave/Generated/CMSIS_DSP/TransformFunctions/arm_rfft_q31.c **** 
 272:../Dave/Generated/CMSIS_DSP/TransformFunctions/arm_rfft_q31.c ****         /* write output */
 273:../Dave/Generated/CMSIS_DSP/TransformFunctions/arm_rfft_q31.c ****         *pDst++ = outR;
 274:../Dave/Generated/CMSIS_DSP/TransformFunctions/arm_rfft_q31.c ****         *pDst++ = outI;
 275:../Dave/Generated/CMSIS_DSP/TransformFunctions/arm_rfft_q31.c **** 
 276:../Dave/Generated/CMSIS_DSP/TransformFunctions/arm_rfft_q31.c ****         /* update coefficient pointer */
 277:../Dave/Generated/CMSIS_DSP/TransformFunctions/arm_rfft_q31.c ****         pCoefB = pCoefB + (modifier * 2u);
 278:../Dave/Generated/CMSIS_DSP/TransformFunctions/arm_rfft_q31.c ****         pCoefA = pCoefA + ((modifier * 2u) - 1u);
 449              	 .loc 1 278 0
 450 00f8 0C99     	 ldr r1,[sp,#48]
 267:../Dave/Generated/CMSIS_DSP/TransformFunctions/arm_rfft_q31.c **** 
 451              	 .loc 1 267 0
 452 00fa B246     	 mov r10,r6
 453 00fc BB46     	 mov fp,r7
 270:../Dave/Generated/CMSIS_DSP/TransformFunctions/arm_rfft_q31.c **** 
 454              	 .loc 1 270 0
 455 00fe DDE90E67 	 ldrd r6,[sp,#56]
 456              	 .loc 1 278 0
 457 0102 8C44     	 add ip,ip,r1
 458              	.LVL49:
 277:../Dave/Generated/CMSIS_DSP/TransformFunctions/arm_rfft_q31.c ****         pCoefA = pCoefA + ((modifier * 2u) - 1u);
 459              	 .loc 1 277 0
 460 0104 0199     	 ldr r1,[sp,#4]
 270:../Dave/Generated/CMSIS_DSP/TransformFunctions/arm_rfft_q31.c **** 
 461              	 .loc 1 270 0
 462 0106 16F10046 	 adds r6,r6,#-2147483648
 277:../Dave/Generated/CMSIS_DSP/TransformFunctions/arm_rfft_q31.c ****         pCoefA = pCoefA + ((modifier * 2u) - 1u);
 463              	 .loc 1 277 0
 464 010a 8E46     	 mov lr,r1
 465 010c 0C99     	 ldr r1,[sp,#48]
 270:../Dave/Generated/CMSIS_DSP/TransformFunctions/arm_rfft_q31.c **** 
 466              	 .loc 1 270 0
 467 010e 47F10007 	 adc r7,r7,#0
 468              	.LVL50:
 267:../Dave/Generated/CMSIS_DSP/TransformFunctions/arm_rfft_q31.c **** 
 469              	 .loc 1 267 0
 470 0112 1AF10042 	 adds r2,r10,#-2147483648
 471 0116 4BF10003 	 adc r3,fp,#0
 472              	.LVL51:
 277:../Dave/Generated/CMSIS_DSP/TransformFunctions/arm_rfft_q31.c ****         pCoefA = pCoefA + ((modifier * 2u) - 1u);
 473              	 .loc 1 277 0
 474 011a 8E44     	 add lr,lr,r1
 475 011c CDF804E0 	 str lr,[sp,#4]
 476              	.LVL52:
 267:../Dave/Generated/CMSIS_DSP/TransformFunctions/arm_rfft_q31.c **** 
 477              	 .loc 1 267 0
 478 0120 05E98800 	 stmdb r5,{r3,r7}
 479              	.LVL53:
 233:../Dave/Generated/CMSIS_DSP/TransformFunctions/arm_rfft_q31.c ****     {
 480              	 .loc 1 233 0
 481 0124 0D9B     	 ldr r3,[sp,#52]
 482              	.LVL54:
 483 0126 013B     	 subs r3,r3,#1
 484              	.LVL55:
 485 0128 00F10800 	 add r0,r0,#8
 486              	.LVL56:
 487 012c A4F10804 	 sub r4,r4,#8
 488              	.LVL57:
 489 0130 05F10805 	 add r5,r5,#8
 490              	.LVL58:
 491 0134 0D93     	 str r3,[sp,#52]
 492 0136 7FF47BAF 	 bne .L11
 493              	.LVL59:
 494              	.L9:
 279:../Dave/Generated/CMSIS_DSP/TransformFunctions/arm_rfft_q31.c **** 
 280:../Dave/Generated/CMSIS_DSP/TransformFunctions/arm_rfft_q31.c ****         /* Decrement loop count */
 281:../Dave/Generated/CMSIS_DSP/TransformFunctions/arm_rfft_q31.c ****         fftLen--;
 282:../Dave/Generated/CMSIS_DSP/TransformFunctions/arm_rfft_q31.c ****     }
 283:../Dave/Generated/CMSIS_DSP/TransformFunctions/arm_rfft_q31.c **** }
 495              	 .loc 1 283 0
 496 013a 11B0     	 add sp,sp,#68
 497              	.LCFI5:
 498              	 .cfi_def_cfa_offset 36
 499              	 
 500 013c BDE8F08F 	 pop {r4,r5,r6,r7,r8,r9,r10,fp,pc}
 501              	 .cfi_endproc
 502              	.LFE137:
 504              	 .section .text.arm_rfft_q31,"ax",%progbits
 505              	 .align 2
 506              	 .global arm_rfft_q31
 507              	 .thumb
 508              	 .thumb_func
 510              	arm_rfft_q31:
 511              	.LFB135:
  78:../Dave/Generated/CMSIS_DSP/TransformFunctions/arm_rfft_q31.c ****     const arm_cfft_instance_q31 *S_CFFT = S->pCfft;
 512              	 .loc 1 78 0
 513              	 .cfi_startproc
 514              	 
 515              	 
 516              	.LVL60:
 517 0000 2DE9F043 	 push {r4,r5,r6,r7,r8,r9,lr}
 518              	.LCFI6:
 519              	 .cfi_def_cfa_offset 28
 520              	 .cfi_offset 4,-28
 521              	 .cfi_offset 5,-24
 522              	 .cfi_offset 6,-20
 523              	 .cfi_offset 7,-16
 524              	 .cfi_offset 8,-12
 525              	 .cfi_offset 9,-8
 526              	 .cfi_offset 14,-4
 527 0004 1546     	 mov r5,r2
  84:../Dave/Generated/CMSIS_DSP/TransformFunctions/arm_rfft_q31.c ****     {
 528              	 .loc 1 84 0
 529 0006 0279     	 ldrb r2,[r0,#4]
 530              	.LVL61:
  81:../Dave/Generated/CMSIS_DSP/TransformFunctions/arm_rfft_q31.c **** 
 531              	 .loc 1 81 0
 532 0008 0368     	 ldr r3,[r0]
  79:../Dave/Generated/CMSIS_DSP/TransformFunctions/arm_rfft_q31.c ****     uint32_t i;
 533              	 .loc 1 79 0
 534 000a 4669     	 ldr r6,[r0,#20]
 535              	.LVL62:
  84:../Dave/Generated/CMSIS_DSP/TransformFunctions/arm_rfft_q31.c ****     {
 536              	 .loc 1 84 0
 537 000c 012A     	 cmp r2,#1
  78:../Dave/Generated/CMSIS_DSP/TransformFunctions/arm_rfft_q31.c ****     const arm_cfft_instance_q31 *S_CFFT = S->pCfft;
 538              	 .loc 1 78 0
 539 000e 83B0     	 sub sp,sp,#12
 540              	.LCFI7:
 541              	 .cfi_def_cfa_offset 40
  78:../Dave/Generated/CMSIS_DSP/TransformFunctions/arm_rfft_q31.c ****     const arm_cfft_instance_q31 *S_CFFT = S->pCfft;
 542              	 .loc 1 78 0
 543 0010 0446     	 mov r4,r0
  81:../Dave/Generated/CMSIS_DSP/TransformFunctions/arm_rfft_q31.c **** 
 544              	 .loc 1 81 0
 545 0012 4FEA5308 	 lsr r8,r3,#1
 546              	.LVL63:
  78:../Dave/Generated/CMSIS_DSP/TransformFunctions/arm_rfft_q31.c ****     const arm_cfft_instance_q31 *S_CFFT = S->pCfft;
 547              	 .loc 1 78 0
 548 0016 8946     	 mov r9,r1
  84:../Dave/Generated/CMSIS_DSP/TransformFunctions/arm_rfft_q31.c ****     {
 549              	 .loc 1 84 0
 550 0018 0FD0     	 beq .L23
 103:../Dave/Generated/CMSIS_DSP/TransformFunctions/arm_rfft_q31.c **** 
 551              	 .loc 1 103 0
 552 001a 6379     	 ldrb r3,[r4,#5]
 553 001c 3046     	 mov r0,r6
 554              	.LVL64:
 555 001e FFF7FEFF 	 bl arm_cfft_q31
 556              	.LVL65:
 106:../Dave/Generated/CMSIS_DSP/TransformFunctions/arm_rfft_q31.c ****                             S->pTwiddleBReal, pDst, S->twidCoefRModifier);
 557              	 .loc 1 106 0
 558 0022 E268     	 ldr r2,[r4,#12]
 559 0024 2369     	 ldr r3,[r4,#16]
 560 0026 A468     	 ldr r4,[r4,#8]
 561              	.LVL66:
 562 0028 0194     	 str r4,[sp,#4]
 563 002a 0095     	 str r5,[sp]
 564 002c 4846     	 mov r0,r9
 565 002e 4146     	 mov r1,r8
 566 0030 FFF7FEFF 	 bl arm_split_rfft_q31
 567              	.LVL67:
 568              	.L15:
 109:../Dave/Generated/CMSIS_DSP/TransformFunctions/arm_rfft_q31.c **** 
 569              	 .loc 1 109 0
 570 0034 03B0     	 add sp,sp,#12
 571              	.LCFI8:
 572              	 .cfi_remember_state
 573              	 .cfi_def_cfa_offset 28
 574              	 
 575 0036 BDE8F083 	 pop {r4,r5,r6,r7,r8,r9,pc}
 576              	.LVL68:
 577              	.L23:
 578              	.LCFI9:
 579              	 .cfi_restore_state
  87:../Dave/Generated/CMSIS_DSP/TransformFunctions/arm_rfft_q31.c ****                             S->pTwiddleBReal, pDst, S->twidCoefRModifier);
 580              	 .loc 1 87 0
 581 003a 8768     	 ldr r7,[r0,#8]
 582 003c C268     	 ldr r2,[r0,#12]
 583 003e 0369     	 ldr r3,[r0,#16]
 584 0040 0095     	 str r5,[sp]
 585 0042 0846     	 mov r0,r1
 586              	.LVL69:
 587 0044 0197     	 str r7,[sp,#4]
 588 0046 4146     	 mov r1,r8
 589              	.LVL70:
 590 0048 FFF7FEFF 	 bl arm_split_rifft_q31
 591              	.LVL71:
  91:../Dave/Generated/CMSIS_DSP/TransformFunctions/arm_rfft_q31.c **** 
 592              	 .loc 1 91 0
 593 004c 6379     	 ldrb r3,[r4,#5]
 594 004e 2279     	 ldrb r2,[r4,#4]
 595 0050 3046     	 mov r0,r6
 596 0052 2946     	 mov r1,r5
 597 0054 FFF7FEFF 	 bl arm_cfft_q31
 598              	.LVL72:
  93:../Dave/Generated/CMSIS_DSP/TransformFunctions/arm_rfft_q31.c ****         {
 599              	 .loc 1 93 0
 600 0058 2368     	 ldr r3,[r4]
 601 005a 002B     	 cmp r3,#0
 602 005c EAD0     	 beq .L15
 603 005e 2A1F     	 subs r2,r5,#4
 604 0060 0021     	 movs r1,#0
 605              	.LVL73:
 606              	.L19:
  95:../Dave/Generated/CMSIS_DSP/TransformFunctions/arm_rfft_q31.c ****         }
 607              	 .loc 1 95 0 discriminator 3
 608 0062 52F8043F 	 ldr r3,[r2,#4]!
 609 0066 5B00     	 lsls r3,r3,#1
 610 0068 1360     	 str r3,[r2]
  93:../Dave/Generated/CMSIS_DSP/TransformFunctions/arm_rfft_q31.c ****         {
 611              	 .loc 1 93 0 discriminator 3
 612 006a 2368     	 ldr r3,[r4]
 613 006c 0131     	 adds r1,r1,#1
 614              	.LVL74:
 615 006e 8B42     	 cmp r3,r1
 616 0070 F7D8     	 bhi .L19
 109:../Dave/Generated/CMSIS_DSP/TransformFunctions/arm_rfft_q31.c **** 
 617              	 .loc 1 109 0
 618 0072 03B0     	 add sp,sp,#12
 619              	.LCFI10:
 620              	 .cfi_def_cfa_offset 28
 621              	 
 622 0074 BDE8F083 	 pop {r4,r5,r6,r7,r8,r9,pc}
 623              	 .cfi_endproc
 624              	.LFE135:
 626              	 .text
 627              	.Letext0:
 628              	 .file 2 "c:\\infineon\\tools\\dave ide\\4.5.0.202105191637\\eclipse\\arm-gcc-49\\arm-none-eabi\\include\\machine\\_default_types.h"
 629              	 .file 3 "c:\\infineon\\tools\\dave ide\\4.5.0.202105191637\\eclipse\\arm-gcc-49\\arm-none-eabi\\include\\stdint.h"
 630              	 .file 4 "C:/Users/Utente/Desktop/Tesi/Firmware_Software/DAVE project/S2GLP_Pulsed_Doppler/Dave/Generated/CMSIS_DSP/arm_math.h"