   1              	 .syntax unified
   2              	 .cpu cortex-m4
   3              	 .eabi_attribute 27,3
   4              	 .fpu fpv4-sp-d16
   5              	 .eabi_attribute 20,1
   6              	 .eabi_attribute 21,1
   7              	 .eabi_attribute 23,3
   8              	 .eabi_attribute 24,1
   9              	 .eabi_attribute 25,1
  10              	 .eabi_attribute 26,1
  11              	 .eabi_attribute 30,2
  12              	 .eabi_attribute 34,1
  13              	 .eabi_attribute 18,4
  14              	 .thumb
  15              	 .file "arm_bitreversal.c"
  16              	 .text
  17              	.Ltext0:
  18              	 .cfi_sections .debug_frame
  19              	 .section .text.arm_bitreversal_f32,"ax",%progbits
  20              	 .align 2
  21              	 .global arm_bitreversal_f32
  22              	 .thumb
  23              	 .thumb_func
  25              	arm_bitreversal_f32:
  26              	.LFB135:
  27              	 .file 1 "../Dave/Generated/CMSIS_DSP/TransformFunctions/arm_bitreversal.c"
   1:../Dave/Generated/CMSIS_DSP/TransformFunctions/arm_bitreversal.c **** /* ----------------------------------------------------------------------
   2:../Dave/Generated/CMSIS_DSP/TransformFunctions/arm_bitreversal.c ****  * Project:      CMSIS DSP Library
   3:../Dave/Generated/CMSIS_DSP/TransformFunctions/arm_bitreversal.c ****  * Title:        arm_bitreversal.c
   4:../Dave/Generated/CMSIS_DSP/TransformFunctions/arm_bitreversal.c ****  * Description:  Bitreversal functions
   5:../Dave/Generated/CMSIS_DSP/TransformFunctions/arm_bitreversal.c ****  *
   6:../Dave/Generated/CMSIS_DSP/TransformFunctions/arm_bitreversal.c ****  * $Date:        27. January 2017
   7:../Dave/Generated/CMSIS_DSP/TransformFunctions/arm_bitreversal.c ****  * $Revision:    V.1.5.1
   8:../Dave/Generated/CMSIS_DSP/TransformFunctions/arm_bitreversal.c ****  *
   9:../Dave/Generated/CMSIS_DSP/TransformFunctions/arm_bitreversal.c ****  * Target Processor: Cortex-M cores
  10:../Dave/Generated/CMSIS_DSP/TransformFunctions/arm_bitreversal.c ****  * -------------------------------------------------------------------- */
  11:../Dave/Generated/CMSIS_DSP/TransformFunctions/arm_bitreversal.c **** /*
  12:../Dave/Generated/CMSIS_DSP/TransformFunctions/arm_bitreversal.c ****  * Copyright (C) 2010-2017 ARM Limited or its affiliates. All rights reserved.
  13:../Dave/Generated/CMSIS_DSP/TransformFunctions/arm_bitreversal.c ****  *
  14:../Dave/Generated/CMSIS_DSP/TransformFunctions/arm_bitreversal.c ****  * SPDX-License-Identifier: Apache-2.0
  15:../Dave/Generated/CMSIS_DSP/TransformFunctions/arm_bitreversal.c ****  *
  16:../Dave/Generated/CMSIS_DSP/TransformFunctions/arm_bitreversal.c ****  * Licensed under the Apache License, Version 2.0 (the License); you may
  17:../Dave/Generated/CMSIS_DSP/TransformFunctions/arm_bitreversal.c ****  * not use this file except in compliance with the License.
  18:../Dave/Generated/CMSIS_DSP/TransformFunctions/arm_bitreversal.c ****  * You may obtain a copy of the License at
  19:../Dave/Generated/CMSIS_DSP/TransformFunctions/arm_bitreversal.c ****  *
  20:../Dave/Generated/CMSIS_DSP/TransformFunctions/arm_bitreversal.c ****  * www.apache.org/licenses/LICENSE-2.0
  21:../Dave/Generated/CMSIS_DSP/TransformFunctions/arm_bitreversal.c ****  *
  22:../Dave/Generated/CMSIS_DSP/TransformFunctions/arm_bitreversal.c ****  * Unless required by applicable law or agreed to in writing, software
  23:../Dave/Generated/CMSIS_DSP/TransformFunctions/arm_bitreversal.c ****  * distributed under the License is distributed on an AS IS BASIS, WITHOUT
  24:../Dave/Generated/CMSIS_DSP/TransformFunctions/arm_bitreversal.c ****  * WARRANTIES OR CONDITIONS OF ANY KIND, either express or implied.
  25:../Dave/Generated/CMSIS_DSP/TransformFunctions/arm_bitreversal.c ****  * See the License for the specific language governing permissions and
  26:../Dave/Generated/CMSIS_DSP/TransformFunctions/arm_bitreversal.c ****  * limitations under the License.
  27:../Dave/Generated/CMSIS_DSP/TransformFunctions/arm_bitreversal.c ****  */
  28:../Dave/Generated/CMSIS_DSP/TransformFunctions/arm_bitreversal.c **** 
  29:../Dave/Generated/CMSIS_DSP/TransformFunctions/arm_bitreversal.c **** #include "CMSIS_DSP/cmsis_dsp.h"
  30:../Dave/Generated/CMSIS_DSP/TransformFunctions/arm_bitreversal.c **** #include "CMSIS_DSP/arm_common_tables.h"
  31:../Dave/Generated/CMSIS_DSP/TransformFunctions/arm_bitreversal.c **** 
  32:../Dave/Generated/CMSIS_DSP/TransformFunctions/arm_bitreversal.c **** /*
  33:../Dave/Generated/CMSIS_DSP/TransformFunctions/arm_bitreversal.c **** * @brief  In-place bit reversal function.
  34:../Dave/Generated/CMSIS_DSP/TransformFunctions/arm_bitreversal.c **** * @param[in, out] *pSrc        points to the in-place buffer of floating-point data type.
  35:../Dave/Generated/CMSIS_DSP/TransformFunctions/arm_bitreversal.c **** * @param[in]      fftSize      length of the FFT.
  36:../Dave/Generated/CMSIS_DSP/TransformFunctions/arm_bitreversal.c **** * @param[in]      bitRevFactor bit reversal modifier that supports different size FFTs with the sam
  37:../Dave/Generated/CMSIS_DSP/TransformFunctions/arm_bitreversal.c **** * @param[in]      *pBitRevTab  points to the bit reversal table.
  38:../Dave/Generated/CMSIS_DSP/TransformFunctions/arm_bitreversal.c **** * @return none.
  39:../Dave/Generated/CMSIS_DSP/TransformFunctions/arm_bitreversal.c **** */
  40:../Dave/Generated/CMSIS_DSP/TransformFunctions/arm_bitreversal.c **** 
  41:../Dave/Generated/CMSIS_DSP/TransformFunctions/arm_bitreversal.c **** void arm_bitreversal_f32(
  42:../Dave/Generated/CMSIS_DSP/TransformFunctions/arm_bitreversal.c **** float32_t * pSrc,
  43:../Dave/Generated/CMSIS_DSP/TransformFunctions/arm_bitreversal.c **** uint16_t fftSize,
  44:../Dave/Generated/CMSIS_DSP/TransformFunctions/arm_bitreversal.c **** uint16_t bitRevFactor,
  45:../Dave/Generated/CMSIS_DSP/TransformFunctions/arm_bitreversal.c **** uint16_t * pBitRevTab)
  46:../Dave/Generated/CMSIS_DSP/TransformFunctions/arm_bitreversal.c **** {
  28              	 .loc 1 46 0
  29              	 .cfi_startproc
  30              	 
  31              	 
  32              	.LVL0:
  33 0000 2DE9F04F 	 push {r4,r5,r6,r7,r8,r9,r10,fp,lr}
  34              	.LCFI0:
  35              	 .cfi_def_cfa_offset 36
  36              	 .cfi_offset 4,-36
  37              	 .cfi_offset 5,-32
  38              	 .cfi_offset 6,-28
  39              	 .cfi_offset 7,-24
  40              	 .cfi_offset 8,-20
  41              	 .cfi_offset 9,-16
  42              	 .cfi_offset 10,-12
  43              	 .cfi_offset 11,-8
  44              	 .cfi_offset 14,-4
  45 0004 87B0     	 sub sp,sp,#28
  46              	.LCFI1:
  47              	 .cfi_def_cfa_offset 64
  47:../Dave/Generated/CMSIS_DSP/TransformFunctions/arm_bitreversal.c ****    uint16_t fftLenBy2, fftLenBy2p1;
  48:../Dave/Generated/CMSIS_DSP/TransformFunctions/arm_bitreversal.c ****    uint16_t i, j;
  49:../Dave/Generated/CMSIS_DSP/TransformFunctions/arm_bitreversal.c ****    float32_t in;
  50:../Dave/Generated/CMSIS_DSP/TransformFunctions/arm_bitreversal.c **** 
  51:../Dave/Generated/CMSIS_DSP/TransformFunctions/arm_bitreversal.c ****    /*  Initializations */
  52:../Dave/Generated/CMSIS_DSP/TransformFunctions/arm_bitreversal.c ****    j = 0u;
  53:../Dave/Generated/CMSIS_DSP/TransformFunctions/arm_bitreversal.c ****    fftLenBy2 = fftSize >> 1u;
  48              	 .loc 1 53 0
  49 0006 4908     	 lsrs r1,r1,#1
  50              	.LVL1:
  51 0008 5200     	 lsls r2,r2,#1
  52              	.LVL2:
  54:../Dave/Generated/CMSIS_DSP/TransformFunctions/arm_bitreversal.c ****    fftLenBy2p1 = (fftSize >> 1u) + 1u;
  55:../Dave/Generated/CMSIS_DSP/TransformFunctions/arm_bitreversal.c **** 
  56:../Dave/Generated/CMSIS_DSP/TransformFunctions/arm_bitreversal.c ****    /* Bit Reversal Implementation */
  57:../Dave/Generated/CMSIS_DSP/TransformFunctions/arm_bitreversal.c ****    for (i = 0u; i <= (fftLenBy2 - 2u); i += 2u)
  53              	 .loc 1 57 0
  54 000a 0025     	 movs r5,#0
  55 000c 0592     	 str r2,[sp,#20]
  56 000e 8A1E     	 subs r2,r1,#2
  57 0010 0492     	 str r2,[sp,#16]
  53:../Dave/Generated/CMSIS_DSP/TransformFunctions/arm_bitreversal.c ****    fftLenBy2p1 = (fftSize >> 1u) + 1u;
  58              	 .loc 1 53 0
  59 0012 0391     	 str r1,[sp,#12]
  60              	.LVL3:
  54:../Dave/Generated/CMSIS_DSP/TransformFunctions/arm_bitreversal.c ****    fftLenBy2p1 = (fftSize >> 1u) + 1u;
  61              	 .loc 1 54 0
  62 0014 01F10108 	 add r8,r1,#1
  63              	.LVL4:
  64              	 .loc 1 57 0
  65 0018 2A46     	 mov r2,r5
  66 001a 2C46     	 mov r4,r5
  67 001c 0193     	 str r3,[sp,#4]
  68              	.LVL5:
  69              	.L2:
  58:../Dave/Generated/CMSIS_DSP/TransformFunctions/arm_bitreversal.c ****    {
  59:../Dave/Generated/CMSIS_DSP/TransformFunctions/arm_bitreversal.c ****       if (i < j)
  60:../Dave/Generated/CMSIS_DSP/TransformFunctions/arm_bitreversal.c ****       {
  61:../Dave/Generated/CMSIS_DSP/TransformFunctions/arm_bitreversal.c ****          /*  pSrc[i] <-> pSrc[j]; */
  62:../Dave/Generated/CMSIS_DSP/TransformFunctions/arm_bitreversal.c ****          in = pSrc[2u * i];
  63:../Dave/Generated/CMSIS_DSP/TransformFunctions/arm_bitreversal.c ****          pSrc[2u * i] = pSrc[2u * j];
  64:../Dave/Generated/CMSIS_DSP/TransformFunctions/arm_bitreversal.c ****          pSrc[2u * j] = in;
  65:../Dave/Generated/CMSIS_DSP/TransformFunctions/arm_bitreversal.c **** 
  66:../Dave/Generated/CMSIS_DSP/TransformFunctions/arm_bitreversal.c ****          /*  pSrc[i+1u] <-> pSrc[j+1u] */
  67:../Dave/Generated/CMSIS_DSP/TransformFunctions/arm_bitreversal.c ****          in = pSrc[(2u * i) + 1u];
  68:../Dave/Generated/CMSIS_DSP/TransformFunctions/arm_bitreversal.c ****          pSrc[(2u * i) + 1u] = pSrc[(2u * j) + 1u];
  69:../Dave/Generated/CMSIS_DSP/TransformFunctions/arm_bitreversal.c ****          pSrc[(2u * j) + 1u] = in;
  70:../Dave/Generated/CMSIS_DSP/TransformFunctions/arm_bitreversal.c **** 
  71:../Dave/Generated/CMSIS_DSP/TransformFunctions/arm_bitreversal.c ****          /*  pSrc[i+fftLenBy2p1] <-> pSrc[j+fftLenBy2p1] */
  72:../Dave/Generated/CMSIS_DSP/TransformFunctions/arm_bitreversal.c ****          in = pSrc[2u * (i + fftLenBy2p1)];
  73:../Dave/Generated/CMSIS_DSP/TransformFunctions/arm_bitreversal.c ****          pSrc[2u * (i + fftLenBy2p1)] = pSrc[2u * (j + fftLenBy2p1)];
  74:../Dave/Generated/CMSIS_DSP/TransformFunctions/arm_bitreversal.c ****          pSrc[2u * (j + fftLenBy2p1)] = in;
  75:../Dave/Generated/CMSIS_DSP/TransformFunctions/arm_bitreversal.c **** 
  76:../Dave/Generated/CMSIS_DSP/TransformFunctions/arm_bitreversal.c ****          /*  pSrc[i+fftLenBy2p1+1u] <-> pSrc[j+fftLenBy2p1+1u] */
  77:../Dave/Generated/CMSIS_DSP/TransformFunctions/arm_bitreversal.c ****          in = pSrc[(2u * (i + fftLenBy2p1)) + 1u];
  78:../Dave/Generated/CMSIS_DSP/TransformFunctions/arm_bitreversal.c ****          pSrc[(2u * (i + fftLenBy2p1)) + 1u] =
  79:../Dave/Generated/CMSIS_DSP/TransformFunctions/arm_bitreversal.c ****          pSrc[(2u * (j + fftLenBy2p1)) + 1u];
  80:../Dave/Generated/CMSIS_DSP/TransformFunctions/arm_bitreversal.c ****          pSrc[(2u * (j + fftLenBy2p1)) + 1u] = in;
  81:../Dave/Generated/CMSIS_DSP/TransformFunctions/arm_bitreversal.c **** 
  82:../Dave/Generated/CMSIS_DSP/TransformFunctions/arm_bitreversal.c ****       }
  83:../Dave/Generated/CMSIS_DSP/TransformFunctions/arm_bitreversal.c **** 
  84:../Dave/Generated/CMSIS_DSP/TransformFunctions/arm_bitreversal.c ****       /*  pSrc[i+1u] <-> pSrc[j+1u] */
  85:../Dave/Generated/CMSIS_DSP/TransformFunctions/arm_bitreversal.c ****       in = pSrc[2u * (i + 1u)];
  70              	 .loc 1 85 0 discriminator 2
  71 001e 611C     	 adds r1,r4,#1
  86:../Dave/Generated/CMSIS_DSP/TransformFunctions/arm_bitreversal.c ****       pSrc[2u * (i + 1u)] = pSrc[2u * (j + fftLenBy2)];
  72              	 .loc 1 86 0 discriminator 2
  73 0020 039C     	 ldr r4,[sp,#12]
  87:../Dave/Generated/CMSIS_DSP/TransformFunctions/arm_bitreversal.c ****       pSrc[2u * (j + fftLenBy2)] = in;
  88:../Dave/Generated/CMSIS_DSP/TransformFunctions/arm_bitreversal.c **** 
  89:../Dave/Generated/CMSIS_DSP/TransformFunctions/arm_bitreversal.c ****       /*  pSrc[i+2u] <-> pSrc[j+2u] */
  90:../Dave/Generated/CMSIS_DSP/TransformFunctions/arm_bitreversal.c ****       in = pSrc[(2u * (i + 1u)) + 1u];
  91:../Dave/Generated/CMSIS_DSP/TransformFunctions/arm_bitreversal.c ****       pSrc[(2u * (i + 1u)) + 1u] = pSrc[(2u * (j + fftLenBy2)) + 1u];
  92:../Dave/Generated/CMSIS_DSP/TransformFunctions/arm_bitreversal.c ****       pSrc[(2u * (j + fftLenBy2)) + 1u] = in;
  93:../Dave/Generated/CMSIS_DSP/TransformFunctions/arm_bitreversal.c **** 
  94:../Dave/Generated/CMSIS_DSP/TransformFunctions/arm_bitreversal.c ****       /*  Reading the index for the bit reversal */
  95:../Dave/Generated/CMSIS_DSP/TransformFunctions/arm_bitreversal.c ****       j = *pBitRevTab;
  74              	 .loc 1 95 0 discriminator 2
  75 0022 019B     	 ldr r3,[sp,#4]
  86:../Dave/Generated/CMSIS_DSP/TransformFunctions/arm_bitreversal.c ****       pSrc[2u * (i + 1u)] = pSrc[2u * (j + fftLenBy2)];
  76              	 .loc 1 86 0 discriminator 2
  77 0024 2244     	 add r2,r2,r4
  78 0026 D400     	 lsls r4,r2,#3
  85:../Dave/Generated/CMSIS_DSP/TransformFunctions/arm_bitreversal.c ****       pSrc[2u * (i + 1u)] = pSrc[2u * (j + fftLenBy2)];
  79              	 .loc 1 85 0 discriminator 2
  80 0028 C900     	 lsls r1,r1,#3
  81 002a 4618     	 adds r6,r0,r1
  86:../Dave/Generated/CMSIS_DSP/TransformFunctions/arm_bitreversal.c ****       pSrc[2u * (i + 1u)] = pSrc[2u * (j + fftLenBy2)];
  82              	 .loc 1 86 0 discriminator 2
  83 002c 0719     	 adds r7,r0,r4
  57:../Dave/Generated/CMSIS_DSP/TransformFunctions/arm_bitreversal.c ****    {
  84              	 .loc 1 57 0 discriminator 2
  85 002e 0235     	 adds r5,r5,#2
  85:../Dave/Generated/CMSIS_DSP/TransformFunctions/arm_bitreversal.c ****       pSrc[2u * (i + 1u)] = pSrc[2u * (j + fftLenBy2)];
  86              	 .loc 1 85 0 discriminator 2
  87 0030 D6F800E0 	 ldr lr,[r6]
  88              	.LVL6:
  86:../Dave/Generated/CMSIS_DSP/TransformFunctions/arm_bitreversal.c ****       pSrc[2u * (j + fftLenBy2)] = in;
  89              	 .loc 1 86 0 discriminator 2
  90 0034 D7F800C0 	 ldr ip,[r7]
  91              	 .loc 1 95 0 discriminator 2
  92 0038 1A88     	 ldrh r2,[r3]
  93              	.LVL7:
  86:../Dave/Generated/CMSIS_DSP/TransformFunctions/arm_bitreversal.c ****       pSrc[2u * (j + fftLenBy2)] = in;
  94              	 .loc 1 86 0 discriminator 2
  95 003a C6F800C0 	 str ip,[r6]
  57:../Dave/Generated/CMSIS_DSP/TransformFunctions/arm_bitreversal.c ****    {
  96              	 .loc 1 57 0 discriminator 2
  97 003e ADB2     	 uxth r5,r5
  91:../Dave/Generated/CMSIS_DSP/TransformFunctions/arm_bitreversal.c ****       pSrc[(2u * (j + fftLenBy2)) + 1u] = in;
  98              	 .loc 1 91 0 discriminator 2
  99 0040 0434     	 adds r4,r4,#4
  87:../Dave/Generated/CMSIS_DSP/TransformFunctions/arm_bitreversal.c **** 
 100              	 .loc 1 87 0 discriminator 2
 101 0042 C7F800E0 	 str lr,[r7]
  91:../Dave/Generated/CMSIS_DSP/TransformFunctions/arm_bitreversal.c ****       pSrc[(2u * (j + fftLenBy2)) + 1u] = in;
 102              	 .loc 1 91 0 discriminator 2
 103 0046 0444     	 add r4,r4,r0
  72:../Dave/Generated/CMSIS_DSP/TransformFunctions/arm_bitreversal.c ****          pSrc[2u * (i + fftLenBy2p1)] = pSrc[2u * (j + fftLenBy2p1)];
 104              	 .loc 1 72 0 discriminator 2
 105 0048 05EB0807 	 add r7,r5,r8
  91:../Dave/Generated/CMSIS_DSP/TransformFunctions/arm_bitreversal.c ****       pSrc[(2u * (j + fftLenBy2)) + 1u] = in;
 106              	 .loc 1 91 0 discriminator 2
 107 004c 94ED007A 	 flds s14,[r4]
  72:../Dave/Generated/CMSIS_DSP/TransformFunctions/arm_bitreversal.c ****          pSrc[2u * (i + fftLenBy2p1)] = pSrc[2u * (j + fftLenBy2p1)];
 108              	 .loc 1 72 0 discriminator 2
 109 0050 FF00     	 lsls r7,r7,#3
  90:../Dave/Generated/CMSIS_DSP/TransformFunctions/arm_bitreversal.c ****       pSrc[(2u * (i + 1u)) + 1u] = pSrc[(2u * (j + fftLenBy2)) + 1u];
 110              	 .loc 1 90 0 discriminator 2
 111 0052 0431     	 adds r1,r1,#4
 112 0054 0144     	 add r1,r1,r0
  72:../Dave/Generated/CMSIS_DSP/TransformFunctions/arm_bitreversal.c ****          pSrc[2u * (i + fftLenBy2p1)] = pSrc[2u * (j + fftLenBy2p1)];
 113              	 .loc 1 72 0 discriminator 2
 114 0056 C319     	 adds r3,r0,r7
  90:../Dave/Generated/CMSIS_DSP/TransformFunctions/arm_bitreversal.c ****       pSrc[(2u * (i + 1u)) + 1u] = pSrc[(2u * (j + fftLenBy2)) + 1u];
 115              	 .loc 1 90 0 discriminator 2
 116 0058 D1ED007A 	 flds s15,[r1]
 117              	.LVL8:
  72:../Dave/Generated/CMSIS_DSP/TransformFunctions/arm_bitreversal.c ****          pSrc[2u * (i + fftLenBy2p1)] = pSrc[2u * (j + fftLenBy2p1)];
 118              	 .loc 1 72 0 discriminator 2
 119 005c 0293     	 str r3,[sp,#8]
  63:../Dave/Generated/CMSIS_DSP/TransformFunctions/arm_bitreversal.c ****          pSrc[2u * j] = in;
 120              	 .loc 1 63 0 discriminator 2
 121 005e D600     	 lsls r6,r2,#3
  91:../Dave/Generated/CMSIS_DSP/TransformFunctions/arm_bitreversal.c ****       pSrc[(2u * (j + fftLenBy2)) + 1u] = in;
 122              	 .loc 1 91 0 discriminator 2
 123 0060 81ED007A 	 fsts s14,[r1]
  96:../Dave/Generated/CMSIS_DSP/TransformFunctions/arm_bitreversal.c **** 
  97:../Dave/Generated/CMSIS_DSP/TransformFunctions/arm_bitreversal.c ****       /*  Updating the bit reversal index depending on the fft length  */
  98:../Dave/Generated/CMSIS_DSP/TransformFunctions/arm_bitreversal.c ****       pBitRevTab += bitRevFactor;
 124              	 .loc 1 98 0 discriminator 2
 125 0064 059B     	 ldr r3,[sp,#20]
 126 0066 0199     	 ldr r1,[sp,#4]
  92:../Dave/Generated/CMSIS_DSP/TransformFunctions/arm_bitreversal.c **** 
 127              	 .loc 1 92 0 discriminator 2
 128 0068 C4ED007A 	 fsts s15,[r4]
  63:../Dave/Generated/CMSIS_DSP/TransformFunctions/arm_bitreversal.c ****          pSrc[2u * j] = in;
 129              	 .loc 1 63 0 discriminator 2
 130 006c 00EB060B 	 add fp,r0,r6
  68:../Dave/Generated/CMSIS_DSP/TransformFunctions/arm_bitreversal.c ****          pSrc[(2u * j) + 1u] = in;
 131              	 .loc 1 68 0 discriminator 2
 132 0070 0436     	 adds r6,r6,#4
 133              	 .loc 1 98 0 discriminator 2
 134 0072 1944     	 add r1,r1,r3
  68:../Dave/Generated/CMSIS_DSP/TransformFunctions/arm_bitreversal.c ****          pSrc[(2u * j) + 1u] = in;
 135              	 .loc 1 68 0 discriminator 2
 136 0074 00EB060C 	 add ip,r0,r6
  57:../Dave/Generated/CMSIS_DSP/TransformFunctions/arm_bitreversal.c ****    {
 137              	 .loc 1 57 0 discriminator 2
 138 0078 049B     	 ldr r3,[sp,#16]
 139              	 .loc 1 98 0 discriminator 2
 140 007a 0191     	 str r1,[sp,#4]
 141              	.LVL9:
  73:../Dave/Generated/CMSIS_DSP/TransformFunctions/arm_bitreversal.c ****          pSrc[2u * (j + fftLenBy2p1)] = in;
 142              	 .loc 1 73 0 discriminator 2
 143 007c 08EB0206 	 add r6,r8,r2
 144 0080 F600     	 lsls r6,r6,#3
  62:../Dave/Generated/CMSIS_DSP/TransformFunctions/arm_bitreversal.c ****          pSrc[2u * i] = pSrc[2u * j];
 145              	 .loc 1 62 0 discriminator 2
 146 0082 4FEAC50E 	 lsl lr,r5,#3
  73:../Dave/Generated/CMSIS_DSP/TransformFunctions/arm_bitreversal.c ****          pSrc[2u * (j + fftLenBy2p1)] = in;
 147              	 .loc 1 73 0 discriminator 2
 148 0086 00EB060A 	 add r10,r0,r6
  62:../Dave/Generated/CMSIS_DSP/TransformFunctions/arm_bitreversal.c ****          pSrc[2u * i] = pSrc[2u * j];
 149              	 .loc 1 62 0 discriminator 2
 150 008a 00EB0E09 	 add r9,r0,lr
  77:../Dave/Generated/CMSIS_DSP/TransformFunctions/arm_bitreversal.c ****          pSrc[(2u * (i + fftLenBy2p1)) + 1u] =
 151              	 .loc 1 77 0 discriminator 2
 152 008e 0437     	 adds r7,r7,#4
  67:../Dave/Generated/CMSIS_DSP/TransformFunctions/arm_bitreversal.c ****          pSrc[(2u * i) + 1u] = pSrc[(2u * j) + 1u];
 153              	 .loc 1 67 0 discriminator 2
 154 0090 0EF1040E 	 add lr,lr,#4
  79:../Dave/Generated/CMSIS_DSP/TransformFunctions/arm_bitreversal.c ****          pSrc[(2u * (j + fftLenBy2p1)) + 1u] = in;
 155              	 .loc 1 79 0 discriminator 2
 156 0094 0436     	 adds r6,r6,#4
  57:../Dave/Generated/CMSIS_DSP/TransformFunctions/arm_bitreversal.c ****    {
 157              	 .loc 1 57 0 discriminator 2
 158 0096 9D42     	 cmp r5,r3
  67:../Dave/Generated/CMSIS_DSP/TransformFunctions/arm_bitreversal.c ****          pSrc[(2u * i) + 1u] = pSrc[(2u * j) + 1u];
 159              	 .loc 1 67 0 discriminator 2
 160 0098 8644     	 add lr,lr,r0
  57:../Dave/Generated/CMSIS_DSP/TransformFunctions/arm_bitreversal.c ****    {
 161              	 .loc 1 57 0 discriminator 2
 162 009a 2C46     	 mov r4,r5
  77:../Dave/Generated/CMSIS_DSP/TransformFunctions/arm_bitreversal.c ****          pSrc[(2u * (i + fftLenBy2p1)) + 1u] =
 163              	 .loc 1 77 0 discriminator 2
 164 009c 0744     	 add r7,r7,r0
  79:../Dave/Generated/CMSIS_DSP/TransformFunctions/arm_bitreversal.c ****          pSrc[(2u * (j + fftLenBy2p1)) + 1u] = in;
 165              	 .loc 1 79 0 discriminator 2
 166 009e 0644     	 add r6,r6,r0
  57:../Dave/Generated/CMSIS_DSP/TransformFunctions/arm_bitreversal.c ****    {
 167              	 .loc 1 57 0 discriminator 2
 168 00a0 20D8     	 bhi .L7
  59:../Dave/Generated/CMSIS_DSP/TransformFunctions/arm_bitreversal.c ****       {
 169              	 .loc 1 59 0
 170 00a2 AA42     	 cmp r2,r5
 171 00a4 BBD9     	 bls .L2
  63:../Dave/Generated/CMSIS_DSP/TransformFunctions/arm_bitreversal.c ****          pSrc[2u * j] = in;
 172              	 .loc 1 63 0
 173 00a6 DBED007A 	 flds s15,[fp]
 174              	.LVL10:
  62:../Dave/Generated/CMSIS_DSP/TransformFunctions/arm_bitreversal.c ****          pSrc[2u * i] = pSrc[2u * j];
 175              	 .loc 1 62 0
 176 00aa D9F80010 	 ldr r1,[r9]
 177              	.LVL11:
  63:../Dave/Generated/CMSIS_DSP/TransformFunctions/arm_bitreversal.c ****          pSrc[2u * j] = in;
 178              	 .loc 1 63 0
 179 00ae C9ED007A 	 fsts s15,[r9]
  64:../Dave/Generated/CMSIS_DSP/TransformFunctions/arm_bitreversal.c **** 
 180              	 .loc 1 64 0
 181 00b2 CBF80010 	 str r1,[fp]
  67:../Dave/Generated/CMSIS_DSP/TransformFunctions/arm_bitreversal.c ****          pSrc[(2u * i) + 1u] = pSrc[(2u * j) + 1u];
 182              	 .loc 1 67 0
 183 00b6 DEF80010 	 ldr r1,[lr]
 184              	.LVL12:
  68:../Dave/Generated/CMSIS_DSP/TransformFunctions/arm_bitreversal.c ****          pSrc[(2u * j) + 1u] = in;
 185              	 .loc 1 68 0
 186 00ba DCF80090 	 ldr r9,[ip]
  72:../Dave/Generated/CMSIS_DSP/TransformFunctions/arm_bitreversal.c ****          pSrc[2u * (i + fftLenBy2p1)] = pSrc[2u * (j + fftLenBy2p1)];
 187              	 .loc 1 72 0
 188 00be 029B     	 ldr r3,[sp,#8]
  68:../Dave/Generated/CMSIS_DSP/TransformFunctions/arm_bitreversal.c ****          pSrc[(2u * j) + 1u] = in;
 189              	 .loc 1 68 0
 190 00c0 CEF80090 	 str r9,[lr]
  69:../Dave/Generated/CMSIS_DSP/TransformFunctions/arm_bitreversal.c **** 
 191              	 .loc 1 69 0
 192 00c4 CCF80010 	 str r1,[ip]
  72:../Dave/Generated/CMSIS_DSP/TransformFunctions/arm_bitreversal.c ****          pSrc[2u * (i + fftLenBy2p1)] = pSrc[2u * (j + fftLenBy2p1)];
 193              	 .loc 1 72 0
 194 00c8 1968     	 ldr r1,[r3]
 195              	.LVL13:
  73:../Dave/Generated/CMSIS_DSP/TransformFunctions/arm_bitreversal.c ****          pSrc[2u * (j + fftLenBy2p1)] = in;
 196              	 .loc 1 73 0
 197 00ca DAF800E0 	 ldr lr,[r10]
 198 00ce C3F800E0 	 str lr,[r3]
  74:../Dave/Generated/CMSIS_DSP/TransformFunctions/arm_bitreversal.c **** 
 199              	 .loc 1 74 0
 200 00d2 CAF80010 	 str r1,[r10]
  77:../Dave/Generated/CMSIS_DSP/TransformFunctions/arm_bitreversal.c ****          pSrc[(2u * (i + fftLenBy2p1)) + 1u] =
 201              	 .loc 1 77 0
 202 00d6 3968     	 ldr r1,[r7]
 203              	.LVL14:
  79:../Dave/Generated/CMSIS_DSP/TransformFunctions/arm_bitreversal.c ****          pSrc[(2u * (j + fftLenBy2p1)) + 1u] = in;
 204              	 .loc 1 79 0
 205 00d8 D6F800E0 	 ldr lr,[r6]
  78:../Dave/Generated/CMSIS_DSP/TransformFunctions/arm_bitreversal.c ****          pSrc[(2u * (j + fftLenBy2p1)) + 1u];
 206              	 .loc 1 78 0
 207 00dc C7F800E0 	 str lr,[r7]
  80:../Dave/Generated/CMSIS_DSP/TransformFunctions/arm_bitreversal.c **** 
 208              	 .loc 1 80 0
 209 00e0 3160     	 str r1,[r6]
 210 00e2 9CE7     	 b .L2
 211              	.LVL15:
 212              	.L7:
  99:../Dave/Generated/CMSIS_DSP/TransformFunctions/arm_bitreversal.c ****    }
 100:../Dave/Generated/CMSIS_DSP/TransformFunctions/arm_bitreversal.c **** }
 213              	 .loc 1 100 0
 214 00e4 07B0     	 add sp,sp,#28
 215              	.LCFI2:
 216              	 .cfi_def_cfa_offset 36
 217              	 
 218 00e6 BDE8F08F 	 pop {r4,r5,r6,r7,r8,r9,r10,fp,pc}
 219              	 .cfi_endproc
 220              	.LFE135:
 222 00ea 00BF     	 .section .text.arm_bitreversal_q31,"ax",%progbits
 223              	 .align 2
 224              	 .global arm_bitreversal_q31
 225              	 .thumb
 226              	 .thumb_func
 228              	arm_bitreversal_q31:
 229              	.LFB136:
 101:../Dave/Generated/CMSIS_DSP/TransformFunctions/arm_bitreversal.c **** 
 102:../Dave/Generated/CMSIS_DSP/TransformFunctions/arm_bitreversal.c **** 
 103:../Dave/Generated/CMSIS_DSP/TransformFunctions/arm_bitreversal.c **** 
 104:../Dave/Generated/CMSIS_DSP/TransformFunctions/arm_bitreversal.c **** /*
 105:../Dave/Generated/CMSIS_DSP/TransformFunctions/arm_bitreversal.c **** * @brief  In-place bit reversal function.
 106:../Dave/Generated/CMSIS_DSP/TransformFunctions/arm_bitreversal.c **** * @param[in, out] *pSrc        points to the in-place buffer of Q31 data type.
 107:../Dave/Generated/CMSIS_DSP/TransformFunctions/arm_bitreversal.c **** * @param[in]      fftLen       length of the FFT.
 108:../Dave/Generated/CMSIS_DSP/TransformFunctions/arm_bitreversal.c **** * @param[in]      bitRevFactor bit reversal modifier that supports different size FFTs with the sam
 109:../Dave/Generated/CMSIS_DSP/TransformFunctions/arm_bitreversal.c **** * @param[in]      *pBitRevTab  points to bit reversal table.
 110:../Dave/Generated/CMSIS_DSP/TransformFunctions/arm_bitreversal.c **** * @return none.
 111:../Dave/Generated/CMSIS_DSP/TransformFunctions/arm_bitreversal.c **** */
 112:../Dave/Generated/CMSIS_DSP/TransformFunctions/arm_bitreversal.c **** 
 113:../Dave/Generated/CMSIS_DSP/TransformFunctions/arm_bitreversal.c **** void arm_bitreversal_q31(
 114:../Dave/Generated/CMSIS_DSP/TransformFunctions/arm_bitreversal.c **** q31_t * pSrc,
 115:../Dave/Generated/CMSIS_DSP/TransformFunctions/arm_bitreversal.c **** uint32_t fftLen,
 116:../Dave/Generated/CMSIS_DSP/TransformFunctions/arm_bitreversal.c **** uint16_t bitRevFactor,
 117:../Dave/Generated/CMSIS_DSP/TransformFunctions/arm_bitreversal.c **** uint16_t * pBitRevTable)
 118:../Dave/Generated/CMSIS_DSP/TransformFunctions/arm_bitreversal.c **** {
 230              	 .loc 1 118 0
 231              	 .cfi_startproc
 232              	 
 233              	 
 234              	.LVL16:
 235 0000 2DE9F04F 	 push {r4,r5,r6,r7,r8,r9,r10,fp,lr}
 236              	.LCFI3:
 237              	 .cfi_def_cfa_offset 36
 238              	 .cfi_offset 4,-36
 239              	 .cfi_offset 5,-32
 240              	 .cfi_offset 6,-28
 241              	 .cfi_offset 7,-24
 242              	 .cfi_offset 8,-20
 243              	 .cfi_offset 9,-16
 244              	 .cfi_offset 10,-12
 245              	 .cfi_offset 11,-8
 246              	 .cfi_offset 14,-4
 119:../Dave/Generated/CMSIS_DSP/TransformFunctions/arm_bitreversal.c ****    uint32_t fftLenBy2, fftLenBy2p1, i, j;
 120:../Dave/Generated/CMSIS_DSP/TransformFunctions/arm_bitreversal.c ****    q31_t in;
 121:../Dave/Generated/CMSIS_DSP/TransformFunctions/arm_bitreversal.c **** 
 122:../Dave/Generated/CMSIS_DSP/TransformFunctions/arm_bitreversal.c ****    /*  Initializations      */
 123:../Dave/Generated/CMSIS_DSP/TransformFunctions/arm_bitreversal.c ****    j = 0u;
 124:../Dave/Generated/CMSIS_DSP/TransformFunctions/arm_bitreversal.c ****    fftLenBy2 = fftLen / 2u;
 247              	 .loc 1 124 0
 248 0004 4908     	 lsrs r1,r1,#1
 249              	.LVL17:
 118:../Dave/Generated/CMSIS_DSP/TransformFunctions/arm_bitreversal.c ****    uint32_t fftLenBy2, fftLenBy2p1, i, j;
 250              	 .loc 1 118 0
 251 0006 83B0     	 sub sp,sp,#12
 252              	.LCFI4:
 253              	 .cfi_def_cfa_offset 48
 125:../Dave/Generated/CMSIS_DSP/TransformFunctions/arm_bitreversal.c ****    fftLenBy2p1 = (fftLen / 2u) + 1u;
 126:../Dave/Generated/CMSIS_DSP/TransformFunctions/arm_bitreversal.c **** 
 127:../Dave/Generated/CMSIS_DSP/TransformFunctions/arm_bitreversal.c ****    /* Bit Reversal Implementation */
 128:../Dave/Generated/CMSIS_DSP/TransformFunctions/arm_bitreversal.c ****    for (i = 0u; i <= (fftLenBy2 - 2u); i += 2u)
 254              	 .loc 1 128 0
 255 0008 0027     	 movs r7,#0
 256 000a 4FEA420B 	 lsl fp,r2,#1
 257 000e 8A1E     	 subs r2,r1,#2
 258              	.LVL18:
 125:../Dave/Generated/CMSIS_DSP/TransformFunctions/arm_bitreversal.c ****    fftLenBy2p1 = (fftLen / 2u) + 1u;
 259              	 .loc 1 125 0
 260 0010 01F1010A 	 add r10,r1,#1
 261              	.LVL19:
 262              	 .loc 1 128 0
 263 0014 0192     	 str r2,[sp,#4]
 264 0016 0546     	 mov r5,r0
 265 0018 00EBC108 	 add r8,r0,r1,lsl#3
 123:../Dave/Generated/CMSIS_DSP/TransformFunctions/arm_bitreversal.c ****    fftLenBy2 = fftLen / 2u;
 266              	 .loc 1 123 0
 267 001c 3C46     	 mov r4,r7
 268 001e 8946     	 mov r9,r1
 269 0020 1EE0     	 b .L9
 270              	.LVL20:
 271              	.L11:
 129:../Dave/Generated/CMSIS_DSP/TransformFunctions/arm_bitreversal.c ****    {
 130:../Dave/Generated/CMSIS_DSP/TransformFunctions/arm_bitreversal.c ****       if (i < j)
 272              	 .loc 1 130 0
 273 0022 BC42     	 cmp r4,r7
 274 0024 19D9     	 bls .L10
 131:../Dave/Generated/CMSIS_DSP/TransformFunctions/arm_bitreversal.c ****       {
 132:../Dave/Generated/CMSIS_DSP/TransformFunctions/arm_bitreversal.c ****          /*  pSrc[i] <-> pSrc[j]; */
 133:../Dave/Generated/CMSIS_DSP/TransformFunctions/arm_bitreversal.c ****          in = pSrc[2u * i];
 134:../Dave/Generated/CMSIS_DSP/TransformFunctions/arm_bitreversal.c ****          pSrc[2u * i] = pSrc[2u * j];
 275              	 .loc 1 134 0
 276 0026 50F83410 	 ldr r1,[r0,r4,lsl#3]
 277              	.LVL21:
 133:../Dave/Generated/CMSIS_DSP/TransformFunctions/arm_bitreversal.c ****          pSrc[2u * i] = pSrc[2u * j];
 278              	 .loc 1 133 0
 279 002a 2A69     	 ldr r2,[r5,#16]
 280              	.LVL22:
 281              	 .loc 1 134 0
 282 002c 2961     	 str r1,[r5,#16]
 135:../Dave/Generated/CMSIS_DSP/TransformFunctions/arm_bitreversal.c ****          pSrc[2u * j] = in;
 283              	 .loc 1 135 0
 284 002e 40F83420 	 str r2,[r0,r4,lsl#3]
 136:../Dave/Generated/CMSIS_DSP/TransformFunctions/arm_bitreversal.c **** 
 137:../Dave/Generated/CMSIS_DSP/TransformFunctions/arm_bitreversal.c ****          /*  pSrc[i+1u] <-> pSrc[j+1u] */
 138:../Dave/Generated/CMSIS_DSP/TransformFunctions/arm_bitreversal.c ****          in = pSrc[(2u * i) + 1u];
 285              	 .loc 1 138 0
 286 0032 6A69     	 ldr r2,[r5,#20]
 287              	.LVL23:
 139:../Dave/Generated/CMSIS_DSP/TransformFunctions/arm_bitreversal.c ****          pSrc[(2u * i) + 1u] = pSrc[(2u * j) + 1u];
 288              	 .loc 1 139 0
 289 0034 50F80E10 	 ldr r1,[r0,lr]
 290 0038 6961     	 str r1,[r5,#20]
 140:../Dave/Generated/CMSIS_DSP/TransformFunctions/arm_bitreversal.c ****          pSrc[(2u * j) + 1u] = in;
 291              	 .loc 1 140 0
 292 003a 40F80E20 	 str r2,[r0,lr]
 141:../Dave/Generated/CMSIS_DSP/TransformFunctions/arm_bitreversal.c **** 
 142:../Dave/Generated/CMSIS_DSP/TransformFunctions/arm_bitreversal.c ****          /*  pSrc[i+fftLenBy2p1] <-> pSrc[j+fftLenBy2p1] */
 143:../Dave/Generated/CMSIS_DSP/TransformFunctions/arm_bitreversal.c ****          in = pSrc[2u * (i + fftLenBy2p1)];
 144:../Dave/Generated/CMSIS_DSP/TransformFunctions/arm_bitreversal.c ****          pSrc[2u * (i + fftLenBy2p1)] = pSrc[2u * (j + fftLenBy2p1)];
 293              	 .loc 1 144 0
 294 003e 50F83C20 	 ldr r2,[r0,ip,lsl#3]
 295              	.LVL24:
 143:../Dave/Generated/CMSIS_DSP/TransformFunctions/arm_bitreversal.c ****          pSrc[2u * (i + fftLenBy2p1)] = pSrc[2u * (j + fftLenBy2p1)];
 296              	 .loc 1 143 0
 297 0042 D8F81810 	 ldr r1,[r8,#24]
 298              	.LVL25:
 299              	 .loc 1 144 0
 300 0046 C8F81820 	 str r2,[r8,#24]
 145:../Dave/Generated/CMSIS_DSP/TransformFunctions/arm_bitreversal.c ****          pSrc[2u * (j + fftLenBy2p1)] = in;
 301              	 .loc 1 145 0
 302 004a 40F83C10 	 str r1,[r0,ip,lsl#3]
 146:../Dave/Generated/CMSIS_DSP/TransformFunctions/arm_bitreversal.c **** 
 147:../Dave/Generated/CMSIS_DSP/TransformFunctions/arm_bitreversal.c ****          /*  pSrc[i+fftLenBy2p1+1u] <-> pSrc[j+fftLenBy2p1+1u] */
 148:../Dave/Generated/CMSIS_DSP/TransformFunctions/arm_bitreversal.c ****          in = pSrc[(2u * (i + fftLenBy2p1)) + 1u];
 303              	 .loc 1 148 0
 304 004e D8F81C10 	 ldr r1,[r8,#28]
 305              	.LVL26:
 149:../Dave/Generated/CMSIS_DSP/TransformFunctions/arm_bitreversal.c ****          pSrc[(2u * (i + fftLenBy2p1)) + 1u] =
 150:../Dave/Generated/CMSIS_DSP/TransformFunctions/arm_bitreversal.c ****          pSrc[(2u * (j + fftLenBy2p1)) + 1u];
 306              	 .loc 1 150 0
 307 0052 8259     	 ldr r2,[r0,r6]
 149:../Dave/Generated/CMSIS_DSP/TransformFunctions/arm_bitreversal.c ****          pSrc[(2u * (i + fftLenBy2p1)) + 1u] =
 308              	 .loc 1 149 0
 309 0054 C8F81C20 	 str r2,[r8,#28]
 151:../Dave/Generated/CMSIS_DSP/TransformFunctions/arm_bitreversal.c ****          pSrc[(2u * (j + fftLenBy2p1)) + 1u] = in;
 310              	 .loc 1 151 0
 311 0058 8151     	 str r1,[r0,r6]
 312              	.L10:
 313 005a 1035     	 adds r5,r5,#16
 314 005c 08F11008 	 add r8,r8,#16
 315              	.LVL27:
 316              	.L9:
 152:../Dave/Generated/CMSIS_DSP/TransformFunctions/arm_bitreversal.c **** 
 153:../Dave/Generated/CMSIS_DSP/TransformFunctions/arm_bitreversal.c ****       }
 154:../Dave/Generated/CMSIS_DSP/TransformFunctions/arm_bitreversal.c **** 
 155:../Dave/Generated/CMSIS_DSP/TransformFunctions/arm_bitreversal.c ****       /*  pSrc[i+1u] <-> pSrc[j+1u] */
 156:../Dave/Generated/CMSIS_DSP/TransformFunctions/arm_bitreversal.c ****       in = pSrc[2u * (i + 1u)];
 157:../Dave/Generated/CMSIS_DSP/TransformFunctions/arm_bitreversal.c ****       pSrc[2u * (i + 1u)] = pSrc[2u * (j + fftLenBy2)];
 317              	 .loc 1 157 0 discriminator 2
 318 0060 4C44     	 add r4,r4,r9
 156:../Dave/Generated/CMSIS_DSP/TransformFunctions/arm_bitreversal.c ****       pSrc[2u * (i + 1u)] = pSrc[2u * (j + fftLenBy2)];
 319              	 .loc 1 156 0 discriminator 2
 320 0062 A968     	 ldr r1,[r5,#8]
 321              	.LVL28:
 322              	 .loc 1 157 0 discriminator 2
 323 0064 50F83420 	 ldr r2,[r0,r4,lsl#3]
 324 0068 AA60     	 str r2,[r5,#8]
 325 006a E200     	 lsls r2,r4,#3
 158:../Dave/Generated/CMSIS_DSP/TransformFunctions/arm_bitreversal.c ****       pSrc[2u * (j + fftLenBy2)] = in;
 326              	 .loc 1 158 0 discriminator 2
 327 006c 40F83410 	 str r1,[r0,r4,lsl#3]
 159:../Dave/Generated/CMSIS_DSP/TransformFunctions/arm_bitreversal.c **** 
 160:../Dave/Generated/CMSIS_DSP/TransformFunctions/arm_bitreversal.c ****       /*  pSrc[i+2u] <-> pSrc[j+2u] */
 161:../Dave/Generated/CMSIS_DSP/TransformFunctions/arm_bitreversal.c ****       in = pSrc[(2u * (i + 1u)) + 1u];
 162:../Dave/Generated/CMSIS_DSP/TransformFunctions/arm_bitreversal.c ****       pSrc[(2u * (i + 1u)) + 1u] = pSrc[(2u * (j + fftLenBy2)) + 1u];
 328              	 .loc 1 162 0 discriminator 2
 329 0070 0432     	 adds r2,r2,#4
 163:../Dave/Generated/CMSIS_DSP/TransformFunctions/arm_bitreversal.c ****       pSrc[(2u * (j + fftLenBy2)) + 1u] = in;
 164:../Dave/Generated/CMSIS_DSP/TransformFunctions/arm_bitreversal.c **** 
 165:../Dave/Generated/CMSIS_DSP/TransformFunctions/arm_bitreversal.c ****       /*  Reading the index for the bit reversal */
 166:../Dave/Generated/CMSIS_DSP/TransformFunctions/arm_bitreversal.c ****       j = *pBitRevTable;
 330              	 .loc 1 166 0 discriminator 2
 331 0072 1C88     	 ldrh r4,[r3]
 162:../Dave/Generated/CMSIS_DSP/TransformFunctions/arm_bitreversal.c ****       pSrc[(2u * (j + fftLenBy2)) + 1u] = in;
 332              	 .loc 1 162 0 discriminator 2
 333 0074 8658     	 ldr r6,[r0,r2]
 161:../Dave/Generated/CMSIS_DSP/TransformFunctions/arm_bitreversal.c ****       pSrc[(2u * (i + 1u)) + 1u] = pSrc[(2u * (j + fftLenBy2)) + 1u];
 334              	 .loc 1 161 0 discriminator 2
 335 0076 E968     	 ldr r1,[r5,#12]
 336              	.LVL29:
 162:../Dave/Generated/CMSIS_DSP/TransformFunctions/arm_bitreversal.c ****       pSrc[(2u * (j + fftLenBy2)) + 1u] = in;
 337              	 .loc 1 162 0 discriminator 2
 338 0078 EE60     	 str r6,[r5,#12]
 163:../Dave/Generated/CMSIS_DSP/TransformFunctions/arm_bitreversal.c ****       pSrc[(2u * (j + fftLenBy2)) + 1u] = in;
 339              	 .loc 1 163 0 discriminator 2
 340 007a 8150     	 str r1,[r0,r2]
 128:../Dave/Generated/CMSIS_DSP/TransformFunctions/arm_bitreversal.c ****    {
 341              	 .loc 1 128 0 discriminator 2
 342 007c 019A     	 ldr r2,[sp,#4]
 343 007e 0237     	 adds r7,r7,#2
 344              	.LVL30:
 144:../Dave/Generated/CMSIS_DSP/TransformFunctions/arm_bitreversal.c ****          pSrc[2u * (j + fftLenBy2p1)] = in;
 345              	 .loc 1 144 0 discriminator 2
 346 0080 04EB0A0C 	 add ip,r4,r10
 134:../Dave/Generated/CMSIS_DSP/TransformFunctions/arm_bitreversal.c ****          pSrc[2u * j] = in;
 347              	 .loc 1 134 0 discriminator 2
 348 0084 4FEAC40E 	 lsl lr,r4,#3
 144:../Dave/Generated/CMSIS_DSP/TransformFunctions/arm_bitreversal.c ****          pSrc[2u * (j + fftLenBy2p1)] = in;
 349              	 .loc 1 144 0 discriminator 2
 350 0088 4FEACC06 	 lsl r6,ip,#3
 128:../Dave/Generated/CMSIS_DSP/TransformFunctions/arm_bitreversal.c ****    {
 351              	 .loc 1 128 0 discriminator 2
 352 008c 9742     	 cmp r7,r2
 139:../Dave/Generated/CMSIS_DSP/TransformFunctions/arm_bitreversal.c ****          pSrc[(2u * j) + 1u] = in;
 353              	 .loc 1 139 0 discriminator 2
 354 008e 0EF1040E 	 add lr,lr,#4
 150:../Dave/Generated/CMSIS_DSP/TransformFunctions/arm_bitreversal.c ****          pSrc[(2u * (j + fftLenBy2p1)) + 1u] = in;
 355              	 .loc 1 150 0 discriminator 2
 356 0092 06F10406 	 add r6,r6,#4
 167:../Dave/Generated/CMSIS_DSP/TransformFunctions/arm_bitreversal.c **** 
 168:../Dave/Generated/CMSIS_DSP/TransformFunctions/arm_bitreversal.c ****       /*  Updating the bit reversal index depending on the fft length */
 169:../Dave/Generated/CMSIS_DSP/TransformFunctions/arm_bitreversal.c ****       pBitRevTable += bitRevFactor;
 357              	 .loc 1 169 0 discriminator 2
 358 0096 5B44     	 add r3,r3,fp
 359              	.LVL31:
 128:../Dave/Generated/CMSIS_DSP/TransformFunctions/arm_bitreversal.c ****    {
 360              	 .loc 1 128 0 discriminator 2
 361 0098 C3D9     	 bls .L11
 170:../Dave/Generated/CMSIS_DSP/TransformFunctions/arm_bitreversal.c ****    }
 171:../Dave/Generated/CMSIS_DSP/TransformFunctions/arm_bitreversal.c **** }
 362              	 .loc 1 171 0
 363 009a 03B0     	 add sp,sp,#12
 364              	.LCFI5:
 365              	 .cfi_def_cfa_offset 36
 366              	 
 367 009c BDE8F08F 	 pop {r4,r5,r6,r7,r8,r9,r10,fp,pc}
 368              	 .cfi_endproc
 369              	.LFE136:
 371              	 .section .text.arm_bitreversal_q15,"ax",%progbits
 372              	 .align 2
 373              	 .global arm_bitreversal_q15
 374              	 .thumb
 375              	 .thumb_func
 377              	arm_bitreversal_q15:
 378              	.LFB137:
 172:../Dave/Generated/CMSIS_DSP/TransformFunctions/arm_bitreversal.c **** 
 173:../Dave/Generated/CMSIS_DSP/TransformFunctions/arm_bitreversal.c **** 
 174:../Dave/Generated/CMSIS_DSP/TransformFunctions/arm_bitreversal.c **** 
 175:../Dave/Generated/CMSIS_DSP/TransformFunctions/arm_bitreversal.c **** /*
 176:../Dave/Generated/CMSIS_DSP/TransformFunctions/arm_bitreversal.c ****    * @brief  In-place bit reversal function.
 177:../Dave/Generated/CMSIS_DSP/TransformFunctions/arm_bitreversal.c ****    * @param[in, out] *pSrc        points to the in-place buffer of Q15 data type.
 178:../Dave/Generated/CMSIS_DSP/TransformFunctions/arm_bitreversal.c ****    * @param[in]      fftLen       length of the FFT.
 179:../Dave/Generated/CMSIS_DSP/TransformFunctions/arm_bitreversal.c ****    * @param[in]      bitRevFactor bit reversal modifier that supports different size FFTs with the 
 180:../Dave/Generated/CMSIS_DSP/TransformFunctions/arm_bitreversal.c ****    * @param[in]      *pBitRevTab  points to bit reversal table.
 181:../Dave/Generated/CMSIS_DSP/TransformFunctions/arm_bitreversal.c ****    * @return none.
 182:../Dave/Generated/CMSIS_DSP/TransformFunctions/arm_bitreversal.c **** */
 183:../Dave/Generated/CMSIS_DSP/TransformFunctions/arm_bitreversal.c **** 
 184:../Dave/Generated/CMSIS_DSP/TransformFunctions/arm_bitreversal.c **** void arm_bitreversal_q15(
 185:../Dave/Generated/CMSIS_DSP/TransformFunctions/arm_bitreversal.c **** q15_t * pSrc16,
 186:../Dave/Generated/CMSIS_DSP/TransformFunctions/arm_bitreversal.c **** uint32_t fftLen,
 187:../Dave/Generated/CMSIS_DSP/TransformFunctions/arm_bitreversal.c **** uint16_t bitRevFactor,
 188:../Dave/Generated/CMSIS_DSP/TransformFunctions/arm_bitreversal.c **** uint16_t * pBitRevTab)
 189:../Dave/Generated/CMSIS_DSP/TransformFunctions/arm_bitreversal.c **** {
 379              	 .loc 1 189 0
 380              	 .cfi_startproc
 381              	 
 382              	 
 383              	.LVL32:
 384 0000 2DE9F04F 	 push {r4,r5,r6,r7,r8,r9,r10,fp,lr}
 385              	.LCFI6:
 386              	 .cfi_def_cfa_offset 36
 387              	 .cfi_offset 4,-36
 388              	 .cfi_offset 5,-32
 389              	 .cfi_offset 6,-28
 390              	 .cfi_offset 7,-24
 391              	 .cfi_offset 8,-20
 392              	 .cfi_offset 9,-16
 393              	 .cfi_offset 10,-12
 394              	 .cfi_offset 11,-8
 395              	 .cfi_offset 14,-4
 190:../Dave/Generated/CMSIS_DSP/TransformFunctions/arm_bitreversal.c ****    q31_t *pSrc = (q31_t *) pSrc16;
 191:../Dave/Generated/CMSIS_DSP/TransformFunctions/arm_bitreversal.c ****    q31_t in;
 192:../Dave/Generated/CMSIS_DSP/TransformFunctions/arm_bitreversal.c ****    uint32_t fftLenBy2, fftLenBy2p1;
 193:../Dave/Generated/CMSIS_DSP/TransformFunctions/arm_bitreversal.c ****    uint32_t i, j;
 194:../Dave/Generated/CMSIS_DSP/TransformFunctions/arm_bitreversal.c **** 
 195:../Dave/Generated/CMSIS_DSP/TransformFunctions/arm_bitreversal.c ****    /*  Initializations */
 196:../Dave/Generated/CMSIS_DSP/TransformFunctions/arm_bitreversal.c ****    j = 0u;
 197:../Dave/Generated/CMSIS_DSP/TransformFunctions/arm_bitreversal.c ****    fftLenBy2 = fftLen / 2u;
 396              	 .loc 1 197 0
 397 0004 4908     	 lsrs r1,r1,#1
 398              	.LVL33:
 198:../Dave/Generated/CMSIS_DSP/TransformFunctions/arm_bitreversal.c ****    fftLenBy2p1 = (fftLen / 2u) + 1u;
 199:../Dave/Generated/CMSIS_DSP/TransformFunctions/arm_bitreversal.c **** 
 200:../Dave/Generated/CMSIS_DSP/TransformFunctions/arm_bitreversal.c ****    /* Bit Reversal Implementation */
 201:../Dave/Generated/CMSIS_DSP/TransformFunctions/arm_bitreversal.c ****    for (i = 0u; i <= (fftLenBy2 - 2u); i += 2u)
 399              	 .loc 1 201 0
 400 0006 0026     	 movs r6,#0
 401 0008 4FEA420B 	 lsl fp,r2,#1
 198:../Dave/Generated/CMSIS_DSP/TransformFunctions/arm_bitreversal.c ****    fftLenBy2p1 = (fftLen / 2u) + 1u;
 402              	 .loc 1 198 0
 403 000c 01F10108 	 add r8,r1,#1
 404              	.LVL34:
 405              	 .loc 1 201 0
 406 0010 A1F1020C 	 sub ip,r1,#2
 407 0014 0546     	 mov r5,r0
 408 0016 00EB810E 	 add lr,r0,r1,lsl#2
 196:../Dave/Generated/CMSIS_DSP/TransformFunctions/arm_bitreversal.c ****    fftLenBy2 = fftLen / 2u;
 409              	 .loc 1 196 0
 410 001a 3446     	 mov r4,r6
 411 001c 12E0     	 b .L14
 412              	.LVL35:
 413              	.L16:
 202:../Dave/Generated/CMSIS_DSP/TransformFunctions/arm_bitreversal.c ****    {
 203:../Dave/Generated/CMSIS_DSP/TransformFunctions/arm_bitreversal.c ****       if (i < j)
 414              	 .loc 1 203 0
 415 001e B442     	 cmp r4,r6
 416 0020 0DD9     	 bls .L15
 204:../Dave/Generated/CMSIS_DSP/TransformFunctions/arm_bitreversal.c ****       {
 205:../Dave/Generated/CMSIS_DSP/TransformFunctions/arm_bitreversal.c ****          /*  pSrc[i] <-> pSrc[j]; */
 206:../Dave/Generated/CMSIS_DSP/TransformFunctions/arm_bitreversal.c ****          /*  pSrc[i+1u] <-> pSrc[j+1u] */
 207:../Dave/Generated/CMSIS_DSP/TransformFunctions/arm_bitreversal.c ****          in = pSrc[i];
 417              	 .loc 1 207 0
 418 0022 AF68     	 ldr r7,[r5,#8]
 419              	.LVL36:
 208:../Dave/Generated/CMSIS_DSP/TransformFunctions/arm_bitreversal.c ****          pSrc[i] = pSrc[j];
 420              	 .loc 1 208 0
 421 0024 50F82420 	 ldr r2,[r0,r4,lsl#2]
 422 0028 AA60     	 str r2,[r5,#8]
 209:../Dave/Generated/CMSIS_DSP/TransformFunctions/arm_bitreversal.c ****          pSrc[j] = in;
 423              	 .loc 1 209 0
 424 002a 40F82470 	 str r7,[r0,r4,lsl#2]
 210:../Dave/Generated/CMSIS_DSP/TransformFunctions/arm_bitreversal.c **** 
 211:../Dave/Generated/CMSIS_DSP/TransformFunctions/arm_bitreversal.c ****          /*  pSrc[i + fftLenBy2p1] <-> pSrc[j + fftLenBy2p1];  */
 212:../Dave/Generated/CMSIS_DSP/TransformFunctions/arm_bitreversal.c ****          /*  pSrc[i + fftLenBy2p1+1u] <-> pSrc[j + fftLenBy2p1+1u] */
 213:../Dave/Generated/CMSIS_DSP/TransformFunctions/arm_bitreversal.c ****          in = pSrc[i + fftLenBy2p1];
 425              	 .loc 1 213 0
 426 002e DEF80C70 	 ldr r7,[lr,#12]
 427              	.LVL37:
 214:../Dave/Generated/CMSIS_DSP/TransformFunctions/arm_bitreversal.c ****          pSrc[i + fftLenBy2p1] = pSrc[j + fftLenBy2p1];
 428              	 .loc 1 214 0
 429 0032 50F82920 	 ldr r2,[r0,r9,lsl#2]
 430 0036 CEF80C20 	 str r2,[lr,#12]
 215:../Dave/Generated/CMSIS_DSP/TransformFunctions/arm_bitreversal.c ****          pSrc[j + fftLenBy2p1] = in;
 431              	 .loc 1 215 0
 432 003a 40F82970 	 str r7,[r0,r9,lsl#2]
 433              	.LVL38:
 434              	.L15:
 435 003e 0835     	 adds r5,r5,#8
 436 0040 0EF1080E 	 add lr,lr,#8
 437              	.LVL39:
 438              	.L14:
 216:../Dave/Generated/CMSIS_DSP/TransformFunctions/arm_bitreversal.c ****       }
 217:../Dave/Generated/CMSIS_DSP/TransformFunctions/arm_bitreversal.c **** 
 218:../Dave/Generated/CMSIS_DSP/TransformFunctions/arm_bitreversal.c ****       /*  pSrc[i+1u] <-> pSrc[j+fftLenBy2];         */
 219:../Dave/Generated/CMSIS_DSP/TransformFunctions/arm_bitreversal.c ****       /*  pSrc[i+2] <-> pSrc[j+fftLenBy2+1u]  */
 220:../Dave/Generated/CMSIS_DSP/TransformFunctions/arm_bitreversal.c ****       in = pSrc[i + 1u];
 221:../Dave/Generated/CMSIS_DSP/TransformFunctions/arm_bitreversal.c ****       pSrc[i + 1u] = pSrc[j + fftLenBy2];
 439              	 .loc 1 221 0 discriminator 2
 440 0044 6718     	 adds r7,r4,r1
 201:../Dave/Generated/CMSIS_DSP/TransformFunctions/arm_bitreversal.c ****    {
 441              	 .loc 1 201 0 discriminator 2
 442 0046 0236     	 adds r6,r6,#2
 222:../Dave/Generated/CMSIS_DSP/TransformFunctions/arm_bitreversal.c ****       pSrc[j + fftLenBy2] = in;
 223:../Dave/Generated/CMSIS_DSP/TransformFunctions/arm_bitreversal.c **** 
 224:../Dave/Generated/CMSIS_DSP/TransformFunctions/arm_bitreversal.c ****       /*  Reading the index for the bit reversal */
 225:../Dave/Generated/CMSIS_DSP/TransformFunctions/arm_bitreversal.c ****       j = *pBitRevTab;
 443              	 .loc 1 225 0 discriminator 2
 444 0048 1C88     	 ldrh r4,[r3]
 220:../Dave/Generated/CMSIS_DSP/TransformFunctions/arm_bitreversal.c ****       pSrc[i + 1u] = pSrc[j + fftLenBy2];
 445              	 .loc 1 220 0 discriminator 2
 446 004a D5F804A0 	 ldr r10,[r5,#4]
 447              	.LVL40:
 221:../Dave/Generated/CMSIS_DSP/TransformFunctions/arm_bitreversal.c ****       pSrc[j + fftLenBy2] = in;
 448              	 .loc 1 221 0 discriminator 2
 449 004e 50F82720 	 ldr r2,[r0,r7,lsl#2]
 450 0052 6A60     	 str r2,[r5,#4]
 201:../Dave/Generated/CMSIS_DSP/TransformFunctions/arm_bitreversal.c ****    {
 451              	 .loc 1 201 0 discriminator 2
 452 0054 6645     	 cmp r6,ip
 214:../Dave/Generated/CMSIS_DSP/TransformFunctions/arm_bitreversal.c ****          pSrc[j + fftLenBy2p1] = in;
 453              	 .loc 1 214 0 discriminator 2
 454 0056 04EB0809 	 add r9,r4,r8
 222:../Dave/Generated/CMSIS_DSP/TransformFunctions/arm_bitreversal.c **** 
 455              	 .loc 1 222 0 discriminator 2
 456 005a 40F827A0 	 str r10,[r0,r7,lsl#2]
 226:../Dave/Generated/CMSIS_DSP/TransformFunctions/arm_bitreversal.c **** 
 227:../Dave/Generated/CMSIS_DSP/TransformFunctions/arm_bitreversal.c ****       /*  Updating the bit reversal index depending on the fft length  */
 228:../Dave/Generated/CMSIS_DSP/TransformFunctions/arm_bitreversal.c ****       pBitRevTab += bitRevFactor;
 457              	 .loc 1 228 0 discriminator 2
 458 005e 5B44     	 add r3,r3,fp
 459              	.LVL41:
 201:../Dave/Generated/CMSIS_DSP/TransformFunctions/arm_bitreversal.c ****    {
 460              	 .loc 1 201 0 discriminator 2
 461 0060 DDD9     	 bls .L16
 229:../Dave/Generated/CMSIS_DSP/TransformFunctions/arm_bitreversal.c ****    }
 230:../Dave/Generated/CMSIS_DSP/TransformFunctions/arm_bitreversal.c **** }
 462              	 .loc 1 230 0
 463 0062 BDE8F08F 	 pop {r4,r5,r6,r7,r8,r9,r10,fp,pc}
 464              	 .cfi_endproc
 465              	.LFE137:
 467 0066 00BF     	 .text
 468              	.Letext0:
 469              	 .file 2 "c:\\infineon\\tools\\dave ide\\4.5.0.202105191637\\eclipse\\arm-gcc-49\\arm-none-eabi\\include\\machine\\_default_types.h"
 470              	 .file 3 "c:\\infineon\\tools\\dave ide\\4.5.0.202105191637\\eclipse\\arm-gcc-49\\arm-none-eabi\\include\\stdint.h"
 471              	 .file 4 "C:/Users/Utente/Desktop/Tesi/Firmware_Software/DAVE project/S2GLP_Pulsed_Doppler/Dave/Generated/CMSIS_DSP/arm_math.h"