   1              	 .syntax unified
   2              	 .cpu cortex-m4
   3              	 .eabi_attribute 27,3
   4              	 .fpu fpv4-sp-d16
   5              	 .eabi_attribute 20,1
   6              	 .eabi_attribute 21,1
   7              	 .eabi_attribute 23,3
   8              	 .eabi_attribute 24,1
   9              	 .eabi_attribute 25,1
  10              	 .eabi_attribute 26,1
  11              	 .eabi_attribute 30,2
  12              	 .eabi_attribute 34,1
  13              	 .eabi_attribute 18,4
  14              	 .thumb
  15              	 .file "arm_cfft_f32.c"
  16              	 .text
  17              	.Ltext0:
  18              	 .cfi_sections .debug_frame
  19              	 .section .text.arm_cfft_radix8by2_f32,"ax",%progbits
  20              	 .align 2
  21              	 .global arm_cfft_radix8by2_f32
  22              	 .thumb
  23              	 .thumb_func
  25              	arm_cfft_radix8by2_f32:
  26              	.LFB135:
  27              	 .file 1 "../Dave/Generated/CMSIS_DSP/TransformFunctions/arm_cfft_f32.c"
   1:../Dave/Generated/CMSIS_DSP/TransformFunctions/arm_cfft_f32.c **** /* ----------------------------------------------------------------------
   2:../Dave/Generated/CMSIS_DSP/TransformFunctions/arm_cfft_f32.c ****  * Project:      CMSIS DSP Library
   3:../Dave/Generated/CMSIS_DSP/TransformFunctions/arm_cfft_f32.c ****  * Title:        arm_cfft_f32.c
   4:../Dave/Generated/CMSIS_DSP/TransformFunctions/arm_cfft_f32.c ****  * Description:  Combined Radix Decimation in Frequency CFFT Floating point processing function
   5:../Dave/Generated/CMSIS_DSP/TransformFunctions/arm_cfft_f32.c ****  *
   6:../Dave/Generated/CMSIS_DSP/TransformFunctions/arm_cfft_f32.c ****  * $Date:        27. January 2017
   7:../Dave/Generated/CMSIS_DSP/TransformFunctions/arm_cfft_f32.c ****  * $Revision:    V.1.5.1
   8:../Dave/Generated/CMSIS_DSP/TransformFunctions/arm_cfft_f32.c ****  *
   9:../Dave/Generated/CMSIS_DSP/TransformFunctions/arm_cfft_f32.c ****  * Target Processor: Cortex-M cores
  10:../Dave/Generated/CMSIS_DSP/TransformFunctions/arm_cfft_f32.c ****  * -------------------------------------------------------------------- */
  11:../Dave/Generated/CMSIS_DSP/TransformFunctions/arm_cfft_f32.c **** /*
  12:../Dave/Generated/CMSIS_DSP/TransformFunctions/arm_cfft_f32.c ****  * Copyright (C) 2010-2017 ARM Limited or its affiliates. All rights reserved.
  13:../Dave/Generated/CMSIS_DSP/TransformFunctions/arm_cfft_f32.c ****  *
  14:../Dave/Generated/CMSIS_DSP/TransformFunctions/arm_cfft_f32.c ****  * SPDX-License-Identifier: Apache-2.0
  15:../Dave/Generated/CMSIS_DSP/TransformFunctions/arm_cfft_f32.c ****  *
  16:../Dave/Generated/CMSIS_DSP/TransformFunctions/arm_cfft_f32.c ****  * Licensed under the Apache License, Version 2.0 (the License); you may
  17:../Dave/Generated/CMSIS_DSP/TransformFunctions/arm_cfft_f32.c ****  * not use this file except in compliance with the License.
  18:../Dave/Generated/CMSIS_DSP/TransformFunctions/arm_cfft_f32.c ****  * You may obtain a copy of the License at
  19:../Dave/Generated/CMSIS_DSP/TransformFunctions/arm_cfft_f32.c ****  *
  20:../Dave/Generated/CMSIS_DSP/TransformFunctions/arm_cfft_f32.c ****  * www.apache.org/licenses/LICENSE-2.0
  21:../Dave/Generated/CMSIS_DSP/TransformFunctions/arm_cfft_f32.c ****  *
  22:../Dave/Generated/CMSIS_DSP/TransformFunctions/arm_cfft_f32.c ****  * Unless required by applicable law or agreed to in writing, software
  23:../Dave/Generated/CMSIS_DSP/TransformFunctions/arm_cfft_f32.c ****  * distributed under the License is distributed on an AS IS BASIS, WITHOUT
  24:../Dave/Generated/CMSIS_DSP/TransformFunctions/arm_cfft_f32.c ****  * WARRANTIES OR CONDITIONS OF ANY KIND, either express or implied.
  25:../Dave/Generated/CMSIS_DSP/TransformFunctions/arm_cfft_f32.c ****  * See the License for the specific language governing permissions and
  26:../Dave/Generated/CMSIS_DSP/TransformFunctions/arm_cfft_f32.c ****  * limitations under the License.
  27:../Dave/Generated/CMSIS_DSP/TransformFunctions/arm_cfft_f32.c ****  */
  28:../Dave/Generated/CMSIS_DSP/TransformFunctions/arm_cfft_f32.c **** 
  29:../Dave/Generated/CMSIS_DSP/TransformFunctions/arm_cfft_f32.c **** #include "CMSIS_DSP/cmsis_dsp.h"
  30:../Dave/Generated/CMSIS_DSP/TransformFunctions/arm_cfft_f32.c **** #include "CMSIS_DSP/arm_common_tables.h"
  31:../Dave/Generated/CMSIS_DSP/TransformFunctions/arm_cfft_f32.c **** 
  32:../Dave/Generated/CMSIS_DSP/TransformFunctions/arm_cfft_f32.c **** extern void arm_radix8_butterfly_f32(
  33:../Dave/Generated/CMSIS_DSP/TransformFunctions/arm_cfft_f32.c ****     float32_t * pSrc,
  34:../Dave/Generated/CMSIS_DSP/TransformFunctions/arm_cfft_f32.c ****     uint16_t fftLen,
  35:../Dave/Generated/CMSIS_DSP/TransformFunctions/arm_cfft_f32.c ****     const float32_t * pCoef,
  36:../Dave/Generated/CMSIS_DSP/TransformFunctions/arm_cfft_f32.c ****     uint16_t twidCoefModifier);
  37:../Dave/Generated/CMSIS_DSP/TransformFunctions/arm_cfft_f32.c **** 
  38:../Dave/Generated/CMSIS_DSP/TransformFunctions/arm_cfft_f32.c **** extern void arm_bitreversal_32(
  39:../Dave/Generated/CMSIS_DSP/TransformFunctions/arm_cfft_f32.c ****     uint32_t * pSrc,
  40:../Dave/Generated/CMSIS_DSP/TransformFunctions/arm_cfft_f32.c ****     const uint16_t bitRevLen,
  41:../Dave/Generated/CMSIS_DSP/TransformFunctions/arm_cfft_f32.c ****     const uint16_t * pBitRevTable);
  42:../Dave/Generated/CMSIS_DSP/TransformFunctions/arm_cfft_f32.c **** 
  43:../Dave/Generated/CMSIS_DSP/TransformFunctions/arm_cfft_f32.c **** /**
  44:../Dave/Generated/CMSIS_DSP/TransformFunctions/arm_cfft_f32.c **** * @ingroup groupTransforms
  45:../Dave/Generated/CMSIS_DSP/TransformFunctions/arm_cfft_f32.c **** */
  46:../Dave/Generated/CMSIS_DSP/TransformFunctions/arm_cfft_f32.c **** 
  47:../Dave/Generated/CMSIS_DSP/TransformFunctions/arm_cfft_f32.c **** /**
  48:../Dave/Generated/CMSIS_DSP/TransformFunctions/arm_cfft_f32.c **** * @defgroup ComplexFFT Complex FFT Functions
  49:../Dave/Generated/CMSIS_DSP/TransformFunctions/arm_cfft_f32.c **** *
  50:../Dave/Generated/CMSIS_DSP/TransformFunctions/arm_cfft_f32.c **** * \par
  51:../Dave/Generated/CMSIS_DSP/TransformFunctions/arm_cfft_f32.c **** * The Fast Fourier Transform (FFT) is an efficient algorithm for computing the
  52:../Dave/Generated/CMSIS_DSP/TransformFunctions/arm_cfft_f32.c **** * Discrete Fourier Transform (DFT).  The FFT can be orders of magnitude faster
  53:../Dave/Generated/CMSIS_DSP/TransformFunctions/arm_cfft_f32.c **** * than the DFT, especially for long lengths.
  54:../Dave/Generated/CMSIS_DSP/TransformFunctions/arm_cfft_f32.c **** * The algorithms described in this section
  55:../Dave/Generated/CMSIS_DSP/TransformFunctions/arm_cfft_f32.c **** * operate on complex data.  A separate set of functions is devoted to handling
  56:../Dave/Generated/CMSIS_DSP/TransformFunctions/arm_cfft_f32.c **** * of real sequences.
  57:../Dave/Generated/CMSIS_DSP/TransformFunctions/arm_cfft_f32.c **** * \par
  58:../Dave/Generated/CMSIS_DSP/TransformFunctions/arm_cfft_f32.c **** * There are separate algorithms for handling floating-point, Q15, and Q31 data
  59:../Dave/Generated/CMSIS_DSP/TransformFunctions/arm_cfft_f32.c **** * types.  The algorithms available for each data type are described next.
  60:../Dave/Generated/CMSIS_DSP/TransformFunctions/arm_cfft_f32.c **** * \par
  61:../Dave/Generated/CMSIS_DSP/TransformFunctions/arm_cfft_f32.c **** * The FFT functions operate in-place.  That is, the array holding the input data
  62:../Dave/Generated/CMSIS_DSP/TransformFunctions/arm_cfft_f32.c **** * will also be used to hold the corresponding result.  The input data is complex
  63:../Dave/Generated/CMSIS_DSP/TransformFunctions/arm_cfft_f32.c **** * and contains <code>2*fftLen</code> interleaved values as shown below.
  64:../Dave/Generated/CMSIS_DSP/TransformFunctions/arm_cfft_f32.c **** * <pre> {real[0], imag[0], real[1], imag[1],..} </pre>
  65:../Dave/Generated/CMSIS_DSP/TransformFunctions/arm_cfft_f32.c **** * The FFT result will be contained in the same array and the frequency domain
  66:../Dave/Generated/CMSIS_DSP/TransformFunctions/arm_cfft_f32.c **** * values will have the same interleaving.
  67:../Dave/Generated/CMSIS_DSP/TransformFunctions/arm_cfft_f32.c **** *
  68:../Dave/Generated/CMSIS_DSP/TransformFunctions/arm_cfft_f32.c **** * \par Floating-point
  69:../Dave/Generated/CMSIS_DSP/TransformFunctions/arm_cfft_f32.c **** * The floating-point complex FFT uses a mixed-radix algorithm.  Multiple radix-8
  70:../Dave/Generated/CMSIS_DSP/TransformFunctions/arm_cfft_f32.c **** * stages are performed along with a single radix-2 or radix-4 stage, as needed.
  71:../Dave/Generated/CMSIS_DSP/TransformFunctions/arm_cfft_f32.c **** * The algorithm supports lengths of [16, 32, 64, ..., 4096] and each length uses
  72:../Dave/Generated/CMSIS_DSP/TransformFunctions/arm_cfft_f32.c **** * a different twiddle factor table.
  73:../Dave/Generated/CMSIS_DSP/TransformFunctions/arm_cfft_f32.c **** * \par
  74:../Dave/Generated/CMSIS_DSP/TransformFunctions/arm_cfft_f32.c **** * The function uses the standard FFT definition and output values may grow by a
  75:../Dave/Generated/CMSIS_DSP/TransformFunctions/arm_cfft_f32.c **** * factor of <code>fftLen</code> when computing the forward transform.  The
  76:../Dave/Generated/CMSIS_DSP/TransformFunctions/arm_cfft_f32.c **** * inverse transform includes a scale of <code>1/fftLen</code> as part of the
  77:../Dave/Generated/CMSIS_DSP/TransformFunctions/arm_cfft_f32.c **** * calculation and this matches the textbook definition of the inverse FFT.
  78:../Dave/Generated/CMSIS_DSP/TransformFunctions/arm_cfft_f32.c **** * \par
  79:../Dave/Generated/CMSIS_DSP/TransformFunctions/arm_cfft_f32.c **** * Pre-initialized data structures containing twiddle factors and bit reversal
  80:../Dave/Generated/CMSIS_DSP/TransformFunctions/arm_cfft_f32.c **** * tables are provided and defined in <code>arm_const_structs.h</code>.  Include
  81:../Dave/Generated/CMSIS_DSP/TransformFunctions/arm_cfft_f32.c **** * this header in your function and then pass one of the constant structures as
  82:../Dave/Generated/CMSIS_DSP/TransformFunctions/arm_cfft_f32.c **** * an argument to arm_cfft_f32.  For example:
  83:../Dave/Generated/CMSIS_DSP/TransformFunctions/arm_cfft_f32.c **** * \par
  84:../Dave/Generated/CMSIS_DSP/TransformFunctions/arm_cfft_f32.c **** * <code>arm_cfft_f32(arm_cfft_sR_f32_len64, pSrc, 1, 1)</code>
  85:../Dave/Generated/CMSIS_DSP/TransformFunctions/arm_cfft_f32.c **** * \par
  86:../Dave/Generated/CMSIS_DSP/TransformFunctions/arm_cfft_f32.c **** * computes a 64-point inverse complex FFT including bit reversal.
  87:../Dave/Generated/CMSIS_DSP/TransformFunctions/arm_cfft_f32.c **** * The data structures are treated as constant data and not modified during the
  88:../Dave/Generated/CMSIS_DSP/TransformFunctions/arm_cfft_f32.c **** * calculation.  The same data structure can be reused for multiple transforms
  89:../Dave/Generated/CMSIS_DSP/TransformFunctions/arm_cfft_f32.c **** * including mixing forward and inverse transforms.
  90:../Dave/Generated/CMSIS_DSP/TransformFunctions/arm_cfft_f32.c **** * \par
  91:../Dave/Generated/CMSIS_DSP/TransformFunctions/arm_cfft_f32.c **** * Earlier releases of the library provided separate radix-2 and radix-4
  92:../Dave/Generated/CMSIS_DSP/TransformFunctions/arm_cfft_f32.c **** * algorithms that operated on floating-point data.  These functions are still
  93:../Dave/Generated/CMSIS_DSP/TransformFunctions/arm_cfft_f32.c **** * provided but are deprecated.  The older functions are slower and less general
  94:../Dave/Generated/CMSIS_DSP/TransformFunctions/arm_cfft_f32.c **** * than the new functions.
  95:../Dave/Generated/CMSIS_DSP/TransformFunctions/arm_cfft_f32.c **** * \par
  96:../Dave/Generated/CMSIS_DSP/TransformFunctions/arm_cfft_f32.c **** * An example of initialization of the constants for the arm_cfft_f32 function follows:
  97:../Dave/Generated/CMSIS_DSP/TransformFunctions/arm_cfft_f32.c **** * \code
  98:../Dave/Generated/CMSIS_DSP/TransformFunctions/arm_cfft_f32.c **** * const static arm_cfft_instance_f32 *S;
  99:../Dave/Generated/CMSIS_DSP/TransformFunctions/arm_cfft_f32.c **** * ...
 100:../Dave/Generated/CMSIS_DSP/TransformFunctions/arm_cfft_f32.c **** *   switch (length) {
 101:../Dave/Generated/CMSIS_DSP/TransformFunctions/arm_cfft_f32.c **** *     case 16:
 102:../Dave/Generated/CMSIS_DSP/TransformFunctions/arm_cfft_f32.c **** *       S = &arm_cfft_sR_f32_len16;
 103:../Dave/Generated/CMSIS_DSP/TransformFunctions/arm_cfft_f32.c **** *       break;
 104:../Dave/Generated/CMSIS_DSP/TransformFunctions/arm_cfft_f32.c **** *     case 32:
 105:../Dave/Generated/CMSIS_DSP/TransformFunctions/arm_cfft_f32.c **** *       S = &arm_cfft_sR_f32_len32;
 106:../Dave/Generated/CMSIS_DSP/TransformFunctions/arm_cfft_f32.c **** *       break;
 107:../Dave/Generated/CMSIS_DSP/TransformFunctions/arm_cfft_f32.c **** *     case 64:
 108:../Dave/Generated/CMSIS_DSP/TransformFunctions/arm_cfft_f32.c **** *       S = &arm_cfft_sR_f32_len64;
 109:../Dave/Generated/CMSIS_DSP/TransformFunctions/arm_cfft_f32.c **** *       break;
 110:../Dave/Generated/CMSIS_DSP/TransformFunctions/arm_cfft_f32.c **** *     case 128:
 111:../Dave/Generated/CMSIS_DSP/TransformFunctions/arm_cfft_f32.c **** *       S = &arm_cfft_sR_f32_len128;
 112:../Dave/Generated/CMSIS_DSP/TransformFunctions/arm_cfft_f32.c **** *       break;
 113:../Dave/Generated/CMSIS_DSP/TransformFunctions/arm_cfft_f32.c **** *     case 256:
 114:../Dave/Generated/CMSIS_DSP/TransformFunctions/arm_cfft_f32.c **** *       S = &arm_cfft_sR_f32_len256;
 115:../Dave/Generated/CMSIS_DSP/TransformFunctions/arm_cfft_f32.c **** *       break;
 116:../Dave/Generated/CMSIS_DSP/TransformFunctions/arm_cfft_f32.c **** *     case 512:
 117:../Dave/Generated/CMSIS_DSP/TransformFunctions/arm_cfft_f32.c **** *       S = &arm_cfft_sR_f32_len512;
 118:../Dave/Generated/CMSIS_DSP/TransformFunctions/arm_cfft_f32.c **** *       break;
 119:../Dave/Generated/CMSIS_DSP/TransformFunctions/arm_cfft_f32.c **** *     case 1024:
 120:../Dave/Generated/CMSIS_DSP/TransformFunctions/arm_cfft_f32.c **** *       S = &arm_cfft_sR_f32_len1024;
 121:../Dave/Generated/CMSIS_DSP/TransformFunctions/arm_cfft_f32.c **** *       break;
 122:../Dave/Generated/CMSIS_DSP/TransformFunctions/arm_cfft_f32.c **** *     case 2048:
 123:../Dave/Generated/CMSIS_DSP/TransformFunctions/arm_cfft_f32.c **** *       S = &arm_cfft_sR_f32_len2048;
 124:../Dave/Generated/CMSIS_DSP/TransformFunctions/arm_cfft_f32.c **** *       break;
 125:../Dave/Generated/CMSIS_DSP/TransformFunctions/arm_cfft_f32.c **** *     case 4096:
 126:../Dave/Generated/CMSIS_DSP/TransformFunctions/arm_cfft_f32.c **** *       S = &arm_cfft_sR_f32_len4096;
 127:../Dave/Generated/CMSIS_DSP/TransformFunctions/arm_cfft_f32.c **** *       break;
 128:../Dave/Generated/CMSIS_DSP/TransformFunctions/arm_cfft_f32.c **** *   }
 129:../Dave/Generated/CMSIS_DSP/TransformFunctions/arm_cfft_f32.c **** * \endcode
 130:../Dave/Generated/CMSIS_DSP/TransformFunctions/arm_cfft_f32.c **** * \par Q15 and Q31
 131:../Dave/Generated/CMSIS_DSP/TransformFunctions/arm_cfft_f32.c **** * The floating-point complex FFT uses a mixed-radix algorithm.  Multiple radix-4
 132:../Dave/Generated/CMSIS_DSP/TransformFunctions/arm_cfft_f32.c **** * stages are performed along with a single radix-2 stage, as needed.
 133:../Dave/Generated/CMSIS_DSP/TransformFunctions/arm_cfft_f32.c **** * The algorithm supports lengths of [16, 32, 64, ..., 4096] and each length uses
 134:../Dave/Generated/CMSIS_DSP/TransformFunctions/arm_cfft_f32.c **** * a different twiddle factor table.
 135:../Dave/Generated/CMSIS_DSP/TransformFunctions/arm_cfft_f32.c **** * \par
 136:../Dave/Generated/CMSIS_DSP/TransformFunctions/arm_cfft_f32.c **** * The function uses the standard FFT definition and output values may grow by a
 137:../Dave/Generated/CMSIS_DSP/TransformFunctions/arm_cfft_f32.c **** * factor of <code>fftLen</code> when computing the forward transform.  The
 138:../Dave/Generated/CMSIS_DSP/TransformFunctions/arm_cfft_f32.c **** * inverse transform includes a scale of <code>1/fftLen</code> as part of the
 139:../Dave/Generated/CMSIS_DSP/TransformFunctions/arm_cfft_f32.c **** * calculation and this matches the textbook definition of the inverse FFT.
 140:../Dave/Generated/CMSIS_DSP/TransformFunctions/arm_cfft_f32.c **** * \par
 141:../Dave/Generated/CMSIS_DSP/TransformFunctions/arm_cfft_f32.c **** * Pre-initialized data structures containing twiddle factors and bit reversal
 142:../Dave/Generated/CMSIS_DSP/TransformFunctions/arm_cfft_f32.c **** * tables are provided and defined in <code>arm_const_structs.h</code>.  Include
 143:../Dave/Generated/CMSIS_DSP/TransformFunctions/arm_cfft_f32.c **** * this header in your function and then pass one of the constant structures as
 144:../Dave/Generated/CMSIS_DSP/TransformFunctions/arm_cfft_f32.c **** * an argument to arm_cfft_q31.  For example:
 145:../Dave/Generated/CMSIS_DSP/TransformFunctions/arm_cfft_f32.c **** * \par
 146:../Dave/Generated/CMSIS_DSP/TransformFunctions/arm_cfft_f32.c **** * <code>arm_cfft_q31(arm_cfft_sR_q31_len64, pSrc, 1, 1)</code>
 147:../Dave/Generated/CMSIS_DSP/TransformFunctions/arm_cfft_f32.c **** * \par
 148:../Dave/Generated/CMSIS_DSP/TransformFunctions/arm_cfft_f32.c **** * computes a 64-point inverse complex FFT including bit reversal.
 149:../Dave/Generated/CMSIS_DSP/TransformFunctions/arm_cfft_f32.c **** * The data structures are treated as constant data and not modified during the
 150:../Dave/Generated/CMSIS_DSP/TransformFunctions/arm_cfft_f32.c **** * calculation.  The same data structure can be reused for multiple transforms
 151:../Dave/Generated/CMSIS_DSP/TransformFunctions/arm_cfft_f32.c **** * including mixing forward and inverse transforms.
 152:../Dave/Generated/CMSIS_DSP/TransformFunctions/arm_cfft_f32.c **** * \par
 153:../Dave/Generated/CMSIS_DSP/TransformFunctions/arm_cfft_f32.c **** * Earlier releases of the library provided separate radix-2 and radix-4
 154:../Dave/Generated/CMSIS_DSP/TransformFunctions/arm_cfft_f32.c **** * algorithms that operated on floating-point data.  These functions are still
 155:../Dave/Generated/CMSIS_DSP/TransformFunctions/arm_cfft_f32.c **** * provided but are deprecated.  The older functions are slower and less general
 156:../Dave/Generated/CMSIS_DSP/TransformFunctions/arm_cfft_f32.c **** * than the new functions.
 157:../Dave/Generated/CMSIS_DSP/TransformFunctions/arm_cfft_f32.c **** * \par
 158:../Dave/Generated/CMSIS_DSP/TransformFunctions/arm_cfft_f32.c **** * An example of initialization of the constants for the arm_cfft_q31 function follows:
 159:../Dave/Generated/CMSIS_DSP/TransformFunctions/arm_cfft_f32.c **** * \code
 160:../Dave/Generated/CMSIS_DSP/TransformFunctions/arm_cfft_f32.c **** * const static arm_cfft_instance_q31 *S;
 161:../Dave/Generated/CMSIS_DSP/TransformFunctions/arm_cfft_f32.c **** * ...
 162:../Dave/Generated/CMSIS_DSP/TransformFunctions/arm_cfft_f32.c **** *   switch (length) {
 163:../Dave/Generated/CMSIS_DSP/TransformFunctions/arm_cfft_f32.c **** *     case 16:
 164:../Dave/Generated/CMSIS_DSP/TransformFunctions/arm_cfft_f32.c **** *       S = &arm_cfft_sR_q31_len16;
 165:../Dave/Generated/CMSIS_DSP/TransformFunctions/arm_cfft_f32.c **** *       break;
 166:../Dave/Generated/CMSIS_DSP/TransformFunctions/arm_cfft_f32.c **** *     case 32:
 167:../Dave/Generated/CMSIS_DSP/TransformFunctions/arm_cfft_f32.c **** *       S = &arm_cfft_sR_q31_len32;
 168:../Dave/Generated/CMSIS_DSP/TransformFunctions/arm_cfft_f32.c **** *       break;
 169:../Dave/Generated/CMSIS_DSP/TransformFunctions/arm_cfft_f32.c **** *     case 64:
 170:../Dave/Generated/CMSIS_DSP/TransformFunctions/arm_cfft_f32.c **** *       S = &arm_cfft_sR_q31_len64;
 171:../Dave/Generated/CMSIS_DSP/TransformFunctions/arm_cfft_f32.c **** *       break;
 172:../Dave/Generated/CMSIS_DSP/TransformFunctions/arm_cfft_f32.c **** *     case 128:
 173:../Dave/Generated/CMSIS_DSP/TransformFunctions/arm_cfft_f32.c **** *       S = &arm_cfft_sR_q31_len128;
 174:../Dave/Generated/CMSIS_DSP/TransformFunctions/arm_cfft_f32.c **** *       break;
 175:../Dave/Generated/CMSIS_DSP/TransformFunctions/arm_cfft_f32.c **** *     case 256:
 176:../Dave/Generated/CMSIS_DSP/TransformFunctions/arm_cfft_f32.c **** *       S = &arm_cfft_sR_q31_len256;
 177:../Dave/Generated/CMSIS_DSP/TransformFunctions/arm_cfft_f32.c **** *       break;
 178:../Dave/Generated/CMSIS_DSP/TransformFunctions/arm_cfft_f32.c **** *     case 512:
 179:../Dave/Generated/CMSIS_DSP/TransformFunctions/arm_cfft_f32.c **** *       S = &arm_cfft_sR_q31_len512;
 180:../Dave/Generated/CMSIS_DSP/TransformFunctions/arm_cfft_f32.c **** *       break;
 181:../Dave/Generated/CMSIS_DSP/TransformFunctions/arm_cfft_f32.c **** *     case 1024:
 182:../Dave/Generated/CMSIS_DSP/TransformFunctions/arm_cfft_f32.c **** *       S = &arm_cfft_sR_q31_len1024;
 183:../Dave/Generated/CMSIS_DSP/TransformFunctions/arm_cfft_f32.c **** *       break;
 184:../Dave/Generated/CMSIS_DSP/TransformFunctions/arm_cfft_f32.c **** *     case 2048:
 185:../Dave/Generated/CMSIS_DSP/TransformFunctions/arm_cfft_f32.c **** *       S = &arm_cfft_sR_q31_len2048;
 186:../Dave/Generated/CMSIS_DSP/TransformFunctions/arm_cfft_f32.c **** *       break;
 187:../Dave/Generated/CMSIS_DSP/TransformFunctions/arm_cfft_f32.c **** *     case 4096:
 188:../Dave/Generated/CMSIS_DSP/TransformFunctions/arm_cfft_f32.c **** *       S = &arm_cfft_sR_q31_len4096;
 189:../Dave/Generated/CMSIS_DSP/TransformFunctions/arm_cfft_f32.c **** *       break;
 190:../Dave/Generated/CMSIS_DSP/TransformFunctions/arm_cfft_f32.c **** *   }
 191:../Dave/Generated/CMSIS_DSP/TransformFunctions/arm_cfft_f32.c **** * \endcode
 192:../Dave/Generated/CMSIS_DSP/TransformFunctions/arm_cfft_f32.c **** *
 193:../Dave/Generated/CMSIS_DSP/TransformFunctions/arm_cfft_f32.c **** */
 194:../Dave/Generated/CMSIS_DSP/TransformFunctions/arm_cfft_f32.c **** 
 195:../Dave/Generated/CMSIS_DSP/TransformFunctions/arm_cfft_f32.c **** void arm_cfft_radix8by2_f32( arm_cfft_instance_f32 * S, float32_t * p1)
 196:../Dave/Generated/CMSIS_DSP/TransformFunctions/arm_cfft_f32.c **** {
  28              	 .loc 1 196 0
  29              	 .cfi_startproc
  30              	 
  31              	 
  32              	.LVL0:
  33 0000 2DE9F047 	 push {r4,r5,r6,r7,r8,r9,r10,lr}
  34              	.LCFI0:
  35              	 .cfi_def_cfa_offset 32
  36              	 .cfi_offset 4,-32
  37              	 .cfi_offset 5,-28
  38              	 .cfi_offset 6,-24
  39              	 .cfi_offset 7,-20
  40              	 .cfi_offset 8,-16
  41              	 .cfi_offset 9,-12
  42              	 .cfi_offset 10,-8
  43              	 .cfi_offset 14,-4
 197:../Dave/Generated/CMSIS_DSP/TransformFunctions/arm_cfft_f32.c ****     uint32_t    L  = S->fftLen;
  44              	 .loc 1 197 0
  45 0004 B0F800E0 	 ldrh lr,[r0]
  46              	.LVL1:
 198:../Dave/Generated/CMSIS_DSP/TransformFunctions/arm_cfft_f32.c ****     float32_t * pCol1, * pCol2, * pMid1, * pMid2;
 199:../Dave/Generated/CMSIS_DSP/TransformFunctions/arm_cfft_f32.c ****     float32_t * p2 = p1 + L;
 200:../Dave/Generated/CMSIS_DSP/TransformFunctions/arm_cfft_f32.c ****     const float32_t * tw = (float32_t *) S->pTwiddle;
  47              	 .loc 1 200 0
  48 0008 4268     	 ldr r2,[r0,#4]
 196:../Dave/Generated/CMSIS_DSP/TransformFunctions/arm_cfft_f32.c ****     uint32_t    L  = S->fftLen;
  49              	 .loc 1 196 0
  50 000a 8046     	 mov r8,r0
 199:../Dave/Generated/CMSIS_DSP/TransformFunctions/arm_cfft_f32.c ****     const float32_t * tw = (float32_t *) S->pTwiddle;
  51              	 .loc 1 199 0
  52 000c 01EB8E09 	 add r9,r1,lr,lsl#2
  53              	.LVL2:
 201:../Dave/Generated/CMSIS_DSP/TransformFunctions/arm_cfft_f32.c ****     float32_t t1[4], t2[4], t3[4], t4[4], twR, twI;
 202:../Dave/Generated/CMSIS_DSP/TransformFunctions/arm_cfft_f32.c ****     float32_t m0, m1, m2, m3;
 203:../Dave/Generated/CMSIS_DSP/TransformFunctions/arm_cfft_f32.c ****     uint32_t l;
 204:../Dave/Generated/CMSIS_DSP/TransformFunctions/arm_cfft_f32.c **** 
 205:../Dave/Generated/CMSIS_DSP/TransformFunctions/arm_cfft_f32.c ****     pCol1 = p1;
 206:../Dave/Generated/CMSIS_DSP/TransformFunctions/arm_cfft_f32.c ****     pCol2 = p2;
 207:../Dave/Generated/CMSIS_DSP/TransformFunctions/arm_cfft_f32.c **** 
 208:../Dave/Generated/CMSIS_DSP/TransformFunctions/arm_cfft_f32.c ****     //    Define new length
 209:../Dave/Generated/CMSIS_DSP/TransformFunctions/arm_cfft_f32.c ****     L >>= 1;
  54              	 .loc 1 209 0
  55 0010 4FEA5E00 	 lsr r0,lr,#1
  56              	.LVL3:
 210:../Dave/Generated/CMSIS_DSP/TransformFunctions/arm_cfft_f32.c ****     //    Initialize mid pointers
 211:../Dave/Generated/CMSIS_DSP/TransformFunctions/arm_cfft_f32.c ****     pMid1 = p1 + L;
 212:../Dave/Generated/CMSIS_DSP/TransformFunctions/arm_cfft_f32.c ****     pMid2 = p2 + L;
 213:../Dave/Generated/CMSIS_DSP/TransformFunctions/arm_cfft_f32.c **** 
 214:../Dave/Generated/CMSIS_DSP/TransformFunctions/arm_cfft_f32.c ****     // do two dot Fourier transform
 215:../Dave/Generated/CMSIS_DSP/TransformFunctions/arm_cfft_f32.c ****     for ( l = L >> 2; l > 0; l-- )
  57              	 .loc 1 215 0
  58 0014 5FEADE0E 	 lsrs lr,lr,#3
 196:../Dave/Generated/CMSIS_DSP/TransformFunctions/arm_cfft_f32.c ****     uint32_t    L  = S->fftLen;
  59              	 .loc 1 196 0
  60 0018 2DED088B 	 fstmfdd sp!,{d8,d9,d10,d11}
  61              	.LCFI1:
  62              	 .cfi_def_cfa_offset 64
  63              	 .cfi_offset 80,-64
  64              	 .cfi_offset 81,-60
  65              	 .cfi_offset 82,-56
  66              	 .cfi_offset 83,-52
  67              	 .cfi_offset 84,-48
  68              	 .cfi_offset 85,-44
  69              	 .cfi_offset 86,-40
  70              	 .cfi_offset 87,-36
 211:../Dave/Generated/CMSIS_DSP/TransformFunctions/arm_cfft_f32.c ****     pMid2 = p2 + L;
  71              	 .loc 1 211 0
  72 001c 4FEA8003 	 lsl r3,r0,#2
  73              	.LVL4:
  74              	 .loc 1 215 0
  75 0020 00F09F80 	 beq .L4
  76 0024 1033     	 adds r3,r3,#16
  77              	.LVL5:
  78 0026 CE18     	 adds r6,r1,r3
  79 0028 01F11005 	 add r5,r1,#16
  80 002c 4B44     	 add r3,r3,r9
  81              	.LVL6:
  82 002e 02F11007 	 add r7,r2,#16
  83 0032 09F11004 	 add r4,r9,#16
  84              	.LVL7:
  85              	.L3:
 216:../Dave/Generated/CMSIS_DSP/TransformFunctions/arm_cfft_f32.c ****     {
 217:../Dave/Generated/CMSIS_DSP/TransformFunctions/arm_cfft_f32.c ****         t1[0] = p1[0];
 218:../Dave/Generated/CMSIS_DSP/TransformFunctions/arm_cfft_f32.c ****         t1[1] = p1[1];
 219:../Dave/Generated/CMSIS_DSP/TransformFunctions/arm_cfft_f32.c ****         t1[2] = p1[2];
 220:../Dave/Generated/CMSIS_DSP/TransformFunctions/arm_cfft_f32.c ****         t1[3] = p1[3];
 221:../Dave/Generated/CMSIS_DSP/TransformFunctions/arm_cfft_f32.c **** 
 222:../Dave/Generated/CMSIS_DSP/TransformFunctions/arm_cfft_f32.c ****         t2[0] = p2[0];
  86              	 .loc 1 222 0 discriminator 3
  87 0036 14ED042A 	 flds s4,[r4,#-16]
 223:../Dave/Generated/CMSIS_DSP/TransformFunctions/arm_cfft_f32.c ****         t2[1] = p2[1];
  88              	 .loc 1 223 0 discriminator 3
  89 003a 54ED032A 	 flds s5,[r4,#-12]
 224:../Dave/Generated/CMSIS_DSP/TransformFunctions/arm_cfft_f32.c ****         t2[2] = p2[2];
 225:../Dave/Generated/CMSIS_DSP/TransformFunctions/arm_cfft_f32.c ****         t2[3] = p2[3];
 226:../Dave/Generated/CMSIS_DSP/TransformFunctions/arm_cfft_f32.c **** 
 227:../Dave/Generated/CMSIS_DSP/TransformFunctions/arm_cfft_f32.c ****         t3[0] = pMid1[0];
 228:../Dave/Generated/CMSIS_DSP/TransformFunctions/arm_cfft_f32.c ****         t3[1] = pMid1[1];
 229:../Dave/Generated/CMSIS_DSP/TransformFunctions/arm_cfft_f32.c ****         t3[2] = pMid1[2];
 230:../Dave/Generated/CMSIS_DSP/TransformFunctions/arm_cfft_f32.c ****         t3[3] = pMid1[3];
 231:../Dave/Generated/CMSIS_DSP/TransformFunctions/arm_cfft_f32.c **** 
 232:../Dave/Generated/CMSIS_DSP/TransformFunctions/arm_cfft_f32.c ****         t4[0] = pMid2[0];
  90              	 .loc 1 232 0 discriminator 3
  91 003e 13ED045A 	 flds s10,[r3,#-16]
 233:../Dave/Generated/CMSIS_DSP/TransformFunctions/arm_cfft_f32.c ****         t4[1] = pMid2[1];
  92              	 .loc 1 233 0 discriminator 3
  93 0042 53ED035A 	 flds s11,[r3,#-12]
 224:../Dave/Generated/CMSIS_DSP/TransformFunctions/arm_cfft_f32.c ****         t2[2] = p2[2];
  94              	 .loc 1 224 0 discriminator 3
  95 0046 54ED028A 	 flds s17,[r4,#-8]
 227:../Dave/Generated/CMSIS_DSP/TransformFunctions/arm_cfft_f32.c ****         t3[1] = pMid1[1];
  96              	 .loc 1 227 0 discriminator 3
  97 004a 16ED043A 	 flds s6,[r6,#-16]
 228:../Dave/Generated/CMSIS_DSP/TransformFunctions/arm_cfft_f32.c ****         t3[2] = pMid1[2];
  98              	 .loc 1 228 0 discriminator 3
  99 004e 56ED033A 	 flds s7,[r6,#-12]
 234:../Dave/Generated/CMSIS_DSP/TransformFunctions/arm_cfft_f32.c ****         t4[2] = pMid2[2];
 100              	 .loc 1 234 0 discriminator 3
 101 0052 13ED027A 	 flds s14,[r3,#-8]
 235:../Dave/Generated/CMSIS_DSP/TransformFunctions/arm_cfft_f32.c ****         t4[3] = pMid2[3];
 102              	 .loc 1 235 0 discriminator 3
 103 0056 53ED017A 	 flds s15,[r3,#-4]
 217:../Dave/Generated/CMSIS_DSP/TransformFunctions/arm_cfft_f32.c ****         t1[1] = p1[1];
 104              	 .loc 1 217 0 discriminator 3
 105 005a 55ED044A 	 flds s9,[r5,#-16]
 106              	.LVL8:
 225:../Dave/Generated/CMSIS_DSP/TransformFunctions/arm_cfft_f32.c **** 
 107              	 .loc 1 225 0 discriminator 3
 108 005e 14ED018A 	 flds s16,[r4,#-4]
 229:../Dave/Generated/CMSIS_DSP/TransformFunctions/arm_cfft_f32.c ****         t3[3] = pMid1[3];
 109              	 .loc 1 229 0 discriminator 3
 110 0062 16ED020A 	 flds s0,[r6,#-8]
 230:../Dave/Generated/CMSIS_DSP/TransformFunctions/arm_cfft_f32.c **** 
 111              	 .loc 1 230 0 discriminator 3
 112 0066 56ED010A 	 flds s1,[r6,#-4]
 218:../Dave/Generated/CMSIS_DSP/TransformFunctions/arm_cfft_f32.c ****         t1[2] = p1[2];
 113              	 .loc 1 218 0 discriminator 3
 114 006a 15ED034A 	 flds s8,[r5,#-12]
 115              	.LVL9:
 219:../Dave/Generated/CMSIS_DSP/TransformFunctions/arm_cfft_f32.c ****         t1[3] = p1[3];
 116              	 .loc 1 219 0 discriminator 3
 117 006e 55ED026A 	 flds s13,[r5,#-8]
 118              	.LVL10:
 220:../Dave/Generated/CMSIS_DSP/TransformFunctions/arm_cfft_f32.c **** 
 119              	 .loc 1 220 0 discriminator 3
 120 0072 15ED016A 	 flds s12,[r5,#-4]
 121              	.LVL11:
 236:../Dave/Generated/CMSIS_DSP/TransformFunctions/arm_cfft_f32.c **** 
 237:../Dave/Generated/CMSIS_DSP/TransformFunctions/arm_cfft_f32.c ****         *p1++ = t1[0] + t2[0];
 122              	 .loc 1 237 0 discriminator 3
 123 0076 74EE82BA 	 fadds s23,s9,s4
 238:../Dave/Generated/CMSIS_DSP/TransformFunctions/arm_cfft_f32.c ****         *p1++ = t1[1] + t2[1];
 124              	 .loc 1 238 0 discriminator 3
 125 007a 34EE22BA 	 fadds s22,s8,s5
 239:../Dave/Generated/CMSIS_DSP/TransformFunctions/arm_cfft_f32.c ****         *p1++ = t1[2] + t2[2];
 240:../Dave/Generated/CMSIS_DSP/TransformFunctions/arm_cfft_f32.c ****         *p1++ = t1[3] + t2[3];    // col 1
 241:../Dave/Generated/CMSIS_DSP/TransformFunctions/arm_cfft_f32.c **** 
 242:../Dave/Generated/CMSIS_DSP/TransformFunctions/arm_cfft_f32.c ****         t2[0] = t1[0] - t2[0];
 243:../Dave/Generated/CMSIS_DSP/TransformFunctions/arm_cfft_f32.c ****         t2[1] = t1[1] - t2[1];
 244:../Dave/Generated/CMSIS_DSP/TransformFunctions/arm_cfft_f32.c ****         t2[2] = t1[2] - t2[2];
 245:../Dave/Generated/CMSIS_DSP/TransformFunctions/arm_cfft_f32.c ****         t2[3] = t1[3] - t2[3];    // for col 2
 246:../Dave/Generated/CMSIS_DSP/TransformFunctions/arm_cfft_f32.c **** 
 247:../Dave/Generated/CMSIS_DSP/TransformFunctions/arm_cfft_f32.c ****         *pMid1++ = t3[0] + t4[0];
 126              	 .loc 1 247 0 discriminator 3
 127 007e 73EE059A 	 fadds s19,s6,s10
 248:../Dave/Generated/CMSIS_DSP/TransformFunctions/arm_cfft_f32.c ****         *pMid1++ = t3[1] + t4[1];
 128              	 .loc 1 248 0 discriminator 3
 129 0082 33EEA59A 	 fadds s18,s7,s11
 249:../Dave/Generated/CMSIS_DSP/TransformFunctions/arm_cfft_f32.c ****         *pMid1++ = t3[2] + t4[2];
 130              	 .loc 1 249 0 discriminator 3
 131 0086 30EE071A 	 fadds s2,s0,s14
 250:../Dave/Generated/CMSIS_DSP/TransformFunctions/arm_cfft_f32.c ****         *pMid1++ = t3[3] + t4[3]; // col 1
 132              	 .loc 1 250 0 discriminator 3
 133 008a 70EEA71A 	 fadds s3,s1,s15
 239:../Dave/Generated/CMSIS_DSP/TransformFunctions/arm_cfft_f32.c ****         *p1++ = t1[3] + t2[3];    // col 1
 134              	 .loc 1 239 0 discriminator 3
 135 008e 76EEA8AA 	 fadds s21,s13,s17
 240:../Dave/Generated/CMSIS_DSP/TransformFunctions/arm_cfft_f32.c **** 
 136              	 .loc 1 240 0 discriminator 3
 137 0092 36EE08AA 	 fadds s20,s12,s16
 237:../Dave/Generated/CMSIS_DSP/TransformFunctions/arm_cfft_f32.c ****         *p1++ = t1[1] + t2[1];
 138              	 .loc 1 237 0 discriminator 3
 139 0096 45ED04BA 	 fsts s23,[r5,#-16]
 140              	.LVL12:
 238:../Dave/Generated/CMSIS_DSP/TransformFunctions/arm_cfft_f32.c ****         *p1++ = t1[2] + t2[2];
 141              	 .loc 1 238 0 discriminator 3
 142 009a 05ED03BA 	 fsts s22,[r5,#-12]
 143              	.LVL13:
 239:../Dave/Generated/CMSIS_DSP/TransformFunctions/arm_cfft_f32.c ****         *p1++ = t1[3] + t2[3];    // col 1
 144              	 .loc 1 239 0 discriminator 3
 145 009e 45ED02AA 	 fsts s21,[r5,#-8]
 146              	.LVL14:
 240:../Dave/Generated/CMSIS_DSP/TransformFunctions/arm_cfft_f32.c **** 
 147              	 .loc 1 240 0 discriminator 3
 148 00a2 05ED01AA 	 fsts s20,[r5,#-4]
 249:../Dave/Generated/CMSIS_DSP/TransformFunctions/arm_cfft_f32.c ****         *pMid1++ = t3[3] + t4[3]; // col 1
 149              	 .loc 1 249 0 discriminator 3
 150 00a6 06ED021A 	 fsts s2,[r6,#-8]
 151              	 .loc 1 250 0 discriminator 3
 152 00aa 46ED011A 	 fsts s3,[r6,#-4]
 247:../Dave/Generated/CMSIS_DSP/TransformFunctions/arm_cfft_f32.c ****         *pMid1++ = t3[1] + t4[1];
 153              	 .loc 1 247 0 discriminator 3
 154 00ae 46ED049A 	 fsts s19,[r6,#-16]
 248:../Dave/Generated/CMSIS_DSP/TransformFunctions/arm_cfft_f32.c ****         *pMid1++ = t3[2] + t4[2];
 155              	 .loc 1 248 0 discriminator 3
 156 00b2 06ED039A 	 fsts s18,[r6,#-12]
 242:../Dave/Generated/CMSIS_DSP/TransformFunctions/arm_cfft_f32.c ****         t2[1] = t1[1] - t2[1];
 157              	 .loc 1 242 0 discriminator 3
 158 00b6 74EEC24A 	 fsubs s9,s9,s4
 159              	.LVL15:
 243:../Dave/Generated/CMSIS_DSP/TransformFunctions/arm_cfft_f32.c ****         t2[2] = t1[2] - t2[2];
 160              	 .loc 1 243 0 discriminator 3
 161 00ba 34EE624A 	 fsubs s8,s8,s5
 162              	.LVL16:
 251:../Dave/Generated/CMSIS_DSP/TransformFunctions/arm_cfft_f32.c **** 
 252:../Dave/Generated/CMSIS_DSP/TransformFunctions/arm_cfft_f32.c ****         t4[0] = t4[0] - t3[0];
 163              	 .loc 1 252 0 discriminator 3
 164 00be 35EE435A 	 fsubs s10,s10,s6
 165              	.LVL17:
 253:../Dave/Generated/CMSIS_DSP/TransformFunctions/arm_cfft_f32.c ****         t4[1] = t4[1] - t3[1];
 166              	 .loc 1 253 0 discriminator 3
 167 00c2 75EEE35A 	 fsubs s11,s11,s7
 168              	.LVL18:
 254:../Dave/Generated/CMSIS_DSP/TransformFunctions/arm_cfft_f32.c ****         t4[2] = t4[2] - t3[2];
 255:../Dave/Generated/CMSIS_DSP/TransformFunctions/arm_cfft_f32.c ****         t4[3] = t4[3] - t3[3];    // for col 2
 256:../Dave/Generated/CMSIS_DSP/TransformFunctions/arm_cfft_f32.c **** 
 257:../Dave/Generated/CMSIS_DSP/TransformFunctions/arm_cfft_f32.c ****         twR = *tw++;
 169              	 .loc 1 257 0 discriminator 3
 170 00c6 17ED043A 	 flds s6,[r7,#-16]
 171              	.LVL19:
 258:../Dave/Generated/CMSIS_DSP/TransformFunctions/arm_cfft_f32.c ****         twI = *tw++;
 172              	 .loc 1 258 0 discriminator 3
 173 00ca 57ED033A 	 flds s7,[r7,#-12]
 174              	.LVL20:
 175 00ce 23EE652A 	 fnmuls s4,s6,s11
 259:../Dave/Generated/CMSIS_DSP/TransformFunctions/arm_cfft_f32.c **** 
 260:../Dave/Generated/CMSIS_DSP/TransformFunctions/arm_cfft_f32.c ****         // multiply by twiddle factors
 261:../Dave/Generated/CMSIS_DSP/TransformFunctions/arm_cfft_f32.c ****         m0 = t2[0] * twR;
 262:../Dave/Generated/CMSIS_DSP/TransformFunctions/arm_cfft_f32.c ****         m1 = t2[1] * twI;
 176              	 .loc 1 262 0 discriminator 3
 177 00d2 64EE231A 	 fmuls s3,s8,s7
 178 00d6 23EEE41A 	 fnmuls s2,s7,s9
 263:../Dave/Generated/CMSIS_DSP/TransformFunctions/arm_cfft_f32.c ****         m2 = t2[1] * twR;
 264:../Dave/Generated/CMSIS_DSP/TransformFunctions/arm_cfft_f32.c ****         m3 = t2[0] * twI;
 265:../Dave/Generated/CMSIS_DSP/TransformFunctions/arm_cfft_f32.c **** 
 266:../Dave/Generated/CMSIS_DSP/TransformFunctions/arm_cfft_f32.c ****         // R  =  R  *  Tr - I * Ti
 267:../Dave/Generated/CMSIS_DSP/TransformFunctions/arm_cfft_f32.c ****         *p2++ = m0 + m1;
 268:../Dave/Generated/CMSIS_DSP/TransformFunctions/arm_cfft_f32.c ****         // I  =  I  *  Tr + R * Ti
 269:../Dave/Generated/CMSIS_DSP/TransformFunctions/arm_cfft_f32.c ****         *p2++ = m2 - m3;
 270:../Dave/Generated/CMSIS_DSP/TransformFunctions/arm_cfft_f32.c **** 
 271:../Dave/Generated/CMSIS_DSP/TransformFunctions/arm_cfft_f32.c ****         // use vertical symmetry
 272:../Dave/Generated/CMSIS_DSP/TransformFunctions/arm_cfft_f32.c ****         //  0.9988 - 0.0491i <==> -0.0491 - 0.9988i
 273:../Dave/Generated/CMSIS_DSP/TransformFunctions/arm_cfft_f32.c ****         m0 = t4[0] * twI;
 274:../Dave/Generated/CMSIS_DSP/TransformFunctions/arm_cfft_f32.c ****         m1 = t4[1] * twR;
 275:../Dave/Generated/CMSIS_DSP/TransformFunctions/arm_cfft_f32.c ****         m2 = t4[1] * twI;
 276:../Dave/Generated/CMSIS_DSP/TransformFunctions/arm_cfft_f32.c ****         m3 = t4[0] * twR;
 179              	 .loc 1 276 0 discriminator 3
 180 00da 65EE032A 	 fmuls s5,s10,s6
 269:../Dave/Generated/CMSIS_DSP/TransformFunctions/arm_cfft_f32.c **** 
 181              	 .loc 1 269 0 discriminator 3
 182 00de A4EE031A 	 vfma.f32 s2,s8,s6
 215:../Dave/Generated/CMSIS_DSP/TransformFunctions/arm_cfft_f32.c ****     {
 183              	 .loc 1 215 0 discriminator 3
 184 00e2 BEF1010E 	 subs lr,lr,#1
 185              	.LVL21:
 186 00e6 05F11005 	 add r5,r5,#16
 187              	.LVL22:
 267:../Dave/Generated/CMSIS_DSP/TransformFunctions/arm_cfft_f32.c ****         // I  =  I  *  Tr + R * Ti
 188              	 .loc 1 267 0 discriminator 3
 189 00ea E4EE831A 	 vfma.f32 s3,s9,s6
 190 00ee 06F11006 	 add r6,r6,#16
 191 00f2 07F11007 	 add r7,r7,#16
 277:../Dave/Generated/CMSIS_DSP/TransformFunctions/arm_cfft_f32.c **** 
 278:../Dave/Generated/CMSIS_DSP/TransformFunctions/arm_cfft_f32.c ****         *pMid2++ = m0 - m1;
 192              	 .loc 1 278 0 discriminator 3
 193 00f6 A5EE232A 	 vfma.f32 s4,s10,s7
 194 00fa 04F11004 	 add r4,r4,#16
 195 00fe 03F11003 	 add r3,r3,#16
 279:../Dave/Generated/CMSIS_DSP/TransformFunctions/arm_cfft_f32.c ****         *pMid2++ = m2 + m3;
 196              	 .loc 1 279 0 discriminator 3
 197 0102 E5EEA32A 	 vfma.f32 s5,s11,s7
 269:../Dave/Generated/CMSIS_DSP/TransformFunctions/arm_cfft_f32.c **** 
 198              	 .loc 1 269 0 discriminator 3
 199 0106 04ED071A 	 fsts s2,[r4,#-28]
 267:../Dave/Generated/CMSIS_DSP/TransformFunctions/arm_cfft_f32.c ****         // I  =  I  *  Tr + R * Ti
 200              	 .loc 1 267 0 discriminator 3
 201 010a 44ED081A 	 fsts s3,[r4,#-32]
 278:../Dave/Generated/CMSIS_DSP/TransformFunctions/arm_cfft_f32.c ****         *pMid2++ = m2 + m3;
 202              	 .loc 1 278 0 discriminator 3
 203 010e 03ED082A 	 fsts s4,[r3,#-32]
 204              	 .loc 1 279 0 discriminator 3
 205 0112 43ED072A 	 fsts s5,[r3,#-28]
 280:../Dave/Generated/CMSIS_DSP/TransformFunctions/arm_cfft_f32.c **** 
 281:../Dave/Generated/CMSIS_DSP/TransformFunctions/arm_cfft_f32.c ****         twR = *tw++;
 282:../Dave/Generated/CMSIS_DSP/TransformFunctions/arm_cfft_f32.c ****         twI = *tw++;
 206              	 .loc 1 282 0 discriminator 3
 207 0116 57ED055A 	 flds s11,[r7,#-20]
 281:../Dave/Generated/CMSIS_DSP/TransformFunctions/arm_cfft_f32.c ****         twI = *tw++;
 208              	 .loc 1 281 0 discriminator 3
 209 011a 17ED065A 	 flds s10,[r7,#-24]
 244:../Dave/Generated/CMSIS_DSP/TransformFunctions/arm_cfft_f32.c ****         t2[3] = t1[3] - t2[3];    // for col 2
 210              	 .loc 1 244 0 discriminator 3
 211 011e 76EEE86A 	 fsubs s13,s13,s17
 212              	.LVL23:
 245:../Dave/Generated/CMSIS_DSP/TransformFunctions/arm_cfft_f32.c **** 
 213              	 .loc 1 245 0 discriminator 3
 214 0122 36EE486A 	 fsubs s12,s12,s16
 215              	.LVL24:
 254:../Dave/Generated/CMSIS_DSP/TransformFunctions/arm_cfft_f32.c ****         t4[3] = t4[3] - t3[3];    // for col 2
 216              	 .loc 1 254 0 discriminator 3
 217 0126 37EE407A 	 fsubs s14,s14,s0
 218              	.LVL25:
 255:../Dave/Generated/CMSIS_DSP/TransformFunctions/arm_cfft_f32.c **** 
 219              	 .loc 1 255 0 discriminator 3
 220 012a 77EEE07A 	 fsubs s15,s15,s1
 221              	.LVL26:
 283:../Dave/Generated/CMSIS_DSP/TransformFunctions/arm_cfft_f32.c **** 
 284:../Dave/Generated/CMSIS_DSP/TransformFunctions/arm_cfft_f32.c ****         m0 = t2[2] * twR;
 285:../Dave/Generated/CMSIS_DSP/TransformFunctions/arm_cfft_f32.c ****         m1 = t2[3] * twI;
 222              	 .loc 1 285 0 discriminator 3
 223 012e 26EE253A 	 fmuls s6,s12,s11
 224              	.LVL27:
 225 0132 65EEE63A 	 fnmuls s7,s11,s13
 226 0136 25EE674A 	 fnmuls s8,s10,s15
 227              	.LVL28:
 286:../Dave/Generated/CMSIS_DSP/TransformFunctions/arm_cfft_f32.c ****         m2 = t2[3] * twR;
 287:../Dave/Generated/CMSIS_DSP/TransformFunctions/arm_cfft_f32.c ****         m3 = t2[2] * twI;
 288:../Dave/Generated/CMSIS_DSP/TransformFunctions/arm_cfft_f32.c **** 
 289:../Dave/Generated/CMSIS_DSP/TransformFunctions/arm_cfft_f32.c ****         *p2++ = m0 + m1;
 290:../Dave/Generated/CMSIS_DSP/TransformFunctions/arm_cfft_f32.c ****         *p2++ = m2 - m3;
 291:../Dave/Generated/CMSIS_DSP/TransformFunctions/arm_cfft_f32.c **** 
 292:../Dave/Generated/CMSIS_DSP/TransformFunctions/arm_cfft_f32.c ****         m0 = t4[2] * twI;
 293:../Dave/Generated/CMSIS_DSP/TransformFunctions/arm_cfft_f32.c ****         m1 = t4[3] * twR;
 294:../Dave/Generated/CMSIS_DSP/TransformFunctions/arm_cfft_f32.c ****         m2 = t4[3] * twI;
 295:../Dave/Generated/CMSIS_DSP/TransformFunctions/arm_cfft_f32.c ****         m3 = t4[2] * twR;
 228              	 .loc 1 295 0 discriminator 3
 229 013a 67EE054A 	 fmuls s9,s14,s10
 230              	.LVL29:
 290:../Dave/Generated/CMSIS_DSP/TransformFunctions/arm_cfft_f32.c **** 
 231              	 .loc 1 290 0 discriminator 3
 232 013e E6EE053A 	 vfma.f32 s7,s12,s10
 289:../Dave/Generated/CMSIS_DSP/TransformFunctions/arm_cfft_f32.c ****         *p2++ = m2 - m3;
 233              	 .loc 1 289 0 discriminator 3
 234 0142 A6EE853A 	 vfma.f32 s6,s13,s10
 235              	.LVL30:
 296:../Dave/Generated/CMSIS_DSP/TransformFunctions/arm_cfft_f32.c **** 
 297:../Dave/Generated/CMSIS_DSP/TransformFunctions/arm_cfft_f32.c ****         *pMid2++ = m0 - m1;
 236              	 .loc 1 297 0 discriminator 3
 237 0146 A7EE254A 	 vfma.f32 s8,s14,s11
 298:../Dave/Generated/CMSIS_DSP/TransformFunctions/arm_cfft_f32.c ****         *pMid2++ = m2 + m3;
 238              	 .loc 1 298 0 discriminator 3
 239 014a E7EEA54A 	 vfma.f32 s9,s15,s11
 289:../Dave/Generated/CMSIS_DSP/TransformFunctions/arm_cfft_f32.c ****         *p2++ = m2 - m3;
 240              	 .loc 1 289 0 discriminator 3
 241 014e 04ED063A 	 fsts s6,[r4,#-24]
 290:../Dave/Generated/CMSIS_DSP/TransformFunctions/arm_cfft_f32.c **** 
 242              	 .loc 1 290 0 discriminator 3
 243 0152 44ED053A 	 fsts s7,[r4,#-20]
 244              	.LVL31:
 297:../Dave/Generated/CMSIS_DSP/TransformFunctions/arm_cfft_f32.c ****         *pMid2++ = m2 + m3;
 245              	 .loc 1 297 0 discriminator 3
 246 0156 03ED064A 	 fsts s8,[r3,#-24]
 247              	.LVL32:
 248              	 .loc 1 298 0 discriminator 3
 249 015a 43ED054A 	 fsts s9,[r3,#-20]
 215:../Dave/Generated/CMSIS_DSP/TransformFunctions/arm_cfft_f32.c ****     {
 250              	 .loc 1 215 0 discriminator 3
 251 015e 7FF46AAF 	 bne .L3
 252              	.LVL33:
 253              	.L4:
 299:../Dave/Generated/CMSIS_DSP/TransformFunctions/arm_cfft_f32.c ****     }
 300:../Dave/Generated/CMSIS_DSP/TransformFunctions/arm_cfft_f32.c **** 
 301:../Dave/Generated/CMSIS_DSP/TransformFunctions/arm_cfft_f32.c ****     // first col
 302:../Dave/Generated/CMSIS_DSP/TransformFunctions/arm_cfft_f32.c ****     arm_radix8_butterfly_f32( pCol1, L, (float32_t *) S->pTwiddle, 2u);
 254              	 .loc 1 302 0
 255 0162 84B2     	 uxth r4,r0
 256 0164 0223     	 movs r3,#2
 257 0166 0846     	 mov r0,r1
 258              	.LVL34:
 259 0168 2146     	 mov r1,r4
 260              	.LVL35:
 261 016a FFF7FEFF 	 bl arm_radix8_butterfly_f32
 262              	.LVL36:
 303:../Dave/Generated/CMSIS_DSP/TransformFunctions/arm_cfft_f32.c ****     // second col
 304:../Dave/Generated/CMSIS_DSP/TransformFunctions/arm_cfft_f32.c ****     arm_radix8_butterfly_f32( pCol2, L, (float32_t *) S->pTwiddle, 2u);
 305:../Dave/Generated/CMSIS_DSP/TransformFunctions/arm_cfft_f32.c **** }
 263              	 .loc 1 305 0
 264 016e BDEC088B 	 fldmfdd sp!,{d8-d11}
 265              	.LCFI2:
 266              	 .cfi_restore 86
 267              	 .cfi_restore 87
 268              	 .cfi_restore 84
 269              	 .cfi_restore 85
 270              	 .cfi_restore 82
 271              	 .cfi_restore 83
 272              	 .cfi_restore 80
 273              	 .cfi_restore 81
 274              	 .cfi_def_cfa_offset 32
 304:../Dave/Generated/CMSIS_DSP/TransformFunctions/arm_cfft_f32.c **** }
 275              	 .loc 1 304 0
 276 0172 4846     	 mov r0,r9
 277 0174 2146     	 mov r1,r4
 278 0176 D8F80420 	 ldr r2,[r8,#4]
 279 017a 0223     	 movs r3,#2
 280              	 .loc 1 305 0
 281 017c BDE8F047 	 pop {r4,r5,r6,r7,r8,r9,r10,lr}
 282              	.LCFI3:
 283              	 .cfi_restore 14
 284              	 .cfi_restore 10
 285              	 .cfi_restore 9
 286              	 .cfi_restore 8
 287              	 .cfi_restore 7
 288              	 .cfi_restore 6
 289              	 .cfi_restore 5
 290              	 .cfi_restore 4
 291              	 .cfi_def_cfa_offset 0
 292              	.LVL37:
 304:../Dave/Generated/CMSIS_DSP/TransformFunctions/arm_cfft_f32.c **** }
 293              	 .loc 1 304 0
 294 0180 FFF7FEBF 	 b arm_radix8_butterfly_f32
 295              	.LVL38:
 296              	 .cfi_endproc
 297              	.LFE135:
 299              	 .section .text.arm_cfft_radix8by4_f32,"ax",%progbits
 300              	 .align 2
 301              	 .global arm_cfft_radix8by4_f32
 302              	 .thumb
 303              	 .thumb_func
 305              	arm_cfft_radix8by4_f32:
 306              	.LFB136:
 306:../Dave/Generated/CMSIS_DSP/TransformFunctions/arm_cfft_f32.c **** 
 307:../Dave/Generated/CMSIS_DSP/TransformFunctions/arm_cfft_f32.c **** void arm_cfft_radix8by4_f32( arm_cfft_instance_f32 * S, float32_t * p1)
 308:../Dave/Generated/CMSIS_DSP/TransformFunctions/arm_cfft_f32.c **** {
 307              	 .loc 1 308 0
 308              	 .cfi_startproc
 309              	 
 310              	 
 311              	.LVL39:
 312 0000 2DE9F04F 	 push {r4,r5,r6,r7,r8,r9,r10,fp,lr}
 313              	.LCFI4:
 314              	 .cfi_def_cfa_offset 36
 315              	 .cfi_offset 4,-36
 316              	 .cfi_offset 5,-32
 317              	 .cfi_offset 6,-28
 318              	 .cfi_offset 7,-24
 319              	 .cfi_offset 8,-20
 320              	 .cfi_offset 9,-16
 321              	 .cfi_offset 10,-12
 322              	 .cfi_offset 11,-8
 323              	 .cfi_offset 14,-4
 324 0004 2DED0A8B 	 fstmfdd sp!,{d8,d9,d10,d11,d12}
 325              	.LCFI5:
 326              	 .cfi_def_cfa_offset 76
 327              	 .cfi_offset 80,-76
 328              	 .cfi_offset 81,-72
 329              	 .cfi_offset 82,-68
 330              	 .cfi_offset 83,-64
 331              	 .cfi_offset 84,-60
 332              	 .cfi_offset 85,-56
 333              	 .cfi_offset 86,-52
 334              	 .cfi_offset 87,-48
 335              	 .cfi_offset 88,-44
 336              	 .cfi_offset 89,-40
 309:../Dave/Generated/CMSIS_DSP/TransformFunctions/arm_cfft_f32.c ****     uint32_t    L  = S->fftLen >> 1;
 337              	 .loc 1 309 0
 338 0008 0488     	 ldrh r4,[r0]
 310:../Dave/Generated/CMSIS_DSP/TransformFunctions/arm_cfft_f32.c ****     float32_t * pCol1, *pCol2, *pCol3, *pCol4, *pEnd1, *pEnd2, *pEnd3, *pEnd4;
 311:../Dave/Generated/CMSIS_DSP/TransformFunctions/arm_cfft_f32.c ****     const float32_t *tw2, *tw3, *tw4;
 312:../Dave/Generated/CMSIS_DSP/TransformFunctions/arm_cfft_f32.c ****     float32_t * p2 = p1 + L;
 313:../Dave/Generated/CMSIS_DSP/TransformFunctions/arm_cfft_f32.c ****     float32_t * p3 = p2 + L;
 314:../Dave/Generated/CMSIS_DSP/TransformFunctions/arm_cfft_f32.c ****     float32_t * p4 = p3 + L;
 315:../Dave/Generated/CMSIS_DSP/TransformFunctions/arm_cfft_f32.c ****     float32_t t2[4], t3[4], t4[4], twR, twI;
 316:../Dave/Generated/CMSIS_DSP/TransformFunctions/arm_cfft_f32.c ****     float32_t p1ap3_0, p1sp3_0, p1ap3_1, p1sp3_1;
 317:../Dave/Generated/CMSIS_DSP/TransformFunctions/arm_cfft_f32.c ****     float32_t m0, m1, m2, m3;
 318:../Dave/Generated/CMSIS_DSP/TransformFunctions/arm_cfft_f32.c ****     uint32_t l, twMod2, twMod3, twMod4;
 319:../Dave/Generated/CMSIS_DSP/TransformFunctions/arm_cfft_f32.c **** 
 320:../Dave/Generated/CMSIS_DSP/TransformFunctions/arm_cfft_f32.c ****     pCol1 = p1;         // points to real values by default
 321:../Dave/Generated/CMSIS_DSP/TransformFunctions/arm_cfft_f32.c ****     pCol2 = p2;
 322:../Dave/Generated/CMSIS_DSP/TransformFunctions/arm_cfft_f32.c ****     pCol3 = p3;
 323:../Dave/Generated/CMSIS_DSP/TransformFunctions/arm_cfft_f32.c ****     pCol4 = p4;
 324:../Dave/Generated/CMSIS_DSP/TransformFunctions/arm_cfft_f32.c ****     pEnd1 = p2 - 1;     // points to imaginary values by default
 325:../Dave/Generated/CMSIS_DSP/TransformFunctions/arm_cfft_f32.c ****     pEnd2 = p3 - 1;
 326:../Dave/Generated/CMSIS_DSP/TransformFunctions/arm_cfft_f32.c ****     pEnd3 = p4 - 1;
 327:../Dave/Generated/CMSIS_DSP/TransformFunctions/arm_cfft_f32.c ****     pEnd4 = pEnd3 + L;
 328:../Dave/Generated/CMSIS_DSP/TransformFunctions/arm_cfft_f32.c **** 
 329:../Dave/Generated/CMSIS_DSP/TransformFunctions/arm_cfft_f32.c ****     tw2 = tw3 = tw4 = (float32_t *) S->pTwiddle;
 339              	 .loc 1 329 0
 340 000a 4368     	 ldr r3,[r0,#4]
 330:../Dave/Generated/CMSIS_DSP/TransformFunctions/arm_cfft_f32.c **** 
 331:../Dave/Generated/CMSIS_DSP/TransformFunctions/arm_cfft_f32.c ****     L >>= 1;
 332:../Dave/Generated/CMSIS_DSP/TransformFunctions/arm_cfft_f32.c **** 
 333:../Dave/Generated/CMSIS_DSP/TransformFunctions/arm_cfft_f32.c ****     // do four dot Fourier transform
 334:../Dave/Generated/CMSIS_DSP/TransformFunctions/arm_cfft_f32.c **** 
 335:../Dave/Generated/CMSIS_DSP/TransformFunctions/arm_cfft_f32.c ****     twMod2 = 2;
 336:../Dave/Generated/CMSIS_DSP/TransformFunctions/arm_cfft_f32.c ****     twMod3 = 4;
 337:../Dave/Generated/CMSIS_DSP/TransformFunctions/arm_cfft_f32.c ****     twMod4 = 6;
 338:../Dave/Generated/CMSIS_DSP/TransformFunctions/arm_cfft_f32.c **** 
 339:../Dave/Generated/CMSIS_DSP/TransformFunctions/arm_cfft_f32.c ****     // TOP
 340:../Dave/Generated/CMSIS_DSP/TransformFunctions/arm_cfft_f32.c ****     p1ap3_0 = p1[0] + p3[0];
 341              	 .loc 1 340 0
 342 000c 91ED006A 	 flds s12,[r1]
 341:../Dave/Generated/CMSIS_DSP/TransformFunctions/arm_cfft_f32.c ****     p1sp3_0 = p1[0] - p3[0];
 342:../Dave/Generated/CMSIS_DSP/TransformFunctions/arm_cfft_f32.c ****     p1ap3_1 = p1[1] + p3[1];
 343              	 .loc 1 342 0
 344 0010 91ED017A 	 flds s14,[r1,#4]
 308:../Dave/Generated/CMSIS_DSP/TransformFunctions/arm_cfft_f32.c ****     uint32_t    L  = S->fftLen >> 1;
 345              	 .loc 1 308 0
 346 0014 8FB0     	 sub sp,sp,#60
 347              	.LCFI6:
 348              	 .cfi_def_cfa_offset 136
 309:../Dave/Generated/CMSIS_DSP/TransformFunctions/arm_cfft_f32.c ****     float32_t * pCol1, *pCol2, *pCol3, *pCol4, *pEnd1, *pEnd2, *pEnd3, *pEnd4;
 349              	 .loc 1 309 0
 350 0016 6408     	 lsrs r4,r4,#1
 351              	.LVL40:
 329:../Dave/Generated/CMSIS_DSP/TransformFunctions/arm_cfft_f32.c **** 
 352              	 .loc 1 329 0
 353 0018 0193     	 str r3,[sp,#4]
 354              	 .loc 1 342 0
 355 001a 0A46     	 mov r2,r1
 312:../Dave/Generated/CMSIS_DSP/TransformFunctions/arm_cfft_f32.c ****     float32_t * p3 = p2 + L;
 356              	 .loc 1 312 0
 357 001c A300     	 lsls r3,r4,#2
 358 001e 1A44     	 add r2,r2,r3
 359 0020 1546     	 mov r5,r2
 360 0022 0892     	 str r2,[sp,#32]
 361              	.LVL41:
 313:../Dave/Generated/CMSIS_DSP/TransformFunctions/arm_cfft_f32.c ****     float32_t * p4 = p3 + L;
 362              	 .loc 1 313 0
 363 0024 1A44     	 add r2,r2,r3
 364              	.LVL42:
 340:../Dave/Generated/CMSIS_DSP/TransformFunctions/arm_cfft_f32.c ****     p1sp3_0 = p1[0] - p3[0];
 365              	 .loc 1 340 0
 366 0026 D2ED006A 	 flds s13,[r2]
 343:../Dave/Generated/CMSIS_DSP/TransformFunctions/arm_cfft_f32.c ****     p1sp3_1 = p1[1] - p3[1];
 344:../Dave/Generated/CMSIS_DSP/TransformFunctions/arm_cfft_f32.c **** 
 345:../Dave/Generated/CMSIS_DSP/TransformFunctions/arm_cfft_f32.c ****     // col 2
 346:../Dave/Generated/CMSIS_DSP/TransformFunctions/arm_cfft_f32.c ****     t2[0] = p1sp3_0 + p2[1] - p4[1];
 347:../Dave/Generated/CMSIS_DSP/TransformFunctions/arm_cfft_f32.c ****     t2[1] = p1sp3_1 - p2[0] + p4[0];
 367              	 .loc 1 347 0
 368 002a D5ED003A 	 flds s7,[r5]
 308:../Dave/Generated/CMSIS_DSP/TransformFunctions/arm_cfft_f32.c ****     uint32_t    L  = S->fftLen >> 1;
 369              	 .loc 1 308 0
 370 002e 0C91     	 str r1,[sp,#48]
 371 0030 0E46     	 mov r6,r1
 340:../Dave/Generated/CMSIS_DSP/TransformFunctions/arm_cfft_f32.c ****     p1sp3_0 = p1[0] - p3[0];
 372              	 .loc 1 340 0
 373 0032 76EE265A 	 fadds s11,s12,s13
 342:../Dave/Generated/CMSIS_DSP/TransformFunctions/arm_cfft_f32.c ****     p1sp3_1 = p1[1] - p3[1];
 374              	 .loc 1 342 0
 375 0036 1146     	 mov r1,r2
 376              	.LVL43:
 308:../Dave/Generated/CMSIS_DSP/TransformFunctions/arm_cfft_f32.c ****     uint32_t    L  = S->fftLen >> 1;
 377              	 .loc 1 308 0
 378 0038 0B90     	 str r0,[sp,#44]
 314:../Dave/Generated/CMSIS_DSP/TransformFunctions/arm_cfft_f32.c ****     float32_t t2[4], t3[4], t4[4], twR, twI;
 379              	 .loc 1 314 0
 380 003a 0846     	 mov r0,r1
 381              	.LVL44:
 382 003c 1944     	 add r1,r1,r3
 383              	 .loc 1 347 0
 384 003e 91ED004A 	 flds s8,[r1]
 346:../Dave/Generated/CMSIS_DSP/TransformFunctions/arm_cfft_f32.c ****     t2[1] = p1sp3_1 - p2[0] + p4[0];
 385              	 .loc 1 346 0
 386 0042 D5ED012A 	 flds s5,[r5,#4]
 342:../Dave/Generated/CMSIS_DSP/TransformFunctions/arm_cfft_f32.c ****     p1sp3_1 = p1[1] - p3[1];
 387              	 .loc 1 342 0
 388 0046 D2ED017A 	 flds s15,[r2,#4]
 313:../Dave/Generated/CMSIS_DSP/TransformFunctions/arm_cfft_f32.c ****     float32_t * p4 = p3 + L;
 389              	 .loc 1 313 0
 390 004a 0992     	 str r2,[sp,#36]
 391              	.LVL45:
 348:../Dave/Generated/CMSIS_DSP/TransformFunctions/arm_cfft_f32.c ****     // col 3
 349:../Dave/Generated/CMSIS_DSP/TransformFunctions/arm_cfft_f32.c ****     t3[0] = p1ap3_0 - p2[0] - p4[0];
 350:../Dave/Generated/CMSIS_DSP/TransformFunctions/arm_cfft_f32.c ****     t3[1] = p1ap3_1 - p2[1] - p4[1];
 351:../Dave/Generated/CMSIS_DSP/TransformFunctions/arm_cfft_f32.c ****     // col 4
 352:../Dave/Generated/CMSIS_DSP/TransformFunctions/arm_cfft_f32.c ****     t4[0] = p1sp3_0 - p2[1] + p4[1];
 353:../Dave/Generated/CMSIS_DSP/TransformFunctions/arm_cfft_f32.c ****     t4[1] = p1sp3_1 + p2[0] - p4[0];
 354:../Dave/Generated/CMSIS_DSP/TransformFunctions/arm_cfft_f32.c ****     // col 1
 355:../Dave/Generated/CMSIS_DSP/TransformFunctions/arm_cfft_f32.c ****     *p1++ = p1ap3_0 + p2[0] + p4[0];
 392              	 .loc 1 355 0
 393 004c 75EEA34A 	 fadds s9,s11,s7
 346:../Dave/Generated/CMSIS_DSP/TransformFunctions/arm_cfft_f32.c ****     t2[1] = p1sp3_1 - p2[0] + p4[0];
 394              	 .loc 1 346 0
 395 0050 2A46     	 mov r2,r5
 396              	 .loc 1 355 0
 397 0052 74EE244A 	 fadds s9,s8,s9
 398 0056 3546     	 mov r5,r6
 399              	.LVL46:
 400 0058 14EE90EA 	 fmrs lr,s9
 346:../Dave/Generated/CMSIS_DSP/TransformFunctions/arm_cfft_f32.c ****     t2[1] = p1sp3_1 - p2[0] + p4[0];
 401              	 .loc 1 346 0
 402 005c 91ED015A 	 flds s10,[r1,#4]
 403              	 .loc 1 355 0
 404 0060 45F808EB 	 str lr,[r5],#8
 341:../Dave/Generated/CMSIS_DSP/TransformFunctions/arm_cfft_f32.c ****     p1ap3_1 = p1[1] + p3[1];
 405              	 .loc 1 341 0
 406 0064 76EE666A 	 fsubs s13,s12,s13
 356:../Dave/Generated/CMSIS_DSP/TransformFunctions/arm_cfft_f32.c ****     *p1++ = p1ap3_1 + p2[1] + p4[1];
 407              	 .loc 1 356 0
 408 0068 D2ED014A 	 flds s9,[r2,#4]
 314:../Dave/Generated/CMSIS_DSP/TransformFunctions/arm_cfft_f32.c ****     float32_t t2[4], t3[4], t4[4], twR, twI;
 409              	 .loc 1 314 0
 410 006c 0091     	 str r1,[sp]
 411              	.LVL47:
 342:../Dave/Generated/CMSIS_DSP/TransformFunctions/arm_cfft_f32.c ****     p1sp3_1 = p1[1] - p3[1];
 412              	 .loc 1 342 0
 413 006e 37EE276A 	 fadds s12,s14,s15
 346:../Dave/Generated/CMSIS_DSP/TransformFunctions/arm_cfft_f32.c ****     t2[1] = p1sp3_1 - p2[0] + p4[0];
 414              	 .loc 1 346 0
 415 0072 0F46     	 mov r7,r1
 416              	 .loc 1 356 0
 417 0074 97ED012A 	 flds s4,[r7,#4]
 355:../Dave/Generated/CMSIS_DSP/TransformFunctions/arm_cfft_f32.c ****     *p1++ = p1ap3_1 + p2[1] + p4[1];
 418              	 .loc 1 355 0
 419 0078 0395     	 str r5,[sp,#12]
 343:../Dave/Generated/CMSIS_DSP/TransformFunctions/arm_cfft_f32.c **** 
 420              	 .loc 1 343 0
 421 007a 77EE677A 	 fsubs s15,s14,s15
 346:../Dave/Generated/CMSIS_DSP/TransformFunctions/arm_cfft_f32.c ****     t2[1] = p1sp3_1 - p2[0] + p4[0];
 422              	 .loc 1 346 0
 423 007e 32EEA63A 	 fadds s6,s5,s13
 424              	 .loc 1 356 0
 425 0082 36EE247A 	 fadds s14,s12,s9
 349:../Dave/Generated/CMSIS_DSP/TransformFunctions/arm_cfft_f32.c ****     t3[1] = p1ap3_1 - p2[1] - p4[1];
 426              	 .loc 1 349 0
 427 0086 75EEE35A 	 fsubs s11,s11,s7
 347:../Dave/Generated/CMSIS_DSP/TransformFunctions/arm_cfft_f32.c ****     // col 3
 428              	 .loc 1 347 0
 429 008a 77EEE34A 	 fsubs s9,s15,s7
 350:../Dave/Generated/CMSIS_DSP/TransformFunctions/arm_cfft_f32.c ****     // col 4
 430              	 .loc 1 350 0
 431 008e 36EE626A 	 fsubs s12,s12,s5
 353:../Dave/Generated/CMSIS_DSP/TransformFunctions/arm_cfft_f32.c ****     // col 1
 432              	 .loc 1 353 0
 433 0092 77EEA37A 	 fadds s15,s15,s7
 352:../Dave/Generated/CMSIS_DSP/TransformFunctions/arm_cfft_f32.c ****     t4[1] = p1sp3_1 + p2[0] - p4[0];
 434              	 .loc 1 352 0
 435 0096 76EEE26A 	 fsubs s13,s13,s5
 346:../Dave/Generated/CMSIS_DSP/TransformFunctions/arm_cfft_f32.c ****     t2[1] = p1sp3_1 - p2[0] + p4[0];
 436              	 .loc 1 346 0
 437 009a 73EE453A 	 fsubs s7,s6,s10
 438              	 .loc 1 356 0
 439 009e 37EE027A 	 fadds s14,s14,s4
 440 00a2 1146     	 mov r1,r2
 441              	.LVL48:
 442 00a4 86ED017A 	 fsts s14,[r6,#4]
 331:../Dave/Generated/CMSIS_DSP/TransformFunctions/arm_cfft_f32.c **** 
 443              	 .loc 1 331 0
 444 00a8 6208     	 lsrs r2,r4,#1
 445              	.LVL49:
 350:../Dave/Generated/CMSIS_DSP/TransformFunctions/arm_cfft_f32.c ****     // col 4
 446              	 .loc 1 350 0
 447 00aa 36EE456A 	 fsubs s12,s12,s10
 357:../Dave/Generated/CMSIS_DSP/TransformFunctions/arm_cfft_f32.c **** 
 358:../Dave/Generated/CMSIS_DSP/TransformFunctions/arm_cfft_f32.c ****     // Twiddle factors are ones
 359:../Dave/Generated/CMSIS_DSP/TransformFunctions/arm_cfft_f32.c ****     *p2++ = t2[0];
 360:../Dave/Generated/CMSIS_DSP/TransformFunctions/arm_cfft_f32.c ****     *p2++ = t2[1];
 361:../Dave/Generated/CMSIS_DSP/TransformFunctions/arm_cfft_f32.c ****     *p3++ = t3[0];
 362:../Dave/Generated/CMSIS_DSP/TransformFunctions/arm_cfft_f32.c ****     *p3++ = t3[1];
 363:../Dave/Generated/CMSIS_DSP/TransformFunctions/arm_cfft_f32.c ****     *p4++ = t4[0];
 364:../Dave/Generated/CMSIS_DSP/TransformFunctions/arm_cfft_f32.c ****     *p4++ = t4[1];
 365:../Dave/Generated/CMSIS_DSP/TransformFunctions/arm_cfft_f32.c **** 
 366:../Dave/Generated/CMSIS_DSP/TransformFunctions/arm_cfft_f32.c ****     tw2 += twMod2;
 448              	 .loc 1 366 0
 449 00ae 019C     	 ldr r4,[sp,#4]
 450              	.LVL50:
 331:../Dave/Generated/CMSIS_DSP/TransformFunctions/arm_cfft_f32.c **** 
 451              	 .loc 1 331 0
 452 00b0 0A92     	 str r2,[sp,#40]
 352:../Dave/Generated/CMSIS_DSP/TransformFunctions/arm_cfft_f32.c ****     t4[1] = p1sp3_1 + p2[0] - p4[0];
 453              	 .loc 1 352 0
 454 00b2 75EE266A 	 fadds s13,s10,s13
 359:../Dave/Generated/CMSIS_DSP/TransformFunctions/arm_cfft_f32.c ****     *p2++ = t2[1];
 455              	 .loc 1 359 0
 456 00b6 8846     	 mov r8,r1
 363:../Dave/Generated/CMSIS_DSP/TransformFunctions/arm_cfft_f32.c ****     *p4++ = t4[1];
 457              	 .loc 1 363 0
 458 00b8 BC46     	 mov ip,r7
 347:../Dave/Generated/CMSIS_DSP/TransformFunctions/arm_cfft_f32.c ****     // col 3
 459              	 .loc 1 347 0
 460 00ba 34EE845A 	 fadds s10,s9,s8
 356:../Dave/Generated/CMSIS_DSP/TransformFunctions/arm_cfft_f32.c **** 
 461              	 .loc 1 356 0
 462 00be 3546     	 mov r5,r6
 326:../Dave/Generated/CMSIS_DSP/TransformFunctions/arm_cfft_f32.c ****     pEnd4 = pEnd3 + L;
 463              	 .loc 1 326 0
 464 00c0 3E1F     	 subs r6,r7,#4
 465              	.LVL51:
 359:../Dave/Generated/CMSIS_DSP/TransformFunctions/arm_cfft_f32.c ****     *p2++ = t2[1];
 466              	 .loc 1 359 0
 467 00c2 13EE907A 	 fmrs r7,s7
 468              	.LVL52:
 469 00c6 8E46     	 mov lr,r1
 349:../Dave/Generated/CMSIS_DSP/TransformFunctions/arm_cfft_f32.c ****     t3[1] = p1ap3_1 - p2[1] - p4[1];
 470              	 .loc 1 349 0
 471 00c8 75EEC45A 	 fsubs s11,s11,s8
 359:../Dave/Generated/CMSIS_DSP/TransformFunctions/arm_cfft_f32.c ****     *p2++ = t2[1];
 472              	 .loc 1 359 0
 473 00cc 48F8087B 	 str r7,[r8],#8
 360:../Dave/Generated/CMSIS_DSP/TransformFunctions/arm_cfft_f32.c ****     *p3++ = t3[0];
 474              	 .loc 1 360 0
 475 00d0 8EED015A 	 fsts s10,[lr,#4]
 324:../Dave/Generated/CMSIS_DSP/TransformFunctions/arm_cfft_f32.c ****     pEnd2 = p3 - 1;
 476              	 .loc 1 324 0
 477 00d4 AEF10407 	 sub r7,lr,#4
 478              	.LVL53:
 479              	 .loc 1 366 0
 480 00d8 04F1080E 	 add lr,r4,#8
 361:../Dave/Generated/CMSIS_DSP/TransformFunctions/arm_cfft_f32.c ****     *p3++ = t3[1];
 481              	 .loc 1 361 0
 482 00dc 0146     	 mov r1,r0
 483              	.LVL54:
 484              	 .loc 1 366 0
 485 00de CDF810E0 	 str lr,[sp,#16]
 361:../Dave/Generated/CMSIS_DSP/TransformFunctions/arm_cfft_f32.c ****     *p3++ = t3[1];
 486              	 .loc 1 361 0
 487 00e2 15EE90EA 	 fmrs lr,s11
 488 00e6 41F808EB 	 str lr,[r1],#8
 489 00ea 0691     	 str r1,[sp,#24]
 490              	.LVL55:
 367:../Dave/Generated/CMSIS_DSP/TransformFunctions/arm_cfft_f32.c ****     tw3 += twMod3;
 491              	 .loc 1 367 0
 492 00ec 0199     	 ldr r1,[sp,#4]
 493              	.LVL56:
 362:../Dave/Generated/CMSIS_DSP/TransformFunctions/arm_cfft_f32.c ****     *p4++ = t4[0];
 494              	 .loc 1 362 0
 495 00ee 80ED016A 	 fsts s12,[r0,#4]
 496              	.LVL57:
 497              	 .loc 1 367 0
 498 00f2 01F1100E 	 add lr,r1,#16
 499 00f6 CDF808E0 	 str lr,[sp,#8]
 368:../Dave/Generated/CMSIS_DSP/TransformFunctions/arm_cfft_f32.c ****     tw4 += twMod4;
 500              	 .loc 1 368 0
 501 00fa 01F1180E 	 add lr,r1,#24
 502 00fe CDF814E0 	 str lr,[sp,#20]
 353:../Dave/Generated/CMSIS_DSP/TransformFunctions/arm_cfft_f32.c ****     // col 1
 503              	 .loc 1 353 0
 504 0102 77EEC47A 	 fsubs s15,s15,s8
 369:../Dave/Generated/CMSIS_DSP/TransformFunctions/arm_cfft_f32.c **** 
 370:../Dave/Generated/CMSIS_DSP/TransformFunctions/arm_cfft_f32.c ****     for (l = (L - 2) >> 1; l > 0; l-- )
 505              	 .loc 1 370 0
 506 0106 023A     	 subs r2,r2,#2
 507              	.LVL58:
 363:../Dave/Generated/CMSIS_DSP/TransformFunctions/arm_cfft_f32.c ****     *p4++ = t4[1];
 508              	 .loc 1 363 0
 509 0108 16EE90EA 	 fmrs lr,s13
 364:../Dave/Generated/CMSIS_DSP/TransformFunctions/arm_cfft_f32.c **** 
 510              	 .loc 1 364 0
 511 010c 009C     	 ldr r4,[sp]
 512              	.LVL59:
 363:../Dave/Generated/CMSIS_DSP/TransformFunctions/arm_cfft_f32.c ****     *p4++ = t4[1];
 513              	 .loc 1 363 0
 514 010e 4CF808EB 	 str lr,[ip],#8
 515              	.LVL60:
 516              	 .loc 1 370 0
 517 0112 5208     	 lsrs r2,r2,#1
 518              	.LVL61:
 364:../Dave/Generated/CMSIS_DSP/TransformFunctions/arm_cfft_f32.c **** 
 519              	 .loc 1 364 0
 520 0114 C4ED017A 	 fsts s15,[r4,#4]
 521              	 .loc 1 370 0
 522 0118 0792     	 str r2,[sp,#28]
 523 011a 00F01B81 	 beq .L9
 524 011e 0446     	 mov r4,r0
 525              	.LVL62:
 526 0120 083B     	 subs r3,r3,#8
 527              	.LVL63:
 528 0122 DDF808A0 	 ldr r10,[sp,#8]
 529 0126 CDF834C0 	 str ip,[sp,#52]
 530 012a 9346     	 mov fp,r2
 531 012c 01F12009 	 add r9,r1,#32
 532 0130 A0F10C02 	 sub r2,r0,#12
 533              	.LVL64:
 534 0134 01F1300E 	 add lr,r1,#48
 535 0138 3344     	 add r3,r3,r6
 536              	.LVL65:
 537 013a 1035     	 adds r5,r5,#16
 538              	.LVL66:
 539 013c 1034     	 adds r4,r4,#16
 540 013e 6046     	 mov r0,ip
 541              	.LVL67:
 542 0140 4146     	 mov r1,r8
 543              	.LVL68:
 544              	.L10:
 371:../Dave/Generated/CMSIS_DSP/TransformFunctions/arm_cfft_f32.c ****     {
 372:../Dave/Generated/CMSIS_DSP/TransformFunctions/arm_cfft_f32.c ****         // TOP
 373:../Dave/Generated/CMSIS_DSP/TransformFunctions/arm_cfft_f32.c ****         p1ap3_0 = p1[0] + p3[0];
 545              	 .loc 1 373 0 discriminator 3
 546 0142 14ED027A 	 flds s14,[r4,#-8]
 547 0146 55ED023A 	 flds s7,[r5,#-8]
 374:../Dave/Generated/CMSIS_DSP/TransformFunctions/arm_cfft_f32.c ****         p1sp3_0 = p1[0] - p3[0];
 375:../Dave/Generated/CMSIS_DSP/TransformFunctions/arm_cfft_f32.c ****         p1ap3_1 = p1[1] + p3[1];
 376:../Dave/Generated/CMSIS_DSP/TransformFunctions/arm_cfft_f32.c ****         p1sp3_1 = p1[1] - p3[1];
 377:../Dave/Generated/CMSIS_DSP/TransformFunctions/arm_cfft_f32.c ****         // col 2
 378:../Dave/Generated/CMSIS_DSP/TransformFunctions/arm_cfft_f32.c ****         t2[0] = p1sp3_0 + p2[1] - p4[1];
 379:../Dave/Generated/CMSIS_DSP/TransformFunctions/arm_cfft_f32.c ****         t2[1] = p1sp3_1 - p2[0] + p4[0];
 548              	 .loc 1 379 0 discriminator 3
 549 014a D1ED005A 	 flds s11,[r1]
 550 014e 90ED006A 	 flds s12,[r0]
 375:../Dave/Generated/CMSIS_DSP/TransformFunctions/arm_cfft_f32.c ****         p1sp3_1 = p1[1] - p3[1];
 551              	 .loc 1 375 0 discriminator 3
 552 0152 54ED016A 	 flds s13,[r4,#-4]
 553 0156 15ED015A 	 flds s10,[r5,#-4]
 378:../Dave/Generated/CMSIS_DSP/TransformFunctions/arm_cfft_f32.c ****         t2[1] = p1sp3_1 - p2[0] + p4[0];
 554              	 .loc 1 378 0 discriminator 3
 555 015a D0ED014A 	 flds s9,[r0,#4]
 556 015e 91ED014A 	 flds s8,[r1,#4]
 373:../Dave/Generated/CMSIS_DSP/TransformFunctions/arm_cfft_f32.c ****         p1sp3_0 = p1[0] - p3[0];
 557              	 .loc 1 373 0 discriminator 3
 558 0162 33EE870A 	 fadds s0,s7,s14
 559              	.LVL69:
 375:../Dave/Generated/CMSIS_DSP/TransformFunctions/arm_cfft_f32.c ****         p1sp3_1 = p1[1] - p3[1];
 560              	 .loc 1 375 0 discriminator 3
 561 0166 35EE268A 	 fadds s16,s10,s13
 380:../Dave/Generated/CMSIS_DSP/TransformFunctions/arm_cfft_f32.c ****         // col 3
 381:../Dave/Generated/CMSIS_DSP/TransformFunctions/arm_cfft_f32.c ****         t3[0] = p1ap3_0 - p2[0] - p4[0];
 382:../Dave/Generated/CMSIS_DSP/TransformFunctions/arm_cfft_f32.c ****         t3[1] = p1ap3_1 - p2[1] - p4[1];
 383:../Dave/Generated/CMSIS_DSP/TransformFunctions/arm_cfft_f32.c ****         // col 4
 384:../Dave/Generated/CMSIS_DSP/TransformFunctions/arm_cfft_f32.c ****         t4[0] = p1sp3_0 - p2[1] + p4[1];
 385:../Dave/Generated/CMSIS_DSP/TransformFunctions/arm_cfft_f32.c ****         t4[1] = p1sp3_1 + p2[0] - p4[0];
 386:../Dave/Generated/CMSIS_DSP/TransformFunctions/arm_cfft_f32.c ****         // col 1 - top
 387:../Dave/Generated/CMSIS_DSP/TransformFunctions/arm_cfft_f32.c ****         *p1++ = p1ap3_0 + p2[0] + p4[0];
 562              	 .loc 1 387 0 discriminator 3
 563 016a 70EE257A 	 fadds s15,s0,s11
 374:../Dave/Generated/CMSIS_DSP/TransformFunctions/arm_cfft_f32.c ****         p1ap3_1 = p1[1] + p3[1];
 564              	 .loc 1 374 0 discriminator 3
 565 016e 73EEC73A 	 fsubs s7,s7,s14
 566              	.LVL70:
 567              	 .loc 1 387 0 discriminator 3
 568 0172 76EE277A 	 fadds s15,s12,s15
 376:../Dave/Generated/CMSIS_DSP/TransformFunctions/arm_cfft_f32.c ****         // col 2
 569              	 .loc 1 376 0 discriminator 3
 570 0176 35EE665A 	 fsubs s10,s10,s13
 571              	.LVL71:
 572              	 .loc 1 387 0 discriminator 3
 573 017a 45ED027A 	 fsts s15,[r5,#-8]
 388:../Dave/Generated/CMSIS_DSP/TransformFunctions/arm_cfft_f32.c ****         *p1++ = p1ap3_1 + p2[1] + p4[1];
 574              	 .loc 1 388 0 discriminator 3
 575 017e D1ED017A 	 flds s15,[r1,#4]
 576 0182 90ED017A 	 flds s14,[r0,#4]
 577 0186 78EE277A 	 fadds s15,s16,s15
 379:../Dave/Generated/CMSIS_DSP/TransformFunctions/arm_cfft_f32.c ****         // col 3
 578              	 .loc 1 379 0 discriminator 3
 579 018a 35EE65AA 	 fsubs s20,s10,s11
 580              	 .loc 1 388 0 discriminator 3
 581 018e 77EE877A 	 fadds s15,s15,s14
 379:../Dave/Generated/CMSIS_DSP/TransformFunctions/arm_cfft_f32.c ****         // col 3
 582              	 .loc 1 379 0 discriminator 3
 583 0192 3AEE06AA 	 fadds s20,s20,s12
 584              	 .loc 1 388 0 discriminator 3
 585 0196 45ED017A 	 fsts s15,[r5,#-4]
 389:../Dave/Generated/CMSIS_DSP/TransformFunctions/arm_cfft_f32.c **** 
 390:../Dave/Generated/CMSIS_DSP/TransformFunctions/arm_cfft_f32.c ****         // BOTTOM
 391:../Dave/Generated/CMSIS_DSP/TransformFunctions/arm_cfft_f32.c ****         p1ap3_1 = pEnd1[-1] + pEnd3[-1];
 392:../Dave/Generated/CMSIS_DSP/TransformFunctions/arm_cfft_f32.c ****         p1sp3_1 = pEnd1[-1] - pEnd3[-1];
 393:../Dave/Generated/CMSIS_DSP/TransformFunctions/arm_cfft_f32.c ****         p1ap3_0 = pEnd1[0] + pEnd3[0];
 586              	 .loc 1 393 0 discriminator 3
 587 019a 96ED002A 	 flds s4,[r6]
 588 019e 97ED001A 	 flds s2,[r7]
 394:../Dave/Generated/CMSIS_DSP/TransformFunctions/arm_cfft_f32.c ****         p1sp3_0 = pEnd1[0] - pEnd3[0];
 395:../Dave/Generated/CMSIS_DSP/TransformFunctions/arm_cfft_f32.c ****         // col 2
 396:../Dave/Generated/CMSIS_DSP/TransformFunctions/arm_cfft_f32.c ****         t2[2] = pEnd2[0]  - pEnd4[0] + p1sp3_1;
 589              	 .loc 1 396 0 discriminator 3
 590 01a2 D2ED027A 	 flds s15,[r2,#8]
 591 01a6 93ED027A 	 flds s14,[r3,#8]
 397:../Dave/Generated/CMSIS_DSP/TransformFunctions/arm_cfft_f32.c ****         t2[3] = pEnd1[0] - pEnd3[0] - pEnd2[-1] + pEnd4[-1];
 592              	 .loc 1 397 0 discriminator 3
 593 01aa D3ED012A 	 flds s5,[r3,#4]
 391:../Dave/Generated/CMSIS_DSP/TransformFunctions/arm_cfft_f32.c ****         p1sp3_1 = pEnd1[-1] - pEnd3[-1];
 594              	 .loc 1 391 0 discriminator 3
 595 01ae 56ED011A 	 flds s3,[r6,#-4]
 596              	 .loc 1 397 0 discriminator 3
 597 01b2 92ED013A 	 flds s6,[r2,#4]
 391:../Dave/Generated/CMSIS_DSP/TransformFunctions/arm_cfft_f32.c ****         p1sp3_1 = pEnd1[-1] - pEnd3[-1];
 598              	 .loc 1 391 0 discriminator 3
 599 01b6 57ED019A 	 flds s19,[r7,#-4]
 393:../Dave/Generated/CMSIS_DSP/TransformFunctions/arm_cfft_f32.c ****         p1sp3_0 = pEnd1[0] - pEnd3[0];
 600              	 .loc 1 393 0 discriminator 3
 601 01ba 71EE026A 	 fadds s13,s2,s4
 391:../Dave/Generated/CMSIS_DSP/TransformFunctions/arm_cfft_f32.c ****         p1sp3_1 = pEnd1[-1] - pEnd3[-1];
 602              	 .loc 1 391 0 discriminator 3
 603 01be 79EEA10A 	 fadds s1,s19,s3
 398:../Dave/Generated/CMSIS_DSP/TransformFunctions/arm_cfft_f32.c ****         // col 3
 399:../Dave/Generated/CMSIS_DSP/TransformFunctions/arm_cfft_f32.c ****         t3[2] = p1ap3_1 - pEnd2[-1] - pEnd4[-1];
 400:../Dave/Generated/CMSIS_DSP/TransformFunctions/arm_cfft_f32.c ****         t3[3] = p1ap3_0 - pEnd2[0]  - pEnd4[0];
 401:../Dave/Generated/CMSIS_DSP/TransformFunctions/arm_cfft_f32.c ****         // col 4
 402:../Dave/Generated/CMSIS_DSP/TransformFunctions/arm_cfft_f32.c ****         t4[2] = pEnd2[0]  - pEnd4[0]  - p1sp3_1;
 403:../Dave/Generated/CMSIS_DSP/TransformFunctions/arm_cfft_f32.c ****         t4[3] = pEnd4[-1] - pEnd2[-1] - p1sp3_0;
 404:../Dave/Generated/CMSIS_DSP/TransformFunctions/arm_cfft_f32.c ****         // col 1 - Bottom
 405:../Dave/Generated/CMSIS_DSP/TransformFunctions/arm_cfft_f32.c ****         *pEnd1-- = p1ap3_0 + pEnd2[0] + pEnd4[0];
 604              	 .loc 1 405 0 discriminator 3
 605 01c2 76EEA78A 	 fadds s17,s13,s15
 394:../Dave/Generated/CMSIS_DSP/TransformFunctions/arm_cfft_f32.c ****         // col 2
 606              	 .loc 1 394 0 discriminator 3
 607 01c6 31EE422A 	 fsubs s4,s2,s4
 608              	 .loc 1 405 0 discriminator 3
 609 01ca 77EE288A 	 fadds s17,s14,s17
 378:../Dave/Generated/CMSIS_DSP/TransformFunctions/arm_cfft_f32.c ****         t2[1] = p1sp3_1 - p2[0] + p4[0];
 610              	 .loc 1 378 0 discriminator 3
 611 01ce 74EE23AA 	 fadds s21,s8,s7
 612              	 .loc 1 405 0 discriminator 3
 613 01d2 18EE90CA 	 fmrs ip,s17
 614 01d6 47F808C9 	 str ip,[r7],#-8
 615              	.LVL72:
 406:../Dave/Generated/CMSIS_DSP/TransformFunctions/arm_cfft_f32.c ****         *pEnd1-- = p1ap3_1 + pEnd2[-1] + pEnd4[-1];
 616              	 .loc 1 406 0 discriminator 3
 617 01da D2ED018A 	 flds s17,[r2,#4]
 618 01de 93ED019A 	 flds s18,[r3,#4]
 619 01e2 70EEA88A 	 fadds s17,s1,s17
 396:../Dave/Generated/CMSIS_DSP/TransformFunctions/arm_cfft_f32.c ****         t2[3] = pEnd1[0] - pEnd3[0] - pEnd2[-1] + pEnd4[-1];
 620              	 .loc 1 396 0 discriminator 3
 621 01e6 37EEC71A 	 fsubs s2,s15,s14
 622              	 .loc 1 406 0 discriminator 3
 623 01ea 78EE898A 	 fadds s17,s17,s18
 378:../Dave/Generated/CMSIS_DSP/TransformFunctions/arm_cfft_f32.c ****         t2[1] = p1sp3_1 - p2[0] + p4[0];
 624              	 .loc 1 378 0 discriminator 3
 625 01ee 7AEEE4AA 	 fsubs s21,s21,s9
 626              	.LVL73:
 627              	 .loc 1 406 0 discriminator 3
 628 01f2 C7ED018A 	 fsts s17,[r7,#4]
 407:../Dave/Generated/CMSIS_DSP/TransformFunctions/arm_cfft_f32.c **** 
 408:../Dave/Generated/CMSIS_DSP/TransformFunctions/arm_cfft_f32.c ****         // COL 2
 409:../Dave/Generated/CMSIS_DSP/TransformFunctions/arm_cfft_f32.c ****         // read twiddle factors
 410:../Dave/Generated/CMSIS_DSP/TransformFunctions/arm_cfft_f32.c ****         twR = *tw2++;
 411:../Dave/Generated/CMSIS_DSP/TransformFunctions/arm_cfft_f32.c ****         twI = *tw2++;
 629              	 .loc 1 411 0 discriminator 3
 630 01f6 5AED018A 	 flds s17,[r10,#-4]
 392:../Dave/Generated/CMSIS_DSP/TransformFunctions/arm_cfft_f32.c ****         p1ap3_0 = pEnd1[0] + pEnd3[0];
 631              	 .loc 1 392 0 discriminator 3
 632 01fa 79EEE11A 	 fsubs s3,s19,s3
 412:../Dave/Generated/CMSIS_DSP/TransformFunctions/arm_cfft_f32.c ****         // multiply by twiddle factors
 413:../Dave/Generated/CMSIS_DSP/TransformFunctions/arm_cfft_f32.c ****         //  let    Z1 = a + i(b),   Z2 = c + i(d)
 414:../Dave/Generated/CMSIS_DSP/TransformFunctions/arm_cfft_f32.c ****         //   =>  Z1 * Z2  =  (a*c - b*d) + i(b*c + a*d)
 415:../Dave/Generated/CMSIS_DSP/TransformFunctions/arm_cfft_f32.c **** 
 416:../Dave/Generated/CMSIS_DSP/TransformFunctions/arm_cfft_f32.c ****         // Top
 417:../Dave/Generated/CMSIS_DSP/TransformFunctions/arm_cfft_f32.c ****         m0 = t2[0] * twR;
 418:../Dave/Generated/CMSIS_DSP/TransformFunctions/arm_cfft_f32.c ****         m1 = t2[1] * twI;
 633              	 .loc 1 418 0 discriminator 3
 634 01fe 2AEE28CA 	 fmuls s24,s20,s17
 410:../Dave/Generated/CMSIS_DSP/TransformFunctions/arm_cfft_f32.c ****         twI = *tw2++;
 635              	 .loc 1 410 0 discriminator 3
 636 0202 5AED029A 	 flds s19,[r10,#-8]
 397:../Dave/Generated/CMSIS_DSP/TransformFunctions/arm_cfft_f32.c ****         // col 3
 637              	 .loc 1 397 0 discriminator 3
 638 0206 32EE439A 	 fsubs s18,s4,s6
 419:../Dave/Generated/CMSIS_DSP/TransformFunctions/arm_cfft_f32.c ****         m2 = t2[1] * twR;
 420:../Dave/Generated/CMSIS_DSP/TransformFunctions/arm_cfft_f32.c ****         m3 = t2[0] * twI;
 421:../Dave/Generated/CMSIS_DSP/TransformFunctions/arm_cfft_f32.c **** 
 422:../Dave/Generated/CMSIS_DSP/TransformFunctions/arm_cfft_f32.c ****         *p2++ = m0 + m1;
 639              	 .loc 1 422 0 discriminator 3
 640 020a AAEEA9CA 	 vfma.f32 s24,s21,s19
 370:../Dave/Generated/CMSIS_DSP/TransformFunctions/arm_cfft_f32.c ****     {
 641              	 .loc 1 370 0 discriminator 3
 642 020e BBF1010B 	 subs fp,fp,#1
 643              	.LVL74:
 644 0212 05F10805 	 add r5,r5,#8
 645              	.LVL75:
 397:../Dave/Generated/CMSIS_DSP/TransformFunctions/arm_cfft_f32.c ****         // col 3
 646              	 .loc 1 397 0 discriminator 3
 647 0216 39EE229A 	 fadds s18,s18,s5
 396:../Dave/Generated/CMSIS_DSP/TransformFunctions/arm_cfft_f32.c ****         t2[3] = pEnd1[0] - pEnd3[0] - pEnd2[-1] + pEnd4[-1];
 648              	 .loc 1 396 0 discriminator 3
 649 021a 71EE21CA 	 fadds s25,s2,s3
 650 021e 68EEEABA 	 fnmuls s23,s17,s21
 651 0222 29EEECBA 	 fnmuls s22,s19,s25
 423:../Dave/Generated/CMSIS_DSP/TransformFunctions/arm_cfft_f32.c ****         *p2++ = m2 - m3;
 424:../Dave/Generated/CMSIS_DSP/TransformFunctions/arm_cfft_f32.c ****         // use vertical symmetry col 2
 425:../Dave/Generated/CMSIS_DSP/TransformFunctions/arm_cfft_f32.c ****         // 0.9997 - 0.0245i  <==>  0.0245 - 0.9997i
 426:../Dave/Generated/CMSIS_DSP/TransformFunctions/arm_cfft_f32.c ****         // Bottom
 427:../Dave/Generated/CMSIS_DSP/TransformFunctions/arm_cfft_f32.c ****         m0 = t2[3] * twI;
 428:../Dave/Generated/CMSIS_DSP/TransformFunctions/arm_cfft_f32.c ****         m1 = t2[2] * twR;
 429:../Dave/Generated/CMSIS_DSP/TransformFunctions/arm_cfft_f32.c ****         m2 = t2[2] * twI;
 430:../Dave/Generated/CMSIS_DSP/TransformFunctions/arm_cfft_f32.c ****         m3 = t2[3] * twR;
 652              	 .loc 1 430 0 discriminator 3
 653 0226 69EE29AA 	 fmuls s21,s18,s19
 654              	.LVL76:
 431:../Dave/Generated/CMSIS_DSP/TransformFunctions/arm_cfft_f32.c **** 
 432:../Dave/Generated/CMSIS_DSP/TransformFunctions/arm_cfft_f32.c ****         *pEnd2-- = m0 - m1;
 655              	 .loc 1 432 0 discriminator 3
 656 022a A9EE28BA 	 vfma.f32 s22,s18,s17
 657 022e 0AF1080A 	 add r10,r10,#8
 658 0232 A2F10802 	 sub r2,r2,#8
 423:../Dave/Generated/CMSIS_DSP/TransformFunctions/arm_cfft_f32.c ****         *p2++ = m2 - m3;
 659              	 .loc 1 423 0 discriminator 3
 660 0236 EAEE29BA 	 vfma.f32 s23,s20,s19
 661 023a 09F11009 	 add r9,r9,#16
 662              	.LVL77:
 663 023e 04F10804 	 add r4,r4,#8
 422:../Dave/Generated/CMSIS_DSP/TransformFunctions/arm_cfft_f32.c ****         *p2++ = m2 - m3;
 664              	 .loc 1 422 0 discriminator 3
 665 0242 1CEE10CA 	 fmrs ip,s24
 433:../Dave/Generated/CMSIS_DSP/TransformFunctions/arm_cfft_f32.c ****         *pEnd2-- = m2 + m3;
 666              	 .loc 1 433 0 discriminator 3
 667 0246 ECEEA8AA 	 vfma.f32 s21,s25,s17
 422:../Dave/Generated/CMSIS_DSP/TransformFunctions/arm_cfft_f32.c ****         *p2++ = m2 - m3;
 668              	 .loc 1 422 0 discriminator 3
 669 024a 41F808CB 	 str ip,[r1],#8
 670              	.LVL78:
 399:../Dave/Generated/CMSIS_DSP/TransformFunctions/arm_cfft_f32.c ****         t3[3] = p1ap3_0 - pEnd2[0]  - pEnd4[0];
 671              	 .loc 1 399 0 discriminator 3
 672 024e 70EEC30A 	 fsubs s1,s1,s6
 423:../Dave/Generated/CMSIS_DSP/TransformFunctions/arm_cfft_f32.c ****         // use vertical symmetry col 2
 673              	 .loc 1 423 0 discriminator 3
 674 0252 41ED01BA 	 fsts s23,[r1,#-4]
 432:../Dave/Generated/CMSIS_DSP/TransformFunctions/arm_cfft_f32.c ****         *pEnd2-- = m2 + m3;
 675              	 .loc 1 432 0 discriminator 3
 676 0256 82ED04BA 	 fsts s22,[r2,#16]
 677              	 .loc 1 433 0 discriminator 3
 678 025a C2ED03AA 	 fsts s21,[r2,#12]
 400:../Dave/Generated/CMSIS_DSP/TransformFunctions/arm_cfft_f32.c ****         // col 4
 679              	 .loc 1 400 0 discriminator 3
 680 025e 76EEE76A 	 fsubs s13,s13,s15
 381:../Dave/Generated/CMSIS_DSP/TransformFunctions/arm_cfft_f32.c ****         t3[1] = p1ap3_1 - p2[1] - p4[1];
 681              	 .loc 1 381 0 discriminator 3
 682 0262 30EE650A 	 fsubs s0,s0,s11
 683              	.LVL79:
 434:../Dave/Generated/CMSIS_DSP/TransformFunctions/arm_cfft_f32.c **** 
 435:../Dave/Generated/CMSIS_DSP/TransformFunctions/arm_cfft_f32.c ****         // COL 3
 436:../Dave/Generated/CMSIS_DSP/TransformFunctions/arm_cfft_f32.c ****         twR = tw3[0];
 437:../Dave/Generated/CMSIS_DSP/TransformFunctions/arm_cfft_f32.c ****         twI = tw3[1];
 684              	 .loc 1 437 0 discriminator 3
 685 0266 59ED077A 	 flds s15,[r9,#-28]
 436:../Dave/Generated/CMSIS_DSP/TransformFunctions/arm_cfft_f32.c ****         twI = tw3[1];
 686              	 .loc 1 436 0 discriminator 3
 687 026a 59ED088A 	 flds s17,[r9,#-32]
 382:../Dave/Generated/CMSIS_DSP/TransformFunctions/arm_cfft_f32.c ****         // col 4
 688              	 .loc 1 382 0 discriminator 3
 689 026e 38EE448A 	 fsubs s16,s16,s8
 690              	.LVL80:
 399:../Dave/Generated/CMSIS_DSP/TransformFunctions/arm_cfft_f32.c ****         t3[3] = p1ap3_0 - pEnd2[0]  - pEnd4[0];
 691              	 .loc 1 399 0 discriminator 3
 692 0272 70EEE20A 	 fsubs s1,s1,s5
 400:../Dave/Generated/CMSIS_DSP/TransformFunctions/arm_cfft_f32.c ****         // col 4
 693              	 .loc 1 400 0 discriminator 3
 694 0276 36EEC77A 	 fsubs s14,s13,s14
 381:../Dave/Generated/CMSIS_DSP/TransformFunctions/arm_cfft_f32.c ****         t3[1] = p1ap3_1 - p2[1] - p4[1];
 695              	 .loc 1 381 0 discriminator 3
 696 027a 30EE460A 	 fsubs s0,s0,s12
 697              	.LVL81:
 382:../Dave/Generated/CMSIS_DSP/TransformFunctions/arm_cfft_f32.c ****         // col 4
 698              	 .loc 1 382 0 discriminator 3
 699 027e 38EE648A 	 fsubs s16,s16,s9
 700              	.LVL82:
 701 0282 67EEE06A 	 fnmuls s13,s15,s1
 438:../Dave/Generated/CMSIS_DSP/TransformFunctions/arm_cfft_f32.c ****         tw3 += twMod3;
 439:../Dave/Generated/CMSIS_DSP/TransformFunctions/arm_cfft_f32.c ****         // Top
 440:../Dave/Generated/CMSIS_DSP/TransformFunctions/arm_cfft_f32.c ****         m0 = t3[0] * twR;
 441:../Dave/Generated/CMSIS_DSP/TransformFunctions/arm_cfft_f32.c ****         m1 = t3[1] * twI;
 702              	 .loc 1 441 0 discriminator 3
 703 0286 68EE279A 	 fmuls s19,s16,s15
 442:../Dave/Generated/CMSIS_DSP/TransformFunctions/arm_cfft_f32.c ****         m2 = t3[1] * twR;
 443:../Dave/Generated/CMSIS_DSP/TransformFunctions/arm_cfft_f32.c ****         m3 = t3[0] * twI;
 444:../Dave/Generated/CMSIS_DSP/TransformFunctions/arm_cfft_f32.c **** 
 445:../Dave/Generated/CMSIS_DSP/TransformFunctions/arm_cfft_f32.c ****         *p3++ = m0 + m1;
 446:../Dave/Generated/CMSIS_DSP/TransformFunctions/arm_cfft_f32.c ****         *p3++ = m2 - m3;
 447:../Dave/Generated/CMSIS_DSP/TransformFunctions/arm_cfft_f32.c ****         // use vertical symmetry col 3
 448:../Dave/Generated/CMSIS_DSP/TransformFunctions/arm_cfft_f32.c ****         // 0.9988 - 0.0491i  <==>  -0.9988 - 0.0491i
 449:../Dave/Generated/CMSIS_DSP/TransformFunctions/arm_cfft_f32.c ****         // Bottom
 450:../Dave/Generated/CMSIS_DSP/TransformFunctions/arm_cfft_f32.c ****         m0 = -t3[3] * twR;
 451:../Dave/Generated/CMSIS_DSP/TransformFunctions/arm_cfft_f32.c ****         m1 = t3[2] * twI;
 452:../Dave/Generated/CMSIS_DSP/TransformFunctions/arm_cfft_f32.c ****         m2 = t3[2] * twR;
 453:../Dave/Generated/CMSIS_DSP/TransformFunctions/arm_cfft_f32.c ****         m3 = t3[3] * twI;
 454:../Dave/Generated/CMSIS_DSP/TransformFunctions/arm_cfft_f32.c **** 
 455:../Dave/Generated/CMSIS_DSP/TransformFunctions/arm_cfft_f32.c ****         *pEnd3-- = m0 - m1;
 704              	 .loc 1 455 0 discriminator 3
 705 028a E7EE686A 	 vfms.f32 s13,s14,s17
 706 028e 0EF1180E 	 add lr,lr,#24
 707              	.LVL83:
 708 0292 A3F10803 	 sub r3,r3,#8
 709 0296 27EEC09A 	 fnmuls s18,s15,s0
 445:../Dave/Generated/CMSIS_DSP/TransformFunctions/arm_cfft_f32.c ****         *p3++ = m2 - m3;
 710              	 .loc 1 445 0 discriminator 3
 711 029a E0EE289A 	 vfma.f32 s19,s0,s17
 453:../Dave/Generated/CMSIS_DSP/TransformFunctions/arm_cfft_f32.c **** 
 712              	 .loc 1 453 0 discriminator 3
 713 029e 67EE277A 	 fmuls s15,s14,s15
 446:../Dave/Generated/CMSIS_DSP/TransformFunctions/arm_cfft_f32.c ****         // use vertical symmetry col 3
 714              	 .loc 1 446 0 discriminator 3
 715 02a2 A8EE289A 	 vfma.f32 s18,s16,s17
 716              	 .loc 1 455 0 discriminator 3
 717 02a6 16EE90CA 	 fmrs ip,s13
 456:../Dave/Generated/CMSIS_DSP/TransformFunctions/arm_cfft_f32.c ****         *pEnd3-- = m3 - m2;
 718              	 .loc 1 456 0 discriminator 3
 719 02aa E0EEE87A 	 vfms.f32 s15,s1,s17
 445:../Dave/Generated/CMSIS_DSP/TransformFunctions/arm_cfft_f32.c ****         *p3++ = m2 - m3;
 720              	 .loc 1 445 0 discriminator 3
 721 02ae 44ED049A 	 fsts s19,[r4,#-16]
 446:../Dave/Generated/CMSIS_DSP/TransformFunctions/arm_cfft_f32.c ****         // use vertical symmetry col 3
 722              	 .loc 1 446 0 discriminator 3
 723 02b2 04ED039A 	 fsts s18,[r4,#-12]
 455:../Dave/Generated/CMSIS_DSP/TransformFunctions/arm_cfft_f32.c ****         *pEnd3-- = m3 - m2;
 724              	 .loc 1 455 0 discriminator 3
 725 02b6 46F808C9 	 str ip,[r6],#-8
 726              	.LVL84:
 385:../Dave/Generated/CMSIS_DSP/TransformFunctions/arm_cfft_f32.c ****         // col 1 - top
 727              	 .loc 1 385 0 discriminator 3
 728 02ba 75EE255A 	 fadds s11,s10,s11
 729              	 .loc 1 456 0 discriminator 3
 730 02be C6ED017A 	 fsts s15,[r6,#4]
 457:../Dave/Generated/CMSIS_DSP/TransformFunctions/arm_cfft_f32.c **** 
 458:../Dave/Generated/CMSIS_DSP/TransformFunctions/arm_cfft_f32.c ****         // COL 4
 459:../Dave/Generated/CMSIS_DSP/TransformFunctions/arm_cfft_f32.c ****         twR = tw4[0];
 460:../Dave/Generated/CMSIS_DSP/TransformFunctions/arm_cfft_f32.c ****         twI = tw4[1];
 731              	 .loc 1 460 0 discriminator 3
 732 02c2 5EED0B6A 	 flds s13,[lr,#-44]
 385:../Dave/Generated/CMSIS_DSP/TransformFunctions/arm_cfft_f32.c ****         // col 1 - top
 733              	 .loc 1 385 0 discriminator 3
 734 02c6 35EEC66A 	 fsubs s12,s11,s12
 384:../Dave/Generated/CMSIS_DSP/TransformFunctions/arm_cfft_f32.c ****         t4[1] = p1sp3_1 + p2[0] - p4[0];
 735              	 .loc 1 384 0 discriminator 3
 736 02ca 33EEC44A 	 fsubs s8,s7,s8
 737              	.LVL85:
 403:../Dave/Generated/CMSIS_DSP/TransformFunctions/arm_cfft_f32.c ****         // col 1 - Bottom
 738              	 .loc 1 403 0 discriminator 3
 739 02ce 72EEC37A 	 fsubs s15,s5,s6
 459:../Dave/Generated/CMSIS_DSP/TransformFunctions/arm_cfft_f32.c ****         twI = tw4[1];
 740              	 .loc 1 459 0 discriminator 3
 741 02d2 5EED0C5A 	 flds s11,[lr,#-48]
 384:../Dave/Generated/CMSIS_DSP/TransformFunctions/arm_cfft_f32.c ****         t4[1] = p1sp3_1 + p2[0] - p4[0];
 742              	 .loc 1 384 0 discriminator 3
 743 02d6 74EE844A 	 fadds s9,s9,s8
 744              	.LVL86:
 402:../Dave/Generated/CMSIS_DSP/TransformFunctions/arm_cfft_f32.c ****         t4[3] = pEnd4[-1] - pEnd2[-1] - p1sp3_0;
 745              	 .loc 1 402 0 discriminator 3
 746 02da 31EE617A 	 fsubs s14,s2,s3
 747              	.LVL87:
 461:../Dave/Generated/CMSIS_DSP/TransformFunctions/arm_cfft_f32.c ****         tw4 += twMod4;
 462:../Dave/Generated/CMSIS_DSP/TransformFunctions/arm_cfft_f32.c ****         // Top
 463:../Dave/Generated/CMSIS_DSP/TransformFunctions/arm_cfft_f32.c ****         m0 = t4[0] * twR;
 464:../Dave/Generated/CMSIS_DSP/TransformFunctions/arm_cfft_f32.c ****         m1 = t4[1] * twI;
 748              	 .loc 1 464 0 discriminator 3
 749 02de 66EE263A 	 fmuls s7,s12,s13
 403:../Dave/Generated/CMSIS_DSP/TransformFunctions/arm_cfft_f32.c ****         // col 1 - Bottom
 750              	 .loc 1 403 0 discriminator 3
 751 02e2 77EEC27A 	 fsubs s15,s15,s4
 752              	.LVL88:
 753 02e6 26EEE44A 	 fnmuls s8,s13,s9
 465:../Dave/Generated/CMSIS_DSP/TransformFunctions/arm_cfft_f32.c ****         m2 = t4[1] * twR;
 466:../Dave/Generated/CMSIS_DSP/TransformFunctions/arm_cfft_f32.c ****         m3 = t4[0] * twI;
 467:../Dave/Generated/CMSIS_DSP/TransformFunctions/arm_cfft_f32.c **** 
 468:../Dave/Generated/CMSIS_DSP/TransformFunctions/arm_cfft_f32.c ****         *p4++ = m0 + m1;
 754              	 .loc 1 468 0 discriminator 3
 755 02ea E4EEA53A 	 vfma.f32 s7,s9,s11
 756              	.LVL89:
 757 02ee 65EEC74A 	 fnmuls s9,s11,s14
 758              	.LVL90:
 469:../Dave/Generated/CMSIS_DSP/TransformFunctions/arm_cfft_f32.c ****         *p4++ = m2 - m3;
 470:../Dave/Generated/CMSIS_DSP/TransformFunctions/arm_cfft_f32.c ****         // use vertical symmetry col 4
 471:../Dave/Generated/CMSIS_DSP/TransformFunctions/arm_cfft_f32.c ****         // 0.9973 - 0.0736i  <==>  -0.0736 + 0.9973i
 472:../Dave/Generated/CMSIS_DSP/TransformFunctions/arm_cfft_f32.c ****         // Bottom
 473:../Dave/Generated/CMSIS_DSP/TransformFunctions/arm_cfft_f32.c ****         m0 = t4[3] * twI;
 474:../Dave/Generated/CMSIS_DSP/TransformFunctions/arm_cfft_f32.c ****         m1 = t4[2] * twR;
 475:../Dave/Generated/CMSIS_DSP/TransformFunctions/arm_cfft_f32.c ****         m2 = t4[2] * twI;
 476:../Dave/Generated/CMSIS_DSP/TransformFunctions/arm_cfft_f32.c ****         m3 = t4[3] * twR;
 759              	 .loc 1 476 0 discriminator 3
 760 02f2 27EEA55A 	 fmuls s10,s15,s11
 469:../Dave/Generated/CMSIS_DSP/TransformFunctions/arm_cfft_f32.c ****         *p4++ = m2 - m3;
 761              	 .loc 1 469 0 discriminator 3
 762 02f6 A6EE254A 	 vfma.f32 s8,s12,s11
 477:../Dave/Generated/CMSIS_DSP/TransformFunctions/arm_cfft_f32.c **** 
 478:../Dave/Generated/CMSIS_DSP/TransformFunctions/arm_cfft_f32.c ****         *pEnd4-- = m0 - m1;
 763              	 .loc 1 478 0 discriminator 3
 764 02fa B0EE646A 	 fcpys s12,s9
 765              	.LVL91:
 766 02fe A7EEA66A 	 vfma.f32 s12,s15,s13
 479:../Dave/Generated/CMSIS_DSP/TransformFunctions/arm_cfft_f32.c ****         *pEnd4-- = m2 + m3;
 767              	 .loc 1 479 0 discriminator 3
 768 0302 F0EE457A 	 fcpys s15,s10
 769              	.LVL92:
 468:../Dave/Generated/CMSIS_DSP/TransformFunctions/arm_cfft_f32.c ****         *p4++ = m2 - m3;
 770              	 .loc 1 468 0 discriminator 3
 771 0306 13EE90CA 	 fmrs ip,s7
 772              	 .loc 1 479 0 discriminator 3
 773 030a E7EE267A 	 vfma.f32 s15,s14,s13
 468:../Dave/Generated/CMSIS_DSP/TransformFunctions/arm_cfft_f32.c ****         *p4++ = m2 - m3;
 774              	 .loc 1 468 0 discriminator 3
 775 030e 40F808CB 	 str ip,[r0],#8
 776              	.LVL93:
 469:../Dave/Generated/CMSIS_DSP/TransformFunctions/arm_cfft_f32.c ****         // use vertical symmetry col 4
 777              	 .loc 1 469 0 discriminator 3
 778 0312 00ED014A 	 fsts s8,[r0,#-4]
 779              	.LVL94:
 478:../Dave/Generated/CMSIS_DSP/TransformFunctions/arm_cfft_f32.c ****         *pEnd4-- = m2 + m3;
 780              	 .loc 1 478 0 discriminator 3
 781 0316 83ED046A 	 fsts s12,[r3,#16]
 782              	.LVL95:
 783              	 .loc 1 479 0 discriminator 3
 784 031a C3ED037A 	 fsts s15,[r3,#12]
 370:../Dave/Generated/CMSIS_DSP/TransformFunctions/arm_cfft_f32.c ****     {
 785              	 .loc 1 370 0 discriminator 3
 786 031e 7FF410AF 	 bne .L10
 787 0322 0799     	 ldr r1,[sp,#28]
 788              	.LVL96:
 789 0324 0298     	 ldr r0,[sp,#8]
 790              	.LVL97:
 791 0326 DDF834C0 	 ldr ip,[sp,#52]
 792 032a CB00     	 lsls r3,r1,#3
 793 032c 01EB4102 	 add r2,r1,r1,lsl#1
 794 0330 00EB0111 	 add r1,r0,r1,lsl#4
 795 0334 0291     	 str r1,[sp,#8]
 796 0336 0399     	 ldr r1,[sp,#12]
 797 0338 1944     	 add r1,r1,r3
 798 033a 0391     	 str r1,[sp,#12]
 799 033c 0499     	 ldr r1,[sp,#16]
 800 033e 1944     	 add r1,r1,r3
 801 0340 0491     	 str r1,[sp,#16]
 802 0342 0699     	 ldr r1,[sp,#24]
 803 0344 9844     	 add r8,r8,r3
 804 0346 1944     	 add r1,r1,r3
 805 0348 9C44     	 add ip,ip,r3
 806 034a 059B     	 ldr r3,[sp,#20]
 807 034c 0691     	 str r1,[sp,#24]
 808 034e 03EBC203 	 add r3,r3,r2,lsl#3
 809 0352 0593     	 str r3,[sp,#20]
 810              	.LVL98:
 811              	.L9:
 480:../Dave/Generated/CMSIS_DSP/TransformFunctions/arm_cfft_f32.c ****     }
 481:../Dave/Generated/CMSIS_DSP/TransformFunctions/arm_cfft_f32.c **** 
 482:../Dave/Generated/CMSIS_DSP/TransformFunctions/arm_cfft_f32.c ****     //MIDDLE
 483:../Dave/Generated/CMSIS_DSP/TransformFunctions/arm_cfft_f32.c ****     // Twiddle factors are
 484:../Dave/Generated/CMSIS_DSP/TransformFunctions/arm_cfft_f32.c ****     //  1.0000  0.7071-0.7071i  -1.0000i  -0.7071-0.7071i
 485:../Dave/Generated/CMSIS_DSP/TransformFunctions/arm_cfft_f32.c ****     p1ap3_0 = p1[0] + p3[0];
 812              	 .loc 1 485 0
 813 0354 039A     	 ldr r2,[sp,#12]
 814 0356 069E     	 ldr r6,[sp,#24]
 815              	.LVL99:
 816 0358 92ED003A 	 flds s6,[r2]
 817 035c D6ED006A 	 flds s13,[r6]
 486:../Dave/Generated/CMSIS_DSP/TransformFunctions/arm_cfft_f32.c ****     p1sp3_0 = p1[0] - p3[0];
 487:../Dave/Generated/CMSIS_DSP/TransformFunctions/arm_cfft_f32.c ****     p1ap3_1 = p1[1] + p3[1];
 488:../Dave/Generated/CMSIS_DSP/TransformFunctions/arm_cfft_f32.c ****     p1sp3_1 = p1[1] - p3[1];
 489:../Dave/Generated/CMSIS_DSP/TransformFunctions/arm_cfft_f32.c **** 
 490:../Dave/Generated/CMSIS_DSP/TransformFunctions/arm_cfft_f32.c ****     // col 2
 491:../Dave/Generated/CMSIS_DSP/TransformFunctions/arm_cfft_f32.c ****     t2[0] = p1sp3_0 + p2[1] - p4[1];
 492:../Dave/Generated/CMSIS_DSP/TransformFunctions/arm_cfft_f32.c ****     t2[1] = p1sp3_1 - p2[0] + p4[0];
 818              	 .loc 1 492 0
 819 0360 D8ED007A 	 flds s15,[r8]
 820 0364 9CED004A 	 flds s8,[ip]
 487:../Dave/Generated/CMSIS_DSP/TransformFunctions/arm_cfft_f32.c ****     p1sp3_1 = p1[1] - p3[1];
 821              	 .loc 1 487 0
 822 0368 96ED017A 	 flds s14,[r6,#4]
 823 036c D2ED013A 	 flds s7,[r2,#4]
 491:../Dave/Generated/CMSIS_DSP/TransformFunctions/arm_cfft_f32.c ****     t2[1] = p1sp3_1 - p2[0] + p4[0];
 824              	 .loc 1 491 0
 825 0370 D8ED012A 	 flds s5,[r8,#4]
 826 0374 DCED014A 	 flds s9,[ip,#4]
 493:../Dave/Generated/CMSIS_DSP/TransformFunctions/arm_cfft_f32.c ****     // col 3
 494:../Dave/Generated/CMSIS_DSP/TransformFunctions/arm_cfft_f32.c ****     t3[0] = p1ap3_0 - p2[0] - p4[0];
 495:../Dave/Generated/CMSIS_DSP/TransformFunctions/arm_cfft_f32.c ****     t3[1] = p1ap3_1 - p2[1] - p4[1];
 496:../Dave/Generated/CMSIS_DSP/TransformFunctions/arm_cfft_f32.c ****     // col 4
 497:../Dave/Generated/CMSIS_DSP/TransformFunctions/arm_cfft_f32.c ****     t4[0] = p1sp3_0 - p2[1] + p4[1];
 498:../Dave/Generated/CMSIS_DSP/TransformFunctions/arm_cfft_f32.c ****     t4[1] = p1sp3_1 + p2[0] - p4[0];
 499:../Dave/Generated/CMSIS_DSP/TransformFunctions/arm_cfft_f32.c ****     // col 1 - Top
 500:../Dave/Generated/CMSIS_DSP/TransformFunctions/arm_cfft_f32.c ****     *p1++ = p1ap3_0 + p2[0] + p4[0];
 501:../Dave/Generated/CMSIS_DSP/TransformFunctions/arm_cfft_f32.c ****     *p1++ = p1ap3_1 + p2[1] + p4[1];
 502:../Dave/Generated/CMSIS_DSP/TransformFunctions/arm_cfft_f32.c **** 
 503:../Dave/Generated/CMSIS_DSP/TransformFunctions/arm_cfft_f32.c ****     // COL 2
 504:../Dave/Generated/CMSIS_DSP/TransformFunctions/arm_cfft_f32.c ****     twR = tw2[0];
 505:../Dave/Generated/CMSIS_DSP/TransformFunctions/arm_cfft_f32.c ****     twI = tw2[1];
 506:../Dave/Generated/CMSIS_DSP/TransformFunctions/arm_cfft_f32.c **** 
 507:../Dave/Generated/CMSIS_DSP/TransformFunctions/arm_cfft_f32.c ****     m0 = t2[0] * twR;
 508:../Dave/Generated/CMSIS_DSP/TransformFunctions/arm_cfft_f32.c ****     m1 = t2[1] * twI;
 509:../Dave/Generated/CMSIS_DSP/TransformFunctions/arm_cfft_f32.c ****     m2 = t2[1] * twR;
 510:../Dave/Generated/CMSIS_DSP/TransformFunctions/arm_cfft_f32.c ****     m3 = t2[0] * twI;
 511:../Dave/Generated/CMSIS_DSP/TransformFunctions/arm_cfft_f32.c **** 
 512:../Dave/Generated/CMSIS_DSP/TransformFunctions/arm_cfft_f32.c ****     *p2++ = m0 + m1;
 513:../Dave/Generated/CMSIS_DSP/TransformFunctions/arm_cfft_f32.c ****     *p2++ = m2 - m3;
 514:../Dave/Generated/CMSIS_DSP/TransformFunctions/arm_cfft_f32.c ****     // COL 3
 515:../Dave/Generated/CMSIS_DSP/TransformFunctions/arm_cfft_f32.c ****     twR = tw3[0];
 516:../Dave/Generated/CMSIS_DSP/TransformFunctions/arm_cfft_f32.c ****     twI = tw3[1];
 827              	 .loc 1 516 0
 828 0378 029D     	 ldr r5,[sp,#8]
 517:../Dave/Generated/CMSIS_DSP/TransformFunctions/arm_cfft_f32.c **** 
 518:../Dave/Generated/CMSIS_DSP/TransformFunctions/arm_cfft_f32.c ****     m0 = t3[0] * twR;
 519:../Dave/Generated/CMSIS_DSP/TransformFunctions/arm_cfft_f32.c ****     m1 = t3[1] * twI;
 520:../Dave/Generated/CMSIS_DSP/TransformFunctions/arm_cfft_f32.c ****     m2 = t3[1] * twR;
 521:../Dave/Generated/CMSIS_DSP/TransformFunctions/arm_cfft_f32.c ****     m3 = t3[0] * twI;
 522:../Dave/Generated/CMSIS_DSP/TransformFunctions/arm_cfft_f32.c **** 
 523:../Dave/Generated/CMSIS_DSP/TransformFunctions/arm_cfft_f32.c ****     *p3++ = m0 + m1;
 524:../Dave/Generated/CMSIS_DSP/TransformFunctions/arm_cfft_f32.c ****     *p3++ = m2 - m3;
 525:../Dave/Generated/CMSIS_DSP/TransformFunctions/arm_cfft_f32.c ****     // COL 4
 526:../Dave/Generated/CMSIS_DSP/TransformFunctions/arm_cfft_f32.c ****     twR = tw4[0];
 527:../Dave/Generated/CMSIS_DSP/TransformFunctions/arm_cfft_f32.c ****     twI = tw4[1];
 528:../Dave/Generated/CMSIS_DSP/TransformFunctions/arm_cfft_f32.c **** 
 529:../Dave/Generated/CMSIS_DSP/TransformFunctions/arm_cfft_f32.c ****     m0 = t4[0] * twR;
 530:../Dave/Generated/CMSIS_DSP/TransformFunctions/arm_cfft_f32.c ****     m1 = t4[1] * twI;
 531:../Dave/Generated/CMSIS_DSP/TransformFunctions/arm_cfft_f32.c ****     m2 = t4[1] * twR;
 532:../Dave/Generated/CMSIS_DSP/TransformFunctions/arm_cfft_f32.c ****     m3 = t4[0] * twI;
 533:../Dave/Generated/CMSIS_DSP/TransformFunctions/arm_cfft_f32.c **** 
 534:../Dave/Generated/CMSIS_DSP/TransformFunctions/arm_cfft_f32.c ****     *p4++ = m0 + m1;
 535:../Dave/Generated/CMSIS_DSP/TransformFunctions/arm_cfft_f32.c ****     *p4++ = m2 - m3;
 536:../Dave/Generated/CMSIS_DSP/TransformFunctions/arm_cfft_f32.c **** 
 537:../Dave/Generated/CMSIS_DSP/TransformFunctions/arm_cfft_f32.c ****     // first col
 538:../Dave/Generated/CMSIS_DSP/TransformFunctions/arm_cfft_f32.c ****     arm_radix8_butterfly_f32( pCol1, L, (float32_t *) S->pTwiddle, 4u);
 829              	 .loc 1 538 0
 830 037a BDF82840 	 ldrh r4,[sp,#40]
 831 037e 0C98     	 ldr r0,[sp,#48]
 485:../Dave/Generated/CMSIS_DSP/TransformFunctions/arm_cfft_f32.c ****     p1sp3_0 = p1[0] - p3[0];
 832              	 .loc 1 485 0
 833 0380 73EE265A 	 fadds s11,s6,s13
 834              	.LVL100:
 487:../Dave/Generated/CMSIS_DSP/TransformFunctions/arm_cfft_f32.c ****     p1sp3_1 = p1[1] - p3[1];
 835              	 .loc 1 487 0
 836 0384 33EE876A 	 fadds s12,s7,s14
 500:../Dave/Generated/CMSIS_DSP/TransformFunctions/arm_cfft_f32.c ****     *p1++ = p1ap3_1 + p2[1] + p4[1];
 837              	 .loc 1 500 0
 838 0388 35EEA75A 	 fadds s10,s11,s15
 486:../Dave/Generated/CMSIS_DSP/TransformFunctions/arm_cfft_f32.c ****     p1ap3_1 = p1[1] + p3[1];
 839              	 .loc 1 486 0
 840 038c 73EE666A 	 fsubs s13,s6,s13
 841              	.LVL101:
 500:../Dave/Generated/CMSIS_DSP/TransformFunctions/arm_cfft_f32.c ****     *p1++ = p1ap3_1 + p2[1] + p4[1];
 842              	 .loc 1 500 0
 843 0390 34EE055A 	 fadds s10,s8,s10
 488:../Dave/Generated/CMSIS_DSP/TransformFunctions/arm_cfft_f32.c **** 
 844              	 .loc 1 488 0
 845 0394 33EEC77A 	 fsubs s14,s7,s14
 846              	.LVL102:
 500:../Dave/Generated/CMSIS_DSP/TransformFunctions/arm_cfft_f32.c ****     *p1++ = p1ap3_1 + p2[1] + p4[1];
 847              	 .loc 1 500 0
 848 0398 82ED005A 	 fsts s10,[r2]
 501:../Dave/Generated/CMSIS_DSP/TransformFunctions/arm_cfft_f32.c **** 
 849              	 .loc 1 501 0
 850 039c 98ED015A 	 flds s10,[r8,#4]
 851 03a0 9CED013A 	 flds s6,[ip,#4]
 852 03a4 36EE055A 	 fadds s10,s12,s10
 492:../Dave/Generated/CMSIS_DSP/TransformFunctions/arm_cfft_f32.c ****     // col 3
 853              	 .loc 1 492 0
 854 03a8 77EE673A 	 fsubs s7,s14,s15
 501:../Dave/Generated/CMSIS_DSP/TransformFunctions/arm_cfft_f32.c **** 
 855              	 .loc 1 501 0
 856 03ac 35EE035A 	 fadds s10,s10,s6
 491:../Dave/Generated/CMSIS_DSP/TransformFunctions/arm_cfft_f32.c ****     t2[1] = p1sp3_1 - p2[0] + p4[0];
 857              	 .loc 1 491 0
 858 03b0 32EEA63A 	 fadds s6,s5,s13
 501:../Dave/Generated/CMSIS_DSP/TransformFunctions/arm_cfft_f32.c **** 
 859              	 .loc 1 501 0
 860 03b4 82ED015A 	 fsts s10,[r2,#4]
 505:../Dave/Generated/CMSIS_DSP/TransformFunctions/arm_cfft_f32.c **** 
 861              	 .loc 1 505 0
 862 03b8 049A     	 ldr r2,[sp,#16]
 492:../Dave/Generated/CMSIS_DSP/TransformFunctions/arm_cfft_f32.c ****     // col 3
 863              	 .loc 1 492 0
 864 03ba 73EE843A 	 fadds s7,s7,s8
 505:../Dave/Generated/CMSIS_DSP/TransformFunctions/arm_cfft_f32.c **** 
 865              	 .loc 1 505 0
 866 03be 92ED015A 	 flds s10,[r2,#4]
 504:../Dave/Generated/CMSIS_DSP/TransformFunctions/arm_cfft_f32.c ****     twI = tw2[1];
 867              	 .loc 1 504 0
 868 03c2 D2ED001A 	 flds s3,[r2]
 869              	 .loc 1 538 0
 870 03c6 019A     	 ldr r2,[sp,#4]
 491:../Dave/Generated/CMSIS_DSP/TransformFunctions/arm_cfft_f32.c ****     t2[1] = p1sp3_1 - p2[0] + p4[0];
 871              	 .loc 1 491 0
 872 03c8 33EE643A 	 fsubs s6,s6,s9
 873              	.LVL103:
 508:../Dave/Generated/CMSIS_DSP/TransformFunctions/arm_cfft_f32.c ****     m2 = t2[1] * twR;
 874              	 .loc 1 508 0
 875 03cc 23EE852A 	 fmuls s4,s7,s10
 876 03d0 25EE435A 	 fnmuls s10,s10,s6
 512:../Dave/Generated/CMSIS_DSP/TransformFunctions/arm_cfft_f32.c ****     *p2++ = m2 - m3;
 877              	 .loc 1 512 0
 878 03d4 A3EE212A 	 vfma.f32 s4,s6,s3
 879              	 .loc 1 538 0
 880 03d8 2146     	 mov r1,r4
 881 03da 0423     	 movs r3,#4
 513:../Dave/Generated/CMSIS_DSP/TransformFunctions/arm_cfft_f32.c ****     // COL 3
 882              	 .loc 1 513 0
 883 03dc A3EEA15A 	 vfma.f32 s10,s7,s3
 495:../Dave/Generated/CMSIS_DSP/TransformFunctions/arm_cfft_f32.c ****     // col 4
 884              	 .loc 1 495 0
 885 03e0 36EE626A 	 fsubs s12,s12,s5
 886              	.LVL104:
 494:../Dave/Generated/CMSIS_DSP/TransformFunctions/arm_cfft_f32.c ****     t3[1] = p1ap3_1 - p2[1] - p4[1];
 887              	 .loc 1 494 0
 888 03e4 75EEE75A 	 fsubs s11,s11,s15
 889              	.LVL105:
 512:../Dave/Generated/CMSIS_DSP/TransformFunctions/arm_cfft_f32.c ****     *p2++ = m2 - m3;
 890              	 .loc 1 512 0
 891 03e8 88ED002A 	 fsts s4,[r8]
 513:../Dave/Generated/CMSIS_DSP/TransformFunctions/arm_cfft_f32.c ****     // COL 3
 892              	 .loc 1 513 0
 893 03ec 88ED015A 	 fsts s10,[r8,#4]
 494:../Dave/Generated/CMSIS_DSP/TransformFunctions/arm_cfft_f32.c ****     t3[1] = p1ap3_1 - p2[1] - p4[1];
 894              	 .loc 1 494 0
 895 03f0 75EEC45A 	 fsubs s11,s11,s8
 896              	.LVL106:
 495:../Dave/Generated/CMSIS_DSP/TransformFunctions/arm_cfft_f32.c ****     // col 4
 897              	 .loc 1 495 0
 898 03f4 36EE646A 	 fsubs s12,s12,s9
 899              	.LVL107:
 516:../Dave/Generated/CMSIS_DSP/TransformFunctions/arm_cfft_f32.c **** 
 900              	 .loc 1 516 0
 901 03f8 95ED015A 	 flds s10,[r5,#4]
 515:../Dave/Generated/CMSIS_DSP/TransformFunctions/arm_cfft_f32.c ****     twI = tw3[1];
 902              	 .loc 1 515 0
 903 03fc 95ED003A 	 flds s6,[r5]
 904              	.LVL108:
 519:../Dave/Generated/CMSIS_DSP/TransformFunctions/arm_cfft_f32.c ****     m2 = t3[1] * twR;
 905              	 .loc 1 519 0
 906 0400 66EE053A 	 fmuls s7,s12,s10
 907              	.LVL109:
 908 0404 25EE655A 	 fnmuls s10,s10,s11
 523:../Dave/Generated/CMSIS_DSP/TransformFunctions/arm_cfft_f32.c ****     *p3++ = m2 - m3;
 909              	 .loc 1 523 0
 910 0408 E5EE833A 	 vfma.f32 s7,s11,s6
 911 040c 3546     	 mov r5,r6
 524:../Dave/Generated/CMSIS_DSP/TransformFunctions/arm_cfft_f32.c ****     // COL 4
 912              	 .loc 1 524 0
 913 040e A6EE035A 	 vfma.f32 s10,s12,s6
 523:../Dave/Generated/CMSIS_DSP/TransformFunctions/arm_cfft_f32.c ****     *p3++ = m2 - m3;
 914              	 .loc 1 523 0
 915 0412 C5ED003A 	 fsts s7,[r5]
 497:../Dave/Generated/CMSIS_DSP/TransformFunctions/arm_cfft_f32.c ****     t4[1] = p1sp3_1 + p2[0] - p4[0];
 916              	 .loc 1 497 0
 917 0416 76EEE26A 	 fsubs s13,s13,s5
 918              	.LVL110:
 524:../Dave/Generated/CMSIS_DSP/TransformFunctions/arm_cfft_f32.c ****     // COL 4
 919              	 .loc 1 524 0
 920 041a 86ED015A 	 fsts s10,[r6,#4]
 498:../Dave/Generated/CMSIS_DSP/TransformFunctions/arm_cfft_f32.c ****     // col 1 - Top
 921              	 .loc 1 498 0
 922 041e 37EE277A 	 fadds s14,s14,s15
 923              	.LVL111:
 527:../Dave/Generated/CMSIS_DSP/TransformFunctions/arm_cfft_f32.c **** 
 924              	 .loc 1 527 0
 925 0422 059E     	 ldr r6,[sp,#20]
 498:../Dave/Generated/CMSIS_DSP/TransformFunctions/arm_cfft_f32.c ****     // col 1 - Top
 926              	 .loc 1 498 0
 927 0424 77EE447A 	 fsubs s15,s14,s8
 497:../Dave/Generated/CMSIS_DSP/TransformFunctions/arm_cfft_f32.c ****     t4[1] = p1sp3_1 + p2[0] - p4[0];
 928              	 .loc 1 497 0
 929 0428 74EEA66A 	 fadds s13,s9,s13
 930              	.LVL112:
 527:../Dave/Generated/CMSIS_DSP/TransformFunctions/arm_cfft_f32.c **** 
 931              	 .loc 1 527 0
 932 042c 96ED017A 	 flds s14,[r6,#4]
 526:../Dave/Generated/CMSIS_DSP/TransformFunctions/arm_cfft_f32.c ****     twI = tw4[1];
 933              	 .loc 1 526 0
 934 0430 D6ED005A 	 flds s11,[r6]
 935              	.LVL113:
 530:../Dave/Generated/CMSIS_DSP/TransformFunctions/arm_cfft_f32.c ****     m2 = t4[1] * twR;
 936              	 .loc 1 530 0
 937 0434 27EE876A 	 fmuls s12,s15,s14
 938              	.LVL114:
 939 0438 27EE667A 	 fnmuls s14,s14,s13
 940              	.LVL115:
 534:../Dave/Generated/CMSIS_DSP/TransformFunctions/arm_cfft_f32.c ****     *p4++ = m2 - m3;
 941              	 .loc 1 534 0
 942 043c A6EEA56A 	 vfma.f32 s12,s13,s11
 943              	.LVL116:
 535:../Dave/Generated/CMSIS_DSP/TransformFunctions/arm_cfft_f32.c **** 
 944              	 .loc 1 535 0
 945 0440 A7EEA57A 	 vfma.f32 s14,s15,s11
 534:../Dave/Generated/CMSIS_DSP/TransformFunctions/arm_cfft_f32.c ****     *p4++ = m2 - m3;
 946              	 .loc 1 534 0
 947 0444 8CED006A 	 fsts s12,[ip]
 948              	.LVL117:
 535:../Dave/Generated/CMSIS_DSP/TransformFunctions/arm_cfft_f32.c **** 
 949              	 .loc 1 535 0
 950 0448 8CED017A 	 fsts s14,[ip,#4]
 951              	 .loc 1 538 0
 952 044c FFF7FEFF 	 bl arm_radix8_butterfly_f32
 953              	.LVL118:
 539:../Dave/Generated/CMSIS_DSP/TransformFunctions/arm_cfft_f32.c ****     // second col
 540:../Dave/Generated/CMSIS_DSP/TransformFunctions/arm_cfft_f32.c ****     arm_radix8_butterfly_f32( pCol2, L, (float32_t *) S->pTwiddle, 4u);
 954              	 .loc 1 540 0
 955 0450 0B9D     	 ldr r5,[sp,#44]
 956              	.LVL119:
 957 0452 0898     	 ldr r0,[sp,#32]
 958 0454 6A68     	 ldr r2,[r5,#4]
 959 0456 2146     	 mov r1,r4
 960 0458 0423     	 movs r3,#4
 961 045a FFF7FEFF 	 bl arm_radix8_butterfly_f32
 962              	.LVL120:
 541:../Dave/Generated/CMSIS_DSP/TransformFunctions/arm_cfft_f32.c ****     // third col
 542:../Dave/Generated/CMSIS_DSP/TransformFunctions/arm_cfft_f32.c ****     arm_radix8_butterfly_f32( pCol3, L, (float32_t *) S->pTwiddle, 4u);
 963              	 .loc 1 542 0
 964 045e 0998     	 ldr r0,[sp,#36]
 965 0460 6A68     	 ldr r2,[r5,#4]
 966 0462 2146     	 mov r1,r4
 967 0464 0423     	 movs r3,#4
 968 0466 FFF7FEFF 	 bl arm_radix8_butterfly_f32
 969              	.LVL121:
 543:../Dave/Generated/CMSIS_DSP/TransformFunctions/arm_cfft_f32.c ****     // fourth col
 544:../Dave/Generated/CMSIS_DSP/TransformFunctions/arm_cfft_f32.c ****     arm_radix8_butterfly_f32( pCol4, L, (float32_t *) S->pTwiddle, 4u);
 970              	 .loc 1 544 0
 971 046a 0098     	 ldr r0,[sp]
 972 046c 6A68     	 ldr r2,[r5,#4]
 973 046e 2146     	 mov r1,r4
 974 0470 0423     	 movs r3,#4
 545:../Dave/Generated/CMSIS_DSP/TransformFunctions/arm_cfft_f32.c **** }
 975              	 .loc 1 545 0
 976 0472 0FB0     	 add sp,sp,#60
 977              	.LCFI7:
 978              	 .cfi_def_cfa_offset 76
 979              	.LVL122:
 980              	 
 981 0474 BDEC0A8B 	 fldmfdd sp!,{d8-d12}
 982              	.LCFI8:
 983              	 .cfi_restore 88
 984              	 .cfi_restore 89
 985              	 .cfi_restore 86
 986              	 .cfi_restore 87
 987              	 .cfi_restore 84
 988              	 .cfi_restore 85
 989              	 .cfi_restore 82
 990              	 .cfi_restore 83
 991              	 .cfi_restore 80
 992              	 .cfi_restore 81
 993              	 .cfi_def_cfa_offset 36
 994 0478 BDE8F04F 	 pop {r4,r5,r6,r7,r8,r9,r10,fp,lr}
 995              	.LCFI9:
 996              	 .cfi_restore 14
 997              	 .cfi_restore 11
 998              	 .cfi_restore 10
 999              	 .cfi_restore 9
 1000              	 .cfi_restore 8
 1001              	 .cfi_restore 7
 1002              	 .cfi_restore 6
 1003              	 .cfi_restore 5
 1004              	 .cfi_restore 4
 1005              	 .cfi_def_cfa_offset 0
 1006              	.LVL123:
 544:../Dave/Generated/CMSIS_DSP/TransformFunctions/arm_cfft_f32.c **** }
 1007              	 .loc 1 544 0
 1008 047c FFF7FEBF 	 b arm_radix8_butterfly_f32
 1009              	.LVL124:
 1010              	 .cfi_endproc
 1011              	.LFE136:
 1013              	 .section .text.arm_cfft_f32,"ax",%progbits
 1014              	 .align 2
 1015              	 .global arm_cfft_f32
 1016              	 .thumb
 1017              	 .thumb_func
 1019              	arm_cfft_f32:
 1020              	.LFB137:
 546:../Dave/Generated/CMSIS_DSP/TransformFunctions/arm_cfft_f32.c **** 
 547:../Dave/Generated/CMSIS_DSP/TransformFunctions/arm_cfft_f32.c **** /**
 548:../Dave/Generated/CMSIS_DSP/TransformFunctions/arm_cfft_f32.c **** * @addtogroup ComplexFFT
 549:../Dave/Generated/CMSIS_DSP/TransformFunctions/arm_cfft_f32.c **** * @{
 550:../Dave/Generated/CMSIS_DSP/TransformFunctions/arm_cfft_f32.c **** */
 551:../Dave/Generated/CMSIS_DSP/TransformFunctions/arm_cfft_f32.c **** 
 552:../Dave/Generated/CMSIS_DSP/TransformFunctions/arm_cfft_f32.c **** /**
 553:../Dave/Generated/CMSIS_DSP/TransformFunctions/arm_cfft_f32.c **** * @details
 554:../Dave/Generated/CMSIS_DSP/TransformFunctions/arm_cfft_f32.c **** * @brief       Processing function for the floating-point complex FFT.
 555:../Dave/Generated/CMSIS_DSP/TransformFunctions/arm_cfft_f32.c **** * @param[in]      *S    points to an instance of the floating-point CFFT structure.
 556:../Dave/Generated/CMSIS_DSP/TransformFunctions/arm_cfft_f32.c **** * @param[in, out] *p1   points to the complex data buffer of size <code>2*fftLen</code>. Processing
 557:../Dave/Generated/CMSIS_DSP/TransformFunctions/arm_cfft_f32.c **** * @param[in]     ifftFlag       flag that selects forward (ifftFlag=0) or inverse (ifftFlag=1) tran
 558:../Dave/Generated/CMSIS_DSP/TransformFunctions/arm_cfft_f32.c **** * @param[in]     bitReverseFlag flag that enables (bitReverseFlag=1) or disables (bitReverseFlag=0)
 559:../Dave/Generated/CMSIS_DSP/TransformFunctions/arm_cfft_f32.c **** * @return none.
 560:../Dave/Generated/CMSIS_DSP/TransformFunctions/arm_cfft_f32.c **** */
 561:../Dave/Generated/CMSIS_DSP/TransformFunctions/arm_cfft_f32.c **** 
 562:../Dave/Generated/CMSIS_DSP/TransformFunctions/arm_cfft_f32.c **** void arm_cfft_f32(
 563:../Dave/Generated/CMSIS_DSP/TransformFunctions/arm_cfft_f32.c ****     const arm_cfft_instance_f32 * S,
 564:../Dave/Generated/CMSIS_DSP/TransformFunctions/arm_cfft_f32.c ****     float32_t * p1,
 565:../Dave/Generated/CMSIS_DSP/TransformFunctions/arm_cfft_f32.c ****     uint8_t ifftFlag,
 566:../Dave/Generated/CMSIS_DSP/TransformFunctions/arm_cfft_f32.c ****     uint8_t bitReverseFlag)
 567:../Dave/Generated/CMSIS_DSP/TransformFunctions/arm_cfft_f32.c **** {
 1021              	 .loc 1 567 0
 1022              	 .cfi_startproc
 1023              	 
 1024              	 
 1025              	.LVL125:
 568:../Dave/Generated/CMSIS_DSP/TransformFunctions/arm_cfft_f32.c ****     uint32_t  L = S->fftLen, l;
 569:../Dave/Generated/CMSIS_DSP/TransformFunctions/arm_cfft_f32.c ****     float32_t invL, * pSrc;
 570:../Dave/Generated/CMSIS_DSP/TransformFunctions/arm_cfft_f32.c **** 
 571:../Dave/Generated/CMSIS_DSP/TransformFunctions/arm_cfft_f32.c ****     if (ifftFlag == 1u)
 1026              	 .loc 1 571 0
 1027 0000 012A     	 cmp r2,#1
 567:../Dave/Generated/CMSIS_DSP/TransformFunctions/arm_cfft_f32.c ****     uint32_t  L = S->fftLen, l;
 1028              	 .loc 1 567 0
 1029 0002 2DE9F041 	 push {r4,r5,r6,r7,r8,lr}
 1030              	.LCFI10:
 1031              	 .cfi_def_cfa_offset 24
 1032              	 .cfi_offset 4,-24
 1033              	 .cfi_offset 5,-20
 1034              	 .cfi_offset 6,-16
 1035              	 .cfi_offset 7,-12
 1036              	 .cfi_offset 8,-8
 1037              	 .cfi_offset 14,-4
 567:../Dave/Generated/CMSIS_DSP/TransformFunctions/arm_cfft_f32.c ****     uint32_t  L = S->fftLen, l;
 1038              	 .loc 1 567 0
 1039 0006 0646     	 mov r6,r0
 1040 0008 1746     	 mov r7,r2
 1041 000a 0C46     	 mov r4,r1
 1042 000c 9846     	 mov r8,r3
 568:../Dave/Generated/CMSIS_DSP/TransformFunctions/arm_cfft_f32.c ****     uint32_t  L = S->fftLen, l;
 1043              	 .loc 1 568 0
 1044 000e 0588     	 ldrh r5,[r0]
 1045              	.LVL126:
 1046              	 .loc 1 571 0
 1047 0010 54D0     	 beq .L17
 1048              	.LVL127:
 1049              	.L25:
 572:../Dave/Generated/CMSIS_DSP/TransformFunctions/arm_cfft_f32.c ****     {
 573:../Dave/Generated/CMSIS_DSP/TransformFunctions/arm_cfft_f32.c ****         /*  Conjugate input data  */
 574:../Dave/Generated/CMSIS_DSP/TransformFunctions/arm_cfft_f32.c ****         pSrc = p1 + 1;
 575:../Dave/Generated/CMSIS_DSP/TransformFunctions/arm_cfft_f32.c ****         for(l=0; l<L; l++)
 576:../Dave/Generated/CMSIS_DSP/TransformFunctions/arm_cfft_f32.c ****         {
 577:../Dave/Generated/CMSIS_DSP/TransformFunctions/arm_cfft_f32.c ****             *pSrc = -*pSrc;
 578:../Dave/Generated/CMSIS_DSP/TransformFunctions/arm_cfft_f32.c ****             pSrc += 2;
 579:../Dave/Generated/CMSIS_DSP/TransformFunctions/arm_cfft_f32.c ****         }
 580:../Dave/Generated/CMSIS_DSP/TransformFunctions/arm_cfft_f32.c ****     }
 581:../Dave/Generated/CMSIS_DSP/TransformFunctions/arm_cfft_f32.c **** 
 582:../Dave/Generated/CMSIS_DSP/TransformFunctions/arm_cfft_f32.c ****     switch (L)
 1050              	 .loc 1 582 0
 1051 0012 B5F5807F 	 cmp r5,#256
 1052 0016 4CD0     	 beq .L19
 1053 0018 16D9     	 bls .L70
 1054              	.L20:
 1055 001a B5F5806F 	 cmp r5,#1024
 1056 001e 1AD0     	 beq .L22
 1057 0020 5CD9     	 bls .L71
 1058 0022 B5F5006F 	 cmp r5,#2048
 1059 0026 44D0     	 beq .L19
 1060 0028 B5F5805F 	 cmp r5,#4096
 1061 002c 05D1     	 bne .L18
 1062              	.L23:
 583:../Dave/Generated/CMSIS_DSP/TransformFunctions/arm_cfft_f32.c ****     {
 584:../Dave/Generated/CMSIS_DSP/TransformFunctions/arm_cfft_f32.c ****     case 16:
 585:../Dave/Generated/CMSIS_DSP/TransformFunctions/arm_cfft_f32.c ****     case 128:
 586:../Dave/Generated/CMSIS_DSP/TransformFunctions/arm_cfft_f32.c ****     case 1024:
 587:../Dave/Generated/CMSIS_DSP/TransformFunctions/arm_cfft_f32.c ****         arm_cfft_radix8by2_f32  ( (arm_cfft_instance_f32 *) S, p1);
 588:../Dave/Generated/CMSIS_DSP/TransformFunctions/arm_cfft_f32.c ****         break;
 589:../Dave/Generated/CMSIS_DSP/TransformFunctions/arm_cfft_f32.c ****     case 32:
 590:../Dave/Generated/CMSIS_DSP/TransformFunctions/arm_cfft_f32.c ****     case 256:
 591:../Dave/Generated/CMSIS_DSP/TransformFunctions/arm_cfft_f32.c ****     case 2048:
 592:../Dave/Generated/CMSIS_DSP/TransformFunctions/arm_cfft_f32.c ****         arm_cfft_radix8by4_f32  ( (arm_cfft_instance_f32 *) S, p1);
 593:../Dave/Generated/CMSIS_DSP/TransformFunctions/arm_cfft_f32.c ****         break;
 594:../Dave/Generated/CMSIS_DSP/TransformFunctions/arm_cfft_f32.c ****     case 64:
 595:../Dave/Generated/CMSIS_DSP/TransformFunctions/arm_cfft_f32.c ****     case 512:
 596:../Dave/Generated/CMSIS_DSP/TransformFunctions/arm_cfft_f32.c ****     case 4096:
 597:../Dave/Generated/CMSIS_DSP/TransformFunctions/arm_cfft_f32.c ****         arm_radix8_butterfly_f32( p1, L, (float32_t *) S->pTwiddle, 1);
 1063              	 .loc 1 597 0
 1064 002e 2046     	 mov r0,r4
 1065              	.LVL128:
 1066 0030 2946     	 mov r1,r5
 1067              	.LVL129:
 1068 0032 7268     	 ldr r2,[r6,#4]
 1069 0034 0123     	 movs r3,#1
 1070 0036 FFF7FEFF 	 bl arm_radix8_butterfly_f32
 1071              	.LVL130:
 1072              	.L18:
 598:../Dave/Generated/CMSIS_DSP/TransformFunctions/arm_cfft_f32.c ****         break;
 599:../Dave/Generated/CMSIS_DSP/TransformFunctions/arm_cfft_f32.c ****     }
 600:../Dave/Generated/CMSIS_DSP/TransformFunctions/arm_cfft_f32.c **** 
 601:../Dave/Generated/CMSIS_DSP/TransformFunctions/arm_cfft_f32.c ****     if ( bitReverseFlag )
 1073              	 .loc 1 601 0
 1074 003a B8F1000F 	 cmp r8,#0
 1075 003e 11D1     	 bne .L72
 1076              	.L27:
 602:../Dave/Generated/CMSIS_DSP/TransformFunctions/arm_cfft_f32.c ****         arm_bitreversal_32((uint32_t*)p1,S->bitRevLength,S->pBitRevTable);
 603:../Dave/Generated/CMSIS_DSP/TransformFunctions/arm_cfft_f32.c **** 
 604:../Dave/Generated/CMSIS_DSP/TransformFunctions/arm_cfft_f32.c ****     if (ifftFlag == 1u)
 1077              	 .loc 1 604 0
 1078 0040 012F     	 cmp r7,#1
 1079 0042 16D0     	 beq .L73
 1080              	.L16:
 1081 0044 BDE8F081 	 pop {r4,r5,r6,r7,r8,pc}
 1082              	.LVL131:
 1083              	.L70:
 582:../Dave/Generated/CMSIS_DSP/TransformFunctions/arm_cfft_f32.c ****     {
 1084              	 .loc 1 582 0
 1085 0048 202D     	 cmp r5,#32
 1086 004a 32D0     	 beq .L19
 1087 004c 4AD9     	 bls .L74
 1088 004e 402D     	 cmp r5,#64
 1089 0050 EDD0     	 beq .L23
 1090 0052 802D     	 cmp r5,#128
 1091 0054 F1D1     	 bne .L18
 1092              	.L22:
 587:../Dave/Generated/CMSIS_DSP/TransformFunctions/arm_cfft_f32.c ****         break;
 1093              	 .loc 1 587 0
 1094 0056 3046     	 mov r0,r6
 1095              	.LVL132:
 1096 0058 2146     	 mov r1,r4
 1097              	.LVL133:
 1098 005a FFF7FEFF 	 bl arm_cfft_radix8by2_f32
 1099              	.LVL134:
 601:../Dave/Generated/CMSIS_DSP/TransformFunctions/arm_cfft_f32.c ****         arm_bitreversal_32((uint32_t*)p1,S->bitRevLength,S->pBitRevTable);
 1100              	 .loc 1 601 0
 1101 005e B8F1000F 	 cmp r8,#0
 1102 0062 EDD0     	 beq .L27
 1103              	.L72:
 602:../Dave/Generated/CMSIS_DSP/TransformFunctions/arm_cfft_f32.c **** 
 1104              	 .loc 1 602 0
 1105 0064 2046     	 mov r0,r4
 1106 0066 B189     	 ldrh r1,[r6,#12]
 1107 0068 B268     	 ldr r2,[r6,#8]
 1108 006a FFF7FEFF 	 bl arm_bitreversal_32
 1109              	.LVL135:
 1110              	 .loc 1 604 0
 1111 006e 012F     	 cmp r7,#1
 1112 0070 E8D1     	 bne .L16
 1113              	.L73:
 605:../Dave/Generated/CMSIS_DSP/TransformFunctions/arm_cfft_f32.c ****     {
 606:../Dave/Generated/CMSIS_DSP/TransformFunctions/arm_cfft_f32.c ****         invL = 1.0f/(float32_t)L;
 1114              	 .loc 1 606 0
 1115 0072 07EE905A 	 fmsr s15,r5
 1116 0076 F8EE676A 	 fuitos s13,s15
 1117 007a F7EE007A 	 fconsts s15,#112
 1118 007e C7EEA66A 	 fdivs s13,s15,s13
 1119              	.LVL136:
 607:../Dave/Generated/CMSIS_DSP/TransformFunctions/arm_cfft_f32.c ****         /*  Conjugate and scale output data */
 608:../Dave/Generated/CMSIS_DSP/TransformFunctions/arm_cfft_f32.c ****         pSrc = p1;
 609:../Dave/Generated/CMSIS_DSP/TransformFunctions/arm_cfft_f32.c ****         for(l=0; l<L; l++)
 1120              	 .loc 1 609 0
 1121 0082 002D     	 cmp r5,#0
 1122 0084 DED0     	 beq .L16
 1123 0086 04F10801 	 add r1,r4,#8
 1124 008a 0023     	 movs r3,#0
 1125              	.LVL137:
 1126              	.L30:
 1127              	 .loc 1 609 0 is_stmt 0 discriminator 3
 1128 008c 0133     	 adds r3,r3,#1
 1129              	.LVL138:
 1130 008e 9D42     	 cmp r5,r3
 1131 0090 01F10801 	 add r1,r1,#8
 1132              	.LVL139:
 610:../Dave/Generated/CMSIS_DSP/TransformFunctions/arm_cfft_f32.c ****         {
 611:../Dave/Generated/CMSIS_DSP/TransformFunctions/arm_cfft_f32.c ****             *pSrc++ *=   invL ;
 1133              	 .loc 1 611 0 is_stmt 1 discriminator 3
 1134 0094 11ED047A 	 flds s14,[r1,#-16]
 612:../Dave/Generated/CMSIS_DSP/TransformFunctions/arm_cfft_f32.c ****             *pSrc  = -(*pSrc) * invL;
 1135              	 .loc 1 612 0 discriminator 3
 1136 0098 51ED037A 	 flds s15,[r1,#-12]
 611:../Dave/Generated/CMSIS_DSP/TransformFunctions/arm_cfft_f32.c ****             *pSrc  = -(*pSrc) * invL;
 1137              	 .loc 1 611 0 discriminator 3
 1138 009c 27EE267A 	 fmuls s14,s14,s13
 1139              	 .loc 1 612 0 discriminator 3
 1140 00a0 67EEE67A 	 fnmuls s15,s15,s13
 611:../Dave/Generated/CMSIS_DSP/TransformFunctions/arm_cfft_f32.c ****             *pSrc  = -(*pSrc) * invL;
 1141              	 .loc 1 611 0 discriminator 3
 1142 00a4 01ED047A 	 fsts s14,[r1,#-16]
 1143              	 .loc 1 612 0 discriminator 3
 1144 00a8 41ED037A 	 fsts s15,[r1,#-12]
 1145              	.LVL140:
 609:../Dave/Generated/CMSIS_DSP/TransformFunctions/arm_cfft_f32.c ****         {
 1146              	 .loc 1 609 0 discriminator 3
 1147 00ac EED1     	 bne .L30
 1148 00ae BDE8F081 	 pop {r4,r5,r6,r7,r8,pc}
 1149              	.LVL141:
 1150              	.L19:
 592:../Dave/Generated/CMSIS_DSP/TransformFunctions/arm_cfft_f32.c ****         break;
 1151              	 .loc 1 592 0
 1152 00b2 3046     	 mov r0,r6
 1153              	.LVL142:
 1154 00b4 2146     	 mov r1,r4
 1155              	.LVL143:
 1156 00b6 FFF7FEFF 	 bl arm_cfft_radix8by4_f32
 1157              	.LVL144:
 593:../Dave/Generated/CMSIS_DSP/TransformFunctions/arm_cfft_f32.c ****     case 64:
 1158              	 .loc 1 593 0
 1159 00ba BEE7     	 b .L18
 1160              	.LVL145:
 1161              	.L17:
 575:../Dave/Generated/CMSIS_DSP/TransformFunctions/arm_cfft_f32.c ****         {
 1162              	 .loc 1 575 0
 1163 00bc ADB1     	 cbz r5,.L75
 1164 00be 01F10C03 	 add r3,r1,#12
 1165              	.LVL146:
 1166 00c2 0022     	 movs r2,#0
 1167              	.LVL147:
 1168              	.L26:
 577:../Dave/Generated/CMSIS_DSP/TransformFunctions/arm_cfft_f32.c ****             pSrc += 2;
 1169              	 .loc 1 577 0 discriminator 3
 1170 00c4 53ED027A 	 flds s15,[r3,#-8]
 575:../Dave/Generated/CMSIS_DSP/TransformFunctions/arm_cfft_f32.c ****         {
 1171              	 .loc 1 575 0 discriminator 3
 1172 00c8 0132     	 adds r2,r2,#1
 1173              	.LVL148:
 577:../Dave/Generated/CMSIS_DSP/TransformFunctions/arm_cfft_f32.c ****             pSrc += 2;
 1174              	 .loc 1 577 0 discriminator 3
 1175 00ca F1EE677A 	 fnegs s15,s15
 575:../Dave/Generated/CMSIS_DSP/TransformFunctions/arm_cfft_f32.c ****         {
 1176              	 .loc 1 575 0 discriminator 3
 1177 00ce 9542     	 cmp r5,r2
 577:../Dave/Generated/CMSIS_DSP/TransformFunctions/arm_cfft_f32.c ****             pSrc += 2;
 1178              	 .loc 1 577 0 discriminator 3
 1179 00d0 43ED027A 	 fsts s15,[r3,#-8]
 1180              	.LVL149:
 1181 00d4 03F10803 	 add r3,r3,#8
 1182              	.LVL150:
 575:../Dave/Generated/CMSIS_DSP/TransformFunctions/arm_cfft_f32.c ****         {
 1183              	 .loc 1 575 0 discriminator 3
 1184 00d8 F4D1     	 bne .L26
 1185 00da 9AE7     	 b .L25
 1186              	.LVL151:
 1187              	.L71:
 582:../Dave/Generated/CMSIS_DSP/TransformFunctions/arm_cfft_f32.c ****     {
 1188              	 .loc 1 582 0
 1189 00dc B5F5007F 	 cmp r5,#512
 1190 00e0 A5D0     	 beq .L23
 1191 00e2 AAE7     	 b .L18
 1192              	.L74:
 1193 00e4 102D     	 cmp r5,#16
 1194 00e6 B6D0     	 beq .L22
 1195 00e8 A7E7     	 b .L18
 1196              	.LVL152:
 1197              	.L75:
 1198 00ea B5F5807F 	 cmp r5,#256
 1199 00ee 94D8     	 bhi .L20
 1200 00f0 AAE7     	 b .L70
 1201              	 .cfi_endproc
 1202              	.LFE137:
 1204 00f2 00BF     	 .text
 1205              	.Letext0:
 1206              	 .file 2 "c:\\infineon\\tools\\dave ide\\4.5.0.202105191637\\eclipse\\arm-gcc-49\\arm-none-eabi\\include\\machine\\_default_types.h"
 1207              	 .file 3 "c:\\infineon\\tools\\dave ide\\4.5.0.202105191637\\eclipse\\arm-gcc-49\\arm-none-eabi\\include\\stdint.h"
 1208              	 .file 4 "C:/Users/Utente/Desktop/Tesi/Firmware_Software/DAVE project/S2GLP_Pulsed_Doppler/Dave/Generated/CMSIS_DSP/arm_math.h"