   1              	 .syntax unified
   2              	 .cpu cortex-m4
   3              	 .eabi_attribute 27,3
   4              	 .fpu fpv4-sp-d16
   5              	 .eabi_attribute 20,1
   6              	 .eabi_attribute 21,1
   7              	 .eabi_attribute 23,3
   8              	 .eabi_attribute 24,1
   9              	 .eabi_attribute 25,1
  10              	 .eabi_attribute 26,1
  11              	 .eabi_attribute 30,2
  12              	 .eabi_attribute 34,1
  13              	 .eabi_attribute 18,4
  14              	 .thumb
  15              	 .file "arm_cfft_radix8_f32.c"
  16              	 .text
  17              	.Ltext0:
  18              	 .cfi_sections .debug_frame
  19              	 .section .text.arm_radix8_butterfly_f32,"ax",%progbits
  20              	 .align 2
  21              	 .global arm_radix8_butterfly_f32
  22              	 .thumb
  23              	 .thumb_func
  25              	arm_radix8_butterfly_f32:
  26              	.LFB135:
  27              	 .file 1 "../Dave/Generated/CMSIS_DSP/TransformFunctions/arm_cfft_radix8_f32.c"
   1:../Dave/Generated/CMSIS_DSP/TransformFunctions/arm_cfft_radix8_f32.c **** /* ----------------------------------------------------------------------
   2:../Dave/Generated/CMSIS_DSP/TransformFunctions/arm_cfft_radix8_f32.c ****  * Project:      CMSIS DSP Library
   3:../Dave/Generated/CMSIS_DSP/TransformFunctions/arm_cfft_radix8_f32.c ****  * Title:        arm_cfft_radix8_f32.c
   4:../Dave/Generated/CMSIS_DSP/TransformFunctions/arm_cfft_radix8_f32.c ****  * Description:  Radix-8 Decimation in Frequency CFFT & CIFFT Floating point processing function
   5:../Dave/Generated/CMSIS_DSP/TransformFunctions/arm_cfft_radix8_f32.c ****  *
   6:../Dave/Generated/CMSIS_DSP/TransformFunctions/arm_cfft_radix8_f32.c ****  * $Date:        27. January 2017
   7:../Dave/Generated/CMSIS_DSP/TransformFunctions/arm_cfft_radix8_f32.c ****  * $Revision:    V.1.5.1
   8:../Dave/Generated/CMSIS_DSP/TransformFunctions/arm_cfft_radix8_f32.c ****  *
   9:../Dave/Generated/CMSIS_DSP/TransformFunctions/arm_cfft_radix8_f32.c ****  * Target Processor: Cortex-M cores
  10:../Dave/Generated/CMSIS_DSP/TransformFunctions/arm_cfft_radix8_f32.c ****  * -------------------------------------------------------------------- */
  11:../Dave/Generated/CMSIS_DSP/TransformFunctions/arm_cfft_radix8_f32.c **** /*
  12:../Dave/Generated/CMSIS_DSP/TransformFunctions/arm_cfft_radix8_f32.c ****  * Copyright (C) 2010-2017 ARM Limited or its affiliates. All rights reserved.
  13:../Dave/Generated/CMSIS_DSP/TransformFunctions/arm_cfft_radix8_f32.c ****  *
  14:../Dave/Generated/CMSIS_DSP/TransformFunctions/arm_cfft_radix8_f32.c ****  * SPDX-License-Identifier: Apache-2.0
  15:../Dave/Generated/CMSIS_DSP/TransformFunctions/arm_cfft_radix8_f32.c ****  *
  16:../Dave/Generated/CMSIS_DSP/TransformFunctions/arm_cfft_radix8_f32.c ****  * Licensed under the Apache License, Version 2.0 (the License); you may
  17:../Dave/Generated/CMSIS_DSP/TransformFunctions/arm_cfft_radix8_f32.c ****  * not use this file except in compliance with the License.
  18:../Dave/Generated/CMSIS_DSP/TransformFunctions/arm_cfft_radix8_f32.c ****  * You may obtain a copy of the License at
  19:../Dave/Generated/CMSIS_DSP/TransformFunctions/arm_cfft_radix8_f32.c ****  *
  20:../Dave/Generated/CMSIS_DSP/TransformFunctions/arm_cfft_radix8_f32.c ****  * www.apache.org/licenses/LICENSE-2.0
  21:../Dave/Generated/CMSIS_DSP/TransformFunctions/arm_cfft_radix8_f32.c ****  *
  22:../Dave/Generated/CMSIS_DSP/TransformFunctions/arm_cfft_radix8_f32.c ****  * Unless required by applicable law or agreed to in writing, software
  23:../Dave/Generated/CMSIS_DSP/TransformFunctions/arm_cfft_radix8_f32.c ****  * distributed under the License is distributed on an AS IS BASIS, WITHOUT
  24:../Dave/Generated/CMSIS_DSP/TransformFunctions/arm_cfft_radix8_f32.c ****  * WARRANTIES OR CONDITIONS OF ANY KIND, either express or implied.
  25:../Dave/Generated/CMSIS_DSP/TransformFunctions/arm_cfft_radix8_f32.c ****  * See the License for the specific language governing permissions and
  26:../Dave/Generated/CMSIS_DSP/TransformFunctions/arm_cfft_radix8_f32.c ****  * limitations under the License.
  27:../Dave/Generated/CMSIS_DSP/TransformFunctions/arm_cfft_radix8_f32.c ****  */
  28:../Dave/Generated/CMSIS_DSP/TransformFunctions/arm_cfft_radix8_f32.c **** 
  29:../Dave/Generated/CMSIS_DSP/TransformFunctions/arm_cfft_radix8_f32.c **** #include "CMSIS_DSP/cmsis_dsp.h"
  30:../Dave/Generated/CMSIS_DSP/TransformFunctions/arm_cfft_radix8_f32.c **** 
  31:../Dave/Generated/CMSIS_DSP/TransformFunctions/arm_cfft_radix8_f32.c **** 
  32:../Dave/Generated/CMSIS_DSP/TransformFunctions/arm_cfft_radix8_f32.c **** /* ----------------------------------------------------------------------
  33:../Dave/Generated/CMSIS_DSP/TransformFunctions/arm_cfft_radix8_f32.c ****  * Internal helper function used by the FFTs
  34:../Dave/Generated/CMSIS_DSP/TransformFunctions/arm_cfft_radix8_f32.c ****  * -------------------------------------------------------------------- */
  35:../Dave/Generated/CMSIS_DSP/TransformFunctions/arm_cfft_radix8_f32.c **** 
  36:../Dave/Generated/CMSIS_DSP/TransformFunctions/arm_cfft_radix8_f32.c **** /*
  37:../Dave/Generated/CMSIS_DSP/TransformFunctions/arm_cfft_radix8_f32.c **** * @brief  Core function for the floating-point CFFT butterfly process.
  38:../Dave/Generated/CMSIS_DSP/TransformFunctions/arm_cfft_radix8_f32.c **** * @param[in, out] *pSrc            points to the in-place buffer of floating-point data type.
  39:../Dave/Generated/CMSIS_DSP/TransformFunctions/arm_cfft_radix8_f32.c **** * @param[in]      fftLen           length of the FFT.
  40:../Dave/Generated/CMSIS_DSP/TransformFunctions/arm_cfft_radix8_f32.c **** * @param[in]      *pCoef           points to the twiddle coefficient buffer.
  41:../Dave/Generated/CMSIS_DSP/TransformFunctions/arm_cfft_radix8_f32.c **** * @param[in]      twidCoefModifier twiddle coefficient modifier that supports different size FFTs w
  42:../Dave/Generated/CMSIS_DSP/TransformFunctions/arm_cfft_radix8_f32.c **** * @return none.
  43:../Dave/Generated/CMSIS_DSP/TransformFunctions/arm_cfft_radix8_f32.c **** */
  44:../Dave/Generated/CMSIS_DSP/TransformFunctions/arm_cfft_radix8_f32.c **** 
  45:../Dave/Generated/CMSIS_DSP/TransformFunctions/arm_cfft_radix8_f32.c **** void arm_radix8_butterfly_f32(
  46:../Dave/Generated/CMSIS_DSP/TransformFunctions/arm_cfft_radix8_f32.c **** float32_t * pSrc,
  47:../Dave/Generated/CMSIS_DSP/TransformFunctions/arm_cfft_radix8_f32.c **** uint16_t fftLen,
  48:../Dave/Generated/CMSIS_DSP/TransformFunctions/arm_cfft_radix8_f32.c **** const float32_t * pCoef,
  49:../Dave/Generated/CMSIS_DSP/TransformFunctions/arm_cfft_radix8_f32.c **** uint16_t twidCoefModifier)
  50:../Dave/Generated/CMSIS_DSP/TransformFunctions/arm_cfft_radix8_f32.c **** {
  28              	 .loc 1 50 0
  29              	 .cfi_startproc
  30              	 
  31              	 
  32              	.LVL0:
  33 0000 2DE9F04F 	 push {r4,r5,r6,r7,r8,r9,r10,fp,lr}
  34              	.LCFI0:
  35              	 .cfi_def_cfa_offset 36
  36              	 .cfi_offset 4,-36
  37              	 .cfi_offset 5,-32
  38              	 .cfi_offset 6,-28
  39              	 .cfi_offset 7,-24
  40              	 .cfi_offset 8,-20
  41              	 .cfi_offset 9,-16
  42              	 .cfi_offset 10,-12
  43              	 .cfi_offset 11,-8
  44              	 .cfi_offset 14,-4
  45 0004 2DED108B 	 fstmfdd sp!,{d8,d9,d10,d11,d12,d13,d14,d15}
  46              	.LCFI1:
  47              	 .cfi_def_cfa_offset 100
  48              	 .cfi_offset 80,-100
  49              	 .cfi_offset 81,-96
  50              	 .cfi_offset 82,-92
  51              	 .cfi_offset 83,-88
  52              	 .cfi_offset 84,-84
  53              	 .cfi_offset 85,-80
  54              	 .cfi_offset 86,-76
  55              	 .cfi_offset 87,-72
  56              	 .cfi_offset 88,-68
  57              	 .cfi_offset 89,-64
  58              	 .cfi_offset 90,-60
  59              	 .cfi_offset 91,-56
  60              	 .cfi_offset 92,-52
  61              	 .cfi_offset 93,-48
  62              	 .cfi_offset 94,-44
  63              	 .cfi_offset 95,-40
  64 0008 9DB0     	 sub sp,sp,#116
  65              	.LCFI2:
  66              	 .cfi_def_cfa_offset 216
  67              	 .loc 1 50 0
  68 000a 1C46     	 mov r4,r3
  51:../Dave/Generated/CMSIS_DSP/TransformFunctions/arm_cfft_radix8_f32.c ****    uint32_t ia1, ia2, ia3, ia4, ia5, ia6, ia7;
  52:../Dave/Generated/CMSIS_DSP/TransformFunctions/arm_cfft_radix8_f32.c ****    uint32_t i1, i2, i3, i4, i5, i6, i7, i8;
  53:../Dave/Generated/CMSIS_DSP/TransformFunctions/arm_cfft_radix8_f32.c ****    uint32_t id;
  54:../Dave/Generated/CMSIS_DSP/TransformFunctions/arm_cfft_radix8_f32.c ****    uint32_t n1, n2, j;
  55:../Dave/Generated/CMSIS_DSP/TransformFunctions/arm_cfft_radix8_f32.c **** 
  56:../Dave/Generated/CMSIS_DSP/TransformFunctions/arm_cfft_radix8_f32.c ****    float32_t r1, r2, r3, r4, r5, r6, r7, r8;
  57:../Dave/Generated/CMSIS_DSP/TransformFunctions/arm_cfft_radix8_f32.c ****    float32_t t1, t2;
  58:../Dave/Generated/CMSIS_DSP/TransformFunctions/arm_cfft_radix8_f32.c ****    float32_t s1, s2, s3, s4, s5, s6, s7, s8;
  59:../Dave/Generated/CMSIS_DSP/TransformFunctions/arm_cfft_radix8_f32.c ****    float32_t p1, p2, p3, p4;
  60:../Dave/Generated/CMSIS_DSP/TransformFunctions/arm_cfft_radix8_f32.c ****    float32_t co2, co3, co4, co5, co6, co7, co8;
  61:../Dave/Generated/CMSIS_DSP/TransformFunctions/arm_cfft_radix8_f32.c ****    float32_t si2, si3, si4, si5, si6, si7, si8;
  62:../Dave/Generated/CMSIS_DSP/TransformFunctions/arm_cfft_radix8_f32.c ****    const float32_t C81 = 0.70710678118f;
  63:../Dave/Generated/CMSIS_DSP/TransformFunctions/arm_cfft_radix8_f32.c **** 
  64:../Dave/Generated/CMSIS_DSP/TransformFunctions/arm_cfft_radix8_f32.c ****    n2 = fftLen;
  65:../Dave/Generated/CMSIS_DSP/TransformFunctions/arm_cfft_radix8_f32.c **** 
  66:../Dave/Generated/CMSIS_DSP/TransformFunctions/arm_cfft_radix8_f32.c ****    do
  67:../Dave/Generated/CMSIS_DSP/TransformFunctions/arm_cfft_radix8_f32.c ****    {
  68:../Dave/Generated/CMSIS_DSP/TransformFunctions/arm_cfft_radix8_f32.c ****       n1 = n2;
  69:../Dave/Generated/CMSIS_DSP/TransformFunctions/arm_cfft_radix8_f32.c ****       n2 = n2 >> 3;
  70:../Dave/Generated/CMSIS_DSP/TransformFunctions/arm_cfft_radix8_f32.c ****       i1 = 0;
  71:../Dave/Generated/CMSIS_DSP/TransformFunctions/arm_cfft_radix8_f32.c **** 
  72:../Dave/Generated/CMSIS_DSP/TransformFunctions/arm_cfft_radix8_f32.c ****       do
  73:../Dave/Generated/CMSIS_DSP/TransformFunctions/arm_cfft_radix8_f32.c ****       {
  74:../Dave/Generated/CMSIS_DSP/TransformFunctions/arm_cfft_radix8_f32.c ****          i2 = i1 + n2;
  75:../Dave/Generated/CMSIS_DSP/TransformFunctions/arm_cfft_radix8_f32.c ****          i3 = i2 + n2;
  76:../Dave/Generated/CMSIS_DSP/TransformFunctions/arm_cfft_radix8_f32.c ****          i4 = i3 + n2;
  77:../Dave/Generated/CMSIS_DSP/TransformFunctions/arm_cfft_radix8_f32.c ****          i5 = i4 + n2;
  78:../Dave/Generated/CMSIS_DSP/TransformFunctions/arm_cfft_radix8_f32.c ****          i6 = i5 + n2;
  79:../Dave/Generated/CMSIS_DSP/TransformFunctions/arm_cfft_radix8_f32.c ****          i7 = i6 + n2;
  80:../Dave/Generated/CMSIS_DSP/TransformFunctions/arm_cfft_radix8_f32.c ****          i8 = i7 + n2;
  81:../Dave/Generated/CMSIS_DSP/TransformFunctions/arm_cfft_radix8_f32.c ****          r1 = pSrc[2 * i1] + pSrc[2 * i5];
  82:../Dave/Generated/CMSIS_DSP/TransformFunctions/arm_cfft_radix8_f32.c ****          r5 = pSrc[2 * i1] - pSrc[2 * i5];
  83:../Dave/Generated/CMSIS_DSP/TransformFunctions/arm_cfft_radix8_f32.c ****          r2 = pSrc[2 * i2] + pSrc[2 * i6];
  84:../Dave/Generated/CMSIS_DSP/TransformFunctions/arm_cfft_radix8_f32.c ****          r6 = pSrc[2 * i2] - pSrc[2 * i6];
  85:../Dave/Generated/CMSIS_DSP/TransformFunctions/arm_cfft_radix8_f32.c ****          r3 = pSrc[2 * i3] + pSrc[2 * i7];
  86:../Dave/Generated/CMSIS_DSP/TransformFunctions/arm_cfft_radix8_f32.c ****          r7 = pSrc[2 * i3] - pSrc[2 * i7];
  87:../Dave/Generated/CMSIS_DSP/TransformFunctions/arm_cfft_radix8_f32.c ****          r4 = pSrc[2 * i4] + pSrc[2 * i8];
  88:../Dave/Generated/CMSIS_DSP/TransformFunctions/arm_cfft_radix8_f32.c ****          r8 = pSrc[2 * i4] - pSrc[2 * i8];
  89:../Dave/Generated/CMSIS_DSP/TransformFunctions/arm_cfft_radix8_f32.c ****          t1 = r1 - r3;
  90:../Dave/Generated/CMSIS_DSP/TransformFunctions/arm_cfft_radix8_f32.c ****          r1 = r1 + r3;
  91:../Dave/Generated/CMSIS_DSP/TransformFunctions/arm_cfft_radix8_f32.c ****          r3 = r2 - r4;
  92:../Dave/Generated/CMSIS_DSP/TransformFunctions/arm_cfft_radix8_f32.c ****          r2 = r2 + r4;
  93:../Dave/Generated/CMSIS_DSP/TransformFunctions/arm_cfft_radix8_f32.c ****          pSrc[2 * i1] = r1 + r2;
  94:../Dave/Generated/CMSIS_DSP/TransformFunctions/arm_cfft_radix8_f32.c ****          pSrc[2 * i5] = r1 - r2;
  95:../Dave/Generated/CMSIS_DSP/TransformFunctions/arm_cfft_radix8_f32.c ****          r1 = pSrc[2 * i1 + 1] + pSrc[2 * i5 + 1];
  96:../Dave/Generated/CMSIS_DSP/TransformFunctions/arm_cfft_radix8_f32.c ****          s5 = pSrc[2 * i1 + 1] - pSrc[2 * i5 + 1];
  97:../Dave/Generated/CMSIS_DSP/TransformFunctions/arm_cfft_radix8_f32.c ****          r2 = pSrc[2 * i2 + 1] + pSrc[2 * i6 + 1];
  98:../Dave/Generated/CMSIS_DSP/TransformFunctions/arm_cfft_radix8_f32.c ****          s6 = pSrc[2 * i2 + 1] - pSrc[2 * i6 + 1];
  99:../Dave/Generated/CMSIS_DSP/TransformFunctions/arm_cfft_radix8_f32.c ****          s3 = pSrc[2 * i3 + 1] + pSrc[2 * i7 + 1];
 100:../Dave/Generated/CMSIS_DSP/TransformFunctions/arm_cfft_radix8_f32.c ****          s7 = pSrc[2 * i3 + 1] - pSrc[2 * i7 + 1];
 101:../Dave/Generated/CMSIS_DSP/TransformFunctions/arm_cfft_radix8_f32.c ****          r4 = pSrc[2 * i4 + 1] + pSrc[2 * i8 + 1];
 102:../Dave/Generated/CMSIS_DSP/TransformFunctions/arm_cfft_radix8_f32.c ****          s8 = pSrc[2 * i4 + 1] - pSrc[2 * i8 + 1];
 103:../Dave/Generated/CMSIS_DSP/TransformFunctions/arm_cfft_radix8_f32.c ****          t2 = r1 - s3;
 104:../Dave/Generated/CMSIS_DSP/TransformFunctions/arm_cfft_radix8_f32.c ****          r1 = r1 + s3;
 105:../Dave/Generated/CMSIS_DSP/TransformFunctions/arm_cfft_radix8_f32.c ****          s3 = r2 - r4;
 106:../Dave/Generated/CMSIS_DSP/TransformFunctions/arm_cfft_radix8_f32.c ****          r2 = r2 + r4;
 107:../Dave/Generated/CMSIS_DSP/TransformFunctions/arm_cfft_radix8_f32.c ****          pSrc[2 * i1 + 1] = r1 + r2;
 108:../Dave/Generated/CMSIS_DSP/TransformFunctions/arm_cfft_radix8_f32.c ****          pSrc[2 * i5 + 1] = r1 - r2;
 109:../Dave/Generated/CMSIS_DSP/TransformFunctions/arm_cfft_radix8_f32.c ****          pSrc[2 * i3]     = t1 + s3;
 110:../Dave/Generated/CMSIS_DSP/TransformFunctions/arm_cfft_radix8_f32.c ****          pSrc[2 * i7]     = t1 - s3;
 111:../Dave/Generated/CMSIS_DSP/TransformFunctions/arm_cfft_radix8_f32.c ****          pSrc[2 * i3 + 1] = t2 - r3;
 112:../Dave/Generated/CMSIS_DSP/TransformFunctions/arm_cfft_radix8_f32.c ****          pSrc[2 * i7 + 1] = t2 + r3;
 113:../Dave/Generated/CMSIS_DSP/TransformFunctions/arm_cfft_radix8_f32.c ****          r1 = (r6 - r8) * C81;
 114:../Dave/Generated/CMSIS_DSP/TransformFunctions/arm_cfft_radix8_f32.c ****          r6 = (r6 + r8) * C81;
 115:../Dave/Generated/CMSIS_DSP/TransformFunctions/arm_cfft_radix8_f32.c ****          r2 = (s6 - s8) * C81;
 116:../Dave/Generated/CMSIS_DSP/TransformFunctions/arm_cfft_radix8_f32.c ****          s6 = (s6 + s8) * C81;
 117:../Dave/Generated/CMSIS_DSP/TransformFunctions/arm_cfft_radix8_f32.c ****          t1 = r5 - r1;
  69              	 .loc 1 117 0
  70 000c DFEDC9AA 	 flds s21,.L12
  50:../Dave/Generated/CMSIS_DSP/TransformFunctions/arm_cfft_radix8_f32.c ****    uint32_t ia1, ia2, ia3, ia4, ia5, ia6, ia7;
  71              	 .loc 1 50 0
  72 0010 1A92     	 str r2,[sp,#104]
  73 0012 031D     	 adds r3,r0,#4
  74              	.LVL1:
  75 0014 8246     	 mov r10,r0
  76 0016 8946     	 mov r9,r1
  77              	.LVL2:
  64:../Dave/Generated/CMSIS_DSP/TransformFunctions/arm_cfft_radix8_f32.c **** 
  78              	 .loc 1 64 0
  79 0018 8B46     	 mov fp,r1
  80 001a 1B93     	 str r3,[sp,#108]
  81 001c 0094     	 str r4,[sp]
  82 001e 9E46     	 mov lr,r3
  83              	.LVL3:
  84              	.L6:
  69:../Dave/Generated/CMSIS_DSP/TransformFunctions/arm_cfft_radix8_f32.c ****       i1 = 0;
  85              	 .loc 1 69 0
  86 0020 4FEADB03 	 lsr r3,fp,#3
  87 0024 5A00     	 lsls r2,r3,#1
  88 0026 D618     	 adds r6,r2,r3
  89 0028 F518     	 adds r5,r6,r3
  90 002a 0492     	 str r2,[sp,#16]
  91 002c 5A19     	 adds r2,r3,r5
  92 002e D018     	 adds r0,r2,r3
  93 0030 DF00     	 lsls r7,r3,#3
  94 0032 1918     	 adds r1,r3,r0
  95 0034 3C46     	 mov r4,r7
  96 0036 0297     	 str r7,[sp,#8]
  97 0038 5744     	 add r7,r10,r7
  98 003a 0C93     	 str r3,[sp,#48]
  99              	.LVL4:
 100 003c 0AEBC202 	 add r2,r10,r2,lsl#3
 101 0040 1B01     	 lsls r3,r3,#4
 102              	.LVL5:
 103 0042 0AEBC101 	 add r1,r10,r1,lsl#3
 104 0046 07EB040C 	 add ip,r7,r4
  70:../Dave/Generated/CMSIS_DSP/TransformFunctions/arm_cfft_radix8_f32.c **** 
 105              	 .loc 1 70 0
 106 004a 009C     	 ldr r4,[sp]
 107 004c 0393     	 str r3,[sp,#12]
 108 004e 0AEBC606 	 add r6,r10,r6,lsl#3
 109 0052 0AEBC505 	 add r5,r10,r5,lsl#3
 110 0056 0432     	 adds r2,r2,#4
 111 0058 0431     	 adds r1,r1,#4
 112 005a 0AEBC000 	 add r0,r10,r0,lsl#3
 113 005e 4FEACB03 	 lsl r3,fp,#3
 114 0062 4FF00008 	 mov r8,#0
 115              	.LVL6:
 116              	.L2:
  81:../Dave/Generated/CMSIS_DSP/TransformFunctions/arm_cfft_radix8_f32.c ****          r5 = pSrc[2 * i1] - pSrc[2 * i5];
 117              	 .loc 1 81 0 discriminator 1
 118 0066 5EED011A 	 flds s3,[lr,#-4]
  85:../Dave/Generated/CMSIS_DSP/TransformFunctions/arm_cfft_radix8_f32.c ****          r7 = pSrc[2 * i3] - pSrc[2 * i7];
 119              	 .loc 1 85 0 discriminator 1
 120 006a 90ED002A 	 flds s4,[r0]
  83:../Dave/Generated/CMSIS_DSP/TransformFunctions/arm_cfft_radix8_f32.c ****          r6 = pSrc[2 * i2] - pSrc[2 * i6];
 121              	 .loc 1 83 0 discriminator 1
 122 006e 97ED004A 	 flds s8,[r7]
 123 0072 52ED016A 	 flds s13,[r2,#-4]
  87:../Dave/Generated/CMSIS_DSP/TransformFunctions/arm_cfft_radix8_f32.c ****          r8 = pSrc[2 * i4] - pSrc[2 * i8];
 124              	 .loc 1 87 0 discriminator 1
 125 0076 96ED003A 	 flds s6,[r6]
 126 007a 51ED010A 	 flds s1,[r1,#-4]
  81:../Dave/Generated/CMSIS_DSP/TransformFunctions/arm_cfft_radix8_f32.c ****          r5 = pSrc[2 * i1] - pSrc[2 * i5];
 127              	 .loc 1 81 0 discriminator 1
 128 007e D5ED002A 	 flds s5,[r5]
  85:../Dave/Generated/CMSIS_DSP/TransformFunctions/arm_cfft_radix8_f32.c ****          r7 = pSrc[2 * i3] - pSrc[2 * i7];
 129              	 .loc 1 85 0 discriminator 1
 130 0082 9CED001A 	 flds s2,[ip]
  81:../Dave/Generated/CMSIS_DSP/TransformFunctions/arm_cfft_radix8_f32.c ****          r5 = pSrc[2 * i1] - pSrc[2 * i5];
 131              	 .loc 1 81 0 discriminator 1
 132 0086 31EEA20A 	 fadds s0,s3,s5
 133              	.LVL7:
  85:../Dave/Generated/CMSIS_DSP/TransformFunctions/arm_cfft_radix8_f32.c ****          r7 = pSrc[2 * i3] - pSrc[2 * i7];
 134              	 .loc 1 85 0 discriminator 1
 135 008a 71EE029A 	 fadds s19,s2,s4
  83:../Dave/Generated/CMSIS_DSP/TransformFunctions/arm_cfft_radix8_f32.c ****          r6 = pSrc[2 * i2] - pSrc[2 * i6];
 136              	 .loc 1 83 0 discriminator 1
 137 008e 34EE266A 	 fadds s12,s8,s13
  87:../Dave/Generated/CMSIS_DSP/TransformFunctions/arm_cfft_radix8_f32.c ****          r8 = pSrc[2 * i4] - pSrc[2 * i8];
 138              	 .loc 1 87 0 discriminator 1
 139 0092 33EE209A 	 fadds s18,s6,s1
  90:../Dave/Generated/CMSIS_DSP/TransformFunctions/arm_cfft_radix8_f32.c ****          r3 = r2 - r4;
 140              	 .loc 1 90 0 discriminator 1
 141 0096 30EE297A 	 fadds s14,s0,s19
  92:../Dave/Generated/CMSIS_DSP/TransformFunctions/arm_cfft_radix8_f32.c ****          pSrc[2 * i1] = r1 + r2;
 142              	 .loc 1 92 0 discriminator 1
 143 009a 76EE097A 	 fadds s15,s12,s18
  84:../Dave/Generated/CMSIS_DSP/TransformFunctions/arm_cfft_radix8_f32.c ****          r3 = pSrc[2 * i3] + pSrc[2 * i7];
 144              	 .loc 1 84 0 discriminator 1
 145 009e 74EE663A 	 fsubs s7,s8,s13
  93:../Dave/Generated/CMSIS_DSP/TransformFunctions/arm_cfft_radix8_f32.c ****          pSrc[2 * i5] = r1 - r2;
 146              	 .loc 1 93 0 discriminator 1
 147 00a2 77EE276A 	 fadds s13,s14,s15
  94:../Dave/Generated/CMSIS_DSP/TransformFunctions/arm_cfft_radix8_f32.c ****          r1 = pSrc[2 * i1 + 1] + pSrc[2 * i5 + 1];
 148              	 .loc 1 94 0 discriminator 1
 149 00a6 37EE677A 	 fsubs s14,s14,s15
  93:../Dave/Generated/CMSIS_DSP/TransformFunctions/arm_cfft_radix8_f32.c ****          pSrc[2 * i5] = r1 - r2;
 150              	 .loc 1 93 0 discriminator 1
 151 00aa 4EED016A 	 fsts s13,[lr,#-4]
  94:../Dave/Generated/CMSIS_DSP/TransformFunctions/arm_cfft_radix8_f32.c ****          r1 = pSrc[2 * i1 + 1] + pSrc[2 * i5 + 1];
 152              	 .loc 1 94 0 discriminator 1
 153 00ae 85ED007A 	 fsts s14,[r5]
  97:../Dave/Generated/CMSIS_DSP/TransformFunctions/arm_cfft_radix8_f32.c ****          s6 = pSrc[2 * i2 + 1] - pSrc[2 * i6 + 1];
 154              	 .loc 1 97 0 discriminator 1
 155 00b2 D7ED015A 	 flds s11,[r7,#4]
 156 00b6 D2ED006A 	 flds s13,[r2]
 101:../Dave/Generated/CMSIS_DSP/TransformFunctions/arm_cfft_radix8_f32.c ****          s8 = pSrc[2 * i4 + 1] - pSrc[2 * i8 + 1];
 157              	 .loc 1 101 0 discriminator 1
 158 00ba D6ED014A 	 flds s9,[r6,#4]
 159 00be 91ED00BA 	 flds s22,[r1]
  95:../Dave/Generated/CMSIS_DSP/TransformFunctions/arm_cfft_radix8_f32.c ****          s5 = pSrc[2 * i1 + 1] - pSrc[2 * i5 + 1];
 160              	 .loc 1 95 0 discriminator 1
 161 00c2 D5ED018A 	 flds s17,[r5,#4]
 162 00c6 9EED007A 	 flds s14,[lr]
  99:../Dave/Generated/CMSIS_DSP/TransformFunctions/arm_cfft_radix8_f32.c ****          s7 = pSrc[2 * i3 + 1] - pSrc[2 * i7 + 1];
 163              	 .loc 1 99 0 discriminator 1
 164 00ca D0ED017A 	 flds s15,[r0,#4]
 165 00ce 9CED015A 	 flds s10,[ip,#4]
  88:../Dave/Generated/CMSIS_DSP/TransformFunctions/arm_cfft_radix8_f32.c ****          t1 = r1 - r3;
 166              	 .loc 1 88 0 discriminator 1
 167 00d2 33EE604A 	 fsubs s8,s6,s1
  98:../Dave/Generated/CMSIS_DSP/TransformFunctions/arm_cfft_radix8_f32.c ****          s3 = pSrc[2 * i3 + 1] + pSrc[2 * i7 + 1];
 168              	 .loc 1 98 0 discriminator 1
 169 00d6 35EEE63A 	 fsubs s6,s11,s13
 102:../Dave/Generated/CMSIS_DSP/TransformFunctions/arm_cfft_radix8_f32.c ****          t2 = r1 - s3;
 170              	 .loc 1 102 0 discriminator 1
 171 00da 74EECB0A 	 fsubs s1,s9,s22
  86:../Dave/Generated/CMSIS_DSP/TransformFunctions/arm_cfft_radix8_f32.c ****          r4 = pSrc[2 * i4] + pSrc[2 * i8];
 172              	 .loc 1 86 0 discriminator 1
 173 00de 31EE421A 	 fsubs s2,s2,s4
 100:../Dave/Generated/CMSIS_DSP/TransformFunctions/arm_cfft_radix8_f32.c ****          r4 = pSrc[2 * i4 + 1] + pSrc[2 * i8 + 1];
 174              	 .loc 1 100 0 discriminator 1
 175 00e2 35EE678A 	 fsubs s16,s10,s15
  96:../Dave/Generated/CMSIS_DSP/TransformFunctions/arm_cfft_radix8_f32.c ****          r2 = pSrc[2 * i2 + 1] + pSrc[2 * i6 + 1];
 176              	 .loc 1 96 0 discriminator 1
 177 00e6 37EE682A 	 fsubs s4,s14,s17
  82:../Dave/Generated/CMSIS_DSP/TransformFunctions/arm_cfft_radix8_f32.c ****          r2 = pSrc[2 * i2] + pSrc[2 * i6];
 178              	 .loc 1 82 0 discriminator 1
 179 00ea 71EEE22A 	 fsubs s5,s3,s5
 180              	.LVL8:
 116:../Dave/Generated/CMSIS_DSP/TransformFunctions/arm_cfft_radix8_f32.c ****          t1 = r5 - r1;
 181              	 .loc 1 116 0 discriminator 1
 182 00ee 73EE201A 	 fadds s3,s6,s1
 115:../Dave/Generated/CMSIS_DSP/TransformFunctions/arm_cfft_radix8_f32.c ****          s6 = (s6 + s8) * C81;
 183              	 .loc 1 115 0 discriminator 1
 184 00f2 33EE603A 	 fsubs s6,s6,s1
 113:../Dave/Generated/CMSIS_DSP/TransformFunctions/arm_cfft_radix8_f32.c ****          r6 = (r6 + r8) * C81;
 185              	 .loc 1 113 0 discriminator 1
 186 00f6 33EEC4AA 	 fsubs s20,s7,s8
  97:../Dave/Generated/CMSIS_DSP/TransformFunctions/arm_cfft_radix8_f32.c ****          s6 = pSrc[2 * i2 + 1] - pSrc[2 * i6 + 1];
 187              	 .loc 1 97 0 discriminator 1
 188 00fa 75EEA60A 	 fadds s1,s11,s13
 114:../Dave/Generated/CMSIS_DSP/TransformFunctions/arm_cfft_radix8_f32.c ****          r2 = (s6 - s8) * C81;
 189              	 .loc 1 114 0 discriminator 1
 190 00fe 33EE844A 	 fadds s8,s7,s8
 191              	.LVL9:
  95:../Dave/Generated/CMSIS_DSP/TransformFunctions/arm_cfft_radix8_f32.c ****          s5 = pSrc[2 * i1 + 1] - pSrc[2 * i5 + 1];
 192              	 .loc 1 95 0 discriminator 1
 193 0102 37EE287A 	 fadds s14,s14,s17
 101:../Dave/Generated/CMSIS_DSP/TransformFunctions/arm_cfft_radix8_f32.c ****          s8 = pSrc[2 * i4 + 1] - pSrc[2 * i8 + 1];
 194              	 .loc 1 101 0 discriminator 1
 195 0106 74EE8B5A 	 fadds s11,s9,s22
 118:../Dave/Generated/CMSIS_DSP/TransformFunctions/arm_cfft_radix8_f32.c ****          r5 = r5 + r1;
 119:../Dave/Generated/CMSIS_DSP/TransformFunctions/arm_cfft_radix8_f32.c ****          r8 = r7 - r6;
 120:../Dave/Generated/CMSIS_DSP/TransformFunctions/arm_cfft_radix8_f32.c ****          r7 = r7 + r6;
 121:../Dave/Generated/CMSIS_DSP/TransformFunctions/arm_cfft_radix8_f32.c ****          t2 = s5 - r2;
 122:../Dave/Generated/CMSIS_DSP/TransformFunctions/arm_cfft_radix8_f32.c ****          s5 = s5 + r2;
 123:../Dave/Generated/CMSIS_DSP/TransformFunctions/arm_cfft_radix8_f32.c ****          s8 = s7 - s6;
 124:../Dave/Generated/CMSIS_DSP/TransformFunctions/arm_cfft_radix8_f32.c ****          s7 = s7 + s6;
 196              	 .loc 1 124 0 discriminator 1
 197 010a F0EE488A 	 fcpys s17,s16
 122:../Dave/Generated/CMSIS_DSP/TransformFunctions/arm_cfft_radix8_f32.c ****          s8 = s7 - s6;
 198              	 .loc 1 122 0 discriminator 1
 199 010e F0EE423A 	 fcpys s7,s4
 200              	.LVL10:
 121:../Dave/Generated/CMSIS_DSP/TransformFunctions/arm_cfft_radix8_f32.c ****          s5 = s5 + r2;
 201              	 .loc 1 121 0 discriminator 1
 202 0112 F0EE424A 	 fcpys s9,s4
 203              	 .loc 1 124 0 discriminator 1
 204 0116 E1EEAA8A 	 vfma.f32 s17,s3,s21
 125:../Dave/Generated/CMSIS_DSP/TransformFunctions/arm_cfft_radix8_f32.c ****          pSrc[2 * i2]     = r5 + s7;
 126:../Dave/Generated/CMSIS_DSP/TransformFunctions/arm_cfft_radix8_f32.c ****          pSrc[2 * i8]     = r5 - s7;
 127:../Dave/Generated/CMSIS_DSP/TransformFunctions/arm_cfft_radix8_f32.c ****          pSrc[2 * i6]     = t1 + s8;
 128:../Dave/Generated/CMSIS_DSP/TransformFunctions/arm_cfft_radix8_f32.c ****          pSrc[2 * i4]     = t1 - s8;
 129:../Dave/Generated/CMSIS_DSP/TransformFunctions/arm_cfft_radix8_f32.c ****          pSrc[2 * i2 + 1] = s5 - r7;
 130:../Dave/Generated/CMSIS_DSP/TransformFunctions/arm_cfft_radix8_f32.c ****          pSrc[2 * i8 + 1] = s5 + r7;
 131:../Dave/Generated/CMSIS_DSP/TransformFunctions/arm_cfft_radix8_f32.c ****          pSrc[2 * i6 + 1] = t2 - r8;
 132:../Dave/Generated/CMSIS_DSP/TransformFunctions/arm_cfft_radix8_f32.c ****          pSrc[2 * i4 + 1] = t2 + r8;
 133:../Dave/Generated/CMSIS_DSP/TransformFunctions/arm_cfft_radix8_f32.c **** 
 134:../Dave/Generated/CMSIS_DSP/TransformFunctions/arm_cfft_radix8_f32.c ****          i1 += n1;
 205              	 .loc 1 134 0 discriminator 1
 206 011a D844     	 add r8,r8,fp
 207              	.LVL11:
 135:../Dave/Generated/CMSIS_DSP/TransformFunctions/arm_cfft_radix8_f32.c ****       } while (i1 < fftLen);
 208              	 .loc 1 135 0 discriminator 1
 209 011c C145     	 cmp r9,r8
 123:../Dave/Generated/CMSIS_DSP/TransformFunctions/arm_cfft_radix8_f32.c ****          s7 = s7 + s6;
 210              	 .loc 1 123 0 discriminator 1
 211 011e A1EEEA8A 	 vfms.f32 s16,s3,s21
 122:../Dave/Generated/CMSIS_DSP/TransformFunctions/arm_cfft_radix8_f32.c ****          s8 = s7 - s6;
 212              	 .loc 1 122 0 discriminator 1
 213 0122 E3EE2A3A 	 vfma.f32 s7,s6,s21
 121:../Dave/Generated/CMSIS_DSP/TransformFunctions/arm_cfft_radix8_f32.c ****          s5 = s5 + r2;
 214              	 .loc 1 121 0 discriminator 1
 215 0126 E3EE6A4A 	 vfms.f32 s9,s6,s21
 118:../Dave/Generated/CMSIS_DSP/TransformFunctions/arm_cfft_radix8_f32.c ****          r8 = r7 - r6;
 216              	 .loc 1 118 0 discriminator 1
 217 012a F0EE621A 	 fcpys s3,s5
 120:../Dave/Generated/CMSIS_DSP/TransformFunctions/arm_cfft_radix8_f32.c ****          t2 = s5 - r2;
 218              	 .loc 1 120 0 discriminator 1
 219 012e B0EE412A 	 fcpys s4,s2
 119:../Dave/Generated/CMSIS_DSP/TransformFunctions/arm_cfft_radix8_f32.c ****          r7 = r7 + r6;
 220              	 .loc 1 119 0 discriminator 1
 221 0132 B0EE413A 	 fcpys s6,s2
  99:../Dave/Generated/CMSIS_DSP/TransformFunctions/arm_cfft_radix8_f32.c ****          s7 = pSrc[2 * i3 + 1] - pSrc[2 * i7 + 1];
 222              	 .loc 1 99 0 discriminator 1
 223 0136 35EE275A 	 fadds s10,s10,s15
 120:../Dave/Generated/CMSIS_DSP/TransformFunctions/arm_cfft_radix8_f32.c ****          t2 = s5 - r2;
 224              	 .loc 1 120 0 discriminator 1
 225 013a A4EE2A2A 	 vfma.f32 s4,s8,s21
 119:../Dave/Generated/CMSIS_DSP/TransformFunctions/arm_cfft_radix8_f32.c ****          r7 = r7 + r6;
 226              	 .loc 1 119 0 discriminator 1
 227 013e A4EE6A3A 	 vfms.f32 s6,s8,s21
 118:../Dave/Generated/CMSIS_DSP/TransformFunctions/arm_cfft_radix8_f32.c ****          r8 = r7 - r6;
 228              	 .loc 1 118 0 discriminator 1
 229 0142 EAEE2A1A 	 vfma.f32 s3,s20,s21
 117:../Dave/Generated/CMSIS_DSP/TransformFunctions/arm_cfft_radix8_f32.c ****          r5 = r5 + r1;
 230              	 .loc 1 117 0 discriminator 1
 231 0146 EAEE6A2A 	 vfms.f32 s5,s20,s21
 232              	.LVL12:
 106:../Dave/Generated/CMSIS_DSP/TransformFunctions/arm_cfft_radix8_f32.c ****          pSrc[2 * i1 + 1] = r1 + r2;
 233              	 .loc 1 106 0 discriminator 1
 234 014a 30EEA51A 	 fadds s2,s1,s11
 235              	.LVL13:
 104:../Dave/Generated/CMSIS_DSP/TransformFunctions/arm_cfft_radix8_f32.c ****          s3 = r2 - r4;
 236              	 .loc 1 104 0 discriminator 1
 237 014e 37EE054A 	 fadds s8,s14,s10
 103:../Dave/Generated/CMSIS_DSP/TransformFunctions/arm_cfft_radix8_f32.c ****          r1 = r1 + s3;
 238              	 .loc 1 103 0 discriminator 1
 239 0152 77EE457A 	 fsubs s15,s14,s10
  89:../Dave/Generated/CMSIS_DSP/TransformFunctions/arm_cfft_radix8_f32.c ****          r1 = r1 + r3;
 240              	 .loc 1 89 0 discriminator 1
 241 0156 70EE696A 	 fsubs s13,s0,s19
 242              	.LVL14:
  91:../Dave/Generated/CMSIS_DSP/TransformFunctions/arm_cfft_radix8_f32.c ****          r2 = r2 + r4;
 243              	 .loc 1 91 0 discriminator 1
 244 015a 36EE496A 	 fsubs s12,s12,s18
 245              	.LVL15:
 105:../Dave/Generated/CMSIS_DSP/TransformFunctions/arm_cfft_radix8_f32.c ****          r2 = r2 + r4;
 246              	 .loc 1 105 0 discriminator 1
 247 015e 70EEE55A 	 fsubs s11,s1,s11
 248              	.LVL16:
 107:../Dave/Generated/CMSIS_DSP/TransformFunctions/arm_cfft_radix8_f32.c ****          pSrc[2 * i5 + 1] = r1 - r2;
 249              	 .loc 1 107 0 discriminator 1
 250 0162 34EE010A 	 fadds s0,s8,s2
 109:../Dave/Generated/CMSIS_DSP/TransformFunctions/arm_cfft_radix8_f32.c ****          pSrc[2 * i7]     = t1 - s3;
 251              	 .loc 1 109 0 discriminator 1
 252 0166 76EEA50A 	 fadds s1,s13,s11
 108:../Dave/Generated/CMSIS_DSP/TransformFunctions/arm_cfft_radix8_f32.c ****          pSrc[2 * i3]     = t1 + s3;
 253              	 .loc 1 108 0 discriminator 1
 254 016a 34EE414A 	 fsubs s8,s8,s2
 110:../Dave/Generated/CMSIS_DSP/TransformFunctions/arm_cfft_radix8_f32.c ****          pSrc[2 * i3 + 1] = t2 - r3;
 255              	 .loc 1 110 0 discriminator 1
 256 016e 76EEE56A 	 fsubs s13,s13,s11
 111:../Dave/Generated/CMSIS_DSP/TransformFunctions/arm_cfft_radix8_f32.c ****          pSrc[2 * i7 + 1] = t2 + r3;
 257              	 .loc 1 111 0 discriminator 1
 258 0172 37EEC61A 	 fsubs s2,s15,s12
 125:../Dave/Generated/CMSIS_DSP/TransformFunctions/arm_cfft_radix8_f32.c ****          pSrc[2 * i8]     = r5 - s7;
 259              	 .loc 1 125 0 discriminator 1
 260 0176 31EEA85A 	 fadds s10,s3,s17
 112:../Dave/Generated/CMSIS_DSP/TransformFunctions/arm_cfft_radix8_f32.c ****          r1 = (r6 - r8) * C81;
 261              	 .loc 1 112 0 discriminator 1
 262 017a 77EE867A 	 fadds s15,s15,s12
 127:../Dave/Generated/CMSIS_DSP/TransformFunctions/arm_cfft_radix8_f32.c ****          pSrc[2 * i4]     = t1 - s8;
 263              	 .loc 1 127 0 discriminator 1
 264 017e 72EE885A 	 fadds s11,s5,s16
 265              	.LVL17:
 129:../Dave/Generated/CMSIS_DSP/TransformFunctions/arm_cfft_radix8_f32.c ****          pSrc[2 * i8 + 1] = s5 + r7;
 266              	 .loc 1 129 0 discriminator 1
 267 0182 33EEC26A 	 fsubs s12,s7,s4
 268              	.LVL18:
 131:../Dave/Generated/CMSIS_DSP/TransformFunctions/arm_cfft_radix8_f32.c ****          pSrc[2 * i4 + 1] = t2 + r8;
 269              	 .loc 1 131 0 discriminator 1
 270 0186 34EEC37A 	 fsubs s14,s9,s6
 126:../Dave/Generated/CMSIS_DSP/TransformFunctions/arm_cfft_radix8_f32.c ****          pSrc[2 * i6]     = t1 + s8;
 271              	 .loc 1 126 0 discriminator 1
 272 018a 71EEE81A 	 fsubs s3,s3,s17
 273              	.LVL19:
 128:../Dave/Generated/CMSIS_DSP/TransformFunctions/arm_cfft_radix8_f32.c ****          pSrc[2 * i2 + 1] = s5 - r7;
 274              	 .loc 1 128 0 discriminator 1
 275 018e 72EEC82A 	 fsubs s5,s5,s16
 276              	.LVL20:
 130:../Dave/Generated/CMSIS_DSP/TransformFunctions/arm_cfft_radix8_f32.c ****          pSrc[2 * i6 + 1] = t2 - r8;
 277              	 .loc 1 130 0 discriminator 1
 278 0192 73EE823A 	 fadds s7,s7,s4
 279              	.LVL21:
 132:../Dave/Generated/CMSIS_DSP/TransformFunctions/arm_cfft_radix8_f32.c **** 
 280              	 .loc 1 132 0 discriminator 1
 281 0196 74EE834A 	 fadds s9,s9,s6
 282              	.LVL22:
 107:../Dave/Generated/CMSIS_DSP/TransformFunctions/arm_cfft_radix8_f32.c ****          pSrc[2 * i5 + 1] = r1 - r2;
 283              	 .loc 1 107 0 discriminator 1
 284 019a 8EED000A 	 fsts s0,[lr]
 285              	.LVL23:
 108:../Dave/Generated/CMSIS_DSP/TransformFunctions/arm_cfft_radix8_f32.c ****          pSrc[2 * i3]     = t1 + s3;
 286              	 .loc 1 108 0 discriminator 1
 287 019e 85ED014A 	 fsts s8,[r5,#4]
 288 01a2 9E44     	 add lr,lr,r3
 109:../Dave/Generated/CMSIS_DSP/TransformFunctions/arm_cfft_radix8_f32.c ****          pSrc[2 * i7]     = t1 - s3;
 289              	 .loc 1 109 0 discriminator 1
 290 01a4 CCED000A 	 fsts s1,[ip]
 291 01a8 1D44     	 add r5,r5,r3
 110:../Dave/Generated/CMSIS_DSP/TransformFunctions/arm_cfft_radix8_f32.c ****          pSrc[2 * i3 + 1] = t2 - r3;
 292              	 .loc 1 110 0 discriminator 1
 293 01aa C0ED006A 	 fsts s13,[r0]
 111:../Dave/Generated/CMSIS_DSP/TransformFunctions/arm_cfft_radix8_f32.c ****          pSrc[2 * i7 + 1] = t2 + r3;
 294              	 .loc 1 111 0 discriminator 1
 295 01ae 8CED011A 	 fsts s2,[ip,#4]
 112:../Dave/Generated/CMSIS_DSP/TransformFunctions/arm_cfft_radix8_f32.c ****          r1 = (r6 - r8) * C81;
 296              	 .loc 1 112 0 discriminator 1
 297 01b2 C0ED017A 	 fsts s15,[r0,#4]
 298 01b6 9C44     	 add ip,ip,r3
 125:../Dave/Generated/CMSIS_DSP/TransformFunctions/arm_cfft_radix8_f32.c ****          pSrc[2 * i8]     = r5 - s7;
 299              	 .loc 1 125 0 discriminator 1
 300 01b8 87ED005A 	 fsts s10,[r7]
 301 01bc 1844     	 add r0,r0,r3
 126:../Dave/Generated/CMSIS_DSP/TransformFunctions/arm_cfft_radix8_f32.c ****          pSrc[2 * i6]     = t1 + s8;
 302              	 .loc 1 126 0 discriminator 1
 303 01be 41ED011A 	 fsts s3,[r1,#-4]
 127:../Dave/Generated/CMSIS_DSP/TransformFunctions/arm_cfft_radix8_f32.c ****          pSrc[2 * i4]     = t1 - s8;
 304              	 .loc 1 127 0 discriminator 1
 305 01c2 42ED015A 	 fsts s11,[r2,#-4]
 128:../Dave/Generated/CMSIS_DSP/TransformFunctions/arm_cfft_radix8_f32.c ****          pSrc[2 * i2 + 1] = s5 - r7;
 306              	 .loc 1 128 0 discriminator 1
 307 01c6 C6ED002A 	 fsts s5,[r6]
 129:../Dave/Generated/CMSIS_DSP/TransformFunctions/arm_cfft_radix8_f32.c ****          pSrc[2 * i8 + 1] = s5 + r7;
 308              	 .loc 1 129 0 discriminator 1
 309 01ca 87ED016A 	 fsts s12,[r7,#4]
 130:../Dave/Generated/CMSIS_DSP/TransformFunctions/arm_cfft_radix8_f32.c ****          pSrc[2 * i6 + 1] = t2 - r8;
 310              	 .loc 1 130 0 discriminator 1
 311 01ce C1ED003A 	 fsts s7,[r1]
 312 01d2 1F44     	 add r7,r7,r3
 131:../Dave/Generated/CMSIS_DSP/TransformFunctions/arm_cfft_radix8_f32.c ****          pSrc[2 * i4 + 1] = t2 + r8;
 313              	 .loc 1 131 0 discriminator 1
 314 01d4 82ED007A 	 fsts s14,[r2]
 315 01d8 1944     	 add r1,r1,r3
 132:../Dave/Generated/CMSIS_DSP/TransformFunctions/arm_cfft_radix8_f32.c **** 
 316              	 .loc 1 132 0 discriminator 1
 317 01da C6ED014A 	 fsts s9,[r6,#4]
 318 01de 1A44     	 add r2,r2,r3
 319 01e0 1E44     	 add r6,r6,r3
 320              	 .loc 1 135 0 discriminator 1
 321 01e2 3FF640AF 	 bhi .L2
 136:../Dave/Generated/CMSIS_DSP/TransformFunctions/arm_cfft_radix8_f32.c **** 
 137:../Dave/Generated/CMSIS_DSP/TransformFunctions/arm_cfft_radix8_f32.c ****       if (n2 < 8)
 322              	 .loc 1 137 0
 323 01e6 0C9A     	 ldr r2,[sp,#48]
 324 01e8 0193     	 str r3,[sp,#4]
 325 01ea 072A     	 cmp r2,#7
 326 01ec 2346     	 mov r3,r4
 327 01ee 40F2CA81 	 bls .L1
 328 01f2 04EB440E 	 add lr,r4,r4,lsl#1
 329 01f6 0EEB0307 	 add r7,lr,r3
 330 01fa FD18     	 adds r5,r7,r3
 331 01fc E818     	 adds r0,r5,r3
 332 01fe 049C     	 ldr r4,[sp,#16]
 333 0200 0093     	 str r3,[sp]
 334              	.LVL24:
 335 0202 00EB030C 	 add ip,r0,r3
 336 0206 C000     	 lsls r0,r0,#3
 337 0208 1090     	 str r0,[sp,#64]
 338 020a 0098     	 ldr r0,[sp]
 339 020c A118     	 adds r1,r4,r2
 340 020e 661C     	 adds r6,r4,#1
 341 0210 4FEACE04 	 lsl r4,lr,#3
 342 0214 0F94     	 str r4,[sp,#60]
 343 0216 C400     	 lsls r4,r0,#3
 344 0218 0D94     	 str r4,[sp,#52]
 345 021a 029C     	 ldr r4,[sp,#8]
 346 021c 0834     	 adds r4,r4,#8
 347 021e 1794     	 str r4,[sp,#92]
 348 0220 039C     	 ldr r4,[sp,#12]
 349 0222 0834     	 adds r4,r4,#8
 350 0224 ED00     	 lsls r5,r5,#3
 351 0226 1694     	 str r4,[sp,#88]
 352 0228 1A9C     	 ldr r4,[sp,#104]
 353 022a 1395     	 str r5,[sp,#76]
 354 022c 2B46     	 mov r3,r5
 355 022e 4FEACC05 	 lsl r5,ip,#3
 356 0232 1295     	 str r5,[sp,#72]
 357 0234 6519     	 adds r5,r4,r5
 358 0236 0795     	 str r5,[sp,#28]
 359 0238 109D     	 ldr r5,[sp,#64]
 360 023a 06EB8206 	 add r6,r6,r2,lsl#2
 361 023e 1644     	 add r6,r6,r2
 362 0240 6519     	 adds r5,r4,r5
 363 0242 02EB8202 	 add r2,r2,r2,lsl#2
 364 0246 0001     	 lsls r0,r0,#4
 365 0248 D200     	 lsls r2,r2,#3
 366 024a 0895     	 str r5,[sp,#32]
 367 024c E518     	 adds r5,r4,r3
 368 024e 0D9B     	 ldr r3,[sp,#52]
 369 0250 0E90     	 str r0,[sp,#56]
 370 0252 0C32     	 adds r2,r2,#12
 371 0254 0AEBC606 	 add r6,r10,r6,lsl#3
 372 0258 0C98     	 ldr r0,[sp,#48]
 373 025a 1492     	 str r2,[sp,#80]
 374 025c E218     	 adds r2,r4,r3
 375 025e 0E9B     	 ldr r3,[sp,#56]
 376 0260 0995     	 str r5,[sp,#36]
 377 0262 FF00     	 lsls r7,r7,#3
 378 0264 351D     	 adds r5,r6,#4
 379 0266 0F9E     	 ldr r6,[sp,#60]
 380 0268 0A95     	 str r5,[sp,#40]
 381 026a E318     	 adds r3,r4,r3
 382 026c E519     	 adds r5,r4,r7
 383 026e 4001     	 lsls r0,r0,#5
 384 0270 4FEAC10E 	 lsl lr,r1,#3
 385 0274 0695     	 str r5,[sp,#24]
 386 0276 0901     	 lsls r1,r1,#4
 387 0278 A519     	 adds r5,r4,r6
 388 027a 0593     	 str r3,[sp,#20]
 389 027c 00F10803 	 add r3,r0,#8
 390 0280 0495     	 str r5,[sp,#16]
 391 0282 0C31     	 adds r1,r1,#12
 392 0284 0EF10805 	 add r5,lr,#8
 393 0288 1893     	 str r3,[sp,#96]
 394 028a 019B     	 ldr r3,[sp,#4]
 395 028c 0392     	 str r2,[sp,#12]
 396 028e 1197     	 str r7,[sp,#68]
 397 0290 1995     	 str r5,[sp,#100]
 398 0292 1591     	 str r1,[sp,#84]
 399 0294 0022     	 movs r2,#0
 400 0296 4FF00108 	 mov r8,#1
 401              	.LVL25:
 402              	.L5:
 403 029a 02F10801 	 add r1,r2,#8
 404 029e 0F46     	 mov r7,r1
 405 02a0 0B91     	 str r1,[sp,#44]
 406 02a2 1899     	 ldr r1,[sp,#96]
 407 02a4 8E18     	 adds r6,r1,r2
 408 02a6 1799     	 ldr r1,[sp,#92]
 409 02a8 8D18     	 adds r5,r1,r2
 410 02aa 1699     	 ldr r1,[sp,#88]
 411 02ac 8C18     	 adds r4,r1,r2
 412 02ae 1999     	 ldr r1,[sp,#100]
 413 02b0 8818     	 adds r0,r1,r2
 414 02b2 1499     	 ldr r1,[sp,#80]
 415 02b4 01EB020C 	 add ip,r1,r2
 416 02b8 1599     	 ldr r1,[sp,#84]
 417 02ba 0A44     	 add r2,r2,r1
 138:../Dave/Generated/CMSIS_DSP/TransformFunctions/arm_cfft_radix8_f32.c ****          break;
 139:../Dave/Generated/CMSIS_DSP/TransformFunctions/arm_cfft_radix8_f32.c **** 
 140:../Dave/Generated/CMSIS_DSP/TransformFunctions/arm_cfft_radix8_f32.c ****       ia1 = 0;
 141:../Dave/Generated/CMSIS_DSP/TransformFunctions/arm_cfft_radix8_f32.c ****       j = 1;
 142:../Dave/Generated/CMSIS_DSP/TransformFunctions/arm_cfft_radix8_f32.c **** 
 143:../Dave/Generated/CMSIS_DSP/TransformFunctions/arm_cfft_radix8_f32.c ****       do
 144:../Dave/Generated/CMSIS_DSP/TransformFunctions/arm_cfft_radix8_f32.c ****       {
 145:../Dave/Generated/CMSIS_DSP/TransformFunctions/arm_cfft_radix8_f32.c ****          /*  index calculation for the coefficients */
 146:../Dave/Generated/CMSIS_DSP/TransformFunctions/arm_cfft_radix8_f32.c ****          id  = ia1 + twidCoefModifier;
 147:../Dave/Generated/CMSIS_DSP/TransformFunctions/arm_cfft_radix8_f32.c ****          ia1 = id;
 148:../Dave/Generated/CMSIS_DSP/TransformFunctions/arm_cfft_radix8_f32.c ****          ia2 = ia1 + id;
 149:../Dave/Generated/CMSIS_DSP/TransformFunctions/arm_cfft_radix8_f32.c ****          ia3 = ia2 + id;
 150:../Dave/Generated/CMSIS_DSP/TransformFunctions/arm_cfft_radix8_f32.c ****          ia4 = ia3 + id;
 151:../Dave/Generated/CMSIS_DSP/TransformFunctions/arm_cfft_radix8_f32.c ****          ia5 = ia4 + id;
 152:../Dave/Generated/CMSIS_DSP/TransformFunctions/arm_cfft_radix8_f32.c ****          ia6 = ia5 + id;
 153:../Dave/Generated/CMSIS_DSP/TransformFunctions/arm_cfft_radix8_f32.c ****          ia7 = ia6 + id;
 154:../Dave/Generated/CMSIS_DSP/TransformFunctions/arm_cfft_radix8_f32.c **** 
 155:../Dave/Generated/CMSIS_DSP/TransformFunctions/arm_cfft_radix8_f32.c ****          co2 = pCoef[2 * ia1];
 418              	 .loc 1 155 0
 419 02bc 0399     	 ldr r1,[sp,#12]
 420 02be 91ED00FA 	 flds s30,[r1]
 421              	.LVL26:
 156:../Dave/Generated/CMSIS_DSP/TransformFunctions/arm_cfft_radix8_f32.c ****          co3 = pCoef[2 * ia2];
 422              	 .loc 1 156 0
 423 02c2 0599     	 ldr r1,[sp,#20]
 424 02c4 D1ED00EA 	 flds s29,[r1]
 425              	.LVL27:
 157:../Dave/Generated/CMSIS_DSP/TransformFunctions/arm_cfft_radix8_f32.c ****          co4 = pCoef[2 * ia3];
 426              	 .loc 1 157 0
 427 02c8 0499     	 ldr r1,[sp,#16]
 428 02ca 91ED00EA 	 flds s28,[r1]
 429              	.LVL28:
 158:../Dave/Generated/CMSIS_DSP/TransformFunctions/arm_cfft_radix8_f32.c ****          co5 = pCoef[2 * ia4];
 430              	 .loc 1 158 0
 431 02ce 0699     	 ldr r1,[sp,#24]
 432 02d0 D1ED00DA 	 flds s27,[r1]
 433              	.LVL29:
 159:../Dave/Generated/CMSIS_DSP/TransformFunctions/arm_cfft_radix8_f32.c ****          co6 = pCoef[2 * ia5];
 434              	 .loc 1 159 0
 435 02d4 0999     	 ldr r1,[sp,#36]
 436 02d6 91ED00DA 	 flds s26,[r1]
 437              	.LVL30:
 160:../Dave/Generated/CMSIS_DSP/TransformFunctions/arm_cfft_radix8_f32.c ****          co7 = pCoef[2 * ia6];
 438              	 .loc 1 160 0
 439 02da 0899     	 ldr r1,[sp,#32]
 440 02dc D1ED00CA 	 flds s25,[r1]
 441              	.LVL31:
 161:../Dave/Generated/CMSIS_DSP/TransformFunctions/arm_cfft_radix8_f32.c ****          co8 = pCoef[2 * ia7];
 442              	 .loc 1 161 0
 443 02e0 0799     	 ldr r1,[sp,#28]
 444 02e2 91ED00CA 	 flds s24,[r1]
 445              	.LVL32:
 162:../Dave/Generated/CMSIS_DSP/TransformFunctions/arm_cfft_radix8_f32.c ****          si2 = pCoef[2 * ia1 + 1];
 446              	 .loc 1 162 0
 447 02e6 0399     	 ldr r1,[sp,#12]
 448 02e8 D1ED01BA 	 flds s23,[r1,#4]
 449              	.LVL33:
 163:../Dave/Generated/CMSIS_DSP/TransformFunctions/arm_cfft_radix8_f32.c ****          si3 = pCoef[2 * ia2 + 1];
 450              	 .loc 1 163 0
 451 02ec 0599     	 ldr r1,[sp,#20]
 452 02ee 91ED01BA 	 flds s22,[r1,#4]
 453              	.LVL34:
 164:../Dave/Generated/CMSIS_DSP/TransformFunctions/arm_cfft_radix8_f32.c ****          si4 = pCoef[2 * ia3 + 1];
 454              	 .loc 1 164 0
 455 02f2 0499     	 ldr r1,[sp,#16]
 456 02f4 91ED01AA 	 flds s20,[r1,#4]
 457              	.LVL35:
 165:../Dave/Generated/CMSIS_DSP/TransformFunctions/arm_cfft_radix8_f32.c ****          si5 = pCoef[2 * ia4 + 1];
 458              	 .loc 1 165 0
 459 02f8 0699     	 ldr r1,[sp,#24]
 460 02fa D1ED019A 	 flds s19,[r1,#4]
 461              	.LVL36:
 166:../Dave/Generated/CMSIS_DSP/TransformFunctions/arm_cfft_radix8_f32.c ****          si6 = pCoef[2 * ia5 + 1];
 462              	 .loc 1 166 0
 463 02fe 0999     	 ldr r1,[sp,#36]
 464 0300 D1ED017A 	 flds s15,[r1,#4]
 167:../Dave/Generated/CMSIS_DSP/TransformFunctions/arm_cfft_radix8_f32.c ****          si7 = pCoef[2 * ia6 + 1];
 465              	 .loc 1 167 0
 466 0304 0899     	 ldr r1,[sp,#32]
 166:../Dave/Generated/CMSIS_DSP/TransformFunctions/arm_cfft_radix8_f32.c ****          si6 = pCoef[2 * ia5 + 1];
 467              	 .loc 1 166 0
 468 0306 CDED007A 	 fsts s15,[sp]
 469              	.LVL37:
 470              	 .loc 1 167 0
 471 030a D1ED017A 	 flds s15,[r1,#4]
 472              	.LVL38:
 168:../Dave/Generated/CMSIS_DSP/TransformFunctions/arm_cfft_radix8_f32.c ****          si8 = pCoef[2 * ia7 + 1];
 473              	 .loc 1 168 0
 474 030e 0799     	 ldr r1,[sp,#28]
 167:../Dave/Generated/CMSIS_DSP/TransformFunctions/arm_cfft_radix8_f32.c ****          si7 = pCoef[2 * ia6 + 1];
 475              	 .loc 1 167 0
 476 0310 CDED017A 	 fsts s15,[sp,#4]
 477              	.LVL39:
 478              	 .loc 1 168 0
 479 0314 D1ED017A 	 flds s15,[r1,#4]
 480              	.LVL40:
 481 0318 0AEB070E 	 add lr,r10,r7
 482 031c 0A9F     	 ldr r7,[sp,#40]
 483 031e CDED027A 	 fsts s15,[sp,#8]
 484              	.LVL41:
 485 0322 0CEB0A01 	 add r1,ip,r10
 486 0326 5644     	 add r6,r6,r10
 487 0328 5544     	 add r5,r5,r10
 488 032a 5444     	 add r4,r4,r10
 489 032c 5044     	 add r0,r0,r10
 490 032e 5244     	 add r2,r2,r10
 169:../Dave/Generated/CMSIS_DSP/TransformFunctions/arm_cfft_radix8_f32.c **** 
 170:../Dave/Generated/CMSIS_DSP/TransformFunctions/arm_cfft_radix8_f32.c ****          i1 = j;
 491              	 .loc 1 170 0
 492 0330 C446     	 mov ip,r8
 493 0332 01E0     	 b .L13
 494              	.L14:
 495              	 .align 2
 496              	.L12:
 497 0334 F304353F 	 .word 1060439283
 498              	.L13:
 499              	.LVL42:
 500              	.L4:
 171:../Dave/Generated/CMSIS_DSP/TransformFunctions/arm_cfft_radix8_f32.c **** 
 172:../Dave/Generated/CMSIS_DSP/TransformFunctions/arm_cfft_radix8_f32.c ****          do
 173:../Dave/Generated/CMSIS_DSP/TransformFunctions/arm_cfft_radix8_f32.c ****          {
 174:../Dave/Generated/CMSIS_DSP/TransformFunctions/arm_cfft_radix8_f32.c ****             /*  index calculation for the input */
 175:../Dave/Generated/CMSIS_DSP/TransformFunctions/arm_cfft_radix8_f32.c ****             i2 = i1 + n2;
 176:../Dave/Generated/CMSIS_DSP/TransformFunctions/arm_cfft_radix8_f32.c ****             i3 = i2 + n2;
 177:../Dave/Generated/CMSIS_DSP/TransformFunctions/arm_cfft_radix8_f32.c ****             i4 = i3 + n2;
 178:../Dave/Generated/CMSIS_DSP/TransformFunctions/arm_cfft_radix8_f32.c ****             i5 = i4 + n2;
 179:../Dave/Generated/CMSIS_DSP/TransformFunctions/arm_cfft_radix8_f32.c ****             i6 = i5 + n2;
 180:../Dave/Generated/CMSIS_DSP/TransformFunctions/arm_cfft_radix8_f32.c ****             i7 = i6 + n2;
 181:../Dave/Generated/CMSIS_DSP/TransformFunctions/arm_cfft_radix8_f32.c ****             i8 = i7 + n2;
 182:../Dave/Generated/CMSIS_DSP/TransformFunctions/arm_cfft_radix8_f32.c ****             r1 = pSrc[2 * i1] + pSrc[2 * i5];
 501              	 .loc 1 182 0 discriminator 1
 502 0338 DEED00FA 	 flds s31,[lr]
 183:../Dave/Generated/CMSIS_DSP/TransformFunctions/arm_cfft_radix8_f32.c ****             r5 = pSrc[2 * i1] - pSrc[2 * i5];
 184:../Dave/Generated/CMSIS_DSP/TransformFunctions/arm_cfft_radix8_f32.c ****             r2 = pSrc[2 * i2] + pSrc[2 * i6];
 185:../Dave/Generated/CMSIS_DSP/TransformFunctions/arm_cfft_radix8_f32.c ****             r6 = pSrc[2 * i2] - pSrc[2 * i6];
 186:../Dave/Generated/CMSIS_DSP/TransformFunctions/arm_cfft_radix8_f32.c ****             r3 = pSrc[2 * i3] + pSrc[2 * i7];
 503              	 .loc 1 186 0 discriminator 1
 504 033c 52ED012A 	 flds s5,[r2,#-4]
 184:../Dave/Generated/CMSIS_DSP/TransformFunctions/arm_cfft_radix8_f32.c ****             r6 = pSrc[2 * i2] - pSrc[2 * i6];
 505              	 .loc 1 184 0 discriminator 1
 506 0340 11ED016A 	 flds s12,[r1,#-4]
 187:../Dave/Generated/CMSIS_DSP/TransformFunctions/arm_cfft_radix8_f32.c ****             r7 = pSrc[2 * i3] - pSrc[2 * i7];
 188:../Dave/Generated/CMSIS_DSP/TransformFunctions/arm_cfft_radix8_f32.c ****             r4 = pSrc[2 * i4] + pSrc[2 * i8];
 507              	 .loc 1 188 0 discriminator 1
 508 0344 D0ED005A 	 flds s11,[r0]
 509 0348 57ED016A 	 flds s13,[r7,#-4]
 182:../Dave/Generated/CMSIS_DSP/TransformFunctions/arm_cfft_radix8_f32.c ****             r5 = pSrc[2 * i1] - pSrc[2 * i5];
 510              	 .loc 1 182 0 discriminator 1
 511 034c 96ED007A 	 flds s14,[r6]
 186:../Dave/Generated/CMSIS_DSP/TransformFunctions/arm_cfft_radix8_f32.c ****             r7 = pSrc[2 * i3] - pSrc[2 * i7];
 512              	 .loc 1 186 0 discriminator 1
 513 0350 D4ED007A 	 flds s15,[r4]
 184:../Dave/Generated/CMSIS_DSP/TransformFunctions/arm_cfft_radix8_f32.c ****             r6 = pSrc[2 * i2] - pSrc[2 * i6];
 514              	 .loc 1 184 0 discriminator 1
 515 0354 95ED002A 	 flds s4,[r5]
 189:../Dave/Generated/CMSIS_DSP/TransformFunctions/arm_cfft_radix8_f32.c ****             r8 = pSrc[2 * i4] - pSrc[2 * i8];
 190:../Dave/Generated/CMSIS_DSP/TransformFunctions/arm_cfft_radix8_f32.c ****             t1 = r1 - r3;
 191:../Dave/Generated/CMSIS_DSP/TransformFunctions/arm_cfft_radix8_f32.c ****             r1 = r1 + r3;
 192:../Dave/Generated/CMSIS_DSP/TransformFunctions/arm_cfft_radix8_f32.c ****             r3 = r2 - r4;
 193:../Dave/Generated/CMSIS_DSP/TransformFunctions/arm_cfft_radix8_f32.c ****             r2 = r2 + r4;
 194:../Dave/Generated/CMSIS_DSP/TransformFunctions/arm_cfft_radix8_f32.c ****             pSrc[2 * i1] = r1 + r2;
 195:../Dave/Generated/CMSIS_DSP/TransformFunctions/arm_cfft_radix8_f32.c ****             r2 = r1 - r2;
 196:../Dave/Generated/CMSIS_DSP/TransformFunctions/arm_cfft_radix8_f32.c ****             s1 = pSrc[2 * i1 + 1] + pSrc[2 * i5 + 1];
 516              	 .loc 1 196 0 discriminator 1
 517 0358 9EED018A 	 flds s16,[lr,#4]
 182:../Dave/Generated/CMSIS_DSP/TransformFunctions/arm_cfft_radix8_f32.c ****             r5 = pSrc[2 * i1] - pSrc[2 * i5];
 518              	 .loc 1 182 0 discriminator 1
 519 035c 7FEE870A 	 fadds s1,s31,s14
 520              	.LVL43:
 184:../Dave/Generated/CMSIS_DSP/TransformFunctions/arm_cfft_radix8_f32.c ****             r6 = pSrc[2 * i2] - pSrc[2 * i6];
 521              	 .loc 1 184 0 discriminator 1
 522 0360 32EE061A 	 fadds s2,s4,s12
 186:../Dave/Generated/CMSIS_DSP/TransformFunctions/arm_cfft_radix8_f32.c ****             r7 = pSrc[2 * i3] - pSrc[2 * i7];
 523              	 .loc 1 186 0 discriminator 1
 524 0364 37EEA24A 	 fadds s8,s15,s5
 188:../Dave/Generated/CMSIS_DSP/TransformFunctions/arm_cfft_radix8_f32.c ****             r8 = pSrc[2 * i4] - pSrc[2 * i8];
 525              	 .loc 1 188 0 discriminator 1
 526 0368 75EEA64A 	 fadds s9,s11,s13
 191:../Dave/Generated/CMSIS_DSP/TransformFunctions/arm_cfft_radix8_f32.c ****             r3 = r2 - r4;
 527              	 .loc 1 191 0 discriminator 1
 528 036c 70EE841A 	 fadds s3,s1,s8
 193:../Dave/Generated/CMSIS_DSP/TransformFunctions/arm_cfft_radix8_f32.c ****             pSrc[2 * i1] = r1 + r2;
 529              	 .loc 1 193 0 discriminator 1
 530 0370 31EE245A 	 fadds s10,s2,s9
 185:../Dave/Generated/CMSIS_DSP/TransformFunctions/arm_cfft_radix8_f32.c ****             r3 = pSrc[2 * i3] + pSrc[2 * i7];
 531              	 .loc 1 185 0 discriminator 1
 532 0374 32EE462A 	 fsubs s4,s4,s12
 194:../Dave/Generated/CMSIS_DSP/TransformFunctions/arm_cfft_radix8_f32.c ****             r2 = r1 - r2;
 533              	 .loc 1 194 0 discriminator 1
 534 0378 31EE856A 	 fadds s12,s3,s10
 189:../Dave/Generated/CMSIS_DSP/TransformFunctions/arm_cfft_radix8_f32.c ****             t1 = r1 - r3;
 535              	 .loc 1 189 0 discriminator 1
 536 037c 75EEE65A 	 fsubs s11,s11,s13
 194:../Dave/Generated/CMSIS_DSP/TransformFunctions/arm_cfft_radix8_f32.c ****             r2 = r1 - r2;
 537              	 .loc 1 194 0 discriminator 1
 538 0380 8EED006A 	 fsts s12,[lr]
 197:../Dave/Generated/CMSIS_DSP/TransformFunctions/arm_cfft_radix8_f32.c ****             s5 = pSrc[2 * i1 + 1] - pSrc[2 * i5 + 1];
 198:../Dave/Generated/CMSIS_DSP/TransformFunctions/arm_cfft_radix8_f32.c ****             s2 = pSrc[2 * i2 + 1] + pSrc[2 * i6 + 1];
 199:../Dave/Generated/CMSIS_DSP/TransformFunctions/arm_cfft_radix8_f32.c ****             s6 = pSrc[2 * i2 + 1] - pSrc[2 * i6 + 1];
 200:../Dave/Generated/CMSIS_DSP/TransformFunctions/arm_cfft_radix8_f32.c ****             s3 = pSrc[2 * i3 + 1] + pSrc[2 * i7 + 1];
 201:../Dave/Generated/CMSIS_DSP/TransformFunctions/arm_cfft_radix8_f32.c ****             s7 = pSrc[2 * i3 + 1] - pSrc[2 * i7 + 1];
 202:../Dave/Generated/CMSIS_DSP/TransformFunctions/arm_cfft_radix8_f32.c ****             s4 = pSrc[2 * i4 + 1] + pSrc[2 * i8 + 1];
 539              	 .loc 1 202 0 discriminator 1
 540 0384 D0ED018A 	 flds s17,[r0,#4]
 198:../Dave/Generated/CMSIS_DSP/TransformFunctions/arm_cfft_radix8_f32.c ****             s6 = pSrc[2 * i2 + 1] - pSrc[2 * i6 + 1];
 541              	 .loc 1 198 0 discriminator 1
 542 0388 95ED019A 	 flds s18,[r5,#4]
 543 038c 91ED003A 	 flds s6,[r1]
 544              	 .loc 1 202 0 discriminator 1
 545 0390 97ED006A 	 flds s12,[r7]
 200:../Dave/Generated/CMSIS_DSP/TransformFunctions/arm_cfft_radix8_f32.c ****             s7 = pSrc[2 * i3 + 1] - pSrc[2 * i7 + 1];
 546              	 .loc 1 200 0 discriminator 1
 547 0394 94ED010A 	 flds s0,[r4,#4]
 548 0398 D2ED006A 	 flds s13,[r2]
 196:../Dave/Generated/CMSIS_DSP/TransformFunctions/arm_cfft_radix8_f32.c ****             s5 = pSrc[2 * i1 + 1] - pSrc[2 * i5 + 1];
 549              	 .loc 1 196 0 discriminator 1
 550 039c D6ED013A 	 flds s7,[r6,#4]
 183:../Dave/Generated/CMSIS_DSP/TransformFunctions/arm_cfft_radix8_f32.c ****             r2 = pSrc[2 * i2] + pSrc[2 * i6];
 551              	 .loc 1 183 0 discriminator 1
 552 03a0 3FEEC77A 	 fsubs s14,s31,s14
 553              	.LVL44:
 187:../Dave/Generated/CMSIS_DSP/TransformFunctions/arm_cfft_radix8_f32.c ****             r4 = pSrc[2 * i4] + pSrc[2 * i8];
 554              	 .loc 1 187 0 discriminator 1
 555 03a4 77EEE27A 	 fsubs s15,s15,s5
 556              	.LVL45:
 203:../Dave/Generated/CMSIS_DSP/TransformFunctions/arm_cfft_radix8_f32.c ****             s8 = pSrc[2 * i4 + 1] - pSrc[2 * i8 + 1];
 557              	 .loc 1 203 0 discriminator 1
 558 03a8 78EEC6FA 	 fsubs s31,s17,s12
 199:../Dave/Generated/CMSIS_DSP/TransformFunctions/arm_cfft_radix8_f32.c ****             s3 = pSrc[2 * i3 + 1] + pSrc[2 * i7 + 1];
 559              	 .loc 1 199 0 discriminator 1
 560 03ac 79EE432A 	 fsubs s5,s18,s6
 198:../Dave/Generated/CMSIS_DSP/TransformFunctions/arm_cfft_radix8_f32.c ****             s6 = pSrc[2 * i2 + 1] - pSrc[2 * i6 + 1];
 561              	 .loc 1 198 0 discriminator 1
 562 03b0 39EE033A 	 fadds s6,s18,s6
 201:../Dave/Generated/CMSIS_DSP/TransformFunctions/arm_cfft_radix8_f32.c ****             s4 = pSrc[2 * i4 + 1] + pSrc[2 * i8 + 1];
 563              	 .loc 1 201 0 discriminator 1
 564 03b4 30EE669A 	 fsubs s18,s0,s13
 202:../Dave/Generated/CMSIS_DSP/TransformFunctions/arm_cfft_radix8_f32.c ****             s8 = pSrc[2 * i4 + 1] - pSrc[2 * i8 + 1];
 565              	 .loc 1 202 0 discriminator 1
 566 03b8 38EE866A 	 fadds s12,s17,s12
 200:../Dave/Generated/CMSIS_DSP/TransformFunctions/arm_cfft_radix8_f32.c ****             s7 = pSrc[2 * i3 + 1] - pSrc[2 * i7 + 1];
 567              	 .loc 1 200 0 discriminator 1
 568 03bc 70EE266A 	 fadds s13,s0,s13
 197:../Dave/Generated/CMSIS_DSP/TransformFunctions/arm_cfft_radix8_f32.c ****             s2 = pSrc[2 * i2 + 1] + pSrc[2 * i6 + 1];
 569              	 .loc 1 197 0 discriminator 1
 570 03c0 78EE638A 	 fsubs s17,s16,s7
 204:../Dave/Generated/CMSIS_DSP/TransformFunctions/arm_cfft_radix8_f32.c ****             t2 = s1 - s3;
 205:../Dave/Generated/CMSIS_DSP/TransformFunctions/arm_cfft_radix8_f32.c ****             s1 = s1 + s3;
 206:../Dave/Generated/CMSIS_DSP/TransformFunctions/arm_cfft_radix8_f32.c ****             s3 = s2 - s4;
 207:../Dave/Generated/CMSIS_DSP/TransformFunctions/arm_cfft_radix8_f32.c ****             s2 = s2 + s4;
 208:../Dave/Generated/CMSIS_DSP/TransformFunctions/arm_cfft_radix8_f32.c ****             r1 = t1 + s3;
 209:../Dave/Generated/CMSIS_DSP/TransformFunctions/arm_cfft_radix8_f32.c ****             t1 = t1 - s3;
 210:../Dave/Generated/CMSIS_DSP/TransformFunctions/arm_cfft_radix8_f32.c ****             pSrc[2 * i1 + 1] = s1 + s2;
 211:../Dave/Generated/CMSIS_DSP/TransformFunctions/arm_cfft_radix8_f32.c ****             s2 = s1 - s2;
 212:../Dave/Generated/CMSIS_DSP/TransformFunctions/arm_cfft_radix8_f32.c ****             s1 = t2 - r3;
 213:../Dave/Generated/CMSIS_DSP/TransformFunctions/arm_cfft_radix8_f32.c ****             t2 = t2 + r3;
 214:../Dave/Generated/CMSIS_DSP/TransformFunctions/arm_cfft_radix8_f32.c ****             p1 = co5 * r2;
 215:../Dave/Generated/CMSIS_DSP/TransformFunctions/arm_cfft_radix8_f32.c ****             p2 = si5 * s2;
 216:../Dave/Generated/CMSIS_DSP/TransformFunctions/arm_cfft_radix8_f32.c ****             p3 = co5 * s2;
 217:../Dave/Generated/CMSIS_DSP/TransformFunctions/arm_cfft_radix8_f32.c ****             p4 = si5 * r2;
 218:../Dave/Generated/CMSIS_DSP/TransformFunctions/arm_cfft_radix8_f32.c ****             pSrc[2 * i5]     = p1 + p2;
 219:../Dave/Generated/CMSIS_DSP/TransformFunctions/arm_cfft_radix8_f32.c ****             pSrc[2 * i5 + 1] = p3 - p4;
 220:../Dave/Generated/CMSIS_DSP/TransformFunctions/arm_cfft_radix8_f32.c ****             p1 = co3 * r1;
 221:../Dave/Generated/CMSIS_DSP/TransformFunctions/arm_cfft_radix8_f32.c ****             p2 = si3 * s1;
 222:../Dave/Generated/CMSIS_DSP/TransformFunctions/arm_cfft_radix8_f32.c ****             p3 = co3 * s1;
 223:../Dave/Generated/CMSIS_DSP/TransformFunctions/arm_cfft_radix8_f32.c ****             p4 = si3 * r1;
 224:../Dave/Generated/CMSIS_DSP/TransformFunctions/arm_cfft_radix8_f32.c ****             pSrc[2 * i3]     = p1 + p2;
 225:../Dave/Generated/CMSIS_DSP/TransformFunctions/arm_cfft_radix8_f32.c ****             pSrc[2 * i3 + 1] = p3 - p4;
 226:../Dave/Generated/CMSIS_DSP/TransformFunctions/arm_cfft_radix8_f32.c ****             p1 = co7 * t1;
 227:../Dave/Generated/CMSIS_DSP/TransformFunctions/arm_cfft_radix8_f32.c ****             p2 = si7 * t2;
 228:../Dave/Generated/CMSIS_DSP/TransformFunctions/arm_cfft_radix8_f32.c ****             p3 = co7 * t2;
 229:../Dave/Generated/CMSIS_DSP/TransformFunctions/arm_cfft_radix8_f32.c ****             p4 = si7 * t1;
 230:../Dave/Generated/CMSIS_DSP/TransformFunctions/arm_cfft_radix8_f32.c ****             pSrc[2 * i7]     = p1 + p2;
 231:../Dave/Generated/CMSIS_DSP/TransformFunctions/arm_cfft_radix8_f32.c ****             pSrc[2 * i7 + 1] = p3 - p4;
 232:../Dave/Generated/CMSIS_DSP/TransformFunctions/arm_cfft_radix8_f32.c ****             r1 = (r6 - r8) * C81;
 233:../Dave/Generated/CMSIS_DSP/TransformFunctions/arm_cfft_radix8_f32.c ****             r6 = (r6 + r8) * C81;
 234:../Dave/Generated/CMSIS_DSP/TransformFunctions/arm_cfft_radix8_f32.c ****             s1 = (s6 - s8) * C81;
 571              	 .loc 1 234 0 discriminator 1
 572 03c4 32EEEF0A 	 fsubs s0,s5,s31
 235:../Dave/Generated/CMSIS_DSP/TransformFunctions/arm_cfft_radix8_f32.c ****             s6 = (s6 + s8) * C81;
 573              	 .loc 1 235 0 discriminator 1
 574 03c8 72EEAF2A 	 fadds s5,s5,s31
 196:../Dave/Generated/CMSIS_DSP/TransformFunctions/arm_cfft_radix8_f32.c ****             s5 = pSrc[2 * i1 + 1] - pSrc[2 * i5 + 1];
 575              	 .loc 1 196 0 discriminator 1
 576 03cc 78EE233A 	 fadds s7,s16,s7
 190:../Dave/Generated/CMSIS_DSP/TransformFunctions/arm_cfft_radix8_f32.c ****             r1 = r1 + r3;
 577              	 .loc 1 190 0 discriminator 1
 578 03d0 30EEC44A 	 fsubs s8,s1,s8
 579              	.LVL46:
 233:../Dave/Generated/CMSIS_DSP/TransformFunctions/arm_cfft_radix8_f32.c ****             s1 = (s6 - s8) * C81;
 580              	 .loc 1 233 0 discriminator 1
 581 03d4 32EE258A 	 fadds s16,s4,s11
 236:../Dave/Generated/CMSIS_DSP/TransformFunctions/arm_cfft_radix8_f32.c ****             t1 = r5 - r1;
 237:../Dave/Generated/CMSIS_DSP/TransformFunctions/arm_cfft_radix8_f32.c ****             r5 = r5 + r1;
 238:../Dave/Generated/CMSIS_DSP/TransformFunctions/arm_cfft_radix8_f32.c ****             r8 = r7 - r6;
 239:../Dave/Generated/CMSIS_DSP/TransformFunctions/arm_cfft_radix8_f32.c ****             r7 = r7 + r6;
 240:../Dave/Generated/CMSIS_DSP/TransformFunctions/arm_cfft_radix8_f32.c ****             t2 = s5 - s1;
 241:../Dave/Generated/CMSIS_DSP/TransformFunctions/arm_cfft_radix8_f32.c ****             s5 = s5 + s1;
 242:../Dave/Generated/CMSIS_DSP/TransformFunctions/arm_cfft_radix8_f32.c ****             s8 = s7 - s6;
 243:../Dave/Generated/CMSIS_DSP/TransformFunctions/arm_cfft_radix8_f32.c ****             s7 = s7 + s6;
 582              	 .loc 1 243 0 discriminator 1
 583 03d8 F0EE490A 	 fcpys s1,s18
 232:../Dave/Generated/CMSIS_DSP/TransformFunctions/arm_cfft_radix8_f32.c ****             r6 = (r6 + r8) * C81;
 584              	 .loc 1 232 0 discriminator 1
 585 03dc 72EE655A 	 fsubs s11,s4,s11
 586              	.LVL47:
 587              	 .loc 1 243 0 discriminator 1
 588 03e0 E2EEAA0A 	 vfma.f32 s1,s5,s21
 244:../Dave/Generated/CMSIS_DSP/TransformFunctions/arm_cfft_radix8_f32.c ****             r1 = r5 + s7;
 245:../Dave/Generated/CMSIS_DSP/TransformFunctions/arm_cfft_radix8_f32.c ****             r5 = r5 - s7;
 246:../Dave/Generated/CMSIS_DSP/TransformFunctions/arm_cfft_radix8_f32.c ****             r6 = t1 + s8;
 247:../Dave/Generated/CMSIS_DSP/TransformFunctions/arm_cfft_radix8_f32.c ****             t1 = t1 - s8;
 248:../Dave/Generated/CMSIS_DSP/TransformFunctions/arm_cfft_radix8_f32.c ****             s1 = s5 - r7;
 249:../Dave/Generated/CMSIS_DSP/TransformFunctions/arm_cfft_radix8_f32.c ****             s5 = s5 + r7;
 250:../Dave/Generated/CMSIS_DSP/TransformFunctions/arm_cfft_radix8_f32.c ****             s6 = t2 - r8;
 251:../Dave/Generated/CMSIS_DSP/TransformFunctions/arm_cfft_radix8_f32.c ****             t2 = t2 + r8;
 252:../Dave/Generated/CMSIS_DSP/TransformFunctions/arm_cfft_radix8_f32.c ****             p1 = co2 * r1;
 253:../Dave/Generated/CMSIS_DSP/TransformFunctions/arm_cfft_radix8_f32.c ****             p2 = si2 * s1;
 254:../Dave/Generated/CMSIS_DSP/TransformFunctions/arm_cfft_radix8_f32.c ****             p3 = co2 * s1;
 255:../Dave/Generated/CMSIS_DSP/TransformFunctions/arm_cfft_radix8_f32.c ****             p4 = si2 * r1;
 256:../Dave/Generated/CMSIS_DSP/TransformFunctions/arm_cfft_radix8_f32.c ****             pSrc[2 * i2]     = p1 + p2;
 257:../Dave/Generated/CMSIS_DSP/TransformFunctions/arm_cfft_radix8_f32.c ****             pSrc[2 * i2 + 1] = p3 - p4;
 258:../Dave/Generated/CMSIS_DSP/TransformFunctions/arm_cfft_radix8_f32.c ****             p1 = co8 * r5;
 259:../Dave/Generated/CMSIS_DSP/TransformFunctions/arm_cfft_radix8_f32.c ****             p2 = si8 * s5;
 260:../Dave/Generated/CMSIS_DSP/TransformFunctions/arm_cfft_radix8_f32.c ****             p3 = co8 * s5;
 261:../Dave/Generated/CMSIS_DSP/TransformFunctions/arm_cfft_radix8_f32.c ****             p4 = si8 * r5;
 262:../Dave/Generated/CMSIS_DSP/TransformFunctions/arm_cfft_radix8_f32.c ****             pSrc[2 * i8]     = p1 + p2;
 263:../Dave/Generated/CMSIS_DSP/TransformFunctions/arm_cfft_radix8_f32.c ****             pSrc[2 * i8 + 1] = p3 - p4;
 264:../Dave/Generated/CMSIS_DSP/TransformFunctions/arm_cfft_radix8_f32.c ****             p1 = co6 * r6;
 265:../Dave/Generated/CMSIS_DSP/TransformFunctions/arm_cfft_radix8_f32.c ****             p2 = si6 * s6;
 266:../Dave/Generated/CMSIS_DSP/TransformFunctions/arm_cfft_radix8_f32.c ****             p3 = co6 * s6;
 267:../Dave/Generated/CMSIS_DSP/TransformFunctions/arm_cfft_radix8_f32.c ****             p4 = si6 * r6;
 268:../Dave/Generated/CMSIS_DSP/TransformFunctions/arm_cfft_radix8_f32.c ****             pSrc[2 * i6]     = p1 + p2;
 269:../Dave/Generated/CMSIS_DSP/TransformFunctions/arm_cfft_radix8_f32.c ****             pSrc[2 * i6 + 1] = p3 - p4;
 270:../Dave/Generated/CMSIS_DSP/TransformFunctions/arm_cfft_radix8_f32.c ****             p1 = co4 * t1;
 271:../Dave/Generated/CMSIS_DSP/TransformFunctions/arm_cfft_radix8_f32.c ****             p2 = si4 * t2;
 272:../Dave/Generated/CMSIS_DSP/TransformFunctions/arm_cfft_radix8_f32.c ****             p3 = co4 * t2;
 273:../Dave/Generated/CMSIS_DSP/TransformFunctions/arm_cfft_radix8_f32.c ****             p4 = si4 * t1;
 274:../Dave/Generated/CMSIS_DSP/TransformFunctions/arm_cfft_radix8_f32.c ****             pSrc[2 * i4]     = p1 + p2;
 275:../Dave/Generated/CMSIS_DSP/TransformFunctions/arm_cfft_radix8_f32.c ****             pSrc[2 * i4 + 1] = p3 - p4;
 276:../Dave/Generated/CMSIS_DSP/TransformFunctions/arm_cfft_radix8_f32.c **** 
 277:../Dave/Generated/CMSIS_DSP/TransformFunctions/arm_cfft_radix8_f32.c ****             i1 += n1;
 589              	 .loc 1 277 0 discriminator 1
 590 03e4 DC44     	 add ip,ip,fp
 591              	.LVL48:
 278:../Dave/Generated/CMSIS_DSP/TransformFunctions/arm_cfft_radix8_f32.c ****          } while (i1 < fftLen);
 592              	 .loc 1 278 0 discriminator 1
 593 03e6 E145     	 cmp r9,ip
 242:../Dave/Generated/CMSIS_DSP/TransformFunctions/arm_cfft_radix8_f32.c ****             s7 = s7 + s6;
 594              	 .loc 1 242 0 discriminator 1
 595 03e8 A2EEEA9A 	 vfms.f32 s18,s5,s21
 241:../Dave/Generated/CMSIS_DSP/TransformFunctions/arm_cfft_radix8_f32.c ****             s8 = s7 - s6;
 596              	 .loc 1 241 0 discriminator 1
 597 03ec B0EE682A 	 fcpys s4,s17
 598              	.LVL49:
 237:../Dave/Generated/CMSIS_DSP/TransformFunctions/arm_cfft_radix8_f32.c ****             r8 = r7 - r6;
 599              	 .loc 1 237 0 discriminator 1
 600 03f0 F0EE472A 	 fcpys s5,s14
 601 03f4 E5EEAA2A 	 vfma.f32 s5,s11,s21
 236:../Dave/Generated/CMSIS_DSP/TransformFunctions/arm_cfft_radix8_f32.c ****             r5 = r5 + r1;
 602              	 .loc 1 236 0 discriminator 1
 603 03f8 A5EEEA7A 	 vfms.f32 s14,s11,s21
 604              	.LVL50:
 241:../Dave/Generated/CMSIS_DSP/TransformFunctions/arm_cfft_radix8_f32.c ****             s8 = s7 - s6;
 605              	 .loc 1 241 0 discriminator 1
 606 03fc A0EE2A2A 	 vfma.f32 s4,s0,s21
 207:../Dave/Generated/CMSIS_DSP/TransformFunctions/arm_cfft_radix8_f32.c ****             r1 = t1 + s3;
 607              	 .loc 1 207 0 discriminator 1
 608 0400 73EE065A 	 fadds s11,s6,s12
 240:../Dave/Generated/CMSIS_DSP/TransformFunctions/arm_cfft_radix8_f32.c ****             s5 = s5 + s1;
 609              	 .loc 1 240 0 discriminator 1
 610 0404 E0EE6A8A 	 vfms.f32 s17,s0,s21
 239:../Dave/Generated/CMSIS_DSP/TransformFunctions/arm_cfft_radix8_f32.c ****             t2 = s5 - s1;
 611              	 .loc 1 239 0 discriminator 1
 612 0408 F0EE67FA 	 fcpys s31,s15
 205:../Dave/Generated/CMSIS_DSP/TransformFunctions/arm_cfft_radix8_f32.c ****             s3 = s2 - s4;
 613              	 .loc 1 205 0 discriminator 1
 614 040c 33EEA60A 	 fadds s0,s7,s13
 238:../Dave/Generated/CMSIS_DSP/TransformFunctions/arm_cfft_radix8_f32.c ****             r7 = r7 + r6;
 615              	 .loc 1 238 0 discriminator 1
 616 0410 E8EE6A7A 	 vfms.f32 s15,s16,s21
 617              	.LVL51:
 192:../Dave/Generated/CMSIS_DSP/TransformFunctions/arm_cfft_radix8_f32.c ****             r2 = r2 + r4;
 618              	 .loc 1 192 0 discriminator 1
 619 0414 71EE644A 	 fsubs s9,s2,s9
 620              	.LVL52:
 195:../Dave/Generated/CMSIS_DSP/TransformFunctions/arm_cfft_radix8_f32.c ****             s1 = pSrc[2 * i1 + 1] + pSrc[2 * i5 + 1];
 621              	 .loc 1 195 0 discriminator 1
 622 0418 31EEC55A 	 fsubs s10,s3,s10
 239:../Dave/Generated/CMSIS_DSP/TransformFunctions/arm_cfft_radix8_f32.c ****             t2 = s5 - s1;
 623              	 .loc 1 239 0 discriminator 1
 624 041c E8EE2AFA 	 vfma.f32 s31,s16,s21
 625              	.LVL53:
 206:../Dave/Generated/CMSIS_DSP/TransformFunctions/arm_cfft_radix8_f32.c ****             s2 = s2 + s4;
 626              	 .loc 1 206 0 discriminator 1
 627 0420 33EE463A 	 fsubs s6,s6,s12
 211:../Dave/Generated/CMSIS_DSP/TransformFunctions/arm_cfft_radix8_f32.c ****             s1 = t2 - r3;
 628              	 .loc 1 211 0 discriminator 1
 629 0424 30EE658A 	 fsubs s16,s0,s11
 204:../Dave/Generated/CMSIS_DSP/TransformFunctions/arm_cfft_radix8_f32.c ****             s1 = s1 + s3;
 630              	 .loc 1 204 0 discriminator 1
 631 0428 73EEE63A 	 fsubs s7,s7,s13
 632              	.LVL54:
 208:../Dave/Generated/CMSIS_DSP/TransformFunctions/arm_cfft_radix8_f32.c ****             t1 = t1 - s3;
 633              	 .loc 1 208 0 discriminator 1
 634 042c 34EE036A 	 fadds s12,s8,s6
 635              	.LVL55:
 244:../Dave/Generated/CMSIS_DSP/TransformFunctions/arm_cfft_radix8_f32.c ****             r5 = r5 - s7;
 636              	 .loc 1 244 0 discriminator 1
 637 0430 72EEA06A 	 fadds s13,s5,s1
 209:../Dave/Generated/CMSIS_DSP/TransformFunctions/arm_cfft_radix8_f32.c ****             pSrc[2 * i1 + 1] = s1 + s2;
 638              	 .loc 1 209 0 discriminator 1
 639 0434 34EE434A 	 fsubs s8,s8,s6
 640              	.LVL56:
 245:../Dave/Generated/CMSIS_DSP/TransformFunctions/arm_cfft_radix8_f32.c ****             r6 = t1 + s8;
 641              	 .loc 1 245 0 discriminator 1
 642 0438 72EEE00A 	 fsubs s1,s5,s1
 212:../Dave/Generated/CMSIS_DSP/TransformFunctions/arm_cfft_radix8_f32.c ****             t2 = t2 + r3;
 643              	 .loc 1 212 0 discriminator 1
 644 043c 33EEE43A 	 fsubs s6,s7,s9
 645              	.LVL57:
 646 0440 65EE692A 	 fnmuls s5,s10,s19
 213:../Dave/Generated/CMSIS_DSP/TransformFunctions/arm_cfft_radix8_f32.c ****             p1 = co5 * r2;
 647              	 .loc 1 213 0 discriminator 1
 648 0444 73EEA43A 	 fadds s7,s7,s9
 649              	.LVL58:
 246:../Dave/Generated/CMSIS_DSP/TransformFunctions/arm_cfft_radix8_f32.c ****             t1 = t1 - s8;
 650              	 .loc 1 246 0 discriminator 1
 651 0448 77EE094A 	 fadds s9,s14,s18
 652              	.LVL59:
 247:../Dave/Generated/CMSIS_DSP/TransformFunctions/arm_cfft_radix8_f32.c ****             s1 = s5 - r7;
 653              	 .loc 1 247 0 discriminator 1
 654 044c 37EE499A 	 fsubs s18,s14,s18
 250:../Dave/Generated/CMSIS_DSP/TransformFunctions/arm_cfft_radix8_f32.c ****             t2 = t2 + r8;
 655              	 .loc 1 250 0 discriminator 1
 656 0450 38EEE77A 	 fsubs s14,s17,s15
 251:../Dave/Generated/CMSIS_DSP/TransformFunctions/arm_cfft_radix8_f32.c ****             p1 = co2 * r1;
 657              	 .loc 1 251 0 discriminator 1
 658 0454 78EEA78A 	 fadds s17,s17,s15
 215:../Dave/Generated/CMSIS_DSP/TransformFunctions/arm_cfft_radix8_f32.c ****             p3 = co5 * s2;
 659              	 .loc 1 215 0 discriminator 1
 660 0458 69EE887A 	 fmuls s15,s19,s16
 661              	.LVL60:
 219:../Dave/Generated/CMSIS_DSP/TransformFunctions/arm_cfft_radix8_f32.c ****             p1 = co3 * r1;
 662              	 .loc 1 219 0 discriminator 1
 663 045c EDEE882A 	 vfma.f32 s5,s27,s16
 218:../Dave/Generated/CMSIS_DSP/TransformFunctions/arm_cfft_radix8_f32.c ****             pSrc[2 * i5 + 1] = p3 - p4;
 664              	 .loc 1 218 0 discriminator 1
 665 0460 EDEE857A 	 vfma.f32 s15,s27,s10
 666              	.LVL61:
 227:../Dave/Generated/CMSIS_DSP/TransformFunctions/arm_cfft_radix8_f32.c ****             p3 = co7 * t2;
 667              	 .loc 1 227 0 discriminator 1
 668 0464 9DED018A 	 flds s16,[sp,#4]
 669              	.LVL62:
 670 0468 26EE4B5A 	 fnmuls s10,s12,s22
 671              	.LVL63:
 221:../Dave/Generated/CMSIS_DSP/TransformFunctions/arm_cfft_radix8_f32.c ****             p3 = co3 * s1;
 672              	 .loc 1 221 0 discriminator 1
 673 046c 2BEE031A 	 fmuls s2,s22,s6
 248:../Dave/Generated/CMSIS_DSP/TransformFunctions/arm_cfft_radix8_f32.c ****             s5 = s5 + r7;
 674              	 .loc 1 248 0 discriminator 1
 675 0470 72EE6F1A 	 fsubs s3,s4,s31
 225:../Dave/Generated/CMSIS_DSP/TransformFunctions/arm_cfft_radix8_f32.c ****             p1 = co7 * t1;
 676              	 .loc 1 225 0 discriminator 1
 677 0474 AEEE835A 	 vfma.f32 s10,s29,s6
 224:../Dave/Generated/CMSIS_DSP/TransformFunctions/arm_cfft_radix8_f32.c ****             pSrc[2 * i3 + 1] = p3 - p4;
 678              	 .loc 1 224 0 discriminator 1
 679 0478 AEEE861A 	 vfma.f32 s2,s29,s12
 227:../Dave/Generated/CMSIS_DSP/TransformFunctions/arm_cfft_radix8_f32.c ****             p3 = co7 * t2;
 680              	 .loc 1 227 0 discriminator 1
 681 047c 28EE233A 	 fmuls s6,s16,s7
 682              	.LVL64:
 683 0480 24EE486A 	 fnmuls s12,s8,s16
 684              	.LVL65:
 249:../Dave/Generated/CMSIS_DSP/TransformFunctions/arm_cfft_radix8_f32.c ****             s6 = t2 - r8;
 685              	 .loc 1 249 0 discriminator 1
 686 0484 32EE2F2A 	 fadds s4,s4,s31
 259:../Dave/Generated/CMSIS_DSP/TransformFunctions/arm_cfft_radix8_f32.c ****             p3 = co8 * s5;
 687              	 .loc 1 259 0 discriminator 1
 688 0488 9DED028A 	 flds s16,[sp,#8]
 230:../Dave/Generated/CMSIS_DSP/TransformFunctions/arm_cfft_radix8_f32.c ****             pSrc[2 * i7 + 1] = p3 - p4;
 689              	 .loc 1 230 0 discriminator 1
 690 048c ACEE843A 	 vfma.f32 s6,s25,s8
 231:../Dave/Generated/CMSIS_DSP/TransformFunctions/arm_cfft_radix8_f32.c ****             r1 = (r6 - r8) * C81;
 691              	 .loc 1 231 0 discriminator 1
 692 0490 ACEEA36A 	 vfma.f32 s12,s25,s7
 253:../Dave/Generated/CMSIS_DSP/TransformFunctions/arm_cfft_radix8_f32.c ****             p3 = co2 * s1;
 693              	 .loc 1 253 0 discriminator 1
 694 0494 2BEEA14A 	 fmuls s8,s23,s3
 695              	.LVL66:
 696 0498 66EEEB3A 	 fnmuls s7,s13,s23
 697              	.LVL67:
 256:../Dave/Generated/CMSIS_DSP/TransformFunctions/arm_cfft_radix8_f32.c ****             pSrc[2 * i2 + 1] = p3 - p4;
 698              	 .loc 1 256 0 discriminator 1
 699 049c AFEE264A 	 vfma.f32 s8,s30,s13
 257:../Dave/Generated/CMSIS_DSP/TransformFunctions/arm_cfft_radix8_f32.c ****             p1 = co8 * r5;
 700              	 .loc 1 257 0 discriminator 1
 701 04a0 EFEE213A 	 vfma.f32 s7,s30,s3
 259:../Dave/Generated/CMSIS_DSP/TransformFunctions/arm_cfft_radix8_f32.c ****             p3 = co8 * s5;
 702              	 .loc 1 259 0 discriminator 1
 703 04a4 68EE026A 	 fmuls s13,s16,s4
 704 04a8 60EEC81A 	 fnmuls s3,s1,s16
 705 04ac 9DED008A 	 flds s16,[sp]
 262:../Dave/Generated/CMSIS_DSP/TransformFunctions/arm_cfft_radix8_f32.c ****             pSrc[2 * i8 + 1] = p3 - p4;
 706              	 .loc 1 262 0 discriminator 1
 707 04b0 ECEE206A 	 vfma.f32 s13,s24,s1
 263:../Dave/Generated/CMSIS_DSP/TransformFunctions/arm_cfft_radix8_f32.c ****             p1 = co6 * r6;
 708              	 .loc 1 263 0 discriminator 1
 709 04b4 ECEE021A 	 vfma.f32 s3,s24,s4
 710 04b8 64EEC80A 	 fnmuls s1,s9,s16
 265:../Dave/Generated/CMSIS_DSP/TransformFunctions/arm_cfft_radix8_f32.c ****             p3 = co6 * s6;
 711              	 .loc 1 265 0 discriminator 1
 712 04bc 28EE072A 	 fmuls s4,s16,s14
 269:../Dave/Generated/CMSIS_DSP/TransformFunctions/arm_cfft_radix8_f32.c ****             p1 = co4 * t1;
 713              	 .loc 1 269 0 discriminator 1
 714 04c0 EDEE070A 	 vfma.f32 s1,s26,s14
 268:../Dave/Generated/CMSIS_DSP/TransformFunctions/arm_cfft_radix8_f32.c ****             pSrc[2 * i6 + 1] = p3 - p4;
 715              	 .loc 1 268 0 discriminator 1
 716 04c4 ADEE242A 	 vfma.f32 s4,s26,s9
 271:../Dave/Generated/CMSIS_DSP/TransformFunctions/arm_cfft_radix8_f32.c ****             p3 = co4 * t2;
 717              	 .loc 1 271 0 discriminator 1
 718 04c8 2AEE287A 	 fmuls s14,s20,s17
 719 04cc 69EE4A4A 	 fnmuls s9,s18,s20
 274:../Dave/Generated/CMSIS_DSP/TransformFunctions/arm_cfft_radix8_f32.c ****             pSrc[2 * i4 + 1] = p3 - p4;
 720              	 .loc 1 274 0 discriminator 1
 721 04d0 AEEE097A 	 vfma.f32 s14,s28,s18
 275:../Dave/Generated/CMSIS_DSP/TransformFunctions/arm_cfft_radix8_f32.c **** 
 722              	 .loc 1 275 0 discriminator 1
 723 04d4 EEEE284A 	 vfma.f32 s9,s28,s17
 210:../Dave/Generated/CMSIS_DSP/TransformFunctions/arm_cfft_radix8_f32.c ****             s2 = s1 - s2;
 724              	 .loc 1 210 0 discriminator 1
 725 04d8 70EE255A 	 fadds s11,s0,s11
 726              	.LVL68:
 727 04dc CEED015A 	 fsts s11,[lr,#4]
 728              	.LVL69:
 218:../Dave/Generated/CMSIS_DSP/TransformFunctions/arm_cfft_radix8_f32.c ****             pSrc[2 * i5 + 1] = p3 - p4;
 729              	 .loc 1 218 0 discriminator 1
 730 04e0 C6ED007A 	 fsts s15,[r6]
 219:../Dave/Generated/CMSIS_DSP/TransformFunctions/arm_cfft_radix8_f32.c ****             p1 = co3 * r1;
 731              	 .loc 1 219 0 discriminator 1
 732 04e4 C6ED012A 	 fsts s5,[r6,#4]
 733 04e8 9E44     	 add lr,lr,r3
 224:../Dave/Generated/CMSIS_DSP/TransformFunctions/arm_cfft_radix8_f32.c ****             pSrc[2 * i3 + 1] = p3 - p4;
 734              	 .loc 1 224 0 discriminator 1
 735 04ea 84ED001A 	 fsts s2,[r4]
 225:../Dave/Generated/CMSIS_DSP/TransformFunctions/arm_cfft_radix8_f32.c ****             p1 = co7 * t1;
 736              	 .loc 1 225 0 discriminator 1
 737 04ee 84ED015A 	 fsts s10,[r4,#4]
 738              	.LVL70:
 739 04f2 1E44     	 add r6,r6,r3
 230:../Dave/Generated/CMSIS_DSP/TransformFunctions/arm_cfft_radix8_f32.c ****             pSrc[2 * i7 + 1] = p3 - p4;
 740              	 .loc 1 230 0 discriminator 1
 741 04f4 02ED013A 	 fsts s6,[r2,#-4]
 231:../Dave/Generated/CMSIS_DSP/TransformFunctions/arm_cfft_radix8_f32.c ****             r1 = (r6 - r8) * C81;
 742              	 .loc 1 231 0 discriminator 1
 743 04f8 82ED006A 	 fsts s12,[r2]
 744 04fc 1C44     	 add r4,r4,r3
 256:../Dave/Generated/CMSIS_DSP/TransformFunctions/arm_cfft_radix8_f32.c ****             pSrc[2 * i2 + 1] = p3 - p4;
 745              	 .loc 1 256 0 discriminator 1
 746 04fe 85ED004A 	 fsts s8,[r5]
 257:../Dave/Generated/CMSIS_DSP/TransformFunctions/arm_cfft_radix8_f32.c ****             p1 = co8 * r5;
 747              	 .loc 1 257 0 discriminator 1
 748 0502 C5ED013A 	 fsts s7,[r5,#4]
 749 0506 1A44     	 add r2,r2,r3
 262:../Dave/Generated/CMSIS_DSP/TransformFunctions/arm_cfft_radix8_f32.c ****             pSrc[2 * i8 + 1] = p3 - p4;
 750              	 .loc 1 262 0 discriminator 1
 751 0508 47ED016A 	 fsts s13,[r7,#-4]
 263:../Dave/Generated/CMSIS_DSP/TransformFunctions/arm_cfft_radix8_f32.c ****             p1 = co6 * r6;
 752              	 .loc 1 263 0 discriminator 1
 753 050c C7ED001A 	 fsts s3,[r7]
 754 0510 1D44     	 add r5,r5,r3
 268:../Dave/Generated/CMSIS_DSP/TransformFunctions/arm_cfft_radix8_f32.c ****             pSrc[2 * i6 + 1] = p3 - p4;
 755              	 .loc 1 268 0 discriminator 1
 756 0512 01ED012A 	 fsts s4,[r1,#-4]
 269:../Dave/Generated/CMSIS_DSP/TransformFunctions/arm_cfft_radix8_f32.c ****             p1 = co4 * t1;
 757              	 .loc 1 269 0 discriminator 1
 758 0516 C1ED000A 	 fsts s1,[r1]
 759              	.LVL71:
 760 051a 1F44     	 add r7,r7,r3
 274:../Dave/Generated/CMSIS_DSP/TransformFunctions/arm_cfft_radix8_f32.c ****             pSrc[2 * i4 + 1] = p3 - p4;
 761              	 .loc 1 274 0 discriminator 1
 762 051c 80ED007A 	 fsts s14,[r0]
 763 0520 1944     	 add r1,r1,r3
 275:../Dave/Generated/CMSIS_DSP/TransformFunctions/arm_cfft_radix8_f32.c **** 
 764              	 .loc 1 275 0 discriminator 1
 765 0522 C0ED014A 	 fsts s9,[r0,#4]
 766 0526 1844     	 add r0,r0,r3
 767              	 .loc 1 278 0 discriminator 1
 768 0528 3FF606AF 	 bhi .L4
 769 052c 039A     	 ldr r2,[sp,#12]
 770 052e 0D99     	 ldr r1,[sp,#52]
 771 0530 0A44     	 add r2,r2,r1
 772 0532 0392     	 str r2,[sp,#12]
 773 0534 0E99     	 ldr r1,[sp,#56]
 774 0536 059A     	 ldr r2,[sp,#20]
 775 0538 0A44     	 add r2,r2,r1
 776 053a 0592     	 str r2,[sp,#20]
 777 053c 0F99     	 ldr r1,[sp,#60]
 778 053e 049A     	 ldr r2,[sp,#16]
 779 0540 0A44     	 add r2,r2,r1
 780 0542 0492     	 str r2,[sp,#16]
 781 0544 1199     	 ldr r1,[sp,#68]
 782 0546 069A     	 ldr r2,[sp,#24]
 783 0548 0A44     	 add r2,r2,r1
 784 054a 0692     	 str r2,[sp,#24]
 785 054c 1399     	 ldr r1,[sp,#76]
 786 054e 099A     	 ldr r2,[sp,#36]
 787 0550 0A44     	 add r2,r2,r1
 788 0552 0992     	 str r2,[sp,#36]
 789 0554 1099     	 ldr r1,[sp,#64]
 790 0556 089A     	 ldr r2,[sp,#32]
 791 0558 0A44     	 add r2,r2,r1
 792 055a 0892     	 str r2,[sp,#32]
 793 055c 1299     	 ldr r1,[sp,#72]
 794 055e 079A     	 ldr r2,[sp,#28]
 795 0560 0A44     	 add r2,r2,r1
 796 0562 0792     	 str r2,[sp,#28]
 279:../Dave/Generated/CMSIS_DSP/TransformFunctions/arm_cfft_radix8_f32.c **** 
 280:../Dave/Generated/CMSIS_DSP/TransformFunctions/arm_cfft_radix8_f32.c ****          j++;
 281:../Dave/Generated/CMSIS_DSP/TransformFunctions/arm_cfft_radix8_f32.c ****       } while (j < n2);
 797              	 .loc 1 281 0
 798 0564 0C99     	 ldr r1,[sp,#48]
 799 0566 0A9A     	 ldr r2,[sp,#40]
 280:../Dave/Generated/CMSIS_DSP/TransformFunctions/arm_cfft_radix8_f32.c ****       } while (j < n2);
 800              	 .loc 1 280 0
 801 0568 08F10108 	 add r8,r8,#1
 802              	.LVL72:
 803 056c 0832     	 adds r2,r2,#8
 804              	 .loc 1 281 0
 805 056e 8845     	 cmp r8,r1
 806 0570 0A92     	 str r2,[sp,#40]
 807 0572 0B9A     	 ldr r2,[sp,#44]
 808 0574 7FF491AE 	 bne .L5
 282:../Dave/Generated/CMSIS_DSP/TransformFunctions/arm_cfft_radix8_f32.c **** 
 283:../Dave/Generated/CMSIS_DSP/TransformFunctions/arm_cfft_radix8_f32.c ****       twidCoefModifier <<= 3;
 809              	 .loc 1 283 0
 810 0578 BDF83430 	 ldrh r3,[sp,#52]
 811 057c 0093     	 str r3,[sp]
 812              	.LVL73:
 813 057e C346     	 mov fp,r8
 814              	.LVL74:
 815 0580 DDF86CE0 	 ldr lr,[sp,#108]
 816 0584 4CE5     	 b .L6
 817              	.LVL75:
 818              	.L1:
 284:../Dave/Generated/CMSIS_DSP/TransformFunctions/arm_cfft_radix8_f32.c ****    } while (n2 > 7);
 285:../Dave/Generated/CMSIS_DSP/TransformFunctions/arm_cfft_radix8_f32.c **** }
 819              	 .loc 1 285 0
 820 0586 1DB0     	 add sp,sp,#116
 821              	.LCFI3:
 822              	 .cfi_def_cfa_offset 100
 823              	.LVL76:
 824              	 
 825 0588 BDEC108B 	 fldmfdd sp!,{d8-d15}
 826              	.LCFI4:
 827              	 .cfi_restore 94
 828              	 .cfi_restore 95
 829              	 .cfi_restore 92
 830              	 .cfi_restore 93
 831              	 .cfi_restore 90
 832              	 .cfi_restore 91
 833              	 .cfi_restore 88
 834              	 .cfi_restore 89
 835              	 .cfi_restore 86
 836              	 .cfi_restore 87
 837              	 .cfi_restore 84
 838              	 .cfi_restore 85
 839              	 .cfi_restore 82
 840              	 .cfi_restore 83
 841              	 .cfi_restore 80
 842              	 .cfi_restore 81
 843              	 .cfi_def_cfa_offset 36
 844              	.LVL77:
 845 058c BDE8F08F 	 pop {r4,r5,r6,r7,r8,r9,r10,fp,pc}
 846              	 .cfi_endproc
 847              	.LFE135:
 849              	 .text
 850              	.Letext0:
 851              	 .file 2 "c:\\infineon\\tools\\dave ide\\4.5.0.202105191637\\eclipse\\arm-gcc-49\\arm-none-eabi\\include\\machine\\_default_types.h"
 852              	 .file 3 "c:\\infineon\\tools\\dave ide\\4.5.0.202105191637\\eclipse\\arm-gcc-49\\arm-none-eabi\\include\\stdint.h"
 853              	 .file 4 "C:/Users/Utente/Desktop/Tesi/Firmware_Software/DAVE project/S2GLP_Pulsed_Doppler/Dave/Generated/CMSIS_DSP/arm_math.h"