   1              	 .syntax unified
   2              	 .cpu cortex-m4
   3              	 .eabi_attribute 27,3
   4              	 .fpu fpv4-sp-d16
   5              	 .eabi_attribute 20,1
   6              	 .eabi_attribute 21,1
   7              	 .eabi_attribute 23,3
   8              	 .eabi_attribute 24,1
   9              	 .eabi_attribute 25,1
  10              	 .eabi_attribute 26,1
  11              	 .eabi_attribute 30,2
  12              	 .eabi_attribute 34,1
  13              	 .eabi_attribute 18,4
  14              	 .thumb
  15              	 .file "arm_cfft_radix2_f32.c"
  16              	 .text
  17              	.Ltext0:
  18              	 .cfi_sections .debug_frame
  19              	 .section .text.arm_radix2_butterfly_f32,"ax",%progbits
  20              	 .align 2
  21              	 .global arm_radix2_butterfly_f32
  22              	 .thumb
  23              	 .thumb_func
  25              	arm_radix2_butterfly_f32:
  26              	.LFB136:
  27              	 .file 1 "../Dave/Generated/CMSIS_DSP/TransformFunctions/arm_cfft_radix2_f32.c"
   1:../Dave/Generated/CMSIS_DSP/TransformFunctions/arm_cfft_radix2_f32.c **** /* ----------------------------------------------------------------------
   2:../Dave/Generated/CMSIS_DSP/TransformFunctions/arm_cfft_radix2_f32.c ****  * Project:      CMSIS DSP Library
   3:../Dave/Generated/CMSIS_DSP/TransformFunctions/arm_cfft_radix2_f32.c ****  * Title:        arm_cfft_radix2_f32.c
   4:../Dave/Generated/CMSIS_DSP/TransformFunctions/arm_cfft_radix2_f32.c ****  * Description:  Radix-2 Decimation in Frequency CFFT & CIFFT Floating point processing function
   5:../Dave/Generated/CMSIS_DSP/TransformFunctions/arm_cfft_radix2_f32.c ****  *
   6:../Dave/Generated/CMSIS_DSP/TransformFunctions/arm_cfft_radix2_f32.c ****  * $Date:        27. January 2017
   7:../Dave/Generated/CMSIS_DSP/TransformFunctions/arm_cfft_radix2_f32.c ****  * $Revision:    V.1.5.1
   8:../Dave/Generated/CMSIS_DSP/TransformFunctions/arm_cfft_radix2_f32.c ****  *
   9:../Dave/Generated/CMSIS_DSP/TransformFunctions/arm_cfft_radix2_f32.c ****  * Target Processor: Cortex-M cores
  10:../Dave/Generated/CMSIS_DSP/TransformFunctions/arm_cfft_radix2_f32.c ****  * -------------------------------------------------------------------- */
  11:../Dave/Generated/CMSIS_DSP/TransformFunctions/arm_cfft_radix2_f32.c **** /*
  12:../Dave/Generated/CMSIS_DSP/TransformFunctions/arm_cfft_radix2_f32.c ****  * Copyright (C) 2010-2017 ARM Limited or its affiliates. All rights reserved.
  13:../Dave/Generated/CMSIS_DSP/TransformFunctions/arm_cfft_radix2_f32.c ****  *
  14:../Dave/Generated/CMSIS_DSP/TransformFunctions/arm_cfft_radix2_f32.c ****  * SPDX-License-Identifier: Apache-2.0
  15:../Dave/Generated/CMSIS_DSP/TransformFunctions/arm_cfft_radix2_f32.c ****  *
  16:../Dave/Generated/CMSIS_DSP/TransformFunctions/arm_cfft_radix2_f32.c ****  * Licensed under the Apache License, Version 2.0 (the License); you may
  17:../Dave/Generated/CMSIS_DSP/TransformFunctions/arm_cfft_radix2_f32.c ****  * not use this file except in compliance with the License.
  18:../Dave/Generated/CMSIS_DSP/TransformFunctions/arm_cfft_radix2_f32.c ****  * You may obtain a copy of the License at
  19:../Dave/Generated/CMSIS_DSP/TransformFunctions/arm_cfft_radix2_f32.c ****  *
  20:../Dave/Generated/CMSIS_DSP/TransformFunctions/arm_cfft_radix2_f32.c ****  * www.apache.org/licenses/LICENSE-2.0
  21:../Dave/Generated/CMSIS_DSP/TransformFunctions/arm_cfft_radix2_f32.c ****  *
  22:../Dave/Generated/CMSIS_DSP/TransformFunctions/arm_cfft_radix2_f32.c ****  * Unless required by applicable law or agreed to in writing, software
  23:../Dave/Generated/CMSIS_DSP/TransformFunctions/arm_cfft_radix2_f32.c ****  * distributed under the License is distributed on an AS IS BASIS, WITHOUT
  24:../Dave/Generated/CMSIS_DSP/TransformFunctions/arm_cfft_radix2_f32.c ****  * WARRANTIES OR CONDITIONS OF ANY KIND, either express or implied.
  25:../Dave/Generated/CMSIS_DSP/TransformFunctions/arm_cfft_radix2_f32.c ****  * See the License for the specific language governing permissions and
  26:../Dave/Generated/CMSIS_DSP/TransformFunctions/arm_cfft_radix2_f32.c ****  * limitations under the License.
  27:../Dave/Generated/CMSIS_DSP/TransformFunctions/arm_cfft_radix2_f32.c ****  */
  28:../Dave/Generated/CMSIS_DSP/TransformFunctions/arm_cfft_radix2_f32.c **** 
  29:../Dave/Generated/CMSIS_DSP/TransformFunctions/arm_cfft_radix2_f32.c **** #include "CMSIS_DSP/cmsis_dsp.h"
  30:../Dave/Generated/CMSIS_DSP/TransformFunctions/arm_cfft_radix2_f32.c **** 
  31:../Dave/Generated/CMSIS_DSP/TransformFunctions/arm_cfft_radix2_f32.c **** void arm_radix2_butterfly_f32(
  32:../Dave/Generated/CMSIS_DSP/TransformFunctions/arm_cfft_radix2_f32.c ****   float32_t * pSrc,
  33:../Dave/Generated/CMSIS_DSP/TransformFunctions/arm_cfft_radix2_f32.c ****   uint32_t fftLen,
  34:../Dave/Generated/CMSIS_DSP/TransformFunctions/arm_cfft_radix2_f32.c ****   float32_t * pCoef,
  35:../Dave/Generated/CMSIS_DSP/TransformFunctions/arm_cfft_radix2_f32.c ****   uint16_t twidCoefModifier);
  36:../Dave/Generated/CMSIS_DSP/TransformFunctions/arm_cfft_radix2_f32.c **** 
  37:../Dave/Generated/CMSIS_DSP/TransformFunctions/arm_cfft_radix2_f32.c **** void arm_radix2_butterfly_inverse_f32(
  38:../Dave/Generated/CMSIS_DSP/TransformFunctions/arm_cfft_radix2_f32.c ****   float32_t * pSrc,
  39:../Dave/Generated/CMSIS_DSP/TransformFunctions/arm_cfft_radix2_f32.c ****   uint32_t fftLen,
  40:../Dave/Generated/CMSIS_DSP/TransformFunctions/arm_cfft_radix2_f32.c ****   float32_t * pCoef,
  41:../Dave/Generated/CMSIS_DSP/TransformFunctions/arm_cfft_radix2_f32.c ****   uint16_t twidCoefModifier,
  42:../Dave/Generated/CMSIS_DSP/TransformFunctions/arm_cfft_radix2_f32.c ****   float32_t onebyfftLen);
  43:../Dave/Generated/CMSIS_DSP/TransformFunctions/arm_cfft_radix2_f32.c **** 
  44:../Dave/Generated/CMSIS_DSP/TransformFunctions/arm_cfft_radix2_f32.c **** extern void arm_bitreversal_f32(
  45:../Dave/Generated/CMSIS_DSP/TransformFunctions/arm_cfft_radix2_f32.c ****     float32_t * pSrc,
  46:../Dave/Generated/CMSIS_DSP/TransformFunctions/arm_cfft_radix2_f32.c ****     uint16_t fftSize,
  47:../Dave/Generated/CMSIS_DSP/TransformFunctions/arm_cfft_radix2_f32.c ****     uint16_t bitRevFactor,
  48:../Dave/Generated/CMSIS_DSP/TransformFunctions/arm_cfft_radix2_f32.c ****     uint16_t * pBitRevTab);
  49:../Dave/Generated/CMSIS_DSP/TransformFunctions/arm_cfft_radix2_f32.c **** 
  50:../Dave/Generated/CMSIS_DSP/TransformFunctions/arm_cfft_radix2_f32.c **** /**
  51:../Dave/Generated/CMSIS_DSP/TransformFunctions/arm_cfft_radix2_f32.c **** * @ingroup groupTransforms
  52:../Dave/Generated/CMSIS_DSP/TransformFunctions/arm_cfft_radix2_f32.c **** */
  53:../Dave/Generated/CMSIS_DSP/TransformFunctions/arm_cfft_radix2_f32.c **** 
  54:../Dave/Generated/CMSIS_DSP/TransformFunctions/arm_cfft_radix2_f32.c **** /**
  55:../Dave/Generated/CMSIS_DSP/TransformFunctions/arm_cfft_radix2_f32.c **** * @addtogroup ComplexFFT
  56:../Dave/Generated/CMSIS_DSP/TransformFunctions/arm_cfft_radix2_f32.c **** * @{
  57:../Dave/Generated/CMSIS_DSP/TransformFunctions/arm_cfft_radix2_f32.c **** */
  58:../Dave/Generated/CMSIS_DSP/TransformFunctions/arm_cfft_radix2_f32.c **** 
  59:../Dave/Generated/CMSIS_DSP/TransformFunctions/arm_cfft_radix2_f32.c **** /**
  60:../Dave/Generated/CMSIS_DSP/TransformFunctions/arm_cfft_radix2_f32.c **** * @details
  61:../Dave/Generated/CMSIS_DSP/TransformFunctions/arm_cfft_radix2_f32.c **** * @brief Radix-2 CFFT/CIFFT.
  62:../Dave/Generated/CMSIS_DSP/TransformFunctions/arm_cfft_radix2_f32.c **** * @deprecated Do not use this function.  It has been superseded by \ref arm_cfft_f32 and will be re
  63:../Dave/Generated/CMSIS_DSP/TransformFunctions/arm_cfft_radix2_f32.c **** * in the future.
  64:../Dave/Generated/CMSIS_DSP/TransformFunctions/arm_cfft_radix2_f32.c **** * @param[in]      *S    points to an instance of the floating-point Radix-2 CFFT/CIFFT structure.
  65:../Dave/Generated/CMSIS_DSP/TransformFunctions/arm_cfft_radix2_f32.c **** * @param[in, out] *pSrc points to the complex data buffer of size <code>2*fftLen</code>. Processing
  66:../Dave/Generated/CMSIS_DSP/TransformFunctions/arm_cfft_radix2_f32.c **** * @return none.
  67:../Dave/Generated/CMSIS_DSP/TransformFunctions/arm_cfft_radix2_f32.c **** */
  68:../Dave/Generated/CMSIS_DSP/TransformFunctions/arm_cfft_radix2_f32.c **** 
  69:../Dave/Generated/CMSIS_DSP/TransformFunctions/arm_cfft_radix2_f32.c **** void arm_cfft_radix2_f32(
  70:../Dave/Generated/CMSIS_DSP/TransformFunctions/arm_cfft_radix2_f32.c **** const arm_cfft_radix2_instance_f32 * S,
  71:../Dave/Generated/CMSIS_DSP/TransformFunctions/arm_cfft_radix2_f32.c **** float32_t * pSrc)
  72:../Dave/Generated/CMSIS_DSP/TransformFunctions/arm_cfft_radix2_f32.c **** {
  73:../Dave/Generated/CMSIS_DSP/TransformFunctions/arm_cfft_radix2_f32.c **** 
  74:../Dave/Generated/CMSIS_DSP/TransformFunctions/arm_cfft_radix2_f32.c ****    if (S->ifftFlag == 1u)
  75:../Dave/Generated/CMSIS_DSP/TransformFunctions/arm_cfft_radix2_f32.c ****    {
  76:../Dave/Generated/CMSIS_DSP/TransformFunctions/arm_cfft_radix2_f32.c ****       /*  Complex IFFT radix-2  */
  77:../Dave/Generated/CMSIS_DSP/TransformFunctions/arm_cfft_radix2_f32.c ****       arm_radix2_butterfly_inverse_f32(pSrc, S->fftLen, S->pTwiddle,
  78:../Dave/Generated/CMSIS_DSP/TransformFunctions/arm_cfft_radix2_f32.c ****       S->twidCoefModifier, S->onebyfftLen);
  79:../Dave/Generated/CMSIS_DSP/TransformFunctions/arm_cfft_radix2_f32.c ****    }
  80:../Dave/Generated/CMSIS_DSP/TransformFunctions/arm_cfft_radix2_f32.c ****    else
  81:../Dave/Generated/CMSIS_DSP/TransformFunctions/arm_cfft_radix2_f32.c ****    {
  82:../Dave/Generated/CMSIS_DSP/TransformFunctions/arm_cfft_radix2_f32.c ****       /*  Complex FFT radix-2  */
  83:../Dave/Generated/CMSIS_DSP/TransformFunctions/arm_cfft_radix2_f32.c ****       arm_radix2_butterfly_f32(pSrc, S->fftLen, S->pTwiddle,
  84:../Dave/Generated/CMSIS_DSP/TransformFunctions/arm_cfft_radix2_f32.c ****       S->twidCoefModifier);
  85:../Dave/Generated/CMSIS_DSP/TransformFunctions/arm_cfft_radix2_f32.c ****    }
  86:../Dave/Generated/CMSIS_DSP/TransformFunctions/arm_cfft_radix2_f32.c **** 
  87:../Dave/Generated/CMSIS_DSP/TransformFunctions/arm_cfft_radix2_f32.c ****    if (S->bitReverseFlag == 1u)
  88:../Dave/Generated/CMSIS_DSP/TransformFunctions/arm_cfft_radix2_f32.c ****    {
  89:../Dave/Generated/CMSIS_DSP/TransformFunctions/arm_cfft_radix2_f32.c ****       /*  Bit Reversal */
  90:../Dave/Generated/CMSIS_DSP/TransformFunctions/arm_cfft_radix2_f32.c ****       arm_bitreversal_f32(pSrc, S->fftLen, S->bitRevFactor, S->pBitRevTable);
  91:../Dave/Generated/CMSIS_DSP/TransformFunctions/arm_cfft_radix2_f32.c ****    }
  92:../Dave/Generated/CMSIS_DSP/TransformFunctions/arm_cfft_radix2_f32.c **** 
  93:../Dave/Generated/CMSIS_DSP/TransformFunctions/arm_cfft_radix2_f32.c **** }
  94:../Dave/Generated/CMSIS_DSP/TransformFunctions/arm_cfft_radix2_f32.c **** 
  95:../Dave/Generated/CMSIS_DSP/TransformFunctions/arm_cfft_radix2_f32.c **** 
  96:../Dave/Generated/CMSIS_DSP/TransformFunctions/arm_cfft_radix2_f32.c **** /**
  97:../Dave/Generated/CMSIS_DSP/TransformFunctions/arm_cfft_radix2_f32.c **** * @} end of ComplexFFT group
  98:../Dave/Generated/CMSIS_DSP/TransformFunctions/arm_cfft_radix2_f32.c **** */
  99:../Dave/Generated/CMSIS_DSP/TransformFunctions/arm_cfft_radix2_f32.c **** 
 100:../Dave/Generated/CMSIS_DSP/TransformFunctions/arm_cfft_radix2_f32.c **** 
 101:../Dave/Generated/CMSIS_DSP/TransformFunctions/arm_cfft_radix2_f32.c **** 
 102:../Dave/Generated/CMSIS_DSP/TransformFunctions/arm_cfft_radix2_f32.c **** /* ----------------------------------------------------------------------
 103:../Dave/Generated/CMSIS_DSP/TransformFunctions/arm_cfft_radix2_f32.c **** ** Internal helper function used by the FFTs
 104:../Dave/Generated/CMSIS_DSP/TransformFunctions/arm_cfft_radix2_f32.c **** ** ------------------------------------------------------------------- */
 105:../Dave/Generated/CMSIS_DSP/TransformFunctions/arm_cfft_radix2_f32.c **** 
 106:../Dave/Generated/CMSIS_DSP/TransformFunctions/arm_cfft_radix2_f32.c **** /*
 107:../Dave/Generated/CMSIS_DSP/TransformFunctions/arm_cfft_radix2_f32.c **** * @brief  Core function for the floating-point CFFT butterfly process.
 108:../Dave/Generated/CMSIS_DSP/TransformFunctions/arm_cfft_radix2_f32.c **** * @param[in, out] *pSrc            points to the in-place buffer of floating-point data type.
 109:../Dave/Generated/CMSIS_DSP/TransformFunctions/arm_cfft_radix2_f32.c **** * @param[in]      fftLen           length of the FFT.
 110:../Dave/Generated/CMSIS_DSP/TransformFunctions/arm_cfft_radix2_f32.c **** * @param[in]      *pCoef           points to the twiddle coefficient buffer.
 111:../Dave/Generated/CMSIS_DSP/TransformFunctions/arm_cfft_radix2_f32.c **** * @param[in]      twidCoefModifier twiddle coefficient modifier that supports different size FFTs w
 112:../Dave/Generated/CMSIS_DSP/TransformFunctions/arm_cfft_radix2_f32.c **** * @return none.
 113:../Dave/Generated/CMSIS_DSP/TransformFunctions/arm_cfft_radix2_f32.c **** */
 114:../Dave/Generated/CMSIS_DSP/TransformFunctions/arm_cfft_radix2_f32.c **** 
 115:../Dave/Generated/CMSIS_DSP/TransformFunctions/arm_cfft_radix2_f32.c **** void arm_radix2_butterfly_f32(
 116:../Dave/Generated/CMSIS_DSP/TransformFunctions/arm_cfft_radix2_f32.c **** float32_t * pSrc,
 117:../Dave/Generated/CMSIS_DSP/TransformFunctions/arm_cfft_radix2_f32.c **** uint32_t fftLen,
 118:../Dave/Generated/CMSIS_DSP/TransformFunctions/arm_cfft_radix2_f32.c **** float32_t * pCoef,
 119:../Dave/Generated/CMSIS_DSP/TransformFunctions/arm_cfft_radix2_f32.c **** uint16_t twidCoefModifier)
 120:../Dave/Generated/CMSIS_DSP/TransformFunctions/arm_cfft_radix2_f32.c **** {
  28              	 .loc 1 120 0
  29              	 .cfi_startproc
  30              	 
  31              	 
  32              	.LVL0:
  33 0000 2DE9F04F 	 push {r4,r5,r6,r7,r8,r9,r10,fp,lr}
  34              	.LCFI0:
  35              	 .cfi_def_cfa_offset 36
  36              	 .cfi_offset 4,-36
  37              	 .cfi_offset 5,-32
  38              	 .cfi_offset 6,-28
  39              	 .cfi_offset 7,-24
  40              	 .cfi_offset 8,-20
  41              	 .cfi_offset 9,-16
  42              	 .cfi_offset 10,-12
  43              	 .cfi_offset 11,-8
  44              	 .cfi_offset 14,-4
  45 0004 85B0     	 sub sp,sp,#20
  46              	.LCFI1:
  47              	 .cfi_def_cfa_offset 56
 121:../Dave/Generated/CMSIS_DSP/TransformFunctions/arm_cfft_radix2_f32.c **** 
 122:../Dave/Generated/CMSIS_DSP/TransformFunctions/arm_cfft_radix2_f32.c ****    uint32_t i, j, k, l;
 123:../Dave/Generated/CMSIS_DSP/TransformFunctions/arm_cfft_radix2_f32.c ****    uint32_t n1, n2, ia;
 124:../Dave/Generated/CMSIS_DSP/TransformFunctions/arm_cfft_radix2_f32.c ****    float32_t xt, yt, cosVal, sinVal;
 125:../Dave/Generated/CMSIS_DSP/TransformFunctions/arm_cfft_radix2_f32.c ****    float32_t p0, p1, p2, p3;
 126:../Dave/Generated/CMSIS_DSP/TransformFunctions/arm_cfft_radix2_f32.c ****    float32_t a0, a1;
 127:../Dave/Generated/CMSIS_DSP/TransformFunctions/arm_cfft_radix2_f32.c **** 
 128:../Dave/Generated/CMSIS_DSP/TransformFunctions/arm_cfft_radix2_f32.c **** #if defined (ARM_MATH_DSP)
 129:../Dave/Generated/CMSIS_DSP/TransformFunctions/arm_cfft_radix2_f32.c **** 
 130:../Dave/Generated/CMSIS_DSP/TransformFunctions/arm_cfft_radix2_f32.c ****    /*  Initializations for the first stage */
 131:../Dave/Generated/CMSIS_DSP/TransformFunctions/arm_cfft_radix2_f32.c ****    n2 = fftLen >> 1;
 132:../Dave/Generated/CMSIS_DSP/TransformFunctions/arm_cfft_radix2_f32.c ****    ia = 0;
 133:../Dave/Generated/CMSIS_DSP/TransformFunctions/arm_cfft_radix2_f32.c ****    i = 0;
 134:../Dave/Generated/CMSIS_DSP/TransformFunctions/arm_cfft_radix2_f32.c **** 
 135:../Dave/Generated/CMSIS_DSP/TransformFunctions/arm_cfft_radix2_f32.c ****    // loop for groups
 136:../Dave/Generated/CMSIS_DSP/TransformFunctions/arm_cfft_radix2_f32.c ****    for (k = n2; k > 0; k--)
  48              	 .loc 1 136 0
  49 0006 4E08     	 lsrs r6,r1,#1
  50              	.LVL1:
 120:../Dave/Generated/CMSIS_DSP/TransformFunctions/arm_cfft_radix2_f32.c **** 
  51              	 .loc 1 120 0
  52 0008 0290     	 str r0,[sp,#8]
  53 000a 0392     	 str r2,[sp,#12]
  54              	 .loc 1 136 0
  55 000c 00F08B80 	 beq .L19
  56 0010 F500     	 lsls r5,r6,#3
  57 0012 0446     	 mov r4,r0
  58 0014 00EB050C 	 add ip,r0,r5
  59 0018 0246     	 mov r2,r0
  60              	.LVL2:
  61 001a 281D     	 adds r0,r5,#4
  62              	.LVL3:
  63 001c 2044     	 add r0,r0,r4
  64 001e 271D     	 adds r7,r4,#4
  65 0020 039C     	 ldr r4,[sp,#12]
  66 0022 E646     	 mov lr,ip
  67 0024 4FEAC308 	 lsl r8,r3,#3
  68              	.LVL4:
  69              	.L5:
 137:../Dave/Generated/CMSIS_DSP/TransformFunctions/arm_cfft_radix2_f32.c ****    {
 138:../Dave/Generated/CMSIS_DSP/TransformFunctions/arm_cfft_radix2_f32.c ****       cosVal = pCoef[ia * 2];
 139:../Dave/Generated/CMSIS_DSP/TransformFunctions/arm_cfft_radix2_f32.c ****       sinVal = pCoef[(ia * 2) + 1];
 140:../Dave/Generated/CMSIS_DSP/TransformFunctions/arm_cfft_radix2_f32.c **** 
 141:../Dave/Generated/CMSIS_DSP/TransformFunctions/arm_cfft_radix2_f32.c ****       /*  Twiddle coefficients index modifier */
 142:../Dave/Generated/CMSIS_DSP/TransformFunctions/arm_cfft_radix2_f32.c ****       ia += twidCoefModifier;
 143:../Dave/Generated/CMSIS_DSP/TransformFunctions/arm_cfft_radix2_f32.c **** 
 144:../Dave/Generated/CMSIS_DSP/TransformFunctions/arm_cfft_radix2_f32.c ****       /*  index calculation for the input as, */
 145:../Dave/Generated/CMSIS_DSP/TransformFunctions/arm_cfft_radix2_f32.c ****       /*  pSrc[i + 0], pSrc[i + fftLen/1] */
 146:../Dave/Generated/CMSIS_DSP/TransformFunctions/arm_cfft_radix2_f32.c ****       l = i + n2;
 147:../Dave/Generated/CMSIS_DSP/TransformFunctions/arm_cfft_radix2_f32.c **** 
 148:../Dave/Generated/CMSIS_DSP/TransformFunctions/arm_cfft_radix2_f32.c ****       /*  Butterfly implementation */
 149:../Dave/Generated/CMSIS_DSP/TransformFunctions/arm_cfft_radix2_f32.c ****       a0 = pSrc[2 * i] + pSrc[2 * l];
 150:../Dave/Generated/CMSIS_DSP/TransformFunctions/arm_cfft_radix2_f32.c ****       xt = pSrc[2 * i] - pSrc[2 * l];
 151:../Dave/Generated/CMSIS_DSP/TransformFunctions/arm_cfft_radix2_f32.c **** 
 152:../Dave/Generated/CMSIS_DSP/TransformFunctions/arm_cfft_radix2_f32.c ****       yt = pSrc[2 * i + 1] - pSrc[2 * l + 1];
  70              	 .loc 1 152 0 discriminator 3
  71 0028 92ED017A 	 flds s14,[r2,#4]
 149:../Dave/Generated/CMSIS_DSP/TransformFunctions/arm_cfft_radix2_f32.c ****       xt = pSrc[2 * i] - pSrc[2 * l];
  72              	 .loc 1 149 0 discriminator 3
  73 002c 17ED016A 	 flds s12,[r7,#-4]
  74 0030 50ED016A 	 flds s13,[r0,#-4]
  75              	 .loc 1 152 0 discriminator 3
  76 0034 DEED017A 	 flds s15,[lr,#4]
 139:../Dave/Generated/CMSIS_DSP/TransformFunctions/arm_cfft_radix2_f32.c **** 
  77              	 .loc 1 139 0 discriminator 3
  78 0038 D4ED015A 	 flds s11,[r4,#4]
 138:../Dave/Generated/CMSIS_DSP/TransformFunctions/arm_cfft_radix2_f32.c ****       sinVal = pCoef[(ia * 2) + 1];
  79              	 .loc 1 138 0 discriminator 3
  80 003c D4ED004A 	 flds s9,[r4]
  81              	.LVL5:
 150:../Dave/Generated/CMSIS_DSP/TransformFunctions/arm_cfft_radix2_f32.c **** 
  82              	 .loc 1 150 0 discriminator 3
  83 0040 36EE664A 	 fsubs s8,s12,s13
  84              	.LVL6:
  85              	 .loc 1 152 0 discriminator 3
  86 0044 77EE673A 	 fsubs s7,s14,s15
  87              	.LVL7:
  88 0048 25EEC45A 	 fnmuls s10,s11,s8
 153:../Dave/Generated/CMSIS_DSP/TransformFunctions/arm_cfft_radix2_f32.c ****       a1 = pSrc[2 * l + 1] + pSrc[2 * i + 1];
 154:../Dave/Generated/CMSIS_DSP/TransformFunctions/arm_cfft_radix2_f32.c **** 
 155:../Dave/Generated/CMSIS_DSP/TransformFunctions/arm_cfft_radix2_f32.c ****       p0 = xt * cosVal;
 156:../Dave/Generated/CMSIS_DSP/TransformFunctions/arm_cfft_radix2_f32.c ****       p1 = yt * sinVal;
  89              	 .loc 1 156 0 discriminator 3
  90 004c 63EEA55A 	 fmuls s11,s7,s11
  91              	.LVL8:
 157:../Dave/Generated/CMSIS_DSP/TransformFunctions/arm_cfft_radix2_f32.c ****       p2 = yt * cosVal;
 158:../Dave/Generated/CMSIS_DSP/TransformFunctions/arm_cfft_radix2_f32.c ****       p3 = xt * sinVal;
 159:../Dave/Generated/CMSIS_DSP/TransformFunctions/arm_cfft_radix2_f32.c **** 
 160:../Dave/Generated/CMSIS_DSP/TransformFunctions/arm_cfft_radix2_f32.c ****       pSrc[2 * i]     = a0;
 161:../Dave/Generated/CMSIS_DSP/TransformFunctions/arm_cfft_radix2_f32.c ****       pSrc[2 * i + 1] = a1;
 162:../Dave/Generated/CMSIS_DSP/TransformFunctions/arm_cfft_radix2_f32.c **** 
 163:../Dave/Generated/CMSIS_DSP/TransformFunctions/arm_cfft_radix2_f32.c ****       pSrc[2 * l]     = p0 + p1;
 164:../Dave/Generated/CMSIS_DSP/TransformFunctions/arm_cfft_radix2_f32.c ****       pSrc[2 * l + 1] = p2 - p3;
  92              	 .loc 1 164 0 discriminator 3
  93 0050 A3EEA45A 	 vfma.f32 s10,s7,s9
  94 0054 0832     	 adds r2,r2,#8
  95 0056 4444     	 add r4,r4,r8
  96              	.LVL9:
 163:../Dave/Generated/CMSIS_DSP/TransformFunctions/arm_cfft_radix2_f32.c ****       pSrc[2 * l + 1] = p2 - p3;
  97              	 .loc 1 163 0 discriminator 3
  98 0058 E4EE245A 	 vfma.f32 s11,s8,s9
  99              	.LVL10:
 100 005c 0837     	 adds r7,r7,#8
 101 005e 0830     	 adds r0,r0,#8
 149:../Dave/Generated/CMSIS_DSP/TransformFunctions/arm_cfft_radix2_f32.c ****       xt = pSrc[2 * i] - pSrc[2 * l];
 102              	 .loc 1 149 0 discriminator 3
 103 0060 76EE266A 	 fadds s13,s12,s13
 104              	.LVL11:
 153:../Dave/Generated/CMSIS_DSP/TransformFunctions/arm_cfft_radix2_f32.c **** 
 105              	 .loc 1 153 0 discriminator 3
 106 0064 77EE277A 	 fadds s15,s14,s15
 107              	.LVL12:
 160:../Dave/Generated/CMSIS_DSP/TransformFunctions/arm_cfft_radix2_f32.c ****       pSrc[2 * i + 1] = a1;
 108              	 .loc 1 160 0 discriminator 3
 109 0068 47ED036A 	 fsts s13,[r7,#-12]
 161:../Dave/Generated/CMSIS_DSP/TransformFunctions/arm_cfft_radix2_f32.c **** 
 110              	 .loc 1 161 0 discriminator 3
 111 006c 42ED017A 	 fsts s15,[r2,#-4]
 136:../Dave/Generated/CMSIS_DSP/TransformFunctions/arm_cfft_radix2_f32.c ****    {
 112              	 .loc 1 136 0 discriminator 3
 113 0070 9445     	 cmp ip,r2
 163:../Dave/Generated/CMSIS_DSP/TransformFunctions/arm_cfft_radix2_f32.c ****       pSrc[2 * l + 1] = p2 - p3;
 114              	 .loc 1 163 0 discriminator 3
 115 0072 40ED035A 	 fsts s11,[r0,#-12]
 116 0076 0EF1080E 	 add lr,lr,#8
 117              	 .loc 1 164 0 discriminator 3
 118 007a 0EED015A 	 fsts s10,[lr,#-4]
 136:../Dave/Generated/CMSIS_DSP/TransformFunctions/arm_cfft_radix2_f32.c ****    {
 119              	 .loc 1 136 0 discriminator 3
 120 007e D3D1     	 bne .L5
 165:../Dave/Generated/CMSIS_DSP/TransformFunctions/arm_cfft_radix2_f32.c **** 
 166:../Dave/Generated/CMSIS_DSP/TransformFunctions/arm_cfft_radix2_f32.c ****       i++;
 167:../Dave/Generated/CMSIS_DSP/TransformFunctions/arm_cfft_radix2_f32.c ****    }                             // groups loop end
 168:../Dave/Generated/CMSIS_DSP/TransformFunctions/arm_cfft_radix2_f32.c **** 
 169:../Dave/Generated/CMSIS_DSP/TransformFunctions/arm_cfft_radix2_f32.c ****    twidCoefModifier <<= 1u;
 121              	 .loc 1 169 0
 122 0080 5B00     	 lsls r3,r3,#1
 123              	.LVL13:
 170:../Dave/Generated/CMSIS_DSP/TransformFunctions/arm_cfft_radix2_f32.c **** 
 171:../Dave/Generated/CMSIS_DSP/TransformFunctions/arm_cfft_radix2_f32.c ****    // loop for stage
 172:../Dave/Generated/CMSIS_DSP/TransformFunctions/arm_cfft_radix2_f32.c ****    for (k = n2; k > 2; k = k >> 1)
 124              	 .loc 1 172 0
 125 0082 022E     	 cmp r6,#2
 169:../Dave/Generated/CMSIS_DSP/TransformFunctions/arm_cfft_radix2_f32.c **** 
 126              	 .loc 1 169 0
 127 0084 1FFA83FB 	 uxth fp,r3
 128              	.LVL14:
 129              	 .loc 1 172 0
 130 0088 4ED9     	 bls .L3
 131 008a 0196     	 str r6,[sp,#4]
 132              	.LVL15:
 133              	.L9:
 173:../Dave/Generated/CMSIS_DSP/TransformFunctions/arm_cfft_radix2_f32.c ****    {
 174:../Dave/Generated/CMSIS_DSP/TransformFunctions/arm_cfft_radix2_f32.c ****       n1 = n2;
 175:../Dave/Generated/CMSIS_DSP/TransformFunctions/arm_cfft_radix2_f32.c ****       n2 = n2 >> 1;
 134              	 .loc 1 175 0
 135 008c 4FEA5608 	 lsr r8,r6,#1
 136              	.LVL16:
 137 0090 029F     	 ldr r7,[sp,#8]
 138 0092 DDF80CC0 	 ldr ip,[sp,#12]
 139 0096 4FEAC80A 	 lsl r10,r8,#3
 140 009a 4FEACB09 	 lsl r9,fp,#3
 176:../Dave/Generated/CMSIS_DSP/TransformFunctions/arm_cfft_radix2_f32.c ****       ia = 0;
 177:../Dave/Generated/CMSIS_DSP/TransformFunctions/arm_cfft_radix2_f32.c **** 
 178:../Dave/Generated/CMSIS_DSP/TransformFunctions/arm_cfft_radix2_f32.c ****       // loop for groups
 179:../Dave/Generated/CMSIS_DSP/TransformFunctions/arm_cfft_radix2_f32.c ****       j = 0;
 141              	 .loc 1 179 0
 142 009e 4FF0000E 	 mov lr,#0
 143              	.LVL17:
 144              	.L8:
 180:../Dave/Generated/CMSIS_DSP/TransformFunctions/arm_cfft_radix2_f32.c ****       do
 181:../Dave/Generated/CMSIS_DSP/TransformFunctions/arm_cfft_radix2_f32.c ****       {
 182:../Dave/Generated/CMSIS_DSP/TransformFunctions/arm_cfft_radix2_f32.c ****          cosVal = pCoef[ia * 2];
 145              	 .loc 1 182 0
 146 00a2 9CED003A 	 flds s6,[ip]
 147              	.LVL18:
 183:../Dave/Generated/CMSIS_DSP/TransformFunctions/arm_cfft_radix2_f32.c ****          sinVal = pCoef[(ia * 2) + 1];
 148              	 .loc 1 183 0
 149 00a6 DCED013A 	 flds s7,[ip,#4]
 150              	.LVL19:
 151 00aa 07EB0A03 	 add r3,r7,r10
 152 00ae 381D     	 adds r0,r7,#4
 153 00b0 3A46     	 mov r2,r7
 184:../Dave/Generated/CMSIS_DSP/TransformFunctions/arm_cfft_radix2_f32.c ****          ia += twidCoefModifier;
 185:../Dave/Generated/CMSIS_DSP/TransformFunctions/arm_cfft_radix2_f32.c **** 
 186:../Dave/Generated/CMSIS_DSP/TransformFunctions/arm_cfft_radix2_f32.c ****          // loop for butterfly
 187:../Dave/Generated/CMSIS_DSP/TransformFunctions/arm_cfft_radix2_f32.c ****          i = j;
 154              	 .loc 1 187 0
 155 00b2 7446     	 mov r4,lr
 156              	.LVL20:
 157              	.L7:
 188:../Dave/Generated/CMSIS_DSP/TransformFunctions/arm_cfft_radix2_f32.c ****          do
 189:../Dave/Generated/CMSIS_DSP/TransformFunctions/arm_cfft_radix2_f32.c ****          {
 190:../Dave/Generated/CMSIS_DSP/TransformFunctions/arm_cfft_radix2_f32.c ****             l = i + n2;
 191:../Dave/Generated/CMSIS_DSP/TransformFunctions/arm_cfft_radix2_f32.c ****             a0 = pSrc[2 * i] + pSrc[2 * l];
 158              	 .loc 1 191 0 discriminator 1
 159 00b4 10ED016A 	 flds s12,[r0,#-4]
 192:../Dave/Generated/CMSIS_DSP/TransformFunctions/arm_cfft_radix2_f32.c ****             xt = pSrc[2 * i] - pSrc[2 * l];
 193:../Dave/Generated/CMSIS_DSP/TransformFunctions/arm_cfft_radix2_f32.c **** 
 194:../Dave/Generated/CMSIS_DSP/TransformFunctions/arm_cfft_radix2_f32.c ****             yt = pSrc[2 * i + 1] - pSrc[2 * l + 1];
 160              	 .loc 1 194 0 discriminator 1
 161 00b8 92ED017A 	 flds s14,[r2,#4]
 191:../Dave/Generated/CMSIS_DSP/TransformFunctions/arm_cfft_radix2_f32.c ****             xt = pSrc[2 * i] - pSrc[2 * l];
 162              	 .loc 1 191 0 discriminator 1
 163 00bc D3ED006A 	 flds s13,[r3]
 164              	.LVL21:
 165              	 .loc 1 194 0 discriminator 1
 166 00c0 D3ED017A 	 flds s15,[r3,#4]
 167              	.LVL22:
 192:../Dave/Generated/CMSIS_DSP/TransformFunctions/arm_cfft_radix2_f32.c ****             xt = pSrc[2 * i] - pSrc[2 * l];
 168              	 .loc 1 192 0 discriminator 1
 169 00c4 76EE664A 	 fsubs s9,s12,s13
 170              	.LVL23:
 171              	 .loc 1 194 0 discriminator 1
 172 00c8 37EE674A 	 fsubs s8,s14,s15
 173              	.LVL24:
 174 00cc 63EEE45A 	 fnmuls s11,s7,s9
 195:../Dave/Generated/CMSIS_DSP/TransformFunctions/arm_cfft_radix2_f32.c ****             a1 = pSrc[2 * l + 1] + pSrc[2 * i + 1];
 196:../Dave/Generated/CMSIS_DSP/TransformFunctions/arm_cfft_radix2_f32.c **** 
 197:../Dave/Generated/CMSIS_DSP/TransformFunctions/arm_cfft_radix2_f32.c ****             p0 = xt * cosVal;
 198:../Dave/Generated/CMSIS_DSP/TransformFunctions/arm_cfft_radix2_f32.c ****             p1 = yt * sinVal;
 175              	 .loc 1 198 0 discriminator 1
 176 00d0 24EE235A 	 fmuls s10,s8,s7
 177              	.LVL25:
 199:../Dave/Generated/CMSIS_DSP/TransformFunctions/arm_cfft_radix2_f32.c ****             p2 = yt * cosVal;
 200:../Dave/Generated/CMSIS_DSP/TransformFunctions/arm_cfft_radix2_f32.c ****             p3 = xt * sinVal;
 201:../Dave/Generated/CMSIS_DSP/TransformFunctions/arm_cfft_radix2_f32.c **** 
 202:../Dave/Generated/CMSIS_DSP/TransformFunctions/arm_cfft_radix2_f32.c ****             pSrc[2 * i] = a0;
 203:../Dave/Generated/CMSIS_DSP/TransformFunctions/arm_cfft_radix2_f32.c ****             pSrc[2 * i + 1] = a1;
 204:../Dave/Generated/CMSIS_DSP/TransformFunctions/arm_cfft_radix2_f32.c **** 
 205:../Dave/Generated/CMSIS_DSP/TransformFunctions/arm_cfft_radix2_f32.c ****             pSrc[2 * l]     = p0 + p1;
 206:../Dave/Generated/CMSIS_DSP/TransformFunctions/arm_cfft_radix2_f32.c ****             pSrc[2 * l + 1] = p2 - p3;
 178              	 .loc 1 206 0 discriminator 1
 179 00d4 E4EE035A 	 vfma.f32 s11,s8,s6
 207:../Dave/Generated/CMSIS_DSP/TransformFunctions/arm_cfft_radix2_f32.c **** 
 208:../Dave/Generated/CMSIS_DSP/TransformFunctions/arm_cfft_radix2_f32.c ****             i += n1;
 180              	 .loc 1 208 0 discriminator 1
 181 00d8 3444     	 add r4,r4,r6
 182              	.LVL26:
 209:../Dave/Generated/CMSIS_DSP/TransformFunctions/arm_cfft_radix2_f32.c ****          } while ( i < fftLen );                        // butterfly loop end
 183              	 .loc 1 209 0 discriminator 1
 184 00da A142     	 cmp r1,r4
 205:../Dave/Generated/CMSIS_DSP/TransformFunctions/arm_cfft_radix2_f32.c ****             pSrc[2 * l + 1] = p2 - p3;
 185              	 .loc 1 205 0 discriminator 1
 186 00dc A4EE835A 	 vfma.f32 s10,s9,s6
 187              	.LVL27:
 191:../Dave/Generated/CMSIS_DSP/TransformFunctions/arm_cfft_radix2_f32.c ****             xt = pSrc[2 * i] - pSrc[2 * l];
 188              	 .loc 1 191 0 discriminator 1
 189 00e0 76EE266A 	 fadds s13,s12,s13
 190              	.LVL28:
 195:../Dave/Generated/CMSIS_DSP/TransformFunctions/arm_cfft_radix2_f32.c **** 
 191              	 .loc 1 195 0 discriminator 1
 192 00e4 77EE277A 	 fadds s15,s14,s15
 193              	.LVL29:
 202:../Dave/Generated/CMSIS_DSP/TransformFunctions/arm_cfft_radix2_f32.c ****             pSrc[2 * i + 1] = a1;
 194              	 .loc 1 202 0 discriminator 1
 195 00e8 40ED016A 	 fsts s13,[r0,#-4]
 203:../Dave/Generated/CMSIS_DSP/TransformFunctions/arm_cfft_radix2_f32.c **** 
 196              	 .loc 1 203 0 discriminator 1
 197 00ec C2ED017A 	 fsts s15,[r2,#4]
 198 00f0 2844     	 add r0,r0,r5
 205:../Dave/Generated/CMSIS_DSP/TransformFunctions/arm_cfft_radix2_f32.c ****             pSrc[2 * l + 1] = p2 - p3;
 199              	 .loc 1 205 0 discriminator 1
 200 00f2 83ED005A 	 fsts s10,[r3]
 206:../Dave/Generated/CMSIS_DSP/TransformFunctions/arm_cfft_radix2_f32.c **** 
 201              	 .loc 1 206 0 discriminator 1
 202 00f6 C3ED015A 	 fsts s11,[r3,#4]
 203 00fa 2A44     	 add r2,r2,r5
 204 00fc 2B44     	 add r3,r3,r5
 205              	 .loc 1 209 0 discriminator 1
 206 00fe D9D8     	 bhi .L7
 210:../Dave/Generated/CMSIS_DSP/TransformFunctions/arm_cfft_radix2_f32.c ****          j++;
 207              	 .loc 1 210 0
 208 0100 0EF1010E 	 add lr,lr,#1
 209              	.LVL30:
 211:../Dave/Generated/CMSIS_DSP/TransformFunctions/arm_cfft_radix2_f32.c ****       } while ( j < n2);                          // groups loop end
 210              	 .loc 1 211 0
 211 0104 F045     	 cmp r8,lr
 212 0106 CC44     	 add ip,ip,r9
 213 0108 07F10807 	 add r7,r7,#8
 214 010c C9D8     	 bhi .L8
 172:../Dave/Generated/CMSIS_DSP/TransformFunctions/arm_cfft_radix2_f32.c ****    {
 215              	 .loc 1 172 0 discriminator 2
 216 010e 019B     	 ldr r3,[sp,#4]
 217 0110 5B08     	 lsrs r3,r3,#1
 212:../Dave/Generated/CMSIS_DSP/TransformFunctions/arm_cfft_radix2_f32.c ****       twidCoefModifier <<= 1u;
 218              	 .loc 1 212 0 discriminator 2
 219 0112 4FEA4B0B 	 lsl fp,fp,#1
 220              	.LVL31:
 172:../Dave/Generated/CMSIS_DSP/TransformFunctions/arm_cfft_radix2_f32.c ****    {
 221              	 .loc 1 172 0 discriminator 2
 222 0116 022B     	 cmp r3,#2
 223 0118 0193     	 str r3,[sp,#4]
 224              	.LVL32:
 225              	 .loc 1 212 0 discriminator 2
 226 011a 1FFA8BFB 	 uxth fp,fp
 227              	.LVL33:
 228 011e 4646     	 mov r6,r8
 229              	.LVL34:
 172:../Dave/Generated/CMSIS_DSP/TransformFunctions/arm_cfft_radix2_f32.c ****    {
 230              	 .loc 1 172 0 discriminator 2
 231 0120 02D9     	 bls .L3
 232              	.LVL35:
 233 0122 F500     	 lsls r5,r6,#3
 234 0124 B2E7     	 b .L9
 235              	.LVL36:
 236              	.L19:
 213:../Dave/Generated/CMSIS_DSP/TransformFunctions/arm_cfft_radix2_f32.c ****    }                             // stages loop end
 214:../Dave/Generated/CMSIS_DSP/TransformFunctions/arm_cfft_radix2_f32.c **** 
 215:../Dave/Generated/CMSIS_DSP/TransformFunctions/arm_cfft_radix2_f32.c ****    // loop for butterfly
 216:../Dave/Generated/CMSIS_DSP/TransformFunctions/arm_cfft_radix2_f32.c ****    for (i = 0; i < fftLen; i += 2)
 237              	 .loc 1 216 0
 238 0126 11B3     	 cbz r1,.L1
 239              	.LVL37:
 240              	.L3:
 241 0128 029B     	 ldr r3,[sp,#8]
 187:../Dave/Generated/CMSIS_DSP/TransformFunctions/arm_cfft_radix2_f32.c ****          do
 242              	 .loc 1 187 0
 243 012a 0020     	 movs r0,#0
 244 012c 03F10802 	 add r2,r3,#8
 245              	.LVL38:
 246              	.L10:
 217:../Dave/Generated/CMSIS_DSP/TransformFunctions/arm_cfft_radix2_f32.c ****    {
 218:../Dave/Generated/CMSIS_DSP/TransformFunctions/arm_cfft_radix2_f32.c ****       a0 = pSrc[2 * i] + pSrc[2 * i + 2];
 247              	 .loc 1 218 0 discriminator 3
 248 0130 12ED026A 	 flds s12,[r2,#-8]
 249 0134 D3ED026A 	 flds s13,[r3,#8]
 250              	.LVL39:
 219:../Dave/Generated/CMSIS_DSP/TransformFunctions/arm_cfft_radix2_f32.c ****       xt = pSrc[2 * i] - pSrc[2 * i + 2];
 220:../Dave/Generated/CMSIS_DSP/TransformFunctions/arm_cfft_radix2_f32.c **** 
 221:../Dave/Generated/CMSIS_DSP/TransformFunctions/arm_cfft_radix2_f32.c ****       yt = pSrc[2 * i + 1] - pSrc[2 * i + 3];
 251              	 .loc 1 221 0 discriminator 3
 252 0138 93ED017A 	 flds s14,[r3,#4]
 253 013c D3ED037A 	 flds s15,[r3,#12]
 254              	.LVL40:
 218:../Dave/Generated/CMSIS_DSP/TransformFunctions/arm_cfft_radix2_f32.c ****       xt = pSrc[2 * i] - pSrc[2 * i + 2];
 255              	 .loc 1 218 0 discriminator 3
 256 0140 76EE265A 	 fadds s11,s12,s13
 257              	.LVL41:
 216:../Dave/Generated/CMSIS_DSP/TransformFunctions/arm_cfft_radix2_f32.c ****    {
 258              	 .loc 1 216 0 discriminator 3
 259 0144 0230     	 adds r0,r0,#2
 260              	.LVL42:
 219:../Dave/Generated/CMSIS_DSP/TransformFunctions/arm_cfft_radix2_f32.c ****       xt = pSrc[2 * i] - pSrc[2 * i + 2];
 261              	 .loc 1 219 0 discriminator 3
 262 0146 76EE666A 	 fsubs s13,s12,s13
 263              	.LVL43:
 222:../Dave/Generated/CMSIS_DSP/TransformFunctions/arm_cfft_radix2_f32.c ****       a1 = pSrc[2 * i + 3] + pSrc[2 * i + 1];
 264              	 .loc 1 222 0 discriminator 3
 265 014a 37EE276A 	 fadds s12,s14,s15
 266              	.LVL44:
 221:../Dave/Generated/CMSIS_DSP/TransformFunctions/arm_cfft_radix2_f32.c ****       a1 = pSrc[2 * i + 3] + pSrc[2 * i + 1];
 267              	 .loc 1 221 0 discriminator 3
 268 014e 77EE677A 	 fsubs s15,s14,s15
 269              	.LVL45:
 216:../Dave/Generated/CMSIS_DSP/TransformFunctions/arm_cfft_radix2_f32.c ****    {
 270              	 .loc 1 216 0 discriminator 3
 271 0152 8142     	 cmp r1,r0
 223:../Dave/Generated/CMSIS_DSP/TransformFunctions/arm_cfft_radix2_f32.c **** 
 224:../Dave/Generated/CMSIS_DSP/TransformFunctions/arm_cfft_radix2_f32.c ****       pSrc[2 * i] = a0;
 272              	 .loc 1 224 0 discriminator 3
 273 0154 42ED025A 	 fsts s11,[r2,#-8]
 274 0158 03F11003 	 add r3,r3,#16
 225:../Dave/Generated/CMSIS_DSP/TransformFunctions/arm_cfft_radix2_f32.c ****       pSrc[2 * i + 1] = a1;
 226:../Dave/Generated/CMSIS_DSP/TransformFunctions/arm_cfft_radix2_f32.c ****       pSrc[2 * i + 2] = xt;
 275              	 .loc 1 226 0 discriminator 3
 276 015c 43ED026A 	 fsts s13,[r3,#-8]
 225:../Dave/Generated/CMSIS_DSP/TransformFunctions/arm_cfft_radix2_f32.c ****       pSrc[2 * i + 1] = a1;
 277              	 .loc 1 225 0 discriminator 3
 278 0160 03ED036A 	 fsts s12,[r3,#-12]
 227:../Dave/Generated/CMSIS_DSP/TransformFunctions/arm_cfft_radix2_f32.c ****       pSrc[2 * i + 3] = yt;
 279              	 .loc 1 227 0 discriminator 3
 280 0164 43ED017A 	 fsts s15,[r3,#-4]
 281 0168 02F11002 	 add r2,r2,#16
 216:../Dave/Generated/CMSIS_DSP/TransformFunctions/arm_cfft_radix2_f32.c ****    {
 282              	 .loc 1 216 0 discriminator 3
 283 016c E0D8     	 bhi .L10
 284              	.LVL46:
 285              	.L1:
 228:../Dave/Generated/CMSIS_DSP/TransformFunctions/arm_cfft_radix2_f32.c ****    }                             // groups loop end
 229:../Dave/Generated/CMSIS_DSP/TransformFunctions/arm_cfft_radix2_f32.c **** 
 230:../Dave/Generated/CMSIS_DSP/TransformFunctions/arm_cfft_radix2_f32.c **** #else
 231:../Dave/Generated/CMSIS_DSP/TransformFunctions/arm_cfft_radix2_f32.c **** 
 232:../Dave/Generated/CMSIS_DSP/TransformFunctions/arm_cfft_radix2_f32.c ****    n2 = fftLen;
 233:../Dave/Generated/CMSIS_DSP/TransformFunctions/arm_cfft_radix2_f32.c **** 
 234:../Dave/Generated/CMSIS_DSP/TransformFunctions/arm_cfft_radix2_f32.c ****    // loop for stage
 235:../Dave/Generated/CMSIS_DSP/TransformFunctions/arm_cfft_radix2_f32.c ****    for (k = fftLen; k > 1; k = k >> 1)
 236:../Dave/Generated/CMSIS_DSP/TransformFunctions/arm_cfft_radix2_f32.c ****    {
 237:../Dave/Generated/CMSIS_DSP/TransformFunctions/arm_cfft_radix2_f32.c ****       n1 = n2;
 238:../Dave/Generated/CMSIS_DSP/TransformFunctions/arm_cfft_radix2_f32.c ****       n2 = n2 >> 1;
 239:../Dave/Generated/CMSIS_DSP/TransformFunctions/arm_cfft_radix2_f32.c ****       ia = 0;
 240:../Dave/Generated/CMSIS_DSP/TransformFunctions/arm_cfft_radix2_f32.c **** 
 241:../Dave/Generated/CMSIS_DSP/TransformFunctions/arm_cfft_radix2_f32.c ****       // loop for groups
 242:../Dave/Generated/CMSIS_DSP/TransformFunctions/arm_cfft_radix2_f32.c ****       j = 0;
 243:../Dave/Generated/CMSIS_DSP/TransformFunctions/arm_cfft_radix2_f32.c ****       do
 244:../Dave/Generated/CMSIS_DSP/TransformFunctions/arm_cfft_radix2_f32.c ****       {
 245:../Dave/Generated/CMSIS_DSP/TransformFunctions/arm_cfft_radix2_f32.c ****          cosVal = pCoef[ia * 2];
 246:../Dave/Generated/CMSIS_DSP/TransformFunctions/arm_cfft_radix2_f32.c ****          sinVal = pCoef[(ia * 2) + 1];
 247:../Dave/Generated/CMSIS_DSP/TransformFunctions/arm_cfft_radix2_f32.c ****          ia += twidCoefModifier;
 248:../Dave/Generated/CMSIS_DSP/TransformFunctions/arm_cfft_radix2_f32.c **** 
 249:../Dave/Generated/CMSIS_DSP/TransformFunctions/arm_cfft_radix2_f32.c ****          // loop for butterfly
 250:../Dave/Generated/CMSIS_DSP/TransformFunctions/arm_cfft_radix2_f32.c ****          i = j;
 251:../Dave/Generated/CMSIS_DSP/TransformFunctions/arm_cfft_radix2_f32.c ****          do
 252:../Dave/Generated/CMSIS_DSP/TransformFunctions/arm_cfft_radix2_f32.c ****          {
 253:../Dave/Generated/CMSIS_DSP/TransformFunctions/arm_cfft_radix2_f32.c ****             l = i + n2;
 254:../Dave/Generated/CMSIS_DSP/TransformFunctions/arm_cfft_radix2_f32.c ****             a0 = pSrc[2 * i] + pSrc[2 * l];
 255:../Dave/Generated/CMSIS_DSP/TransformFunctions/arm_cfft_radix2_f32.c ****             xt = pSrc[2 * i] - pSrc[2 * l];
 256:../Dave/Generated/CMSIS_DSP/TransformFunctions/arm_cfft_radix2_f32.c **** 
 257:../Dave/Generated/CMSIS_DSP/TransformFunctions/arm_cfft_radix2_f32.c ****             yt = pSrc[2 * i + 1] - pSrc[2 * l + 1];
 258:../Dave/Generated/CMSIS_DSP/TransformFunctions/arm_cfft_radix2_f32.c ****             a1 = pSrc[2 * l + 1] + pSrc[2 * i + 1];
 259:../Dave/Generated/CMSIS_DSP/TransformFunctions/arm_cfft_radix2_f32.c **** 
 260:../Dave/Generated/CMSIS_DSP/TransformFunctions/arm_cfft_radix2_f32.c ****             p0 = xt * cosVal;
 261:../Dave/Generated/CMSIS_DSP/TransformFunctions/arm_cfft_radix2_f32.c ****             p1 = yt * sinVal;
 262:../Dave/Generated/CMSIS_DSP/TransformFunctions/arm_cfft_radix2_f32.c ****             p2 = yt * cosVal;
 263:../Dave/Generated/CMSIS_DSP/TransformFunctions/arm_cfft_radix2_f32.c ****             p3 = xt * sinVal;
 264:../Dave/Generated/CMSIS_DSP/TransformFunctions/arm_cfft_radix2_f32.c **** 
 265:../Dave/Generated/CMSIS_DSP/TransformFunctions/arm_cfft_radix2_f32.c ****             pSrc[2 * i] = a0;
 266:../Dave/Generated/CMSIS_DSP/TransformFunctions/arm_cfft_radix2_f32.c ****             pSrc[2 * i + 1] = a1;
 267:../Dave/Generated/CMSIS_DSP/TransformFunctions/arm_cfft_radix2_f32.c **** 
 268:../Dave/Generated/CMSIS_DSP/TransformFunctions/arm_cfft_radix2_f32.c ****             pSrc[2 * l]     = p0 + p1;
 269:../Dave/Generated/CMSIS_DSP/TransformFunctions/arm_cfft_radix2_f32.c ****             pSrc[2 * l + 1] = p2 - p3;
 270:../Dave/Generated/CMSIS_DSP/TransformFunctions/arm_cfft_radix2_f32.c **** 
 271:../Dave/Generated/CMSIS_DSP/TransformFunctions/arm_cfft_radix2_f32.c ****             i += n1;
 272:../Dave/Generated/CMSIS_DSP/TransformFunctions/arm_cfft_radix2_f32.c ****          } while (i < fftLen);
 273:../Dave/Generated/CMSIS_DSP/TransformFunctions/arm_cfft_radix2_f32.c ****          j++;
 274:../Dave/Generated/CMSIS_DSP/TransformFunctions/arm_cfft_radix2_f32.c ****       } while (j < n2);
 275:../Dave/Generated/CMSIS_DSP/TransformFunctions/arm_cfft_radix2_f32.c ****       twidCoefModifier <<= 1u;
 276:../Dave/Generated/CMSIS_DSP/TransformFunctions/arm_cfft_radix2_f32.c ****    }
 277:../Dave/Generated/CMSIS_DSP/TransformFunctions/arm_cfft_radix2_f32.c **** 
 278:../Dave/Generated/CMSIS_DSP/TransformFunctions/arm_cfft_radix2_f32.c **** #endif //    #if defined (ARM_MATH_DSP)
 279:../Dave/Generated/CMSIS_DSP/TransformFunctions/arm_cfft_radix2_f32.c **** 
 280:../Dave/Generated/CMSIS_DSP/TransformFunctions/arm_cfft_radix2_f32.c **** }
 286              	 .loc 1 280 0
 287 016e 05B0     	 add sp,sp,#20
 288              	.LCFI2:
 289              	 .cfi_def_cfa_offset 36
 290              	 
 291 0170 BDE8F08F 	 pop {r4,r5,r6,r7,r8,r9,r10,fp,pc}
 292              	 .cfi_endproc
 293              	.LFE136:
 295              	 .section .text.arm_radix2_butterfly_inverse_f32,"ax",%progbits
 296              	 .align 2
 297              	 .global arm_radix2_butterfly_inverse_f32
 298              	 .thumb
 299              	 .thumb_func
 301              	arm_radix2_butterfly_inverse_f32:
 302              	.LFB137:
 281:../Dave/Generated/CMSIS_DSP/TransformFunctions/arm_cfft_radix2_f32.c **** 
 282:../Dave/Generated/CMSIS_DSP/TransformFunctions/arm_cfft_radix2_f32.c **** 
 283:../Dave/Generated/CMSIS_DSP/TransformFunctions/arm_cfft_radix2_f32.c **** void arm_radix2_butterfly_inverse_f32(
 284:../Dave/Generated/CMSIS_DSP/TransformFunctions/arm_cfft_radix2_f32.c **** float32_t * pSrc,
 285:../Dave/Generated/CMSIS_DSP/TransformFunctions/arm_cfft_radix2_f32.c **** uint32_t fftLen,
 286:../Dave/Generated/CMSIS_DSP/TransformFunctions/arm_cfft_radix2_f32.c **** float32_t * pCoef,
 287:../Dave/Generated/CMSIS_DSP/TransformFunctions/arm_cfft_radix2_f32.c **** uint16_t twidCoefModifier,
 288:../Dave/Generated/CMSIS_DSP/TransformFunctions/arm_cfft_radix2_f32.c **** float32_t onebyfftLen)
 289:../Dave/Generated/CMSIS_DSP/TransformFunctions/arm_cfft_radix2_f32.c **** {
 303              	 .loc 1 289 0
 304              	 .cfi_startproc
 305              	 
 306              	 
 307              	.LVL47:
 308 0000 2DE9F04F 	 push {r4,r5,r6,r7,r8,r9,r10,fp,lr}
 309              	.LCFI3:
 310              	 .cfi_def_cfa_offset 36
 311              	 .cfi_offset 4,-36
 312              	 .cfi_offset 5,-32
 313              	 .cfi_offset 6,-28
 314              	 .cfi_offset 7,-24
 315              	 .cfi_offset 8,-20
 316              	 .cfi_offset 9,-16
 317              	 .cfi_offset 10,-12
 318              	 .cfi_offset 11,-8
 319              	 .cfi_offset 14,-4
 320 0004 85B0     	 sub sp,sp,#20
 321              	.LCFI4:
 322              	 .cfi_def_cfa_offset 56
 290:../Dave/Generated/CMSIS_DSP/TransformFunctions/arm_cfft_radix2_f32.c **** 
 291:../Dave/Generated/CMSIS_DSP/TransformFunctions/arm_cfft_radix2_f32.c ****    uint32_t i, j, k, l;
 292:../Dave/Generated/CMSIS_DSP/TransformFunctions/arm_cfft_radix2_f32.c ****    uint32_t n1, n2, ia;
 293:../Dave/Generated/CMSIS_DSP/TransformFunctions/arm_cfft_radix2_f32.c ****    float32_t xt, yt, cosVal, sinVal;
 294:../Dave/Generated/CMSIS_DSP/TransformFunctions/arm_cfft_radix2_f32.c ****    float32_t p0, p1, p2, p3;
 295:../Dave/Generated/CMSIS_DSP/TransformFunctions/arm_cfft_radix2_f32.c ****    float32_t a0, a1;
 296:../Dave/Generated/CMSIS_DSP/TransformFunctions/arm_cfft_radix2_f32.c **** 
 297:../Dave/Generated/CMSIS_DSP/TransformFunctions/arm_cfft_radix2_f32.c **** #if defined (ARM_MATH_DSP)
 298:../Dave/Generated/CMSIS_DSP/TransformFunctions/arm_cfft_radix2_f32.c **** 
 299:../Dave/Generated/CMSIS_DSP/TransformFunctions/arm_cfft_radix2_f32.c ****    n2 = fftLen >> 1;
 300:../Dave/Generated/CMSIS_DSP/TransformFunctions/arm_cfft_radix2_f32.c ****    ia = 0;
 301:../Dave/Generated/CMSIS_DSP/TransformFunctions/arm_cfft_radix2_f32.c **** 
 302:../Dave/Generated/CMSIS_DSP/TransformFunctions/arm_cfft_radix2_f32.c ****    // loop for groups
 303:../Dave/Generated/CMSIS_DSP/TransformFunctions/arm_cfft_radix2_f32.c ****    for (i = 0; i < n2; i++)
 323              	 .loc 1 303 0
 324 0006 4E08     	 lsrs r6,r1,#1
 325              	.LVL48:
 289:../Dave/Generated/CMSIS_DSP/TransformFunctions/arm_cfft_radix2_f32.c **** 
 326              	 .loc 1 289 0
 327 0008 0290     	 str r0,[sp,#8]
 328 000a 0392     	 str r2,[sp,#12]
 329 000c DDED0E2A 	 flds s5,[sp,#56]
 330              	 .loc 1 303 0
 331 0010 00F08B80 	 beq .L37
 332 0014 F500     	 lsls r5,r6,#3
 333 0016 0446     	 mov r4,r0
 334 0018 00EB050C 	 add ip,r0,r5
 335 001c 0246     	 mov r2,r0
 336              	.LVL49:
 337 001e 281D     	 adds r0,r5,#4
 338              	.LVL50:
 339 0020 2044     	 add r0,r0,r4
 340 0022 271D     	 adds r7,r4,#4
 341 0024 039C     	 ldr r4,[sp,#12]
 342 0026 E646     	 mov lr,ip
 343 0028 4FEAC308 	 lsl r8,r3,#3
 344              	.LVL51:
 345              	.L24:
 304:../Dave/Generated/CMSIS_DSP/TransformFunctions/arm_cfft_radix2_f32.c ****    {
 305:../Dave/Generated/CMSIS_DSP/TransformFunctions/arm_cfft_radix2_f32.c ****       cosVal = pCoef[ia * 2];
 306:../Dave/Generated/CMSIS_DSP/TransformFunctions/arm_cfft_radix2_f32.c ****       sinVal = pCoef[(ia * 2) + 1];
 307:../Dave/Generated/CMSIS_DSP/TransformFunctions/arm_cfft_radix2_f32.c ****       ia += twidCoefModifier;
 308:../Dave/Generated/CMSIS_DSP/TransformFunctions/arm_cfft_radix2_f32.c **** 
 309:../Dave/Generated/CMSIS_DSP/TransformFunctions/arm_cfft_radix2_f32.c ****       l = i + n2;
 310:../Dave/Generated/CMSIS_DSP/TransformFunctions/arm_cfft_radix2_f32.c ****       a0 = pSrc[2 * i] + pSrc[2 * l];
 311:../Dave/Generated/CMSIS_DSP/TransformFunctions/arm_cfft_radix2_f32.c ****       xt = pSrc[2 * i] - pSrc[2 * l];
 312:../Dave/Generated/CMSIS_DSP/TransformFunctions/arm_cfft_radix2_f32.c **** 
 313:../Dave/Generated/CMSIS_DSP/TransformFunctions/arm_cfft_radix2_f32.c ****       yt = pSrc[2 * i + 1] - pSrc[2 * l + 1];
 346              	 .loc 1 313 0 discriminator 3
 347 002c 92ED017A 	 flds s14,[r2,#4]
 310:../Dave/Generated/CMSIS_DSP/TransformFunctions/arm_cfft_radix2_f32.c ****       xt = pSrc[2 * i] - pSrc[2 * l];
 348              	 .loc 1 310 0 discriminator 3
 349 0030 17ED016A 	 flds s12,[r7,#-4]
 350 0034 50ED016A 	 flds s13,[r0,#-4]
 351              	 .loc 1 313 0 discriminator 3
 352 0038 DEED017A 	 flds s15,[lr,#4]
 306:../Dave/Generated/CMSIS_DSP/TransformFunctions/arm_cfft_radix2_f32.c ****       ia += twidCoefModifier;
 353              	 .loc 1 306 0 discriminator 3
 354 003c D4ED015A 	 flds s11,[r4,#4]
 305:../Dave/Generated/CMSIS_DSP/TransformFunctions/arm_cfft_radix2_f32.c ****       sinVal = pCoef[(ia * 2) + 1];
 355              	 .loc 1 305 0 discriminator 3
 356 0040 D4ED004A 	 flds s9,[r4]
 357              	.LVL52:
 311:../Dave/Generated/CMSIS_DSP/TransformFunctions/arm_cfft_radix2_f32.c **** 
 358              	 .loc 1 311 0 discriminator 3
 359 0044 36EE664A 	 fsubs s8,s12,s13
 360              	.LVL53:
 361              	 .loc 1 313 0 discriminator 3
 362 0048 77EE673A 	 fsubs s7,s14,s15
 363              	.LVL54:
 314:../Dave/Generated/CMSIS_DSP/TransformFunctions/arm_cfft_radix2_f32.c ****       a1 = pSrc[2 * l + 1] + pSrc[2 * i + 1];
 315:../Dave/Generated/CMSIS_DSP/TransformFunctions/arm_cfft_radix2_f32.c **** 
 316:../Dave/Generated/CMSIS_DSP/TransformFunctions/arm_cfft_radix2_f32.c ****       p0 = xt * cosVal;
 317:../Dave/Generated/CMSIS_DSP/TransformFunctions/arm_cfft_radix2_f32.c ****       p1 = yt * sinVal;
 318:../Dave/Generated/CMSIS_DSP/TransformFunctions/arm_cfft_radix2_f32.c ****       p2 = yt * cosVal;
 319:../Dave/Generated/CMSIS_DSP/TransformFunctions/arm_cfft_radix2_f32.c ****       p3 = xt * sinVal;
 364              	 .loc 1 319 0 discriminator 3
 365 004c 24EE255A 	 fmuls s10,s8,s11
 366              	.LVL55:
 367 0050 65EEE35A 	 fnmuls s11,s11,s7
 368              	.LVL56:
 320:../Dave/Generated/CMSIS_DSP/TransformFunctions/arm_cfft_radix2_f32.c **** 
 321:../Dave/Generated/CMSIS_DSP/TransformFunctions/arm_cfft_radix2_f32.c ****       pSrc[2 * i] = a0;
 322:../Dave/Generated/CMSIS_DSP/TransformFunctions/arm_cfft_radix2_f32.c ****       pSrc[2 * i + 1] = a1;
 323:../Dave/Generated/CMSIS_DSP/TransformFunctions/arm_cfft_radix2_f32.c **** 
 324:../Dave/Generated/CMSIS_DSP/TransformFunctions/arm_cfft_radix2_f32.c ****       pSrc[2 * l]     = p0 - p1;
 325:../Dave/Generated/CMSIS_DSP/TransformFunctions/arm_cfft_radix2_f32.c ****       pSrc[2 * l + 1] = p2 + p3;
 369              	 .loc 1 325 0 discriminator 3
 370 0054 A3EEA45A 	 vfma.f32 s10,s7,s9
 371              	.LVL57:
 372 0058 0832     	 adds r2,r2,#8
 373 005a 4444     	 add r4,r4,r8
 374              	.LVL58:
 324:../Dave/Generated/CMSIS_DSP/TransformFunctions/arm_cfft_radix2_f32.c ****       pSrc[2 * l + 1] = p2 + p3;
 375              	 .loc 1 324 0 discriminator 3
 376 005c E4EE245A 	 vfma.f32 s11,s8,s9
 377 0060 0837     	 adds r7,r7,#8
 378 0062 0830     	 adds r0,r0,#8
 310:../Dave/Generated/CMSIS_DSP/TransformFunctions/arm_cfft_radix2_f32.c ****       xt = pSrc[2 * i] - pSrc[2 * l];
 379              	 .loc 1 310 0 discriminator 3
 380 0064 76EE266A 	 fadds s13,s12,s13
 381              	.LVL59:
 314:../Dave/Generated/CMSIS_DSP/TransformFunctions/arm_cfft_radix2_f32.c **** 
 382              	 .loc 1 314 0 discriminator 3
 383 0068 77EE277A 	 fadds s15,s14,s15
 384              	.LVL60:
 321:../Dave/Generated/CMSIS_DSP/TransformFunctions/arm_cfft_radix2_f32.c ****       pSrc[2 * i + 1] = a1;
 385              	 .loc 1 321 0 discriminator 3
 386 006c 47ED036A 	 fsts s13,[r7,#-12]
 322:../Dave/Generated/CMSIS_DSP/TransformFunctions/arm_cfft_radix2_f32.c **** 
 387              	 .loc 1 322 0 discriminator 3
 388 0070 42ED017A 	 fsts s15,[r2,#-4]
 303:../Dave/Generated/CMSIS_DSP/TransformFunctions/arm_cfft_radix2_f32.c ****    {
 389              	 .loc 1 303 0 discriminator 3
 390 0074 9445     	 cmp ip,r2
 324:../Dave/Generated/CMSIS_DSP/TransformFunctions/arm_cfft_radix2_f32.c ****       pSrc[2 * l + 1] = p2 + p3;
 391              	 .loc 1 324 0 discriminator 3
 392 0076 40ED035A 	 fsts s11,[r0,#-12]
 393 007a 0EF1080E 	 add lr,lr,#8
 394              	 .loc 1 325 0 discriminator 3
 395 007e 0EED015A 	 fsts s10,[lr,#-4]
 303:../Dave/Generated/CMSIS_DSP/TransformFunctions/arm_cfft_radix2_f32.c ****    {
 396              	 .loc 1 303 0 discriminator 3
 397 0082 D3D1     	 bne .L24
 326:../Dave/Generated/CMSIS_DSP/TransformFunctions/arm_cfft_radix2_f32.c ****    }                             // groups loop end
 327:../Dave/Generated/CMSIS_DSP/TransformFunctions/arm_cfft_radix2_f32.c **** 
 328:../Dave/Generated/CMSIS_DSP/TransformFunctions/arm_cfft_radix2_f32.c ****    twidCoefModifier <<= 1u;
 398              	 .loc 1 328 0
 399 0084 5B00     	 lsls r3,r3,#1
 400              	.LVL61:
 329:../Dave/Generated/CMSIS_DSP/TransformFunctions/arm_cfft_radix2_f32.c **** 
 330:../Dave/Generated/CMSIS_DSP/TransformFunctions/arm_cfft_radix2_f32.c ****    // loop for stage
 331:../Dave/Generated/CMSIS_DSP/TransformFunctions/arm_cfft_radix2_f32.c ****    for (k = fftLen / 2; k > 2; k = k >> 1)
 401              	 .loc 1 331 0
 402 0086 022E     	 cmp r6,#2
 328:../Dave/Generated/CMSIS_DSP/TransformFunctions/arm_cfft_radix2_f32.c **** 
 403              	 .loc 1 328 0
 404 0088 1FFA83FB 	 uxth fp,r3
 405              	.LVL62:
 406              	 .loc 1 331 0
 407 008c 4ED9     	 bls .L22
 408 008e 0196     	 str r6,[sp,#4]
 409              	.LVL63:
 410              	.L28:
 332:../Dave/Generated/CMSIS_DSP/TransformFunctions/arm_cfft_radix2_f32.c ****    {
 333:../Dave/Generated/CMSIS_DSP/TransformFunctions/arm_cfft_radix2_f32.c ****       n1 = n2;
 334:../Dave/Generated/CMSIS_DSP/TransformFunctions/arm_cfft_radix2_f32.c ****       n2 = n2 >> 1;
 411              	 .loc 1 334 0
 412 0090 4FEA5608 	 lsr r8,r6,#1
 413              	.LVL64:
 414 0094 029F     	 ldr r7,[sp,#8]
 415 0096 DDF80CC0 	 ldr ip,[sp,#12]
 416 009a 4FEAC80A 	 lsl r10,r8,#3
 417 009e 4FEACB09 	 lsl r9,fp,#3
 335:../Dave/Generated/CMSIS_DSP/TransformFunctions/arm_cfft_radix2_f32.c ****       ia = 0;
 336:../Dave/Generated/CMSIS_DSP/TransformFunctions/arm_cfft_radix2_f32.c **** 
 337:../Dave/Generated/CMSIS_DSP/TransformFunctions/arm_cfft_radix2_f32.c ****       // loop for groups
 338:../Dave/Generated/CMSIS_DSP/TransformFunctions/arm_cfft_radix2_f32.c ****       j = 0;
 418              	 .loc 1 338 0
 419 00a2 4FF0000E 	 mov lr,#0
 420              	.LVL65:
 421              	.L27:
 339:../Dave/Generated/CMSIS_DSP/TransformFunctions/arm_cfft_radix2_f32.c ****       do
 340:../Dave/Generated/CMSIS_DSP/TransformFunctions/arm_cfft_radix2_f32.c ****       {
 341:../Dave/Generated/CMSIS_DSP/TransformFunctions/arm_cfft_radix2_f32.c ****          cosVal = pCoef[ia * 2];
 422              	 .loc 1 341 0
 423 00a6 9CED003A 	 flds s6,[ip]
 424              	.LVL66:
 342:../Dave/Generated/CMSIS_DSP/TransformFunctions/arm_cfft_radix2_f32.c ****          sinVal = pCoef[(ia * 2) + 1];
 425              	 .loc 1 342 0
 426 00aa DCED013A 	 flds s7,[ip,#4]
 427              	.LVL67:
 428 00ae 07EB0A03 	 add r3,r7,r10
 429 00b2 381D     	 adds r0,r7,#4
 430 00b4 3A46     	 mov r2,r7
 343:../Dave/Generated/CMSIS_DSP/TransformFunctions/arm_cfft_radix2_f32.c ****          ia += twidCoefModifier;
 344:../Dave/Generated/CMSIS_DSP/TransformFunctions/arm_cfft_radix2_f32.c **** 
 345:../Dave/Generated/CMSIS_DSP/TransformFunctions/arm_cfft_radix2_f32.c ****          // loop for butterfly
 346:../Dave/Generated/CMSIS_DSP/TransformFunctions/arm_cfft_radix2_f32.c ****          i = j;
 431              	 .loc 1 346 0
 432 00b6 7446     	 mov r4,lr
 433              	.LVL68:
 434              	.L26:
 347:../Dave/Generated/CMSIS_DSP/TransformFunctions/arm_cfft_radix2_f32.c ****          do
 348:../Dave/Generated/CMSIS_DSP/TransformFunctions/arm_cfft_radix2_f32.c ****          {
 349:../Dave/Generated/CMSIS_DSP/TransformFunctions/arm_cfft_radix2_f32.c ****             l = i + n2;
 350:../Dave/Generated/CMSIS_DSP/TransformFunctions/arm_cfft_radix2_f32.c ****             a0 = pSrc[2 * i] + pSrc[2 * l];
 435              	 .loc 1 350 0 discriminator 1
 436 00b8 10ED016A 	 flds s12,[r0,#-4]
 351:../Dave/Generated/CMSIS_DSP/TransformFunctions/arm_cfft_radix2_f32.c ****             xt = pSrc[2 * i] - pSrc[2 * l];
 352:../Dave/Generated/CMSIS_DSP/TransformFunctions/arm_cfft_radix2_f32.c **** 
 353:../Dave/Generated/CMSIS_DSP/TransformFunctions/arm_cfft_radix2_f32.c ****             yt = pSrc[2 * i + 1] - pSrc[2 * l + 1];
 437              	 .loc 1 353 0 discriminator 1
 438 00bc 92ED017A 	 flds s14,[r2,#4]
 350:../Dave/Generated/CMSIS_DSP/TransformFunctions/arm_cfft_radix2_f32.c ****             xt = pSrc[2 * i] - pSrc[2 * l];
 439              	 .loc 1 350 0 discriminator 1
 440 00c0 D3ED006A 	 flds s13,[r3]
 441              	.LVL69:
 442              	 .loc 1 353 0 discriminator 1
 443 00c4 D3ED017A 	 flds s15,[r3,#4]
 444              	.LVL70:
 351:../Dave/Generated/CMSIS_DSP/TransformFunctions/arm_cfft_radix2_f32.c ****             xt = pSrc[2 * i] - pSrc[2 * l];
 445              	 .loc 1 351 0 discriminator 1
 446 00c8 76EE664A 	 fsubs s9,s12,s13
 447              	.LVL71:
 448              	 .loc 1 353 0 discriminator 1
 449 00cc 37EE674A 	 fsubs s8,s14,s15
 450              	.LVL72:
 354:../Dave/Generated/CMSIS_DSP/TransformFunctions/arm_cfft_radix2_f32.c ****             a1 = pSrc[2 * l + 1] + pSrc[2 * i + 1];
 355:../Dave/Generated/CMSIS_DSP/TransformFunctions/arm_cfft_radix2_f32.c **** 
 356:../Dave/Generated/CMSIS_DSP/TransformFunctions/arm_cfft_radix2_f32.c ****             p0 = xt * cosVal;
 357:../Dave/Generated/CMSIS_DSP/TransformFunctions/arm_cfft_radix2_f32.c ****             p1 = yt * sinVal;
 358:../Dave/Generated/CMSIS_DSP/TransformFunctions/arm_cfft_radix2_f32.c ****             p2 = yt * cosVal;
 359:../Dave/Generated/CMSIS_DSP/TransformFunctions/arm_cfft_radix2_f32.c ****             p3 = xt * sinVal;
 451              	 .loc 1 359 0 discriminator 1
 452 00d0 64EEA35A 	 fmuls s11,s9,s7
 453              	.LVL73:
 454 00d4 23EEC45A 	 fnmuls s10,s7,s8
 360:../Dave/Generated/CMSIS_DSP/TransformFunctions/arm_cfft_radix2_f32.c **** 
 361:../Dave/Generated/CMSIS_DSP/TransformFunctions/arm_cfft_radix2_f32.c ****             pSrc[2 * i] = a0;
 362:../Dave/Generated/CMSIS_DSP/TransformFunctions/arm_cfft_radix2_f32.c ****             pSrc[2 * i + 1] = a1;
 363:../Dave/Generated/CMSIS_DSP/TransformFunctions/arm_cfft_radix2_f32.c **** 
 364:../Dave/Generated/CMSIS_DSP/TransformFunctions/arm_cfft_radix2_f32.c ****             pSrc[2 * l]     = p0 - p1;
 365:../Dave/Generated/CMSIS_DSP/TransformFunctions/arm_cfft_radix2_f32.c ****             pSrc[2 * l + 1] = p2 + p3;
 455              	 .loc 1 365 0 discriminator 1
 456 00d8 E4EE035A 	 vfma.f32 s11,s8,s6
 457              	.LVL74:
 366:../Dave/Generated/CMSIS_DSP/TransformFunctions/arm_cfft_radix2_f32.c **** 
 367:../Dave/Generated/CMSIS_DSP/TransformFunctions/arm_cfft_radix2_f32.c ****             i += n1;
 458              	 .loc 1 367 0 discriminator 1
 459 00dc 3444     	 add r4,r4,r6
 460              	.LVL75:
 368:../Dave/Generated/CMSIS_DSP/TransformFunctions/arm_cfft_radix2_f32.c ****          } while ( i < fftLen );                 // butterfly loop end
 461              	 .loc 1 368 0 discriminator 1
 462 00de A142     	 cmp r1,r4
 364:../Dave/Generated/CMSIS_DSP/TransformFunctions/arm_cfft_radix2_f32.c ****             pSrc[2 * l + 1] = p2 + p3;
 463              	 .loc 1 364 0 discriminator 1
 464 00e0 A4EE835A 	 vfma.f32 s10,s9,s6
 350:../Dave/Generated/CMSIS_DSP/TransformFunctions/arm_cfft_radix2_f32.c ****             xt = pSrc[2 * i] - pSrc[2 * l];
 465              	 .loc 1 350 0 discriminator 1
 466 00e4 76EE266A 	 fadds s13,s12,s13
 467              	.LVL76:
 354:../Dave/Generated/CMSIS_DSP/TransformFunctions/arm_cfft_radix2_f32.c **** 
 468              	 .loc 1 354 0 discriminator 1
 469 00e8 77EE277A 	 fadds s15,s14,s15
 470              	.LVL77:
 361:../Dave/Generated/CMSIS_DSP/TransformFunctions/arm_cfft_radix2_f32.c ****             pSrc[2 * i + 1] = a1;
 471              	 .loc 1 361 0 discriminator 1
 472 00ec 40ED016A 	 fsts s13,[r0,#-4]
 362:../Dave/Generated/CMSIS_DSP/TransformFunctions/arm_cfft_radix2_f32.c **** 
 473              	 .loc 1 362 0 discriminator 1
 474 00f0 C2ED017A 	 fsts s15,[r2,#4]
 475 00f4 2844     	 add r0,r0,r5
 364:../Dave/Generated/CMSIS_DSP/TransformFunctions/arm_cfft_radix2_f32.c ****             pSrc[2 * l + 1] = p2 + p3;
 476              	 .loc 1 364 0 discriminator 1
 477 00f6 83ED005A 	 fsts s10,[r3]
 365:../Dave/Generated/CMSIS_DSP/TransformFunctions/arm_cfft_radix2_f32.c **** 
 478              	 .loc 1 365 0 discriminator 1
 479 00fa C3ED015A 	 fsts s11,[r3,#4]
 480 00fe 2A44     	 add r2,r2,r5
 481 0100 2B44     	 add r3,r3,r5
 482              	 .loc 1 368 0 discriminator 1
 483 0102 D9D8     	 bhi .L26
 369:../Dave/Generated/CMSIS_DSP/TransformFunctions/arm_cfft_radix2_f32.c ****          j++;
 484              	 .loc 1 369 0
 485 0104 0EF1010E 	 add lr,lr,#1
 486              	.LVL78:
 370:../Dave/Generated/CMSIS_DSP/TransformFunctions/arm_cfft_radix2_f32.c ****       } while (j < n2);                      // groups loop end
 487              	 .loc 1 370 0
 488 0108 F045     	 cmp r8,lr
 489 010a CC44     	 add ip,ip,r9
 490 010c 07F10807 	 add r7,r7,#8
 491 0110 C9D8     	 bhi .L27
 331:../Dave/Generated/CMSIS_DSP/TransformFunctions/arm_cfft_radix2_f32.c ****    {
 492              	 .loc 1 331 0 discriminator 2
 493 0112 019B     	 ldr r3,[sp,#4]
 494 0114 5B08     	 lsrs r3,r3,#1
 371:../Dave/Generated/CMSIS_DSP/TransformFunctions/arm_cfft_radix2_f32.c **** 
 372:../Dave/Generated/CMSIS_DSP/TransformFunctions/arm_cfft_radix2_f32.c ****       twidCoefModifier <<= 1u;
 495              	 .loc 1 372 0 discriminator 2
 496 0116 4FEA4B0B 	 lsl fp,fp,#1
 497              	.LVL79:
 331:../Dave/Generated/CMSIS_DSP/TransformFunctions/arm_cfft_radix2_f32.c ****    {
 498              	 .loc 1 331 0 discriminator 2
 499 011a 022B     	 cmp r3,#2
 500 011c 0193     	 str r3,[sp,#4]
 501              	.LVL80:
 502              	 .loc 1 372 0 discriminator 2
 503 011e 1FFA8BFB 	 uxth fp,fp
 504              	.LVL81:
 505 0122 4646     	 mov r6,r8
 506              	.LVL82:
 331:../Dave/Generated/CMSIS_DSP/TransformFunctions/arm_cfft_radix2_f32.c ****    {
 507              	 .loc 1 331 0 discriminator 2
 508 0124 02D9     	 bls .L22
 509              	.LVL83:
 510 0126 F500     	 lsls r5,r6,#3
 511 0128 B2E7     	 b .L28
 512              	.LVL84:
 513              	.L37:
 373:../Dave/Generated/CMSIS_DSP/TransformFunctions/arm_cfft_radix2_f32.c ****    }                             // stages loop end
 374:../Dave/Generated/CMSIS_DSP/TransformFunctions/arm_cfft_radix2_f32.c **** 
 375:../Dave/Generated/CMSIS_DSP/TransformFunctions/arm_cfft_radix2_f32.c ****    // loop for butterfly
 376:../Dave/Generated/CMSIS_DSP/TransformFunctions/arm_cfft_radix2_f32.c ****    for (i = 0; i < fftLen; i += 2)
 514              	 .loc 1 376 0
 515 012a 51B3     	 cbz r1,.L20
 516              	.LVL85:
 517              	.L22:
 518 012c 029B     	 ldr r3,[sp,#8]
 346:../Dave/Generated/CMSIS_DSP/TransformFunctions/arm_cfft_radix2_f32.c ****          do
 519              	 .loc 1 346 0
 520 012e 0020     	 movs r0,#0
 521 0130 03F10802 	 add r2,r3,#8
 522              	.LVL86:
 523              	.L29:
 377:../Dave/Generated/CMSIS_DSP/TransformFunctions/arm_cfft_radix2_f32.c ****    {
 378:../Dave/Generated/CMSIS_DSP/TransformFunctions/arm_cfft_radix2_f32.c ****       a0 = pSrc[2 * i] + pSrc[2 * i + 2];
 524              	 .loc 1 378 0 discriminator 3
 525 0134 12ED026A 	 flds s12,[r2,#-8]
 379:../Dave/Generated/CMSIS_DSP/TransformFunctions/arm_cfft_radix2_f32.c ****       xt = pSrc[2 * i] - pSrc[2 * i + 2];
 380:../Dave/Generated/CMSIS_DSP/TransformFunctions/arm_cfft_radix2_f32.c **** 
 381:../Dave/Generated/CMSIS_DSP/TransformFunctions/arm_cfft_radix2_f32.c ****       a1 = pSrc[2 * i + 3] + pSrc[2 * i + 1];
 526              	 .loc 1 381 0 discriminator 3
 527 0138 93ED017A 	 flds s14,[r3,#4]
 378:../Dave/Generated/CMSIS_DSP/TransformFunctions/arm_cfft_radix2_f32.c ****       xt = pSrc[2 * i] - pSrc[2 * i + 2];
 528              	 .loc 1 378 0 discriminator 3
 529 013c D3ED026A 	 flds s13,[r3,#8]
 530              	.LVL87:
 531              	 .loc 1 381 0 discriminator 3
 532 0140 D3ED037A 	 flds s15,[r3,#12]
 533              	.LVL88:
 378:../Dave/Generated/CMSIS_DSP/TransformFunctions/arm_cfft_radix2_f32.c ****       xt = pSrc[2 * i] - pSrc[2 * i + 2];
 534              	 .loc 1 378 0 discriminator 3
 535 0144 76EE265A 	 fadds s11,s12,s13
 536              	.LVL89:
 379:../Dave/Generated/CMSIS_DSP/TransformFunctions/arm_cfft_radix2_f32.c ****       xt = pSrc[2 * i] - pSrc[2 * i + 2];
 537              	 .loc 1 379 0 discriminator 3
 538 0148 76EE666A 	 fsubs s13,s12,s13
 539              	.LVL90:
 540              	 .loc 1 381 0 discriminator 3
 541 014c 37EE876A 	 fadds s12,s15,s14
 542              	.LVL91:
 382:../Dave/Generated/CMSIS_DSP/TransformFunctions/arm_cfft_radix2_f32.c ****       yt = pSrc[2 * i + 1] - pSrc[2 * i + 3];
 543              	 .loc 1 382 0 discriminator 3
 544 0150 77EE677A 	 fsubs s15,s14,s15
 545              	.LVL92:
 383:../Dave/Generated/CMSIS_DSP/TransformFunctions/arm_cfft_radix2_f32.c **** 
 384:../Dave/Generated/CMSIS_DSP/TransformFunctions/arm_cfft_radix2_f32.c ****       p0 = a0 * onebyfftLen;
 546              	 .loc 1 384 0 discriminator 3
 547 0154 65EEA25A 	 fmuls s11,s11,s5
 548              	.LVL93:
 385:../Dave/Generated/CMSIS_DSP/TransformFunctions/arm_cfft_radix2_f32.c ****       p2 = xt * onebyfftLen;
 549              	 .loc 1 385 0 discriminator 3
 550 0158 26EEA27A 	 fmuls s14,s13,s5
 551              	.LVL94:
 386:../Dave/Generated/CMSIS_DSP/TransformFunctions/arm_cfft_radix2_f32.c ****       p1 = a1 * onebyfftLen;
 387:../Dave/Generated/CMSIS_DSP/TransformFunctions/arm_cfft_radix2_f32.c ****       p3 = yt * onebyfftLen;
 552              	 .loc 1 387 0 discriminator 3
 553 015c 67EEA27A 	 fmuls s15,s15,s5
 554              	.LVL95:
 386:../Dave/Generated/CMSIS_DSP/TransformFunctions/arm_cfft_radix2_f32.c ****       p1 = a1 * onebyfftLen;
 555              	 .loc 1 386 0 discriminator 3
 556 0160 66EE226A 	 fmuls s13,s12,s5
 557              	.LVL96:
 376:../Dave/Generated/CMSIS_DSP/TransformFunctions/arm_cfft_radix2_f32.c ****    {
 558              	 .loc 1 376 0 discriminator 3
 559 0164 0230     	 adds r0,r0,#2
 560              	.LVL97:
 561 0166 8142     	 cmp r1,r0
 388:../Dave/Generated/CMSIS_DSP/TransformFunctions/arm_cfft_radix2_f32.c **** 
 389:../Dave/Generated/CMSIS_DSP/TransformFunctions/arm_cfft_radix2_f32.c ****       pSrc[2 * i] = p0;
 562              	 .loc 1 389 0 discriminator 3
 563 0168 42ED025A 	 fsts s11,[r2,#-8]
 564              	.LVL98:
 565 016c 03F11003 	 add r3,r3,#16
 390:../Dave/Generated/CMSIS_DSP/TransformFunctions/arm_cfft_radix2_f32.c ****       pSrc[2 * i + 1] = p1;
 391:../Dave/Generated/CMSIS_DSP/TransformFunctions/arm_cfft_radix2_f32.c ****       pSrc[2 * i + 2] = p2;
 566              	 .loc 1 391 0 discriminator 3
 567 0170 03ED027A 	 fsts s14,[r3,#-8]
 390:../Dave/Generated/CMSIS_DSP/TransformFunctions/arm_cfft_radix2_f32.c ****       pSrc[2 * i + 1] = p1;
 568              	 .loc 1 390 0 discriminator 3
 569 0174 43ED036A 	 fsts s13,[r3,#-12]
 392:../Dave/Generated/CMSIS_DSP/TransformFunctions/arm_cfft_radix2_f32.c ****       pSrc[2 * i + 3] = p3;
 570              	 .loc 1 392 0 discriminator 3
 571 0178 43ED017A 	 fsts s15,[r3,#-4]
 572 017c 02F11002 	 add r2,r2,#16
 376:../Dave/Generated/CMSIS_DSP/TransformFunctions/arm_cfft_radix2_f32.c ****    {
 573              	 .loc 1 376 0 discriminator 3
 574 0180 D8D8     	 bhi .L29
 575              	.LVL99:
 576              	.L20:
 393:../Dave/Generated/CMSIS_DSP/TransformFunctions/arm_cfft_radix2_f32.c ****    }                             // butterfly loop end
 394:../Dave/Generated/CMSIS_DSP/TransformFunctions/arm_cfft_radix2_f32.c **** 
 395:../Dave/Generated/CMSIS_DSP/TransformFunctions/arm_cfft_radix2_f32.c **** #else
 396:../Dave/Generated/CMSIS_DSP/TransformFunctions/arm_cfft_radix2_f32.c **** 
 397:../Dave/Generated/CMSIS_DSP/TransformFunctions/arm_cfft_radix2_f32.c ****    n2 = fftLen;
 398:../Dave/Generated/CMSIS_DSP/TransformFunctions/arm_cfft_radix2_f32.c **** 
 399:../Dave/Generated/CMSIS_DSP/TransformFunctions/arm_cfft_radix2_f32.c ****    // loop for stage
 400:../Dave/Generated/CMSIS_DSP/TransformFunctions/arm_cfft_radix2_f32.c ****    for (k = fftLen; k > 2; k = k >> 1)
 401:../Dave/Generated/CMSIS_DSP/TransformFunctions/arm_cfft_radix2_f32.c ****    {
 402:../Dave/Generated/CMSIS_DSP/TransformFunctions/arm_cfft_radix2_f32.c ****       n1 = n2;
 403:../Dave/Generated/CMSIS_DSP/TransformFunctions/arm_cfft_radix2_f32.c ****       n2 = n2 >> 1;
 404:../Dave/Generated/CMSIS_DSP/TransformFunctions/arm_cfft_radix2_f32.c ****       ia = 0;
 405:../Dave/Generated/CMSIS_DSP/TransformFunctions/arm_cfft_radix2_f32.c **** 
 406:../Dave/Generated/CMSIS_DSP/TransformFunctions/arm_cfft_radix2_f32.c ****       // loop for groups
 407:../Dave/Generated/CMSIS_DSP/TransformFunctions/arm_cfft_radix2_f32.c ****       j = 0;
 408:../Dave/Generated/CMSIS_DSP/TransformFunctions/arm_cfft_radix2_f32.c ****       do
 409:../Dave/Generated/CMSIS_DSP/TransformFunctions/arm_cfft_radix2_f32.c ****       {
 410:../Dave/Generated/CMSIS_DSP/TransformFunctions/arm_cfft_radix2_f32.c ****          cosVal = pCoef[ia * 2];
 411:../Dave/Generated/CMSIS_DSP/TransformFunctions/arm_cfft_radix2_f32.c ****          sinVal = pCoef[(ia * 2) + 1];
 412:../Dave/Generated/CMSIS_DSP/TransformFunctions/arm_cfft_radix2_f32.c ****          ia = ia + twidCoefModifier;
 413:../Dave/Generated/CMSIS_DSP/TransformFunctions/arm_cfft_radix2_f32.c **** 
 414:../Dave/Generated/CMSIS_DSP/TransformFunctions/arm_cfft_radix2_f32.c ****          // loop for butterfly
 415:../Dave/Generated/CMSIS_DSP/TransformFunctions/arm_cfft_radix2_f32.c ****          i = j;
 416:../Dave/Generated/CMSIS_DSP/TransformFunctions/arm_cfft_radix2_f32.c ****          do
 417:../Dave/Generated/CMSIS_DSP/TransformFunctions/arm_cfft_radix2_f32.c ****          {
 418:../Dave/Generated/CMSIS_DSP/TransformFunctions/arm_cfft_radix2_f32.c ****             l = i + n2;
 419:../Dave/Generated/CMSIS_DSP/TransformFunctions/arm_cfft_radix2_f32.c ****             a0 = pSrc[2 * i] + pSrc[2 * l];
 420:../Dave/Generated/CMSIS_DSP/TransformFunctions/arm_cfft_radix2_f32.c ****             xt = pSrc[2 * i] - pSrc[2 * l];
 421:../Dave/Generated/CMSIS_DSP/TransformFunctions/arm_cfft_radix2_f32.c **** 
 422:../Dave/Generated/CMSIS_DSP/TransformFunctions/arm_cfft_radix2_f32.c ****             yt = pSrc[2 * i + 1] - pSrc[2 * l + 1];
 423:../Dave/Generated/CMSIS_DSP/TransformFunctions/arm_cfft_radix2_f32.c ****             a1 = pSrc[2 * l + 1] + pSrc[2 * i + 1];
 424:../Dave/Generated/CMSIS_DSP/TransformFunctions/arm_cfft_radix2_f32.c **** 
 425:../Dave/Generated/CMSIS_DSP/TransformFunctions/arm_cfft_radix2_f32.c ****             p0 = xt * cosVal;
 426:../Dave/Generated/CMSIS_DSP/TransformFunctions/arm_cfft_radix2_f32.c ****             p1 = yt * sinVal;
 427:../Dave/Generated/CMSIS_DSP/TransformFunctions/arm_cfft_radix2_f32.c ****             p2 = yt * cosVal;
 428:../Dave/Generated/CMSIS_DSP/TransformFunctions/arm_cfft_radix2_f32.c ****             p3 = xt * sinVal;
 429:../Dave/Generated/CMSIS_DSP/TransformFunctions/arm_cfft_radix2_f32.c **** 
 430:../Dave/Generated/CMSIS_DSP/TransformFunctions/arm_cfft_radix2_f32.c ****             pSrc[2 * i] = a0;
 431:../Dave/Generated/CMSIS_DSP/TransformFunctions/arm_cfft_radix2_f32.c ****             pSrc[2 * i + 1] = a1;
 432:../Dave/Generated/CMSIS_DSP/TransformFunctions/arm_cfft_radix2_f32.c **** 
 433:../Dave/Generated/CMSIS_DSP/TransformFunctions/arm_cfft_radix2_f32.c ****             pSrc[2 * l]     = p0 - p1;
 434:../Dave/Generated/CMSIS_DSP/TransformFunctions/arm_cfft_radix2_f32.c ****             pSrc[2 * l + 1] = p2 + p3;
 435:../Dave/Generated/CMSIS_DSP/TransformFunctions/arm_cfft_radix2_f32.c **** 
 436:../Dave/Generated/CMSIS_DSP/TransformFunctions/arm_cfft_radix2_f32.c ****             i += n1;
 437:../Dave/Generated/CMSIS_DSP/TransformFunctions/arm_cfft_radix2_f32.c ****          } while ( i < fftLen );                    // butterfly loop end
 438:../Dave/Generated/CMSIS_DSP/TransformFunctions/arm_cfft_radix2_f32.c ****          j++;
 439:../Dave/Generated/CMSIS_DSP/TransformFunctions/arm_cfft_radix2_f32.c ****       } while ( j < n2 );                      // groups loop end
 440:../Dave/Generated/CMSIS_DSP/TransformFunctions/arm_cfft_radix2_f32.c **** 
 441:../Dave/Generated/CMSIS_DSP/TransformFunctions/arm_cfft_radix2_f32.c ****       twidCoefModifier = twidCoefModifier << 1u;
 442:../Dave/Generated/CMSIS_DSP/TransformFunctions/arm_cfft_radix2_f32.c ****    }                             // stages loop end
 443:../Dave/Generated/CMSIS_DSP/TransformFunctions/arm_cfft_radix2_f32.c **** 
 444:../Dave/Generated/CMSIS_DSP/TransformFunctions/arm_cfft_radix2_f32.c ****    n1 = n2;
 445:../Dave/Generated/CMSIS_DSP/TransformFunctions/arm_cfft_radix2_f32.c ****    n2 = n2 >> 1;
 446:../Dave/Generated/CMSIS_DSP/TransformFunctions/arm_cfft_radix2_f32.c **** 
 447:../Dave/Generated/CMSIS_DSP/TransformFunctions/arm_cfft_radix2_f32.c ****    // loop for butterfly
 448:../Dave/Generated/CMSIS_DSP/TransformFunctions/arm_cfft_radix2_f32.c ****    for (i = 0; i < fftLen; i += n1)
 449:../Dave/Generated/CMSIS_DSP/TransformFunctions/arm_cfft_radix2_f32.c ****    {
 450:../Dave/Generated/CMSIS_DSP/TransformFunctions/arm_cfft_radix2_f32.c ****       l = i + n2;
 451:../Dave/Generated/CMSIS_DSP/TransformFunctions/arm_cfft_radix2_f32.c **** 
 452:../Dave/Generated/CMSIS_DSP/TransformFunctions/arm_cfft_radix2_f32.c ****       a0 = pSrc[2 * i] + pSrc[2 * l];
 453:../Dave/Generated/CMSIS_DSP/TransformFunctions/arm_cfft_radix2_f32.c ****       xt = pSrc[2 * i] - pSrc[2 * l];
 454:../Dave/Generated/CMSIS_DSP/TransformFunctions/arm_cfft_radix2_f32.c **** 
 455:../Dave/Generated/CMSIS_DSP/TransformFunctions/arm_cfft_radix2_f32.c ****       a1 = pSrc[2 * l + 1] + pSrc[2 * i + 1];
 456:../Dave/Generated/CMSIS_DSP/TransformFunctions/arm_cfft_radix2_f32.c ****       yt = pSrc[2 * i + 1] - pSrc[2 * l + 1];
 457:../Dave/Generated/CMSIS_DSP/TransformFunctions/arm_cfft_radix2_f32.c **** 
 458:../Dave/Generated/CMSIS_DSP/TransformFunctions/arm_cfft_radix2_f32.c ****       p0 = a0 * onebyfftLen;
 459:../Dave/Generated/CMSIS_DSP/TransformFunctions/arm_cfft_radix2_f32.c ****       p2 = xt * onebyfftLen;
 460:../Dave/Generated/CMSIS_DSP/TransformFunctions/arm_cfft_radix2_f32.c ****       p1 = a1 * onebyfftLen;
 461:../Dave/Generated/CMSIS_DSP/TransformFunctions/arm_cfft_radix2_f32.c ****       p3 = yt * onebyfftLen;
 462:../Dave/Generated/CMSIS_DSP/TransformFunctions/arm_cfft_radix2_f32.c **** 
 463:../Dave/Generated/CMSIS_DSP/TransformFunctions/arm_cfft_radix2_f32.c ****       pSrc[2 * i] = p0;
 464:../Dave/Generated/CMSIS_DSP/TransformFunctions/arm_cfft_radix2_f32.c ****       pSrc[2u * l] = p2;
 465:../Dave/Generated/CMSIS_DSP/TransformFunctions/arm_cfft_radix2_f32.c **** 
 466:../Dave/Generated/CMSIS_DSP/TransformFunctions/arm_cfft_radix2_f32.c ****       pSrc[2 * i + 1] = p1;
 467:../Dave/Generated/CMSIS_DSP/TransformFunctions/arm_cfft_radix2_f32.c ****       pSrc[2u * l + 1u] = p3;
 468:../Dave/Generated/CMSIS_DSP/TransformFunctions/arm_cfft_radix2_f32.c ****    }                             // butterfly loop end
 469:../Dave/Generated/CMSIS_DSP/TransformFunctions/arm_cfft_radix2_f32.c **** 
 470:../Dave/Generated/CMSIS_DSP/TransformFunctions/arm_cfft_radix2_f32.c **** #endif //      #if defined (ARM_MATH_DSP)
 471:../Dave/Generated/CMSIS_DSP/TransformFunctions/arm_cfft_radix2_f32.c **** 
 472:../Dave/Generated/CMSIS_DSP/TransformFunctions/arm_cfft_radix2_f32.c **** }
 577              	 .loc 1 472 0
 578 0182 05B0     	 add sp,sp,#20
 579              	.LCFI5:
 580              	 .cfi_def_cfa_offset 36
 581              	 
 582 0184 BDE8F08F 	 pop {r4,r5,r6,r7,r8,r9,r10,fp,pc}
 583              	 .cfi_endproc
 584              	.LFE137:
 586              	 .section .text.arm_cfft_radix2_f32,"ax",%progbits
 587              	 .align 2
 588              	 .global arm_cfft_radix2_f32
 589              	 .thumb
 590              	 .thumb_func
 592              	arm_cfft_radix2_f32:
 593              	.LFB135:
  72:../Dave/Generated/CMSIS_DSP/TransformFunctions/arm_cfft_radix2_f32.c **** 
 594              	 .loc 1 72 0
 595              	 .cfi_startproc
 596              	 
 597              	 
 598              	.LVL100:
 599 0000 30B5     	 push {r4,r5,lr}
 600              	.LCFI6:
 601              	 .cfi_def_cfa_offset 12
 602              	 .cfi_offset 4,-12
 603              	 .cfi_offset 5,-8
 604              	 .cfi_offset 14,-4
  74:../Dave/Generated/CMSIS_DSP/TransformFunctions/arm_cfft_radix2_f32.c ****    {
 605              	 .loc 1 74 0
 606 0002 8378     	 ldrb r3,[r0,#2]
 607 0004 012B     	 cmp r3,#1
  72:../Dave/Generated/CMSIS_DSP/TransformFunctions/arm_cfft_radix2_f32.c **** 
 608              	 .loc 1 72 0
 609 0006 83B0     	 sub sp,sp,#12
 610              	.LCFI7:
 611              	 .cfi_def_cfa_offset 24
  72:../Dave/Generated/CMSIS_DSP/TransformFunctions/arm_cfft_radix2_f32.c **** 
 612              	 .loc 1 72 0
 613 0008 0446     	 mov r4,r0
 614 000a 0D46     	 mov r5,r1
  74:../Dave/Generated/CMSIS_DSP/TransformFunctions/arm_cfft_radix2_f32.c ****    {
 615              	 .loc 1 74 0
 616 000c 0AD0     	 beq .L43
  83:../Dave/Generated/CMSIS_DSP/TransformFunctions/arm_cfft_radix2_f32.c ****       S->twidCoefModifier);
 617              	 .loc 1 83 0
 618 000e 0846     	 mov r0,r1
 619              	.LVL101:
 620 0010 A389     	 ldrh r3,[r4,#12]
 621 0012 2188     	 ldrh r1,[r4]
 622              	.LVL102:
 623 0014 6268     	 ldr r2,[r4,#4]
 624 0016 FFF7FEFF 	 bl arm_radix2_butterfly_f32
 625              	.LVL103:
  87:../Dave/Generated/CMSIS_DSP/TransformFunctions/arm_cfft_radix2_f32.c ****    {
 626              	 .loc 1 87 0
 627 001a E378     	 ldrb r3,[r4,#3]
 628 001c 012B     	 cmp r3,#1
 629 001e 0CD0     	 beq .L44
 630              	.L38:
  93:../Dave/Generated/CMSIS_DSP/TransformFunctions/arm_cfft_radix2_f32.c **** 
 631              	 .loc 1 93 0
 632 0020 03B0     	 add sp,sp,#12
 633              	.LCFI8:
 634              	 .cfi_remember_state
 635              	 .cfi_def_cfa_offset 12
 636              	 
 637 0022 30BD     	 pop {r4,r5,pc}
 638              	.LVL104:
 639              	.L43:
 640              	.LCFI9:
 641              	 .cfi_restore_state
  77:../Dave/Generated/CMSIS_DSP/TransformFunctions/arm_cfft_radix2_f32.c ****       S->twidCoefModifier, S->onebyfftLen);
 642              	 .loc 1 77 0
 643 0024 8389     	 ldrh r3,[r0,#12]
 644 0026 0188     	 ldrh r1,[r0]
 645              	.LVL105:
 646 0028 4268     	 ldr r2,[r0,#4]
 647 002a 0069     	 ldr r0,[r0,#16]
 648              	.LVL106:
 649 002c 0090     	 str r0,[sp]
 650 002e 2846     	 mov r0,r5
 651 0030 FFF7FEFF 	 bl arm_radix2_butterfly_inverse_f32
 652              	.LVL107:
  87:../Dave/Generated/CMSIS_DSP/TransformFunctions/arm_cfft_radix2_f32.c ****    {
 653              	 .loc 1 87 0
 654 0034 E378     	 ldrb r3,[r4,#3]
 655 0036 012B     	 cmp r3,#1
 656 0038 F2D1     	 bne .L38
 657              	.L44:
  90:../Dave/Generated/CMSIS_DSP/TransformFunctions/arm_cfft_radix2_f32.c ****    }
 658              	 .loc 1 90 0
 659 003a 2188     	 ldrh r1,[r4]
 660 003c E289     	 ldrh r2,[r4,#14]
 661 003e A368     	 ldr r3,[r4,#8]
 662 0040 2846     	 mov r0,r5
  93:../Dave/Generated/CMSIS_DSP/TransformFunctions/arm_cfft_radix2_f32.c **** 
 663              	 .loc 1 93 0
 664 0042 03B0     	 add sp,sp,#12
 665              	.LCFI10:
 666              	 .cfi_def_cfa_offset 12
 667              	 
 668 0044 BDE83040 	 pop {r4,r5,lr}
 669              	.LCFI11:
 670              	 .cfi_restore 14
 671              	 .cfi_restore 5
 672              	 .cfi_restore 4
 673              	 .cfi_def_cfa_offset 0
 674              	.LVL108:
  90:../Dave/Generated/CMSIS_DSP/TransformFunctions/arm_cfft_radix2_f32.c ****    }
 675              	 .loc 1 90 0
 676 0048 FFF7FEBF 	 b arm_bitreversal_f32
 677              	.LVL109:
 678              	 .cfi_endproc
 679              	.LFE135:
 681              	 .text
 682              	.Letext0:
 683              	 .file 2 "c:\\infineon\\tools\\dave ide\\4.5.0.202105191637\\eclipse\\arm-gcc-49\\arm-none-eabi\\include\\machine\\_default_types.h"
 684              	 .file 3 "c:\\infineon\\tools\\dave ide\\4.5.0.202105191637\\eclipse\\arm-gcc-49\\arm-none-eabi\\include\\stdint.h"
 685              	 .file 4 "C:/Users/Utente/Desktop/Tesi/Firmware_Software/DAVE project/S2GLP_Pulsed_Doppler/Dave/Generated/CMSIS_DSP/arm_math.h"