   1              	 .syntax unified
   2              	 .cpu cortex-m4
   3              	 .eabi_attribute 27,3
   4              	 .fpu fpv4-sp-d16
   5              	 .eabi_attribute 20,1
   6              	 .eabi_attribute 21,1
   7              	 .eabi_attribute 23,3
   8              	 .eabi_attribute 24,1
   9              	 .eabi_attribute 25,1
  10              	 .eabi_attribute 26,1
  11              	 .eabi_attribute 30,2
  12              	 .eabi_attribute 34,1
  13              	 .eabi_attribute 18,4
  14              	 .thumb
  15              	 .file "arm_max_q15.c"
  16              	 .text
  17              	.Ltext0:
  18              	 .cfi_sections .debug_frame
  19              	 .section .text.arm_max_q15,"ax",%progbits
  20              	 .align 2
  21              	 .global arm_max_q15
  22              	 .thumb
  23              	 .thumb_func
  25              	arm_max_q15:
  26              	.LFB135:
  27              	 .file 1 "../Dave/Generated/CMSIS_DSP/StatisticsFunctions/arm_max_q15.c"
   1:../Dave/Generated/CMSIS_DSP/StatisticsFunctions/arm_max_q15.c **** /* ----------------------------------------------------------------------
   2:../Dave/Generated/CMSIS_DSP/StatisticsFunctions/arm_max_q15.c ****  * Project:      CMSIS DSP Library
   3:../Dave/Generated/CMSIS_DSP/StatisticsFunctions/arm_max_q15.c ****  * Title:        arm_max_q15.c
   4:../Dave/Generated/CMSIS_DSP/StatisticsFunctions/arm_max_q15.c ****  * Description:  Maximum value of a Q15 vector
   5:../Dave/Generated/CMSIS_DSP/StatisticsFunctions/arm_max_q15.c ****  *
   6:../Dave/Generated/CMSIS_DSP/StatisticsFunctions/arm_max_q15.c ****  * $Date:        27. January 2017
   7:../Dave/Generated/CMSIS_DSP/StatisticsFunctions/arm_max_q15.c ****  * $Revision:    V.1.5.1
   8:../Dave/Generated/CMSIS_DSP/StatisticsFunctions/arm_max_q15.c ****  *
   9:../Dave/Generated/CMSIS_DSP/StatisticsFunctions/arm_max_q15.c ****  * Target Processor: Cortex-M cores
  10:../Dave/Generated/CMSIS_DSP/StatisticsFunctions/arm_max_q15.c ****  * -------------------------------------------------------------------- */
  11:../Dave/Generated/CMSIS_DSP/StatisticsFunctions/arm_max_q15.c **** /*
  12:../Dave/Generated/CMSIS_DSP/StatisticsFunctions/arm_max_q15.c ****  * Copyright (C) 2010-2017 ARM Limited or its affiliates. All rights reserved.
  13:../Dave/Generated/CMSIS_DSP/StatisticsFunctions/arm_max_q15.c ****  *
  14:../Dave/Generated/CMSIS_DSP/StatisticsFunctions/arm_max_q15.c ****  * SPDX-License-Identifier: Apache-2.0
  15:../Dave/Generated/CMSIS_DSP/StatisticsFunctions/arm_max_q15.c ****  *
  16:../Dave/Generated/CMSIS_DSP/StatisticsFunctions/arm_max_q15.c ****  * Licensed under the Apache License, Version 2.0 (the License); you may
  17:../Dave/Generated/CMSIS_DSP/StatisticsFunctions/arm_max_q15.c ****  * not use this file except in compliance with the License.
  18:../Dave/Generated/CMSIS_DSP/StatisticsFunctions/arm_max_q15.c ****  * You may obtain a copy of the License at
  19:../Dave/Generated/CMSIS_DSP/StatisticsFunctions/arm_max_q15.c ****  *
  20:../Dave/Generated/CMSIS_DSP/StatisticsFunctions/arm_max_q15.c ****  * www.apache.org/licenses/LICENSE-2.0
  21:../Dave/Generated/CMSIS_DSP/StatisticsFunctions/arm_max_q15.c ****  *
  22:../Dave/Generated/CMSIS_DSP/StatisticsFunctions/arm_max_q15.c ****  * Unless required by applicable law or agreed to in writing, software
  23:../Dave/Generated/CMSIS_DSP/StatisticsFunctions/arm_max_q15.c ****  * distributed under the License is distributed on an AS IS BASIS, WITHOUT
  24:../Dave/Generated/CMSIS_DSP/StatisticsFunctions/arm_max_q15.c ****  * WARRANTIES OR CONDITIONS OF ANY KIND, either express or implied.
  25:../Dave/Generated/CMSIS_DSP/StatisticsFunctions/arm_max_q15.c ****  * See the License for the specific language governing permissions and
  26:../Dave/Generated/CMSIS_DSP/StatisticsFunctions/arm_max_q15.c ****  * limitations under the License.
  27:../Dave/Generated/CMSIS_DSP/StatisticsFunctions/arm_max_q15.c ****  */
  28:../Dave/Generated/CMSIS_DSP/StatisticsFunctions/arm_max_q15.c **** 
  29:../Dave/Generated/CMSIS_DSP/StatisticsFunctions/arm_max_q15.c **** #include "CMSIS_DSP/cmsis_dsp.h"
  30:../Dave/Generated/CMSIS_DSP/StatisticsFunctions/arm_max_q15.c **** 
  31:../Dave/Generated/CMSIS_DSP/StatisticsFunctions/arm_max_q15.c **** /**
  32:../Dave/Generated/CMSIS_DSP/StatisticsFunctions/arm_max_q15.c ****  * @ingroup groupStats
  33:../Dave/Generated/CMSIS_DSP/StatisticsFunctions/arm_max_q15.c ****  */
  34:../Dave/Generated/CMSIS_DSP/StatisticsFunctions/arm_max_q15.c **** 
  35:../Dave/Generated/CMSIS_DSP/StatisticsFunctions/arm_max_q15.c **** /**
  36:../Dave/Generated/CMSIS_DSP/StatisticsFunctions/arm_max_q15.c ****  * @addtogroup Max
  37:../Dave/Generated/CMSIS_DSP/StatisticsFunctions/arm_max_q15.c ****  * @{
  38:../Dave/Generated/CMSIS_DSP/StatisticsFunctions/arm_max_q15.c ****  */
  39:../Dave/Generated/CMSIS_DSP/StatisticsFunctions/arm_max_q15.c **** 
  40:../Dave/Generated/CMSIS_DSP/StatisticsFunctions/arm_max_q15.c **** 
  41:../Dave/Generated/CMSIS_DSP/StatisticsFunctions/arm_max_q15.c **** /**
  42:../Dave/Generated/CMSIS_DSP/StatisticsFunctions/arm_max_q15.c ****  * @brief Maximum value of a Q15 vector.
  43:../Dave/Generated/CMSIS_DSP/StatisticsFunctions/arm_max_q15.c ****  * @param[in]       *pSrc points to the input vector
  44:../Dave/Generated/CMSIS_DSP/StatisticsFunctions/arm_max_q15.c ****  * @param[in]       blockSize length of the input vector
  45:../Dave/Generated/CMSIS_DSP/StatisticsFunctions/arm_max_q15.c ****  * @param[out]      *pResult maximum value returned here
  46:../Dave/Generated/CMSIS_DSP/StatisticsFunctions/arm_max_q15.c ****  * @param[out]      *pIndex index of maximum value returned here
  47:../Dave/Generated/CMSIS_DSP/StatisticsFunctions/arm_max_q15.c ****  * @return none.
  48:../Dave/Generated/CMSIS_DSP/StatisticsFunctions/arm_max_q15.c ****  */
  49:../Dave/Generated/CMSIS_DSP/StatisticsFunctions/arm_max_q15.c **** 
  50:../Dave/Generated/CMSIS_DSP/StatisticsFunctions/arm_max_q15.c **** void arm_max_q15(
  51:../Dave/Generated/CMSIS_DSP/StatisticsFunctions/arm_max_q15.c ****   q15_t * pSrc,
  52:../Dave/Generated/CMSIS_DSP/StatisticsFunctions/arm_max_q15.c ****   uint32_t blockSize,
  53:../Dave/Generated/CMSIS_DSP/StatisticsFunctions/arm_max_q15.c ****   q15_t * pResult,
  54:../Dave/Generated/CMSIS_DSP/StatisticsFunctions/arm_max_q15.c ****   uint32_t * pIndex)
  55:../Dave/Generated/CMSIS_DSP/StatisticsFunctions/arm_max_q15.c **** {
  28              	 .loc 1 55 0
  29              	 .cfi_startproc
  30              	 
  31              	 
  32              	.LVL0:
  33 0000 2DE9F04F 	 push {r4,r5,r6,r7,r8,r9,r10,fp,lr}
  34              	.LCFI0:
  35              	 .cfi_def_cfa_offset 36
  36              	 .cfi_offset 4,-36
  37              	 .cfi_offset 5,-32
  38              	 .cfi_offset 6,-28
  39              	 .cfi_offset 7,-24
  40              	 .cfi_offset 8,-20
  41              	 .cfi_offset 9,-16
  42              	 .cfi_offset 10,-12
  43              	 .cfi_offset 11,-8
  44              	 .cfi_offset 14,-4
  56:../Dave/Generated/CMSIS_DSP/StatisticsFunctions/arm_max_q15.c **** #if defined (ARM_MATH_DSP)
  57:../Dave/Generated/CMSIS_DSP/StatisticsFunctions/arm_max_q15.c ****   /* Run the below code for Cortex-M4 and Cortex-M3 */
  58:../Dave/Generated/CMSIS_DSP/StatisticsFunctions/arm_max_q15.c **** 
  59:../Dave/Generated/CMSIS_DSP/StatisticsFunctions/arm_max_q15.c ****   q15_t maxVal1, maxVal2, out;                   /* Temporary variables to store the output value. 
  60:../Dave/Generated/CMSIS_DSP/StatisticsFunctions/arm_max_q15.c ****   uint32_t blkCnt, outIndex, count;              /* loop counter */
  61:../Dave/Generated/CMSIS_DSP/StatisticsFunctions/arm_max_q15.c **** 
  62:../Dave/Generated/CMSIS_DSP/StatisticsFunctions/arm_max_q15.c ****   /* Initialise the count value. */
  63:../Dave/Generated/CMSIS_DSP/StatisticsFunctions/arm_max_q15.c ****   count = 0u;
  64:../Dave/Generated/CMSIS_DSP/StatisticsFunctions/arm_max_q15.c ****   /* Initialise the index value to zero. */
  65:../Dave/Generated/CMSIS_DSP/StatisticsFunctions/arm_max_q15.c ****   outIndex = 0u;
  66:../Dave/Generated/CMSIS_DSP/StatisticsFunctions/arm_max_q15.c ****   /* Load first input value that act as reference value for comparision */
  67:../Dave/Generated/CMSIS_DSP/StatisticsFunctions/arm_max_q15.c ****   out = *pSrc++;
  68:../Dave/Generated/CMSIS_DSP/StatisticsFunctions/arm_max_q15.c **** 
  69:../Dave/Generated/CMSIS_DSP/StatisticsFunctions/arm_max_q15.c ****   /* Loop unrolling */
  70:../Dave/Generated/CMSIS_DSP/StatisticsFunctions/arm_max_q15.c ****   blkCnt = (blockSize - 1u) >> 2u;
  45              	 .loc 1 70 0
  46 0004 01F1FF38 	 add r8,r1,#-1
  55:../Dave/Generated/CMSIS_DSP/StatisticsFunctions/arm_max_q15.c **** #if defined (ARM_MATH_DSP)
  47              	 .loc 1 55 0
  48 0008 83B0     	 sub sp,sp,#12
  49              	.LCFI1:
  50              	 .cfi_def_cfa_offset 48
  71:../Dave/Generated/CMSIS_DSP/StatisticsFunctions/arm_max_q15.c **** 
  72:../Dave/Generated/CMSIS_DSP/StatisticsFunctions/arm_max_q15.c ****   while (blkCnt > 0u)
  51              	 .loc 1 72 0
  52 000a 5FEA980B 	 lsrs fp,r8,#2
  55:../Dave/Generated/CMSIS_DSP/StatisticsFunctions/arm_max_q15.c **** #if defined (ARM_MATH_DSP)
  53              	 .loc 1 55 0
  54 000e 0193     	 str r3,[sp,#4]
  67:../Dave/Generated/CMSIS_DSP/StatisticsFunctions/arm_max_q15.c **** 
  55              	 .loc 1 67 0
  56 0010 00F1020A 	 add r10,r0,#2
  57              	.LVL1:
  58 0014 0788     	 ldrh r7,[r0]
  59              	.LVL2:
  60              	 .loc 1 72 0
  61 0016 54D0     	 beq .L6
  62 0018 0A30     	 adds r0,r0,#10
  63 001a D946     	 mov r9,fp
  64 001c 4FF0040C 	 mov ip,#4
  65 0020 0023     	 movs r3,#0
  66              	.LVL3:
  67 0022 3C46     	 mov r4,r7
  68              	.LVL4:
  69              	.L3:
  70 0024 30F9087C 	 ldrsh r7,[r0,#-8]
  71 0028 30F906EC 	 ldrsh lr,[r0,#-6]
  72 002c 30F9026C 	 ldrsh r6,[r0,#-2]
  73 0030 24B2     	 sxth r4,r4
  73:../Dave/Generated/CMSIS_DSP/StatisticsFunctions/arm_max_q15.c ****   {
  74:../Dave/Generated/CMSIS_DSP/StatisticsFunctions/arm_max_q15.c ****     /* Initialize maxVal to the next consecutive values one by one */
  75:../Dave/Generated/CMSIS_DSP/StatisticsFunctions/arm_max_q15.c ****     maxVal1 = *pSrc++;
  76:../Dave/Generated/CMSIS_DSP/StatisticsFunctions/arm_max_q15.c ****     maxVal2 = *pSrc++;
  77:../Dave/Generated/CMSIS_DSP/StatisticsFunctions/arm_max_q15.c **** 
  78:../Dave/Generated/CMSIS_DSP/StatisticsFunctions/arm_max_q15.c ****     /* compare for the maximum value */
  79:../Dave/Generated/CMSIS_DSP/StatisticsFunctions/arm_max_q15.c ****     if (out < maxVal1)
  80:../Dave/Generated/CMSIS_DSP/StatisticsFunctions/arm_max_q15.c ****     {
  81:../Dave/Generated/CMSIS_DSP/StatisticsFunctions/arm_max_q15.c ****       /* Update the maximum value and its index */
  82:../Dave/Generated/CMSIS_DSP/StatisticsFunctions/arm_max_q15.c ****       out = maxVal1;
  83:../Dave/Generated/CMSIS_DSP/StatisticsFunctions/arm_max_q15.c ****       outIndex = count + 1u;
  74              	 .loc 1 83 0
  75 0032 ACF10305 	 sub r5,ip,#3
  76 0036 A742     	 cmp r7,r4
  77 0038 D8BF     	 it le
  78 003a 1D46     	 movle r5,r3
  79 003c A742     	 cmp r7,r4
  80 003e B8BF     	 it lt
  81 0040 2746     	 movlt r7,r4
  84:../Dave/Generated/CMSIS_DSP/StatisticsFunctions/arm_max_q15.c ****     }
  85:../Dave/Generated/CMSIS_DSP/StatisticsFunctions/arm_max_q15.c **** 
  86:../Dave/Generated/CMSIS_DSP/StatisticsFunctions/arm_max_q15.c ****     /* compare for the maximum value */
  87:../Dave/Generated/CMSIS_DSP/StatisticsFunctions/arm_max_q15.c ****     if (out < maxVal2)
  88:../Dave/Generated/CMSIS_DSP/StatisticsFunctions/arm_max_q15.c ****     {
  89:../Dave/Generated/CMSIS_DSP/StatisticsFunctions/arm_max_q15.c ****       /* Update the maximum value and its index */
  90:../Dave/Generated/CMSIS_DSP/StatisticsFunctions/arm_max_q15.c ****       out = maxVal2;
  91:../Dave/Generated/CMSIS_DSP/StatisticsFunctions/arm_max_q15.c ****       outIndex = count + 2u;
  82              	 .loc 1 91 0
  83 0042 ACF10204 	 sub r4,ip,#2
  84 0046 7745     	 cmp r7,lr
  85 0048 A8BF     	 it ge
  86 004a 2C46     	 movge r4,r5
  87 004c 30F9043C 	 ldrsh r3,[r0,#-4]
  88 0050 7745     	 cmp r7,lr
  89 0052 B8BF     	 it lt
  90 0054 7746     	 movlt r7,lr
  92:../Dave/Generated/CMSIS_DSP/StatisticsFunctions/arm_max_q15.c ****     }
  93:../Dave/Generated/CMSIS_DSP/StatisticsFunctions/arm_max_q15.c **** 
  94:../Dave/Generated/CMSIS_DSP/StatisticsFunctions/arm_max_q15.c ****     /* Initialize maxVal to the next consecutive values one by one */
  95:../Dave/Generated/CMSIS_DSP/StatisticsFunctions/arm_max_q15.c ****     maxVal1 = *pSrc++;
  96:../Dave/Generated/CMSIS_DSP/StatisticsFunctions/arm_max_q15.c ****     maxVal2 = *pSrc++;
  97:../Dave/Generated/CMSIS_DSP/StatisticsFunctions/arm_max_q15.c **** 
  98:../Dave/Generated/CMSIS_DSP/StatisticsFunctions/arm_max_q15.c ****     /* compare for the maximum value */
  99:../Dave/Generated/CMSIS_DSP/StatisticsFunctions/arm_max_q15.c ****     if (out < maxVal1)
 100:../Dave/Generated/CMSIS_DSP/StatisticsFunctions/arm_max_q15.c ****     {
 101:../Dave/Generated/CMSIS_DSP/StatisticsFunctions/arm_max_q15.c ****       /* Update the maximum value and its index */
 102:../Dave/Generated/CMSIS_DSP/StatisticsFunctions/arm_max_q15.c ****       out = maxVal1;
 103:../Dave/Generated/CMSIS_DSP/StatisticsFunctions/arm_max_q15.c ****       outIndex = count + 3u;
  91              	 .loc 1 103 0
  92 0056 0CF1FF35 	 add r5,ip,#-1
  93 005a 9F42     	 cmp r7,r3
  94 005c A8BF     	 it ge
  95 005e 2546     	 movge r5,r4
  96 0060 9F42     	 cmp r7,r3
  97 0062 B8BF     	 it lt
  98 0064 1F46     	 movlt r7,r3
  99 0066 B742     	 cmp r7,r6
 100 0068 3C46     	 mov r4,r7
 101 006a B8BF     	 it lt
 102 006c 3446     	 movlt r4,r6
 103 006e B742     	 cmp r7,r6
 104 0070 ACBF     	 ite ge
 105 0072 2B46     	 movge r3,r5
 106 0074 6346     	 movlt r3,ip
 107              	.LVL5:
  72:../Dave/Generated/CMSIS_DSP/StatisticsFunctions/arm_max_q15.c ****   {
 108              	 .loc 1 72 0
 109 0076 B9F10109 	 subs r9,r9,#1
 110 007a A4B2     	 uxth r4,r4
 111              	.LVL6:
 112 007c 0CF1040C 	 add ip,ip,#4
 113              	.LVL7:
 114 0080 00F10800 	 add r0,r0,#8
 115              	.LVL8:
 116 0084 CED1     	 bne .L3
 117 0086 2746     	 mov r7,r4
 118 0088 0AEBCB0A 	 add r10,r10,fp,lsl#3
 119              	.LVL9:
 120              	.L2:
 104:../Dave/Generated/CMSIS_DSP/StatisticsFunctions/arm_max_q15.c ****     }
 105:../Dave/Generated/CMSIS_DSP/StatisticsFunctions/arm_max_q15.c **** 
 106:../Dave/Generated/CMSIS_DSP/StatisticsFunctions/arm_max_q15.c ****     /* compare for the maximum value */
 107:../Dave/Generated/CMSIS_DSP/StatisticsFunctions/arm_max_q15.c ****     if (out < maxVal2)
 108:../Dave/Generated/CMSIS_DSP/StatisticsFunctions/arm_max_q15.c ****     {
 109:../Dave/Generated/CMSIS_DSP/StatisticsFunctions/arm_max_q15.c ****       /* Update the maximum value and its index */
 110:../Dave/Generated/CMSIS_DSP/StatisticsFunctions/arm_max_q15.c ****       out = maxVal2;
 111:../Dave/Generated/CMSIS_DSP/StatisticsFunctions/arm_max_q15.c ****       outIndex = count + 4u;
 112:../Dave/Generated/CMSIS_DSP/StatisticsFunctions/arm_max_q15.c ****     }
 113:../Dave/Generated/CMSIS_DSP/StatisticsFunctions/arm_max_q15.c **** 
 114:../Dave/Generated/CMSIS_DSP/StatisticsFunctions/arm_max_q15.c ****     count += 4u;
 115:../Dave/Generated/CMSIS_DSP/StatisticsFunctions/arm_max_q15.c **** 
 116:../Dave/Generated/CMSIS_DSP/StatisticsFunctions/arm_max_q15.c ****     /* Decrement the loop counter */
 117:../Dave/Generated/CMSIS_DSP/StatisticsFunctions/arm_max_q15.c ****     blkCnt--;
 118:../Dave/Generated/CMSIS_DSP/StatisticsFunctions/arm_max_q15.c ****   }
 119:../Dave/Generated/CMSIS_DSP/StatisticsFunctions/arm_max_q15.c **** 
 120:../Dave/Generated/CMSIS_DSP/StatisticsFunctions/arm_max_q15.c ****   /* if (blockSize - 1u) is not multiple of 4 */
 121:../Dave/Generated/CMSIS_DSP/StatisticsFunctions/arm_max_q15.c ****   blkCnt = (blockSize - 1u) % 4u;
 122:../Dave/Generated/CMSIS_DSP/StatisticsFunctions/arm_max_q15.c **** 
 123:../Dave/Generated/CMSIS_DSP/StatisticsFunctions/arm_max_q15.c **** #else
 124:../Dave/Generated/CMSIS_DSP/StatisticsFunctions/arm_max_q15.c ****   /* Run the below code for Cortex-M0 */
 125:../Dave/Generated/CMSIS_DSP/StatisticsFunctions/arm_max_q15.c **** 
 126:../Dave/Generated/CMSIS_DSP/StatisticsFunctions/arm_max_q15.c ****   q15_t maxVal1, out;                            /* Temporary variables to store the output value. 
 127:../Dave/Generated/CMSIS_DSP/StatisticsFunctions/arm_max_q15.c ****   uint32_t blkCnt, outIndex;                     /* loop counter */
 128:../Dave/Generated/CMSIS_DSP/StatisticsFunctions/arm_max_q15.c **** 
 129:../Dave/Generated/CMSIS_DSP/StatisticsFunctions/arm_max_q15.c ****   /* Initialise the index value to zero. */
 130:../Dave/Generated/CMSIS_DSP/StatisticsFunctions/arm_max_q15.c ****   outIndex = 0u;
 131:../Dave/Generated/CMSIS_DSP/StatisticsFunctions/arm_max_q15.c ****   /* Load first input value that act as reference value for comparision */
 132:../Dave/Generated/CMSIS_DSP/StatisticsFunctions/arm_max_q15.c ****   out = *pSrc++;
 133:../Dave/Generated/CMSIS_DSP/StatisticsFunctions/arm_max_q15.c **** 
 134:../Dave/Generated/CMSIS_DSP/StatisticsFunctions/arm_max_q15.c ****   blkCnt = (blockSize - 1u);
 135:../Dave/Generated/CMSIS_DSP/StatisticsFunctions/arm_max_q15.c **** 
 136:../Dave/Generated/CMSIS_DSP/StatisticsFunctions/arm_max_q15.c **** #endif /* #if defined (ARM_MATH_DSP) */
 137:../Dave/Generated/CMSIS_DSP/StatisticsFunctions/arm_max_q15.c **** 
 138:../Dave/Generated/CMSIS_DSP/StatisticsFunctions/arm_max_q15.c ****   while (blkCnt > 0u)
 121              	 .loc 1 138 0
 122 008c 18F00308 	 ands r8,r8,#3
 123              	.LVL10:
 124 0090 19D0     	 beq .L7
 125 0092 C8EB0108 	 rsb r8,r8,r1
 126              	.LVL11:
 127              	.L5:
 128 0096 3AF9024B 	 ldrsh r4,[r10],#2
 129 009a 3FB2     	 sxth r7,r7
 130 009c A742     	 cmp r7,r4
 131 009e 3846     	 mov r0,r7
 132 00a0 B8BF     	 it lt
 133 00a2 2046     	 movlt r0,r4
 134 00a4 BC42     	 cmp r4,r7
 135 00a6 C8BF     	 it gt
 136 00a8 4346     	 movgt r3,r8
 137              	.LVL12:
 138 00aa 08F10108 	 add r8,r8,#1
 139 00ae 80B2     	 uxth r0,r0
 140              	.LVL13:
 141 00b0 8845     	 cmp r8,r1
 142 00b2 87B2     	 uxth r7,r0
 143 00b4 EFD1     	 bne .L5
 144              	.LVL14:
 145              	.L4:
 139:../Dave/Generated/CMSIS_DSP/StatisticsFunctions/arm_max_q15.c ****   {
 140:../Dave/Generated/CMSIS_DSP/StatisticsFunctions/arm_max_q15.c ****     /* Initialize maxVal to the next consecutive values one by one */
 141:../Dave/Generated/CMSIS_DSP/StatisticsFunctions/arm_max_q15.c ****     maxVal1 = *pSrc++;
 142:../Dave/Generated/CMSIS_DSP/StatisticsFunctions/arm_max_q15.c **** 
 143:../Dave/Generated/CMSIS_DSP/StatisticsFunctions/arm_max_q15.c ****     /* compare for the maximum value */
 144:../Dave/Generated/CMSIS_DSP/StatisticsFunctions/arm_max_q15.c ****     if (out < maxVal1)
 145:../Dave/Generated/CMSIS_DSP/StatisticsFunctions/arm_max_q15.c ****     {
 146:../Dave/Generated/CMSIS_DSP/StatisticsFunctions/arm_max_q15.c ****       /* Update the maximum value and it's index */
 147:../Dave/Generated/CMSIS_DSP/StatisticsFunctions/arm_max_q15.c ****       out = maxVal1;
 148:../Dave/Generated/CMSIS_DSP/StatisticsFunctions/arm_max_q15.c ****       outIndex = blockSize - blkCnt;
 149:../Dave/Generated/CMSIS_DSP/StatisticsFunctions/arm_max_q15.c ****     }
 150:../Dave/Generated/CMSIS_DSP/StatisticsFunctions/arm_max_q15.c **** 
 151:../Dave/Generated/CMSIS_DSP/StatisticsFunctions/arm_max_q15.c ****     /* Decrement the loop counter */
 152:../Dave/Generated/CMSIS_DSP/StatisticsFunctions/arm_max_q15.c ****     blkCnt--;
 153:../Dave/Generated/CMSIS_DSP/StatisticsFunctions/arm_max_q15.c ****   }
 154:../Dave/Generated/CMSIS_DSP/StatisticsFunctions/arm_max_q15.c **** 
 155:../Dave/Generated/CMSIS_DSP/StatisticsFunctions/arm_max_q15.c ****   /* Store the maximum value and it's index into destination pointers */
 156:../Dave/Generated/CMSIS_DSP/StatisticsFunctions/arm_max_q15.c ****   *pResult = out;
 146              	 .loc 1 156 0
 147 00b6 1080     	 strh r0,[r2]
 157:../Dave/Generated/CMSIS_DSP/StatisticsFunctions/arm_max_q15.c ****   *pIndex = outIndex;
 148              	 .loc 1 157 0
 149 00b8 019A     	 ldr r2,[sp,#4]
 150              	.LVL15:
 151 00ba 1360     	 str r3,[r2]
 158:../Dave/Generated/CMSIS_DSP/StatisticsFunctions/arm_max_q15.c **** }
 152              	 .loc 1 158 0
 153 00bc 03B0     	 add sp,sp,#12
 154              	.LCFI2:
 155              	 .cfi_remember_state
 156              	 .cfi_def_cfa_offset 36
 157              	 
 158 00be BDE8F08F 	 pop {r4,r5,r6,r7,r8,r9,r10,fp,pc}
 159              	.LVL16:
 160              	.L6:
 161              	.LCFI3:
 162              	 .cfi_restore_state
  65:../Dave/Generated/CMSIS_DSP/StatisticsFunctions/arm_max_q15.c ****   /* Load first input value that act as reference value for comparision */
 163              	 .loc 1 65 0
 164 00c2 5B46     	 mov r3,fp
 165              	.LVL17:
 166 00c4 E2E7     	 b .L2
 167              	.LVL18:
 168              	.L7:
 138:../Dave/Generated/CMSIS_DSP/StatisticsFunctions/arm_max_q15.c ****   {
 169              	 .loc 1 138 0
 170 00c6 3846     	 mov r0,r7
 171 00c8 F5E7     	 b .L4
 172              	 .cfi_endproc
 173              	.LFE135:
 175 00ca 00BF     	 .text
 176              	.Letext0:
 177              	 .file 2 "c:\\infineon\\tools\\dave ide\\4.5.0.202105191637\\eclipse\\arm-gcc-49\\arm-none-eabi\\include\\machine\\_default_types.h"
 178              	 .file 3 "c:\\infineon\\tools\\dave ide\\4.5.0.202105191637\\eclipse\\arm-gcc-49\\arm-none-eabi\\include\\stdint.h"
 179              	 .file 4 "C:/Users/Utente/Desktop/Tesi/Firmware_Software/DAVE project/S2GLP_Pulsed_Doppler/Dave/Generated/CMSIS_DSP/arm_math.h"