   1              	 .syntax unified
   2              	 .cpu cortex-m4
   3              	 .eabi_attribute 27,3
   4              	 .fpu fpv4-sp-d16
   5              	 .eabi_attribute 20,1
   6              	 .eabi_attribute 21,1
   7              	 .eabi_attribute 23,3
   8              	 .eabi_attribute 24,1
   9              	 .eabi_attribute 25,1
  10              	 .eabi_attribute 26,1
  11              	 .eabi_attribute 30,2
  12              	 .eabi_attribute 34,1
  13              	 .eabi_attribute 18,4
  14              	 .thumb
  15              	 .file "arm_min_q31.c"
  16              	 .text
  17              	.Ltext0:
  18              	 .cfi_sections .debug_frame
  19              	 .section .text.arm_min_q31,"ax",%progbits
  20              	 .align 2
  21              	 .global arm_min_q31
  22              	 .thumb
  23              	 .thumb_func
  25              	arm_min_q31:
  26              	.LFB135:
  27              	 .file 1 "../Dave/Generated/CMSIS_DSP/StatisticsFunctions/arm_min_q31.c"
   1:../Dave/Generated/CMSIS_DSP/StatisticsFunctions/arm_min_q31.c **** /* ----------------------------------------------------------------------
   2:../Dave/Generated/CMSIS_DSP/StatisticsFunctions/arm_min_q31.c ****  * Project:      CMSIS DSP Library
   3:../Dave/Generated/CMSIS_DSP/StatisticsFunctions/arm_min_q31.c ****  * Title:        arm_min_q31.c
   4:../Dave/Generated/CMSIS_DSP/StatisticsFunctions/arm_min_q31.c ****  * Description:  Minimum value of a Q31 vector
   5:../Dave/Generated/CMSIS_DSP/StatisticsFunctions/arm_min_q31.c ****  *
   6:../Dave/Generated/CMSIS_DSP/StatisticsFunctions/arm_min_q31.c ****  * $Date:        27. January 2017
   7:../Dave/Generated/CMSIS_DSP/StatisticsFunctions/arm_min_q31.c ****  * $Revision:    V.1.5.1
   8:../Dave/Generated/CMSIS_DSP/StatisticsFunctions/arm_min_q31.c ****  *
   9:../Dave/Generated/CMSIS_DSP/StatisticsFunctions/arm_min_q31.c ****  * Target Processor: Cortex-M cores
  10:../Dave/Generated/CMSIS_DSP/StatisticsFunctions/arm_min_q31.c ****  * -------------------------------------------------------------------- */
  11:../Dave/Generated/CMSIS_DSP/StatisticsFunctions/arm_min_q31.c **** /*
  12:../Dave/Generated/CMSIS_DSP/StatisticsFunctions/arm_min_q31.c ****  * Copyright (C) 2010-2017 ARM Limited or its affiliates. All rights reserved.
  13:../Dave/Generated/CMSIS_DSP/StatisticsFunctions/arm_min_q31.c ****  *
  14:../Dave/Generated/CMSIS_DSP/StatisticsFunctions/arm_min_q31.c ****  * SPDX-License-Identifier: Apache-2.0
  15:../Dave/Generated/CMSIS_DSP/StatisticsFunctions/arm_min_q31.c ****  *
  16:../Dave/Generated/CMSIS_DSP/StatisticsFunctions/arm_min_q31.c ****  * Licensed under the Apache License, Version 2.0 (the License); you may
  17:../Dave/Generated/CMSIS_DSP/StatisticsFunctions/arm_min_q31.c ****  * not use this file except in compliance with the License.
  18:../Dave/Generated/CMSIS_DSP/StatisticsFunctions/arm_min_q31.c ****  * You may obtain a copy of the License at
  19:../Dave/Generated/CMSIS_DSP/StatisticsFunctions/arm_min_q31.c ****  *
  20:../Dave/Generated/CMSIS_DSP/StatisticsFunctions/arm_min_q31.c ****  * www.apache.org/licenses/LICENSE-2.0
  21:../Dave/Generated/CMSIS_DSP/StatisticsFunctions/arm_min_q31.c ****  *
  22:../Dave/Generated/CMSIS_DSP/StatisticsFunctions/arm_min_q31.c ****  * Unless required by applicable law or agreed to in writing, software
  23:../Dave/Generated/CMSIS_DSP/StatisticsFunctions/arm_min_q31.c ****  * distributed under the License is distributed on an AS IS BASIS, WITHOUT
  24:../Dave/Generated/CMSIS_DSP/StatisticsFunctions/arm_min_q31.c ****  * WARRANTIES OR CONDITIONS OF ANY KIND, either express or implied.
  25:../Dave/Generated/CMSIS_DSP/StatisticsFunctions/arm_min_q31.c ****  * See the License for the specific language governing permissions and
  26:../Dave/Generated/CMSIS_DSP/StatisticsFunctions/arm_min_q31.c ****  * limitations under the License.
  27:../Dave/Generated/CMSIS_DSP/StatisticsFunctions/arm_min_q31.c ****  */
  28:../Dave/Generated/CMSIS_DSP/StatisticsFunctions/arm_min_q31.c **** 
  29:../Dave/Generated/CMSIS_DSP/StatisticsFunctions/arm_min_q31.c **** #include "CMSIS_DSP/cmsis_dsp.h"
  30:../Dave/Generated/CMSIS_DSP/StatisticsFunctions/arm_min_q31.c **** 
  31:../Dave/Generated/CMSIS_DSP/StatisticsFunctions/arm_min_q31.c **** /**
  32:../Dave/Generated/CMSIS_DSP/StatisticsFunctions/arm_min_q31.c ****  * @ingroup groupStats
  33:../Dave/Generated/CMSIS_DSP/StatisticsFunctions/arm_min_q31.c ****  */
  34:../Dave/Generated/CMSIS_DSP/StatisticsFunctions/arm_min_q31.c **** 
  35:../Dave/Generated/CMSIS_DSP/StatisticsFunctions/arm_min_q31.c **** 
  36:../Dave/Generated/CMSIS_DSP/StatisticsFunctions/arm_min_q31.c **** /**
  37:../Dave/Generated/CMSIS_DSP/StatisticsFunctions/arm_min_q31.c ****  * @addtogroup Min
  38:../Dave/Generated/CMSIS_DSP/StatisticsFunctions/arm_min_q31.c ****  * @{
  39:../Dave/Generated/CMSIS_DSP/StatisticsFunctions/arm_min_q31.c ****  */
  40:../Dave/Generated/CMSIS_DSP/StatisticsFunctions/arm_min_q31.c **** 
  41:../Dave/Generated/CMSIS_DSP/StatisticsFunctions/arm_min_q31.c **** 
  42:../Dave/Generated/CMSIS_DSP/StatisticsFunctions/arm_min_q31.c **** /**
  43:../Dave/Generated/CMSIS_DSP/StatisticsFunctions/arm_min_q31.c ****  * @brief Minimum value of a Q31 vector.
  44:../Dave/Generated/CMSIS_DSP/StatisticsFunctions/arm_min_q31.c ****  * @param[in]       *pSrc points to the input vector
  45:../Dave/Generated/CMSIS_DSP/StatisticsFunctions/arm_min_q31.c ****  * @param[in]       blockSize length of the input vector
  46:../Dave/Generated/CMSIS_DSP/StatisticsFunctions/arm_min_q31.c ****  * @param[out]      *pResult minimum value returned here
  47:../Dave/Generated/CMSIS_DSP/StatisticsFunctions/arm_min_q31.c ****  * @param[out]      *pIndex index of minimum value returned here
  48:../Dave/Generated/CMSIS_DSP/StatisticsFunctions/arm_min_q31.c ****  * @return none.
  49:../Dave/Generated/CMSIS_DSP/StatisticsFunctions/arm_min_q31.c ****  */
  50:../Dave/Generated/CMSIS_DSP/StatisticsFunctions/arm_min_q31.c **** 
  51:../Dave/Generated/CMSIS_DSP/StatisticsFunctions/arm_min_q31.c **** void arm_min_q31(
  52:../Dave/Generated/CMSIS_DSP/StatisticsFunctions/arm_min_q31.c ****   q31_t * pSrc,
  53:../Dave/Generated/CMSIS_DSP/StatisticsFunctions/arm_min_q31.c ****   uint32_t blockSize,
  54:../Dave/Generated/CMSIS_DSP/StatisticsFunctions/arm_min_q31.c ****   q31_t * pResult,
  55:../Dave/Generated/CMSIS_DSP/StatisticsFunctions/arm_min_q31.c ****   uint32_t * pIndex)
  56:../Dave/Generated/CMSIS_DSP/StatisticsFunctions/arm_min_q31.c **** {
  28              	 .loc 1 56 0
  29              	 .cfi_startproc
  30              	 
  31              	 
  32              	.LVL0:
  33 0000 2DE9F04F 	 push {r4,r5,r6,r7,r8,r9,r10,fp,lr}
  34              	.LCFI0:
  35              	 .cfi_def_cfa_offset 36
  36              	 .cfi_offset 4,-36
  37              	 .cfi_offset 5,-32
  38              	 .cfi_offset 6,-28
  39              	 .cfi_offset 7,-24
  40              	 .cfi_offset 8,-20
  41              	 .cfi_offset 9,-16
  42              	 .cfi_offset 10,-12
  43              	 .cfi_offset 11,-8
  44              	 .cfi_offset 14,-4
  57:../Dave/Generated/CMSIS_DSP/StatisticsFunctions/arm_min_q31.c **** #if defined (ARM_MATH_DSP)
  58:../Dave/Generated/CMSIS_DSP/StatisticsFunctions/arm_min_q31.c ****   /* Run the below code for Cortex-M4 and Cortex-M3 */
  59:../Dave/Generated/CMSIS_DSP/StatisticsFunctions/arm_min_q31.c **** 
  60:../Dave/Generated/CMSIS_DSP/StatisticsFunctions/arm_min_q31.c ****   q31_t minVal1, minVal2, out;                   /* Temporary variables to store the output value. 
  61:../Dave/Generated/CMSIS_DSP/StatisticsFunctions/arm_min_q31.c ****   uint32_t blkCnt, outIndex, count;              /* loop counter */
  62:../Dave/Generated/CMSIS_DSP/StatisticsFunctions/arm_min_q31.c **** 
  63:../Dave/Generated/CMSIS_DSP/StatisticsFunctions/arm_min_q31.c ****   /* Initialise the count value. */
  64:../Dave/Generated/CMSIS_DSP/StatisticsFunctions/arm_min_q31.c ****   count = 0u;
  65:../Dave/Generated/CMSIS_DSP/StatisticsFunctions/arm_min_q31.c ****   /* Initialise the index value to zero. */
  66:../Dave/Generated/CMSIS_DSP/StatisticsFunctions/arm_min_q31.c ****   outIndex = 0u;
  67:../Dave/Generated/CMSIS_DSP/StatisticsFunctions/arm_min_q31.c ****   /* Load first input value that act as reference value for comparision */
  68:../Dave/Generated/CMSIS_DSP/StatisticsFunctions/arm_min_q31.c ****   out = *pSrc++;
  69:../Dave/Generated/CMSIS_DSP/StatisticsFunctions/arm_min_q31.c **** 
  70:../Dave/Generated/CMSIS_DSP/StatisticsFunctions/arm_min_q31.c ****   /* Loop unrolling */
  71:../Dave/Generated/CMSIS_DSP/StatisticsFunctions/arm_min_q31.c ****   blkCnt = (blockSize - 1u) >> 2u;
  45              	 .loc 1 71 0
  46 0004 01F1FF3E 	 add lr,r1,#-1
  72:../Dave/Generated/CMSIS_DSP/StatisticsFunctions/arm_min_q31.c **** 
  73:../Dave/Generated/CMSIS_DSP/StatisticsFunctions/arm_min_q31.c ****   while (blkCnt > 0u)
  47              	 .loc 1 73 0
  48 0008 5FEA9E09 	 lsrs r9,lr,#2
  68:../Dave/Generated/CMSIS_DSP/StatisticsFunctions/arm_min_q31.c **** 
  49              	 .loc 1 68 0
  50 000c 00F10408 	 add r8,r0,#4
  51              	.LVL1:
  52 0010 0468     	 ldr r4,[r0]
  53              	.LVL2:
  54              	 .loc 1 73 0
  55 0012 49D0     	 beq .L6
  56 0014 1430     	 adds r0,r0,#20
  57 0016 CC46     	 mov ip,r9
  58 0018 0427     	 movs r7,#4
  59 001a 0026     	 movs r6,#0
  60              	.LVL3:
  61              	.L3:
  74:../Dave/Generated/CMSIS_DSP/StatisticsFunctions/arm_min_q31.c ****   {
  75:../Dave/Generated/CMSIS_DSP/StatisticsFunctions/arm_min_q31.c ****     /* Initialize minVal to the next consecutive values one by one */
  76:../Dave/Generated/CMSIS_DSP/StatisticsFunctions/arm_min_q31.c ****     minVal1 = *pSrc++;
  62              	 .loc 1 76 0
  63 001c 50F810BC 	 ldr fp,[r0,#-16]
  77:../Dave/Generated/CMSIS_DSP/StatisticsFunctions/arm_min_q31.c ****     minVal2 = *pSrc++;
  64              	 .loc 1 77 0
  65 0020 50F80C5C 	 ldr r5,[r0,#-12]
  78:../Dave/Generated/CMSIS_DSP/StatisticsFunctions/arm_min_q31.c **** 
  79:../Dave/Generated/CMSIS_DSP/StatisticsFunctions/arm_min_q31.c ****     /* compare for the minimum value */
  80:../Dave/Generated/CMSIS_DSP/StatisticsFunctions/arm_min_q31.c ****     if (out > minVal1)
  81:../Dave/Generated/CMSIS_DSP/StatisticsFunctions/arm_min_q31.c ****     {
  82:../Dave/Generated/CMSIS_DSP/StatisticsFunctions/arm_min_q31.c ****       /* Update the minimum value and its index */
  83:../Dave/Generated/CMSIS_DSP/StatisticsFunctions/arm_min_q31.c ****       out = minVal1;
  84:../Dave/Generated/CMSIS_DSP/StatisticsFunctions/arm_min_q31.c ****       outIndex = count + 1u;
  66              	 .loc 1 84 0
  67 0024 A7F1030A 	 sub r10,r7,#3
  68 0028 A345     	 cmp fp,r4
  69 002a A8BF     	 it ge
  70 002c B246     	 movge r10,r6
  71 002e 5C45     	 cmp r4,fp
  72 0030 A8BF     	 it ge
  73 0032 5C46     	 movge r4,fp
  85:../Dave/Generated/CMSIS_DSP/StatisticsFunctions/arm_min_q31.c ****     }
  86:../Dave/Generated/CMSIS_DSP/StatisticsFunctions/arm_min_q31.c **** 
  87:../Dave/Generated/CMSIS_DSP/StatisticsFunctions/arm_min_q31.c ****     /* compare for the minimum value */
  88:../Dave/Generated/CMSIS_DSP/StatisticsFunctions/arm_min_q31.c ****     if (out > minVal2)
  89:../Dave/Generated/CMSIS_DSP/StatisticsFunctions/arm_min_q31.c ****     {
  90:../Dave/Generated/CMSIS_DSP/StatisticsFunctions/arm_min_q31.c ****       /* Update the minimum value and its index */
  91:../Dave/Generated/CMSIS_DSP/StatisticsFunctions/arm_min_q31.c ****       out = minVal2;
  92:../Dave/Generated/CMSIS_DSP/StatisticsFunctions/arm_min_q31.c ****       outIndex = count + 2u;
  74              	 .loc 1 92 0
  75 0034 A7F1020B 	 sub fp,r7,#2
  76 0038 AC42     	 cmp r4,r5
  77 003a C8BF     	 it gt
  78 003c DA46     	 movgt r10,fp
  93:../Dave/Generated/CMSIS_DSP/StatisticsFunctions/arm_min_q31.c ****     }
  94:../Dave/Generated/CMSIS_DSP/StatisticsFunctions/arm_min_q31.c **** 
  95:../Dave/Generated/CMSIS_DSP/StatisticsFunctions/arm_min_q31.c ****     /* Initialize minVal to the next consecutive values one by one */
  96:../Dave/Generated/CMSIS_DSP/StatisticsFunctions/arm_min_q31.c ****     minVal1 = *pSrc++;
  79              	 .loc 1 96 0
  80 003e 50F8086C 	 ldr r6,[r0,#-8]
  81 0042 A542     	 cmp r5,r4
  82 0044 A8BF     	 it ge
  83 0046 2546     	 movge r5,r4
  97:../Dave/Generated/CMSIS_DSP/StatisticsFunctions/arm_min_q31.c ****     minVal2 = *pSrc++;
  98:../Dave/Generated/CMSIS_DSP/StatisticsFunctions/arm_min_q31.c **** 
  99:../Dave/Generated/CMSIS_DSP/StatisticsFunctions/arm_min_q31.c ****     /* compare for the minimum value */
 100:../Dave/Generated/CMSIS_DSP/StatisticsFunctions/arm_min_q31.c ****     if (out > minVal1)
 101:../Dave/Generated/CMSIS_DSP/StatisticsFunctions/arm_min_q31.c ****     {
 102:../Dave/Generated/CMSIS_DSP/StatisticsFunctions/arm_min_q31.c ****       /* Update the minimum value and its index */
 103:../Dave/Generated/CMSIS_DSP/StatisticsFunctions/arm_min_q31.c ****       out = minVal1;
 104:../Dave/Generated/CMSIS_DSP/StatisticsFunctions/arm_min_q31.c ****       outIndex = count + 3u;
  84              	 .loc 1 104 0
  85 0048 07F1FF3B 	 add fp,r7,#-1
  97:../Dave/Generated/CMSIS_DSP/StatisticsFunctions/arm_min_q31.c ****     minVal2 = *pSrc++;
  86              	 .loc 1 97 0
  87 004c 50F8044C 	 ldr r4,[r0,#-4]
  88 0050 B542     	 cmp r5,r6
  89 0052 C8BF     	 it gt
  90 0054 DA46     	 movgt r10,fp
  91 0056 B542     	 cmp r5,r6
  92 0058 A8BF     	 it ge
  93 005a 3546     	 movge r5,r6
  94 005c A542     	 cmp r5,r4
  95 005e D4BF     	 ite le
  96 0060 5646     	 movle r6,r10
  97 0062 3E46     	 movgt r6,r7
  98              	.LVL4:
  99 0064 AC42     	 cmp r4,r5
 100 0066 A8BF     	 it ge
 101 0068 2C46     	 movge r4,r5
 102              	.LVL5:
  73:../Dave/Generated/CMSIS_DSP/StatisticsFunctions/arm_min_q31.c ****   {
 103              	 .loc 1 73 0
 104 006a BCF1010C 	 subs ip,ip,#1
 105              	.LVL6:
 106 006e 07F10407 	 add r7,r7,#4
 107              	.LVL7:
 108 0072 00F11000 	 add r0,r0,#16
 109              	.LVL8:
 110 0076 D1D1     	 bne .L3
 111 0078 08EB0918 	 add r8,r8,r9,lsl#4
 112              	.LVL9:
 113              	.L2:
 105:../Dave/Generated/CMSIS_DSP/StatisticsFunctions/arm_min_q31.c ****     }
 106:../Dave/Generated/CMSIS_DSP/StatisticsFunctions/arm_min_q31.c **** 
 107:../Dave/Generated/CMSIS_DSP/StatisticsFunctions/arm_min_q31.c ****     /* compare for the minimum value */
 108:../Dave/Generated/CMSIS_DSP/StatisticsFunctions/arm_min_q31.c ****     if (out > minVal2)
 109:../Dave/Generated/CMSIS_DSP/StatisticsFunctions/arm_min_q31.c ****     {
 110:../Dave/Generated/CMSIS_DSP/StatisticsFunctions/arm_min_q31.c ****       /* Update the minimum value and its index */
 111:../Dave/Generated/CMSIS_DSP/StatisticsFunctions/arm_min_q31.c ****       out = minVal2;
 112:../Dave/Generated/CMSIS_DSP/StatisticsFunctions/arm_min_q31.c ****       outIndex = count + 4u;
 113:../Dave/Generated/CMSIS_DSP/StatisticsFunctions/arm_min_q31.c ****     }
 114:../Dave/Generated/CMSIS_DSP/StatisticsFunctions/arm_min_q31.c **** 
 115:../Dave/Generated/CMSIS_DSP/StatisticsFunctions/arm_min_q31.c ****     count += 4u;
 116:../Dave/Generated/CMSIS_DSP/StatisticsFunctions/arm_min_q31.c **** 
 117:../Dave/Generated/CMSIS_DSP/StatisticsFunctions/arm_min_q31.c ****     /* Decrement the loop counter */
 118:../Dave/Generated/CMSIS_DSP/StatisticsFunctions/arm_min_q31.c ****     blkCnt--;
 119:../Dave/Generated/CMSIS_DSP/StatisticsFunctions/arm_min_q31.c ****   }
 120:../Dave/Generated/CMSIS_DSP/StatisticsFunctions/arm_min_q31.c **** 
 121:../Dave/Generated/CMSIS_DSP/StatisticsFunctions/arm_min_q31.c ****   /* if (blockSize - 1u) is not multiple of 4 */
 122:../Dave/Generated/CMSIS_DSP/StatisticsFunctions/arm_min_q31.c ****   blkCnt = (blockSize - 1u) % 4u;
 123:../Dave/Generated/CMSIS_DSP/StatisticsFunctions/arm_min_q31.c **** 
 124:../Dave/Generated/CMSIS_DSP/StatisticsFunctions/arm_min_q31.c **** #else
 125:../Dave/Generated/CMSIS_DSP/StatisticsFunctions/arm_min_q31.c ****   /* Run the below code for Cortex-M0 */
 126:../Dave/Generated/CMSIS_DSP/StatisticsFunctions/arm_min_q31.c **** 
 127:../Dave/Generated/CMSIS_DSP/StatisticsFunctions/arm_min_q31.c ****   q31_t minVal1, out;                            /* Temporary variables to store the output value. 
 128:../Dave/Generated/CMSIS_DSP/StatisticsFunctions/arm_min_q31.c ****   uint32_t blkCnt, outIndex;                     /* loop counter */
 129:../Dave/Generated/CMSIS_DSP/StatisticsFunctions/arm_min_q31.c **** 
 130:../Dave/Generated/CMSIS_DSP/StatisticsFunctions/arm_min_q31.c ****   /* Initialise the index value to zero. */
 131:../Dave/Generated/CMSIS_DSP/StatisticsFunctions/arm_min_q31.c ****   outIndex = 0u;
 132:../Dave/Generated/CMSIS_DSP/StatisticsFunctions/arm_min_q31.c ****   /* Load first input value that act as reference value for comparision */
 133:../Dave/Generated/CMSIS_DSP/StatisticsFunctions/arm_min_q31.c ****   out = *pSrc++;
 134:../Dave/Generated/CMSIS_DSP/StatisticsFunctions/arm_min_q31.c **** 
 135:../Dave/Generated/CMSIS_DSP/StatisticsFunctions/arm_min_q31.c ****   blkCnt = (blockSize - 1u);
 136:../Dave/Generated/CMSIS_DSP/StatisticsFunctions/arm_min_q31.c **** 
 137:../Dave/Generated/CMSIS_DSP/StatisticsFunctions/arm_min_q31.c **** #endif /* #if defined (ARM_MATH_DSP) */
 138:../Dave/Generated/CMSIS_DSP/StatisticsFunctions/arm_min_q31.c **** 
 139:../Dave/Generated/CMSIS_DSP/StatisticsFunctions/arm_min_q31.c ****   while (blkCnt > 0u)
 114              	 .loc 1 139 0
 115 007c 1EF0030E 	 ands lr,lr,#3
 116              	.LVL10:
 117 0080 14D0     	 beq .L7
 118 0082 CEEB010E 	 rsb lr,lr,r1
 119              	.LVL11:
 120              	.L5:
 140:../Dave/Generated/CMSIS_DSP/StatisticsFunctions/arm_min_q31.c ****   {
 141:../Dave/Generated/CMSIS_DSP/StatisticsFunctions/arm_min_q31.c ****     /* Initialize minVal to the next consecutive values one by one */
 142:../Dave/Generated/CMSIS_DSP/StatisticsFunctions/arm_min_q31.c ****     minVal1 = *pSrc++;
 121              	 .loc 1 142 0
 122 0086 58F8040B 	 ldr r0,[r8],#4
 123 008a A042     	 cmp r0,r4
 124 008c B8BF     	 it lt
 125 008e 7646     	 movlt r6,lr
 126              	.LVL12:
 127 0090 A042     	 cmp r0,r4
 128 0092 0EF1010E 	 add lr,lr,#1
 129 0096 A8BF     	 it ge
 130 0098 2046     	 movge r0,r4
 131              	.LVL13:
 139:../Dave/Generated/CMSIS_DSP/StatisticsFunctions/arm_min_q31.c ****   {
 132              	 .loc 1 139 0
 133 009a 8E45     	 cmp lr,r1
 134 009c 0446     	 mov r4,r0
 135 009e F2D1     	 bne .L5
 136              	.L4:
 143:../Dave/Generated/CMSIS_DSP/StatisticsFunctions/arm_min_q31.c **** 
 144:../Dave/Generated/CMSIS_DSP/StatisticsFunctions/arm_min_q31.c ****     /* compare for the minimum value */
 145:../Dave/Generated/CMSIS_DSP/StatisticsFunctions/arm_min_q31.c ****     if (out > minVal1)
 146:../Dave/Generated/CMSIS_DSP/StatisticsFunctions/arm_min_q31.c ****     {
 147:../Dave/Generated/CMSIS_DSP/StatisticsFunctions/arm_min_q31.c ****       /* Update the minimum value and it's index */
 148:../Dave/Generated/CMSIS_DSP/StatisticsFunctions/arm_min_q31.c ****       out = minVal1;
 149:../Dave/Generated/CMSIS_DSP/StatisticsFunctions/arm_min_q31.c ****       outIndex = blockSize - blkCnt;
 150:../Dave/Generated/CMSIS_DSP/StatisticsFunctions/arm_min_q31.c ****     }
 151:../Dave/Generated/CMSIS_DSP/StatisticsFunctions/arm_min_q31.c **** 
 152:../Dave/Generated/CMSIS_DSP/StatisticsFunctions/arm_min_q31.c ****     /* Decrement the loop counter */
 153:../Dave/Generated/CMSIS_DSP/StatisticsFunctions/arm_min_q31.c ****     blkCnt--;
 154:../Dave/Generated/CMSIS_DSP/StatisticsFunctions/arm_min_q31.c ****   }
 155:../Dave/Generated/CMSIS_DSP/StatisticsFunctions/arm_min_q31.c **** 
 156:../Dave/Generated/CMSIS_DSP/StatisticsFunctions/arm_min_q31.c ****   /* Store the minimum value and it's index into destination pointers */
 157:../Dave/Generated/CMSIS_DSP/StatisticsFunctions/arm_min_q31.c ****   *pResult = out;
 137              	 .loc 1 157 0
 138 00a0 1060     	 str r0,[r2]
 158:../Dave/Generated/CMSIS_DSP/StatisticsFunctions/arm_min_q31.c ****   *pIndex = outIndex;
 139              	 .loc 1 158 0
 140 00a2 1E60     	 str r6,[r3]
 141 00a4 BDE8F08F 	 pop {r4,r5,r6,r7,r8,r9,r10,fp,pc}
 142              	.LVL14:
 143              	.L6:
  66:../Dave/Generated/CMSIS_DSP/StatisticsFunctions/arm_min_q31.c ****   /* Load first input value that act as reference value for comparision */
 144              	 .loc 1 66 0
 145 00a8 4E46     	 mov r6,r9
 146 00aa E7E7     	 b .L2
 147              	.LVL15:
 148              	.L7:
 139:../Dave/Generated/CMSIS_DSP/StatisticsFunctions/arm_min_q31.c ****   {
 149              	 .loc 1 139 0
 150 00ac 2046     	 mov r0,r4
 151 00ae F7E7     	 b .L4
 152              	 .cfi_endproc
 153              	.LFE135:
 155              	 .text
 156              	.Letext0:
 157              	 .file 2 "c:\\infineon\\tools\\dave ide\\4.5.0.202105191637\\eclipse\\arm-gcc-49\\arm-none-eabi\\include\\machine\\_default_types.h"
 158              	 .file 3 "c:\\infineon\\tools\\dave ide\\4.5.0.202105191637\\eclipse\\arm-gcc-49\\arm-none-eabi\\include\\stdint.h"
 159              	 .file 4 "C:/Users/Utente/Desktop/Tesi/Firmware_Software/DAVE project/S2GLP_Pulsed_Doppler/Dave/Generated/CMSIS_DSP/arm_math.h"