   1              	 .syntax unified
   2              	 .cpu cortex-m4
   3              	 .eabi_attribute 27,3
   4              	 .fpu fpv4-sp-d16
   5              	 .eabi_attribute 20,1
   6              	 .eabi_attribute 21,1
   7              	 .eabi_attribute 23,3
   8              	 .eabi_attribute 24,1
   9              	 .eabi_attribute 25,1
  10              	 .eabi_attribute 26,1
  11              	 .eabi_attribute 30,2
  12              	 .eabi_attribute 34,1
  13              	 .eabi_attribute 18,4
  14              	 .thumb
  15              	 .file "arm_min_f32.c"
  16              	 .text
  17              	.Ltext0:
  18              	 .cfi_sections .debug_frame
  19              	 .section .text.arm_min_f32,"ax",%progbits
  20              	 .align 2
  21              	 .global arm_min_f32
  22              	 .thumb
  23              	 .thumb_func
  25              	arm_min_f32:
  26              	.LFB135:
  27              	 .file 1 "../Dave/Generated/CMSIS_DSP/StatisticsFunctions/arm_min_f32.c"
   1:../Dave/Generated/CMSIS_DSP/StatisticsFunctions/arm_min_f32.c **** /* ----------------------------------------------------------------------
   2:../Dave/Generated/CMSIS_DSP/StatisticsFunctions/arm_min_f32.c ****  * Project:      CMSIS DSP Library
   3:../Dave/Generated/CMSIS_DSP/StatisticsFunctions/arm_min_f32.c ****  * Title:        arm_min_f32.c
   4:../Dave/Generated/CMSIS_DSP/StatisticsFunctions/arm_min_f32.c ****  * Description:  Minimum value of a floating-point vector
   5:../Dave/Generated/CMSIS_DSP/StatisticsFunctions/arm_min_f32.c ****  *
   6:../Dave/Generated/CMSIS_DSP/StatisticsFunctions/arm_min_f32.c ****  * $Date:        27. January 2017
   7:../Dave/Generated/CMSIS_DSP/StatisticsFunctions/arm_min_f32.c ****  * $Revision:    V.1.5.1
   8:../Dave/Generated/CMSIS_DSP/StatisticsFunctions/arm_min_f32.c ****  *
   9:../Dave/Generated/CMSIS_DSP/StatisticsFunctions/arm_min_f32.c ****  * Target Processor: Cortex-M cores
  10:../Dave/Generated/CMSIS_DSP/StatisticsFunctions/arm_min_f32.c ****  * -------------------------------------------------------------------- */
  11:../Dave/Generated/CMSIS_DSP/StatisticsFunctions/arm_min_f32.c **** /*
  12:../Dave/Generated/CMSIS_DSP/StatisticsFunctions/arm_min_f32.c ****  * Copyright (C) 2010-2017 ARM Limited or its affiliates. All rights reserved.
  13:../Dave/Generated/CMSIS_DSP/StatisticsFunctions/arm_min_f32.c ****  *
  14:../Dave/Generated/CMSIS_DSP/StatisticsFunctions/arm_min_f32.c ****  * SPDX-License-Identifier: Apache-2.0
  15:../Dave/Generated/CMSIS_DSP/StatisticsFunctions/arm_min_f32.c ****  *
  16:../Dave/Generated/CMSIS_DSP/StatisticsFunctions/arm_min_f32.c ****  * Licensed under the Apache License, Version 2.0 (the License); you may
  17:../Dave/Generated/CMSIS_DSP/StatisticsFunctions/arm_min_f32.c ****  * not use this file except in compliance with the License.
  18:../Dave/Generated/CMSIS_DSP/StatisticsFunctions/arm_min_f32.c ****  * You may obtain a copy of the License at
  19:../Dave/Generated/CMSIS_DSP/StatisticsFunctions/arm_min_f32.c ****  *
  20:../Dave/Generated/CMSIS_DSP/StatisticsFunctions/arm_min_f32.c ****  * www.apache.org/licenses/LICENSE-2.0
  21:../Dave/Generated/CMSIS_DSP/StatisticsFunctions/arm_min_f32.c ****  *
  22:../Dave/Generated/CMSIS_DSP/StatisticsFunctions/arm_min_f32.c ****  * Unless required by applicable law or agreed to in writing, software
  23:../Dave/Generated/CMSIS_DSP/StatisticsFunctions/arm_min_f32.c ****  * distributed under the License is distributed on an AS IS BASIS, WITHOUT
  24:../Dave/Generated/CMSIS_DSP/StatisticsFunctions/arm_min_f32.c ****  * WARRANTIES OR CONDITIONS OF ANY KIND, either express or implied.
  25:../Dave/Generated/CMSIS_DSP/StatisticsFunctions/arm_min_f32.c ****  * See the License for the specific language governing permissions and
  26:../Dave/Generated/CMSIS_DSP/StatisticsFunctions/arm_min_f32.c ****  * limitations under the License.
  27:../Dave/Generated/CMSIS_DSP/StatisticsFunctions/arm_min_f32.c ****  */
  28:../Dave/Generated/CMSIS_DSP/StatisticsFunctions/arm_min_f32.c **** 
  29:../Dave/Generated/CMSIS_DSP/StatisticsFunctions/arm_min_f32.c **** #include "CMSIS_DSP/cmsis_dsp.h"
  30:../Dave/Generated/CMSIS_DSP/StatisticsFunctions/arm_min_f32.c **** 
  31:../Dave/Generated/CMSIS_DSP/StatisticsFunctions/arm_min_f32.c **** /**
  32:../Dave/Generated/CMSIS_DSP/StatisticsFunctions/arm_min_f32.c ****  * @ingroup groupStats
  33:../Dave/Generated/CMSIS_DSP/StatisticsFunctions/arm_min_f32.c ****  */
  34:../Dave/Generated/CMSIS_DSP/StatisticsFunctions/arm_min_f32.c **** 
  35:../Dave/Generated/CMSIS_DSP/StatisticsFunctions/arm_min_f32.c **** /**
  36:../Dave/Generated/CMSIS_DSP/StatisticsFunctions/arm_min_f32.c ****  * @defgroup Min Minimum
  37:../Dave/Generated/CMSIS_DSP/StatisticsFunctions/arm_min_f32.c ****  *
  38:../Dave/Generated/CMSIS_DSP/StatisticsFunctions/arm_min_f32.c ****  * Computes the minimum value of an array of data.
  39:../Dave/Generated/CMSIS_DSP/StatisticsFunctions/arm_min_f32.c ****  * The function returns both the minimum value and its position within the array.
  40:../Dave/Generated/CMSIS_DSP/StatisticsFunctions/arm_min_f32.c ****  * There are separate functions for floating-point, Q31, Q15, and Q7 data types.
  41:../Dave/Generated/CMSIS_DSP/StatisticsFunctions/arm_min_f32.c ****  */
  42:../Dave/Generated/CMSIS_DSP/StatisticsFunctions/arm_min_f32.c **** 
  43:../Dave/Generated/CMSIS_DSP/StatisticsFunctions/arm_min_f32.c **** /**
  44:../Dave/Generated/CMSIS_DSP/StatisticsFunctions/arm_min_f32.c ****  * @addtogroup Min
  45:../Dave/Generated/CMSIS_DSP/StatisticsFunctions/arm_min_f32.c ****  * @{
  46:../Dave/Generated/CMSIS_DSP/StatisticsFunctions/arm_min_f32.c ****  */
  47:../Dave/Generated/CMSIS_DSP/StatisticsFunctions/arm_min_f32.c **** 
  48:../Dave/Generated/CMSIS_DSP/StatisticsFunctions/arm_min_f32.c **** 
  49:../Dave/Generated/CMSIS_DSP/StatisticsFunctions/arm_min_f32.c **** /**
  50:../Dave/Generated/CMSIS_DSP/StatisticsFunctions/arm_min_f32.c ****  * @brief Minimum value of a floating-point vector.
  51:../Dave/Generated/CMSIS_DSP/StatisticsFunctions/arm_min_f32.c ****  * @param[in]       *pSrc points to the input vector
  52:../Dave/Generated/CMSIS_DSP/StatisticsFunctions/arm_min_f32.c ****  * @param[in]       blockSize length of the input vector
  53:../Dave/Generated/CMSIS_DSP/StatisticsFunctions/arm_min_f32.c ****  * @param[out]      *pResult minimum value returned here
  54:../Dave/Generated/CMSIS_DSP/StatisticsFunctions/arm_min_f32.c ****  * @param[out]      *pIndex index of minimum value returned here
  55:../Dave/Generated/CMSIS_DSP/StatisticsFunctions/arm_min_f32.c ****  * @return none.
  56:../Dave/Generated/CMSIS_DSP/StatisticsFunctions/arm_min_f32.c ****  */
  57:../Dave/Generated/CMSIS_DSP/StatisticsFunctions/arm_min_f32.c **** 
  58:../Dave/Generated/CMSIS_DSP/StatisticsFunctions/arm_min_f32.c **** void arm_min_f32(
  59:../Dave/Generated/CMSIS_DSP/StatisticsFunctions/arm_min_f32.c ****   float32_t * pSrc,
  60:../Dave/Generated/CMSIS_DSP/StatisticsFunctions/arm_min_f32.c ****   uint32_t blockSize,
  61:../Dave/Generated/CMSIS_DSP/StatisticsFunctions/arm_min_f32.c ****   float32_t * pResult,
  62:../Dave/Generated/CMSIS_DSP/StatisticsFunctions/arm_min_f32.c ****   uint32_t * pIndex)
  63:../Dave/Generated/CMSIS_DSP/StatisticsFunctions/arm_min_f32.c **** {
  28              	 .loc 1 63 0
  29              	 .cfi_startproc
  30              	 
  31              	 
  32              	.LVL0:
  33 0000 2DE9F041 	 push {r4,r5,r6,r7,r8,lr}
  34              	.LCFI0:
  35              	 .cfi_def_cfa_offset 24
  36              	 .cfi_offset 4,-24
  37              	 .cfi_offset 5,-20
  38              	 .cfi_offset 6,-16
  39              	 .cfi_offset 7,-12
  40              	 .cfi_offset 8,-8
  41              	 .cfi_offset 14,-4
  64:../Dave/Generated/CMSIS_DSP/StatisticsFunctions/arm_min_f32.c **** #if defined (ARM_MATH_DSP)
  65:../Dave/Generated/CMSIS_DSP/StatisticsFunctions/arm_min_f32.c ****   /* Run the below code for Cortex-M4 and Cortex-M3 */
  66:../Dave/Generated/CMSIS_DSP/StatisticsFunctions/arm_min_f32.c **** 
  67:../Dave/Generated/CMSIS_DSP/StatisticsFunctions/arm_min_f32.c ****   float32_t minVal1, minVal2, out;               /* Temporary variables to store the output value. 
  68:../Dave/Generated/CMSIS_DSP/StatisticsFunctions/arm_min_f32.c ****   uint32_t blkCnt, outIndex, count;              /* loop counter */
  69:../Dave/Generated/CMSIS_DSP/StatisticsFunctions/arm_min_f32.c **** 
  70:../Dave/Generated/CMSIS_DSP/StatisticsFunctions/arm_min_f32.c ****   /* Initialise the count value. */
  71:../Dave/Generated/CMSIS_DSP/StatisticsFunctions/arm_min_f32.c ****   count = 0u;
  72:../Dave/Generated/CMSIS_DSP/StatisticsFunctions/arm_min_f32.c ****   /* Initialise the index value to zero. */
  73:../Dave/Generated/CMSIS_DSP/StatisticsFunctions/arm_min_f32.c ****   outIndex = 0u;
  74:../Dave/Generated/CMSIS_DSP/StatisticsFunctions/arm_min_f32.c ****   /* Load first input value that act as reference value for comparision */
  75:../Dave/Generated/CMSIS_DSP/StatisticsFunctions/arm_min_f32.c ****   out = *pSrc++;
  76:../Dave/Generated/CMSIS_DSP/StatisticsFunctions/arm_min_f32.c **** 
  77:../Dave/Generated/CMSIS_DSP/StatisticsFunctions/arm_min_f32.c ****   /* Loop unrolling */
  78:../Dave/Generated/CMSIS_DSP/StatisticsFunctions/arm_min_f32.c ****   blkCnt = (blockSize - 1u) >> 2u;
  42              	 .loc 1 78 0
  43 0004 4F1E     	 subs r7,r1,#1
  79:../Dave/Generated/CMSIS_DSP/StatisticsFunctions/arm_min_f32.c **** 
  80:../Dave/Generated/CMSIS_DSP/StatisticsFunctions/arm_min_f32.c ****   while (blkCnt > 0u)
  44              	 .loc 1 80 0
  45 0006 5FEA9708 	 lsrs r8,r7,#2
  75:../Dave/Generated/CMSIS_DSP/StatisticsFunctions/arm_min_f32.c **** 
  46              	 .loc 1 75 0
  47 000a 00F1040E 	 add lr,r0,#4
  48              	.LVL1:
  49 000e D0ED007A 	 flds s15,[r0]
  50              	.LVL2:
  51              	 .loc 1 80 0
  52 0012 58D0     	 beq .L6
  53 0014 1430     	 adds r0,r0,#20
  54 0016 C446     	 mov ip,r8
  55 0018 0426     	 movs r6,#4
  56 001a 0024     	 movs r4,#0
  57              	.LVL3:
  58              	.L3:
  81:../Dave/Generated/CMSIS_DSP/StatisticsFunctions/arm_min_f32.c ****   {
  82:../Dave/Generated/CMSIS_DSP/StatisticsFunctions/arm_min_f32.c ****     /* Initialize minVal to the next consecutive values one by one */
  83:../Dave/Generated/CMSIS_DSP/StatisticsFunctions/arm_min_f32.c ****     minVal1 = *pSrc++;
  59              	 .loc 1 83 0
  60 001c 10ED046A 	 flds s12,[r0,#-16]
  84:../Dave/Generated/CMSIS_DSP/StatisticsFunctions/arm_min_f32.c ****     minVal2 = *pSrc++;
  61              	 .loc 1 84 0
  62 0020 50ED036A 	 flds s13,[r0,#-12]
  85:../Dave/Generated/CMSIS_DSP/StatisticsFunctions/arm_min_f32.c **** 
  86:../Dave/Generated/CMSIS_DSP/StatisticsFunctions/arm_min_f32.c ****     /* compare for the minimum value */
  87:../Dave/Generated/CMSIS_DSP/StatisticsFunctions/arm_min_f32.c ****     if (out > minVal1)
  88:../Dave/Generated/CMSIS_DSP/StatisticsFunctions/arm_min_f32.c ****     {
  89:../Dave/Generated/CMSIS_DSP/StatisticsFunctions/arm_min_f32.c ****       /* Update the minimum value and its index */
  90:../Dave/Generated/CMSIS_DSP/StatisticsFunctions/arm_min_f32.c ****       out = minVal1;
  91:../Dave/Generated/CMSIS_DSP/StatisticsFunctions/arm_min_f32.c ****       outIndex = count + 1u;
  92:../Dave/Generated/CMSIS_DSP/StatisticsFunctions/arm_min_f32.c ****     }
  93:../Dave/Generated/CMSIS_DSP/StatisticsFunctions/arm_min_f32.c **** 
  94:../Dave/Generated/CMSIS_DSP/StatisticsFunctions/arm_min_f32.c ****     /* compare for the minimum value */
  95:../Dave/Generated/CMSIS_DSP/StatisticsFunctions/arm_min_f32.c ****     if (out > minVal2)
  96:../Dave/Generated/CMSIS_DSP/StatisticsFunctions/arm_min_f32.c ****     {
  97:../Dave/Generated/CMSIS_DSP/StatisticsFunctions/arm_min_f32.c ****       /* Update the minimum value and its index */
  98:../Dave/Generated/CMSIS_DSP/StatisticsFunctions/arm_min_f32.c ****       out = minVal2;
  99:../Dave/Generated/CMSIS_DSP/StatisticsFunctions/arm_min_f32.c ****       outIndex = count + 2u;
 100:../Dave/Generated/CMSIS_DSP/StatisticsFunctions/arm_min_f32.c ****     }
 101:../Dave/Generated/CMSIS_DSP/StatisticsFunctions/arm_min_f32.c **** 
 102:../Dave/Generated/CMSIS_DSP/StatisticsFunctions/arm_min_f32.c ****     /* Initialize minVal to the next consecutive values one by one */
 103:../Dave/Generated/CMSIS_DSP/StatisticsFunctions/arm_min_f32.c ****     minVal1 = *pSrc++;
  63              	 .loc 1 103 0
  64 0024 10ED027A 	 flds s14,[r0,#-8]
 104:../Dave/Generated/CMSIS_DSP/StatisticsFunctions/arm_min_f32.c ****     minVal2 = *pSrc++;
  65              	 .loc 1 104 0
  66 0028 50ED015A 	 flds s11,[r0,#-4]
  67 002c B4EEE76A 	 fcmpes s12,s15
  68 0030 F1EE10FA 	 fmstat
  69 0034 48BF     	 it mi
  70 0036 F0EE467A 	 fcpysmi s15,s12
  91:../Dave/Generated/CMSIS_DSP/StatisticsFunctions/arm_min_f32.c ****     }
  71              	 .loc 1 91 0
  72 003a A6F10305 	 sub r5,r6,#3
  73 003e F4EEE67A 	 fcmpes s15,s13
  74 0042 48BF     	 it mi
  75 0044 2C46     	 movmi r4,r5
  76 0046 F1EE10FA 	 fmstat
  77 004a C8BF     	 it gt
  78 004c F0EE667A 	 fcpysgt s15,s13
  99:../Dave/Generated/CMSIS_DSP/StatisticsFunctions/arm_min_f32.c ****     }
  79              	 .loc 1 99 0
  80 0050 A6F10205 	 sub r5,r6,#2
  81 0054 F4EEC77A 	 fcmpes s15,s14
  82 0058 C8BF     	 it gt
  83 005a 2C46     	 movgt r4,r5
  84 005c F1EE10FA 	 fmstat
  85 0060 C8BF     	 it gt
  86 0062 F0EE477A 	 fcpysgt s15,s14
 105:../Dave/Generated/CMSIS_DSP/StatisticsFunctions/arm_min_f32.c **** 
 106:../Dave/Generated/CMSIS_DSP/StatisticsFunctions/arm_min_f32.c ****     /* compare for the minimum value */
 107:../Dave/Generated/CMSIS_DSP/StatisticsFunctions/arm_min_f32.c ****     if (out > minVal1)
 108:../Dave/Generated/CMSIS_DSP/StatisticsFunctions/arm_min_f32.c ****     {
 109:../Dave/Generated/CMSIS_DSP/StatisticsFunctions/arm_min_f32.c ****       /* Update the minimum value and its index */
 110:../Dave/Generated/CMSIS_DSP/StatisticsFunctions/arm_min_f32.c ****       out = minVal1;
 111:../Dave/Generated/CMSIS_DSP/StatisticsFunctions/arm_min_f32.c ****       outIndex = count + 3u;
  87              	 .loc 1 111 0
  88 0066 06F1FF35 	 add r5,r6,#-1
  89 006a F4EEE57A 	 fcmpes s15,s11
  90 006e C8BF     	 it gt
  91 0070 2C46     	 movgt r4,r5
  92 0072 F1EE10FA 	 fmstat
  93 0076 C8BF     	 it gt
  94 0078 3446     	 movgt r4,r6
  95              	.LVL4:
  96 007a C8BF     	 it gt
  97 007c F0EE657A 	 fcpysgt s15,s11
  98              	.LVL5:
  80:../Dave/Generated/CMSIS_DSP/StatisticsFunctions/arm_min_f32.c ****   {
  99              	 .loc 1 80 0
 100 0080 BCF1010C 	 subs ip,ip,#1
 101              	.LVL6:
 102 0084 06F10406 	 add r6,r6,#4
 103              	.LVL7:
 104 0088 00F11000 	 add r0,r0,#16
 105              	.LVL8:
 106 008c C6D1     	 bne .L3
 107 008e 0EEB081E 	 add lr,lr,r8,lsl#4
 108              	.LVL9:
 109              	.L2:
 112:../Dave/Generated/CMSIS_DSP/StatisticsFunctions/arm_min_f32.c ****     }
 113:../Dave/Generated/CMSIS_DSP/StatisticsFunctions/arm_min_f32.c **** 
 114:../Dave/Generated/CMSIS_DSP/StatisticsFunctions/arm_min_f32.c ****     /* compare for the minimum value */
 115:../Dave/Generated/CMSIS_DSP/StatisticsFunctions/arm_min_f32.c ****     if (out > minVal2)
 116:../Dave/Generated/CMSIS_DSP/StatisticsFunctions/arm_min_f32.c ****     {
 117:../Dave/Generated/CMSIS_DSP/StatisticsFunctions/arm_min_f32.c ****       /* Update the minimum value and its index */
 118:../Dave/Generated/CMSIS_DSP/StatisticsFunctions/arm_min_f32.c ****       out = minVal2;
 119:../Dave/Generated/CMSIS_DSP/StatisticsFunctions/arm_min_f32.c ****       outIndex = count + 4u;
 120:../Dave/Generated/CMSIS_DSP/StatisticsFunctions/arm_min_f32.c ****     }
 121:../Dave/Generated/CMSIS_DSP/StatisticsFunctions/arm_min_f32.c **** 
 122:../Dave/Generated/CMSIS_DSP/StatisticsFunctions/arm_min_f32.c ****     count += 4u;
 123:../Dave/Generated/CMSIS_DSP/StatisticsFunctions/arm_min_f32.c **** 
 124:../Dave/Generated/CMSIS_DSP/StatisticsFunctions/arm_min_f32.c ****     /* Decrement the loop counter */
 125:../Dave/Generated/CMSIS_DSP/StatisticsFunctions/arm_min_f32.c ****     blkCnt--;
 126:../Dave/Generated/CMSIS_DSP/StatisticsFunctions/arm_min_f32.c ****   }
 127:../Dave/Generated/CMSIS_DSP/StatisticsFunctions/arm_min_f32.c **** 
 128:../Dave/Generated/CMSIS_DSP/StatisticsFunctions/arm_min_f32.c ****   /* if (blockSize - 1u) is not multiple of 4 */
 129:../Dave/Generated/CMSIS_DSP/StatisticsFunctions/arm_min_f32.c ****   blkCnt = (blockSize - 1u) % 4u;
 130:../Dave/Generated/CMSIS_DSP/StatisticsFunctions/arm_min_f32.c **** 
 131:../Dave/Generated/CMSIS_DSP/StatisticsFunctions/arm_min_f32.c **** #else
 132:../Dave/Generated/CMSIS_DSP/StatisticsFunctions/arm_min_f32.c ****   /* Run the below code for Cortex-M0 */
 133:../Dave/Generated/CMSIS_DSP/StatisticsFunctions/arm_min_f32.c **** 
 134:../Dave/Generated/CMSIS_DSP/StatisticsFunctions/arm_min_f32.c ****   float32_t minVal1, out;                        /* Temporary variables to store the output value. 
 135:../Dave/Generated/CMSIS_DSP/StatisticsFunctions/arm_min_f32.c ****   uint32_t blkCnt, outIndex;                     /* loop counter */
 136:../Dave/Generated/CMSIS_DSP/StatisticsFunctions/arm_min_f32.c **** 
 137:../Dave/Generated/CMSIS_DSP/StatisticsFunctions/arm_min_f32.c ****   /* Initialise the index value to zero. */
 138:../Dave/Generated/CMSIS_DSP/StatisticsFunctions/arm_min_f32.c ****   outIndex = 0u;
 139:../Dave/Generated/CMSIS_DSP/StatisticsFunctions/arm_min_f32.c ****   /* Load first input value that act as reference value for comparision */
 140:../Dave/Generated/CMSIS_DSP/StatisticsFunctions/arm_min_f32.c ****   out = *pSrc++;
 141:../Dave/Generated/CMSIS_DSP/StatisticsFunctions/arm_min_f32.c **** 
 142:../Dave/Generated/CMSIS_DSP/StatisticsFunctions/arm_min_f32.c ****   blkCnt = (blockSize - 1u);
 143:../Dave/Generated/CMSIS_DSP/StatisticsFunctions/arm_min_f32.c **** 
 144:../Dave/Generated/CMSIS_DSP/StatisticsFunctions/arm_min_f32.c **** #endif /* #if defined (ARM_MATH_DSP) */
 145:../Dave/Generated/CMSIS_DSP/StatisticsFunctions/arm_min_f32.c **** 
 146:../Dave/Generated/CMSIS_DSP/StatisticsFunctions/arm_min_f32.c ****   while (blkCnt > 0u)
 110              	 .loc 1 146 0
 111 0092 17F00300 	 ands r0,r7,#3
 112              	.LVL10:
 113 0096 18D0     	 beq .L7
 114 0098 081A     	 subs r0,r1,r0
 115              	.LVL11:
 116              	.L5:
 147:../Dave/Generated/CMSIS_DSP/StatisticsFunctions/arm_min_f32.c ****   {
 148:../Dave/Generated/CMSIS_DSP/StatisticsFunctions/arm_min_f32.c ****     /* Initialize minVal to the next consecutive values one by one */
 149:../Dave/Generated/CMSIS_DSP/StatisticsFunctions/arm_min_f32.c ****     minVal1 = *pSrc++;
 117              	 .loc 1 149 0
 118 009a BEEC017A 	 fldmias lr!,{s14}
 119 009e B4EEE77A 	 fcmpes s14,s15
 120 00a2 F1EE10FA 	 fmstat
 121 00a6 48BF     	 it mi
 122 00a8 0446     	 movmi r4,r0
 123              	.LVL12:
 124 00aa 00F10100 	 add r0,r0,#1
 125 00ae 58BF     	 it pl
 126 00b0 B0EE677A 	 fcpyspl s14,s15
 127              	.LVL13:
 146:../Dave/Generated/CMSIS_DSP/StatisticsFunctions/arm_min_f32.c ****   {
 128              	 .loc 1 146 0
 129 00b4 8842     	 cmp r0,r1
 130 00b6 F0EE477A 	 fcpys s15,s14
 131 00ba EED1     	 bne .L5
 132              	.L4:
 150:../Dave/Generated/CMSIS_DSP/StatisticsFunctions/arm_min_f32.c **** 
 151:../Dave/Generated/CMSIS_DSP/StatisticsFunctions/arm_min_f32.c ****     /* compare for the minimum value */
 152:../Dave/Generated/CMSIS_DSP/StatisticsFunctions/arm_min_f32.c ****     if (out > minVal1)
 153:../Dave/Generated/CMSIS_DSP/StatisticsFunctions/arm_min_f32.c ****     {
 154:../Dave/Generated/CMSIS_DSP/StatisticsFunctions/arm_min_f32.c ****       /* Update the minimum value and it's index */
 155:../Dave/Generated/CMSIS_DSP/StatisticsFunctions/arm_min_f32.c ****       out = minVal1;
 156:../Dave/Generated/CMSIS_DSP/StatisticsFunctions/arm_min_f32.c ****       outIndex = blockSize - blkCnt;
 157:../Dave/Generated/CMSIS_DSP/StatisticsFunctions/arm_min_f32.c ****     }
 158:../Dave/Generated/CMSIS_DSP/StatisticsFunctions/arm_min_f32.c **** 
 159:../Dave/Generated/CMSIS_DSP/StatisticsFunctions/arm_min_f32.c ****     /* Decrement the loop counter */
 160:../Dave/Generated/CMSIS_DSP/StatisticsFunctions/arm_min_f32.c ****     blkCnt--;
 161:../Dave/Generated/CMSIS_DSP/StatisticsFunctions/arm_min_f32.c ****   }
 162:../Dave/Generated/CMSIS_DSP/StatisticsFunctions/arm_min_f32.c **** 
 163:../Dave/Generated/CMSIS_DSP/StatisticsFunctions/arm_min_f32.c ****   /* Store the minimum value and it's index into destination pointers */
 164:../Dave/Generated/CMSIS_DSP/StatisticsFunctions/arm_min_f32.c ****   *pResult = out;
 133              	 .loc 1 164 0
 134 00bc 82ED007A 	 fsts s14,[r2]
 165:../Dave/Generated/CMSIS_DSP/StatisticsFunctions/arm_min_f32.c ****   *pIndex = outIndex;
 135              	 .loc 1 165 0
 136 00c0 1C60     	 str r4,[r3]
 137 00c2 BDE8F081 	 pop {r4,r5,r6,r7,r8,pc}
 138              	.LVL14:
 139              	.L6:
  73:../Dave/Generated/CMSIS_DSP/StatisticsFunctions/arm_min_f32.c ****   /* Load first input value that act as reference value for comparision */
 140              	 .loc 1 73 0
 141 00c6 4446     	 mov r4,r8
 142 00c8 E3E7     	 b .L2
 143              	.LVL15:
 144              	.L7:
 146:../Dave/Generated/CMSIS_DSP/StatisticsFunctions/arm_min_f32.c ****   {
 145              	 .loc 1 146 0
 146 00ca B0EE677A 	 fcpys s14,s15
 147 00ce F5E7     	 b .L4
 148              	 .cfi_endproc
 149              	.LFE135:
 151              	 .text
 152              	.Letext0:
 153              	 .file 2 "c:\\infineon\\tools\\dave ide\\4.5.0.202105191637\\eclipse\\arm-gcc-49\\arm-none-eabi\\include\\machine\\_default_types.h"
 154              	 .file 3 "c:\\infineon\\tools\\dave ide\\4.5.0.202105191637\\eclipse\\arm-gcc-49\\arm-none-eabi\\include\\stdint.h"
 155              	 .file 4 "C:/Users/Utente/Desktop/Tesi/Firmware_Software/DAVE project/S2GLP_Pulsed_Doppler/Dave/Generated/CMSIS_DSP/arm_math.h"