   1              	 .syntax unified
   2              	 .cpu cortex-m4
   3              	 .eabi_attribute 27,3
   4              	 .fpu fpv4-sp-d16
   5              	 .eabi_attribute 20,1
   6              	 .eabi_attribute 21,1
   7              	 .eabi_attribute 23,3
   8              	 .eabi_attribute 24,1
   9              	 .eabi_attribute 25,1
  10              	 .eabi_attribute 26,1
  11              	 .eabi_attribute 30,2
  12              	 .eabi_attribute 34,1
  13              	 .eabi_attribute 18,4
  14              	 .thumb
  15              	 .file "system_XMC4700.c"
  16              	 .text
  17              	.Ltext0:
  18              	 .cfi_sections .debug_frame
  19              	 .section .text.SystemCoreSetup,"ax",%progbits
  20              	 .align 2
  21              	 .weak SystemCoreSetup
  22              	 .thumb
  23              	 .thumb_func
  25              	SystemCoreSetup:
  26              	.LFB125:
  27              	 .file 1 "../Startup/system_XMC4700.c"
   1:../Startup/system_XMC4700.c **** /**************************************************************************************************
   2:../Startup/system_XMC4700.c ****  * @file     system_XMC4700.c
   3:../Startup/system_XMC4700.c ****  * @brief    CMSIS Cortex-M4 Device Peripheral Access Layer Header File for the Infineon XMC4700 De
   4:../Startup/system_XMC4700.c ****  * @version  V1.0.3
   5:../Startup/system_XMC4700.c ****  * @date     09. Feb 2017
   6:../Startup/system_XMC4700.c ****  *
   7:../Startup/system_XMC4700.c ****  * @cond
   8:../Startup/system_XMC4700.c ****  **************************************************************************************************
   9:../Startup/system_XMC4700.c ****  * Copyright (c) 2015-2017, Infineon Technologies AG
  10:../Startup/system_XMC4700.c ****  * All rights reserved.
  11:../Startup/system_XMC4700.c ****  *
  12:../Startup/system_XMC4700.c ****  * Redistribution and use in source and binary forms, with or without modification,are permitted pr
  13:../Startup/system_XMC4700.c ****  * following conditions are met:
  14:../Startup/system_XMC4700.c ****  *
  15:../Startup/system_XMC4700.c ****  * Redistributions of source code must retain the above copyright notice, this list of conditions a
  16:../Startup/system_XMC4700.c ****  * disclaimer.
  17:../Startup/system_XMC4700.c ****  *
  18:../Startup/system_XMC4700.c ****  * Redistributions in binary form must reproduce the above copyright notice, this list of condition
  19:../Startup/system_XMC4700.c ****  * disclaimer in the documentation and/or other materials provided with the distribution.
  20:../Startup/system_XMC4700.c ****  *
  21:../Startup/system_XMC4700.c ****  * Neither the name of the copyright holders nor the names of its contributors may be used to endor
  22:../Startup/system_XMC4700.c ****  * products derived from this software without specific prior written permission.
  23:../Startup/system_XMC4700.c ****  *
  24:../Startup/system_XMC4700.c ****  * THIS SOFTWARE IS PROVIDED BY THE COPYRIGHT HOLDERS AND CONTRIBUTORS "AS IS" AND ANY EXPRESS OR I
  25:../Startup/system_XMC4700.c ****  * INCLUDING, BUT NOT LIMITED TO, THE IMPLIED WARRANTIES OF MERCHANTABILITY AND FITNESS FOR A PARTI
  26:../Startup/system_XMC4700.c ****  * DISCLAIMED. IN NO EVENT SHALL THE COPYRIGHT HOLDER OR CONTRIBUTORS BE LIABLE  FOR ANY DIRECT, IN
  27:../Startup/system_XMC4700.c ****  * SPECIAL, EXEMPLARY, OR CONSEQUENTIAL DAMAGES (INCLUDING, BUT NOT LIMITED TO, PROCUREMENT OF SUBS
  28:../Startup/system_XMC4700.c ****  * SERVICES; LOSS OF USE, DATA, OR PROFITS; OR BUSINESS INTERRUPTION) HOWEVER CAUSED AND ON ANY THE
  29:../Startup/system_XMC4700.c ****  * WHETHER IN CONTRACT, STRICT LIABILITY,OR TORT (INCLUDING NEGLIGENCE OR OTHERWISE) ARISING IN ANY
  30:../Startup/system_XMC4700.c ****  * OF THIS SOFTWARE, EVEN IF ADVISED OF THE POSSIBILITY OF SUCH DAMAGE.
  31:../Startup/system_XMC4700.c ****  *
  32:../Startup/system_XMC4700.c ****  * To improve the quality of the software, users are encouraged to share modifications, enhancement
  33:../Startup/system_XMC4700.c ****  * Infineon Technologies AG dave@infineon.com).
  34:../Startup/system_XMC4700.c ****  **************************************************************************************************
  35:../Startup/system_XMC4700.c ****  *
  36:../Startup/system_XMC4700.c ****  ********************** Version History ***************************************
  37:../Startup/system_XMC4700.c ****  * V1.0.0, 03. Sep 2015, Initial version
  38:../Startup/system_XMC4700.c ****  * V1.0.1, 26. Jan 2016, Disable trap generation from clock unit
  39:../Startup/system_XMC4700.c ****  * V1.0.2, 01. Jun 2016, Fix masking of OSCHPCTRL value
  40:../Startup/system_XMC4700.c ****  * V1.0.3, 09. Feb 2017, Fix activation of USBPLL when SDMMC clock is enabled 
  41:../Startup/system_XMC4700.c ****  ******************************************************************************
  42:../Startup/system_XMC4700.c ****  * @endcond
  43:../Startup/system_XMC4700.c ****  */
  44:../Startup/system_XMC4700.c **** 
  45:../Startup/system_XMC4700.c **** /*******************************************************************************
  46:../Startup/system_XMC4700.c ****  * Default clock initialization
  47:../Startup/system_XMC4700.c ****  * fPLL = 288MHz => fSYS = 144MHz => fCPU = 144MHz
  48:../Startup/system_XMC4700.c ****  *                                => fPB  = 144MHz
  49:../Startup/system_XMC4700.c ****  *                                => fCCU = 144MHz
  50:../Startup/system_XMC4700.c ****  *                                => fETH = 72MHz
  51:../Startup/system_XMC4700.c ****  *               => fUSB = 48MHz
  52:../Startup/system_XMC4700.c ****  *               => fEBU = 72MHz
  53:../Startup/system_XMC4700.c ****  *
  54:../Startup/system_XMC4700.c ****  * fUSBPLL Disabled, only enabled if SCU_CLK_USBCLKCR_USBSEL_USBPLL is selected
  55:../Startup/system_XMC4700.c ****  *
  56:../Startup/system_XMC4700.c ****  * fOFI = 24MHz => fWDT = 24MHz
  57:../Startup/system_XMC4700.c ****  *******************************************************************************/
  58:../Startup/system_XMC4700.c **** 
  59:../Startup/system_XMC4700.c **** /*******************************************************************************
  60:../Startup/system_XMC4700.c ****  * HEADER FILES
  61:../Startup/system_XMC4700.c ****  *******************************************************************************/
  62:../Startup/system_XMC4700.c **** #include <string.h>
  63:../Startup/system_XMC4700.c **** 
  64:../Startup/system_XMC4700.c **** #include <XMC4700.h>
  65:../Startup/system_XMC4700.c **** #include "system_XMC4700.h"
  66:../Startup/system_XMC4700.c **** 
  67:../Startup/system_XMC4700.c **** /*******************************************************************************
  68:../Startup/system_XMC4700.c ****  * MACROS
  69:../Startup/system_XMC4700.c ****  *******************************************************************************/
  70:../Startup/system_XMC4700.c **** 
  71:../Startup/system_XMC4700.c **** #define CHIPID_LOC ((uint8_t *)0x20000000UL)
  72:../Startup/system_XMC4700.c **** 
  73:../Startup/system_XMC4700.c **** /* Define WEAK attribute */
  74:../Startup/system_XMC4700.c **** #if !defined(__WEAK)
  75:../Startup/system_XMC4700.c **** #if defined ( __CC_ARM )
  76:../Startup/system_XMC4700.c **** #define __WEAK __attribute__ ((weak))
  77:../Startup/system_XMC4700.c **** #elif defined ( __ICCARM__ )
  78:../Startup/system_XMC4700.c **** #define __WEAK __weak
  79:../Startup/system_XMC4700.c **** #elif defined ( __GNUC__ )
  80:../Startup/system_XMC4700.c **** #define __WEAK __attribute__ ((weak))
  81:../Startup/system_XMC4700.c **** #elif defined ( __TASKING__ )
  82:../Startup/system_XMC4700.c **** #define __WEAK __attribute__ ((weak))
  83:../Startup/system_XMC4700.c **** #endif
  84:../Startup/system_XMC4700.c **** #endif
  85:../Startup/system_XMC4700.c **** 
  86:../Startup/system_XMC4700.c **** #define PMU_FLASH_WS          (0x4U)
  87:../Startup/system_XMC4700.c **** 
  88:../Startup/system_XMC4700.c **** #define FOSCREF               (2500000U)
  89:../Startup/system_XMC4700.c **** 
  90:../Startup/system_XMC4700.c **** #define DELAY_CNT_50US_50MHZ  (2500UL)
  91:../Startup/system_XMC4700.c **** #define DELAY_CNT_150US_50MHZ (7500UL)
  92:../Startup/system_XMC4700.c **** #define DELAY_CNT_50US_48MHZ  (2400UL)
  93:../Startup/system_XMC4700.c **** #define DELAY_CNT_50US_72MHZ  (3600UL)
  94:../Startup/system_XMC4700.c **** #define DELAY_CNT_50US_96MHZ  (4800UL)
  95:../Startup/system_XMC4700.c **** #define DELAY_CNT_50US_120MHZ (6000UL)
  96:../Startup/system_XMC4700.c **** #define DELAY_CNT_50US_144MHZ (7200UL)
  97:../Startup/system_XMC4700.c **** 
  98:../Startup/system_XMC4700.c **** #define SCU_PLL_PLLSTAT_OSC_USABLE  (SCU_PLL_PLLSTAT_PLLHV_Msk | \
  99:../Startup/system_XMC4700.c ****                                      SCU_PLL_PLLSTAT_PLLLV_Msk | \
 100:../Startup/system_XMC4700.c ****                                      SCU_PLL_PLLSTAT_PLLSP_Msk)
 101:../Startup/system_XMC4700.c **** 
 102:../Startup/system_XMC4700.c **** /*
 103:../Startup/system_XMC4700.c **** //-------- <<< Use Configuration Wizard in Context Menu >>> ------------------
 104:../Startup/system_XMC4700.c **** */
 105:../Startup/system_XMC4700.c **** 
 106:../Startup/system_XMC4700.c **** /*
 107:../Startup/system_XMC4700.c **** // <h> Clock configuration
 108:../Startup/system_XMC4700.c **** */
 109:../Startup/system_XMC4700.c **** 
 110:../Startup/system_XMC4700.c **** /*
 111:../Startup/system_XMC4700.c **** //    <o> External crystal frequency [Hz]
 112:../Startup/system_XMC4700.c **** //       <8000000=> 8MHz
 113:../Startup/system_XMC4700.c **** //       <12000000=> 12MHz
 114:../Startup/system_XMC4700.c **** //       <16000000=> 16MHz
 115:../Startup/system_XMC4700.c **** //    <i> Defines external crystal frequency
 116:../Startup/system_XMC4700.c **** //    <i> Default: 8MHz
 117:../Startup/system_XMC4700.c **** */
 118:../Startup/system_XMC4700.c **** #define OSCHP_FREQUENCY (12000000U)
 119:../Startup/system_XMC4700.c **** 
 120:../Startup/system_XMC4700.c **** /* USB PLL settings, fUSBPLL = 48MHz and fUSBPLLVCO = 384 MHz */
 121:../Startup/system_XMC4700.c **** /* Note: Implicit divider of 2 and fUSBPLLVCO >= 260 MHz and fUSBPLLVCO <= 520 MHz*/
 122:../Startup/system_XMC4700.c **** #if OSCHP_FREQUENCY == 8000000U
 123:../Startup/system_XMC4700.c **** #define USB_PDIV (1U)
 124:../Startup/system_XMC4700.c **** #define USB_NDIV (95U)
 125:../Startup/system_XMC4700.c **** 
 126:../Startup/system_XMC4700.c **** #elif OSCHP_FREQUENCY == 12000000U
 127:../Startup/system_XMC4700.c **** #define USB_PDIV (1U)
 128:../Startup/system_XMC4700.c **** #define USB_NDIV (63U)
 129:../Startup/system_XMC4700.c **** 
 130:../Startup/system_XMC4700.c **** #elif OSCHP_FREQUENCY == 16000000U
 131:../Startup/system_XMC4700.c **** #define USB_PDIV (1U)
 132:../Startup/system_XMC4700.c **** #define USB_NDIV (47U)
 133:../Startup/system_XMC4700.c **** 
 134:../Startup/system_XMC4700.c **** #else
 135:../Startup/system_XMC4700.c **** #error "External crystal frequency not supported"
 136:../Startup/system_XMC4700.c **** 
 137:../Startup/system_XMC4700.c **** #endif
 138:../Startup/system_XMC4700.c **** 
 139:../Startup/system_XMC4700.c **** /*
 140:../Startup/system_XMC4700.c **** //    <o> Backup clock calibration mode
 141:../Startup/system_XMC4700.c **** //       <0=> Factory calibration
 142:../Startup/system_XMC4700.c **** //       <1=> Automatic calibration
 143:../Startup/system_XMC4700.c **** //    <i> Default: Automatic calibration
 144:../Startup/system_XMC4700.c **** */
 145:../Startup/system_XMC4700.c **** #define FOFI_CALIBRATION_MODE 1
 146:../Startup/system_XMC4700.c **** #define FOFI_CALIBRATION_MODE_FACTORY 0
 147:../Startup/system_XMC4700.c **** #define FOFI_CALIBRATION_MODE_AUTOMATIC 1
 148:../Startup/system_XMC4700.c **** 
 149:../Startup/system_XMC4700.c **** /*
 150:../Startup/system_XMC4700.c **** //    <o> Standby clock (fSTDBY) source selection
 151:../Startup/system_XMC4700.c **** //       <0=> Internal slow oscillator (32768Hz)
 152:../Startup/system_XMC4700.c **** //       <1=> External crystal (32768Hz)
 153:../Startup/system_XMC4700.c **** //    <i> Default: Internal slow oscillator (32768Hz)
 154:../Startup/system_XMC4700.c **** */
 155:../Startup/system_XMC4700.c **** #define STDBY_CLOCK_SRC 0
 156:../Startup/system_XMC4700.c **** #define STDBY_CLOCK_SRC_OSI 0
 157:../Startup/system_XMC4700.c **** #define STDBY_CLOCK_SRC_OSCULP 1
 158:../Startup/system_XMC4700.c **** 
 159:../Startup/system_XMC4700.c **** /*
 160:../Startup/system_XMC4700.c **** //    <o> PLL clock source selection
 161:../Startup/system_XMC4700.c **** //       <0=> External crystal
 162:../Startup/system_XMC4700.c **** //       <1=> Internal fast oscillator
 163:../Startup/system_XMC4700.c **** //    <i> Default: External crystal
 164:../Startup/system_XMC4700.c **** */
 165:../Startup/system_XMC4700.c **** #define PLL_CLOCK_SRC 0
 166:../Startup/system_XMC4700.c **** #define PLL_CLOCK_SRC_EXT_XTAL 0
 167:../Startup/system_XMC4700.c **** #define PLL_CLOCK_SRC_OFI 1
 168:../Startup/system_XMC4700.c **** 
 169:../Startup/system_XMC4700.c **** /* PLL settings, fPLL = 288MHz */
 170:../Startup/system_XMC4700.c **** #if PLL_CLOCK_SRC == PLL_CLOCK_SRC_EXT_XTAL
 171:../Startup/system_XMC4700.c **** #if OSCHP_FREQUENCY == 8000000U
 172:../Startup/system_XMC4700.c **** #define PLL_PDIV (1U)
 173:../Startup/system_XMC4700.c **** #define PLL_NDIV (71U)
 174:../Startup/system_XMC4700.c **** #define PLL_K2DIV (0U)
 175:../Startup/system_XMC4700.c **** 
 176:../Startup/system_XMC4700.c **** #elif OSCHP_FREQUENCY == 12000000U
 177:../Startup/system_XMC4700.c **** #define PLL_PDIV (1U)
 178:../Startup/system_XMC4700.c **** #define PLL_NDIV (47U)
 179:../Startup/system_XMC4700.c **** #define PLL_K2DIV (0U)
 180:../Startup/system_XMC4700.c **** 
 181:../Startup/system_XMC4700.c **** #elif OSCHP_FREQUENCY == 16000000U
 182:../Startup/system_XMC4700.c **** #define PLL_PDIV (1U)
 183:../Startup/system_XMC4700.c **** #define PLL_NDIV (35U)
 184:../Startup/system_XMC4700.c **** #define PLL_K2DIV (0U)
 185:../Startup/system_XMC4700.c **** 
 186:../Startup/system_XMC4700.c **** #else
 187:../Startup/system_XMC4700.c **** #error "External crystal frequency not supported"
 188:../Startup/system_XMC4700.c **** 
 189:../Startup/system_XMC4700.c **** #endif
 190:../Startup/system_XMC4700.c **** 
 191:../Startup/system_XMC4700.c **** #define VCO ((OSCHP_FREQUENCY / (PLL_PDIV + 1UL)) * (PLL_NDIV + 1UL))
 192:../Startup/system_XMC4700.c **** 
 193:../Startup/system_XMC4700.c **** #else /* PLL_CLOCK_SRC == PLL_CLOCK_SRC_EXT_XTAL */
 194:../Startup/system_XMC4700.c **** #define PLL_PDIV (1U)
 195:../Startup/system_XMC4700.c **** #define PLL_NDIV (23U)
 196:../Startup/system_XMC4700.c **** #define PLL_K2DIV (0U)
 197:../Startup/system_XMC4700.c **** 
 198:../Startup/system_XMC4700.c **** #define VCO ((OFI_FREQUENCY / (PLL_PDIV + 1UL)) * (PLL_NDIV + 1UL))
 199:../Startup/system_XMC4700.c **** 
 200:../Startup/system_XMC4700.c **** #endif /* PLL_CLOCK_SRC == PLL_CLOCK_SRC_OFI */
 201:../Startup/system_XMC4700.c **** 
 202:../Startup/system_XMC4700.c **** #define PLL_K2DIV_24MHZ  ((VCO / OFI_FREQUENCY) - 1UL)
 203:../Startup/system_XMC4700.c **** #define PLL_K2DIV_48MHZ  ((VCO / 48000000U) - 1UL)
 204:../Startup/system_XMC4700.c **** #define PLL_K2DIV_72MHZ  ((VCO / 72000000U) - 1UL)
 205:../Startup/system_XMC4700.c **** #define PLL_K2DIV_96MHZ  ((VCO / 96000000U) - 1UL)
 206:../Startup/system_XMC4700.c **** #define PLL_K2DIV_120MHZ ((VCO / 120000000U) - 1UL)
 207:../Startup/system_XMC4700.c **** 
 208:../Startup/system_XMC4700.c **** #define SCU_CLK_CLKCLR_ENABLE_USBCLK SCU_CLK_CLKCLR_USBCDI_Msk
 209:../Startup/system_XMC4700.c **** #define SCU_CLK_CLKCLR_ENABLE_MMCCLK SCU_CLK_CLKCLR_MMCCDI_Msk
 210:../Startup/system_XMC4700.c **** #define SCU_CLK_CLKCLR_ENABLE_ETHCLK SCU_CLK_CLKCLR_ETH0CDI_Msk
 211:../Startup/system_XMC4700.c **** #define SCU_CLK_CLKCLR_ENABLE_EBUCLK SCU_CLK_CLKCLR_EBUCDI_Msk
 212:../Startup/system_XMC4700.c **** #define SCU_CLK_CLKCLR_ENABLE_CCUCLK SCU_CLK_CLKCLR_CCUCDI_Msk
 213:../Startup/system_XMC4700.c **** #define SCU_CLK_CLKCLR_ENABLE_WDTCLK SCU_CLK_CLKCLR_WDTCDI_Msk
 214:../Startup/system_XMC4700.c **** 
 215:../Startup/system_XMC4700.c **** #define SCU_CLK_SYSCLKCR_SYSSEL_OFI      (0U << SCU_CLK_SYSCLKCR_SYSSEL_Pos)
 216:../Startup/system_XMC4700.c **** #define SCU_CLK_SYSCLKCR_SYSSEL_PLL      (1U << SCU_CLK_SYSCLKCR_SYSSEL_Pos)
 217:../Startup/system_XMC4700.c **** 
 218:../Startup/system_XMC4700.c **** #define SCU_CLK_USBCLKCR_USBSEL_USBPLL   (0U << SCU_CLK_USBCLKCR_USBSEL_Pos)
 219:../Startup/system_XMC4700.c **** #define SCU_CLK_USBCLKCR_USBSEL_PLL      (1U << SCU_CLK_USBCLKCR_USBSEL_Pos)
 220:../Startup/system_XMC4700.c **** 
 221:../Startup/system_XMC4700.c **** #define SCU_CLK_WDTCLKCR_WDTSEL_OFI      (0U << SCU_CLK_WDTCLKCR_WDTSEL_Pos)
 222:../Startup/system_XMC4700.c **** #define SCU_CLK_WDTCLKCR_WDTSEL_STANDBY  (1U << SCU_CLK_WDTCLKCR_WDTSEL_Pos)
 223:../Startup/system_XMC4700.c **** #define SCU_CLK_WDTCLKCR_WDTSEL_PLL      (2U << SCU_CLK_WDTCLKCR_WDTSEL_Pos)
 224:../Startup/system_XMC4700.c **** 
 225:../Startup/system_XMC4700.c **** #define SCU_CLK_EXTCLKCR_ECKSEL_SYS      (0U << SCU_CLK_EXTCLKCR_ECKSEL_Pos)
 226:../Startup/system_XMC4700.c **** #define SCU_CLK_EXTCLKCR_ECKSEL_USBPLL   (2U << SCU_CLK_EXTCLKCR_ECKSEL_Pos)
 227:../Startup/system_XMC4700.c **** #define SCU_CLK_EXTCLKCR_ECKSEL_PLL      (3U << SCU_CLK_EXTCLKCR_ECKSEL_Pos)
 228:../Startup/system_XMC4700.c **** 
 229:../Startup/system_XMC4700.c **** #define EXTCLK_PIN_P0_8  (1)
 230:../Startup/system_XMC4700.c **** #define EXTCLK_PIN_P1_15 (2)
 231:../Startup/system_XMC4700.c **** 
 232:../Startup/system_XMC4700.c **** /*
 233:../Startup/system_XMC4700.c **** //    <h> Clock tree
 234:../Startup/system_XMC4700.c **** //        <o1.16> System clock source selection
 235:../Startup/system_XMC4700.c **** //                      <0=> fOFI
 236:../Startup/system_XMC4700.c **** //                      <1=> fPLL
 237:../Startup/system_XMC4700.c **** //                      <i> Default: fPLL
 238:../Startup/system_XMC4700.c **** //        <o1.0..7> System clock divider <1-256><#-1>
 239:../Startup/system_XMC4700.c **** //                      <i> Default: 2
 240:../Startup/system_XMC4700.c **** //        <o2.0> CPU clock divider
 241:../Startup/system_XMC4700.c **** //                      <0=> fCPU = fSYS
 242:../Startup/system_XMC4700.c **** //                      <1=> fCPU = fSYS / 2
 243:../Startup/system_XMC4700.c **** //                      <i> Default: fCPU = fSYS
 244:../Startup/system_XMC4700.c **** //        <o3.0>  Peripheral clock divider
 245:../Startup/system_XMC4700.c **** //                      <0=> fPB = fCPU
 246:../Startup/system_XMC4700.c **** //                      <1=> fPB = fCPU / 2
 247:../Startup/system_XMC4700.c **** //                      <i> Default: fPB = fCPU
 248:../Startup/system_XMC4700.c **** //        <o4.0>  CCU clock divider
 249:../Startup/system_XMC4700.c **** //                      <0=> fCCU = fCPU
 250:../Startup/system_XMC4700.c **** //                      <1=> fCCU = fCPU / 2
 251:../Startup/system_XMC4700.c **** //                      <i> Default: fCCU = fCPU
 252:../Startup/system_XMC4700.c **** //        <e.5> Enable WDT clock
 253:../Startup/system_XMC4700.c **** //             <o5.16..17> WDT clock source <0=> fOFI
 254:../Startup/system_XMC4700.c **** //                                          <1=> fSTDBY
 255:../Startup/system_XMC4700.c **** //                                          <2=> fPLL
 256:../Startup/system_XMC4700.c **** //                      <i> Default: fOFI
 257:../Startup/system_XMC4700.c **** //             <o5.0..7> WDT clock divider <1-256><#-1>
 258:../Startup/system_XMC4700.c **** //                      <i> Default: 1
 259:../Startup/system_XMC4700.c **** //        </e>
 260:../Startup/system_XMC4700.c **** //        <e.3> Enable EBU clock
 261:../Startup/system_XMC4700.c **** //             <o6.0..5>  EBU clock divider  <1-64><#-1>
 262:../Startup/system_XMC4700.c **** //             <i> Default: 4
 263:../Startup/system_XMC4700.c **** //        </e>
 264:../Startup/system_XMC4700.c **** //        <e.2> Enable ETH clock
 265:../Startup/system_XMC4700.c **** //        </e>
 266:../Startup/system_XMC4700.c **** //        <e.1> Enable MMC clock
 267:../Startup/system_XMC4700.c **** //        </e>
 268:../Startup/system_XMC4700.c **** //        <e.0> Enable USB clock
 269:../Startup/system_XMC4700.c **** //             <o7.16> USB clock source <0=> fUSBPLL
 270:../Startup/system_XMC4700.c **** //                                      <1=> fPLL
 271:../Startup/system_XMC4700.c **** //             <i> Default: fPLL
 272:../Startup/system_XMC4700.c **** //        </e>
 273:../Startup/system_XMC4700.c **** //        <e8> Enable external clock
 274:../Startup/system_XMC4700.c **** //             <o8.0..1> External Clock Source Selection
 275:../Startup/system_XMC4700.c **** //                  <0=> fSYS
 276:../Startup/system_XMC4700.c **** //                  <2=> fUSB
 277:../Startup/system_XMC4700.c **** //                  <3=> fPLL
 278:../Startup/system_XMC4700.c **** //                  <i> Default: fPLL
 279:../Startup/system_XMC4700.c **** //             <o8.16..24> External Clock divider <1-512><#-1>
 280:../Startup/system_XMC4700.c **** //                  <i> Default: 288
 281:../Startup/system_XMC4700.c **** //                  <i> Only valid for USB PLL and PLL clocks
 282:../Startup/system_XMC4700.c **** //             <o9.0> External Clock Pin Selection
 283:../Startup/system_XMC4700.c **** //                  <0=> Disabled
 284:../Startup/system_XMC4700.c **** //                  <1=> P0.8
 285:../Startup/system_XMC4700.c **** //                  <2=> P1.15
 286:../Startup/system_XMC4700.c **** //                  <i> Default: Disabled
 287:../Startup/system_XMC4700.c **** //        </e>
 288:../Startup/system_XMC4700.c **** //    </h>
 289:../Startup/system_XMC4700.c **** */
 290:../Startup/system_XMC4700.c **** #define __CLKSET    (0x00000000UL)
 291:../Startup/system_XMC4700.c **** #define __SYSCLKCR  (0x00010001UL)
 292:../Startup/system_XMC4700.c **** #define __CPUCLKCR  (0x00000000UL)
 293:../Startup/system_XMC4700.c **** #define __PBCLKCR   (0x00000000UL)
 294:../Startup/system_XMC4700.c **** #define __CCUCLKCR  (0x00000000UL)
 295:../Startup/system_XMC4700.c **** #define __WDTCLKCR  (0x00000000UL)
 296:../Startup/system_XMC4700.c **** #define __EBUCLKCR  (0x00000003UL)
 297:../Startup/system_XMC4700.c **** #define __USBCLKCR  (0x00010000UL)
 298:../Startup/system_XMC4700.c **** 
 299:../Startup/system_XMC4700.c **** #define __EXTCLKCR (0x01200003UL)
 300:../Startup/system_XMC4700.c **** #define __EXTCLKPIN (0U)
 301:../Startup/system_XMC4700.c **** 
 302:../Startup/system_XMC4700.c **** /*
 303:../Startup/system_XMC4700.c **** // </h>
 304:../Startup/system_XMC4700.c **** */
 305:../Startup/system_XMC4700.c **** 
 306:../Startup/system_XMC4700.c **** /*
 307:../Startup/system_XMC4700.c **** //-------- <<< end of configuration section >>> ------------------
 308:../Startup/system_XMC4700.c **** */
 309:../Startup/system_XMC4700.c **** 
 310:../Startup/system_XMC4700.c **** #define ENABLE_PLL \
 311:../Startup/system_XMC4700.c ****     (((__SYSCLKCR & SCU_CLK_SYSCLKCR_SYSSEL_Msk) == SCU_CLK_SYSCLKCR_SYSSEL_PLL) || \
 312:../Startup/system_XMC4700.c ****      ((__CLKSET & SCU_CLK_CLKSET_EBUCEN_Msk) != 0) || \
 313:../Startup/system_XMC4700.c ****      (((__CLKSET & SCU_CLK_CLKSET_USBCEN_Msk) != 0) && ((__USBCLKCR & SCU_CLK_USBCLKCR_USBSEL_Msk) 
 314:../Startup/system_XMC4700.c ****      (((__CLKSET & SCU_CLK_CLKSET_WDTCEN_Msk) != 0) && ((__WDTCLKCR & SCU_CLK_WDTCLKCR_WDTSEL_Msk) 
 315:../Startup/system_XMC4700.c **** 
 316:../Startup/system_XMC4700.c **** #define ENABLE_USBPLL \
 317:../Startup/system_XMC4700.c ****      ((((__CLKSET & SCU_CLK_CLKSET_USBCEN_Msk) != 0) && ((__USBCLKCR & SCU_CLK_USBCLKCR_USBSEL_Msk)
 318:../Startup/system_XMC4700.c ****       (((__CLKSET & SCU_CLK_CLKSET_MMCCEN_Msk) != 0) && ((__USBCLKCR & SCU_CLK_USBCLKCR_USBSEL_Msk)
 319:../Startup/system_XMC4700.c ****                      
 320:../Startup/system_XMC4700.c **** #if ((__USBCLKCR & SCU_CLK_USBCLKCR_USBSEL_Msk) == SCU_CLK_USBCLKCR_USBSEL_USBPLL)
 321:../Startup/system_XMC4700.c **** #define USB_DIV (3U)
 322:../Startup/system_XMC4700.c **** #else
 323:../Startup/system_XMC4700.c **** #define USB_DIV (5U)
 324:../Startup/system_XMC4700.c **** #endif
 325:../Startup/system_XMC4700.c ****     
 326:../Startup/system_XMC4700.c **** /*******************************************************************************
 327:../Startup/system_XMC4700.c ****  * GLOBAL VARIABLES
 328:../Startup/system_XMC4700.c ****  *******************************************************************************/
 329:../Startup/system_XMC4700.c **** #if defined ( __CC_ARM )
 330:../Startup/system_XMC4700.c **** #if defined(XMC4700_E196x2048) || defined(XMC4700_F144x2048) || defined(XMC4700_F100x2048)
 331:../Startup/system_XMC4700.c **** uint32_t SystemCoreClock __attribute__((at(0x2003FFC0)));
 332:../Startup/system_XMC4700.c **** uint8_t g_chipid[16] __attribute__((at(0x2003FFC4)));
 333:../Startup/system_XMC4700.c **** #elif defined(XMC4700_E196x1536) || defined(XMC4700_F144x1536) || defined(XMC4700_F100x1536)
 334:../Startup/system_XMC4700.c **** uint32_t SystemCoreClock __attribute__((at(0x2002CFC0)));
 335:../Startup/system_XMC4700.c **** uint8_t g_chipid[16] __attribute__((at(0x2002CFC4)));
 336:../Startup/system_XMC4700.c **** #else
 337:../Startup/system_XMC4700.c **** #error "system_XMC4700.c: device not supported" 
 338:../Startup/system_XMC4700.c **** #endif    
 339:../Startup/system_XMC4700.c **** #elif defined ( __ICCARM__ )
 340:../Startup/system_XMC4700.c **** #if defined(XMC4700_E196x2048) || defined(XMC4700_F144x2048) || defined(XMC4700_F100x2048) || \
 341:../Startup/system_XMC4700.c ****     defined(XMC4700_E196x1536) || defined(XMC4700_F144x1536) || defined(XMC4700_F100x1536)
 342:../Startup/system_XMC4700.c **** __no_init uint32_t SystemCoreClock;
 343:../Startup/system_XMC4700.c **** __no_init uint8_t g_chipid[16];
 344:../Startup/system_XMC4700.c **** #else
 345:../Startup/system_XMC4700.c **** #error "system_XMC4700.c: device not supported" 
 346:../Startup/system_XMC4700.c **** #endif    
 347:../Startup/system_XMC4700.c **** #elif defined ( __GNUC__ )
 348:../Startup/system_XMC4700.c **** #if defined(XMC4700_E196x2048) || defined(XMC4700_F144x2048) || defined(XMC4700_F100x2048) || \
 349:../Startup/system_XMC4700.c ****     defined(XMC4700_E196x1536) || defined(XMC4700_F144x1536) || defined(XMC4700_F100x1536)
 350:../Startup/system_XMC4700.c **** uint32_t SystemCoreClock __attribute__((section(".no_init")));
 351:../Startup/system_XMC4700.c **** uint8_t g_chipid[16] __attribute__((section(".no_init")));
 352:../Startup/system_XMC4700.c **** #else
 353:../Startup/system_XMC4700.c **** #error "system_XMC4700.c: device not supported" 
 354:../Startup/system_XMC4700.c **** #endif    
 355:../Startup/system_XMC4700.c **** #elif defined ( __TASKING__ )
 356:../Startup/system_XMC4700.c **** #if defined(XMC4700_E196x2048) || defined(XMC4700_F144x2048) || defined(XMC4700_F100x2048)
 357:../Startup/system_XMC4700.c **** uint32_t SystemCoreClock __at( 0x2003FFC0 );
 358:../Startup/system_XMC4700.c **** uint8_t g_chipid[16] __at( 0x2003FFC4 );
 359:../Startup/system_XMC4700.c **** #elif defined(XMC4700_E196x1536) || defined(XMC4700_F144x1536) || defined(XMC4700_F100x1536)
 360:../Startup/system_XMC4700.c **** uint32_t SystemCoreClock __at( 0x2002CFC0 );
 361:../Startup/system_XMC4700.c **** uint8_t g_chipid[16] __at( 0x2002CFC4 );
 362:../Startup/system_XMC4700.c **** #else
 363:../Startup/system_XMC4700.c **** #error "system_XMC4700.c: device not supported" 
 364:../Startup/system_XMC4700.c **** #endif    
 365:../Startup/system_XMC4700.c **** #else
 366:../Startup/system_XMC4700.c **** #error "system_XMC4700.c: compiler not supported" 
 367:../Startup/system_XMC4700.c **** #endif    
 368:../Startup/system_XMC4700.c **** 
 369:../Startup/system_XMC4700.c **** extern uint32_t __Vectors;
 370:../Startup/system_XMC4700.c **** 
 371:../Startup/system_XMC4700.c **** /*******************************************************************************
 372:../Startup/system_XMC4700.c ****  * LOCAL FUNCTIONS
 373:../Startup/system_XMC4700.c ****  *******************************************************************************/
 374:../Startup/system_XMC4700.c **** static void delay(uint32_t cycles)
 375:../Startup/system_XMC4700.c **** {
 376:../Startup/system_XMC4700.c ****   volatile uint32_t i;
 377:../Startup/system_XMC4700.c **** 
 378:../Startup/system_XMC4700.c ****   for(i = 0UL; i < cycles ;++i)
 379:../Startup/system_XMC4700.c ****   {
 380:../Startup/system_XMC4700.c ****     __NOP();
 381:../Startup/system_XMC4700.c ****   }
 382:../Startup/system_XMC4700.c **** }
 383:../Startup/system_XMC4700.c **** 
 384:../Startup/system_XMC4700.c **** /*******************************************************************************
 385:../Startup/system_XMC4700.c ****  * API IMPLEMENTATION
 386:../Startup/system_XMC4700.c ****  *******************************************************************************/
 387:../Startup/system_XMC4700.c **** 
 388:../Startup/system_XMC4700.c **** __WEAK void SystemInit(void)
 389:../Startup/system_XMC4700.c **** {
 390:../Startup/system_XMC4700.c ****   memcpy(g_chipid, CHIPID_LOC, 16);
 391:../Startup/system_XMC4700.c ****   
 392:../Startup/system_XMC4700.c ****   SystemCoreSetup();
 393:../Startup/system_XMC4700.c ****   SystemCoreClockSetup(); 
 394:../Startup/system_XMC4700.c **** }
 395:../Startup/system_XMC4700.c **** 
 396:../Startup/system_XMC4700.c **** __WEAK void SystemCoreSetup(void)
 397:../Startup/system_XMC4700.c **** {
  28              	 .loc 1 397 0
  29              	 .cfi_startproc
  30              	 
  31              	 
  32              	 
  33              	.LBB22:
  34              	.LBB23:
  35              	 .file 2 "C:/Users/Utente/Desktop/Tesi/Firmware_Software/DAVE project/S2GLP_Pulsed_Doppler/Libraries/CMSIS/Include/cmsis_gcc.h"
   1:C:/Users/Utente/Desktop/Tesi/Firmware_Software/DAVE project/S2GLP_Pulsed_Doppler/Libraries/CMSIS/Include\cmsis_gcc.h **** /**************************************************************************//**
   2:C:/Users/Utente/Desktop/Tesi/Firmware_Software/DAVE project/S2GLP_Pulsed_Doppler/Libraries/CMSIS/Include\cmsis_gcc.h ****  * @file     cmsis_gcc.h
   3:C:/Users/Utente/Desktop/Tesi/Firmware_Software/DAVE project/S2GLP_Pulsed_Doppler/Libraries/CMSIS/Include\cmsis_gcc.h ****  * @brief    CMSIS compiler GCC header file
   4:C:/Users/Utente/Desktop/Tesi/Firmware_Software/DAVE project/S2GLP_Pulsed_Doppler/Libraries/CMSIS/Include\cmsis_gcc.h ****  * @version  V5.0.1
   5:C:/Users/Utente/Desktop/Tesi/Firmware_Software/DAVE project/S2GLP_Pulsed_Doppler/Libraries/CMSIS/Include\cmsis_gcc.h ****  * @date     02. February 2017
   6:C:/Users/Utente/Desktop/Tesi/Firmware_Software/DAVE project/S2GLP_Pulsed_Doppler/Libraries/CMSIS/Include\cmsis_gcc.h ****  ******************************************************************************/
   7:C:/Users/Utente/Desktop/Tesi/Firmware_Software/DAVE project/S2GLP_Pulsed_Doppler/Libraries/CMSIS/Include\cmsis_gcc.h **** /*
   8:C:/Users/Utente/Desktop/Tesi/Firmware_Software/DAVE project/S2GLP_Pulsed_Doppler/Libraries/CMSIS/Include\cmsis_gcc.h ****  * Copyright (c) 2009-2017 ARM Limited. All rights reserved.
   9:C:/Users/Utente/Desktop/Tesi/Firmware_Software/DAVE project/S2GLP_Pulsed_Doppler/Libraries/CMSIS/Include\cmsis_gcc.h ****  *
  10:C:/Users/Utente/Desktop/Tesi/Firmware_Software/DAVE project/S2GLP_Pulsed_Doppler/Libraries/CMSIS/Include\cmsis_gcc.h ****  * SPDX-License-Identifier: Apache-2.0
  11:C:/Users/Utente/Desktop/Tesi/Firmware_Software/DAVE project/S2GLP_Pulsed_Doppler/Libraries/CMSIS/Include\cmsis_gcc.h ****  *
  12:C:/Users/Utente/Desktop/Tesi/Firmware_Software/DAVE project/S2GLP_Pulsed_Doppler/Libraries/CMSIS/Include\cmsis_gcc.h ****  * Licensed under the Apache License, Version 2.0 (the License); you may
  13:C:/Users/Utente/Desktop/Tesi/Firmware_Software/DAVE project/S2GLP_Pulsed_Doppler/Libraries/CMSIS/Include\cmsis_gcc.h ****  * not use this file except in compliance with the License.
  14:C:/Users/Utente/Desktop/Tesi/Firmware_Software/DAVE project/S2GLP_Pulsed_Doppler/Libraries/CMSIS/Include\cmsis_gcc.h ****  * You may obtain a copy of the License at
  15:C:/Users/Utente/Desktop/Tesi/Firmware_Software/DAVE project/S2GLP_Pulsed_Doppler/Libraries/CMSIS/Include\cmsis_gcc.h ****  *
  16:C:/Users/Utente/Desktop/Tesi/Firmware_Software/DAVE project/S2GLP_Pulsed_Doppler/Libraries/CMSIS/Include\cmsis_gcc.h ****  * www.apache.org/licenses/LICENSE-2.0
  17:C:/Users/Utente/Desktop/Tesi/Firmware_Software/DAVE project/S2GLP_Pulsed_Doppler/Libraries/CMSIS/Include\cmsis_gcc.h ****  *
  18:C:/Users/Utente/Desktop/Tesi/Firmware_Software/DAVE project/S2GLP_Pulsed_Doppler/Libraries/CMSIS/Include\cmsis_gcc.h ****  * Unless required by applicable law or agreed to in writing, software
  19:C:/Users/Utente/Desktop/Tesi/Firmware_Software/DAVE project/S2GLP_Pulsed_Doppler/Libraries/CMSIS/Include\cmsis_gcc.h ****  * distributed under the License is distributed on an AS IS BASIS, WITHOUT
  20:C:/Users/Utente/Desktop/Tesi/Firmware_Software/DAVE project/S2GLP_Pulsed_Doppler/Libraries/CMSIS/Include\cmsis_gcc.h ****  * WARRANTIES OR CONDITIONS OF ANY KIND, either express or implied.
  21:C:/Users/Utente/Desktop/Tesi/Firmware_Software/DAVE project/S2GLP_Pulsed_Doppler/Libraries/CMSIS/Include\cmsis_gcc.h ****  * See the License for the specific language governing permissions and
  22:C:/Users/Utente/Desktop/Tesi/Firmware_Software/DAVE project/S2GLP_Pulsed_Doppler/Libraries/CMSIS/Include\cmsis_gcc.h ****  * limitations under the License.
  23:C:/Users/Utente/Desktop/Tesi/Firmware_Software/DAVE project/S2GLP_Pulsed_Doppler/Libraries/CMSIS/Include\cmsis_gcc.h ****  */
  24:C:/Users/Utente/Desktop/Tesi/Firmware_Software/DAVE project/S2GLP_Pulsed_Doppler/Libraries/CMSIS/Include\cmsis_gcc.h **** 
  25:C:/Users/Utente/Desktop/Tesi/Firmware_Software/DAVE project/S2GLP_Pulsed_Doppler/Libraries/CMSIS/Include\cmsis_gcc.h **** #ifndef __CMSIS_GCC_H
  26:C:/Users/Utente/Desktop/Tesi/Firmware_Software/DAVE project/S2GLP_Pulsed_Doppler/Libraries/CMSIS/Include\cmsis_gcc.h **** #define __CMSIS_GCC_H
  27:C:/Users/Utente/Desktop/Tesi/Firmware_Software/DAVE project/S2GLP_Pulsed_Doppler/Libraries/CMSIS/Include\cmsis_gcc.h **** 
  28:C:/Users/Utente/Desktop/Tesi/Firmware_Software/DAVE project/S2GLP_Pulsed_Doppler/Libraries/CMSIS/Include\cmsis_gcc.h **** /* ignore some GCC warnings */
  29:C:/Users/Utente/Desktop/Tesi/Firmware_Software/DAVE project/S2GLP_Pulsed_Doppler/Libraries/CMSIS/Include\cmsis_gcc.h **** #pragma GCC diagnostic push
  30:C:/Users/Utente/Desktop/Tesi/Firmware_Software/DAVE project/S2GLP_Pulsed_Doppler/Libraries/CMSIS/Include\cmsis_gcc.h **** #pragma GCC diagnostic ignored "-Wsign-conversion"
  31:C:/Users/Utente/Desktop/Tesi/Firmware_Software/DAVE project/S2GLP_Pulsed_Doppler/Libraries/CMSIS/Include\cmsis_gcc.h **** #pragma GCC diagnostic ignored "-Wconversion"
  32:C:/Users/Utente/Desktop/Tesi/Firmware_Software/DAVE project/S2GLP_Pulsed_Doppler/Libraries/CMSIS/Include\cmsis_gcc.h **** #pragma GCC diagnostic ignored "-Wunused-parameter"
  33:C:/Users/Utente/Desktop/Tesi/Firmware_Software/DAVE project/S2GLP_Pulsed_Doppler/Libraries/CMSIS/Include\cmsis_gcc.h **** 
  34:C:/Users/Utente/Desktop/Tesi/Firmware_Software/DAVE project/S2GLP_Pulsed_Doppler/Libraries/CMSIS/Include\cmsis_gcc.h **** /* CMSIS compiler specific defines */
  35:C:/Users/Utente/Desktop/Tesi/Firmware_Software/DAVE project/S2GLP_Pulsed_Doppler/Libraries/CMSIS/Include\cmsis_gcc.h **** #ifndef   __ASM
  36:C:/Users/Utente/Desktop/Tesi/Firmware_Software/DAVE project/S2GLP_Pulsed_Doppler/Libraries/CMSIS/Include\cmsis_gcc.h ****   #define __ASM                     __asm
  37:C:/Users/Utente/Desktop/Tesi/Firmware_Software/DAVE project/S2GLP_Pulsed_Doppler/Libraries/CMSIS/Include\cmsis_gcc.h **** #endif
  38:C:/Users/Utente/Desktop/Tesi/Firmware_Software/DAVE project/S2GLP_Pulsed_Doppler/Libraries/CMSIS/Include\cmsis_gcc.h **** #ifndef   __INLINE
  39:C:/Users/Utente/Desktop/Tesi/Firmware_Software/DAVE project/S2GLP_Pulsed_Doppler/Libraries/CMSIS/Include\cmsis_gcc.h ****   #define __INLINE                  inline
  40:C:/Users/Utente/Desktop/Tesi/Firmware_Software/DAVE project/S2GLP_Pulsed_Doppler/Libraries/CMSIS/Include\cmsis_gcc.h **** #endif
  41:C:/Users/Utente/Desktop/Tesi/Firmware_Software/DAVE project/S2GLP_Pulsed_Doppler/Libraries/CMSIS/Include\cmsis_gcc.h **** #ifndef   __STATIC_INLINE
  42:C:/Users/Utente/Desktop/Tesi/Firmware_Software/DAVE project/S2GLP_Pulsed_Doppler/Libraries/CMSIS/Include\cmsis_gcc.h ****   #define __STATIC_INLINE           static inline
  43:C:/Users/Utente/Desktop/Tesi/Firmware_Software/DAVE project/S2GLP_Pulsed_Doppler/Libraries/CMSIS/Include\cmsis_gcc.h **** #endif
  44:C:/Users/Utente/Desktop/Tesi/Firmware_Software/DAVE project/S2GLP_Pulsed_Doppler/Libraries/CMSIS/Include\cmsis_gcc.h **** #ifndef   __NO_RETURN
  45:C:/Users/Utente/Desktop/Tesi/Firmware_Software/DAVE project/S2GLP_Pulsed_Doppler/Libraries/CMSIS/Include\cmsis_gcc.h ****   #define __NO_RETURN               __attribute__((noreturn))
  46:C:/Users/Utente/Desktop/Tesi/Firmware_Software/DAVE project/S2GLP_Pulsed_Doppler/Libraries/CMSIS/Include\cmsis_gcc.h **** #endif
  47:C:/Users/Utente/Desktop/Tesi/Firmware_Software/DAVE project/S2GLP_Pulsed_Doppler/Libraries/CMSIS/Include\cmsis_gcc.h **** #ifndef   __USED
  48:C:/Users/Utente/Desktop/Tesi/Firmware_Software/DAVE project/S2GLP_Pulsed_Doppler/Libraries/CMSIS/Include\cmsis_gcc.h ****   #define __USED                    __attribute__((used))
  49:C:/Users/Utente/Desktop/Tesi/Firmware_Software/DAVE project/S2GLP_Pulsed_Doppler/Libraries/CMSIS/Include\cmsis_gcc.h **** #endif
  50:C:/Users/Utente/Desktop/Tesi/Firmware_Software/DAVE project/S2GLP_Pulsed_Doppler/Libraries/CMSIS/Include\cmsis_gcc.h **** #ifndef   __WEAK
  51:C:/Users/Utente/Desktop/Tesi/Firmware_Software/DAVE project/S2GLP_Pulsed_Doppler/Libraries/CMSIS/Include\cmsis_gcc.h ****   #define __WEAK                    __attribute__((weak))
  52:C:/Users/Utente/Desktop/Tesi/Firmware_Software/DAVE project/S2GLP_Pulsed_Doppler/Libraries/CMSIS/Include\cmsis_gcc.h **** #endif
  53:C:/Users/Utente/Desktop/Tesi/Firmware_Software/DAVE project/S2GLP_Pulsed_Doppler/Libraries/CMSIS/Include\cmsis_gcc.h **** #ifndef   __UNALIGNED_UINT32
  54:C:/Users/Utente/Desktop/Tesi/Firmware_Software/DAVE project/S2GLP_Pulsed_Doppler/Libraries/CMSIS/Include\cmsis_gcc.h **** #pragma GCC diagnostic push
  55:C:/Users/Utente/Desktop/Tesi/Firmware_Software/DAVE project/S2GLP_Pulsed_Doppler/Libraries/CMSIS/Include\cmsis_gcc.h **** #pragma GCC diagnostic ignored "-Wpacked"
  56:C:/Users/Utente/Desktop/Tesi/Firmware_Software/DAVE project/S2GLP_Pulsed_Doppler/Libraries/CMSIS/Include\cmsis_gcc.h **** #pragma GCC diagnostic ignored "-Wattributes"
  57:C:/Users/Utente/Desktop/Tesi/Firmware_Software/DAVE project/S2GLP_Pulsed_Doppler/Libraries/CMSIS/Include\cmsis_gcc.h ****   struct __attribute__((packed)) T_UINT32 { uint32_t v; };
  58:C:/Users/Utente/Desktop/Tesi/Firmware_Software/DAVE project/S2GLP_Pulsed_Doppler/Libraries/CMSIS/Include\cmsis_gcc.h **** #pragma GCC diagnostic pop
  59:C:/Users/Utente/Desktop/Tesi/Firmware_Software/DAVE project/S2GLP_Pulsed_Doppler/Libraries/CMSIS/Include\cmsis_gcc.h ****   #define __UNALIGNED_UINT32(x)     (((struct T_UINT32 *)(x))->v)
  60:C:/Users/Utente/Desktop/Tesi/Firmware_Software/DAVE project/S2GLP_Pulsed_Doppler/Libraries/CMSIS/Include\cmsis_gcc.h **** #endif
  61:C:/Users/Utente/Desktop/Tesi/Firmware_Software/DAVE project/S2GLP_Pulsed_Doppler/Libraries/CMSIS/Include\cmsis_gcc.h **** #ifndef   __ALIGNED
  62:C:/Users/Utente/Desktop/Tesi/Firmware_Software/DAVE project/S2GLP_Pulsed_Doppler/Libraries/CMSIS/Include\cmsis_gcc.h ****   #define __ALIGNED(x)              __attribute__((aligned(x)))
  63:C:/Users/Utente/Desktop/Tesi/Firmware_Software/DAVE project/S2GLP_Pulsed_Doppler/Libraries/CMSIS/Include\cmsis_gcc.h **** #endif
  64:C:/Users/Utente/Desktop/Tesi/Firmware_Software/DAVE project/S2GLP_Pulsed_Doppler/Libraries/CMSIS/Include\cmsis_gcc.h **** #ifndef   __PACKED
  65:C:/Users/Utente/Desktop/Tesi/Firmware_Software/DAVE project/S2GLP_Pulsed_Doppler/Libraries/CMSIS/Include\cmsis_gcc.h ****   #define __PACKED                  __attribute__((packed, aligned(1)))
  66:C:/Users/Utente/Desktop/Tesi/Firmware_Software/DAVE project/S2GLP_Pulsed_Doppler/Libraries/CMSIS/Include\cmsis_gcc.h **** #endif
  67:C:/Users/Utente/Desktop/Tesi/Firmware_Software/DAVE project/S2GLP_Pulsed_Doppler/Libraries/CMSIS/Include\cmsis_gcc.h **** #ifndef   __PACKED_STRUCT
  68:C:/Users/Utente/Desktop/Tesi/Firmware_Software/DAVE project/S2GLP_Pulsed_Doppler/Libraries/CMSIS/Include\cmsis_gcc.h ****   #define __PACKED_STRUCT           struct __attribute__((packed, aligned(1)))
  69:C:/Users/Utente/Desktop/Tesi/Firmware_Software/DAVE project/S2GLP_Pulsed_Doppler/Libraries/CMSIS/Include\cmsis_gcc.h **** #endif
  70:C:/Users/Utente/Desktop/Tesi/Firmware_Software/DAVE project/S2GLP_Pulsed_Doppler/Libraries/CMSIS/Include\cmsis_gcc.h **** 
  71:C:/Users/Utente/Desktop/Tesi/Firmware_Software/DAVE project/S2GLP_Pulsed_Doppler/Libraries/CMSIS/Include\cmsis_gcc.h **** 
  72:C:/Users/Utente/Desktop/Tesi/Firmware_Software/DAVE project/S2GLP_Pulsed_Doppler/Libraries/CMSIS/Include\cmsis_gcc.h **** /* ###########################  Core Function Access  ########################### */
  73:C:/Users/Utente/Desktop/Tesi/Firmware_Software/DAVE project/S2GLP_Pulsed_Doppler/Libraries/CMSIS/Include\cmsis_gcc.h **** /** \ingroup  CMSIS_Core_FunctionInterface
  74:C:/Users/Utente/Desktop/Tesi/Firmware_Software/DAVE project/S2GLP_Pulsed_Doppler/Libraries/CMSIS/Include\cmsis_gcc.h ****     \defgroup CMSIS_Core_RegAccFunctions CMSIS Core Register Access Functions
  75:C:/Users/Utente/Desktop/Tesi/Firmware_Software/DAVE project/S2GLP_Pulsed_Doppler/Libraries/CMSIS/Include\cmsis_gcc.h ****   @{
  76:C:/Users/Utente/Desktop/Tesi/Firmware_Software/DAVE project/S2GLP_Pulsed_Doppler/Libraries/CMSIS/Include\cmsis_gcc.h ****  */
  77:C:/Users/Utente/Desktop/Tesi/Firmware_Software/DAVE project/S2GLP_Pulsed_Doppler/Libraries/CMSIS/Include\cmsis_gcc.h **** 
  78:C:/Users/Utente/Desktop/Tesi/Firmware_Software/DAVE project/S2GLP_Pulsed_Doppler/Libraries/CMSIS/Include\cmsis_gcc.h **** /**
  79:C:/Users/Utente/Desktop/Tesi/Firmware_Software/DAVE project/S2GLP_Pulsed_Doppler/Libraries/CMSIS/Include\cmsis_gcc.h ****   \brief   Enable IRQ Interrupts
  80:C:/Users/Utente/Desktop/Tesi/Firmware_Software/DAVE project/S2GLP_Pulsed_Doppler/Libraries/CMSIS/Include\cmsis_gcc.h ****   \details Enables IRQ interrupts by clearing the I-bit in the CPSR.
  81:C:/Users/Utente/Desktop/Tesi/Firmware_Software/DAVE project/S2GLP_Pulsed_Doppler/Libraries/CMSIS/Include\cmsis_gcc.h ****            Can only be executed in Privileged modes.
  82:C:/Users/Utente/Desktop/Tesi/Firmware_Software/DAVE project/S2GLP_Pulsed_Doppler/Libraries/CMSIS/Include\cmsis_gcc.h ****  */
  83:C:/Users/Utente/Desktop/Tesi/Firmware_Software/DAVE project/S2GLP_Pulsed_Doppler/Libraries/CMSIS/Include\cmsis_gcc.h **** __attribute__((always_inline)) __STATIC_INLINE void __enable_irq(void)
  84:C:/Users/Utente/Desktop/Tesi/Firmware_Software/DAVE project/S2GLP_Pulsed_Doppler/Libraries/CMSIS/Include\cmsis_gcc.h **** {
  85:C:/Users/Utente/Desktop/Tesi/Firmware_Software/DAVE project/S2GLP_Pulsed_Doppler/Libraries/CMSIS/Include\cmsis_gcc.h ****   __ASM volatile ("cpsie i" : : : "memory");
  86:C:/Users/Utente/Desktop/Tesi/Firmware_Software/DAVE project/S2GLP_Pulsed_Doppler/Libraries/CMSIS/Include\cmsis_gcc.h **** }
  87:C:/Users/Utente/Desktop/Tesi/Firmware_Software/DAVE project/S2GLP_Pulsed_Doppler/Libraries/CMSIS/Include\cmsis_gcc.h **** 
  88:C:/Users/Utente/Desktop/Tesi/Firmware_Software/DAVE project/S2GLP_Pulsed_Doppler/Libraries/CMSIS/Include\cmsis_gcc.h **** 
  89:C:/Users/Utente/Desktop/Tesi/Firmware_Software/DAVE project/S2GLP_Pulsed_Doppler/Libraries/CMSIS/Include\cmsis_gcc.h **** /**
  90:C:/Users/Utente/Desktop/Tesi/Firmware_Software/DAVE project/S2GLP_Pulsed_Doppler/Libraries/CMSIS/Include\cmsis_gcc.h ****   \brief   Disable IRQ Interrupts
  91:C:/Users/Utente/Desktop/Tesi/Firmware_Software/DAVE project/S2GLP_Pulsed_Doppler/Libraries/CMSIS/Include\cmsis_gcc.h ****   \details Disables IRQ interrupts by setting the I-bit in the CPSR.
  92:C:/Users/Utente/Desktop/Tesi/Firmware_Software/DAVE project/S2GLP_Pulsed_Doppler/Libraries/CMSIS/Include\cmsis_gcc.h ****            Can only be executed in Privileged modes.
  93:C:/Users/Utente/Desktop/Tesi/Firmware_Software/DAVE project/S2GLP_Pulsed_Doppler/Libraries/CMSIS/Include\cmsis_gcc.h ****  */
  94:C:/Users/Utente/Desktop/Tesi/Firmware_Software/DAVE project/S2GLP_Pulsed_Doppler/Libraries/CMSIS/Include\cmsis_gcc.h **** __attribute__((always_inline)) __STATIC_INLINE void __disable_irq(void)
  95:C:/Users/Utente/Desktop/Tesi/Firmware_Software/DAVE project/S2GLP_Pulsed_Doppler/Libraries/CMSIS/Include\cmsis_gcc.h **** {
  96:C:/Users/Utente/Desktop/Tesi/Firmware_Software/DAVE project/S2GLP_Pulsed_Doppler/Libraries/CMSIS/Include\cmsis_gcc.h ****   __ASM volatile ("cpsid i" : : : "memory");
  36              	 .loc 2 96 0
  37              	
  38 0000 72B6     	 cpsid i
  39              	
  40              	 .thumb
  41              	.LBE23:
  42              	.LBE22:
 398:../Startup/system_XMC4700.c ****   uint32_t temp;
 399:../Startup/system_XMC4700.c **** 	
 400:../Startup/system_XMC4700.c ****   /* relocate vector table */
 401:../Startup/system_XMC4700.c ****   __disable_irq();
 402:../Startup/system_XMC4700.c ****   SCB->VTOR = (uint32_t)(&__Vectors);
  43              	 .loc 1 402 0
  44 0002 0D4B     	 ldr r3,.L2
  45 0004 0D4A     	 ldr r2,.L2+4
  46 0006 9A60     	 str r2,[r3,#8]
  47              	.LBB24:
  48              	.LBB25:
  97:C:/Users/Utente/Desktop/Tesi/Firmware_Software/DAVE project/S2GLP_Pulsed_Doppler/Libraries/CMSIS/Include\cmsis_gcc.h **** }
  98:C:/Users/Utente/Desktop/Tesi/Firmware_Software/DAVE project/S2GLP_Pulsed_Doppler/Libraries/CMSIS/Include\cmsis_gcc.h **** 
  99:C:/Users/Utente/Desktop/Tesi/Firmware_Software/DAVE project/S2GLP_Pulsed_Doppler/Libraries/CMSIS/Include\cmsis_gcc.h **** 
 100:C:/Users/Utente/Desktop/Tesi/Firmware_Software/DAVE project/S2GLP_Pulsed_Doppler/Libraries/CMSIS/Include\cmsis_gcc.h **** /**
 101:C:/Users/Utente/Desktop/Tesi/Firmware_Software/DAVE project/S2GLP_Pulsed_Doppler/Libraries/CMSIS/Include\cmsis_gcc.h ****   \brief   Get Control Register
 102:C:/Users/Utente/Desktop/Tesi/Firmware_Software/DAVE project/S2GLP_Pulsed_Doppler/Libraries/CMSIS/Include\cmsis_gcc.h ****   \details Returns the content of the Control Register.
 103:C:/Users/Utente/Desktop/Tesi/Firmware_Software/DAVE project/S2GLP_Pulsed_Doppler/Libraries/CMSIS/Include\cmsis_gcc.h ****   \return               Control Register value
 104:C:/Users/Utente/Desktop/Tesi/Firmware_Software/DAVE project/S2GLP_Pulsed_Doppler/Libraries/CMSIS/Include\cmsis_gcc.h ****  */
 105:C:/Users/Utente/Desktop/Tesi/Firmware_Software/DAVE project/S2GLP_Pulsed_Doppler/Libraries/CMSIS/Include\cmsis_gcc.h **** __attribute__((always_inline)) __STATIC_INLINE uint32_t __get_CONTROL(void)
 106:C:/Users/Utente/Desktop/Tesi/Firmware_Software/DAVE project/S2GLP_Pulsed_Doppler/Libraries/CMSIS/Include\cmsis_gcc.h **** {
 107:C:/Users/Utente/Desktop/Tesi/Firmware_Software/DAVE project/S2GLP_Pulsed_Doppler/Libraries/CMSIS/Include\cmsis_gcc.h ****   uint32_t result;
 108:C:/Users/Utente/Desktop/Tesi/Firmware_Software/DAVE project/S2GLP_Pulsed_Doppler/Libraries/CMSIS/Include\cmsis_gcc.h **** 
 109:C:/Users/Utente/Desktop/Tesi/Firmware_Software/DAVE project/S2GLP_Pulsed_Doppler/Libraries/CMSIS/Include\cmsis_gcc.h ****   __ASM volatile ("MRS %0, control" : "=r" (result) );
 110:C:/Users/Utente/Desktop/Tesi/Firmware_Software/DAVE project/S2GLP_Pulsed_Doppler/Libraries/CMSIS/Include\cmsis_gcc.h ****   return(result);
 111:C:/Users/Utente/Desktop/Tesi/Firmware_Software/DAVE project/S2GLP_Pulsed_Doppler/Libraries/CMSIS/Include\cmsis_gcc.h **** }
 112:C:/Users/Utente/Desktop/Tesi/Firmware_Software/DAVE project/S2GLP_Pulsed_Doppler/Libraries/CMSIS/Include\cmsis_gcc.h **** 
 113:C:/Users/Utente/Desktop/Tesi/Firmware_Software/DAVE project/S2GLP_Pulsed_Doppler/Libraries/CMSIS/Include\cmsis_gcc.h **** 
 114:C:/Users/Utente/Desktop/Tesi/Firmware_Software/DAVE project/S2GLP_Pulsed_Doppler/Libraries/CMSIS/Include\cmsis_gcc.h **** #if (defined (__ARM_FEATURE_CMSE ) && (__ARM_FEATURE_CMSE == 3))
 115:C:/Users/Utente/Desktop/Tesi/Firmware_Software/DAVE project/S2GLP_Pulsed_Doppler/Libraries/CMSIS/Include\cmsis_gcc.h **** /**
 116:C:/Users/Utente/Desktop/Tesi/Firmware_Software/DAVE project/S2GLP_Pulsed_Doppler/Libraries/CMSIS/Include\cmsis_gcc.h ****   \brief   Get Control Register (non-secure)
 117:C:/Users/Utente/Desktop/Tesi/Firmware_Software/DAVE project/S2GLP_Pulsed_Doppler/Libraries/CMSIS/Include\cmsis_gcc.h ****   \details Returns the content of the non-secure Control Register when in secure mode.
 118:C:/Users/Utente/Desktop/Tesi/Firmware_Software/DAVE project/S2GLP_Pulsed_Doppler/Libraries/CMSIS/Include\cmsis_gcc.h ****   \return               non-secure Control Register value
 119:C:/Users/Utente/Desktop/Tesi/Firmware_Software/DAVE project/S2GLP_Pulsed_Doppler/Libraries/CMSIS/Include\cmsis_gcc.h ****  */
 120:C:/Users/Utente/Desktop/Tesi/Firmware_Software/DAVE project/S2GLP_Pulsed_Doppler/Libraries/CMSIS/Include\cmsis_gcc.h **** __attribute__((always_inline)) __STATIC_INLINE uint32_t __TZ_get_CONTROL_NS(void)
 121:C:/Users/Utente/Desktop/Tesi/Firmware_Software/DAVE project/S2GLP_Pulsed_Doppler/Libraries/CMSIS/Include\cmsis_gcc.h **** {
 122:C:/Users/Utente/Desktop/Tesi/Firmware_Software/DAVE project/S2GLP_Pulsed_Doppler/Libraries/CMSIS/Include\cmsis_gcc.h ****   uint32_t result;
 123:C:/Users/Utente/Desktop/Tesi/Firmware_Software/DAVE project/S2GLP_Pulsed_Doppler/Libraries/CMSIS/Include\cmsis_gcc.h **** 
 124:C:/Users/Utente/Desktop/Tesi/Firmware_Software/DAVE project/S2GLP_Pulsed_Doppler/Libraries/CMSIS/Include\cmsis_gcc.h ****   __ASM volatile ("MRS %0, control_ns" : "=r" (result) );
 125:C:/Users/Utente/Desktop/Tesi/Firmware_Software/DAVE project/S2GLP_Pulsed_Doppler/Libraries/CMSIS/Include\cmsis_gcc.h ****   return(result);
 126:C:/Users/Utente/Desktop/Tesi/Firmware_Software/DAVE project/S2GLP_Pulsed_Doppler/Libraries/CMSIS/Include\cmsis_gcc.h **** }
 127:C:/Users/Utente/Desktop/Tesi/Firmware_Software/DAVE project/S2GLP_Pulsed_Doppler/Libraries/CMSIS/Include\cmsis_gcc.h **** #endif
 128:C:/Users/Utente/Desktop/Tesi/Firmware_Software/DAVE project/S2GLP_Pulsed_Doppler/Libraries/CMSIS/Include\cmsis_gcc.h **** 
 129:C:/Users/Utente/Desktop/Tesi/Firmware_Software/DAVE project/S2GLP_Pulsed_Doppler/Libraries/CMSIS/Include\cmsis_gcc.h **** 
 130:C:/Users/Utente/Desktop/Tesi/Firmware_Software/DAVE project/S2GLP_Pulsed_Doppler/Libraries/CMSIS/Include\cmsis_gcc.h **** /**
 131:C:/Users/Utente/Desktop/Tesi/Firmware_Software/DAVE project/S2GLP_Pulsed_Doppler/Libraries/CMSIS/Include\cmsis_gcc.h ****   \brief   Set Control Register
 132:C:/Users/Utente/Desktop/Tesi/Firmware_Software/DAVE project/S2GLP_Pulsed_Doppler/Libraries/CMSIS/Include\cmsis_gcc.h ****   \details Writes the given value to the Control Register.
 133:C:/Users/Utente/Desktop/Tesi/Firmware_Software/DAVE project/S2GLP_Pulsed_Doppler/Libraries/CMSIS/Include\cmsis_gcc.h ****   \param [in]    control  Control Register value to set
 134:C:/Users/Utente/Desktop/Tesi/Firmware_Software/DAVE project/S2GLP_Pulsed_Doppler/Libraries/CMSIS/Include\cmsis_gcc.h ****  */
 135:C:/Users/Utente/Desktop/Tesi/Firmware_Software/DAVE project/S2GLP_Pulsed_Doppler/Libraries/CMSIS/Include\cmsis_gcc.h **** __attribute__((always_inline)) __STATIC_INLINE void __set_CONTROL(uint32_t control)
 136:C:/Users/Utente/Desktop/Tesi/Firmware_Software/DAVE project/S2GLP_Pulsed_Doppler/Libraries/CMSIS/Include\cmsis_gcc.h **** {
 137:C:/Users/Utente/Desktop/Tesi/Firmware_Software/DAVE project/S2GLP_Pulsed_Doppler/Libraries/CMSIS/Include\cmsis_gcc.h ****   __ASM volatile ("MSR control, %0" : : "r" (control) : "memory");
 138:C:/Users/Utente/Desktop/Tesi/Firmware_Software/DAVE project/S2GLP_Pulsed_Doppler/Libraries/CMSIS/Include\cmsis_gcc.h **** }
 139:C:/Users/Utente/Desktop/Tesi/Firmware_Software/DAVE project/S2GLP_Pulsed_Doppler/Libraries/CMSIS/Include\cmsis_gcc.h **** 
 140:C:/Users/Utente/Desktop/Tesi/Firmware_Software/DAVE project/S2GLP_Pulsed_Doppler/Libraries/CMSIS/Include\cmsis_gcc.h **** 
 141:C:/Users/Utente/Desktop/Tesi/Firmware_Software/DAVE project/S2GLP_Pulsed_Doppler/Libraries/CMSIS/Include\cmsis_gcc.h **** #if (defined (__ARM_FEATURE_CMSE ) && (__ARM_FEATURE_CMSE == 3))
 142:C:/Users/Utente/Desktop/Tesi/Firmware_Software/DAVE project/S2GLP_Pulsed_Doppler/Libraries/CMSIS/Include\cmsis_gcc.h **** /**
 143:C:/Users/Utente/Desktop/Tesi/Firmware_Software/DAVE project/S2GLP_Pulsed_Doppler/Libraries/CMSIS/Include\cmsis_gcc.h ****   \brief   Set Control Register (non-secure)
 144:C:/Users/Utente/Desktop/Tesi/Firmware_Software/DAVE project/S2GLP_Pulsed_Doppler/Libraries/CMSIS/Include\cmsis_gcc.h ****   \details Writes the given value to the non-secure Control Register when in secure state.
 145:C:/Users/Utente/Desktop/Tesi/Firmware_Software/DAVE project/S2GLP_Pulsed_Doppler/Libraries/CMSIS/Include\cmsis_gcc.h ****   \param [in]    control  Control Register value to set
 146:C:/Users/Utente/Desktop/Tesi/Firmware_Software/DAVE project/S2GLP_Pulsed_Doppler/Libraries/CMSIS/Include\cmsis_gcc.h ****  */
 147:C:/Users/Utente/Desktop/Tesi/Firmware_Software/DAVE project/S2GLP_Pulsed_Doppler/Libraries/CMSIS/Include\cmsis_gcc.h **** __attribute__((always_inline)) __STATIC_INLINE void __TZ_set_CONTROL_NS(uint32_t control)
 148:C:/Users/Utente/Desktop/Tesi/Firmware_Software/DAVE project/S2GLP_Pulsed_Doppler/Libraries/CMSIS/Include\cmsis_gcc.h **** {
 149:C:/Users/Utente/Desktop/Tesi/Firmware_Software/DAVE project/S2GLP_Pulsed_Doppler/Libraries/CMSIS/Include\cmsis_gcc.h ****   __ASM volatile ("MSR control_ns, %0" : : "r" (control) : "memory");
 150:C:/Users/Utente/Desktop/Tesi/Firmware_Software/DAVE project/S2GLP_Pulsed_Doppler/Libraries/CMSIS/Include\cmsis_gcc.h **** }
 151:C:/Users/Utente/Desktop/Tesi/Firmware_Software/DAVE project/S2GLP_Pulsed_Doppler/Libraries/CMSIS/Include\cmsis_gcc.h **** #endif
 152:C:/Users/Utente/Desktop/Tesi/Firmware_Software/DAVE project/S2GLP_Pulsed_Doppler/Libraries/CMSIS/Include\cmsis_gcc.h **** 
 153:C:/Users/Utente/Desktop/Tesi/Firmware_Software/DAVE project/S2GLP_Pulsed_Doppler/Libraries/CMSIS/Include\cmsis_gcc.h **** 
 154:C:/Users/Utente/Desktop/Tesi/Firmware_Software/DAVE project/S2GLP_Pulsed_Doppler/Libraries/CMSIS/Include\cmsis_gcc.h **** /**
 155:C:/Users/Utente/Desktop/Tesi/Firmware_Software/DAVE project/S2GLP_Pulsed_Doppler/Libraries/CMSIS/Include\cmsis_gcc.h ****   \brief   Get IPSR Register
 156:C:/Users/Utente/Desktop/Tesi/Firmware_Software/DAVE project/S2GLP_Pulsed_Doppler/Libraries/CMSIS/Include\cmsis_gcc.h ****   \details Returns the content of the IPSR Register.
 157:C:/Users/Utente/Desktop/Tesi/Firmware_Software/DAVE project/S2GLP_Pulsed_Doppler/Libraries/CMSIS/Include\cmsis_gcc.h ****   \return               IPSR Register value
 158:C:/Users/Utente/Desktop/Tesi/Firmware_Software/DAVE project/S2GLP_Pulsed_Doppler/Libraries/CMSIS/Include\cmsis_gcc.h ****  */
 159:C:/Users/Utente/Desktop/Tesi/Firmware_Software/DAVE project/S2GLP_Pulsed_Doppler/Libraries/CMSIS/Include\cmsis_gcc.h **** __attribute__((always_inline)) __STATIC_INLINE uint32_t __get_IPSR(void)
 160:C:/Users/Utente/Desktop/Tesi/Firmware_Software/DAVE project/S2GLP_Pulsed_Doppler/Libraries/CMSIS/Include\cmsis_gcc.h **** {
 161:C:/Users/Utente/Desktop/Tesi/Firmware_Software/DAVE project/S2GLP_Pulsed_Doppler/Libraries/CMSIS/Include\cmsis_gcc.h ****   uint32_t result;
 162:C:/Users/Utente/Desktop/Tesi/Firmware_Software/DAVE project/S2GLP_Pulsed_Doppler/Libraries/CMSIS/Include\cmsis_gcc.h **** 
 163:C:/Users/Utente/Desktop/Tesi/Firmware_Software/DAVE project/S2GLP_Pulsed_Doppler/Libraries/CMSIS/Include\cmsis_gcc.h ****   __ASM volatile ("MRS %0, ipsr" : "=r" (result) );
 164:C:/Users/Utente/Desktop/Tesi/Firmware_Software/DAVE project/S2GLP_Pulsed_Doppler/Libraries/CMSIS/Include\cmsis_gcc.h ****   return(result);
 165:C:/Users/Utente/Desktop/Tesi/Firmware_Software/DAVE project/S2GLP_Pulsed_Doppler/Libraries/CMSIS/Include\cmsis_gcc.h **** }
 166:C:/Users/Utente/Desktop/Tesi/Firmware_Software/DAVE project/S2GLP_Pulsed_Doppler/Libraries/CMSIS/Include\cmsis_gcc.h **** 
 167:C:/Users/Utente/Desktop/Tesi/Firmware_Software/DAVE project/S2GLP_Pulsed_Doppler/Libraries/CMSIS/Include\cmsis_gcc.h **** 
 168:C:/Users/Utente/Desktop/Tesi/Firmware_Software/DAVE project/S2GLP_Pulsed_Doppler/Libraries/CMSIS/Include\cmsis_gcc.h **** /**
 169:C:/Users/Utente/Desktop/Tesi/Firmware_Software/DAVE project/S2GLP_Pulsed_Doppler/Libraries/CMSIS/Include\cmsis_gcc.h ****   \brief   Get APSR Register
 170:C:/Users/Utente/Desktop/Tesi/Firmware_Software/DAVE project/S2GLP_Pulsed_Doppler/Libraries/CMSIS/Include\cmsis_gcc.h ****   \details Returns the content of the APSR Register.
 171:C:/Users/Utente/Desktop/Tesi/Firmware_Software/DAVE project/S2GLP_Pulsed_Doppler/Libraries/CMSIS/Include\cmsis_gcc.h ****   \return               APSR Register value
 172:C:/Users/Utente/Desktop/Tesi/Firmware_Software/DAVE project/S2GLP_Pulsed_Doppler/Libraries/CMSIS/Include\cmsis_gcc.h ****  */
 173:C:/Users/Utente/Desktop/Tesi/Firmware_Software/DAVE project/S2GLP_Pulsed_Doppler/Libraries/CMSIS/Include\cmsis_gcc.h **** __attribute__((always_inline)) __STATIC_INLINE uint32_t __get_APSR(void)
 174:C:/Users/Utente/Desktop/Tesi/Firmware_Software/DAVE project/S2GLP_Pulsed_Doppler/Libraries/CMSIS/Include\cmsis_gcc.h **** {
 175:C:/Users/Utente/Desktop/Tesi/Firmware_Software/DAVE project/S2GLP_Pulsed_Doppler/Libraries/CMSIS/Include\cmsis_gcc.h ****   uint32_t result;
 176:C:/Users/Utente/Desktop/Tesi/Firmware_Software/DAVE project/S2GLP_Pulsed_Doppler/Libraries/CMSIS/Include\cmsis_gcc.h **** 
 177:C:/Users/Utente/Desktop/Tesi/Firmware_Software/DAVE project/S2GLP_Pulsed_Doppler/Libraries/CMSIS/Include\cmsis_gcc.h ****   __ASM volatile ("MRS %0, apsr" : "=r" (result) );
 178:C:/Users/Utente/Desktop/Tesi/Firmware_Software/DAVE project/S2GLP_Pulsed_Doppler/Libraries/CMSIS/Include\cmsis_gcc.h ****   return(result);
 179:C:/Users/Utente/Desktop/Tesi/Firmware_Software/DAVE project/S2GLP_Pulsed_Doppler/Libraries/CMSIS/Include\cmsis_gcc.h **** }
 180:C:/Users/Utente/Desktop/Tesi/Firmware_Software/DAVE project/S2GLP_Pulsed_Doppler/Libraries/CMSIS/Include\cmsis_gcc.h **** 
 181:C:/Users/Utente/Desktop/Tesi/Firmware_Software/DAVE project/S2GLP_Pulsed_Doppler/Libraries/CMSIS/Include\cmsis_gcc.h **** 
 182:C:/Users/Utente/Desktop/Tesi/Firmware_Software/DAVE project/S2GLP_Pulsed_Doppler/Libraries/CMSIS/Include\cmsis_gcc.h **** /**
 183:C:/Users/Utente/Desktop/Tesi/Firmware_Software/DAVE project/S2GLP_Pulsed_Doppler/Libraries/CMSIS/Include\cmsis_gcc.h ****   \brief   Get xPSR Register
 184:C:/Users/Utente/Desktop/Tesi/Firmware_Software/DAVE project/S2GLP_Pulsed_Doppler/Libraries/CMSIS/Include\cmsis_gcc.h ****   \details Returns the content of the xPSR Register.
 185:C:/Users/Utente/Desktop/Tesi/Firmware_Software/DAVE project/S2GLP_Pulsed_Doppler/Libraries/CMSIS/Include\cmsis_gcc.h ****   \return               xPSR Register value
 186:C:/Users/Utente/Desktop/Tesi/Firmware_Software/DAVE project/S2GLP_Pulsed_Doppler/Libraries/CMSIS/Include\cmsis_gcc.h ****  */
 187:C:/Users/Utente/Desktop/Tesi/Firmware_Software/DAVE project/S2GLP_Pulsed_Doppler/Libraries/CMSIS/Include\cmsis_gcc.h **** __attribute__((always_inline)) __STATIC_INLINE uint32_t __get_xPSR(void)
 188:C:/Users/Utente/Desktop/Tesi/Firmware_Software/DAVE project/S2GLP_Pulsed_Doppler/Libraries/CMSIS/Include\cmsis_gcc.h **** {
 189:C:/Users/Utente/Desktop/Tesi/Firmware_Software/DAVE project/S2GLP_Pulsed_Doppler/Libraries/CMSIS/Include\cmsis_gcc.h ****   uint32_t result;
 190:C:/Users/Utente/Desktop/Tesi/Firmware_Software/DAVE project/S2GLP_Pulsed_Doppler/Libraries/CMSIS/Include\cmsis_gcc.h **** 
 191:C:/Users/Utente/Desktop/Tesi/Firmware_Software/DAVE project/S2GLP_Pulsed_Doppler/Libraries/CMSIS/Include\cmsis_gcc.h ****   __ASM volatile ("MRS %0, xpsr" : "=r" (result) );
 192:C:/Users/Utente/Desktop/Tesi/Firmware_Software/DAVE project/S2GLP_Pulsed_Doppler/Libraries/CMSIS/Include\cmsis_gcc.h ****   return(result);
 193:C:/Users/Utente/Desktop/Tesi/Firmware_Software/DAVE project/S2GLP_Pulsed_Doppler/Libraries/CMSIS/Include\cmsis_gcc.h **** }
 194:C:/Users/Utente/Desktop/Tesi/Firmware_Software/DAVE project/S2GLP_Pulsed_Doppler/Libraries/CMSIS/Include\cmsis_gcc.h **** 
 195:C:/Users/Utente/Desktop/Tesi/Firmware_Software/DAVE project/S2GLP_Pulsed_Doppler/Libraries/CMSIS/Include\cmsis_gcc.h **** 
 196:C:/Users/Utente/Desktop/Tesi/Firmware_Software/DAVE project/S2GLP_Pulsed_Doppler/Libraries/CMSIS/Include\cmsis_gcc.h **** /**
 197:C:/Users/Utente/Desktop/Tesi/Firmware_Software/DAVE project/S2GLP_Pulsed_Doppler/Libraries/CMSIS/Include\cmsis_gcc.h ****   \brief   Get Process Stack Pointer
 198:C:/Users/Utente/Desktop/Tesi/Firmware_Software/DAVE project/S2GLP_Pulsed_Doppler/Libraries/CMSIS/Include\cmsis_gcc.h ****   \details Returns the current value of the Process Stack Pointer (PSP).
 199:C:/Users/Utente/Desktop/Tesi/Firmware_Software/DAVE project/S2GLP_Pulsed_Doppler/Libraries/CMSIS/Include\cmsis_gcc.h ****   \return               PSP Register value
 200:C:/Users/Utente/Desktop/Tesi/Firmware_Software/DAVE project/S2GLP_Pulsed_Doppler/Libraries/CMSIS/Include\cmsis_gcc.h ****  */
 201:C:/Users/Utente/Desktop/Tesi/Firmware_Software/DAVE project/S2GLP_Pulsed_Doppler/Libraries/CMSIS/Include\cmsis_gcc.h **** __attribute__((always_inline)) __STATIC_INLINE uint32_t __get_PSP(void)
 202:C:/Users/Utente/Desktop/Tesi/Firmware_Software/DAVE project/S2GLP_Pulsed_Doppler/Libraries/CMSIS/Include\cmsis_gcc.h **** {
 203:C:/Users/Utente/Desktop/Tesi/Firmware_Software/DAVE project/S2GLP_Pulsed_Doppler/Libraries/CMSIS/Include\cmsis_gcc.h ****   register uint32_t result;
 204:C:/Users/Utente/Desktop/Tesi/Firmware_Software/DAVE project/S2GLP_Pulsed_Doppler/Libraries/CMSIS/Include\cmsis_gcc.h **** 
 205:C:/Users/Utente/Desktop/Tesi/Firmware_Software/DAVE project/S2GLP_Pulsed_Doppler/Libraries/CMSIS/Include\cmsis_gcc.h ****   __ASM volatile ("MRS %0, psp"  : "=r" (result) );
 206:C:/Users/Utente/Desktop/Tesi/Firmware_Software/DAVE project/S2GLP_Pulsed_Doppler/Libraries/CMSIS/Include\cmsis_gcc.h ****   return(result);
 207:C:/Users/Utente/Desktop/Tesi/Firmware_Software/DAVE project/S2GLP_Pulsed_Doppler/Libraries/CMSIS/Include\cmsis_gcc.h **** }
 208:C:/Users/Utente/Desktop/Tesi/Firmware_Software/DAVE project/S2GLP_Pulsed_Doppler/Libraries/CMSIS/Include\cmsis_gcc.h **** 
 209:C:/Users/Utente/Desktop/Tesi/Firmware_Software/DAVE project/S2GLP_Pulsed_Doppler/Libraries/CMSIS/Include\cmsis_gcc.h **** 
 210:C:/Users/Utente/Desktop/Tesi/Firmware_Software/DAVE project/S2GLP_Pulsed_Doppler/Libraries/CMSIS/Include\cmsis_gcc.h **** #if (defined (__ARM_FEATURE_CMSE ) && (__ARM_FEATURE_CMSE == 3))
 211:C:/Users/Utente/Desktop/Tesi/Firmware_Software/DAVE project/S2GLP_Pulsed_Doppler/Libraries/CMSIS/Include\cmsis_gcc.h **** /**
 212:C:/Users/Utente/Desktop/Tesi/Firmware_Software/DAVE project/S2GLP_Pulsed_Doppler/Libraries/CMSIS/Include\cmsis_gcc.h ****   \brief   Get Process Stack Pointer (non-secure)
 213:C:/Users/Utente/Desktop/Tesi/Firmware_Software/DAVE project/S2GLP_Pulsed_Doppler/Libraries/CMSIS/Include\cmsis_gcc.h ****   \details Returns the current value of the non-secure Process Stack Pointer (PSP) when in secure s
 214:C:/Users/Utente/Desktop/Tesi/Firmware_Software/DAVE project/S2GLP_Pulsed_Doppler/Libraries/CMSIS/Include\cmsis_gcc.h ****   \return               PSP Register value
 215:C:/Users/Utente/Desktop/Tesi/Firmware_Software/DAVE project/S2GLP_Pulsed_Doppler/Libraries/CMSIS/Include\cmsis_gcc.h ****  */
 216:C:/Users/Utente/Desktop/Tesi/Firmware_Software/DAVE project/S2GLP_Pulsed_Doppler/Libraries/CMSIS/Include\cmsis_gcc.h **** __attribute__((always_inline)) __STATIC_INLINE uint32_t __TZ_get_PSP_NS(void)
 217:C:/Users/Utente/Desktop/Tesi/Firmware_Software/DAVE project/S2GLP_Pulsed_Doppler/Libraries/CMSIS/Include\cmsis_gcc.h **** {
 218:C:/Users/Utente/Desktop/Tesi/Firmware_Software/DAVE project/S2GLP_Pulsed_Doppler/Libraries/CMSIS/Include\cmsis_gcc.h ****   register uint32_t result;
 219:C:/Users/Utente/Desktop/Tesi/Firmware_Software/DAVE project/S2GLP_Pulsed_Doppler/Libraries/CMSIS/Include\cmsis_gcc.h **** 
 220:C:/Users/Utente/Desktop/Tesi/Firmware_Software/DAVE project/S2GLP_Pulsed_Doppler/Libraries/CMSIS/Include\cmsis_gcc.h ****   __ASM volatile ("MRS %0, psp_ns"  : "=r" (result) );
 221:C:/Users/Utente/Desktop/Tesi/Firmware_Software/DAVE project/S2GLP_Pulsed_Doppler/Libraries/CMSIS/Include\cmsis_gcc.h ****   return(result);
 222:C:/Users/Utente/Desktop/Tesi/Firmware_Software/DAVE project/S2GLP_Pulsed_Doppler/Libraries/CMSIS/Include\cmsis_gcc.h **** }
 223:C:/Users/Utente/Desktop/Tesi/Firmware_Software/DAVE project/S2GLP_Pulsed_Doppler/Libraries/CMSIS/Include\cmsis_gcc.h **** #endif
 224:C:/Users/Utente/Desktop/Tesi/Firmware_Software/DAVE project/S2GLP_Pulsed_Doppler/Libraries/CMSIS/Include\cmsis_gcc.h **** 
 225:C:/Users/Utente/Desktop/Tesi/Firmware_Software/DAVE project/S2GLP_Pulsed_Doppler/Libraries/CMSIS/Include\cmsis_gcc.h **** 
 226:C:/Users/Utente/Desktop/Tesi/Firmware_Software/DAVE project/S2GLP_Pulsed_Doppler/Libraries/CMSIS/Include\cmsis_gcc.h **** /**
 227:C:/Users/Utente/Desktop/Tesi/Firmware_Software/DAVE project/S2GLP_Pulsed_Doppler/Libraries/CMSIS/Include\cmsis_gcc.h ****   \brief   Set Process Stack Pointer
 228:C:/Users/Utente/Desktop/Tesi/Firmware_Software/DAVE project/S2GLP_Pulsed_Doppler/Libraries/CMSIS/Include\cmsis_gcc.h ****   \details Assigns the given value to the Process Stack Pointer (PSP).
 229:C:/Users/Utente/Desktop/Tesi/Firmware_Software/DAVE project/S2GLP_Pulsed_Doppler/Libraries/CMSIS/Include\cmsis_gcc.h ****   \param [in]    topOfProcStack  Process Stack Pointer value to set
 230:C:/Users/Utente/Desktop/Tesi/Firmware_Software/DAVE project/S2GLP_Pulsed_Doppler/Libraries/CMSIS/Include\cmsis_gcc.h ****  */
 231:C:/Users/Utente/Desktop/Tesi/Firmware_Software/DAVE project/S2GLP_Pulsed_Doppler/Libraries/CMSIS/Include\cmsis_gcc.h **** __attribute__((always_inline)) __STATIC_INLINE void __set_PSP(uint32_t topOfProcStack)
 232:C:/Users/Utente/Desktop/Tesi/Firmware_Software/DAVE project/S2GLP_Pulsed_Doppler/Libraries/CMSIS/Include\cmsis_gcc.h **** {
 233:C:/Users/Utente/Desktop/Tesi/Firmware_Software/DAVE project/S2GLP_Pulsed_Doppler/Libraries/CMSIS/Include\cmsis_gcc.h ****   __ASM volatile ("MSR psp, %0" : : "r" (topOfProcStack) : );
 234:C:/Users/Utente/Desktop/Tesi/Firmware_Software/DAVE project/S2GLP_Pulsed_Doppler/Libraries/CMSIS/Include\cmsis_gcc.h **** }
 235:C:/Users/Utente/Desktop/Tesi/Firmware_Software/DAVE project/S2GLP_Pulsed_Doppler/Libraries/CMSIS/Include\cmsis_gcc.h **** 
 236:C:/Users/Utente/Desktop/Tesi/Firmware_Software/DAVE project/S2GLP_Pulsed_Doppler/Libraries/CMSIS/Include\cmsis_gcc.h **** 
 237:C:/Users/Utente/Desktop/Tesi/Firmware_Software/DAVE project/S2GLP_Pulsed_Doppler/Libraries/CMSIS/Include\cmsis_gcc.h **** #if (defined (__ARM_FEATURE_CMSE ) && (__ARM_FEATURE_CMSE == 3))
 238:C:/Users/Utente/Desktop/Tesi/Firmware_Software/DAVE project/S2GLP_Pulsed_Doppler/Libraries/CMSIS/Include\cmsis_gcc.h **** /**
 239:C:/Users/Utente/Desktop/Tesi/Firmware_Software/DAVE project/S2GLP_Pulsed_Doppler/Libraries/CMSIS/Include\cmsis_gcc.h ****   \brief   Set Process Stack Pointer (non-secure)
 240:C:/Users/Utente/Desktop/Tesi/Firmware_Software/DAVE project/S2GLP_Pulsed_Doppler/Libraries/CMSIS/Include\cmsis_gcc.h ****   \details Assigns the given value to the non-secure Process Stack Pointer (PSP) when in secure sta
 241:C:/Users/Utente/Desktop/Tesi/Firmware_Software/DAVE project/S2GLP_Pulsed_Doppler/Libraries/CMSIS/Include\cmsis_gcc.h ****   \param [in]    topOfProcStack  Process Stack Pointer value to set
 242:C:/Users/Utente/Desktop/Tesi/Firmware_Software/DAVE project/S2GLP_Pulsed_Doppler/Libraries/CMSIS/Include\cmsis_gcc.h ****  */
 243:C:/Users/Utente/Desktop/Tesi/Firmware_Software/DAVE project/S2GLP_Pulsed_Doppler/Libraries/CMSIS/Include\cmsis_gcc.h **** __attribute__((always_inline)) __STATIC_INLINE void __TZ_set_PSP_NS(uint32_t topOfProcStack)
 244:C:/Users/Utente/Desktop/Tesi/Firmware_Software/DAVE project/S2GLP_Pulsed_Doppler/Libraries/CMSIS/Include\cmsis_gcc.h **** {
 245:C:/Users/Utente/Desktop/Tesi/Firmware_Software/DAVE project/S2GLP_Pulsed_Doppler/Libraries/CMSIS/Include\cmsis_gcc.h ****   __ASM volatile ("MSR psp_ns, %0" : : "r" (topOfProcStack) : );
 246:C:/Users/Utente/Desktop/Tesi/Firmware_Software/DAVE project/S2GLP_Pulsed_Doppler/Libraries/CMSIS/Include\cmsis_gcc.h **** }
 247:C:/Users/Utente/Desktop/Tesi/Firmware_Software/DAVE project/S2GLP_Pulsed_Doppler/Libraries/CMSIS/Include\cmsis_gcc.h **** #endif
 248:C:/Users/Utente/Desktop/Tesi/Firmware_Software/DAVE project/S2GLP_Pulsed_Doppler/Libraries/CMSIS/Include\cmsis_gcc.h **** 
 249:C:/Users/Utente/Desktop/Tesi/Firmware_Software/DAVE project/S2GLP_Pulsed_Doppler/Libraries/CMSIS/Include\cmsis_gcc.h **** 
 250:C:/Users/Utente/Desktop/Tesi/Firmware_Software/DAVE project/S2GLP_Pulsed_Doppler/Libraries/CMSIS/Include\cmsis_gcc.h **** /**
 251:C:/Users/Utente/Desktop/Tesi/Firmware_Software/DAVE project/S2GLP_Pulsed_Doppler/Libraries/CMSIS/Include\cmsis_gcc.h ****   \brief   Get Main Stack Pointer
 252:C:/Users/Utente/Desktop/Tesi/Firmware_Software/DAVE project/S2GLP_Pulsed_Doppler/Libraries/CMSIS/Include\cmsis_gcc.h ****   \details Returns the current value of the Main Stack Pointer (MSP).
 253:C:/Users/Utente/Desktop/Tesi/Firmware_Software/DAVE project/S2GLP_Pulsed_Doppler/Libraries/CMSIS/Include\cmsis_gcc.h ****   \return               MSP Register value
 254:C:/Users/Utente/Desktop/Tesi/Firmware_Software/DAVE project/S2GLP_Pulsed_Doppler/Libraries/CMSIS/Include\cmsis_gcc.h ****  */
 255:C:/Users/Utente/Desktop/Tesi/Firmware_Software/DAVE project/S2GLP_Pulsed_Doppler/Libraries/CMSIS/Include\cmsis_gcc.h **** __attribute__((always_inline)) __STATIC_INLINE uint32_t __get_MSP(void)
 256:C:/Users/Utente/Desktop/Tesi/Firmware_Software/DAVE project/S2GLP_Pulsed_Doppler/Libraries/CMSIS/Include\cmsis_gcc.h **** {
 257:C:/Users/Utente/Desktop/Tesi/Firmware_Software/DAVE project/S2GLP_Pulsed_Doppler/Libraries/CMSIS/Include\cmsis_gcc.h ****   register uint32_t result;
 258:C:/Users/Utente/Desktop/Tesi/Firmware_Software/DAVE project/S2GLP_Pulsed_Doppler/Libraries/CMSIS/Include\cmsis_gcc.h **** 
 259:C:/Users/Utente/Desktop/Tesi/Firmware_Software/DAVE project/S2GLP_Pulsed_Doppler/Libraries/CMSIS/Include\cmsis_gcc.h ****   __ASM volatile ("MRS %0, msp" : "=r" (result) );
 260:C:/Users/Utente/Desktop/Tesi/Firmware_Software/DAVE project/S2GLP_Pulsed_Doppler/Libraries/CMSIS/Include\cmsis_gcc.h ****   return(result);
 261:C:/Users/Utente/Desktop/Tesi/Firmware_Software/DAVE project/S2GLP_Pulsed_Doppler/Libraries/CMSIS/Include\cmsis_gcc.h **** }
 262:C:/Users/Utente/Desktop/Tesi/Firmware_Software/DAVE project/S2GLP_Pulsed_Doppler/Libraries/CMSIS/Include\cmsis_gcc.h **** 
 263:C:/Users/Utente/Desktop/Tesi/Firmware_Software/DAVE project/S2GLP_Pulsed_Doppler/Libraries/CMSIS/Include\cmsis_gcc.h **** 
 264:C:/Users/Utente/Desktop/Tesi/Firmware_Software/DAVE project/S2GLP_Pulsed_Doppler/Libraries/CMSIS/Include\cmsis_gcc.h **** #if (defined (__ARM_FEATURE_CMSE ) && (__ARM_FEATURE_CMSE == 3))
 265:C:/Users/Utente/Desktop/Tesi/Firmware_Software/DAVE project/S2GLP_Pulsed_Doppler/Libraries/CMSIS/Include\cmsis_gcc.h **** /**
 266:C:/Users/Utente/Desktop/Tesi/Firmware_Software/DAVE project/S2GLP_Pulsed_Doppler/Libraries/CMSIS/Include\cmsis_gcc.h ****   \brief   Get Main Stack Pointer (non-secure)
 267:C:/Users/Utente/Desktop/Tesi/Firmware_Software/DAVE project/S2GLP_Pulsed_Doppler/Libraries/CMSIS/Include\cmsis_gcc.h ****   \details Returns the current value of the non-secure Main Stack Pointer (MSP) when in secure stat
 268:C:/Users/Utente/Desktop/Tesi/Firmware_Software/DAVE project/S2GLP_Pulsed_Doppler/Libraries/CMSIS/Include\cmsis_gcc.h ****   \return               MSP Register value
 269:C:/Users/Utente/Desktop/Tesi/Firmware_Software/DAVE project/S2GLP_Pulsed_Doppler/Libraries/CMSIS/Include\cmsis_gcc.h ****  */
 270:C:/Users/Utente/Desktop/Tesi/Firmware_Software/DAVE project/S2GLP_Pulsed_Doppler/Libraries/CMSIS/Include\cmsis_gcc.h **** __attribute__((always_inline)) __STATIC_INLINE uint32_t __TZ_get_MSP_NS(void)
 271:C:/Users/Utente/Desktop/Tesi/Firmware_Software/DAVE project/S2GLP_Pulsed_Doppler/Libraries/CMSIS/Include\cmsis_gcc.h **** {
 272:C:/Users/Utente/Desktop/Tesi/Firmware_Software/DAVE project/S2GLP_Pulsed_Doppler/Libraries/CMSIS/Include\cmsis_gcc.h ****   register uint32_t result;
 273:C:/Users/Utente/Desktop/Tesi/Firmware_Software/DAVE project/S2GLP_Pulsed_Doppler/Libraries/CMSIS/Include\cmsis_gcc.h **** 
 274:C:/Users/Utente/Desktop/Tesi/Firmware_Software/DAVE project/S2GLP_Pulsed_Doppler/Libraries/CMSIS/Include\cmsis_gcc.h ****   __ASM volatile ("MRS %0, msp_ns" : "=r" (result) );
 275:C:/Users/Utente/Desktop/Tesi/Firmware_Software/DAVE project/S2GLP_Pulsed_Doppler/Libraries/CMSIS/Include\cmsis_gcc.h ****   return(result);
 276:C:/Users/Utente/Desktop/Tesi/Firmware_Software/DAVE project/S2GLP_Pulsed_Doppler/Libraries/CMSIS/Include\cmsis_gcc.h **** }
 277:C:/Users/Utente/Desktop/Tesi/Firmware_Software/DAVE project/S2GLP_Pulsed_Doppler/Libraries/CMSIS/Include\cmsis_gcc.h **** #endif
 278:C:/Users/Utente/Desktop/Tesi/Firmware_Software/DAVE project/S2GLP_Pulsed_Doppler/Libraries/CMSIS/Include\cmsis_gcc.h **** 
 279:C:/Users/Utente/Desktop/Tesi/Firmware_Software/DAVE project/S2GLP_Pulsed_Doppler/Libraries/CMSIS/Include\cmsis_gcc.h **** 
 280:C:/Users/Utente/Desktop/Tesi/Firmware_Software/DAVE project/S2GLP_Pulsed_Doppler/Libraries/CMSIS/Include\cmsis_gcc.h **** /**
 281:C:/Users/Utente/Desktop/Tesi/Firmware_Software/DAVE project/S2GLP_Pulsed_Doppler/Libraries/CMSIS/Include\cmsis_gcc.h ****   \brief   Set Main Stack Pointer
 282:C:/Users/Utente/Desktop/Tesi/Firmware_Software/DAVE project/S2GLP_Pulsed_Doppler/Libraries/CMSIS/Include\cmsis_gcc.h ****   \details Assigns the given value to the Main Stack Pointer (MSP).
 283:C:/Users/Utente/Desktop/Tesi/Firmware_Software/DAVE project/S2GLP_Pulsed_Doppler/Libraries/CMSIS/Include\cmsis_gcc.h ****   \param [in]    topOfMainStack  Main Stack Pointer value to set
 284:C:/Users/Utente/Desktop/Tesi/Firmware_Software/DAVE project/S2GLP_Pulsed_Doppler/Libraries/CMSIS/Include\cmsis_gcc.h ****  */
 285:C:/Users/Utente/Desktop/Tesi/Firmware_Software/DAVE project/S2GLP_Pulsed_Doppler/Libraries/CMSIS/Include\cmsis_gcc.h **** __attribute__((always_inline)) __STATIC_INLINE void __set_MSP(uint32_t topOfMainStack)
 286:C:/Users/Utente/Desktop/Tesi/Firmware_Software/DAVE project/S2GLP_Pulsed_Doppler/Libraries/CMSIS/Include\cmsis_gcc.h **** {
 287:C:/Users/Utente/Desktop/Tesi/Firmware_Software/DAVE project/S2GLP_Pulsed_Doppler/Libraries/CMSIS/Include\cmsis_gcc.h ****   __ASM volatile ("MSR msp, %0" : : "r" (topOfMainStack) : );
 288:C:/Users/Utente/Desktop/Tesi/Firmware_Software/DAVE project/S2GLP_Pulsed_Doppler/Libraries/CMSIS/Include\cmsis_gcc.h **** }
 289:C:/Users/Utente/Desktop/Tesi/Firmware_Software/DAVE project/S2GLP_Pulsed_Doppler/Libraries/CMSIS/Include\cmsis_gcc.h **** 
 290:C:/Users/Utente/Desktop/Tesi/Firmware_Software/DAVE project/S2GLP_Pulsed_Doppler/Libraries/CMSIS/Include\cmsis_gcc.h **** 
 291:C:/Users/Utente/Desktop/Tesi/Firmware_Software/DAVE project/S2GLP_Pulsed_Doppler/Libraries/CMSIS/Include\cmsis_gcc.h **** #if (defined (__ARM_FEATURE_CMSE ) && (__ARM_FEATURE_CMSE == 3))
 292:C:/Users/Utente/Desktop/Tesi/Firmware_Software/DAVE project/S2GLP_Pulsed_Doppler/Libraries/CMSIS/Include\cmsis_gcc.h **** /**
 293:C:/Users/Utente/Desktop/Tesi/Firmware_Software/DAVE project/S2GLP_Pulsed_Doppler/Libraries/CMSIS/Include\cmsis_gcc.h ****   \brief   Set Main Stack Pointer (non-secure)
 294:C:/Users/Utente/Desktop/Tesi/Firmware_Software/DAVE project/S2GLP_Pulsed_Doppler/Libraries/CMSIS/Include\cmsis_gcc.h ****   \details Assigns the given value to the non-secure Main Stack Pointer (MSP) when in secure state.
 295:C:/Users/Utente/Desktop/Tesi/Firmware_Software/DAVE project/S2GLP_Pulsed_Doppler/Libraries/CMSIS/Include\cmsis_gcc.h ****   \param [in]    topOfMainStack  Main Stack Pointer value to set
 296:C:/Users/Utente/Desktop/Tesi/Firmware_Software/DAVE project/S2GLP_Pulsed_Doppler/Libraries/CMSIS/Include\cmsis_gcc.h ****  */
 297:C:/Users/Utente/Desktop/Tesi/Firmware_Software/DAVE project/S2GLP_Pulsed_Doppler/Libraries/CMSIS/Include\cmsis_gcc.h **** __attribute__((always_inline)) __STATIC_INLINE void __TZ_set_MSP_NS(uint32_t topOfMainStack)
 298:C:/Users/Utente/Desktop/Tesi/Firmware_Software/DAVE project/S2GLP_Pulsed_Doppler/Libraries/CMSIS/Include\cmsis_gcc.h **** {
 299:C:/Users/Utente/Desktop/Tesi/Firmware_Software/DAVE project/S2GLP_Pulsed_Doppler/Libraries/CMSIS/Include\cmsis_gcc.h ****   __ASM volatile ("MSR msp_ns, %0" : : "r" (topOfMainStack) : );
 300:C:/Users/Utente/Desktop/Tesi/Firmware_Software/DAVE project/S2GLP_Pulsed_Doppler/Libraries/CMSIS/Include\cmsis_gcc.h **** }
 301:C:/Users/Utente/Desktop/Tesi/Firmware_Software/DAVE project/S2GLP_Pulsed_Doppler/Libraries/CMSIS/Include\cmsis_gcc.h **** #endif
 302:C:/Users/Utente/Desktop/Tesi/Firmware_Software/DAVE project/S2GLP_Pulsed_Doppler/Libraries/CMSIS/Include\cmsis_gcc.h **** 
 303:C:/Users/Utente/Desktop/Tesi/Firmware_Software/DAVE project/S2GLP_Pulsed_Doppler/Libraries/CMSIS/Include\cmsis_gcc.h **** 
 304:C:/Users/Utente/Desktop/Tesi/Firmware_Software/DAVE project/S2GLP_Pulsed_Doppler/Libraries/CMSIS/Include\cmsis_gcc.h **** /**
 305:C:/Users/Utente/Desktop/Tesi/Firmware_Software/DAVE project/S2GLP_Pulsed_Doppler/Libraries/CMSIS/Include\cmsis_gcc.h ****   \brief   Get Priority Mask
 306:C:/Users/Utente/Desktop/Tesi/Firmware_Software/DAVE project/S2GLP_Pulsed_Doppler/Libraries/CMSIS/Include\cmsis_gcc.h ****   \details Returns the current state of the priority mask bit from the Priority Mask Register.
 307:C:/Users/Utente/Desktop/Tesi/Firmware_Software/DAVE project/S2GLP_Pulsed_Doppler/Libraries/CMSIS/Include\cmsis_gcc.h ****   \return               Priority Mask value
 308:C:/Users/Utente/Desktop/Tesi/Firmware_Software/DAVE project/S2GLP_Pulsed_Doppler/Libraries/CMSIS/Include\cmsis_gcc.h ****  */
 309:C:/Users/Utente/Desktop/Tesi/Firmware_Software/DAVE project/S2GLP_Pulsed_Doppler/Libraries/CMSIS/Include\cmsis_gcc.h **** __attribute__((always_inline)) __STATIC_INLINE uint32_t __get_PRIMASK(void)
 310:C:/Users/Utente/Desktop/Tesi/Firmware_Software/DAVE project/S2GLP_Pulsed_Doppler/Libraries/CMSIS/Include\cmsis_gcc.h **** {
 311:C:/Users/Utente/Desktop/Tesi/Firmware_Software/DAVE project/S2GLP_Pulsed_Doppler/Libraries/CMSIS/Include\cmsis_gcc.h ****   uint32_t result;
 312:C:/Users/Utente/Desktop/Tesi/Firmware_Software/DAVE project/S2GLP_Pulsed_Doppler/Libraries/CMSIS/Include\cmsis_gcc.h **** 
 313:C:/Users/Utente/Desktop/Tesi/Firmware_Software/DAVE project/S2GLP_Pulsed_Doppler/Libraries/CMSIS/Include\cmsis_gcc.h ****   __ASM volatile ("MRS %0, primask" : "=r" (result) );
 314:C:/Users/Utente/Desktop/Tesi/Firmware_Software/DAVE project/S2GLP_Pulsed_Doppler/Libraries/CMSIS/Include\cmsis_gcc.h ****   return(result);
 315:C:/Users/Utente/Desktop/Tesi/Firmware_Software/DAVE project/S2GLP_Pulsed_Doppler/Libraries/CMSIS/Include\cmsis_gcc.h **** }
 316:C:/Users/Utente/Desktop/Tesi/Firmware_Software/DAVE project/S2GLP_Pulsed_Doppler/Libraries/CMSIS/Include\cmsis_gcc.h **** 
 317:C:/Users/Utente/Desktop/Tesi/Firmware_Software/DAVE project/S2GLP_Pulsed_Doppler/Libraries/CMSIS/Include\cmsis_gcc.h **** 
 318:C:/Users/Utente/Desktop/Tesi/Firmware_Software/DAVE project/S2GLP_Pulsed_Doppler/Libraries/CMSIS/Include\cmsis_gcc.h **** #if (defined (__ARM_FEATURE_CMSE ) && (__ARM_FEATURE_CMSE == 3))
 319:C:/Users/Utente/Desktop/Tesi/Firmware_Software/DAVE project/S2GLP_Pulsed_Doppler/Libraries/CMSIS/Include\cmsis_gcc.h **** /**
 320:C:/Users/Utente/Desktop/Tesi/Firmware_Software/DAVE project/S2GLP_Pulsed_Doppler/Libraries/CMSIS/Include\cmsis_gcc.h ****   \brief   Get Priority Mask (non-secure)
 321:C:/Users/Utente/Desktop/Tesi/Firmware_Software/DAVE project/S2GLP_Pulsed_Doppler/Libraries/CMSIS/Include\cmsis_gcc.h ****   \details Returns the current state of the non-secure priority mask bit from the Priority Mask Reg
 322:C:/Users/Utente/Desktop/Tesi/Firmware_Software/DAVE project/S2GLP_Pulsed_Doppler/Libraries/CMSIS/Include\cmsis_gcc.h ****   \return               Priority Mask value
 323:C:/Users/Utente/Desktop/Tesi/Firmware_Software/DAVE project/S2GLP_Pulsed_Doppler/Libraries/CMSIS/Include\cmsis_gcc.h ****  */
 324:C:/Users/Utente/Desktop/Tesi/Firmware_Software/DAVE project/S2GLP_Pulsed_Doppler/Libraries/CMSIS/Include\cmsis_gcc.h **** __attribute__((always_inline)) __STATIC_INLINE uint32_t __TZ_get_PRIMASK_NS(void)
 325:C:/Users/Utente/Desktop/Tesi/Firmware_Software/DAVE project/S2GLP_Pulsed_Doppler/Libraries/CMSIS/Include\cmsis_gcc.h **** {
 326:C:/Users/Utente/Desktop/Tesi/Firmware_Software/DAVE project/S2GLP_Pulsed_Doppler/Libraries/CMSIS/Include\cmsis_gcc.h ****   uint32_t result;
 327:C:/Users/Utente/Desktop/Tesi/Firmware_Software/DAVE project/S2GLP_Pulsed_Doppler/Libraries/CMSIS/Include\cmsis_gcc.h **** 
 328:C:/Users/Utente/Desktop/Tesi/Firmware_Software/DAVE project/S2GLP_Pulsed_Doppler/Libraries/CMSIS/Include\cmsis_gcc.h ****   __ASM volatile ("MRS %0, primask_ns" : "=r" (result) );
 329:C:/Users/Utente/Desktop/Tesi/Firmware_Software/DAVE project/S2GLP_Pulsed_Doppler/Libraries/CMSIS/Include\cmsis_gcc.h ****   return(result);
 330:C:/Users/Utente/Desktop/Tesi/Firmware_Software/DAVE project/S2GLP_Pulsed_Doppler/Libraries/CMSIS/Include\cmsis_gcc.h **** }
 331:C:/Users/Utente/Desktop/Tesi/Firmware_Software/DAVE project/S2GLP_Pulsed_Doppler/Libraries/CMSIS/Include\cmsis_gcc.h **** #endif
 332:C:/Users/Utente/Desktop/Tesi/Firmware_Software/DAVE project/S2GLP_Pulsed_Doppler/Libraries/CMSIS/Include\cmsis_gcc.h **** 
 333:C:/Users/Utente/Desktop/Tesi/Firmware_Software/DAVE project/S2GLP_Pulsed_Doppler/Libraries/CMSIS/Include\cmsis_gcc.h **** 
 334:C:/Users/Utente/Desktop/Tesi/Firmware_Software/DAVE project/S2GLP_Pulsed_Doppler/Libraries/CMSIS/Include\cmsis_gcc.h **** /**
 335:C:/Users/Utente/Desktop/Tesi/Firmware_Software/DAVE project/S2GLP_Pulsed_Doppler/Libraries/CMSIS/Include\cmsis_gcc.h ****   \brief   Set Priority Mask
 336:C:/Users/Utente/Desktop/Tesi/Firmware_Software/DAVE project/S2GLP_Pulsed_Doppler/Libraries/CMSIS/Include\cmsis_gcc.h ****   \details Assigns the given value to the Priority Mask Register.
 337:C:/Users/Utente/Desktop/Tesi/Firmware_Software/DAVE project/S2GLP_Pulsed_Doppler/Libraries/CMSIS/Include\cmsis_gcc.h ****   \param [in]    priMask  Priority Mask
 338:C:/Users/Utente/Desktop/Tesi/Firmware_Software/DAVE project/S2GLP_Pulsed_Doppler/Libraries/CMSIS/Include\cmsis_gcc.h ****  */
 339:C:/Users/Utente/Desktop/Tesi/Firmware_Software/DAVE project/S2GLP_Pulsed_Doppler/Libraries/CMSIS/Include\cmsis_gcc.h **** __attribute__((always_inline)) __STATIC_INLINE void __set_PRIMASK(uint32_t priMask)
 340:C:/Users/Utente/Desktop/Tesi/Firmware_Software/DAVE project/S2GLP_Pulsed_Doppler/Libraries/CMSIS/Include\cmsis_gcc.h **** {
 341:C:/Users/Utente/Desktop/Tesi/Firmware_Software/DAVE project/S2GLP_Pulsed_Doppler/Libraries/CMSIS/Include\cmsis_gcc.h ****   __ASM volatile ("MSR primask, %0" : : "r" (priMask) : "memory");
 342:C:/Users/Utente/Desktop/Tesi/Firmware_Software/DAVE project/S2GLP_Pulsed_Doppler/Libraries/CMSIS/Include\cmsis_gcc.h **** }
 343:C:/Users/Utente/Desktop/Tesi/Firmware_Software/DAVE project/S2GLP_Pulsed_Doppler/Libraries/CMSIS/Include\cmsis_gcc.h **** 
 344:C:/Users/Utente/Desktop/Tesi/Firmware_Software/DAVE project/S2GLP_Pulsed_Doppler/Libraries/CMSIS/Include\cmsis_gcc.h **** 
 345:C:/Users/Utente/Desktop/Tesi/Firmware_Software/DAVE project/S2GLP_Pulsed_Doppler/Libraries/CMSIS/Include\cmsis_gcc.h **** #if (defined (__ARM_FEATURE_CMSE ) && (__ARM_FEATURE_CMSE == 3))
 346:C:/Users/Utente/Desktop/Tesi/Firmware_Software/DAVE project/S2GLP_Pulsed_Doppler/Libraries/CMSIS/Include\cmsis_gcc.h **** /**
 347:C:/Users/Utente/Desktop/Tesi/Firmware_Software/DAVE project/S2GLP_Pulsed_Doppler/Libraries/CMSIS/Include\cmsis_gcc.h ****   \brief   Set Priority Mask (non-secure)
 348:C:/Users/Utente/Desktop/Tesi/Firmware_Software/DAVE project/S2GLP_Pulsed_Doppler/Libraries/CMSIS/Include\cmsis_gcc.h ****   \details Assigns the given value to the non-secure Priority Mask Register when in secure state.
 349:C:/Users/Utente/Desktop/Tesi/Firmware_Software/DAVE project/S2GLP_Pulsed_Doppler/Libraries/CMSIS/Include\cmsis_gcc.h ****   \param [in]    priMask  Priority Mask
 350:C:/Users/Utente/Desktop/Tesi/Firmware_Software/DAVE project/S2GLP_Pulsed_Doppler/Libraries/CMSIS/Include\cmsis_gcc.h ****  */
 351:C:/Users/Utente/Desktop/Tesi/Firmware_Software/DAVE project/S2GLP_Pulsed_Doppler/Libraries/CMSIS/Include\cmsis_gcc.h **** __attribute__((always_inline)) __STATIC_INLINE void __TZ_set_PRIMASK_NS(uint32_t priMask)
 352:C:/Users/Utente/Desktop/Tesi/Firmware_Software/DAVE project/S2GLP_Pulsed_Doppler/Libraries/CMSIS/Include\cmsis_gcc.h **** {
 353:C:/Users/Utente/Desktop/Tesi/Firmware_Software/DAVE project/S2GLP_Pulsed_Doppler/Libraries/CMSIS/Include\cmsis_gcc.h ****   __ASM volatile ("MSR primask_ns, %0" : : "r" (priMask) : "memory");
 354:C:/Users/Utente/Desktop/Tesi/Firmware_Software/DAVE project/S2GLP_Pulsed_Doppler/Libraries/CMSIS/Include\cmsis_gcc.h **** }
 355:C:/Users/Utente/Desktop/Tesi/Firmware_Software/DAVE project/S2GLP_Pulsed_Doppler/Libraries/CMSIS/Include\cmsis_gcc.h **** #endif
 356:C:/Users/Utente/Desktop/Tesi/Firmware_Software/DAVE project/S2GLP_Pulsed_Doppler/Libraries/CMSIS/Include\cmsis_gcc.h **** 
 357:C:/Users/Utente/Desktop/Tesi/Firmware_Software/DAVE project/S2GLP_Pulsed_Doppler/Libraries/CMSIS/Include\cmsis_gcc.h **** 
 358:C:/Users/Utente/Desktop/Tesi/Firmware_Software/DAVE project/S2GLP_Pulsed_Doppler/Libraries/CMSIS/Include\cmsis_gcc.h **** #if ((defined (__ARM_ARCH_7M__      ) && (__ARM_ARCH_7M__      == 1)) || \
 359:C:/Users/Utente/Desktop/Tesi/Firmware_Software/DAVE project/S2GLP_Pulsed_Doppler/Libraries/CMSIS/Include\cmsis_gcc.h ****      (defined (__ARM_ARCH_7EM__     ) && (__ARM_ARCH_7EM__     == 1)) || \
 360:C:/Users/Utente/Desktop/Tesi/Firmware_Software/DAVE project/S2GLP_Pulsed_Doppler/Libraries/CMSIS/Include\cmsis_gcc.h ****      (defined (__ARM_ARCH_8M_MAIN__ ) && (__ARM_ARCH_8M_MAIN__ == 1))    )
 361:C:/Users/Utente/Desktop/Tesi/Firmware_Software/DAVE project/S2GLP_Pulsed_Doppler/Libraries/CMSIS/Include\cmsis_gcc.h **** /**
 362:C:/Users/Utente/Desktop/Tesi/Firmware_Software/DAVE project/S2GLP_Pulsed_Doppler/Libraries/CMSIS/Include\cmsis_gcc.h ****   \brief   Enable FIQ
 363:C:/Users/Utente/Desktop/Tesi/Firmware_Software/DAVE project/S2GLP_Pulsed_Doppler/Libraries/CMSIS/Include\cmsis_gcc.h ****   \details Enables FIQ interrupts by clearing the F-bit in the CPSR.
 364:C:/Users/Utente/Desktop/Tesi/Firmware_Software/DAVE project/S2GLP_Pulsed_Doppler/Libraries/CMSIS/Include\cmsis_gcc.h ****            Can only be executed in Privileged modes.
 365:C:/Users/Utente/Desktop/Tesi/Firmware_Software/DAVE project/S2GLP_Pulsed_Doppler/Libraries/CMSIS/Include\cmsis_gcc.h ****  */
 366:C:/Users/Utente/Desktop/Tesi/Firmware_Software/DAVE project/S2GLP_Pulsed_Doppler/Libraries/CMSIS/Include\cmsis_gcc.h **** __attribute__((always_inline)) __STATIC_INLINE void __enable_fault_irq(void)
 367:C:/Users/Utente/Desktop/Tesi/Firmware_Software/DAVE project/S2GLP_Pulsed_Doppler/Libraries/CMSIS/Include\cmsis_gcc.h **** {
 368:C:/Users/Utente/Desktop/Tesi/Firmware_Software/DAVE project/S2GLP_Pulsed_Doppler/Libraries/CMSIS/Include\cmsis_gcc.h ****   __ASM volatile ("cpsie f" : : : "memory");
 369:C:/Users/Utente/Desktop/Tesi/Firmware_Software/DAVE project/S2GLP_Pulsed_Doppler/Libraries/CMSIS/Include\cmsis_gcc.h **** }
 370:C:/Users/Utente/Desktop/Tesi/Firmware_Software/DAVE project/S2GLP_Pulsed_Doppler/Libraries/CMSIS/Include\cmsis_gcc.h **** 
 371:C:/Users/Utente/Desktop/Tesi/Firmware_Software/DAVE project/S2GLP_Pulsed_Doppler/Libraries/CMSIS/Include\cmsis_gcc.h **** 
 372:C:/Users/Utente/Desktop/Tesi/Firmware_Software/DAVE project/S2GLP_Pulsed_Doppler/Libraries/CMSIS/Include\cmsis_gcc.h **** /**
 373:C:/Users/Utente/Desktop/Tesi/Firmware_Software/DAVE project/S2GLP_Pulsed_Doppler/Libraries/CMSIS/Include\cmsis_gcc.h ****   \brief   Disable FIQ
 374:C:/Users/Utente/Desktop/Tesi/Firmware_Software/DAVE project/S2GLP_Pulsed_Doppler/Libraries/CMSIS/Include\cmsis_gcc.h ****   \details Disables FIQ interrupts by setting the F-bit in the CPSR.
 375:C:/Users/Utente/Desktop/Tesi/Firmware_Software/DAVE project/S2GLP_Pulsed_Doppler/Libraries/CMSIS/Include\cmsis_gcc.h ****            Can only be executed in Privileged modes.
 376:C:/Users/Utente/Desktop/Tesi/Firmware_Software/DAVE project/S2GLP_Pulsed_Doppler/Libraries/CMSIS/Include\cmsis_gcc.h ****  */
 377:C:/Users/Utente/Desktop/Tesi/Firmware_Software/DAVE project/S2GLP_Pulsed_Doppler/Libraries/CMSIS/Include\cmsis_gcc.h **** __attribute__((always_inline)) __STATIC_INLINE void __disable_fault_irq(void)
 378:C:/Users/Utente/Desktop/Tesi/Firmware_Software/DAVE project/S2GLP_Pulsed_Doppler/Libraries/CMSIS/Include\cmsis_gcc.h **** {
 379:C:/Users/Utente/Desktop/Tesi/Firmware_Software/DAVE project/S2GLP_Pulsed_Doppler/Libraries/CMSIS/Include\cmsis_gcc.h ****   __ASM volatile ("cpsid f" : : : "memory");
 380:C:/Users/Utente/Desktop/Tesi/Firmware_Software/DAVE project/S2GLP_Pulsed_Doppler/Libraries/CMSIS/Include\cmsis_gcc.h **** }
 381:C:/Users/Utente/Desktop/Tesi/Firmware_Software/DAVE project/S2GLP_Pulsed_Doppler/Libraries/CMSIS/Include\cmsis_gcc.h **** 
 382:C:/Users/Utente/Desktop/Tesi/Firmware_Software/DAVE project/S2GLP_Pulsed_Doppler/Libraries/CMSIS/Include\cmsis_gcc.h **** 
 383:C:/Users/Utente/Desktop/Tesi/Firmware_Software/DAVE project/S2GLP_Pulsed_Doppler/Libraries/CMSIS/Include\cmsis_gcc.h **** /**
 384:C:/Users/Utente/Desktop/Tesi/Firmware_Software/DAVE project/S2GLP_Pulsed_Doppler/Libraries/CMSIS/Include\cmsis_gcc.h ****   \brief   Get Base Priority
 385:C:/Users/Utente/Desktop/Tesi/Firmware_Software/DAVE project/S2GLP_Pulsed_Doppler/Libraries/CMSIS/Include\cmsis_gcc.h ****   \details Returns the current value of the Base Priority register.
 386:C:/Users/Utente/Desktop/Tesi/Firmware_Software/DAVE project/S2GLP_Pulsed_Doppler/Libraries/CMSIS/Include\cmsis_gcc.h ****   \return               Base Priority register value
 387:C:/Users/Utente/Desktop/Tesi/Firmware_Software/DAVE project/S2GLP_Pulsed_Doppler/Libraries/CMSIS/Include\cmsis_gcc.h ****  */
 388:C:/Users/Utente/Desktop/Tesi/Firmware_Software/DAVE project/S2GLP_Pulsed_Doppler/Libraries/CMSIS/Include\cmsis_gcc.h **** __attribute__((always_inline)) __STATIC_INLINE uint32_t __get_BASEPRI(void)
 389:C:/Users/Utente/Desktop/Tesi/Firmware_Software/DAVE project/S2GLP_Pulsed_Doppler/Libraries/CMSIS/Include\cmsis_gcc.h **** {
 390:C:/Users/Utente/Desktop/Tesi/Firmware_Software/DAVE project/S2GLP_Pulsed_Doppler/Libraries/CMSIS/Include\cmsis_gcc.h ****   uint32_t result;
 391:C:/Users/Utente/Desktop/Tesi/Firmware_Software/DAVE project/S2GLP_Pulsed_Doppler/Libraries/CMSIS/Include\cmsis_gcc.h **** 
 392:C:/Users/Utente/Desktop/Tesi/Firmware_Software/DAVE project/S2GLP_Pulsed_Doppler/Libraries/CMSIS/Include\cmsis_gcc.h ****   __ASM volatile ("MRS %0, basepri" : "=r" (result) );
 393:C:/Users/Utente/Desktop/Tesi/Firmware_Software/DAVE project/S2GLP_Pulsed_Doppler/Libraries/CMSIS/Include\cmsis_gcc.h ****   return(result);
 394:C:/Users/Utente/Desktop/Tesi/Firmware_Software/DAVE project/S2GLP_Pulsed_Doppler/Libraries/CMSIS/Include\cmsis_gcc.h **** }
 395:C:/Users/Utente/Desktop/Tesi/Firmware_Software/DAVE project/S2GLP_Pulsed_Doppler/Libraries/CMSIS/Include\cmsis_gcc.h **** 
 396:C:/Users/Utente/Desktop/Tesi/Firmware_Software/DAVE project/S2GLP_Pulsed_Doppler/Libraries/CMSIS/Include\cmsis_gcc.h **** 
 397:C:/Users/Utente/Desktop/Tesi/Firmware_Software/DAVE project/S2GLP_Pulsed_Doppler/Libraries/CMSIS/Include\cmsis_gcc.h **** #if (defined (__ARM_FEATURE_CMSE ) && (__ARM_FEATURE_CMSE == 3))
 398:C:/Users/Utente/Desktop/Tesi/Firmware_Software/DAVE project/S2GLP_Pulsed_Doppler/Libraries/CMSIS/Include\cmsis_gcc.h **** /**
 399:C:/Users/Utente/Desktop/Tesi/Firmware_Software/DAVE project/S2GLP_Pulsed_Doppler/Libraries/CMSIS/Include\cmsis_gcc.h ****   \brief   Get Base Priority (non-secure)
 400:C:/Users/Utente/Desktop/Tesi/Firmware_Software/DAVE project/S2GLP_Pulsed_Doppler/Libraries/CMSIS/Include\cmsis_gcc.h ****   \details Returns the current value of the non-secure Base Priority register when in secure state.
 401:C:/Users/Utente/Desktop/Tesi/Firmware_Software/DAVE project/S2GLP_Pulsed_Doppler/Libraries/CMSIS/Include\cmsis_gcc.h ****   \return               Base Priority register value
 402:C:/Users/Utente/Desktop/Tesi/Firmware_Software/DAVE project/S2GLP_Pulsed_Doppler/Libraries/CMSIS/Include\cmsis_gcc.h ****  */
 403:C:/Users/Utente/Desktop/Tesi/Firmware_Software/DAVE project/S2GLP_Pulsed_Doppler/Libraries/CMSIS/Include\cmsis_gcc.h **** __attribute__((always_inline)) __STATIC_INLINE uint32_t __TZ_get_BASEPRI_NS(void)
 404:C:/Users/Utente/Desktop/Tesi/Firmware_Software/DAVE project/S2GLP_Pulsed_Doppler/Libraries/CMSIS/Include\cmsis_gcc.h **** {
 405:C:/Users/Utente/Desktop/Tesi/Firmware_Software/DAVE project/S2GLP_Pulsed_Doppler/Libraries/CMSIS/Include\cmsis_gcc.h ****   uint32_t result;
 406:C:/Users/Utente/Desktop/Tesi/Firmware_Software/DAVE project/S2GLP_Pulsed_Doppler/Libraries/CMSIS/Include\cmsis_gcc.h **** 
 407:C:/Users/Utente/Desktop/Tesi/Firmware_Software/DAVE project/S2GLP_Pulsed_Doppler/Libraries/CMSIS/Include\cmsis_gcc.h ****   __ASM volatile ("MRS %0, basepri_ns" : "=r" (result) );
 408:C:/Users/Utente/Desktop/Tesi/Firmware_Software/DAVE project/S2GLP_Pulsed_Doppler/Libraries/CMSIS/Include\cmsis_gcc.h ****   return(result);
 409:C:/Users/Utente/Desktop/Tesi/Firmware_Software/DAVE project/S2GLP_Pulsed_Doppler/Libraries/CMSIS/Include\cmsis_gcc.h **** }
 410:C:/Users/Utente/Desktop/Tesi/Firmware_Software/DAVE project/S2GLP_Pulsed_Doppler/Libraries/CMSIS/Include\cmsis_gcc.h **** #endif
 411:C:/Users/Utente/Desktop/Tesi/Firmware_Software/DAVE project/S2GLP_Pulsed_Doppler/Libraries/CMSIS/Include\cmsis_gcc.h **** 
 412:C:/Users/Utente/Desktop/Tesi/Firmware_Software/DAVE project/S2GLP_Pulsed_Doppler/Libraries/CMSIS/Include\cmsis_gcc.h **** 
 413:C:/Users/Utente/Desktop/Tesi/Firmware_Software/DAVE project/S2GLP_Pulsed_Doppler/Libraries/CMSIS/Include\cmsis_gcc.h **** /**
 414:C:/Users/Utente/Desktop/Tesi/Firmware_Software/DAVE project/S2GLP_Pulsed_Doppler/Libraries/CMSIS/Include\cmsis_gcc.h ****   \brief   Set Base Priority
 415:C:/Users/Utente/Desktop/Tesi/Firmware_Software/DAVE project/S2GLP_Pulsed_Doppler/Libraries/CMSIS/Include\cmsis_gcc.h ****   \details Assigns the given value to the Base Priority register.
 416:C:/Users/Utente/Desktop/Tesi/Firmware_Software/DAVE project/S2GLP_Pulsed_Doppler/Libraries/CMSIS/Include\cmsis_gcc.h ****   \param [in]    basePri  Base Priority value to set
 417:C:/Users/Utente/Desktop/Tesi/Firmware_Software/DAVE project/S2GLP_Pulsed_Doppler/Libraries/CMSIS/Include\cmsis_gcc.h ****  */
 418:C:/Users/Utente/Desktop/Tesi/Firmware_Software/DAVE project/S2GLP_Pulsed_Doppler/Libraries/CMSIS/Include\cmsis_gcc.h **** __attribute__((always_inline)) __STATIC_INLINE void __set_BASEPRI(uint32_t basePri)
 419:C:/Users/Utente/Desktop/Tesi/Firmware_Software/DAVE project/S2GLP_Pulsed_Doppler/Libraries/CMSIS/Include\cmsis_gcc.h **** {
 420:C:/Users/Utente/Desktop/Tesi/Firmware_Software/DAVE project/S2GLP_Pulsed_Doppler/Libraries/CMSIS/Include\cmsis_gcc.h ****   __ASM volatile ("MSR basepri, %0" : : "r" (basePri) : "memory");
 421:C:/Users/Utente/Desktop/Tesi/Firmware_Software/DAVE project/S2GLP_Pulsed_Doppler/Libraries/CMSIS/Include\cmsis_gcc.h **** }
 422:C:/Users/Utente/Desktop/Tesi/Firmware_Software/DAVE project/S2GLP_Pulsed_Doppler/Libraries/CMSIS/Include\cmsis_gcc.h **** 
 423:C:/Users/Utente/Desktop/Tesi/Firmware_Software/DAVE project/S2GLP_Pulsed_Doppler/Libraries/CMSIS/Include\cmsis_gcc.h **** 
 424:C:/Users/Utente/Desktop/Tesi/Firmware_Software/DAVE project/S2GLP_Pulsed_Doppler/Libraries/CMSIS/Include\cmsis_gcc.h **** #if (defined (__ARM_FEATURE_CMSE ) && (__ARM_FEATURE_CMSE == 3))
 425:C:/Users/Utente/Desktop/Tesi/Firmware_Software/DAVE project/S2GLP_Pulsed_Doppler/Libraries/CMSIS/Include\cmsis_gcc.h **** /**
 426:C:/Users/Utente/Desktop/Tesi/Firmware_Software/DAVE project/S2GLP_Pulsed_Doppler/Libraries/CMSIS/Include\cmsis_gcc.h ****   \brief   Set Base Priority (non-secure)
 427:C:/Users/Utente/Desktop/Tesi/Firmware_Software/DAVE project/S2GLP_Pulsed_Doppler/Libraries/CMSIS/Include\cmsis_gcc.h ****   \details Assigns the given value to the non-secure Base Priority register when in secure state.
 428:C:/Users/Utente/Desktop/Tesi/Firmware_Software/DAVE project/S2GLP_Pulsed_Doppler/Libraries/CMSIS/Include\cmsis_gcc.h ****   \param [in]    basePri  Base Priority value to set
 429:C:/Users/Utente/Desktop/Tesi/Firmware_Software/DAVE project/S2GLP_Pulsed_Doppler/Libraries/CMSIS/Include\cmsis_gcc.h ****  */
 430:C:/Users/Utente/Desktop/Tesi/Firmware_Software/DAVE project/S2GLP_Pulsed_Doppler/Libraries/CMSIS/Include\cmsis_gcc.h **** __attribute__((always_inline)) __STATIC_INLINE void __TZ_set_BASEPRI_NS(uint32_t basePri)
 431:C:/Users/Utente/Desktop/Tesi/Firmware_Software/DAVE project/S2GLP_Pulsed_Doppler/Libraries/CMSIS/Include\cmsis_gcc.h **** {
 432:C:/Users/Utente/Desktop/Tesi/Firmware_Software/DAVE project/S2GLP_Pulsed_Doppler/Libraries/CMSIS/Include\cmsis_gcc.h ****   __ASM volatile ("MSR basepri_ns, %0" : : "r" (basePri) : "memory");
 433:C:/Users/Utente/Desktop/Tesi/Firmware_Software/DAVE project/S2GLP_Pulsed_Doppler/Libraries/CMSIS/Include\cmsis_gcc.h **** }
 434:C:/Users/Utente/Desktop/Tesi/Firmware_Software/DAVE project/S2GLP_Pulsed_Doppler/Libraries/CMSIS/Include\cmsis_gcc.h **** #endif
 435:C:/Users/Utente/Desktop/Tesi/Firmware_Software/DAVE project/S2GLP_Pulsed_Doppler/Libraries/CMSIS/Include\cmsis_gcc.h **** 
 436:C:/Users/Utente/Desktop/Tesi/Firmware_Software/DAVE project/S2GLP_Pulsed_Doppler/Libraries/CMSIS/Include\cmsis_gcc.h **** 
 437:C:/Users/Utente/Desktop/Tesi/Firmware_Software/DAVE project/S2GLP_Pulsed_Doppler/Libraries/CMSIS/Include\cmsis_gcc.h **** /**
 438:C:/Users/Utente/Desktop/Tesi/Firmware_Software/DAVE project/S2GLP_Pulsed_Doppler/Libraries/CMSIS/Include\cmsis_gcc.h ****   \brief   Set Base Priority with condition
 439:C:/Users/Utente/Desktop/Tesi/Firmware_Software/DAVE project/S2GLP_Pulsed_Doppler/Libraries/CMSIS/Include\cmsis_gcc.h ****   \details Assigns the given value to the Base Priority register only if BASEPRI masking is disable
 440:C:/Users/Utente/Desktop/Tesi/Firmware_Software/DAVE project/S2GLP_Pulsed_Doppler/Libraries/CMSIS/Include\cmsis_gcc.h ****            or the new value increases the BASEPRI priority level.
 441:C:/Users/Utente/Desktop/Tesi/Firmware_Software/DAVE project/S2GLP_Pulsed_Doppler/Libraries/CMSIS/Include\cmsis_gcc.h ****   \param [in]    basePri  Base Priority value to set
 442:C:/Users/Utente/Desktop/Tesi/Firmware_Software/DAVE project/S2GLP_Pulsed_Doppler/Libraries/CMSIS/Include\cmsis_gcc.h ****  */
 443:C:/Users/Utente/Desktop/Tesi/Firmware_Software/DAVE project/S2GLP_Pulsed_Doppler/Libraries/CMSIS/Include\cmsis_gcc.h **** __attribute__((always_inline)) __STATIC_INLINE void __set_BASEPRI_MAX(uint32_t basePri)
 444:C:/Users/Utente/Desktop/Tesi/Firmware_Software/DAVE project/S2GLP_Pulsed_Doppler/Libraries/CMSIS/Include\cmsis_gcc.h **** {
 445:C:/Users/Utente/Desktop/Tesi/Firmware_Software/DAVE project/S2GLP_Pulsed_Doppler/Libraries/CMSIS/Include\cmsis_gcc.h ****   __ASM volatile ("MSR basepri_max, %0" : : "r" (basePri) : "memory");
 446:C:/Users/Utente/Desktop/Tesi/Firmware_Software/DAVE project/S2GLP_Pulsed_Doppler/Libraries/CMSIS/Include\cmsis_gcc.h **** }
 447:C:/Users/Utente/Desktop/Tesi/Firmware_Software/DAVE project/S2GLP_Pulsed_Doppler/Libraries/CMSIS/Include\cmsis_gcc.h **** 
 448:C:/Users/Utente/Desktop/Tesi/Firmware_Software/DAVE project/S2GLP_Pulsed_Doppler/Libraries/CMSIS/Include\cmsis_gcc.h **** 
 449:C:/Users/Utente/Desktop/Tesi/Firmware_Software/DAVE project/S2GLP_Pulsed_Doppler/Libraries/CMSIS/Include\cmsis_gcc.h **** /**
 450:C:/Users/Utente/Desktop/Tesi/Firmware_Software/DAVE project/S2GLP_Pulsed_Doppler/Libraries/CMSIS/Include\cmsis_gcc.h ****   \brief   Get Fault Mask
 451:C:/Users/Utente/Desktop/Tesi/Firmware_Software/DAVE project/S2GLP_Pulsed_Doppler/Libraries/CMSIS/Include\cmsis_gcc.h ****   \details Returns the current value of the Fault Mask register.
 452:C:/Users/Utente/Desktop/Tesi/Firmware_Software/DAVE project/S2GLP_Pulsed_Doppler/Libraries/CMSIS/Include\cmsis_gcc.h ****   \return               Fault Mask register value
 453:C:/Users/Utente/Desktop/Tesi/Firmware_Software/DAVE project/S2GLP_Pulsed_Doppler/Libraries/CMSIS/Include\cmsis_gcc.h ****  */
 454:C:/Users/Utente/Desktop/Tesi/Firmware_Software/DAVE project/S2GLP_Pulsed_Doppler/Libraries/CMSIS/Include\cmsis_gcc.h **** __attribute__((always_inline)) __STATIC_INLINE uint32_t __get_FAULTMASK(void)
 455:C:/Users/Utente/Desktop/Tesi/Firmware_Software/DAVE project/S2GLP_Pulsed_Doppler/Libraries/CMSIS/Include\cmsis_gcc.h **** {
 456:C:/Users/Utente/Desktop/Tesi/Firmware_Software/DAVE project/S2GLP_Pulsed_Doppler/Libraries/CMSIS/Include\cmsis_gcc.h ****   uint32_t result;
 457:C:/Users/Utente/Desktop/Tesi/Firmware_Software/DAVE project/S2GLP_Pulsed_Doppler/Libraries/CMSIS/Include\cmsis_gcc.h **** 
 458:C:/Users/Utente/Desktop/Tesi/Firmware_Software/DAVE project/S2GLP_Pulsed_Doppler/Libraries/CMSIS/Include\cmsis_gcc.h ****   __ASM volatile ("MRS %0, faultmask" : "=r" (result) );
 459:C:/Users/Utente/Desktop/Tesi/Firmware_Software/DAVE project/S2GLP_Pulsed_Doppler/Libraries/CMSIS/Include\cmsis_gcc.h ****   return(result);
 460:C:/Users/Utente/Desktop/Tesi/Firmware_Software/DAVE project/S2GLP_Pulsed_Doppler/Libraries/CMSIS/Include\cmsis_gcc.h **** }
 461:C:/Users/Utente/Desktop/Tesi/Firmware_Software/DAVE project/S2GLP_Pulsed_Doppler/Libraries/CMSIS/Include\cmsis_gcc.h **** 
 462:C:/Users/Utente/Desktop/Tesi/Firmware_Software/DAVE project/S2GLP_Pulsed_Doppler/Libraries/CMSIS/Include\cmsis_gcc.h **** 
 463:C:/Users/Utente/Desktop/Tesi/Firmware_Software/DAVE project/S2GLP_Pulsed_Doppler/Libraries/CMSIS/Include\cmsis_gcc.h **** #if (defined (__ARM_FEATURE_CMSE ) && (__ARM_FEATURE_CMSE == 3))
 464:C:/Users/Utente/Desktop/Tesi/Firmware_Software/DAVE project/S2GLP_Pulsed_Doppler/Libraries/CMSIS/Include\cmsis_gcc.h **** /**
 465:C:/Users/Utente/Desktop/Tesi/Firmware_Software/DAVE project/S2GLP_Pulsed_Doppler/Libraries/CMSIS/Include\cmsis_gcc.h ****   \brief   Get Fault Mask (non-secure)
 466:C:/Users/Utente/Desktop/Tesi/Firmware_Software/DAVE project/S2GLP_Pulsed_Doppler/Libraries/CMSIS/Include\cmsis_gcc.h ****   \details Returns the current value of the non-secure Fault Mask register when in secure state.
 467:C:/Users/Utente/Desktop/Tesi/Firmware_Software/DAVE project/S2GLP_Pulsed_Doppler/Libraries/CMSIS/Include\cmsis_gcc.h ****   \return               Fault Mask register value
 468:C:/Users/Utente/Desktop/Tesi/Firmware_Software/DAVE project/S2GLP_Pulsed_Doppler/Libraries/CMSIS/Include\cmsis_gcc.h ****  */
 469:C:/Users/Utente/Desktop/Tesi/Firmware_Software/DAVE project/S2GLP_Pulsed_Doppler/Libraries/CMSIS/Include\cmsis_gcc.h **** __attribute__((always_inline)) __STATIC_INLINE uint32_t __TZ_get_FAULTMASK_NS(void)
 470:C:/Users/Utente/Desktop/Tesi/Firmware_Software/DAVE project/S2GLP_Pulsed_Doppler/Libraries/CMSIS/Include\cmsis_gcc.h **** {
 471:C:/Users/Utente/Desktop/Tesi/Firmware_Software/DAVE project/S2GLP_Pulsed_Doppler/Libraries/CMSIS/Include\cmsis_gcc.h ****   uint32_t result;
 472:C:/Users/Utente/Desktop/Tesi/Firmware_Software/DAVE project/S2GLP_Pulsed_Doppler/Libraries/CMSIS/Include\cmsis_gcc.h **** 
 473:C:/Users/Utente/Desktop/Tesi/Firmware_Software/DAVE project/S2GLP_Pulsed_Doppler/Libraries/CMSIS/Include\cmsis_gcc.h ****   __ASM volatile ("MRS %0, faultmask_ns" : "=r" (result) );
 474:C:/Users/Utente/Desktop/Tesi/Firmware_Software/DAVE project/S2GLP_Pulsed_Doppler/Libraries/CMSIS/Include\cmsis_gcc.h ****   return(result);
 475:C:/Users/Utente/Desktop/Tesi/Firmware_Software/DAVE project/S2GLP_Pulsed_Doppler/Libraries/CMSIS/Include\cmsis_gcc.h **** }
 476:C:/Users/Utente/Desktop/Tesi/Firmware_Software/DAVE project/S2GLP_Pulsed_Doppler/Libraries/CMSIS/Include\cmsis_gcc.h **** #endif
 477:C:/Users/Utente/Desktop/Tesi/Firmware_Software/DAVE project/S2GLP_Pulsed_Doppler/Libraries/CMSIS/Include\cmsis_gcc.h **** 
 478:C:/Users/Utente/Desktop/Tesi/Firmware_Software/DAVE project/S2GLP_Pulsed_Doppler/Libraries/CMSIS/Include\cmsis_gcc.h **** 
 479:C:/Users/Utente/Desktop/Tesi/Firmware_Software/DAVE project/S2GLP_Pulsed_Doppler/Libraries/CMSIS/Include\cmsis_gcc.h **** /**
 480:C:/Users/Utente/Desktop/Tesi/Firmware_Software/DAVE project/S2GLP_Pulsed_Doppler/Libraries/CMSIS/Include\cmsis_gcc.h ****   \brief   Set Fault Mask
 481:C:/Users/Utente/Desktop/Tesi/Firmware_Software/DAVE project/S2GLP_Pulsed_Doppler/Libraries/CMSIS/Include\cmsis_gcc.h ****   \details Assigns the given value to the Fault Mask register.
 482:C:/Users/Utente/Desktop/Tesi/Firmware_Software/DAVE project/S2GLP_Pulsed_Doppler/Libraries/CMSIS/Include\cmsis_gcc.h ****   \param [in]    faultMask  Fault Mask value to set
 483:C:/Users/Utente/Desktop/Tesi/Firmware_Software/DAVE project/S2GLP_Pulsed_Doppler/Libraries/CMSIS/Include\cmsis_gcc.h ****  */
 484:C:/Users/Utente/Desktop/Tesi/Firmware_Software/DAVE project/S2GLP_Pulsed_Doppler/Libraries/CMSIS/Include\cmsis_gcc.h **** __attribute__((always_inline)) __STATIC_INLINE void __set_FAULTMASK(uint32_t faultMask)
 485:C:/Users/Utente/Desktop/Tesi/Firmware_Software/DAVE project/S2GLP_Pulsed_Doppler/Libraries/CMSIS/Include\cmsis_gcc.h **** {
 486:C:/Users/Utente/Desktop/Tesi/Firmware_Software/DAVE project/S2GLP_Pulsed_Doppler/Libraries/CMSIS/Include\cmsis_gcc.h ****   __ASM volatile ("MSR faultmask, %0" : : "r" (faultMask) : "memory");
 487:C:/Users/Utente/Desktop/Tesi/Firmware_Software/DAVE project/S2GLP_Pulsed_Doppler/Libraries/CMSIS/Include\cmsis_gcc.h **** }
 488:C:/Users/Utente/Desktop/Tesi/Firmware_Software/DAVE project/S2GLP_Pulsed_Doppler/Libraries/CMSIS/Include\cmsis_gcc.h **** 
 489:C:/Users/Utente/Desktop/Tesi/Firmware_Software/DAVE project/S2GLP_Pulsed_Doppler/Libraries/CMSIS/Include\cmsis_gcc.h **** 
 490:C:/Users/Utente/Desktop/Tesi/Firmware_Software/DAVE project/S2GLP_Pulsed_Doppler/Libraries/CMSIS/Include\cmsis_gcc.h **** #if (defined (__ARM_FEATURE_CMSE ) && (__ARM_FEATURE_CMSE == 3))
 491:C:/Users/Utente/Desktop/Tesi/Firmware_Software/DAVE project/S2GLP_Pulsed_Doppler/Libraries/CMSIS/Include\cmsis_gcc.h **** /**
 492:C:/Users/Utente/Desktop/Tesi/Firmware_Software/DAVE project/S2GLP_Pulsed_Doppler/Libraries/CMSIS/Include\cmsis_gcc.h ****   \brief   Set Fault Mask (non-secure)
 493:C:/Users/Utente/Desktop/Tesi/Firmware_Software/DAVE project/S2GLP_Pulsed_Doppler/Libraries/CMSIS/Include\cmsis_gcc.h ****   \details Assigns the given value to the non-secure Fault Mask register when in secure state.
 494:C:/Users/Utente/Desktop/Tesi/Firmware_Software/DAVE project/S2GLP_Pulsed_Doppler/Libraries/CMSIS/Include\cmsis_gcc.h ****   \param [in]    faultMask  Fault Mask value to set
 495:C:/Users/Utente/Desktop/Tesi/Firmware_Software/DAVE project/S2GLP_Pulsed_Doppler/Libraries/CMSIS/Include\cmsis_gcc.h ****  */
 496:C:/Users/Utente/Desktop/Tesi/Firmware_Software/DAVE project/S2GLP_Pulsed_Doppler/Libraries/CMSIS/Include\cmsis_gcc.h **** __attribute__((always_inline)) __STATIC_INLINE void __TZ_set_FAULTMASK_NS(uint32_t faultMask)
 497:C:/Users/Utente/Desktop/Tesi/Firmware_Software/DAVE project/S2GLP_Pulsed_Doppler/Libraries/CMSIS/Include\cmsis_gcc.h **** {
 498:C:/Users/Utente/Desktop/Tesi/Firmware_Software/DAVE project/S2GLP_Pulsed_Doppler/Libraries/CMSIS/Include\cmsis_gcc.h ****   __ASM volatile ("MSR faultmask_ns, %0" : : "r" (faultMask) : "memory");
 499:C:/Users/Utente/Desktop/Tesi/Firmware_Software/DAVE project/S2GLP_Pulsed_Doppler/Libraries/CMSIS/Include\cmsis_gcc.h **** }
 500:C:/Users/Utente/Desktop/Tesi/Firmware_Software/DAVE project/S2GLP_Pulsed_Doppler/Libraries/CMSIS/Include\cmsis_gcc.h **** #endif
 501:C:/Users/Utente/Desktop/Tesi/Firmware_Software/DAVE project/S2GLP_Pulsed_Doppler/Libraries/CMSIS/Include\cmsis_gcc.h **** 
 502:C:/Users/Utente/Desktop/Tesi/Firmware_Software/DAVE project/S2GLP_Pulsed_Doppler/Libraries/CMSIS/Include\cmsis_gcc.h **** #endif /* ((defined (__ARM_ARCH_7M__      ) && (__ARM_ARCH_7M__      == 1)) || \
 503:C:/Users/Utente/Desktop/Tesi/Firmware_Software/DAVE project/S2GLP_Pulsed_Doppler/Libraries/CMSIS/Include\cmsis_gcc.h ****            (defined (__ARM_ARCH_7EM__     ) && (__ARM_ARCH_7EM__     == 1)) || \
 504:C:/Users/Utente/Desktop/Tesi/Firmware_Software/DAVE project/S2GLP_Pulsed_Doppler/Libraries/CMSIS/Include\cmsis_gcc.h ****            (defined (__ARM_ARCH_8M_MAIN__ ) && (__ARM_ARCH_8M_MAIN__ == 1))    ) */
 505:C:/Users/Utente/Desktop/Tesi/Firmware_Software/DAVE project/S2GLP_Pulsed_Doppler/Libraries/CMSIS/Include\cmsis_gcc.h **** 
 506:C:/Users/Utente/Desktop/Tesi/Firmware_Software/DAVE project/S2GLP_Pulsed_Doppler/Libraries/CMSIS/Include\cmsis_gcc.h **** 
 507:C:/Users/Utente/Desktop/Tesi/Firmware_Software/DAVE project/S2GLP_Pulsed_Doppler/Libraries/CMSIS/Include\cmsis_gcc.h **** #if ((defined (__ARM_ARCH_8M_MAIN__ ) && (__ARM_ARCH_8M_MAIN__ == 1)) || \
 508:C:/Users/Utente/Desktop/Tesi/Firmware_Software/DAVE project/S2GLP_Pulsed_Doppler/Libraries/CMSIS/Include\cmsis_gcc.h ****      (defined (__ARM_ARCH_8M_BASE__ ) && (__ARM_ARCH_8M_BASE__ == 1))    )
 509:C:/Users/Utente/Desktop/Tesi/Firmware_Software/DAVE project/S2GLP_Pulsed_Doppler/Libraries/CMSIS/Include\cmsis_gcc.h **** 
 510:C:/Users/Utente/Desktop/Tesi/Firmware_Software/DAVE project/S2GLP_Pulsed_Doppler/Libraries/CMSIS/Include\cmsis_gcc.h **** /**
 511:C:/Users/Utente/Desktop/Tesi/Firmware_Software/DAVE project/S2GLP_Pulsed_Doppler/Libraries/CMSIS/Include\cmsis_gcc.h ****   \brief   Get Process Stack Pointer Limit
 512:C:/Users/Utente/Desktop/Tesi/Firmware_Software/DAVE project/S2GLP_Pulsed_Doppler/Libraries/CMSIS/Include\cmsis_gcc.h ****   \details Returns the current value of the Process Stack Pointer Limit (PSPLIM).
 513:C:/Users/Utente/Desktop/Tesi/Firmware_Software/DAVE project/S2GLP_Pulsed_Doppler/Libraries/CMSIS/Include\cmsis_gcc.h ****   \return               PSPLIM Register value
 514:C:/Users/Utente/Desktop/Tesi/Firmware_Software/DAVE project/S2GLP_Pulsed_Doppler/Libraries/CMSIS/Include\cmsis_gcc.h ****  */
 515:C:/Users/Utente/Desktop/Tesi/Firmware_Software/DAVE project/S2GLP_Pulsed_Doppler/Libraries/CMSIS/Include\cmsis_gcc.h **** __attribute__((always_inline)) __STATIC_INLINE uint32_t __get_PSPLIM(void)
 516:C:/Users/Utente/Desktop/Tesi/Firmware_Software/DAVE project/S2GLP_Pulsed_Doppler/Libraries/CMSIS/Include\cmsis_gcc.h **** {
 517:C:/Users/Utente/Desktop/Tesi/Firmware_Software/DAVE project/S2GLP_Pulsed_Doppler/Libraries/CMSIS/Include\cmsis_gcc.h ****   register uint32_t result;
 518:C:/Users/Utente/Desktop/Tesi/Firmware_Software/DAVE project/S2GLP_Pulsed_Doppler/Libraries/CMSIS/Include\cmsis_gcc.h **** 
 519:C:/Users/Utente/Desktop/Tesi/Firmware_Software/DAVE project/S2GLP_Pulsed_Doppler/Libraries/CMSIS/Include\cmsis_gcc.h ****   __ASM volatile ("MRS %0, psplim"  : "=r" (result) );
 520:C:/Users/Utente/Desktop/Tesi/Firmware_Software/DAVE project/S2GLP_Pulsed_Doppler/Libraries/CMSIS/Include\cmsis_gcc.h ****   return(result);
 521:C:/Users/Utente/Desktop/Tesi/Firmware_Software/DAVE project/S2GLP_Pulsed_Doppler/Libraries/CMSIS/Include\cmsis_gcc.h **** }
 522:C:/Users/Utente/Desktop/Tesi/Firmware_Software/DAVE project/S2GLP_Pulsed_Doppler/Libraries/CMSIS/Include\cmsis_gcc.h **** 
 523:C:/Users/Utente/Desktop/Tesi/Firmware_Software/DAVE project/S2GLP_Pulsed_Doppler/Libraries/CMSIS/Include\cmsis_gcc.h **** 
 524:C:/Users/Utente/Desktop/Tesi/Firmware_Software/DAVE project/S2GLP_Pulsed_Doppler/Libraries/CMSIS/Include\cmsis_gcc.h **** #if ((defined (__ARM_FEATURE_CMSE  ) && (__ARM_FEATURE_CMSE   == 3)) && \
 525:C:/Users/Utente/Desktop/Tesi/Firmware_Software/DAVE project/S2GLP_Pulsed_Doppler/Libraries/CMSIS/Include\cmsis_gcc.h ****      (defined (__ARM_ARCH_8M_MAIN__) && (__ARM_ARCH_8M_MAIN__ == 1))    )
 526:C:/Users/Utente/Desktop/Tesi/Firmware_Software/DAVE project/S2GLP_Pulsed_Doppler/Libraries/CMSIS/Include\cmsis_gcc.h **** /**
 527:C:/Users/Utente/Desktop/Tesi/Firmware_Software/DAVE project/S2GLP_Pulsed_Doppler/Libraries/CMSIS/Include\cmsis_gcc.h ****   \brief   Get Process Stack Pointer Limit (non-secure)
 528:C:/Users/Utente/Desktop/Tesi/Firmware_Software/DAVE project/S2GLP_Pulsed_Doppler/Libraries/CMSIS/Include\cmsis_gcc.h ****   \details Returns the current value of the non-secure Process Stack Pointer Limit (PSPLIM) when in
 529:C:/Users/Utente/Desktop/Tesi/Firmware_Software/DAVE project/S2GLP_Pulsed_Doppler/Libraries/CMSIS/Include\cmsis_gcc.h ****   \return               PSPLIM Register value
 530:C:/Users/Utente/Desktop/Tesi/Firmware_Software/DAVE project/S2GLP_Pulsed_Doppler/Libraries/CMSIS/Include\cmsis_gcc.h ****  */
 531:C:/Users/Utente/Desktop/Tesi/Firmware_Software/DAVE project/S2GLP_Pulsed_Doppler/Libraries/CMSIS/Include\cmsis_gcc.h **** __attribute__((always_inline)) __STATIC_INLINE uint32_t __TZ_get_PSPLIM_NS(void)
 532:C:/Users/Utente/Desktop/Tesi/Firmware_Software/DAVE project/S2GLP_Pulsed_Doppler/Libraries/CMSIS/Include\cmsis_gcc.h **** {
 533:C:/Users/Utente/Desktop/Tesi/Firmware_Software/DAVE project/S2GLP_Pulsed_Doppler/Libraries/CMSIS/Include\cmsis_gcc.h ****   register uint32_t result;
 534:C:/Users/Utente/Desktop/Tesi/Firmware_Software/DAVE project/S2GLP_Pulsed_Doppler/Libraries/CMSIS/Include\cmsis_gcc.h **** 
 535:C:/Users/Utente/Desktop/Tesi/Firmware_Software/DAVE project/S2GLP_Pulsed_Doppler/Libraries/CMSIS/Include\cmsis_gcc.h ****   __ASM volatile ("MRS %0, psplim_ns"  : "=r" (result) );
 536:C:/Users/Utente/Desktop/Tesi/Firmware_Software/DAVE project/S2GLP_Pulsed_Doppler/Libraries/CMSIS/Include\cmsis_gcc.h ****   return(result);
 537:C:/Users/Utente/Desktop/Tesi/Firmware_Software/DAVE project/S2GLP_Pulsed_Doppler/Libraries/CMSIS/Include\cmsis_gcc.h **** }
 538:C:/Users/Utente/Desktop/Tesi/Firmware_Software/DAVE project/S2GLP_Pulsed_Doppler/Libraries/CMSIS/Include\cmsis_gcc.h **** #endif
 539:C:/Users/Utente/Desktop/Tesi/Firmware_Software/DAVE project/S2GLP_Pulsed_Doppler/Libraries/CMSIS/Include\cmsis_gcc.h **** 
 540:C:/Users/Utente/Desktop/Tesi/Firmware_Software/DAVE project/S2GLP_Pulsed_Doppler/Libraries/CMSIS/Include\cmsis_gcc.h **** 
 541:C:/Users/Utente/Desktop/Tesi/Firmware_Software/DAVE project/S2GLP_Pulsed_Doppler/Libraries/CMSIS/Include\cmsis_gcc.h **** /**
 542:C:/Users/Utente/Desktop/Tesi/Firmware_Software/DAVE project/S2GLP_Pulsed_Doppler/Libraries/CMSIS/Include\cmsis_gcc.h ****   \brief   Set Process Stack Pointer Limit
 543:C:/Users/Utente/Desktop/Tesi/Firmware_Software/DAVE project/S2GLP_Pulsed_Doppler/Libraries/CMSIS/Include\cmsis_gcc.h ****   \details Assigns the given value to the Process Stack Pointer Limit (PSPLIM).
 544:C:/Users/Utente/Desktop/Tesi/Firmware_Software/DAVE project/S2GLP_Pulsed_Doppler/Libraries/CMSIS/Include\cmsis_gcc.h ****   \param [in]    ProcStackPtrLimit  Process Stack Pointer Limit value to set
 545:C:/Users/Utente/Desktop/Tesi/Firmware_Software/DAVE project/S2GLP_Pulsed_Doppler/Libraries/CMSIS/Include\cmsis_gcc.h ****  */
 546:C:/Users/Utente/Desktop/Tesi/Firmware_Software/DAVE project/S2GLP_Pulsed_Doppler/Libraries/CMSIS/Include\cmsis_gcc.h **** __attribute__((always_inline)) __STATIC_INLINE void __set_PSPLIM(uint32_t ProcStackPtrLimit)
 547:C:/Users/Utente/Desktop/Tesi/Firmware_Software/DAVE project/S2GLP_Pulsed_Doppler/Libraries/CMSIS/Include\cmsis_gcc.h **** {
 548:C:/Users/Utente/Desktop/Tesi/Firmware_Software/DAVE project/S2GLP_Pulsed_Doppler/Libraries/CMSIS/Include\cmsis_gcc.h ****   __ASM volatile ("MSR psplim, %0" : : "r" (ProcStackPtrLimit));
 549:C:/Users/Utente/Desktop/Tesi/Firmware_Software/DAVE project/S2GLP_Pulsed_Doppler/Libraries/CMSIS/Include\cmsis_gcc.h **** }
 550:C:/Users/Utente/Desktop/Tesi/Firmware_Software/DAVE project/S2GLP_Pulsed_Doppler/Libraries/CMSIS/Include\cmsis_gcc.h **** 
 551:C:/Users/Utente/Desktop/Tesi/Firmware_Software/DAVE project/S2GLP_Pulsed_Doppler/Libraries/CMSIS/Include\cmsis_gcc.h **** 
 552:C:/Users/Utente/Desktop/Tesi/Firmware_Software/DAVE project/S2GLP_Pulsed_Doppler/Libraries/CMSIS/Include\cmsis_gcc.h **** #if ((defined (__ARM_FEATURE_CMSE  ) && (__ARM_FEATURE_CMSE   == 3)) && \
 553:C:/Users/Utente/Desktop/Tesi/Firmware_Software/DAVE project/S2GLP_Pulsed_Doppler/Libraries/CMSIS/Include\cmsis_gcc.h ****      (defined (__ARM_ARCH_8M_MAIN__) && (__ARM_ARCH_8M_MAIN__ == 1))    )
 554:C:/Users/Utente/Desktop/Tesi/Firmware_Software/DAVE project/S2GLP_Pulsed_Doppler/Libraries/CMSIS/Include\cmsis_gcc.h **** /**
 555:C:/Users/Utente/Desktop/Tesi/Firmware_Software/DAVE project/S2GLP_Pulsed_Doppler/Libraries/CMSIS/Include\cmsis_gcc.h ****   \brief   Set Process Stack Pointer (non-secure)
 556:C:/Users/Utente/Desktop/Tesi/Firmware_Software/DAVE project/S2GLP_Pulsed_Doppler/Libraries/CMSIS/Include\cmsis_gcc.h ****   \details Assigns the given value to the non-secure Process Stack Pointer Limit (PSPLIM) when in s
 557:C:/Users/Utente/Desktop/Tesi/Firmware_Software/DAVE project/S2GLP_Pulsed_Doppler/Libraries/CMSIS/Include\cmsis_gcc.h ****   \param [in]    ProcStackPtrLimit  Process Stack Pointer Limit value to set
 558:C:/Users/Utente/Desktop/Tesi/Firmware_Software/DAVE project/S2GLP_Pulsed_Doppler/Libraries/CMSIS/Include\cmsis_gcc.h ****  */
 559:C:/Users/Utente/Desktop/Tesi/Firmware_Software/DAVE project/S2GLP_Pulsed_Doppler/Libraries/CMSIS/Include\cmsis_gcc.h **** __attribute__((always_inline)) __STATIC_INLINE void __TZ_set_PSPLIM_NS(uint32_t ProcStackPtrLimit)
 560:C:/Users/Utente/Desktop/Tesi/Firmware_Software/DAVE project/S2GLP_Pulsed_Doppler/Libraries/CMSIS/Include\cmsis_gcc.h **** {
 561:C:/Users/Utente/Desktop/Tesi/Firmware_Software/DAVE project/S2GLP_Pulsed_Doppler/Libraries/CMSIS/Include\cmsis_gcc.h ****   __ASM volatile ("MSR psplim_ns, %0\n" : : "r" (ProcStackPtrLimit));
 562:C:/Users/Utente/Desktop/Tesi/Firmware_Software/DAVE project/S2GLP_Pulsed_Doppler/Libraries/CMSIS/Include\cmsis_gcc.h **** }
 563:C:/Users/Utente/Desktop/Tesi/Firmware_Software/DAVE project/S2GLP_Pulsed_Doppler/Libraries/CMSIS/Include\cmsis_gcc.h **** #endif
 564:C:/Users/Utente/Desktop/Tesi/Firmware_Software/DAVE project/S2GLP_Pulsed_Doppler/Libraries/CMSIS/Include\cmsis_gcc.h **** 
 565:C:/Users/Utente/Desktop/Tesi/Firmware_Software/DAVE project/S2GLP_Pulsed_Doppler/Libraries/CMSIS/Include\cmsis_gcc.h **** 
 566:C:/Users/Utente/Desktop/Tesi/Firmware_Software/DAVE project/S2GLP_Pulsed_Doppler/Libraries/CMSIS/Include\cmsis_gcc.h **** /**
 567:C:/Users/Utente/Desktop/Tesi/Firmware_Software/DAVE project/S2GLP_Pulsed_Doppler/Libraries/CMSIS/Include\cmsis_gcc.h ****   \brief   Get Main Stack Pointer Limit
 568:C:/Users/Utente/Desktop/Tesi/Firmware_Software/DAVE project/S2GLP_Pulsed_Doppler/Libraries/CMSIS/Include\cmsis_gcc.h ****   \details Returns the current value of the Main Stack Pointer Limit (MSPLIM).
 569:C:/Users/Utente/Desktop/Tesi/Firmware_Software/DAVE project/S2GLP_Pulsed_Doppler/Libraries/CMSIS/Include\cmsis_gcc.h ****   \return               MSPLIM Register value
 570:C:/Users/Utente/Desktop/Tesi/Firmware_Software/DAVE project/S2GLP_Pulsed_Doppler/Libraries/CMSIS/Include\cmsis_gcc.h ****  */
 571:C:/Users/Utente/Desktop/Tesi/Firmware_Software/DAVE project/S2GLP_Pulsed_Doppler/Libraries/CMSIS/Include\cmsis_gcc.h **** __attribute__((always_inline)) __STATIC_INLINE uint32_t __get_MSPLIM(void)
 572:C:/Users/Utente/Desktop/Tesi/Firmware_Software/DAVE project/S2GLP_Pulsed_Doppler/Libraries/CMSIS/Include\cmsis_gcc.h **** {
 573:C:/Users/Utente/Desktop/Tesi/Firmware_Software/DAVE project/S2GLP_Pulsed_Doppler/Libraries/CMSIS/Include\cmsis_gcc.h ****   register uint32_t result;
 574:C:/Users/Utente/Desktop/Tesi/Firmware_Software/DAVE project/S2GLP_Pulsed_Doppler/Libraries/CMSIS/Include\cmsis_gcc.h **** 
 575:C:/Users/Utente/Desktop/Tesi/Firmware_Software/DAVE project/S2GLP_Pulsed_Doppler/Libraries/CMSIS/Include\cmsis_gcc.h ****   __ASM volatile ("MRS %0, msplim" : "=r" (result) );
 576:C:/Users/Utente/Desktop/Tesi/Firmware_Software/DAVE project/S2GLP_Pulsed_Doppler/Libraries/CMSIS/Include\cmsis_gcc.h **** 
 577:C:/Users/Utente/Desktop/Tesi/Firmware_Software/DAVE project/S2GLP_Pulsed_Doppler/Libraries/CMSIS/Include\cmsis_gcc.h ****   return(result);
 578:C:/Users/Utente/Desktop/Tesi/Firmware_Software/DAVE project/S2GLP_Pulsed_Doppler/Libraries/CMSIS/Include\cmsis_gcc.h **** }
 579:C:/Users/Utente/Desktop/Tesi/Firmware_Software/DAVE project/S2GLP_Pulsed_Doppler/Libraries/CMSIS/Include\cmsis_gcc.h **** 
 580:C:/Users/Utente/Desktop/Tesi/Firmware_Software/DAVE project/S2GLP_Pulsed_Doppler/Libraries/CMSIS/Include\cmsis_gcc.h **** 
 581:C:/Users/Utente/Desktop/Tesi/Firmware_Software/DAVE project/S2GLP_Pulsed_Doppler/Libraries/CMSIS/Include\cmsis_gcc.h **** #if ((defined (__ARM_FEATURE_CMSE  ) && (__ARM_FEATURE_CMSE   == 3)) && \
 582:C:/Users/Utente/Desktop/Tesi/Firmware_Software/DAVE project/S2GLP_Pulsed_Doppler/Libraries/CMSIS/Include\cmsis_gcc.h ****      (defined (__ARM_ARCH_8M_MAIN__) && (__ARM_ARCH_8M_MAIN__ == 1))    )
 583:C:/Users/Utente/Desktop/Tesi/Firmware_Software/DAVE project/S2GLP_Pulsed_Doppler/Libraries/CMSIS/Include\cmsis_gcc.h **** /**
 584:C:/Users/Utente/Desktop/Tesi/Firmware_Software/DAVE project/S2GLP_Pulsed_Doppler/Libraries/CMSIS/Include\cmsis_gcc.h ****   \brief   Get Main Stack Pointer Limit (non-secure)
 585:C:/Users/Utente/Desktop/Tesi/Firmware_Software/DAVE project/S2GLP_Pulsed_Doppler/Libraries/CMSIS/Include\cmsis_gcc.h ****   \details Returns the current value of the non-secure Main Stack Pointer Limit(MSPLIM) when in sec
 586:C:/Users/Utente/Desktop/Tesi/Firmware_Software/DAVE project/S2GLP_Pulsed_Doppler/Libraries/CMSIS/Include\cmsis_gcc.h ****   \return               MSPLIM Register value
 587:C:/Users/Utente/Desktop/Tesi/Firmware_Software/DAVE project/S2GLP_Pulsed_Doppler/Libraries/CMSIS/Include\cmsis_gcc.h ****  */
 588:C:/Users/Utente/Desktop/Tesi/Firmware_Software/DAVE project/S2GLP_Pulsed_Doppler/Libraries/CMSIS/Include\cmsis_gcc.h **** __attribute__((always_inline)) __STATIC_INLINE uint32_t __TZ_get_MSPLIM_NS(void)
 589:C:/Users/Utente/Desktop/Tesi/Firmware_Software/DAVE project/S2GLP_Pulsed_Doppler/Libraries/CMSIS/Include\cmsis_gcc.h **** {
 590:C:/Users/Utente/Desktop/Tesi/Firmware_Software/DAVE project/S2GLP_Pulsed_Doppler/Libraries/CMSIS/Include\cmsis_gcc.h ****   register uint32_t result;
 591:C:/Users/Utente/Desktop/Tesi/Firmware_Software/DAVE project/S2GLP_Pulsed_Doppler/Libraries/CMSIS/Include\cmsis_gcc.h **** 
 592:C:/Users/Utente/Desktop/Tesi/Firmware_Software/DAVE project/S2GLP_Pulsed_Doppler/Libraries/CMSIS/Include\cmsis_gcc.h ****   __ASM volatile ("MRS %0, msplim_ns" : "=r" (result) );
 593:C:/Users/Utente/Desktop/Tesi/Firmware_Software/DAVE project/S2GLP_Pulsed_Doppler/Libraries/CMSIS/Include\cmsis_gcc.h ****   return(result);
 594:C:/Users/Utente/Desktop/Tesi/Firmware_Software/DAVE project/S2GLP_Pulsed_Doppler/Libraries/CMSIS/Include\cmsis_gcc.h **** }
 595:C:/Users/Utente/Desktop/Tesi/Firmware_Software/DAVE project/S2GLP_Pulsed_Doppler/Libraries/CMSIS/Include\cmsis_gcc.h **** #endif
 596:C:/Users/Utente/Desktop/Tesi/Firmware_Software/DAVE project/S2GLP_Pulsed_Doppler/Libraries/CMSIS/Include\cmsis_gcc.h **** 
 597:C:/Users/Utente/Desktop/Tesi/Firmware_Software/DAVE project/S2GLP_Pulsed_Doppler/Libraries/CMSIS/Include\cmsis_gcc.h **** 
 598:C:/Users/Utente/Desktop/Tesi/Firmware_Software/DAVE project/S2GLP_Pulsed_Doppler/Libraries/CMSIS/Include\cmsis_gcc.h **** /**
 599:C:/Users/Utente/Desktop/Tesi/Firmware_Software/DAVE project/S2GLP_Pulsed_Doppler/Libraries/CMSIS/Include\cmsis_gcc.h ****   \brief   Set Main Stack Pointer Limit
 600:C:/Users/Utente/Desktop/Tesi/Firmware_Software/DAVE project/S2GLP_Pulsed_Doppler/Libraries/CMSIS/Include\cmsis_gcc.h ****   \details Assigns the given value to the Main Stack Pointer Limit (MSPLIM).
 601:C:/Users/Utente/Desktop/Tesi/Firmware_Software/DAVE project/S2GLP_Pulsed_Doppler/Libraries/CMSIS/Include\cmsis_gcc.h ****   \param [in]    MainStackPtrLimit  Main Stack Pointer Limit value to set
 602:C:/Users/Utente/Desktop/Tesi/Firmware_Software/DAVE project/S2GLP_Pulsed_Doppler/Libraries/CMSIS/Include\cmsis_gcc.h ****  */
 603:C:/Users/Utente/Desktop/Tesi/Firmware_Software/DAVE project/S2GLP_Pulsed_Doppler/Libraries/CMSIS/Include\cmsis_gcc.h **** __attribute__((always_inline)) __STATIC_INLINE void __set_MSPLIM(uint32_t MainStackPtrLimit)
 604:C:/Users/Utente/Desktop/Tesi/Firmware_Software/DAVE project/S2GLP_Pulsed_Doppler/Libraries/CMSIS/Include\cmsis_gcc.h **** {
 605:C:/Users/Utente/Desktop/Tesi/Firmware_Software/DAVE project/S2GLP_Pulsed_Doppler/Libraries/CMSIS/Include\cmsis_gcc.h ****   __ASM volatile ("MSR msplim, %0" : : "r" (MainStackPtrLimit));
 606:C:/Users/Utente/Desktop/Tesi/Firmware_Software/DAVE project/S2GLP_Pulsed_Doppler/Libraries/CMSIS/Include\cmsis_gcc.h **** }
 607:C:/Users/Utente/Desktop/Tesi/Firmware_Software/DAVE project/S2GLP_Pulsed_Doppler/Libraries/CMSIS/Include\cmsis_gcc.h **** 
 608:C:/Users/Utente/Desktop/Tesi/Firmware_Software/DAVE project/S2GLP_Pulsed_Doppler/Libraries/CMSIS/Include\cmsis_gcc.h **** 
 609:C:/Users/Utente/Desktop/Tesi/Firmware_Software/DAVE project/S2GLP_Pulsed_Doppler/Libraries/CMSIS/Include\cmsis_gcc.h **** #if ((defined (__ARM_FEATURE_CMSE  ) && (__ARM_FEATURE_CMSE   == 3)) && \
 610:C:/Users/Utente/Desktop/Tesi/Firmware_Software/DAVE project/S2GLP_Pulsed_Doppler/Libraries/CMSIS/Include\cmsis_gcc.h ****      (defined (__ARM_ARCH_8M_MAIN__) && (__ARM_ARCH_8M_MAIN__ == 1))    )
 611:C:/Users/Utente/Desktop/Tesi/Firmware_Software/DAVE project/S2GLP_Pulsed_Doppler/Libraries/CMSIS/Include\cmsis_gcc.h **** /**
 612:C:/Users/Utente/Desktop/Tesi/Firmware_Software/DAVE project/S2GLP_Pulsed_Doppler/Libraries/CMSIS/Include\cmsis_gcc.h ****   \brief   Set Main Stack Pointer Limit (non-secure)
 613:C:/Users/Utente/Desktop/Tesi/Firmware_Software/DAVE project/S2GLP_Pulsed_Doppler/Libraries/CMSIS/Include\cmsis_gcc.h ****   \details Assigns the given value to the non-secure Main Stack Pointer Limit (MSPLIM) when in secu
 614:C:/Users/Utente/Desktop/Tesi/Firmware_Software/DAVE project/S2GLP_Pulsed_Doppler/Libraries/CMSIS/Include\cmsis_gcc.h ****   \param [in]    MainStackPtrLimit  Main Stack Pointer value to set
 615:C:/Users/Utente/Desktop/Tesi/Firmware_Software/DAVE project/S2GLP_Pulsed_Doppler/Libraries/CMSIS/Include\cmsis_gcc.h ****  */
 616:C:/Users/Utente/Desktop/Tesi/Firmware_Software/DAVE project/S2GLP_Pulsed_Doppler/Libraries/CMSIS/Include\cmsis_gcc.h **** __attribute__((always_inline)) __STATIC_INLINE void __TZ_set_MSPLIM_NS(uint32_t MainStackPtrLimit)
 617:C:/Users/Utente/Desktop/Tesi/Firmware_Software/DAVE project/S2GLP_Pulsed_Doppler/Libraries/CMSIS/Include\cmsis_gcc.h **** {
 618:C:/Users/Utente/Desktop/Tesi/Firmware_Software/DAVE project/S2GLP_Pulsed_Doppler/Libraries/CMSIS/Include\cmsis_gcc.h ****   __ASM volatile ("MSR msplim_ns, %0" : : "r" (MainStackPtrLimit));
 619:C:/Users/Utente/Desktop/Tesi/Firmware_Software/DAVE project/S2GLP_Pulsed_Doppler/Libraries/CMSIS/Include\cmsis_gcc.h **** }
 620:C:/Users/Utente/Desktop/Tesi/Firmware_Software/DAVE project/S2GLP_Pulsed_Doppler/Libraries/CMSIS/Include\cmsis_gcc.h **** #endif
 621:C:/Users/Utente/Desktop/Tesi/Firmware_Software/DAVE project/S2GLP_Pulsed_Doppler/Libraries/CMSIS/Include\cmsis_gcc.h **** 
 622:C:/Users/Utente/Desktop/Tesi/Firmware_Software/DAVE project/S2GLP_Pulsed_Doppler/Libraries/CMSIS/Include\cmsis_gcc.h **** #endif /* ((defined (__ARM_ARCH_8M_MAIN__ ) && (__ARM_ARCH_8M_MAIN__ == 1)) || \
 623:C:/Users/Utente/Desktop/Tesi/Firmware_Software/DAVE project/S2GLP_Pulsed_Doppler/Libraries/CMSIS/Include\cmsis_gcc.h ****            (defined (__ARM_ARCH_8M_BASE__ ) && (__ARM_ARCH_8M_BASE__ == 1))    ) */
 624:C:/Users/Utente/Desktop/Tesi/Firmware_Software/DAVE project/S2GLP_Pulsed_Doppler/Libraries/CMSIS/Include\cmsis_gcc.h **** 
 625:C:/Users/Utente/Desktop/Tesi/Firmware_Software/DAVE project/S2GLP_Pulsed_Doppler/Libraries/CMSIS/Include\cmsis_gcc.h **** 
 626:C:/Users/Utente/Desktop/Tesi/Firmware_Software/DAVE project/S2GLP_Pulsed_Doppler/Libraries/CMSIS/Include\cmsis_gcc.h **** #if ((defined (__ARM_ARCH_7EM__     ) && (__ARM_ARCH_7EM__     == 1)) || \
 627:C:/Users/Utente/Desktop/Tesi/Firmware_Software/DAVE project/S2GLP_Pulsed_Doppler/Libraries/CMSIS/Include\cmsis_gcc.h ****      (defined (__ARM_ARCH_8M_MAIN__ ) && (__ARM_ARCH_8M_MAIN__ == 1))    )
 628:C:/Users/Utente/Desktop/Tesi/Firmware_Software/DAVE project/S2GLP_Pulsed_Doppler/Libraries/CMSIS/Include\cmsis_gcc.h **** 
 629:C:/Users/Utente/Desktop/Tesi/Firmware_Software/DAVE project/S2GLP_Pulsed_Doppler/Libraries/CMSIS/Include\cmsis_gcc.h **** /**
 630:C:/Users/Utente/Desktop/Tesi/Firmware_Software/DAVE project/S2GLP_Pulsed_Doppler/Libraries/CMSIS/Include\cmsis_gcc.h ****   \brief   Get FPSCR
 631:C:/Users/Utente/Desktop/Tesi/Firmware_Software/DAVE project/S2GLP_Pulsed_Doppler/Libraries/CMSIS/Include\cmsis_gcc.h ****   \details Returns the current value of the Floating Point Status/Control register.
 632:C:/Users/Utente/Desktop/Tesi/Firmware_Software/DAVE project/S2GLP_Pulsed_Doppler/Libraries/CMSIS/Include\cmsis_gcc.h ****   \return               Floating Point Status/Control register value
 633:C:/Users/Utente/Desktop/Tesi/Firmware_Software/DAVE project/S2GLP_Pulsed_Doppler/Libraries/CMSIS/Include\cmsis_gcc.h ****  */
 634:C:/Users/Utente/Desktop/Tesi/Firmware_Software/DAVE project/S2GLP_Pulsed_Doppler/Libraries/CMSIS/Include\cmsis_gcc.h **** __attribute__((always_inline)) __STATIC_INLINE uint32_t __get_FPSCR(void)
 635:C:/Users/Utente/Desktop/Tesi/Firmware_Software/DAVE project/S2GLP_Pulsed_Doppler/Libraries/CMSIS/Include\cmsis_gcc.h **** {
 636:C:/Users/Utente/Desktop/Tesi/Firmware_Software/DAVE project/S2GLP_Pulsed_Doppler/Libraries/CMSIS/Include\cmsis_gcc.h **** #if ((defined (__FPU_PRESENT) && (__FPU_PRESENT == 1U)) && \
 637:C:/Users/Utente/Desktop/Tesi/Firmware_Software/DAVE project/S2GLP_Pulsed_Doppler/Libraries/CMSIS/Include\cmsis_gcc.h ****      (defined (__FPU_USED   ) && (__FPU_USED    == 1U))     )
 638:C:/Users/Utente/Desktop/Tesi/Firmware_Software/DAVE project/S2GLP_Pulsed_Doppler/Libraries/CMSIS/Include\cmsis_gcc.h ****   uint32_t result;
 639:C:/Users/Utente/Desktop/Tesi/Firmware_Software/DAVE project/S2GLP_Pulsed_Doppler/Libraries/CMSIS/Include\cmsis_gcc.h **** 
 640:C:/Users/Utente/Desktop/Tesi/Firmware_Software/DAVE project/S2GLP_Pulsed_Doppler/Libraries/CMSIS/Include\cmsis_gcc.h ****   __ASM volatile ("VMRS %0, fpscr" : "=r" (result) );
 641:C:/Users/Utente/Desktop/Tesi/Firmware_Software/DAVE project/S2GLP_Pulsed_Doppler/Libraries/CMSIS/Include\cmsis_gcc.h ****   return(result);
 642:C:/Users/Utente/Desktop/Tesi/Firmware_Software/DAVE project/S2GLP_Pulsed_Doppler/Libraries/CMSIS/Include\cmsis_gcc.h **** #else
 643:C:/Users/Utente/Desktop/Tesi/Firmware_Software/DAVE project/S2GLP_Pulsed_Doppler/Libraries/CMSIS/Include\cmsis_gcc.h ****    return(0U);
 644:C:/Users/Utente/Desktop/Tesi/Firmware_Software/DAVE project/S2GLP_Pulsed_Doppler/Libraries/CMSIS/Include\cmsis_gcc.h **** #endif
 645:C:/Users/Utente/Desktop/Tesi/Firmware_Software/DAVE project/S2GLP_Pulsed_Doppler/Libraries/CMSIS/Include\cmsis_gcc.h **** }
 646:C:/Users/Utente/Desktop/Tesi/Firmware_Software/DAVE project/S2GLP_Pulsed_Doppler/Libraries/CMSIS/Include\cmsis_gcc.h **** 
 647:C:/Users/Utente/Desktop/Tesi/Firmware_Software/DAVE project/S2GLP_Pulsed_Doppler/Libraries/CMSIS/Include\cmsis_gcc.h **** 
 648:C:/Users/Utente/Desktop/Tesi/Firmware_Software/DAVE project/S2GLP_Pulsed_Doppler/Libraries/CMSIS/Include\cmsis_gcc.h **** /**
 649:C:/Users/Utente/Desktop/Tesi/Firmware_Software/DAVE project/S2GLP_Pulsed_Doppler/Libraries/CMSIS/Include\cmsis_gcc.h ****   \brief   Set FPSCR
 650:C:/Users/Utente/Desktop/Tesi/Firmware_Software/DAVE project/S2GLP_Pulsed_Doppler/Libraries/CMSIS/Include\cmsis_gcc.h ****   \details Assigns the given value to the Floating Point Status/Control register.
 651:C:/Users/Utente/Desktop/Tesi/Firmware_Software/DAVE project/S2GLP_Pulsed_Doppler/Libraries/CMSIS/Include\cmsis_gcc.h ****   \param [in]    fpscr  Floating Point Status/Control value to set
 652:C:/Users/Utente/Desktop/Tesi/Firmware_Software/DAVE project/S2GLP_Pulsed_Doppler/Libraries/CMSIS/Include\cmsis_gcc.h ****  */
 653:C:/Users/Utente/Desktop/Tesi/Firmware_Software/DAVE project/S2GLP_Pulsed_Doppler/Libraries/CMSIS/Include\cmsis_gcc.h **** __attribute__((always_inline)) __STATIC_INLINE void __set_FPSCR(uint32_t fpscr)
 654:C:/Users/Utente/Desktop/Tesi/Firmware_Software/DAVE project/S2GLP_Pulsed_Doppler/Libraries/CMSIS/Include\cmsis_gcc.h **** {
 655:C:/Users/Utente/Desktop/Tesi/Firmware_Software/DAVE project/S2GLP_Pulsed_Doppler/Libraries/CMSIS/Include\cmsis_gcc.h **** #if ((defined (__FPU_PRESENT) && (__FPU_PRESENT == 1U)) && \
 656:C:/Users/Utente/Desktop/Tesi/Firmware_Software/DAVE project/S2GLP_Pulsed_Doppler/Libraries/CMSIS/Include\cmsis_gcc.h ****      (defined (__FPU_USED   ) && (__FPU_USED    == 1U))     )
 657:C:/Users/Utente/Desktop/Tesi/Firmware_Software/DAVE project/S2GLP_Pulsed_Doppler/Libraries/CMSIS/Include\cmsis_gcc.h ****   __ASM volatile ("VMSR fpscr, %0" : : "r" (fpscr) : "vfpcc", "memory");
 658:C:/Users/Utente/Desktop/Tesi/Firmware_Software/DAVE project/S2GLP_Pulsed_Doppler/Libraries/CMSIS/Include\cmsis_gcc.h **** #else
 659:C:/Users/Utente/Desktop/Tesi/Firmware_Software/DAVE project/S2GLP_Pulsed_Doppler/Libraries/CMSIS/Include\cmsis_gcc.h ****   (void)fpscr;
 660:C:/Users/Utente/Desktop/Tesi/Firmware_Software/DAVE project/S2GLP_Pulsed_Doppler/Libraries/CMSIS/Include\cmsis_gcc.h **** #endif
 661:C:/Users/Utente/Desktop/Tesi/Firmware_Software/DAVE project/S2GLP_Pulsed_Doppler/Libraries/CMSIS/Include\cmsis_gcc.h **** }
 662:C:/Users/Utente/Desktop/Tesi/Firmware_Software/DAVE project/S2GLP_Pulsed_Doppler/Libraries/CMSIS/Include\cmsis_gcc.h **** 
 663:C:/Users/Utente/Desktop/Tesi/Firmware_Software/DAVE project/S2GLP_Pulsed_Doppler/Libraries/CMSIS/Include\cmsis_gcc.h **** #endif /* ((defined (__ARM_ARCH_7EM__     ) && (__ARM_ARCH_7EM__     == 1)) || \
 664:C:/Users/Utente/Desktop/Tesi/Firmware_Software/DAVE project/S2GLP_Pulsed_Doppler/Libraries/CMSIS/Include\cmsis_gcc.h ****            (defined (__ARM_ARCH_8M_MAIN__ ) && (__ARM_ARCH_8M_MAIN__ == 1))    ) */
 665:C:/Users/Utente/Desktop/Tesi/Firmware_Software/DAVE project/S2GLP_Pulsed_Doppler/Libraries/CMSIS/Include\cmsis_gcc.h **** 
 666:C:/Users/Utente/Desktop/Tesi/Firmware_Software/DAVE project/S2GLP_Pulsed_Doppler/Libraries/CMSIS/Include\cmsis_gcc.h **** 
 667:C:/Users/Utente/Desktop/Tesi/Firmware_Software/DAVE project/S2GLP_Pulsed_Doppler/Libraries/CMSIS/Include\cmsis_gcc.h **** 
 668:C:/Users/Utente/Desktop/Tesi/Firmware_Software/DAVE project/S2GLP_Pulsed_Doppler/Libraries/CMSIS/Include\cmsis_gcc.h **** /*@} end of CMSIS_Core_RegAccFunctions */
 669:C:/Users/Utente/Desktop/Tesi/Firmware_Software/DAVE project/S2GLP_Pulsed_Doppler/Libraries/CMSIS/Include\cmsis_gcc.h **** 
 670:C:/Users/Utente/Desktop/Tesi/Firmware_Software/DAVE project/S2GLP_Pulsed_Doppler/Libraries/CMSIS/Include\cmsis_gcc.h **** 
 671:C:/Users/Utente/Desktop/Tesi/Firmware_Software/DAVE project/S2GLP_Pulsed_Doppler/Libraries/CMSIS/Include\cmsis_gcc.h **** /* ##########################  Core Instruction Access  ######################### */
 672:C:/Users/Utente/Desktop/Tesi/Firmware_Software/DAVE project/S2GLP_Pulsed_Doppler/Libraries/CMSIS/Include\cmsis_gcc.h **** /** \defgroup CMSIS_Core_InstructionInterface CMSIS Core Instruction Interface
 673:C:/Users/Utente/Desktop/Tesi/Firmware_Software/DAVE project/S2GLP_Pulsed_Doppler/Libraries/CMSIS/Include\cmsis_gcc.h ****   Access to dedicated instructions
 674:C:/Users/Utente/Desktop/Tesi/Firmware_Software/DAVE project/S2GLP_Pulsed_Doppler/Libraries/CMSIS/Include\cmsis_gcc.h ****   @{
 675:C:/Users/Utente/Desktop/Tesi/Firmware_Software/DAVE project/S2GLP_Pulsed_Doppler/Libraries/CMSIS/Include\cmsis_gcc.h **** */
 676:C:/Users/Utente/Desktop/Tesi/Firmware_Software/DAVE project/S2GLP_Pulsed_Doppler/Libraries/CMSIS/Include\cmsis_gcc.h **** 
 677:C:/Users/Utente/Desktop/Tesi/Firmware_Software/DAVE project/S2GLP_Pulsed_Doppler/Libraries/CMSIS/Include\cmsis_gcc.h **** /* Define macros for porting to both thumb1 and thumb2.
 678:C:/Users/Utente/Desktop/Tesi/Firmware_Software/DAVE project/S2GLP_Pulsed_Doppler/Libraries/CMSIS/Include\cmsis_gcc.h ****  * For thumb1, use low register (r0-r7), specified by constraint "l"
 679:C:/Users/Utente/Desktop/Tesi/Firmware_Software/DAVE project/S2GLP_Pulsed_Doppler/Libraries/CMSIS/Include\cmsis_gcc.h ****  * Otherwise, use general registers, specified by constraint "r" */
 680:C:/Users/Utente/Desktop/Tesi/Firmware_Software/DAVE project/S2GLP_Pulsed_Doppler/Libraries/CMSIS/Include\cmsis_gcc.h **** #if defined (__thumb__) && !defined (__thumb2__)
 681:C:/Users/Utente/Desktop/Tesi/Firmware_Software/DAVE project/S2GLP_Pulsed_Doppler/Libraries/CMSIS/Include\cmsis_gcc.h **** #define __CMSIS_GCC_OUT_REG(r) "=l" (r)
 682:C:/Users/Utente/Desktop/Tesi/Firmware_Software/DAVE project/S2GLP_Pulsed_Doppler/Libraries/CMSIS/Include\cmsis_gcc.h **** #define __CMSIS_GCC_RW_REG(r) "+l" (r)
 683:C:/Users/Utente/Desktop/Tesi/Firmware_Software/DAVE project/S2GLP_Pulsed_Doppler/Libraries/CMSIS/Include\cmsis_gcc.h **** #define __CMSIS_GCC_USE_REG(r) "l" (r)
 684:C:/Users/Utente/Desktop/Tesi/Firmware_Software/DAVE project/S2GLP_Pulsed_Doppler/Libraries/CMSIS/Include\cmsis_gcc.h **** #else
 685:C:/Users/Utente/Desktop/Tesi/Firmware_Software/DAVE project/S2GLP_Pulsed_Doppler/Libraries/CMSIS/Include\cmsis_gcc.h **** #define __CMSIS_GCC_OUT_REG(r) "=r" (r)
 686:C:/Users/Utente/Desktop/Tesi/Firmware_Software/DAVE project/S2GLP_Pulsed_Doppler/Libraries/CMSIS/Include\cmsis_gcc.h **** #define __CMSIS_GCC_RW_REG(r) "+r" (r)
 687:C:/Users/Utente/Desktop/Tesi/Firmware_Software/DAVE project/S2GLP_Pulsed_Doppler/Libraries/CMSIS/Include\cmsis_gcc.h **** #define __CMSIS_GCC_USE_REG(r) "r" (r)
 688:C:/Users/Utente/Desktop/Tesi/Firmware_Software/DAVE project/S2GLP_Pulsed_Doppler/Libraries/CMSIS/Include\cmsis_gcc.h **** #endif
 689:C:/Users/Utente/Desktop/Tesi/Firmware_Software/DAVE project/S2GLP_Pulsed_Doppler/Libraries/CMSIS/Include\cmsis_gcc.h **** 
 690:C:/Users/Utente/Desktop/Tesi/Firmware_Software/DAVE project/S2GLP_Pulsed_Doppler/Libraries/CMSIS/Include\cmsis_gcc.h **** /**
 691:C:/Users/Utente/Desktop/Tesi/Firmware_Software/DAVE project/S2GLP_Pulsed_Doppler/Libraries/CMSIS/Include\cmsis_gcc.h ****   \brief   No Operation
 692:C:/Users/Utente/Desktop/Tesi/Firmware_Software/DAVE project/S2GLP_Pulsed_Doppler/Libraries/CMSIS/Include\cmsis_gcc.h ****   \details No Operation does nothing. This instruction can be used for code alignment purposes.
 693:C:/Users/Utente/Desktop/Tesi/Firmware_Software/DAVE project/S2GLP_Pulsed_Doppler/Libraries/CMSIS/Include\cmsis_gcc.h ****  */
 694:C:/Users/Utente/Desktop/Tesi/Firmware_Software/DAVE project/S2GLP_Pulsed_Doppler/Libraries/CMSIS/Include\cmsis_gcc.h **** //__attribute__((always_inline)) __STATIC_INLINE void __NOP(void)
 695:C:/Users/Utente/Desktop/Tesi/Firmware_Software/DAVE project/S2GLP_Pulsed_Doppler/Libraries/CMSIS/Include\cmsis_gcc.h **** //{
 696:C:/Users/Utente/Desktop/Tesi/Firmware_Software/DAVE project/S2GLP_Pulsed_Doppler/Libraries/CMSIS/Include\cmsis_gcc.h **** //  __ASM volatile ("nop");
 697:C:/Users/Utente/Desktop/Tesi/Firmware_Software/DAVE project/S2GLP_Pulsed_Doppler/Libraries/CMSIS/Include\cmsis_gcc.h **** //}
 698:C:/Users/Utente/Desktop/Tesi/Firmware_Software/DAVE project/S2GLP_Pulsed_Doppler/Libraries/CMSIS/Include\cmsis_gcc.h **** #define __NOP()                             __ASM volatile ("nop")       /* This implementation gen
 699:C:/Users/Utente/Desktop/Tesi/Firmware_Software/DAVE project/S2GLP_Pulsed_Doppler/Libraries/CMSIS/Include\cmsis_gcc.h **** 
 700:C:/Users/Utente/Desktop/Tesi/Firmware_Software/DAVE project/S2GLP_Pulsed_Doppler/Libraries/CMSIS/Include\cmsis_gcc.h **** /**
 701:C:/Users/Utente/Desktop/Tesi/Firmware_Software/DAVE project/S2GLP_Pulsed_Doppler/Libraries/CMSIS/Include\cmsis_gcc.h ****   \brief   Wait For Interrupt
 702:C:/Users/Utente/Desktop/Tesi/Firmware_Software/DAVE project/S2GLP_Pulsed_Doppler/Libraries/CMSIS/Include\cmsis_gcc.h ****   \details Wait For Interrupt is a hint instruction that suspends execution until one of a number o
 703:C:/Users/Utente/Desktop/Tesi/Firmware_Software/DAVE project/S2GLP_Pulsed_Doppler/Libraries/CMSIS/Include\cmsis_gcc.h ****  */
 704:C:/Users/Utente/Desktop/Tesi/Firmware_Software/DAVE project/S2GLP_Pulsed_Doppler/Libraries/CMSIS/Include\cmsis_gcc.h **** //__attribute__((always_inline)) __STATIC_INLINE void __WFI(void)
 705:C:/Users/Utente/Desktop/Tesi/Firmware_Software/DAVE project/S2GLP_Pulsed_Doppler/Libraries/CMSIS/Include\cmsis_gcc.h **** //{
 706:C:/Users/Utente/Desktop/Tesi/Firmware_Software/DAVE project/S2GLP_Pulsed_Doppler/Libraries/CMSIS/Include\cmsis_gcc.h **** //  __ASM volatile ("wfi");
 707:C:/Users/Utente/Desktop/Tesi/Firmware_Software/DAVE project/S2GLP_Pulsed_Doppler/Libraries/CMSIS/Include\cmsis_gcc.h **** //}
 708:C:/Users/Utente/Desktop/Tesi/Firmware_Software/DAVE project/S2GLP_Pulsed_Doppler/Libraries/CMSIS/Include\cmsis_gcc.h **** #define __WFI()                             __ASM volatile ("wfi")       /* This implementation gen
 709:C:/Users/Utente/Desktop/Tesi/Firmware_Software/DAVE project/S2GLP_Pulsed_Doppler/Libraries/CMSIS/Include\cmsis_gcc.h **** 
 710:C:/Users/Utente/Desktop/Tesi/Firmware_Software/DAVE project/S2GLP_Pulsed_Doppler/Libraries/CMSIS/Include\cmsis_gcc.h **** 
 711:C:/Users/Utente/Desktop/Tesi/Firmware_Software/DAVE project/S2GLP_Pulsed_Doppler/Libraries/CMSIS/Include\cmsis_gcc.h **** /**
 712:C:/Users/Utente/Desktop/Tesi/Firmware_Software/DAVE project/S2GLP_Pulsed_Doppler/Libraries/CMSIS/Include\cmsis_gcc.h ****   \brief   Wait For Event
 713:C:/Users/Utente/Desktop/Tesi/Firmware_Software/DAVE project/S2GLP_Pulsed_Doppler/Libraries/CMSIS/Include\cmsis_gcc.h ****   \details Wait For Event is a hint instruction that permits the processor to enter
 714:C:/Users/Utente/Desktop/Tesi/Firmware_Software/DAVE project/S2GLP_Pulsed_Doppler/Libraries/CMSIS/Include\cmsis_gcc.h ****            a low-power state until one of a number of events occurs.
 715:C:/Users/Utente/Desktop/Tesi/Firmware_Software/DAVE project/S2GLP_Pulsed_Doppler/Libraries/CMSIS/Include\cmsis_gcc.h ****  */
 716:C:/Users/Utente/Desktop/Tesi/Firmware_Software/DAVE project/S2GLP_Pulsed_Doppler/Libraries/CMSIS/Include\cmsis_gcc.h **** //__attribute__((always_inline)) __STATIC_INLINE void __WFE(void)
 717:C:/Users/Utente/Desktop/Tesi/Firmware_Software/DAVE project/S2GLP_Pulsed_Doppler/Libraries/CMSIS/Include\cmsis_gcc.h **** //{
 718:C:/Users/Utente/Desktop/Tesi/Firmware_Software/DAVE project/S2GLP_Pulsed_Doppler/Libraries/CMSIS/Include\cmsis_gcc.h **** //  __ASM volatile ("wfe");
 719:C:/Users/Utente/Desktop/Tesi/Firmware_Software/DAVE project/S2GLP_Pulsed_Doppler/Libraries/CMSIS/Include\cmsis_gcc.h **** //}
 720:C:/Users/Utente/Desktop/Tesi/Firmware_Software/DAVE project/S2GLP_Pulsed_Doppler/Libraries/CMSIS/Include\cmsis_gcc.h **** #define __WFE()                             __ASM volatile ("wfe")       /* This implementation gen
 721:C:/Users/Utente/Desktop/Tesi/Firmware_Software/DAVE project/S2GLP_Pulsed_Doppler/Libraries/CMSIS/Include\cmsis_gcc.h **** 
 722:C:/Users/Utente/Desktop/Tesi/Firmware_Software/DAVE project/S2GLP_Pulsed_Doppler/Libraries/CMSIS/Include\cmsis_gcc.h **** 
 723:C:/Users/Utente/Desktop/Tesi/Firmware_Software/DAVE project/S2GLP_Pulsed_Doppler/Libraries/CMSIS/Include\cmsis_gcc.h **** /**
 724:C:/Users/Utente/Desktop/Tesi/Firmware_Software/DAVE project/S2GLP_Pulsed_Doppler/Libraries/CMSIS/Include\cmsis_gcc.h ****   \brief   Send Event
 725:C:/Users/Utente/Desktop/Tesi/Firmware_Software/DAVE project/S2GLP_Pulsed_Doppler/Libraries/CMSIS/Include\cmsis_gcc.h ****   \details Send Event is a hint instruction. It causes an event to be signaled to the CPU.
 726:C:/Users/Utente/Desktop/Tesi/Firmware_Software/DAVE project/S2GLP_Pulsed_Doppler/Libraries/CMSIS/Include\cmsis_gcc.h ****  */
 727:C:/Users/Utente/Desktop/Tesi/Firmware_Software/DAVE project/S2GLP_Pulsed_Doppler/Libraries/CMSIS/Include\cmsis_gcc.h **** //__attribute__((always_inline)) __STATIC_INLINE void __SEV(void)
 728:C:/Users/Utente/Desktop/Tesi/Firmware_Software/DAVE project/S2GLP_Pulsed_Doppler/Libraries/CMSIS/Include\cmsis_gcc.h **** //{
 729:C:/Users/Utente/Desktop/Tesi/Firmware_Software/DAVE project/S2GLP_Pulsed_Doppler/Libraries/CMSIS/Include\cmsis_gcc.h **** //  __ASM volatile ("sev");
 730:C:/Users/Utente/Desktop/Tesi/Firmware_Software/DAVE project/S2GLP_Pulsed_Doppler/Libraries/CMSIS/Include\cmsis_gcc.h **** //}
 731:C:/Users/Utente/Desktop/Tesi/Firmware_Software/DAVE project/S2GLP_Pulsed_Doppler/Libraries/CMSIS/Include\cmsis_gcc.h **** #define __SEV()                             __ASM volatile ("sev")       /* This implementation gen
 732:C:/Users/Utente/Desktop/Tesi/Firmware_Software/DAVE project/S2GLP_Pulsed_Doppler/Libraries/CMSIS/Include\cmsis_gcc.h **** 
 733:C:/Users/Utente/Desktop/Tesi/Firmware_Software/DAVE project/S2GLP_Pulsed_Doppler/Libraries/CMSIS/Include\cmsis_gcc.h **** 
 734:C:/Users/Utente/Desktop/Tesi/Firmware_Software/DAVE project/S2GLP_Pulsed_Doppler/Libraries/CMSIS/Include\cmsis_gcc.h **** /**
 735:C:/Users/Utente/Desktop/Tesi/Firmware_Software/DAVE project/S2GLP_Pulsed_Doppler/Libraries/CMSIS/Include\cmsis_gcc.h ****   \brief   Instruction Synchronization Barrier
 736:C:/Users/Utente/Desktop/Tesi/Firmware_Software/DAVE project/S2GLP_Pulsed_Doppler/Libraries/CMSIS/Include\cmsis_gcc.h ****   \details Instruction Synchronization Barrier flushes the pipeline in the processor,
 737:C:/Users/Utente/Desktop/Tesi/Firmware_Software/DAVE project/S2GLP_Pulsed_Doppler/Libraries/CMSIS/Include\cmsis_gcc.h ****            so that all instructions following the ISB are fetched from cache or memory,
 738:C:/Users/Utente/Desktop/Tesi/Firmware_Software/DAVE project/S2GLP_Pulsed_Doppler/Libraries/CMSIS/Include\cmsis_gcc.h ****            after the instruction has been completed.
 739:C:/Users/Utente/Desktop/Tesi/Firmware_Software/DAVE project/S2GLP_Pulsed_Doppler/Libraries/CMSIS/Include\cmsis_gcc.h ****  */
 740:C:/Users/Utente/Desktop/Tesi/Firmware_Software/DAVE project/S2GLP_Pulsed_Doppler/Libraries/CMSIS/Include\cmsis_gcc.h **** __attribute__((always_inline)) __STATIC_INLINE void __ISB(void)
 741:C:/Users/Utente/Desktop/Tesi/Firmware_Software/DAVE project/S2GLP_Pulsed_Doppler/Libraries/CMSIS/Include\cmsis_gcc.h **** {
 742:C:/Users/Utente/Desktop/Tesi/Firmware_Software/DAVE project/S2GLP_Pulsed_Doppler/Libraries/CMSIS/Include\cmsis_gcc.h ****   __ASM volatile ("isb 0xF":::"memory");
 743:C:/Users/Utente/Desktop/Tesi/Firmware_Software/DAVE project/S2GLP_Pulsed_Doppler/Libraries/CMSIS/Include\cmsis_gcc.h **** }
 744:C:/Users/Utente/Desktop/Tesi/Firmware_Software/DAVE project/S2GLP_Pulsed_Doppler/Libraries/CMSIS/Include\cmsis_gcc.h **** 
 745:C:/Users/Utente/Desktop/Tesi/Firmware_Software/DAVE project/S2GLP_Pulsed_Doppler/Libraries/CMSIS/Include\cmsis_gcc.h **** 
 746:C:/Users/Utente/Desktop/Tesi/Firmware_Software/DAVE project/S2GLP_Pulsed_Doppler/Libraries/CMSIS/Include\cmsis_gcc.h **** /**
 747:C:/Users/Utente/Desktop/Tesi/Firmware_Software/DAVE project/S2GLP_Pulsed_Doppler/Libraries/CMSIS/Include\cmsis_gcc.h ****   \brief   Data Synchronization Barrier
 748:C:/Users/Utente/Desktop/Tesi/Firmware_Software/DAVE project/S2GLP_Pulsed_Doppler/Libraries/CMSIS/Include\cmsis_gcc.h ****   \details Acts as a special kind of Data Memory Barrier.
 749:C:/Users/Utente/Desktop/Tesi/Firmware_Software/DAVE project/S2GLP_Pulsed_Doppler/Libraries/CMSIS/Include\cmsis_gcc.h ****            It completes when all explicit memory accesses before this instruction complete.
 750:C:/Users/Utente/Desktop/Tesi/Firmware_Software/DAVE project/S2GLP_Pulsed_Doppler/Libraries/CMSIS/Include\cmsis_gcc.h ****  */
 751:C:/Users/Utente/Desktop/Tesi/Firmware_Software/DAVE project/S2GLP_Pulsed_Doppler/Libraries/CMSIS/Include\cmsis_gcc.h **** __attribute__((always_inline)) __STATIC_INLINE void __DSB(void)
 752:C:/Users/Utente/Desktop/Tesi/Firmware_Software/DAVE project/S2GLP_Pulsed_Doppler/Libraries/CMSIS/Include\cmsis_gcc.h **** {
 753:C:/Users/Utente/Desktop/Tesi/Firmware_Software/DAVE project/S2GLP_Pulsed_Doppler/Libraries/CMSIS/Include\cmsis_gcc.h ****   __ASM volatile ("dsb 0xF":::"memory");
  49              	 .loc 2 753 0
  50              	
  51 0008 BFF34F8F 	 dsb 0xF
  52              	
  53              	 .thumb
  54              	.LBE25:
  55              	.LBE24:
  56              	.LBB26:
  57              	.LBB27:
  85:C:/Users/Utente/Desktop/Tesi/Firmware_Software/DAVE project/S2GLP_Pulsed_Doppler/Libraries/CMSIS/Include\cmsis_gcc.h **** }
  58              	 .loc 2 85 0
  59              	
  60 000c 62B6     	 cpsie i
  61              	
  62              	 .thumb
  63              	.LBE27:
  64              	.LBE26:
 403:../Startup/system_XMC4700.c ****   __DSB();
 404:../Startup/system_XMC4700.c ****   __enable_irq();
 405:../Startup/system_XMC4700.c ****     
 406:../Startup/system_XMC4700.c **** #if ((__FPU_PRESENT == 1) && (__FPU_USED == 1))
 407:../Startup/system_XMC4700.c ****   SCB->CPACR |= ((3UL << 10*2) |                 /* set CP10 Full Access */
  65              	 .loc 1 407 0
  66 000e D3F88820 	 ldr r2,[r3,#136]
 408:../Startup/system_XMC4700.c ****                  (3UL << 11*2)  );               /* set CP11 Full Access */
 409:../Startup/system_XMC4700.c **** #endif
 410:../Startup/system_XMC4700.c **** 
 411:../Startup/system_XMC4700.c ****   /* Enable unaligned memory access - SCB_CCR.UNALIGN_TRP = 0 */
 412:../Startup/system_XMC4700.c ****   SCB->CCR &= ~(SCB_CCR_UNALIGN_TRP_Msk);
 413:../Startup/system_XMC4700.c **** 
 414:../Startup/system_XMC4700.c ****   temp = FLASH0->FCON;
  67              	 .loc 1 414 0
  68 0012 0B48     	 ldr r0,.L2+8
 407:../Startup/system_XMC4700.c ****                  (3UL << 11*2)  );               /* set CP11 Full Access */
  69              	 .loc 1 407 0
  70 0014 42F47002 	 orr r2,r2,#15728640
  71 0018 C3F88820 	 str r2,[r3,#136]
 412:../Startup/system_XMC4700.c **** 
  72              	 .loc 1 412 0
  73 001c 5A69     	 ldr r2,[r3,#20]
  74              	 .loc 1 414 0
  75 001e 41F21401 	 movw r1,#4116
 412:../Startup/system_XMC4700.c **** 
  76              	 .loc 1 412 0
  77 0022 22F00802 	 bic r2,r2,#8
  78 0026 5A61     	 str r2,[r3,#20]
  79              	 .loc 1 414 0
  80 0028 4358     	 ldr r3,[r0,r1]
  81              	.LVL0:
 415:../Startup/system_XMC4700.c ****   temp &= ~FLASH_FCON_WSPFLASH_Msk;
  82              	 .loc 1 415 0
  83 002a 23F00F03 	 bic r3,r3,#15
  84              	.LVL1:
 416:../Startup/system_XMC4700.c ****   temp |= PMU_FLASH_WS;
  85              	 .loc 1 416 0
  86 002e 43F00403 	 orr r3,r3,#4
  87              	.LVL2:
 417:../Startup/system_XMC4700.c ****   FLASH0->FCON = temp;
  88              	 .loc 1 417 0
  89 0032 4350     	 str r3,[r0,r1]
  90 0034 7047     	 bx lr
  91              	.L3:
  92 0036 00BF     	 .align 2
  93              	.L2:
  94 0038 00ED00E0 	 .word -536810240
  95 003c 00000000 	 .word __Vectors
  96 0040 00100058 	 .word 1476399104
  97              	 .cfi_endproc
  98              	.LFE125:
 100              	 .section .text.OSCHP_GetFrequency,"ax",%progbits
 101              	 .align 2
 102              	 .weak OSCHP_GetFrequency
 103              	 .thumb
 104              	 .thumb_func
 106              	OSCHP_GetFrequency:
 107              	.LFB128:
 418:../Startup/system_XMC4700.c **** }
 419:../Startup/system_XMC4700.c **** 
 420:../Startup/system_XMC4700.c **** __WEAK void SystemCoreClockSetup(void)
 421:../Startup/system_XMC4700.c **** {
 422:../Startup/system_XMC4700.c **** #if FOFI_CALIBRATION_MODE == FOFI_CALIBRATION_MODE_FACTORY
 423:../Startup/system_XMC4700.c ****   /* Enable factory calibration */
 424:../Startup/system_XMC4700.c ****   SCU_PLL->PLLCON0 |= SCU_PLL_PLLCON0_FOTR_Msk;
 425:../Startup/system_XMC4700.c **** #else
 426:../Startup/system_XMC4700.c ****   /* Automatic calibration uses the fSTDBY */
 427:../Startup/system_XMC4700.c **** 
 428:../Startup/system_XMC4700.c ****   /* Enable HIB domain */
 429:../Startup/system_XMC4700.c ****   /* Power up HIB domain if and only if it is currently powered down */
 430:../Startup/system_XMC4700.c ****   if((SCU_POWER->PWRSTAT & SCU_POWER_PWRSTAT_HIBEN_Msk) == 0)
 431:../Startup/system_XMC4700.c ****   {
 432:../Startup/system_XMC4700.c ****     SCU_POWER->PWRSET |= SCU_POWER_PWRSET_HIB_Msk;
 433:../Startup/system_XMC4700.c **** 
 434:../Startup/system_XMC4700.c ****     while((SCU_POWER->PWRSTAT & SCU_POWER_PWRSTAT_HIBEN_Msk) == 0)
 435:../Startup/system_XMC4700.c ****     {
 436:../Startup/system_XMC4700.c ****       /* wait until HIB domain is enabled */
 437:../Startup/system_XMC4700.c ****     }
 438:../Startup/system_XMC4700.c ****   }
 439:../Startup/system_XMC4700.c **** 
 440:../Startup/system_XMC4700.c ****   /* Remove the reset only if HIB domain were in a state of reset */
 441:../Startup/system_XMC4700.c ****   if((SCU_RESET->RSTSTAT) & SCU_RESET_RSTSTAT_HIBRS_Msk)
 442:../Startup/system_XMC4700.c ****   {
 443:../Startup/system_XMC4700.c ****     SCU_RESET->RSTCLR |= SCU_RESET_RSTCLR_HIBRS_Msk;
 444:../Startup/system_XMC4700.c ****     delay(DELAY_CNT_150US_50MHZ);
 445:../Startup/system_XMC4700.c ****   }
 446:../Startup/system_XMC4700.c ****   
 447:../Startup/system_XMC4700.c **** #if STDBY_CLOCK_SRC == STDBY_CLOCK_SRC_OSCULP
 448:../Startup/system_XMC4700.c ****   /* Enable OSC_ULP */
 449:../Startup/system_XMC4700.c ****   if ((SCU_HIBERNATE->OSCULCTRL & SCU_HIBERNATE_OSCULCTRL_MODE_Msk) != 0UL)
 450:../Startup/system_XMC4700.c ****   {
 451:../Startup/system_XMC4700.c ****     /*enable OSC_ULP*/
 452:../Startup/system_XMC4700.c ****     while (SCU_GENERAL->MIRRSTS & SCU_GENERAL_MIRRSTS_OSCULCTRL_Msk)
 453:../Startup/system_XMC4700.c ****     {
 454:../Startup/system_XMC4700.c ****       /* check SCU_MIRRSTS to ensure that no transfer over serial interface is pending */
 455:../Startup/system_XMC4700.c ****     }
 456:../Startup/system_XMC4700.c ****     SCU_HIBERNATE->OSCULCTRL &= ~SCU_HIBERNATE_OSCULCTRL_MODE_Msk;
 457:../Startup/system_XMC4700.c **** 
 458:../Startup/system_XMC4700.c ****     /* Check if the clock is OK using OSCULP Oscillator Watchdog*/
 459:../Startup/system_XMC4700.c ****     while (SCU_GENERAL->MIRRSTS & SCU_GENERAL_MIRRSTS_HDCR_Msk)
 460:../Startup/system_XMC4700.c ****     {
 461:../Startup/system_XMC4700.c ****       /* check SCU_MIRRSTS to ensure that no transfer over serial interface is pending */
 462:../Startup/system_XMC4700.c ****     }
 463:../Startup/system_XMC4700.c ****     SCU_HIBERNATE->HDCR |= SCU_HIBERNATE_HDCR_ULPWDGEN_Msk;
 464:../Startup/system_XMC4700.c **** 
 465:../Startup/system_XMC4700.c ****     /* wait till clock is stable */
 466:../Startup/system_XMC4700.c ****     do
 467:../Startup/system_XMC4700.c ****     {
 468:../Startup/system_XMC4700.c ****       while (SCU_GENERAL->MIRRSTS & SCU_GENERAL_MIRRSTS_HDCLR_Msk)
 469:../Startup/system_XMC4700.c ****       {
 470:../Startup/system_XMC4700.c ****         /* check SCU_MIRRSTS to ensure that no transfer over serial interface is pending */
 471:../Startup/system_XMC4700.c ****       }
 472:../Startup/system_XMC4700.c ****       SCU_HIBERNATE->HDCLR |= SCU_HIBERNATE_HDCLR_ULPWDG_Msk;
 473:../Startup/system_XMC4700.c **** 
 474:../Startup/system_XMC4700.c ****       delay(DELAY_CNT_50US_50MHZ);
 475:../Startup/system_XMC4700.c **** 
 476:../Startup/system_XMC4700.c ****     } while ((SCU_HIBERNATE->HDSTAT & SCU_HIBERNATE_HDSTAT_ULPWDG_Msk) != 0UL);
 477:../Startup/system_XMC4700.c **** 
 478:../Startup/system_XMC4700.c ****   }
 479:../Startup/system_XMC4700.c **** 
 480:../Startup/system_XMC4700.c ****   /* now OSC_ULP is running and can be used*/
 481:../Startup/system_XMC4700.c ****   /* Select OSC_ULP as the clock source for RTC and STDBY*/
 482:../Startup/system_XMC4700.c ****   while (SCU_GENERAL->MIRRSTS & SCU_GENERAL_MIRRSTS_HDCR_Msk)
 483:../Startup/system_XMC4700.c ****   {
 484:../Startup/system_XMC4700.c ****     /* check SCU_MIRRSTS to ensure that no transfer over serial interface is pending */
 485:../Startup/system_XMC4700.c ****   }
 486:../Startup/system_XMC4700.c ****   SCU_HIBERNATE->HDCR |= SCU_HIBERNATE_HDCR_RCS_Msk | SCU_HIBERNATE_HDCR_STDBYSEL_Msk;
 487:../Startup/system_XMC4700.c **** #endif /* STDBY_CLOCK_SRC == STDBY_CLOCK_SRC_OSCULP */
 488:../Startup/system_XMC4700.c **** 
 489:../Startup/system_XMC4700.c ****   /* Enable automatic calibration of internal fast oscillator */
 490:../Startup/system_XMC4700.c ****   SCU_PLL->PLLCON0 |= SCU_PLL_PLLCON0_AOTREN_Msk;
 491:../Startup/system_XMC4700.c **** #endif /* FOFI_CALIBRATION_MODE == FOFI_CALIBRATION_MODE_AUTOMATIC */
 492:../Startup/system_XMC4700.c **** 
 493:../Startup/system_XMC4700.c ****   delay(DELAY_CNT_50US_50MHZ);
 494:../Startup/system_XMC4700.c **** 
 495:../Startup/system_XMC4700.c **** #if ENABLE_PLL
 496:../Startup/system_XMC4700.c **** 
 497:../Startup/system_XMC4700.c ****   /* enable PLL */
 498:../Startup/system_XMC4700.c ****   SCU_PLL->PLLCON0 &= ~(SCU_PLL_PLLCON0_VCOPWD_Msk | SCU_PLL_PLLCON0_PLLPWD_Msk);
 499:../Startup/system_XMC4700.c **** 
 500:../Startup/system_XMC4700.c **** #if PLL_CLOCK_SRC != PLL_CLOCK_SRC_OFI
 501:../Startup/system_XMC4700.c ****   /* enable OSC_HP */
 502:../Startup/system_XMC4700.c ****   if ((SCU_OSC->OSCHPCTRL & SCU_OSC_OSCHPCTRL_MODE_Msk) != 0U)
 503:../Startup/system_XMC4700.c ****   {
 504:../Startup/system_XMC4700.c ****     SCU_OSC->OSCHPCTRL &= ~(SCU_OSC_OSCHPCTRL_MODE_Msk | SCU_OSC_OSCHPCTRL_OSCVAL_Msk);
 505:../Startup/system_XMC4700.c ****     SCU_OSC->OSCHPCTRL |= ((OSCHP_GetFrequency() / FOSCREF) - 1UL) << SCU_OSC_OSCHPCTRL_OSCVAL_Pos;
 506:../Startup/system_XMC4700.c **** 
 507:../Startup/system_XMC4700.c ****     /* select OSC_HP clock as PLL input */
 508:../Startup/system_XMC4700.c ****     SCU_PLL->PLLCON2 &= ~SCU_PLL_PLLCON2_PINSEL_Msk;
 509:../Startup/system_XMC4700.c **** 
 510:../Startup/system_XMC4700.c ****     /* restart OSC Watchdog */
 511:../Startup/system_XMC4700.c ****     SCU_PLL->PLLCON0 &= ~SCU_PLL_PLLCON0_OSCRES_Msk;
 512:../Startup/system_XMC4700.c **** 
 513:../Startup/system_XMC4700.c ****     while ((SCU_PLL->PLLSTAT & SCU_PLL_PLLSTAT_OSC_USABLE) != SCU_PLL_PLLSTAT_OSC_USABLE)
 514:../Startup/system_XMC4700.c ****     {
 515:../Startup/system_XMC4700.c ****       /* wait till OSC_HP output frequency is usable */
 516:../Startup/system_XMC4700.c ****     }   
 517:../Startup/system_XMC4700.c ****   }
 518:../Startup/system_XMC4700.c **** #else /* PLL_CLOCK_SRC != PLL_CLOCK_SRC_OFI */
 519:../Startup/system_XMC4700.c **** 
 520:../Startup/system_XMC4700.c ****   /* select backup clock as PLL input */
 521:../Startup/system_XMC4700.c ****   SCU_PLL->PLLCON2 |= SCU_PLL_PLLCON2_PINSEL_Msk;
 522:../Startup/system_XMC4700.c **** #endif
 523:../Startup/system_XMC4700.c **** 
 524:../Startup/system_XMC4700.c ****   /* Go to bypass the Main PLL */
 525:../Startup/system_XMC4700.c ****   SCU_PLL->PLLCON0 |= SCU_PLL_PLLCON0_VCOBYP_Msk;
 526:../Startup/system_XMC4700.c **** 
 527:../Startup/system_XMC4700.c ****   /* disconnect Oscillator from PLL */
 528:../Startup/system_XMC4700.c ****   SCU_PLL->PLLCON0 |= SCU_PLL_PLLCON0_FINDIS_Msk;
 529:../Startup/system_XMC4700.c **** 
 530:../Startup/system_XMC4700.c ****   /* Setup divider settings for main PLL */
 531:../Startup/system_XMC4700.c ****   SCU_PLL->PLLCON1 = ((PLL_NDIV << SCU_PLL_PLLCON1_NDIV_Pos) |
 532:../Startup/system_XMC4700.c ****                       (PLL_K2DIV_24MHZ << SCU_PLL_PLLCON1_K2DIV_Pos) |
 533:../Startup/system_XMC4700.c ****                       (PLL_PDIV << SCU_PLL_PLLCON1_PDIV_Pos));
 534:../Startup/system_XMC4700.c **** 
 535:../Startup/system_XMC4700.c ****   /* Set OSCDISCDIS */
 536:../Startup/system_XMC4700.c ****   SCU_PLL->PLLCON0 |= SCU_PLL_PLLCON0_OSCDISCDIS_Msk;
 537:../Startup/system_XMC4700.c **** 
 538:../Startup/system_XMC4700.c ****   /* connect Oscillator to PLL */
 539:../Startup/system_XMC4700.c ****   SCU_PLL->PLLCON0 &= ~SCU_PLL_PLLCON0_FINDIS_Msk;
 540:../Startup/system_XMC4700.c **** 
 541:../Startup/system_XMC4700.c ****   /* restart PLL Lock detection */
 542:../Startup/system_XMC4700.c ****   SCU_PLL->PLLCON0 |= SCU_PLL_PLLCON0_RESLD_Msk;
 543:../Startup/system_XMC4700.c **** 
 544:../Startup/system_XMC4700.c ****   while ((SCU_PLL->PLLSTAT & SCU_PLL_PLLSTAT_VCOLOCK_Msk) == 0U)
 545:../Startup/system_XMC4700.c ****   {
 546:../Startup/system_XMC4700.c ****     /* wait for PLL Lock at 24MHz*/
 547:../Startup/system_XMC4700.c ****   }
 548:../Startup/system_XMC4700.c **** 
 549:../Startup/system_XMC4700.c ****   /* Disable bypass- put PLL clock back */
 550:../Startup/system_XMC4700.c ****   SCU_PLL->PLLCON0 &= ~SCU_PLL_PLLCON0_VCOBYP_Msk;
 551:../Startup/system_XMC4700.c ****   while ((SCU_PLL->PLLSTAT & SCU_PLL_PLLSTAT_VCOBYST_Msk) != 0U)
 552:../Startup/system_XMC4700.c ****   {
 553:../Startup/system_XMC4700.c ****     /* wait for normal mode */
 554:../Startup/system_XMC4700.c ****   } 
 555:../Startup/system_XMC4700.c **** #endif /* ENABLE_PLL */
 556:../Startup/system_XMC4700.c **** 
 557:../Startup/system_XMC4700.c ****   /* Before scaling to final frequency we need to setup the clock dividers */
 558:../Startup/system_XMC4700.c ****   SCU_CLK->SYSCLKCR = __SYSCLKCR;
 559:../Startup/system_XMC4700.c ****   SCU_CLK->PBCLKCR = __PBCLKCR;
 560:../Startup/system_XMC4700.c ****   SCU_CLK->CPUCLKCR = __CPUCLKCR;
 561:../Startup/system_XMC4700.c ****   SCU_CLK->CCUCLKCR = __CCUCLKCR;
 562:../Startup/system_XMC4700.c ****   SCU_CLK->WDTCLKCR = __WDTCLKCR;
 563:../Startup/system_XMC4700.c ****   SCU_CLK->EBUCLKCR = __EBUCLKCR;
 564:../Startup/system_XMC4700.c ****   SCU_CLK->USBCLKCR = __USBCLKCR | USB_DIV;
 565:../Startup/system_XMC4700.c ****   SCU_CLK->EXTCLKCR = __EXTCLKCR;
 566:../Startup/system_XMC4700.c **** 
 567:../Startup/system_XMC4700.c **** #if ENABLE_PLL
 568:../Startup/system_XMC4700.c ****   /* PLL frequency stepping...*/
 569:../Startup/system_XMC4700.c ****   /* Reset OSCDISCDIS */
 570:../Startup/system_XMC4700.c ****   SCU_PLL->PLLCON0 &= ~SCU_PLL_PLLCON0_OSCDISCDIS_Msk;
 571:../Startup/system_XMC4700.c ****   
 572:../Startup/system_XMC4700.c ****   SCU_PLL->PLLCON1 = ((PLL_NDIV << SCU_PLL_PLLCON1_NDIV_Pos) |
 573:../Startup/system_XMC4700.c **** 	                  (PLL_K2DIV_48MHZ << SCU_PLL_PLLCON1_K2DIV_Pos) |
 574:../Startup/system_XMC4700.c **** 	                  (PLL_PDIV << SCU_PLL_PLLCON1_PDIV_Pos));
 575:../Startup/system_XMC4700.c **** 
 576:../Startup/system_XMC4700.c ****   delay(DELAY_CNT_50US_48MHZ);
 577:../Startup/system_XMC4700.c **** 
 578:../Startup/system_XMC4700.c ****   SCU_PLL->PLLCON1 = ((PLL_NDIV << SCU_PLL_PLLCON1_NDIV_Pos) |
 579:../Startup/system_XMC4700.c **** 	                  (PLL_K2DIV_72MHZ << SCU_PLL_PLLCON1_K2DIV_Pos) |
 580:../Startup/system_XMC4700.c **** 	                  (PLL_PDIV << SCU_PLL_PLLCON1_PDIV_Pos));
 581:../Startup/system_XMC4700.c **** 
 582:../Startup/system_XMC4700.c ****   delay(DELAY_CNT_50US_72MHZ);
 583:../Startup/system_XMC4700.c **** 
 584:../Startup/system_XMC4700.c ****   SCU_PLL->PLLCON1 = ((PLL_NDIV << SCU_PLL_PLLCON1_NDIV_Pos) |
 585:../Startup/system_XMC4700.c **** 	                  (PLL_K2DIV_96MHZ << SCU_PLL_PLLCON1_K2DIV_Pos) |
 586:../Startup/system_XMC4700.c **** 	                  (PLL_PDIV << SCU_PLL_PLLCON1_PDIV_Pos));
 587:../Startup/system_XMC4700.c **** 
 588:../Startup/system_XMC4700.c ****   delay(DELAY_CNT_50US_96MHZ);
 589:../Startup/system_XMC4700.c **** 
 590:../Startup/system_XMC4700.c ****   SCU_PLL->PLLCON1 = ((PLL_NDIV << SCU_PLL_PLLCON1_NDIV_Pos) |
 591:../Startup/system_XMC4700.c **** 	                  (PLL_K2DIV_120MHZ << SCU_PLL_PLLCON1_K2DIV_Pos) |
 592:../Startup/system_XMC4700.c **** 	                  (PLL_PDIV << SCU_PLL_PLLCON1_PDIV_Pos));
 593:../Startup/system_XMC4700.c **** 
 594:../Startup/system_XMC4700.c ****   delay(DELAY_CNT_50US_120MHZ);
 595:../Startup/system_XMC4700.c **** 
 596:../Startup/system_XMC4700.c ****   SCU_PLL->PLLCON1 = ((PLL_NDIV << SCU_PLL_PLLCON1_NDIV_Pos) |
 597:../Startup/system_XMC4700.c **** 	                  (PLL_K2DIV << SCU_PLL_PLLCON1_K2DIV_Pos) |
 598:../Startup/system_XMC4700.c **** 	                  (PLL_PDIV << SCU_PLL_PLLCON1_PDIV_Pos));
 599:../Startup/system_XMC4700.c **** 
 600:../Startup/system_XMC4700.c ****   delay(DELAY_CNT_50US_144MHZ);
 601:../Startup/system_XMC4700.c ****   
 602:../Startup/system_XMC4700.c **** #endif /* ENABLE_PLL */
 603:../Startup/system_XMC4700.c **** 
 604:../Startup/system_XMC4700.c **** #if ENABLE_USBPLL
 605:../Startup/system_XMC4700.c ****   /* enable USB PLL first */
 606:../Startup/system_XMC4700.c ****   SCU_PLL->USBPLLCON &= ~(SCU_PLL_USBPLLCON_VCOPWD_Msk | SCU_PLL_USBPLLCON_PLLPWD_Msk);
 607:../Startup/system_XMC4700.c **** 
 608:../Startup/system_XMC4700.c ****   /* USB PLL uses as clock input the OSC_HP */
 609:../Startup/system_XMC4700.c ****   /* check and if not already running enable OSC_HP */
 610:../Startup/system_XMC4700.c ****   if ((SCU_OSC->OSCHPCTRL & SCU_OSC_OSCHPCTRL_MODE_Msk) != 0U)
 611:../Startup/system_XMC4700.c ****   {
 612:../Startup/system_XMC4700.c ****     /* check if Main PLL is switched on for OSC WDG*/
 613:../Startup/system_XMC4700.c ****     if ((SCU_PLL->PLLCON0 &(SCU_PLL_PLLCON0_VCOPWD_Msk | SCU_PLL_PLLCON0_PLLPWD_Msk)) != 0UL)
 614:../Startup/system_XMC4700.c ****     {
 615:../Startup/system_XMC4700.c ****       /* enable PLL first */
 616:../Startup/system_XMC4700.c ****       SCU_PLL->PLLCON0 &= ~(SCU_PLL_PLLCON0_VCOPWD_Msk | SCU_PLL_PLLCON0_PLLPWD_Msk);
 617:../Startup/system_XMC4700.c ****     }
 618:../Startup/system_XMC4700.c **** 
 619:../Startup/system_XMC4700.c ****     SCU_OSC->OSCHPCTRL &= ~(SCU_OSC_OSCHPCTRL_MODE_Msk | SCU_OSC_OSCHPCTRL_OSCVAL_Msk);
 620:../Startup/system_XMC4700.c ****     SCU_OSC->OSCHPCTRL |= ((OSCHP_GetFrequency() / FOSCREF) - 1UL) << SCU_OSC_OSCHPCTRL_OSCVAL_Pos;
 621:../Startup/system_XMC4700.c **** 
 622:../Startup/system_XMC4700.c ****     /* restart OSC Watchdog */
 623:../Startup/system_XMC4700.c ****     SCU_PLL->PLLCON0 &= ~SCU_PLL_PLLCON0_OSCRES_Msk;
 624:../Startup/system_XMC4700.c **** 
 625:../Startup/system_XMC4700.c ****     while ((SCU_PLL->PLLSTAT & SCU_PLL_PLLSTAT_OSC_USABLE) != SCU_PLL_PLLSTAT_OSC_USABLE)
 626:../Startup/system_XMC4700.c ****     {
 627:../Startup/system_XMC4700.c ****       /* wait till OSC_HP output frequency is usable */
 628:../Startup/system_XMC4700.c ****     }
 629:../Startup/system_XMC4700.c ****   }
 630:../Startup/system_XMC4700.c **** 
 631:../Startup/system_XMC4700.c **** 
 632:../Startup/system_XMC4700.c ****   /* Setup USB PLL */
 633:../Startup/system_XMC4700.c ****   /* Go to bypass the USB PLL */
 634:../Startup/system_XMC4700.c ****   SCU_PLL->USBPLLCON |= SCU_PLL_USBPLLCON_VCOBYP_Msk;
 635:../Startup/system_XMC4700.c **** 
 636:../Startup/system_XMC4700.c ****   /* disconnect Oscillator from USB PLL */
 637:../Startup/system_XMC4700.c ****   SCU_PLL->USBPLLCON |= SCU_PLL_USBPLLCON_FINDIS_Msk;
 638:../Startup/system_XMC4700.c **** 
 639:../Startup/system_XMC4700.c ****   /* Setup Divider settings for USB PLL */
 640:../Startup/system_XMC4700.c ****   SCU_PLL->USBPLLCON = ((USB_NDIV << SCU_PLL_USBPLLCON_NDIV_Pos) |
 641:../Startup/system_XMC4700.c ****                         (USB_PDIV << SCU_PLL_USBPLLCON_PDIV_Pos));
 642:../Startup/system_XMC4700.c **** 
 643:../Startup/system_XMC4700.c ****   /* Set OSCDISCDIS */
 644:../Startup/system_XMC4700.c ****   SCU_PLL->USBPLLCON |= SCU_PLL_USBPLLCON_OSCDISCDIS_Msk;
 645:../Startup/system_XMC4700.c **** 
 646:../Startup/system_XMC4700.c ****   /* connect Oscillator to USB PLL */
 647:../Startup/system_XMC4700.c ****   SCU_PLL->USBPLLCON &= ~SCU_PLL_USBPLLCON_FINDIS_Msk;
 648:../Startup/system_XMC4700.c **** 
 649:../Startup/system_XMC4700.c ****   /* restart PLL Lock detection */
 650:../Startup/system_XMC4700.c ****   SCU_PLL->USBPLLCON |= SCU_PLL_USBPLLCON_RESLD_Msk;
 651:../Startup/system_XMC4700.c **** 
 652:../Startup/system_XMC4700.c ****   while ((SCU_PLL->USBPLLSTAT & SCU_PLL_USBPLLSTAT_VCOLOCK_Msk) == 0U)
 653:../Startup/system_XMC4700.c ****   {
 654:../Startup/system_XMC4700.c ****     /* wait for PLL Lock */
 655:../Startup/system_XMC4700.c ****   }  
 656:../Startup/system_XMC4700.c **** #endif
 657:../Startup/system_XMC4700.c **** 
 658:../Startup/system_XMC4700.c **** 
 659:../Startup/system_XMC4700.c ****   /* Enable selected clocks */
 660:../Startup/system_XMC4700.c ****   SCU_CLK->CLKSET = __CLKSET;
 661:../Startup/system_XMC4700.c **** 
 662:../Startup/system_XMC4700.c **** #if __EXTCLKPIN != 0
 663:../Startup/system_XMC4700.c **** #if __EXTCLKPIN == EXTCLK_PIN_P1_15
 664:../Startup/system_XMC4700.c ****   /* P1.15 */
 665:../Startup/system_XMC4700.c ****   PORT1->PDR1 &= ~PORT1_PDR1_PD15_Msk;
 666:../Startup/system_XMC4700.c ****   PORT1->IOCR12 = (PORT1->IOCR12 & ~PORT0_IOCR12_PC15_Msk) | (0x11U << PORT0_IOCR12_PC15_Pos);
 667:../Startup/system_XMC4700.c **** #else
 668:../Startup/system_XMC4700.c ****   /* P0.8 */
 669:../Startup/system_XMC4700.c ****   PORT0->HWSEL &= ~PORT0_HWSEL_HW8_Msk;
 670:../Startup/system_XMC4700.c ****   PORT0->PDR1 &= ~PORT0_PDR1_PD8_Msk;
 671:../Startup/system_XMC4700.c ****   PORT0->IOCR8 = (PORT0->IOCR8 & ~PORT0_IOCR8_PC8_Msk) | (0x11U << PORT0_IOCR8_PC8_Pos);
 672:../Startup/system_XMC4700.c **** #endif
 673:../Startup/system_XMC4700.c **** #endif  /* ENABLE_EXTCLK == 1  */
 674:../Startup/system_XMC4700.c **** 
 675:../Startup/system_XMC4700.c ****   SystemCoreClockUpdate();
 676:../Startup/system_XMC4700.c **** }
 677:../Startup/system_XMC4700.c **** 
 678:../Startup/system_XMC4700.c **** __WEAK void SystemCoreClockUpdate(void)
 679:../Startup/system_XMC4700.c **** {
 680:../Startup/system_XMC4700.c ****   uint32_t pdiv;
 681:../Startup/system_XMC4700.c ****   uint32_t ndiv;
 682:../Startup/system_XMC4700.c ****   uint32_t kdiv;
 683:../Startup/system_XMC4700.c ****   uint32_t temp;
 684:../Startup/system_XMC4700.c **** 
 685:../Startup/system_XMC4700.c ****   if (SCU_CLK->SYSCLKCR & SCU_CLK_SYSCLKCR_SYSSEL_Msk)
 686:../Startup/system_XMC4700.c ****   {
 687:../Startup/system_XMC4700.c ****     /* fPLL is clock source for fSYS */
 688:../Startup/system_XMC4700.c ****     if(SCU_PLL->PLLCON2 & SCU_PLL_PLLCON2_PINSEL_Msk)
 689:../Startup/system_XMC4700.c ****     {
 690:../Startup/system_XMC4700.c ****       /* PLL input clock is the backup clock (fOFI) */
 691:../Startup/system_XMC4700.c ****       temp = OFI_FREQUENCY;
 692:../Startup/system_XMC4700.c ****     }
 693:../Startup/system_XMC4700.c ****     else
 694:../Startup/system_XMC4700.c ****     {
 695:../Startup/system_XMC4700.c ****       /* PLL input clock is the high performance osicllator (fOSCHP) */
 696:../Startup/system_XMC4700.c ****       temp = OSCHP_GetFrequency();
 697:../Startup/system_XMC4700.c ****     }
 698:../Startup/system_XMC4700.c **** 
 699:../Startup/system_XMC4700.c ****     /* check if PLL is locked */
 700:../Startup/system_XMC4700.c ****     if (SCU_PLL->PLLSTAT & SCU_PLL_PLLSTAT_VCOLOCK_Msk)
 701:../Startup/system_XMC4700.c ****     {
 702:../Startup/system_XMC4700.c ****       /* PLL normal mode */
 703:../Startup/system_XMC4700.c ****       /* read back divider settings */
 704:../Startup/system_XMC4700.c ****       pdiv = ((SCU_PLL->PLLCON1 & SCU_PLL_PLLCON1_PDIV_Msk) >> SCU_PLL_PLLCON1_PDIV_Pos) + 1;
 705:../Startup/system_XMC4700.c ****       ndiv = ((SCU_PLL->PLLCON1 & SCU_PLL_PLLCON1_NDIV_Msk) >> SCU_PLL_PLLCON1_NDIV_Pos) + 1;
 706:../Startup/system_XMC4700.c ****       kdiv = ((SCU_PLL->PLLCON1 & SCU_PLL_PLLCON1_K2DIV_Msk) >> SCU_PLL_PLLCON1_K2DIV_Pos) + 1;
 707:../Startup/system_XMC4700.c **** 
 708:../Startup/system_XMC4700.c ****       temp = (temp / (pdiv * kdiv)) * ndiv;
 709:../Startup/system_XMC4700.c ****     }
 710:../Startup/system_XMC4700.c ****     else
 711:../Startup/system_XMC4700.c ****     {
 712:../Startup/system_XMC4700.c ****       /* PLL prescalar mode */
 713:../Startup/system_XMC4700.c ****       /* read back divider settings */
 714:../Startup/system_XMC4700.c ****       kdiv  = ((SCU_PLL->PLLCON1 & SCU_PLL_PLLCON1_K1DIV_Msk) >> SCU_PLL_PLLCON1_K1DIV_Pos) + 1;
 715:../Startup/system_XMC4700.c ****       
 716:../Startup/system_XMC4700.c ****       temp = (temp / kdiv);
 717:../Startup/system_XMC4700.c ****     }
 718:../Startup/system_XMC4700.c ****   }
 719:../Startup/system_XMC4700.c ****   else
 720:../Startup/system_XMC4700.c ****   {
 721:../Startup/system_XMC4700.c ****     /* fOFI is clock source for fSYS */    
 722:../Startup/system_XMC4700.c ****     temp = OFI_FREQUENCY;
 723:../Startup/system_XMC4700.c ****   }
 724:../Startup/system_XMC4700.c **** 
 725:../Startup/system_XMC4700.c ****   temp = temp / ((SCU_CLK->SYSCLKCR & SCU_CLK_SYSCLKCR_SYSDIV_Msk) + 1);
 726:../Startup/system_XMC4700.c ****   temp = temp / ((SCU_CLK->CPUCLKCR & SCU_CLK_CPUCLKCR_CPUDIV_Msk) + 1);
 727:../Startup/system_XMC4700.c **** 
 728:../Startup/system_XMC4700.c ****   SystemCoreClock = temp;
 729:../Startup/system_XMC4700.c **** }
 730:../Startup/system_XMC4700.c **** 
 731:../Startup/system_XMC4700.c **** __WEAK uint32_t OSCHP_GetFrequency(void)
 732:../Startup/system_XMC4700.c **** {
 108              	 .loc 1 732 0
 109              	 .cfi_startproc
 110              	 
 111              	 
 112              	 
 733:../Startup/system_XMC4700.c ****   return OSCHP_FREQUENCY;
 734:../Startup/system_XMC4700.c **** }
 113              	 .loc 1 734 0
 114 0000 0048     	 ldr r0,.L5
 115 0002 7047     	 bx lr
 116              	.L6:
 117              	 .align 2
 118              	.L5:
 119 0004 001BB700 	 .word 12000000
 120              	 .cfi_endproc
 121              	.LFE128:
 123              	 .section .text.SystemCoreClockUpdate,"ax",%progbits
 124              	 .align 2
 125              	 .weak SystemCoreClockUpdate
 126              	 .thumb
 127              	 .thumb_func
 129              	SystemCoreClockUpdate:
 130              	.LFB127:
 679:../Startup/system_XMC4700.c ****   uint32_t pdiv;
 131              	 .loc 1 679 0
 132              	 .cfi_startproc
 133              	 
 134              	 
 685:../Startup/system_XMC4700.c ****   {
 135              	 .loc 1 685 0
 136 0000 1C4B     	 ldr r3,.L17
 137 0002 DB68     	 ldr r3,[r3,#12]
 138 0004 D903     	 lsls r1,r3,#15
 679:../Startup/system_XMC4700.c ****   uint32_t pdiv;
 139              	 .loc 1 679 0
 140 0006 10B5     	 push {r4,lr}
 141              	.LCFI0:
 142              	 .cfi_def_cfa_offset 8
 143              	 .cfi_offset 4,-8
 144              	 .cfi_offset 14,-4
 685:../Startup/system_XMC4700.c ****   {
 145              	 .loc 1 685 0
 146 0008 1DD5     	 bpl .L11
 688:../Startup/system_XMC4700.c ****     {
 147              	 .loc 1 688 0
 148 000a 1B4B     	 ldr r3,.L17+4
 149 000c DB68     	 ldr r3,[r3,#12]
 150 000e DA07     	 lsls r2,r3,#31
 151 0010 2CD5     	 bpl .L15
 691:../Startup/system_XMC4700.c ****     }
 152              	 .loc 1 691 0
 153 0012 1A48     	 ldr r0,.L17+8
 154              	.L9:
 155              	.LVL3:
 700:../Startup/system_XMC4700.c ****     {
 156              	 .loc 1 700 0
 157 0014 184A     	 ldr r2,.L17+4
 158 0016 1368     	 ldr r3,[r2]
 159 0018 5B07     	 lsls r3,r3,#29
 160 001a 16D4     	 bmi .L16
 714:../Startup/system_XMC4700.c ****       
 161              	 .loc 1 714 0
 162 001c 9368     	 ldr r3,[r2,#8]
 163              	.LVL4:
 164 001e 03F07F03 	 and r3,r3,#127
 165              	.LVL5:
 166 0022 0133     	 adds r3,r3,#1
 167              	.LVL6:
 716:../Startup/system_XMC4700.c ****     }
 168              	 .loc 1 716 0
 169 0024 B0FBF3F3 	 udiv r3,r0,r3
 170              	.LVL7:
 171              	.L8:
 725:../Startup/system_XMC4700.c ****   temp = temp / ((SCU_CLK->CPUCLKCR & SCU_CLK_CPUCLKCR_CPUDIV_Msk) + 1);
 172              	 .loc 1 725 0
 173 0028 124A     	 ldr r2,.L17
 728:../Startup/system_XMC4700.c **** }
 174              	 .loc 1 728 0
 175 002a 1549     	 ldr r1,.L17+12
 725:../Startup/system_XMC4700.c ****   temp = temp / ((SCU_CLK->CPUCLKCR & SCU_CLK_CPUCLKCR_CPUDIV_Msk) + 1);
 176              	 .loc 1 725 0
 177 002c D068     	 ldr r0,[r2,#12]
 726:../Startup/system_XMC4700.c **** 
 178              	 .loc 1 726 0
 179 002e 1269     	 ldr r2,[r2,#16]
 725:../Startup/system_XMC4700.c ****   temp = temp / ((SCU_CLK->CPUCLKCR & SCU_CLK_CPUCLKCR_CPUDIV_Msk) + 1);
 180              	 .loc 1 725 0
 181 0030 C0B2     	 uxtb r0,r0
 726:../Startup/system_XMC4700.c **** 
 182              	 .loc 1 726 0
 183 0032 02F00102 	 and r2,r2,#1
 725:../Startup/system_XMC4700.c ****   temp = temp / ((SCU_CLK->CPUCLKCR & SCU_CLK_CPUCLKCR_CPUDIV_Msk) + 1);
 184              	 .loc 1 725 0
 185 0036 0130     	 adds r0,r0,#1
 726:../Startup/system_XMC4700.c **** 
 186              	 .loc 1 726 0
 187 0038 0132     	 adds r2,r2,#1
 725:../Startup/system_XMC4700.c ****   temp = temp / ((SCU_CLK->CPUCLKCR & SCU_CLK_CPUCLKCR_CPUDIV_Msk) + 1);
 188              	 .loc 1 725 0
 189 003a B3FBF0F0 	 udiv r0,r3,r0
 190              	.LVL8:
 726:../Startup/system_XMC4700.c **** 
 191              	 .loc 1 726 0
 192 003e B0FBF2F0 	 udiv r0,r0,r2
 728:../Startup/system_XMC4700.c **** }
 193              	 .loc 1 728 0
 194 0042 0860     	 str r0,[r1]
 195 0044 10BD     	 pop {r4,pc}
 196              	.L11:
 722:../Startup/system_XMC4700.c ****   }
 197              	 .loc 1 722 0
 198 0046 0D4B     	 ldr r3,.L17+8
 199 0048 EEE7     	 b .L8
 200              	.LVL9:
 201              	.L16:
 704:../Startup/system_XMC4700.c ****       ndiv = ((SCU_PLL->PLLCON1 & SCU_PLL_PLLCON1_NDIV_Msk) >> SCU_PLL_PLLCON1_NDIV_Pos) + 1;
 202              	 .loc 1 704 0
 203 004a 9168     	 ldr r1,[r2,#8]
 204              	.LVL10:
 705:../Startup/system_XMC4700.c ****       kdiv = ((SCU_PLL->PLLCON1 & SCU_PLL_PLLCON1_K2DIV_Msk) >> SCU_PLL_PLLCON1_K2DIV_Pos) + 1;
 205              	 .loc 1 705 0
 206 004c 9368     	 ldr r3,[r2,#8]
 207              	.LVL11:
 706:../Startup/system_XMC4700.c **** 
 208              	 .loc 1 706 0
 209 004e 9468     	 ldr r4,[r2,#8]
 210              	.LVL12:
 704:../Startup/system_XMC4700.c ****       ndiv = ((SCU_PLL->PLLCON1 & SCU_PLL_PLLCON1_NDIV_Msk) >> SCU_PLL_PLLCON1_NDIV_Pos) + 1;
 211              	 .loc 1 704 0
 212 0050 C1F30362 	 ubfx r2,r1,#24,#4
 213 0054 0132     	 adds r2,r2,#1
 706:../Startup/system_XMC4700.c **** 
 214              	 .loc 1 706 0
 215 0056 C4F30641 	 ubfx r1,r4,#16,#7
 216              	.LVL13:
 705:../Startup/system_XMC4700.c ****       kdiv = ((SCU_PLL->PLLCON1 & SCU_PLL_PLLCON1_K2DIV_Msk) >> SCU_PLL_PLLCON1_K2DIV_Pos) + 1;
 217              	 .loc 1 705 0
 218 005a C3F30623 	 ubfx r3,r3,#8,#7
 219              	.LVL14:
 708:../Startup/system_XMC4700.c ****     }
 220              	 .loc 1 708 0
 221 005e 01FB0222 	 mla r2,r1,r2,r2
 222 0062 B0FBF2F0 	 udiv r0,r0,r2
 223              	.LVL15:
 224 0066 03FB0003 	 mla r3,r3,r0,r0
 225              	.LVL16:
 226 006a DDE7     	 b .L8
 227              	.LVL17:
 228              	.L15:
 696:../Startup/system_XMC4700.c ****     }
 229              	 .loc 1 696 0
 230 006c FFF7FEFF 	 bl OSCHP_GetFrequency
 231              	.LVL18:
 232 0070 D0E7     	 b .L9
 233              	.L18:
 234 0072 00BF     	 .align 2
 235              	.L17:
 236 0074 00460050 	 .word 1342195200
 237 0078 10470050 	 .word 1342195472
 238 007c 00366E01 	 .word 24000000
 239 0080 00000000 	 .word .LANCHOR0
 240              	 .cfi_endproc
 241              	.LFE127:
 243              	 .section .text.SystemCoreClockSetup,"ax",%progbits
 244              	 .align 2
 245              	 .weak SystemCoreClockSetup
 246              	 .thumb
 247              	 .thumb_func
 249              	SystemCoreClockSetup:
 250              	.LFB126:
 421:../Startup/system_XMC4700.c **** #if FOFI_CALIBRATION_MODE == FOFI_CALIBRATION_MODE_FACTORY
 251              	 .loc 1 421 0
 252              	 .cfi_startproc
 253              	 
 254              	 
 255 0000 F0B5     	 push {r4,r5,r6,r7,lr}
 256              	.LCFI1:
 257              	 .cfi_def_cfa_offset 20
 258              	 .cfi_offset 4,-20
 259              	 .cfi_offset 5,-16
 260              	 .cfi_offset 6,-12
 261              	 .cfi_offset 7,-8
 262              	 .cfi_offset 14,-4
 430:../Startup/system_XMC4700.c ****   {
 263              	 .loc 1 430 0
 264 0002 7A4A     	 ldr r2,.L67
 265 0004 1368     	 ldr r3,[r2]
 266 0006 DD07     	 lsls r5,r3,#31
 421:../Startup/system_XMC4700.c **** #if FOFI_CALIBRATION_MODE == FOFI_CALIBRATION_MODE_FACTORY
 267              	 .loc 1 421 0
 268 0008 89B0     	 sub sp,sp,#36
 269              	.LCFI2:
 270              	 .cfi_def_cfa_offset 56
 430:../Startup/system_XMC4700.c ****   {
 271              	 .loc 1 430 0
 272 000a 06D4     	 bmi .L24
 432:../Startup/system_XMC4700.c **** 
 273              	 .loc 1 432 0
 274 000c 5368     	 ldr r3,[r2,#4]
 275 000e 43F00103 	 orr r3,r3,#1
 276 0012 5360     	 str r3,[r2,#4]
 277              	.L23:
 434:../Startup/system_XMC4700.c ****     {
 278              	 .loc 1 434 0 discriminator 1
 279 0014 1368     	 ldr r3,[r2]
 280 0016 D807     	 lsls r0,r3,#31
 281 0018 FCD5     	 bpl .L23
 282              	.L24:
 441:../Startup/system_XMC4700.c ****   {
 283              	 .loc 1 441 0
 284 001a 754B     	 ldr r3,.L67+4
 285 001c 1A68     	 ldr r2,[r3]
 286 001e 9405     	 lsls r4,r2,#22
 287 0020 11D5     	 bpl .L22
 443:../Startup/system_XMC4700.c ****     delay(DELAY_CNT_150US_50MHZ);
 288              	 .loc 1 443 0
 289 0022 9A68     	 ldr r2,[r3,#8]
 290              	.LBB28:
 291              	.LBB29:
 378:../Startup/system_XMC4700.c ****   {
 292              	 .loc 1 378 0
 293 0024 0021     	 movs r1,#0
 294              	.LBE29:
 295              	.LBE28:
 443:../Startup/system_XMC4700.c ****     delay(DELAY_CNT_150US_50MHZ);
 296              	 .loc 1 443 0
 297 0026 42F40072 	 orr r2,r2,#512
 298 002a 9A60     	 str r2,[r3,#8]
 299              	.LVL19:
 300              	.LBB31:
 301              	.LBB30:
 378:../Startup/system_XMC4700.c ****   {
 302              	 .loc 1 378 0
 303 002c 0191     	 str r1,[sp,#4]
 304 002e 019B     	 ldr r3,[sp,#4]
 305 0030 41F64B52 	 movw r2,#7499
 306 0034 9342     	 cmp r3,r2
 307 0036 06D8     	 bhi .L22
 308              	.L51:
 380:../Startup/system_XMC4700.c ****   }
 309              	 .loc 1 380 0
 310              	
 311 0038 00BF     	 nop
 312              	
 378:../Startup/system_XMC4700.c ****   {
 313              	 .loc 1 378 0
 314              	 .thumb
 315 003a 019B     	 ldr r3,[sp,#4]
 316 003c 0133     	 adds r3,r3,#1
 317 003e 0193     	 str r3,[sp,#4]
 318 0040 019B     	 ldr r3,[sp,#4]
 319 0042 9342     	 cmp r3,r2
 320 0044 F8D9     	 bls .L51
 321              	.LVL20:
 322              	.L22:
 323              	.LBE30:
 324              	.LBE31:
 490:../Startup/system_XMC4700.c **** #endif /* FOFI_CALIBRATION_MODE == FOFI_CALIBRATION_MODE_AUTOMATIC */
 325              	 .loc 1 490 0
 326 0046 6B4A     	 ldr r2,.L67+8
 327 0048 5368     	 ldr r3,[r2,#4]
 328              	.LBB32:
 329              	.LBB33:
 378:../Startup/system_XMC4700.c ****   {
 330              	 .loc 1 378 0
 331 004a 0021     	 movs r1,#0
 332              	.LBE33:
 333              	.LBE32:
 490:../Startup/system_XMC4700.c **** #endif /* FOFI_CALIBRATION_MODE == FOFI_CALIBRATION_MODE_AUTOMATIC */
 334              	 .loc 1 490 0
 335 004c 43F40023 	 orr r3,r3,#524288
 336 0050 5360     	 str r3,[r2,#4]
 337              	.LVL21:
 338              	.LBB35:
 339              	.LBB34:
 378:../Startup/system_XMC4700.c ****   {
 340              	 .loc 1 378 0
 341 0052 0291     	 str r1,[sp,#8]
 342 0054 029B     	 ldr r3,[sp,#8]
 343 0056 40F6C312 	 movw r2,#2499
 344 005a 9342     	 cmp r3,r2
 345 005c 06D8     	 bhi .L26
 346              	.L50:
 380:../Startup/system_XMC4700.c ****   }
 347              	 .loc 1 380 0
 348              	
 349 005e 00BF     	 nop
 350              	
 378:../Startup/system_XMC4700.c ****   {
 351              	 .loc 1 378 0
 352              	 .thumb
 353 0060 029B     	 ldr r3,[sp,#8]
 354 0062 0133     	 adds r3,r3,#1
 355 0064 0293     	 str r3,[sp,#8]
 356 0066 029B     	 ldr r3,[sp,#8]
 357 0068 9342     	 cmp r3,r2
 358 006a F8D9     	 bls .L50
 359              	.L26:
 360              	.LBE34:
 361              	.LBE35:
 498:../Startup/system_XMC4700.c **** 
 362              	 .loc 1 498 0
 363 006c 614C     	 ldr r4,.L67+8
 502:../Startup/system_XMC4700.c ****   {
 364              	 .loc 1 502 0
 365 006e 624D     	 ldr r5,.L67+12
 498:../Startup/system_XMC4700.c **** 
 366              	 .loc 1 498 0
 367 0070 6368     	 ldr r3,[r4,#4]
 368 0072 23F48033 	 bic r3,r3,#65536
 369 0076 23F00203 	 bic r3,r3,#2
 370 007a 6360     	 str r3,[r4,#4]
 502:../Startup/system_XMC4700.c ****   {
 371              	 .loc 1 502 0
 372 007c 6B68     	 ldr r3,[r5,#4]
 373 007e 13F0300F 	 tst r3,#48
 374 0082 40F09280 	 bne .L66
 375              	.L29:
 525:../Startup/system_XMC4700.c **** 
 376              	 .loc 1 525 0
 377 0086 5B4B     	 ldr r3,.L67+8
 531:../Startup/system_XMC4700.c ****                       (PLL_K2DIV_24MHZ << SCU_PLL_PLLCON1_K2DIV_Pos) |
 378              	 .loc 1 531 0
 379 0088 5C49     	 ldr r1,.L67+16
 525:../Startup/system_XMC4700.c **** 
 380              	 .loc 1 525 0
 381 008a 5A68     	 ldr r2,[r3,#4]
 382 008c 42F00102 	 orr r2,r2,#1
 383 0090 5A60     	 str r2,[r3,#4]
 528:../Startup/system_XMC4700.c **** 
 384              	 .loc 1 528 0
 385 0092 5A68     	 ldr r2,[r3,#4]
 386 0094 42F01002 	 orr r2,r2,#16
 387 0098 5A60     	 str r2,[r3,#4]
 531:../Startup/system_XMC4700.c ****                       (PLL_K2DIV_24MHZ << SCU_PLL_PLLCON1_K2DIV_Pos) |
 388              	 .loc 1 531 0
 389 009a 9960     	 str r1,[r3,#8]
 536:../Startup/system_XMC4700.c **** 
 390              	 .loc 1 536 0
 391 009c 5A68     	 ldr r2,[r3,#4]
 392 009e 42F04002 	 orr r2,r2,#64
 393 00a2 5A60     	 str r2,[r3,#4]
 539:../Startup/system_XMC4700.c **** 
 394              	 .loc 1 539 0
 395 00a4 5A68     	 ldr r2,[r3,#4]
 396 00a6 22F01002 	 bic r2,r2,#16
 397 00aa 5A60     	 str r2,[r3,#4]
 542:../Startup/system_XMC4700.c **** 
 398              	 .loc 1 542 0
 399 00ac 5A68     	 ldr r2,[r3,#4]
 400 00ae 42F48022 	 orr r2,r2,#262144
 401 00b2 5A60     	 str r2,[r3,#4]
 544:../Startup/system_XMC4700.c ****   {
 402              	 .loc 1 544 0
 403 00b4 1A46     	 mov r2,r3
 404              	.L30:
 544:../Startup/system_XMC4700.c ****   {
 405              	 .loc 1 544 0 is_stmt 0 discriminator 1
 406 00b6 1168     	 ldr r1,[r2]
 407 00b8 4E4B     	 ldr r3,.L67+8
 408 00ba 4907     	 lsls r1,r1,#29
 409 00bc FBD5     	 bpl .L30
 550:../Startup/system_XMC4700.c ****   while ((SCU_PLL->PLLSTAT & SCU_PLL_PLLSTAT_VCOBYST_Msk) != 0U)
 410              	 .loc 1 550 0 is_stmt 1
 411 00be 5A68     	 ldr r2,[r3,#4]
 412 00c0 22F00102 	 bic r2,r2,#1
 413 00c4 5A60     	 str r2,[r3,#4]
 551:../Startup/system_XMC4700.c ****   {
 414              	 .loc 1 551 0
 415 00c6 1A46     	 mov r2,r3
 416              	.L32:
 551:../Startup/system_XMC4700.c ****   {
 417              	 .loc 1 551 0 is_stmt 0 discriminator 1
 418 00c8 1368     	 ldr r3,[r2]
 419 00ca 4A49     	 ldr r1,.L67+8
 420 00cc 13F00103 	 ands r3,r3,#1
 421 00d0 FAD1     	 bne .L32
 558:../Startup/system_XMC4700.c ****   SCU_CLK->PBCLKCR = __PBCLKCR;
 422              	 .loc 1 558 0 is_stmt 1
 423 00d2 4B4A     	 ldr r2,.L67+20
 564:../Startup/system_XMC4700.c ****   SCU_CLK->EXTCLKCR = __EXTCLKCR;
 424              	 .loc 1 564 0
 425 00d4 4B4D     	 ldr r5,.L67+24
 565:../Startup/system_XMC4700.c **** 
 426              	 .loc 1 565 0
 427 00d6 4C4C     	 ldr r4,.L67+28
 572:../Startup/system_XMC4700.c **** 	                  (PLL_K2DIV_48MHZ << SCU_PLL_PLLCON1_K2DIV_Pos) |
 428              	 .loc 1 572 0
 429 00d8 4C48     	 ldr r0,.L67+32
 558:../Startup/system_XMC4700.c ****   SCU_CLK->PBCLKCR = __PBCLKCR;
 430              	 .loc 1 558 0
 431 00da 4FF00117 	 mov r7,#65537
 563:../Startup/system_XMC4700.c ****   SCU_CLK->USBCLKCR = __USBCLKCR | USB_DIV;
 432              	 .loc 1 563 0
 433 00de 0326     	 movs r6,#3
 558:../Startup/system_XMC4700.c ****   SCU_CLK->PBCLKCR = __PBCLKCR;
 434              	 .loc 1 558 0
 435 00e0 D760     	 str r7,[r2,#12]
 559:../Startup/system_XMC4700.c ****   SCU_CLK->CPUCLKCR = __CPUCLKCR;
 436              	 .loc 1 559 0
 437 00e2 5361     	 str r3,[r2,#20]
 560:../Startup/system_XMC4700.c ****   SCU_CLK->CCUCLKCR = __CCUCLKCR;
 438              	 .loc 1 560 0
 439 00e4 1361     	 str r3,[r2,#16]
 561:../Startup/system_XMC4700.c ****   SCU_CLK->WDTCLKCR = __WDTCLKCR;
 440              	 .loc 1 561 0
 441 00e6 1362     	 str r3,[r2,#32]
 562:../Startup/system_XMC4700.c ****   SCU_CLK->EBUCLKCR = __EBUCLKCR;
 442              	 .loc 1 562 0
 443 00e8 5362     	 str r3,[r2,#36]
 563:../Startup/system_XMC4700.c ****   SCU_CLK->USBCLKCR = __USBCLKCR | USB_DIV;
 444              	 .loc 1 563 0
 445 00ea D661     	 str r6,[r2,#28]
 564:../Startup/system_XMC4700.c ****   SCU_CLK->EXTCLKCR = __EXTCLKCR;
 446              	 .loc 1 564 0
 447 00ec 9561     	 str r5,[r2,#24]
 565:../Startup/system_XMC4700.c **** 
 448              	 .loc 1 565 0
 449 00ee 9462     	 str r4,[r2,#40]
 570:../Startup/system_XMC4700.c ****   
 450              	 .loc 1 570 0
 451 00f0 4A68     	 ldr r2,[r1,#4]
 452 00f2 22F04002 	 bic r2,r2,#64
 453 00f6 4A60     	 str r2,[r1,#4]
 572:../Startup/system_XMC4700.c **** 	                  (PLL_K2DIV_48MHZ << SCU_PLL_PLLCON1_K2DIV_Pos) |
 454              	 .loc 1 572 0
 455 00f8 8860     	 str r0,[r1,#8]
 456              	.LVL22:
 457              	.LBB36:
 458              	.LBB37:
 378:../Startup/system_XMC4700.c ****   {
 459              	 .loc 1 378 0
 460 00fa 0393     	 str r3,[sp,#12]
 461 00fc 039B     	 ldr r3,[sp,#12]
 462 00fe B3F5166F 	 cmp r3,#2400
 463 0102 07D2     	 bcs .L36
 464              	.L49:
 380:../Startup/system_XMC4700.c ****   }
 465              	 .loc 1 380 0
 466              	
 467 0104 00BF     	 nop
 468              	
 378:../Startup/system_XMC4700.c ****   {
 469              	 .loc 1 378 0
 470              	 .thumb
 471 0106 039B     	 ldr r3,[sp,#12]
 472 0108 0133     	 adds r3,r3,#1
 473 010a 0393     	 str r3,[sp,#12]
 474 010c 039B     	 ldr r3,[sp,#12]
 475 010e B3F5166F 	 cmp r3,#2400
 476 0112 F7D3     	 bcc .L49
 477              	.L36:
 478              	.LBE37:
 479              	.LBE36:
 578:../Startup/system_XMC4700.c **** 	                  (PLL_K2DIV_72MHZ << SCU_PLL_PLLCON1_K2DIV_Pos) |
 480              	 .loc 1 578 0
 481 0114 374B     	 ldr r3,.L67+8
 482 0116 3E4A     	 ldr r2,.L67+36
 483 0118 9A60     	 str r2,[r3,#8]
 484              	.LVL23:
 485              	.LBB38:
 486              	.LBB39:
 378:../Startup/system_XMC4700.c ****   {
 487              	 .loc 1 378 0
 488 011a 0023     	 movs r3,#0
 489 011c 0493     	 str r3,[sp,#16]
 490 011e 049B     	 ldr r3,[sp,#16]
 491 0120 B3F5616F 	 cmp r3,#3600
 492 0124 07D2     	 bcs .L35
 493              	.L48:
 380:../Startup/system_XMC4700.c ****   }
 494              	 .loc 1 380 0
 495              	
 496 0126 00BF     	 nop
 497              	
 378:../Startup/system_XMC4700.c ****   {
 498              	 .loc 1 378 0
 499              	 .thumb
 500 0128 049B     	 ldr r3,[sp,#16]
 501 012a 0133     	 adds r3,r3,#1
 502 012c 0493     	 str r3,[sp,#16]
 503 012e 049B     	 ldr r3,[sp,#16]
 504 0130 B3F5616F 	 cmp r3,#3600
 505 0134 F7D3     	 bcc .L48
 506              	.L35:
 507              	.LBE39:
 508              	.LBE38:
 584:../Startup/system_XMC4700.c **** 	                  (PLL_K2DIV_96MHZ << SCU_PLL_PLLCON1_K2DIV_Pos) |
 509              	 .loc 1 584 0
 510 0136 2F4B     	 ldr r3,.L67+8
 511 0138 364A     	 ldr r2,.L67+40
 512 013a 9A60     	 str r2,[r3,#8]
 513              	.LVL24:
 514              	.LBB40:
 515              	.LBB41:
 378:../Startup/system_XMC4700.c ****   {
 516              	 .loc 1 378 0
 517 013c 0023     	 movs r3,#0
 518 013e 0593     	 str r3,[sp,#20]
 519 0140 059B     	 ldr r3,[sp,#20]
 520 0142 B3F5965F 	 cmp r3,#4800
 521 0146 07D2     	 bcs .L38
 522              	.L47:
 380:../Startup/system_XMC4700.c ****   }
 523              	 .loc 1 380 0
 524              	
 525 0148 00BF     	 nop
 526              	
 378:../Startup/system_XMC4700.c ****   {
 527              	 .loc 1 378 0
 528              	 .thumb
 529 014a 059B     	 ldr r3,[sp,#20]
 530 014c 0133     	 adds r3,r3,#1
 531 014e 0593     	 str r3,[sp,#20]
 532 0150 059B     	 ldr r3,[sp,#20]
 533 0152 B3F5965F 	 cmp r3,#4800
 534 0156 F7D3     	 bcc .L47
 535              	.L38:
 536              	.LBE41:
 537              	.LBE40:
 590:../Startup/system_XMC4700.c **** 	                  (PLL_K2DIV_120MHZ << SCU_PLL_PLLCON1_K2DIV_Pos) |
 538              	 .loc 1 590 0
 539 0158 264B     	 ldr r3,.L67+8
 540 015a 2F4A     	 ldr r2,.L67+44
 541 015c 9A60     	 str r2,[r3,#8]
 542              	.LVL25:
 543              	.LBB42:
 544              	.LBB43:
 378:../Startup/system_XMC4700.c ****   {
 545              	 .loc 1 378 0
 546 015e 0023     	 movs r3,#0
 547 0160 0693     	 str r3,[sp,#24]
 548 0162 069B     	 ldr r3,[sp,#24]
 549 0164 41F26F72 	 movw r2,#5999
 550 0168 9342     	 cmp r3,r2
 551 016a 06D8     	 bhi .L40
 552              	.L46:
 380:../Startup/system_XMC4700.c ****   }
 553              	 .loc 1 380 0
 554              	
 555 016c 00BF     	 nop
 556              	
 378:../Startup/system_XMC4700.c ****   {
 557              	 .loc 1 378 0
 558              	 .thumb
 559 016e 069B     	 ldr r3,[sp,#24]
 560 0170 0133     	 adds r3,r3,#1
 561 0172 0693     	 str r3,[sp,#24]
 562 0174 069B     	 ldr r3,[sp,#24]
 563 0176 9342     	 cmp r3,r2
 564 0178 F8D9     	 bls .L46
 565              	.L40:
 566              	.LBE43:
 567              	.LBE42:
 596:../Startup/system_XMC4700.c **** 	                  (PLL_K2DIV << SCU_PLL_PLLCON1_K2DIV_Pos) |
 568              	 .loc 1 596 0
 569 017a 1E4B     	 ldr r3,.L67+8
 570 017c 274A     	 ldr r2,.L67+48
 571 017e 9A60     	 str r2,[r3,#8]
 572              	.LVL26:
 573              	.LBB44:
 574              	.LBB45:
 378:../Startup/system_XMC4700.c ****   {
 575              	 .loc 1 378 0
 576 0180 0023     	 movs r3,#0
 577 0182 0793     	 str r3,[sp,#28]
 578 0184 079B     	 ldr r3,[sp,#28]
 579 0186 B3F5E15F 	 cmp r3,#7200
 580 018a 07D2     	 bcs .L42
 581              	.L45:
 380:../Startup/system_XMC4700.c ****   }
 582              	 .loc 1 380 0
 583              	
 584 018c 00BF     	 nop
 585              	
 378:../Startup/system_XMC4700.c ****   {
 586              	 .loc 1 378 0
 587              	 .thumb
 588 018e 079B     	 ldr r3,[sp,#28]
 589 0190 0133     	 adds r3,r3,#1
 590 0192 0793     	 str r3,[sp,#28]
 591 0194 079B     	 ldr r3,[sp,#28]
 592 0196 B3F5E15F 	 cmp r3,#7200
 593 019a F7D3     	 bcc .L45
 594              	.L42:
 595              	.LBE45:
 596              	.LBE44:
 660:../Startup/system_XMC4700.c **** 
 597              	 .loc 1 660 0
 598 019c 184B     	 ldr r3,.L67+20
 599 019e 0022     	 movs r2,#0
 600 01a0 5A60     	 str r2,[r3,#4]
 675:../Startup/system_XMC4700.c **** }
 601              	 .loc 1 675 0
 602 01a2 FFF7FEFF 	 bl SystemCoreClockUpdate
 603              	.LVL27:
 676:../Startup/system_XMC4700.c **** 
 604              	 .loc 1 676 0
 605 01a6 09B0     	 add sp,sp,#36
 606              	.LCFI3:
 607              	 .cfi_remember_state
 608              	 .cfi_def_cfa_offset 20
 609              	 
 610 01a8 F0BD     	 pop {r4,r5,r6,r7,pc}
 611              	.LVL28:
 612              	.L66:
 613              	.LCFI4:
 614              	 .cfi_restore_state
 504:../Startup/system_XMC4700.c ****     SCU_OSC->OSCHPCTRL |= ((OSCHP_GetFrequency() / FOSCREF) - 1UL) << SCU_OSC_OSCHPCTRL_OSCVAL_Pos;
 615              	 .loc 1 504 0
 616 01aa 6B68     	 ldr r3,[r5,#4]
 617 01ac 23F47023 	 bic r3,r3,#983040
 618 01b0 23F03003 	 bic r3,r3,#48
 619 01b4 6B60     	 str r3,[r5,#4]
 505:../Startup/system_XMC4700.c **** 
 620              	 .loc 1 505 0
 621 01b6 FFF7FEFF 	 bl OSCHP_GetFrequency
 622              	.LVL29:
 623 01ba 194B     	 ldr r3,.L67+52
 624 01bc 6A68     	 ldr r2,[r5,#4]
 625 01be A3FB0013 	 umull r1,r3,r3,r0
 626 01c2 1B0D     	 lsrs r3,r3,#20
 627 01c4 013B     	 subs r3,r3,#1
 628 01c6 42EA0343 	 orr r3,r2,r3,lsl#16
 629 01ca 6B60     	 str r3,[r5,#4]
 508:../Startup/system_XMC4700.c **** 
 630              	 .loc 1 508 0
 631 01cc E368     	 ldr r3,[r4,#12]
 632 01ce 23F00103 	 bic r3,r3,#1
 633 01d2 E360     	 str r3,[r4,#12]
 511:../Startup/system_XMC4700.c **** 
 634              	 .loc 1 511 0
 635 01d4 6368     	 ldr r3,[r4,#4]
 636 01d6 23F40033 	 bic r3,r3,#131072
 637 01da 6360     	 str r3,[r4,#4]
 638              	.L31:
 513:../Startup/system_XMC4700.c ****     {
 639              	 .loc 1 513 0 discriminator 1
 640 01dc 2368     	 ldr r3,[r4]
 641 01de 03F46073 	 and r3,r3,#896
 642 01e2 B3F5607F 	 cmp r3,#896
 643 01e6 F9D1     	 bne .L31
 644 01e8 4DE7     	 b .L29
 645              	.L68:
 646 01ea 00BF     	 .align 2
 647              	.L67:
 648 01ec 00420050 	 .word 1342194176
 649 01f0 00440050 	 .word 1342194688
 650 01f4 10470050 	 .word 1342195472
 651 01f8 00470050 	 .word 1342195456
 652 01fc 002F0B01 	 .word 17510144
 653 0200 00460050 	 .word 1342195200
 654 0204 05000100 	 .word 65541
 655 0208 03002001 	 .word 18874371
 656 020c 002F0501 	 .word 17116928
 657 0210 002F0301 	 .word 16985856
 658 0214 002F0201 	 .word 16920320
 659 0218 002F0101 	 .word 16854784
 660 021c 002F0001 	 .word 16789248
 661 0220 6BCA5F6B 	 .word 1801439851
 662              	 .cfi_endproc
 663              	.LFE126:
 665              	 .section .text.SystemInit,"ax",%progbits
 666              	 .align 2
 667              	 .weak SystemInit
 668              	 .thumb
 669              	 .thumb_func
 671              	SystemInit:
 672              	.LFB124:
 389:../Startup/system_XMC4700.c ****   memcpy(g_chipid, CHIPID_LOC, 16);
 673              	 .loc 1 389 0
 674              	 .cfi_startproc
 675              	 
 676              	 
 677 0000 10B5     	 push {r4,lr}
 678              	.LCFI5:
 679              	 .cfi_def_cfa_offset 8
 680              	 .cfi_offset 4,-8
 681              	 .cfi_offset 14,-4
 390:../Startup/system_XMC4700.c ****   
 682              	 .loc 1 390 0
 683 0002 4FF00053 	 mov r3,#536870912
 684 0006 0FCB     	 ldmia r3,{r0,r1,r2,r3}
 685 0008 034C     	 ldr r4,.L71
 686 000a 84E80F00 	 stmia r4,{r0,r1,r2,r3}
 392:../Startup/system_XMC4700.c ****   SystemCoreClockSetup(); 
 687              	 .loc 1 392 0
 688 000e FFF7FEFF 	 bl SystemCoreSetup
 689              	.LVL30:
 393:../Startup/system_XMC4700.c **** }
 690              	 .loc 1 393 0
 691 0012 FFF7FEFF 	 bl SystemCoreClockSetup
 692              	.LVL31:
 693 0016 10BD     	 pop {r4,pc}
 694              	.L72:
 695              	 .align 2
 696              	.L71:
 697 0018 04000000 	 .word .LANCHOR0+4
 698              	 .cfi_endproc
 699              	.LFE124:
 701              	 .global g_chipid
 702              	 .global SystemCoreClock
 703              	 .section .no_init,"aw",%progbits
 704              	 .align 2
 705              	 .set .LANCHOR0,.+0
 708              	SystemCoreClock:
 709 0000 00000000 	 .space 4
 712              	g_chipid:
 713 0004 00000000 	 .space 16
 713      00000000 
 713      00000000 
 713      00000000 
 714              	 .text
 715              	.Letext0:
 716              	 .file 3 "c:\\infineon\\tools\\dave ide\\4.5.0.202105191637\\eclipse\\arm-gcc-49\\arm-none-eabi\\include\\machine\\_default_types.h"
 717              	 .file 4 "c:\\infineon\\tools\\dave ide\\4.5.0.202105191637\\eclipse\\arm-gcc-49\\arm-none-eabi\\include\\stdint.h"
 718              	 .file 5 "C:/Users/Utente/Desktop/Tesi/Firmware_Software/DAVE project/S2GLP_Pulsed_Doppler/Libraries/CMSIS/Include/core_cm4.h"
 719              	 .file 6 "C:/Users/Utente/Desktop/Tesi/Firmware_Software/DAVE project/S2GLP_Pulsed_Doppler/Libraries/CMSIS/Infineon/XMC4700_series/Include/XMC4700.h"
DEFINED SYMBOLS
                            *ABS*:00000000 system_XMC4700.c
    {standard input}:20     .text.SystemCoreSetup:00000000 $t
    {standard input}:25     .text.SystemCoreSetup:00000000 SystemCoreSetup
    {standard input}:94     .text.SystemCoreSetup:00000038 $d
    {standard input}:101    .text.OSCHP_GetFrequency:00000000 $t
    {standard input}:106    .text.OSCHP_GetFrequency:00000000 OSCHP_GetFrequency
    {standard input}:119    .text.OSCHP_GetFrequency:00000004 $d
    {standard input}:124    .text.SystemCoreClockUpdate:00000000 $t
    {standard input}:129    .text.SystemCoreClockUpdate:00000000 SystemCoreClockUpdate
    {standard input}:236    .text.SystemCoreClockUpdate:00000074 $d
    {standard input}:244    .text.SystemCoreClockSetup:00000000 $t
    {standard input}:249    .text.SystemCoreClockSetup:00000000 SystemCoreClockSetup
    {standard input}:648    .text.SystemCoreClockSetup:000001ec $d
    {standard input}:666    .text.SystemInit:00000000 $t
    {standard input}:671    .text.SystemInit:00000000 SystemInit
    {standard input}:697    .text.SystemInit:00000018 $d
    {standard input}:712    .no_init:00000004 g_chipid
    {standard input}:708    .no_init:00000000 SystemCoreClock
    {standard input}:704    .no_init:00000000 $d
                     .debug_frame:00000010 $d

UNDEFINED SYMBOLS
__Vectors
