   1              	 .syntax unified
   2              	 .cpu cortex-m4
   3              	 .eabi_attribute 27,3
   4              	 .fpu fpv4-sp-d16
   5              	 .eabi_attribute 20,1
   6              	 .eabi_attribute 21,1
   7              	 .eabi_attribute 23,3
   8              	 .eabi_attribute 24,1
   9              	 .eabi_attribute 25,1
  10              	 .eabi_attribute 26,1
  11              	 .eabi_attribute 30,2
  12              	 .eabi_attribute 34,1
  13              	 .eabi_attribute 18,4
  14              	 .thumb
  15              	 .file "dma_ch.c"
  16              	 .text
  17              	.Ltext0:
  18              	 .cfi_sections .debug_frame
  19              	 .section .text.DMA_CH_GetAppVersion,"ax",%progbits
  20              	 .align 2
  21              	 .global DMA_CH_GetAppVersion
  22              	 .thumb
  23              	 .thumb_func
  25              	DMA_CH_GetAppVersion:
  26              	.LFB153:
  27              	 .file 1 "../Dave/Generated/DMA_CH/dma_ch.c"
   1:../Dave/Generated/DMA_CH/dma_ch.c **** 
   2:../Dave/Generated/DMA_CH/dma_ch.c **** /**
   3:../Dave/Generated/DMA_CH/dma_ch.c ****  * @file dma_ch.c
   4:../Dave/Generated/DMA_CH/dma_ch.c ****  * @date 2015-11-12
   5:../Dave/Generated/DMA_CH/dma_ch.c ****  *
   6:../Dave/Generated/DMA_CH/dma_ch.c ****  * NOTE:
   7:../Dave/Generated/DMA_CH/dma_ch.c ****  * This file is generated by DAVE. Any manual modification done to this file will be lost when the 
   8:../Dave/Generated/DMA_CH/dma_ch.c ****  *
   9:../Dave/Generated/DMA_CH/dma_ch.c ****  * @cond
  10:../Dave/Generated/DMA_CH/dma_ch.c ****  **************************************************************************************************
  11:../Dave/Generated/DMA_CH/dma_ch.c ****  * DMA_CH v4.1.8 - Perform single and multi-block data transfer using the GPDMA module
  12:../Dave/Generated/DMA_CH/dma_ch.c ****  *
  13:../Dave/Generated/DMA_CH/dma_ch.c ****  * Copyright (c) 2015, Infineon Technologies AG
  14:../Dave/Generated/DMA_CH/dma_ch.c ****  * All rights reserved.
  15:../Dave/Generated/DMA_CH/dma_ch.c ****  *
  16:../Dave/Generated/DMA_CH/dma_ch.c ****  * Redistribution and use in source and binary forms, with or without modification,are permitted pr
  17:../Dave/Generated/DMA_CH/dma_ch.c ****  * following conditions are met:
  18:../Dave/Generated/DMA_CH/dma_ch.c ****  *
  19:../Dave/Generated/DMA_CH/dma_ch.c ****  *   Redistributions of source code must retain the above copyright notice, this list of conditions
  20:../Dave/Generated/DMA_CH/dma_ch.c ****  *   disclaimer.
  21:../Dave/Generated/DMA_CH/dma_ch.c ****  *
  22:../Dave/Generated/DMA_CH/dma_ch.c ****  *   Redistributions in binary form must reproduce the above copyright notice, this list of conditi
  23:../Dave/Generated/DMA_CH/dma_ch.c ****  *   following disclaimer in the documentation and/or other materials provided with the distributio
  24:../Dave/Generated/DMA_CH/dma_ch.c ****  *
  25:../Dave/Generated/DMA_CH/dma_ch.c ****  *   Neither the name of the copyright holders nor the names of its contributors may be used to end
  26:../Dave/Generated/DMA_CH/dma_ch.c ****  *   products derived from this software without specific prior written permission.
  27:../Dave/Generated/DMA_CH/dma_ch.c ****  *
  28:../Dave/Generated/DMA_CH/dma_ch.c ****  * THIS SOFTWARE IS PROVIDED BY THE COPYRIGHT HOLDERS AND CONTRIBUTORS "AS IS" AND ANY EXPRESS OR I
  29:../Dave/Generated/DMA_CH/dma_ch.c ****  * INCLUDING, BUT NOT LIMITED TO, THE IMPLIED WARRANTIES OF MERCHANTABILITY AND FITNESS FOR A PARTI
  30:../Dave/Generated/DMA_CH/dma_ch.c ****  * DISCLAIMED. IN NO EVENT SHALL THE COPYRIGHT HOLDER OR CONTRIBUTORS BE LIABLE  FOR ANY DIRECT, IN
  31:../Dave/Generated/DMA_CH/dma_ch.c ****  * SPECIAL, EXEMPLARY, OR CONSEQUENTIAL DAMAGES (INCLUDING, BUT NOT LIMITED TO, PROCUREMENT OF SUBS
  32:../Dave/Generated/DMA_CH/dma_ch.c ****  * SERVICES; LOSS OF USE, DATA, OR PROFITS; OR BUSINESS INTERRUPTION) HOWEVER CAUSED AND ON ANY THE
  33:../Dave/Generated/DMA_CH/dma_ch.c ****  * WHETHER IN CONTRACT, STRICT LIABILITY,OR TORT (INCLUDING NEGLIGENCE OR OTHERWISE) ARISING IN ANY
  34:../Dave/Generated/DMA_CH/dma_ch.c ****  * USE OF THIS SOFTWARE, EVEN IF ADVISED OF THE POSSIBILITY OF SUCH DAMAGE.
  35:../Dave/Generated/DMA_CH/dma_ch.c ****  *
  36:../Dave/Generated/DMA_CH/dma_ch.c ****  * To improve the quality of the software, users are encouraged to share modifications, enhancement
  37:../Dave/Generated/DMA_CH/dma_ch.c ****  * with Infineon Technologies AG (dave@infineon.com).
  38:../Dave/Generated/DMA_CH/dma_ch.c ****  **************************************************************************************************
  39:../Dave/Generated/DMA_CH/dma_ch.c ****  *
  40:../Dave/Generated/DMA_CH/dma_ch.c ****  * Change History
  41:../Dave/Generated/DMA_CH/dma_ch.c ****  * --------------
  42:../Dave/Generated/DMA_CH/dma_ch.c ****  *
  43:../Dave/Generated/DMA_CH/dma_ch.c ****  * 2015-02-20:
  44:../Dave/Generated/DMA_CH/dma_ch.c ****  *     - Initial version <br>
  45:../Dave/Generated/DMA_CH/dma_ch.c ****  *
  46:../Dave/Generated/DMA_CH/dma_ch.c ****  * 2015-04-15:
  47:../Dave/Generated/DMA_CH/dma_ch.c ****  *     - Handle src/dst address updates with new APIs in DMA LLD <br>
  48:../Dave/Generated/DMA_CH/dma_ch.c ****  *     - Documentation updates <br>
  49:../Dave/Generated/DMA_CH/dma_ch.c ****  *
  50:../Dave/Generated/DMA_CH/dma_ch.c ****  * 2015-05-20:
  51:../Dave/Generated/DMA_CH/dma_ch.c ****  *     - Some of the functions are now static inline <br>
  52:../Dave/Generated/DMA_CH/dma_ch.c ****  *     - Type changes in formal arguments <br>
  53:../Dave/Generated/DMA_CH/dma_ch.c ****  *
  54:../Dave/Generated/DMA_CH/dma_ch.c ****  * 2015-06-20:
  55:../Dave/Generated/DMA_CH/dma_ch.c ****  *     - Renamed Channelconfiguration to reload <br>
  56:../Dave/Generated/DMA_CH/dma_ch.c ****  * 2015-11-12:
  57:../Dave/Generated/DMA_CH/dma_ch.c ****  *     - Updated the DMA_CH_Init() to support the event call back registration and enable events co
  58:../Dave/Generated/DMA_CH/dma_ch.c ****  * @endcond
  59:../Dave/Generated/DMA_CH/dma_ch.c ****  */
  60:../Dave/Generated/DMA_CH/dma_ch.c ****  
  61:../Dave/Generated/DMA_CH/dma_ch.c **** /**************************************************************************************************
  62:../Dave/Generated/DMA_CH/dma_ch.c ****  * HEADER FILES
  63:../Dave/Generated/DMA_CH/dma_ch.c ****  **************************************************************************************************
  64:../Dave/Generated/DMA_CH/dma_ch.c **** 
  65:../Dave/Generated/DMA_CH/dma_ch.c **** #include "dma_ch.h"
  66:../Dave/Generated/DMA_CH/dma_ch.c **** #include "dma_ch_conf.h"
  67:../Dave/Generated/DMA_CH/dma_ch.c **** 
  68:../Dave/Generated/DMA_CH/dma_ch.c **** /**************************************************************************************************
  69:../Dave/Generated/DMA_CH/dma_ch.c ****  * MACROS
  70:../Dave/Generated/DMA_CH/dma_ch.c ****  **************************************************************************************************
  71:../Dave/Generated/DMA_CH/dma_ch.c **** 
  72:../Dave/Generated/DMA_CH/dma_ch.c **** /**************************************************************************************************
  73:../Dave/Generated/DMA_CH/dma_ch.c ****  * LOCAL DATA
  74:../Dave/Generated/DMA_CH/dma_ch.c ****  **************************************************************************************************
  75:../Dave/Generated/DMA_CH/dma_ch.c **** 
  76:../Dave/Generated/DMA_CH/dma_ch.c **** /**************************************************************************************************
  77:../Dave/Generated/DMA_CH/dma_ch.c ****  * LOCAL ROUTINES
  78:../Dave/Generated/DMA_CH/dma_ch.c ****  **************************************************************************************************
  79:../Dave/Generated/DMA_CH/dma_ch.c **** 
  80:../Dave/Generated/DMA_CH/dma_ch.c **** /**************************************************************************************************
  81:../Dave/Generated/DMA_CH/dma_ch.c ****  * API IMPLEMENTATION
  82:../Dave/Generated/DMA_CH/dma_ch.c ****  **************************************************************************************************
  83:../Dave/Generated/DMA_CH/dma_ch.c **** 
  84:../Dave/Generated/DMA_CH/dma_ch.c **** /* Retrieve the version of the DMA_CH App */
  85:../Dave/Generated/DMA_CH/dma_ch.c **** DAVE_APP_VERSION_t DMA_CH_GetAppVersion(void)
  86:../Dave/Generated/DMA_CH/dma_ch.c **** {
  28              	 .loc 1 86 0
  29              	 .cfi_startproc
  30              	 
  31              	 
  32              	 
  33              	.LVL0:
  87:../Dave/Generated/DMA_CH/dma_ch.c ****   DAVE_APP_VERSION_t version;
  88:../Dave/Generated/DMA_CH/dma_ch.c **** 
  89:../Dave/Generated/DMA_CH/dma_ch.c ****   version.major = DMA_CH_MAJOR_VERSION;
  90:../Dave/Generated/DMA_CH/dma_ch.c ****   version.minor = DMA_CH_MINOR_VERSION;
  91:../Dave/Generated/DMA_CH/dma_ch.c ****   version.patch = DMA_CH_PATCH_VERSION;
  92:../Dave/Generated/DMA_CH/dma_ch.c **** 
  93:../Dave/Generated/DMA_CH/dma_ch.c ****   return version;
  34              	 .loc 1 93 0
  35 0000 0423     	 movs r3,#4
  36 0002 0020     	 movs r0,#0
  37 0004 63F30700 	 bfi r0,r3,#0,#8
  38 0008 0123     	 movs r3,#1
  39 000a 63F30F20 	 bfi r0,r3,#8,#8
  40 000e 0823     	 movs r3,#8
  41 0010 63F31740 	 bfi r0,r3,#16,#8
  86:../Dave/Generated/DMA_CH/dma_ch.c ****   DAVE_APP_VERSION_t version;
  42              	 .loc 1 86 0
  43 0014 82B0     	 sub sp,sp,#8
  44              	.LCFI0:
  45              	 .cfi_def_cfa_offset 8
  94:../Dave/Generated/DMA_CH/dma_ch.c **** }
  46              	 .loc 1 94 0
  47 0016 02B0     	 add sp,sp,#8
  48              	.LCFI1:
  49              	 .cfi_def_cfa_offset 0
  50              	 
  51 0018 7047     	 bx lr
  52              	 .cfi_endproc
  53              	.LFE153:
  55 001a 00BF     	 .section .text.DMA_CH_Init,"ax",%progbits
  56              	 .align 2
  57              	 .global DMA_CH_Init
  58              	 .thumb
  59              	 .thumb_func
  61              	DMA_CH_Init:
  62              	.LFB154:
  95:../Dave/Generated/DMA_CH/dma_ch.c **** 
  96:../Dave/Generated/DMA_CH/dma_ch.c **** /* DMA_CH initialization function */
  97:../Dave/Generated/DMA_CH/dma_ch.c **** DMA_CH_STATUS_t DMA_CH_Init(DMA_CH_t *const obj)
  98:../Dave/Generated/DMA_CH/dma_ch.c **** {
  63              	 .loc 1 98 0
  64              	 .cfi_startproc
  65              	 
  66              	 
  67              	.LVL1:
  68 0000 10B5     	 push {r4,lr}
  69              	.LCFI2:
  70              	 .cfi_def_cfa_offset 8
  71              	 .cfi_offset 4,-8
  72              	 .cfi_offset 14,-4
  73              	 .loc 1 98 0
  74 0002 0446     	 mov r4,r0
  99:../Dave/Generated/DMA_CH/dma_ch.c ****   DMA_CH_STATUS_t status;
 100:../Dave/Generated/DMA_CH/dma_ch.c **** 
 101:../Dave/Generated/DMA_CH/dma_ch.c ****   XMC_ASSERT("DMA_CH_Init: NULL DMA_CH_t object", (obj != NULL));
 102:../Dave/Generated/DMA_CH/dma_ch.c **** 
 103:../Dave/Generated/DMA_CH/dma_ch.c ****   /* This cannot possibly fail! */
 104:../Dave/Generated/DMA_CH/dma_ch.c ****   GLOBAL_DMA_Init(obj->dma_global);
  75              	 .loc 1 104 0
  76 0004 0068     	 ldr r0,[r0]
  77              	.LVL2:
  78 0006 FFF7FEFF 	 bl GLOBAL_DMA_Init
  79              	.LVL3:
 105:../Dave/Generated/DMA_CH/dma_ch.c **** 
 106:../Dave/Generated/DMA_CH/dma_ch.c ****   if (XMC_DMA_CH_Init(obj->dma_global->dma, obj->ch_num, &obj->config->ch_config) == XMC_DMA_CH_STA
  80              	 .loc 1 106 0
  81 000a 2368     	 ldr r3,[r4]
  82 000c 217B     	 ldrb r1,[r4,#12]
  83 000e 1868     	 ldr r0,[r3]
  84 0010 6268     	 ldr r2,[r4,#4]
  85 0012 FFF7FEFF 	 bl XMC_DMA_CH_Init
  86              	.LVL4:
  87 0016 38B9     	 cbnz r0,.L6
 107:../Dave/Generated/DMA_CH/dma_ch.c ****   {
 108:../Dave/Generated/DMA_CH/dma_ch.c **** 	if(obj->config->events)
  88              	 .loc 1 108 0
  89 0018 6368     	 ldr r3,[r4,#4]
  90 001a 9A6A     	 ldr r2,[r3,#40]
  91 001c 32B9     	 cbnz r2,.L12
  92              	.L5:
 109:../Dave/Generated/DMA_CH/dma_ch.c **** 	{
 110:../Dave/Generated/DMA_CH/dma_ch.c **** 		XMC_DMA_CH_EnableEvent(obj->dma_global->dma, obj->ch_num, obj->config->events);
 111:../Dave/Generated/DMA_CH/dma_ch.c **** 		XMC_DMA_CH_SetEventHandler(obj->dma_global->dma, obj->ch_num, obj->config->callback);
 112:../Dave/Generated/DMA_CH/dma_ch.c **** 	}
 113:../Dave/Generated/DMA_CH/dma_ch.c ****     obj->reload(obj);
  93              	 .loc 1 113 0
  94 001e 2046     	 mov r0,r4
  95 0020 A368     	 ldr r3,[r4,#8]
  96 0022 9847     	 blx r3
  97              	.LVL5:
 114:../Dave/Generated/DMA_CH/dma_ch.c ****     status = DMA_CH_STATUS_SUCCESS;
  98              	 .loc 1 114 0
  99 0024 0020     	 movs r0,#0
 100 0026 10BD     	 pop {r4,pc}
 101              	.LVL6:
 102              	.L6:
 115:../Dave/Generated/DMA_CH/dma_ch.c ****   }
 116:../Dave/Generated/DMA_CH/dma_ch.c ****   else
 117:../Dave/Generated/DMA_CH/dma_ch.c ****   {
 118:../Dave/Generated/DMA_CH/dma_ch.c ****     status = DMA_CH_STATUS_FAILURE;
 103              	 .loc 1 118 0
 104 0028 0120     	 movs r0,#1
 105              	.LVL7:
 119:../Dave/Generated/DMA_CH/dma_ch.c ****   }
 120:../Dave/Generated/DMA_CH/dma_ch.c **** 
 121:../Dave/Generated/DMA_CH/dma_ch.c ****   return status;
 122:../Dave/Generated/DMA_CH/dma_ch.c **** }
 106              	 .loc 1 122 0
 107 002a 10BD     	 pop {r4,pc}
 108              	.LVL8:
 109              	.L12:
 110:../Dave/Generated/DMA_CH/dma_ch.c **** 		XMC_DMA_CH_SetEventHandler(obj->dma_global->dma, obj->ch_num, obj->config->callback);
 110              	 .loc 1 110 0
 111 002c 2368     	 ldr r3,[r4]
 112 002e 217B     	 ldrb r1,[r4,#12]
 113 0030 1868     	 ldr r0,[r3]
 114 0032 FFF7FEFF 	 bl XMC_DMA_CH_EnableEvent
 115              	.LVL9:
 111:../Dave/Generated/DMA_CH/dma_ch.c **** 	}
 116              	 .loc 1 111 0
 117 0036 94E80C00 	 ldmia r4,{r2,r3}
 118 003a 217B     	 ldrb r1,[r4,#12]
 119 003c 1068     	 ldr r0,[r2]
 120 003e 5A6A     	 ldr r2,[r3,#36]
 121 0040 FFF7FEFF 	 bl XMC_DMA_CH_SetEventHandler
 122              	.LVL10:
 123 0044 EBE7     	 b .L5
 124              	 .cfi_endproc
 125              	.LFE154:
 127 0046 00BF     	 .text
 128              	.Letext0:
 129              	 .file 2 "c:\\infineon\\tools\\dave ide\\4.5.0.202105191637\\eclipse\\arm-gcc-49\\arm-none-eabi\\include\\machine\\_default_types.h"
 130              	 .file 3 "c:\\infineon\\tools\\dave ide\\4.5.0.202105191637\\eclipse\\arm-gcc-49\\arm-none-eabi\\include\\stdint.h"
 131              	 .file 4 "C:/Users/Utente/Desktop/Tesi/Firmware_Software/DAVE project/S2GLP_Pulsed_Doppler/Libraries/CMSIS/Infineon/XMC4700_series/Include/XMC4700.h"
 132              	 .file 5 "C:/Users/Utente/Desktop/Tesi/Firmware_Software/DAVE project/S2GLP_Pulsed_Doppler/Libraries/XMCLib/inc/xmc_dma.h"
 133              	 .file 6 "C:/Users/Utente/Desktop/Tesi/Firmware_Software/DAVE project/S2GLP_Pulsed_Doppler/Dave/Generated/DAVE_Common.h"
 134              	 .file 7 "../Dave/Generated/DMA_CH/../GLOBAL_DMA/global_dma.h"
 135              	 .file 8 "../Dave/Generated/DMA_CH/dma_ch.h"
 136              	 .file 9 "C:/Users/Utente/Desktop/Tesi/Firmware_Software/DAVE project/S2GLP_Pulsed_Doppler/Libraries/CMSIS/Include/core_cm4.h"