   1              	 .syntax unified
   2              	 .cpu cortex-m4
   3              	 .eabi_attribute 27,3
   4              	 .fpu fpv4-sp-d16
   5              	 .eabi_attribute 20,1
   6              	 .eabi_attribute 21,1
   7              	 .eabi_attribute 23,3
   8              	 .eabi_attribute 24,1
   9              	 .eabi_attribute 25,1
  10              	 .eabi_attribute 26,1
  11              	 .eabi_attribute 30,2
  12              	 .eabi_attribute 34,1
  13              	 .eabi_attribute 18,4
  14              	 .thumb
  15              	 .file "arm_cmplx_dot_prod_q15.c"
  16              	 .text
  17              	.Ltext0:
  18              	 .cfi_sections .debug_frame
  19              	 .section .text.arm_cmplx_dot_prod_q15,"ax",%progbits
  20              	 .align 2
  21              	 .global arm_cmplx_dot_prod_q15
  22              	 .thumb
  23              	 .thumb_func
  25              	arm_cmplx_dot_prod_q15:
  26              	.LFB135:
  27              	 .file 1 "../Dave/Generated/CMSIS_DSP/ComplexMathFunctions/arm_cmplx_dot_prod_q15.c"
   1:../Dave/Generated/CMSIS_DSP/ComplexMathFunctions/arm_cmplx_dot_prod_q15.c **** /* ----------------------------------------------------------------------
   2:../Dave/Generated/CMSIS_DSP/ComplexMathFunctions/arm_cmplx_dot_prod_q15.c ****  * Project:      CMSIS DSP Library
   3:../Dave/Generated/CMSIS_DSP/ComplexMathFunctions/arm_cmplx_dot_prod_q15.c ****  * Title:        arm_cmplx_dot_prod_q15.c
   4:../Dave/Generated/CMSIS_DSP/ComplexMathFunctions/arm_cmplx_dot_prod_q15.c ****  * Description:  Processing function for the Q15 Complex Dot product
   5:../Dave/Generated/CMSIS_DSP/ComplexMathFunctions/arm_cmplx_dot_prod_q15.c ****  *
   6:../Dave/Generated/CMSIS_DSP/ComplexMathFunctions/arm_cmplx_dot_prod_q15.c ****  * $Date:        27. January 2017
   7:../Dave/Generated/CMSIS_DSP/ComplexMathFunctions/arm_cmplx_dot_prod_q15.c ****  * $Revision:    V.1.5.1
   8:../Dave/Generated/CMSIS_DSP/ComplexMathFunctions/arm_cmplx_dot_prod_q15.c ****  *
   9:../Dave/Generated/CMSIS_DSP/ComplexMathFunctions/arm_cmplx_dot_prod_q15.c ****  * Target Processor: Cortex-M cores
  10:../Dave/Generated/CMSIS_DSP/ComplexMathFunctions/arm_cmplx_dot_prod_q15.c ****  * -------------------------------------------------------------------- */
  11:../Dave/Generated/CMSIS_DSP/ComplexMathFunctions/arm_cmplx_dot_prod_q15.c **** /*
  12:../Dave/Generated/CMSIS_DSP/ComplexMathFunctions/arm_cmplx_dot_prod_q15.c ****  * Copyright (C) 2010-2017 ARM Limited or its affiliates. All rights reserved.
  13:../Dave/Generated/CMSIS_DSP/ComplexMathFunctions/arm_cmplx_dot_prod_q15.c ****  *
  14:../Dave/Generated/CMSIS_DSP/ComplexMathFunctions/arm_cmplx_dot_prod_q15.c ****  * SPDX-License-Identifier: Apache-2.0
  15:../Dave/Generated/CMSIS_DSP/ComplexMathFunctions/arm_cmplx_dot_prod_q15.c ****  *
  16:../Dave/Generated/CMSIS_DSP/ComplexMathFunctions/arm_cmplx_dot_prod_q15.c ****  * Licensed under the Apache License, Version 2.0 (the License); you may
  17:../Dave/Generated/CMSIS_DSP/ComplexMathFunctions/arm_cmplx_dot_prod_q15.c ****  * not use this file except in compliance with the License.
  18:../Dave/Generated/CMSIS_DSP/ComplexMathFunctions/arm_cmplx_dot_prod_q15.c ****  * You may obtain a copy of the License at
  19:../Dave/Generated/CMSIS_DSP/ComplexMathFunctions/arm_cmplx_dot_prod_q15.c ****  *
  20:../Dave/Generated/CMSIS_DSP/ComplexMathFunctions/arm_cmplx_dot_prod_q15.c ****  * www.apache.org/licenses/LICENSE-2.0
  21:../Dave/Generated/CMSIS_DSP/ComplexMathFunctions/arm_cmplx_dot_prod_q15.c ****  *
  22:../Dave/Generated/CMSIS_DSP/ComplexMathFunctions/arm_cmplx_dot_prod_q15.c ****  * Unless required by applicable law or agreed to in writing, software
  23:../Dave/Generated/CMSIS_DSP/ComplexMathFunctions/arm_cmplx_dot_prod_q15.c ****  * distributed under the License is distributed on an AS IS BASIS, WITHOUT
  24:../Dave/Generated/CMSIS_DSP/ComplexMathFunctions/arm_cmplx_dot_prod_q15.c ****  * WARRANTIES OR CONDITIONS OF ANY KIND, either express or implied.
  25:../Dave/Generated/CMSIS_DSP/ComplexMathFunctions/arm_cmplx_dot_prod_q15.c ****  * See the License for the specific language governing permissions and
  26:../Dave/Generated/CMSIS_DSP/ComplexMathFunctions/arm_cmplx_dot_prod_q15.c ****  * limitations under the License.
  27:../Dave/Generated/CMSIS_DSP/ComplexMathFunctions/arm_cmplx_dot_prod_q15.c ****  */
  28:../Dave/Generated/CMSIS_DSP/ComplexMathFunctions/arm_cmplx_dot_prod_q15.c **** 
  29:../Dave/Generated/CMSIS_DSP/ComplexMathFunctions/arm_cmplx_dot_prod_q15.c **** #include "CMSIS_DSP/cmsis_dsp.h"
  30:../Dave/Generated/CMSIS_DSP/ComplexMathFunctions/arm_cmplx_dot_prod_q15.c **** 
  31:../Dave/Generated/CMSIS_DSP/ComplexMathFunctions/arm_cmplx_dot_prod_q15.c **** /**
  32:../Dave/Generated/CMSIS_DSP/ComplexMathFunctions/arm_cmplx_dot_prod_q15.c ****  * @ingroup groupCmplxMath
  33:../Dave/Generated/CMSIS_DSP/ComplexMathFunctions/arm_cmplx_dot_prod_q15.c ****  */
  34:../Dave/Generated/CMSIS_DSP/ComplexMathFunctions/arm_cmplx_dot_prod_q15.c **** 
  35:../Dave/Generated/CMSIS_DSP/ComplexMathFunctions/arm_cmplx_dot_prod_q15.c **** /**
  36:../Dave/Generated/CMSIS_DSP/ComplexMathFunctions/arm_cmplx_dot_prod_q15.c ****  * @addtogroup cmplx_dot_prod
  37:../Dave/Generated/CMSIS_DSP/ComplexMathFunctions/arm_cmplx_dot_prod_q15.c ****  * @{
  38:../Dave/Generated/CMSIS_DSP/ComplexMathFunctions/arm_cmplx_dot_prod_q15.c ****  */
  39:../Dave/Generated/CMSIS_DSP/ComplexMathFunctions/arm_cmplx_dot_prod_q15.c **** 
  40:../Dave/Generated/CMSIS_DSP/ComplexMathFunctions/arm_cmplx_dot_prod_q15.c **** /**
  41:../Dave/Generated/CMSIS_DSP/ComplexMathFunctions/arm_cmplx_dot_prod_q15.c ****  * @brief  Q15 complex dot product
  42:../Dave/Generated/CMSIS_DSP/ComplexMathFunctions/arm_cmplx_dot_prod_q15.c ****  * @param  *pSrcA points to the first input vector
  43:../Dave/Generated/CMSIS_DSP/ComplexMathFunctions/arm_cmplx_dot_prod_q15.c ****  * @param  *pSrcB points to the second input vector
  44:../Dave/Generated/CMSIS_DSP/ComplexMathFunctions/arm_cmplx_dot_prod_q15.c ****  * @param  numSamples number of complex samples in each vector
  45:../Dave/Generated/CMSIS_DSP/ComplexMathFunctions/arm_cmplx_dot_prod_q15.c ****  * @param  *realResult real part of the result returned here
  46:../Dave/Generated/CMSIS_DSP/ComplexMathFunctions/arm_cmplx_dot_prod_q15.c ****  * @param  *imagResult imaginary part of the result returned here
  47:../Dave/Generated/CMSIS_DSP/ComplexMathFunctions/arm_cmplx_dot_prod_q15.c ****  * @return none.
  48:../Dave/Generated/CMSIS_DSP/ComplexMathFunctions/arm_cmplx_dot_prod_q15.c ****  *
  49:../Dave/Generated/CMSIS_DSP/ComplexMathFunctions/arm_cmplx_dot_prod_q15.c ****  * <b>Scaling and Overflow Behavior:</b>
  50:../Dave/Generated/CMSIS_DSP/ComplexMathFunctions/arm_cmplx_dot_prod_q15.c ****  * \par
  51:../Dave/Generated/CMSIS_DSP/ComplexMathFunctions/arm_cmplx_dot_prod_q15.c ****  * The function is implemented using an internal 64-bit accumulator.
  52:../Dave/Generated/CMSIS_DSP/ComplexMathFunctions/arm_cmplx_dot_prod_q15.c ****  * The intermediate 1.15 by 1.15 multiplications are performed with full precision and yield a 2.30
  53:../Dave/Generated/CMSIS_DSP/ComplexMathFunctions/arm_cmplx_dot_prod_q15.c ****  * These are accumulated in a 64-bit accumulator with 34.30 precision.
  54:../Dave/Generated/CMSIS_DSP/ComplexMathFunctions/arm_cmplx_dot_prod_q15.c ****  * As a final step, the accumulators are converted to 8.24 format.
  55:../Dave/Generated/CMSIS_DSP/ComplexMathFunctions/arm_cmplx_dot_prod_q15.c ****  * The return results <code>realResult</code> and <code>imagResult</code> are in 8.24 format.
  56:../Dave/Generated/CMSIS_DSP/ComplexMathFunctions/arm_cmplx_dot_prod_q15.c ****  */
  57:../Dave/Generated/CMSIS_DSP/ComplexMathFunctions/arm_cmplx_dot_prod_q15.c **** 
  58:../Dave/Generated/CMSIS_DSP/ComplexMathFunctions/arm_cmplx_dot_prod_q15.c **** void arm_cmplx_dot_prod_q15(
  59:../Dave/Generated/CMSIS_DSP/ComplexMathFunctions/arm_cmplx_dot_prod_q15.c ****   q15_t * pSrcA,
  60:../Dave/Generated/CMSIS_DSP/ComplexMathFunctions/arm_cmplx_dot_prod_q15.c ****   q15_t * pSrcB,
  61:../Dave/Generated/CMSIS_DSP/ComplexMathFunctions/arm_cmplx_dot_prod_q15.c ****   uint32_t numSamples,
  62:../Dave/Generated/CMSIS_DSP/ComplexMathFunctions/arm_cmplx_dot_prod_q15.c ****   q31_t * realResult,
  63:../Dave/Generated/CMSIS_DSP/ComplexMathFunctions/arm_cmplx_dot_prod_q15.c ****   q31_t * imagResult)
  64:../Dave/Generated/CMSIS_DSP/ComplexMathFunctions/arm_cmplx_dot_prod_q15.c **** {
  28              	 .loc 1 64 0
  29              	 .cfi_startproc
  30              	 
  31              	 
  32              	.LVL0:
  33 0000 2DE9F04F 	 push {r4,r5,r6,r7,r8,r9,r10,fp,lr}
  34              	.LCFI0:
  35              	 .cfi_def_cfa_offset 36
  36              	 .cfi_offset 4,-36
  37              	 .cfi_offset 5,-32
  38              	 .cfi_offset 6,-28
  39              	 .cfi_offset 7,-24
  40              	 .cfi_offset 8,-20
  41              	 .cfi_offset 9,-16
  42              	 .cfi_offset 10,-12
  43              	 .cfi_offset 11,-8
  44              	 .cfi_offset 14,-4
  45 0004 87B0     	 sub sp,sp,#28
  46              	.LCFI1:
  47              	 .cfi_def_cfa_offset 64
  48              	 .loc 1 64 0
  49 0006 8346     	 mov fp,r0
  50              	.LVL1:
  51 0008 0393     	 str r3,[sp,#12]
  65:../Dave/Generated/CMSIS_DSP/ComplexMathFunctions/arm_cmplx_dot_prod_q15.c ****   q63_t real_sum = 0, imag_sum = 0;              /* Temporary result storage */
  66:../Dave/Generated/CMSIS_DSP/ComplexMathFunctions/arm_cmplx_dot_prod_q15.c ****   q15_t a0,b0,c0,d0;
  67:../Dave/Generated/CMSIS_DSP/ComplexMathFunctions/arm_cmplx_dot_prod_q15.c **** 
  68:../Dave/Generated/CMSIS_DSP/ComplexMathFunctions/arm_cmplx_dot_prod_q15.c **** #if defined (ARM_MATH_DSP)
  69:../Dave/Generated/CMSIS_DSP/ComplexMathFunctions/arm_cmplx_dot_prod_q15.c **** 
  70:../Dave/Generated/CMSIS_DSP/ComplexMathFunctions/arm_cmplx_dot_prod_q15.c ****   /* Run the below code for Cortex-M4 and Cortex-M3 */
  71:../Dave/Generated/CMSIS_DSP/ComplexMathFunctions/arm_cmplx_dot_prod_q15.c ****   uint32_t blkCnt;                               /* loop counter */
  72:../Dave/Generated/CMSIS_DSP/ComplexMathFunctions/arm_cmplx_dot_prod_q15.c **** 
  73:../Dave/Generated/CMSIS_DSP/ComplexMathFunctions/arm_cmplx_dot_prod_q15.c **** 
  74:../Dave/Generated/CMSIS_DSP/ComplexMathFunctions/arm_cmplx_dot_prod_q15.c ****   /*loop Unrolling */
  75:../Dave/Generated/CMSIS_DSP/ComplexMathFunctions/arm_cmplx_dot_prod_q15.c ****   blkCnt = numSamples >> 2u;
  76:../Dave/Generated/CMSIS_DSP/ComplexMathFunctions/arm_cmplx_dot_prod_q15.c **** 
  77:../Dave/Generated/CMSIS_DSP/ComplexMathFunctions/arm_cmplx_dot_prod_q15.c ****   /* First part of the processing with loop unrolling.  Compute 4 outputs at a time.
  78:../Dave/Generated/CMSIS_DSP/ComplexMathFunctions/arm_cmplx_dot_prod_q15.c ****    ** a second loop below computes the remaining 1 to 3 samples. */
  79:../Dave/Generated/CMSIS_DSP/ComplexMathFunctions/arm_cmplx_dot_prod_q15.c ****   while (blkCnt > 0u)
  52              	 .loc 1 79 0
  53 000a 1346     	 mov r3,r2
  54              	.LVL2:
  55 000c 9B08     	 lsrs r3,r3,#2
  56              	.LVL3:
  64:../Dave/Generated/CMSIS_DSP/ComplexMathFunctions/arm_cmplx_dot_prod_q15.c ****   q63_t real_sum = 0, imag_sum = 0;              /* Temporary result storage */
  57              	 .loc 1 64 0
  58 000e 0D46     	 mov r5,r1
  59 0010 0191     	 str r1,[sp,#4]
  60              	 .loc 1 79 0
  61 0012 4FF00000 	 mov r0,#0
  62              	.LVL4:
  63 0016 4FF00001 	 mov r1,#0
  64              	.LVL5:
  64:../Dave/Generated/CMSIS_DSP/ComplexMathFunctions/arm_cmplx_dot_prod_q15.c ****   q63_t real_sum = 0, imag_sum = 0;              /* Temporary result storage */
  65              	 .loc 1 64 0
  66 001a 0292     	 str r2,[sp,#8]
  67              	 .loc 1 79 0
  68 001c 1C46     	 mov r4,r3
  69 001e 0493     	 str r3,[sp,#16]
  70 0020 0246     	 mov r2,r0
  71              	.LVL6:
  72 0022 0B46     	 mov r3,r1
  73              	.LVL7:
  74 0024 6CD0     	 beq .L2
  75 0026 05F11008 	 add r8,r5,#16
  76 002a 0094     	 str r4,[sp]
  77 002c 0BF11009 	 add r9,fp,#16
  78 0030 0446     	 mov r4,r0
  79              	.LVL8:
  80 0032 0D46     	 mov r5,r1
  81              	.LVL9:
  82 0034 CDF814B0 	 str fp,[sp,#20]
  83              	.LVL10:
  84              	.L3:
  80:../Dave/Generated/CMSIS_DSP/ComplexMathFunctions/arm_cmplx_dot_prod_q15.c ****   {
  81:../Dave/Generated/CMSIS_DSP/ComplexMathFunctions/arm_cmplx_dot_prod_q15.c ****       a0 = *pSrcA++;
  85              	 .loc 1 81 0
  86 0038 39F810CC 	 ldrh ip,[r9,#-16]
  87              	.LVL11:
  82:../Dave/Generated/CMSIS_DSP/ComplexMathFunctions/arm_cmplx_dot_prod_q15.c ****       b0 = *pSrcA++;
  83:../Dave/Generated/CMSIS_DSP/ComplexMathFunctions/arm_cmplx_dot_prod_q15.c ****       c0 = *pSrcB++;
  88              	 .loc 1 83 0
  89 003c 38F810EC 	 ldrh lr,[r8,#-16]
  82:../Dave/Generated/CMSIS_DSP/ComplexMathFunctions/arm_cmplx_dot_prod_q15.c ****       b0 = *pSrcA++;
  90              	 .loc 1 82 0
  91 0040 39F80E7C 	 ldrh r7,[r9,#-14]
  92              	.LVL12:
  84:../Dave/Generated/CMSIS_DSP/ComplexMathFunctions/arm_cmplx_dot_prod_q15.c ****       d0 = *pSrcB++;
  93              	 .loc 1 84 0
  94 0044 38F80E3C 	 ldrh r3,[r8,#-14]
  95              	.LVL13:
  85:../Dave/Generated/CMSIS_DSP/ComplexMathFunctions/arm_cmplx_dot_prod_q15.c **** 
  86:../Dave/Generated/CMSIS_DSP/ComplexMathFunctions/arm_cmplx_dot_prod_q15.c ****       real_sum += (q31_t)a0 * c0;
  87:../Dave/Generated/CMSIS_DSP/ComplexMathFunctions/arm_cmplx_dot_prod_q15.c ****       imag_sum += (q31_t)a0 * d0;
  88:../Dave/Generated/CMSIS_DSP/ComplexMathFunctions/arm_cmplx_dot_prod_q15.c ****       real_sum -= (q31_t)b0 * d0;
  89:../Dave/Generated/CMSIS_DSP/ComplexMathFunctions/arm_cmplx_dot_prod_q15.c ****       imag_sum += (q31_t)b0 * c0;
  90:../Dave/Generated/CMSIS_DSP/ComplexMathFunctions/arm_cmplx_dot_prod_q15.c **** 
  91:../Dave/Generated/CMSIS_DSP/ComplexMathFunctions/arm_cmplx_dot_prod_q15.c ****       a0 = *pSrcA++;
  96              	 .loc 1 91 0
  97 0048 39F80C6C 	 ldrh r6,[r9,#-12]
  92:../Dave/Generated/CMSIS_DSP/ComplexMathFunctions/arm_cmplx_dot_prod_q15.c ****       b0 = *pSrcA++;
  93:../Dave/Generated/CMSIS_DSP/ComplexMathFunctions/arm_cmplx_dot_prod_q15.c ****       c0 = *pSrcB++;
  98              	 .loc 1 93 0
  99 004c 38F80C2C 	 ldrh r2,[r8,#-12]
  86:../Dave/Generated/CMSIS_DSP/ComplexMathFunctions/arm_cmplx_dot_prod_q15.c ****       imag_sum += (q31_t)a0 * d0;
 100              	 .loc 1 86 0
 101 0050 CCFB8E45 	 smlalbb r4,r5,ip,lr
 102              	.LVL14:
  87:../Dave/Generated/CMSIS_DSP/ComplexMathFunctions/arm_cmplx_dot_prod_q15.c ****       real_sum -= (q31_t)b0 * d0;
 103              	 .loc 1 87 0
 104 0054 CCFB8301 	 smlalbb r0,r1,ip,r3
 105              	.LVL15:
  88:../Dave/Generated/CMSIS_DSP/ComplexMathFunctions/arm_cmplx_dot_prod_q15.c ****       imag_sum += (q31_t)b0 * c0;
 106              	 .loc 1 88 0
 107 0058 13FB07F3 	 smulbb r3,r3,r7
 108              	.LVL16:
 109 005c B4EB030A 	 subs r10,r4,r3
 110 0060 65EBE37B 	 sbc fp,r5,r3,asr#31
 111              	.LVL17:
  92:../Dave/Generated/CMSIS_DSP/ComplexMathFunctions/arm_cmplx_dot_prod_q15.c ****       c0 = *pSrcB++;
 112              	 .loc 1 92 0
 113 0064 39F80A4C 	 ldrh r4,[r9,#-10]
  94:../Dave/Generated/CMSIS_DSP/ComplexMathFunctions/arm_cmplx_dot_prod_q15.c ****       d0 = *pSrcB++;
 114              	 .loc 1 94 0
 115 0068 38F80A3C 	 ldrh r3,[r8,#-10]
  95:../Dave/Generated/CMSIS_DSP/ComplexMathFunctions/arm_cmplx_dot_prod_q15.c **** 
  96:../Dave/Generated/CMSIS_DSP/ComplexMathFunctions/arm_cmplx_dot_prod_q15.c ****       real_sum += (q31_t)a0 * c0;
  97:../Dave/Generated/CMSIS_DSP/ComplexMathFunctions/arm_cmplx_dot_prod_q15.c ****       imag_sum += (q31_t)a0 * d0;
  98:../Dave/Generated/CMSIS_DSP/ComplexMathFunctions/arm_cmplx_dot_prod_q15.c ****       real_sum -= (q31_t)b0 * d0;
  99:../Dave/Generated/CMSIS_DSP/ComplexMathFunctions/arm_cmplx_dot_prod_q15.c ****       imag_sum += (q31_t)b0 * c0;
 100:../Dave/Generated/CMSIS_DSP/ComplexMathFunctions/arm_cmplx_dot_prod_q15.c **** 
 101:../Dave/Generated/CMSIS_DSP/ComplexMathFunctions/arm_cmplx_dot_prod_q15.c ****       a0 = *pSrcA++;
 102:../Dave/Generated/CMSIS_DSP/ComplexMathFunctions/arm_cmplx_dot_prod_q15.c ****       b0 = *pSrcA++;
 103:../Dave/Generated/CMSIS_DSP/ComplexMathFunctions/arm_cmplx_dot_prod_q15.c ****       c0 = *pSrcB++;
 104:../Dave/Generated/CMSIS_DSP/ComplexMathFunctions/arm_cmplx_dot_prod_q15.c ****       d0 = *pSrcB++;
 116              	 .loc 1 104 0
 117 006c 38F806CC 	 ldrh ip,[r8,#-6]
 118              	.LVL18:
  98:../Dave/Generated/CMSIS_DSP/ComplexMathFunctions/arm_cmplx_dot_prod_q15.c ****       imag_sum += (q31_t)b0 * c0;
 119              	 .loc 1 98 0
 120 0070 13FB04F5 	 smulbb r5,r3,r4
  96:../Dave/Generated/CMSIS_DSP/ComplexMathFunctions/arm_cmplx_dot_prod_q15.c ****       imag_sum += (q31_t)a0 * d0;
 121              	 .loc 1 96 0
 122 0074 C6FB82AB 	 smlalbb r10,fp,r6,r2
 123              	.LVL19:
  98:../Dave/Generated/CMSIS_DSP/ComplexMathFunctions/arm_cmplx_dot_prod_q15.c ****       imag_sum += (q31_t)b0 * c0;
 124              	 .loc 1 98 0
 125 0078 BAEB050A 	 subs r10,r10,r5
  89:../Dave/Generated/CMSIS_DSP/ComplexMathFunctions/arm_cmplx_dot_prod_q15.c **** 
 126              	 .loc 1 89 0
 127 007c CEFB8701 	 smlalbb r0,r1,lr,r7
 128              	.LVL20:
  97:../Dave/Generated/CMSIS_DSP/ComplexMathFunctions/arm_cmplx_dot_prod_q15.c ****       real_sum -= (q31_t)b0 * d0;
 129              	 .loc 1 97 0
 130 0080 C6FB8301 	 smlalbb r0,r1,r6,r3
 131              	.LVL21:
 103:../Dave/Generated/CMSIS_DSP/ComplexMathFunctions/arm_cmplx_dot_prod_q15.c ****       d0 = *pSrcB++;
 132              	 .loc 1 103 0
 133 0084 38F808EC 	 ldrh lr,[r8,#-8]
 101:../Dave/Generated/CMSIS_DSP/ComplexMathFunctions/arm_cmplx_dot_prod_q15.c ****       b0 = *pSrcA++;
 134              	 .loc 1 101 0
 135 0088 39F8083C 	 ldrh r3,[r9,#-8]
 136              	.LVL22:
 102:../Dave/Generated/CMSIS_DSP/ComplexMathFunctions/arm_cmplx_dot_prod_q15.c ****       c0 = *pSrcB++;
 137              	 .loc 1 102 0
 138 008c 39F8067C 	 ldrh r7,[r9,#-6]
 105:../Dave/Generated/CMSIS_DSP/ComplexMathFunctions/arm_cmplx_dot_prod_q15.c **** 
 106:../Dave/Generated/CMSIS_DSP/ComplexMathFunctions/arm_cmplx_dot_prod_q15.c ****       real_sum += (q31_t)a0 * c0;
 107:../Dave/Generated/CMSIS_DSP/ComplexMathFunctions/arm_cmplx_dot_prod_q15.c ****       imag_sum += (q31_t)a0 * d0;
 108:../Dave/Generated/CMSIS_DSP/ComplexMathFunctions/arm_cmplx_dot_prod_q15.c ****       real_sum -= (q31_t)b0 * d0;
 109:../Dave/Generated/CMSIS_DSP/ComplexMathFunctions/arm_cmplx_dot_prod_q15.c ****       imag_sum += (q31_t)b0 * c0;
 110:../Dave/Generated/CMSIS_DSP/ComplexMathFunctions/arm_cmplx_dot_prod_q15.c **** 
 111:../Dave/Generated/CMSIS_DSP/ComplexMathFunctions/arm_cmplx_dot_prod_q15.c ****       a0 = *pSrcA++;
 139              	 .loc 1 111 0
 140 0090 39F8046C 	 ldrh r6,[r9,#-4]
 141              	.LVL23:
  98:../Dave/Generated/CMSIS_DSP/ComplexMathFunctions/arm_cmplx_dot_prod_q15.c ****       imag_sum += (q31_t)b0 * c0;
 142              	 .loc 1 98 0
 143 0094 6BEBE57B 	 sbc fp,fp,r5,asr#31
 144              	.LVL24:
  99:../Dave/Generated/CMSIS_DSP/ComplexMathFunctions/arm_cmplx_dot_prod_q15.c **** 
 145              	 .loc 1 99 0
 146 0098 C2FB8401 	 smlalbb r0,r1,r2,r4
 147              	.LVL25:
 106:../Dave/Generated/CMSIS_DSP/ComplexMathFunctions/arm_cmplx_dot_prod_q15.c ****       imag_sum += (q31_t)a0 * d0;
 148              	 .loc 1 106 0
 149 009c 5D46     	 mov r5,fp
 150 009e 5446     	 mov r4,r10
 151 00a0 C3FB8E45 	 smlalbb r4,r5,r3,lr
 152              	.LVL26:
 107:../Dave/Generated/CMSIS_DSP/ComplexMathFunctions/arm_cmplx_dot_prod_q15.c ****       real_sum -= (q31_t)b0 * d0;
 153              	 .loc 1 107 0
 154 00a4 C3FB8C01 	 smlalbb r0,r1,r3,ip
 155              	.LVL27:
 108:../Dave/Generated/CMSIS_DSP/ComplexMathFunctions/arm_cmplx_dot_prod_q15.c ****       imag_sum += (q31_t)b0 * c0;
 156              	 .loc 1 108 0
 157 00a8 1CFB07FC 	 smulbb ip,ip,r7
 158              	.LVL28:
 159 00ac B4EB0C04 	 subs r4,r4,ip
 160              	.LVL29:
 161 00b0 65EBEC75 	 sbc r5,r5,ip,asr#31
 162              	.LVL30:
 112:../Dave/Generated/CMSIS_DSP/ComplexMathFunctions/arm_cmplx_dot_prod_q15.c ****       b0 = *pSrcA++;
 113:../Dave/Generated/CMSIS_DSP/ComplexMathFunctions/arm_cmplx_dot_prod_q15.c ****       c0 = *pSrcB++;
 114:../Dave/Generated/CMSIS_DSP/ComplexMathFunctions/arm_cmplx_dot_prod_q15.c ****       d0 = *pSrcB++;
 163              	 .loc 1 114 0
 164 00b4 38F802CC 	 ldrh ip,[r8,#-2]
 112:../Dave/Generated/CMSIS_DSP/ComplexMathFunctions/arm_cmplx_dot_prod_q15.c ****       b0 = *pSrcA++;
 165              	 .loc 1 112 0
 166 00b8 39F8023C 	 ldrh r3,[r9,#-2]
 167              	.LVL31:
 113:../Dave/Generated/CMSIS_DSP/ComplexMathFunctions/arm_cmplx_dot_prod_q15.c ****       d0 = *pSrcB++;
 168              	 .loc 1 113 0
 169 00bc 38F8042C 	 ldrh r2,[r8,#-4]
 109:../Dave/Generated/CMSIS_DSP/ComplexMathFunctions/arm_cmplx_dot_prod_q15.c **** 
 170              	 .loc 1 109 0
 171 00c0 CEFB8701 	 smlalbb r0,r1,lr,r7
 172              	.LVL32:
 115:../Dave/Generated/CMSIS_DSP/ComplexMathFunctions/arm_cmplx_dot_prod_q15.c **** 
 116:../Dave/Generated/CMSIS_DSP/ComplexMathFunctions/arm_cmplx_dot_prod_q15.c ****       real_sum += (q31_t)a0 * c0;
 117:../Dave/Generated/CMSIS_DSP/ComplexMathFunctions/arm_cmplx_dot_prod_q15.c ****       imag_sum += (q31_t)a0 * d0;
 173              	 .loc 1 117 0
 174 00c4 C6FB8C01 	 smlalbb r0,r1,r6,ip
 175              	.LVL33:
 116:../Dave/Generated/CMSIS_DSP/ComplexMathFunctions/arm_cmplx_dot_prod_q15.c ****       imag_sum += (q31_t)a0 * d0;
 176              	 .loc 1 116 0
 177 00c8 C6FB8245 	 smlalbb r4,r5,r6,r2
 178              	.LVL34:
 118:../Dave/Generated/CMSIS_DSP/ComplexMathFunctions/arm_cmplx_dot_prod_q15.c ****       real_sum -= (q31_t)b0 * d0;
 179              	 .loc 1 118 0
 180 00cc 1CFB03FC 	 smulbb ip,ip,r3
 181              	.LVL35:
 119:../Dave/Generated/CMSIS_DSP/ComplexMathFunctions/arm_cmplx_dot_prod_q15.c ****       imag_sum += (q31_t)b0 * c0;
 182              	 .loc 1 119 0
 183 00d0 C2FB8301 	 smlalbb r0,r1,r2,r3
 184              	.LVL36:
  79:../Dave/Generated/CMSIS_DSP/ComplexMathFunctions/arm_cmplx_dot_prod_q15.c ****   {
 185              	 .loc 1 79 0
 186 00d4 009B     	 ldr r3,[sp]
 187              	.LVL37:
 118:../Dave/Generated/CMSIS_DSP/ComplexMathFunctions/arm_cmplx_dot_prod_q15.c ****       real_sum -= (q31_t)b0 * d0;
 188              	 .loc 1 118 0
 189 00d6 B4EB0C04 	 subs r4,r4,ip
 190              	.LVL38:
 191 00da 65EBEC75 	 sbc r5,r5,ip,asr#31
 192              	.LVL39:
  79:../Dave/Generated/CMSIS_DSP/ComplexMathFunctions/arm_cmplx_dot_prod_q15.c ****   {
 193              	 .loc 1 79 0
 194 00de 013B     	 subs r3,r3,#1
 195              	.LVL40:
 196 00e0 09F11009 	 add r9,r9,#16
 197              	.LVL41:
 198 00e4 08F11008 	 add r8,r8,#16
 199              	.LVL42:
 200 00e8 0093     	 str r3,[sp]
 201 00ea A5D1     	 bne .L3
 202 00ec 2246     	 mov r2,r4
 203              	.LVL43:
 204 00ee 049C     	 ldr r4,[sp,#16]
 205              	.LVL44:
 206 00f0 DDF814B0 	 ldr fp,[sp,#20]
 207 00f4 2B46     	 mov r3,r5
 208              	.LVL45:
 209 00f6 019D     	 ldr r5,[sp,#4]
 210 00f8 2401     	 lsls r4,r4,#4
 211              	.LVL46:
 212 00fa 2544     	 add r5,r5,r4
 213 00fc A344     	 add fp,fp,r4
 214              	.LVL47:
 215 00fe 0195     	 str r5,[sp,#4]
 216              	.LVL48:
 217              	.L2:
 120:../Dave/Generated/CMSIS_DSP/ComplexMathFunctions/arm_cmplx_dot_prod_q15.c **** 
 121:../Dave/Generated/CMSIS_DSP/ComplexMathFunctions/arm_cmplx_dot_prod_q15.c ****       /* Decrement the loop counter */
 122:../Dave/Generated/CMSIS_DSP/ComplexMathFunctions/arm_cmplx_dot_prod_q15.c ****       blkCnt--;
 123:../Dave/Generated/CMSIS_DSP/ComplexMathFunctions/arm_cmplx_dot_prod_q15.c ****   }
 124:../Dave/Generated/CMSIS_DSP/ComplexMathFunctions/arm_cmplx_dot_prod_q15.c **** 
 125:../Dave/Generated/CMSIS_DSP/ComplexMathFunctions/arm_cmplx_dot_prod_q15.c ****   /* If the numSamples is not a multiple of 4, compute any remaining output samples here.
 126:../Dave/Generated/CMSIS_DSP/ComplexMathFunctions/arm_cmplx_dot_prod_q15.c ****    ** No loop unrolling is used. */
 127:../Dave/Generated/CMSIS_DSP/ComplexMathFunctions/arm_cmplx_dot_prod_q15.c ****   blkCnt = numSamples % 0x4u;
 128:../Dave/Generated/CMSIS_DSP/ComplexMathFunctions/arm_cmplx_dot_prod_q15.c **** 
 129:../Dave/Generated/CMSIS_DSP/ComplexMathFunctions/arm_cmplx_dot_prod_q15.c ****   while (blkCnt > 0u)
 218              	 .loc 1 129 0
 219 0100 029C     	 ldr r4,[sp,#8]
 220 0102 14F00306 	 ands r6,r4,#3
 221              	.LVL49:
 222 0106 21D0     	 beq .L4
 223 0108 019D     	 ldr r5,[sp,#4]
 224              	.LVL50:
 225 010a 0BF1040B 	 add fp,fp,#4
 226              	.LVL51:
 227 010e 0435     	 adds r5,r5,#4
 228 0110 9046     	 mov r8,r2
 229 0112 9946     	 mov r9,r3
 230              	.LVL52:
 231              	.L5:
 130:../Dave/Generated/CMSIS_DSP/ComplexMathFunctions/arm_cmplx_dot_prod_q15.c ****   {
 131:../Dave/Generated/CMSIS_DSP/ComplexMathFunctions/arm_cmplx_dot_prod_q15.c ****       a0 = *pSrcA++;
 232              	 .loc 1 131 0
 233 0114 3BF8047C 	 ldrh r7,[fp,#-4]
 234              	.LVL53:
 132:../Dave/Generated/CMSIS_DSP/ComplexMathFunctions/arm_cmplx_dot_prod_q15.c ****       b0 = *pSrcA++;
 133:../Dave/Generated/CMSIS_DSP/ComplexMathFunctions/arm_cmplx_dot_prod_q15.c ****       c0 = *pSrcB++;
 235              	 .loc 1 133 0
 236 0118 35F8044C 	 ldrh r4,[r5,#-4]
 132:../Dave/Generated/CMSIS_DSP/ComplexMathFunctions/arm_cmplx_dot_prod_q15.c ****       b0 = *pSrcA++;
 237              	 .loc 1 132 0
 238 011c 3BF8022C 	 ldrh r2,[fp,#-2]
 239              	.LVL54:
 134:../Dave/Generated/CMSIS_DSP/ComplexMathFunctions/arm_cmplx_dot_prod_q15.c ****       d0 = *pSrcB++;
 240              	 .loc 1 134 0
 241 0120 35F8023C 	 ldrh r3,[r5,#-2]
 242              	.LVL55:
 135:../Dave/Generated/CMSIS_DSP/ComplexMathFunctions/arm_cmplx_dot_prod_q15.c **** 
 136:../Dave/Generated/CMSIS_DSP/ComplexMathFunctions/arm_cmplx_dot_prod_q15.c ****       real_sum += (q31_t)a0 * c0;
 243              	 .loc 1 136 0
 244 0124 C7FB8489 	 smlalbb r8,r9,r7,r4
 245              	.LVL56:
 137:../Dave/Generated/CMSIS_DSP/ComplexMathFunctions/arm_cmplx_dot_prod_q15.c ****       imag_sum += (q31_t)a0 * d0;
 246              	 .loc 1 137 0
 247 0128 C7FB8301 	 smlalbb r0,r1,r7,r3
 248              	.LVL57:
 138:../Dave/Generated/CMSIS_DSP/ComplexMathFunctions/arm_cmplx_dot_prod_q15.c ****       real_sum -= (q31_t)b0 * d0;
 249              	 .loc 1 138 0
 250 012c 13FB02F3 	 smulbb r3,r3,r2
 251              	.LVL58:
 252 0130 B8EB0308 	 subs r8,r8,r3
 253              	.LVL59:
 254 0134 69EBE379 	 sbc r9,r9,r3,asr#31
 255              	.LVL60:
 129:../Dave/Generated/CMSIS_DSP/ComplexMathFunctions/arm_cmplx_dot_prod_q15.c ****   {
 256              	 .loc 1 129 0
 257 0138 013E     	 subs r6,r6,#1
 258              	.LVL61:
 259 013a 0BF1040B 	 add fp,fp,#4
 260              	.LVL62:
 139:../Dave/Generated/CMSIS_DSP/ComplexMathFunctions/arm_cmplx_dot_prod_q15.c ****       imag_sum += (q31_t)b0 * c0;
 261              	 .loc 1 139 0
 262 013e C4FB8201 	 smlalbb r0,r1,r4,r2
 263              	.LVL63:
 264 0142 05F10405 	 add r5,r5,#4
 265              	.LVL64:
 129:../Dave/Generated/CMSIS_DSP/ComplexMathFunctions/arm_cmplx_dot_prod_q15.c ****   {
 266              	 .loc 1 129 0
 267 0146 E5D1     	 bne .L5
 268 0148 4246     	 mov r2,r8
 269              	.LVL65:
 270 014a 4B46     	 mov r3,r9
 271              	.LVL66:
 272              	.L4:
 140:../Dave/Generated/CMSIS_DSP/ComplexMathFunctions/arm_cmplx_dot_prod_q15.c **** 
 141:../Dave/Generated/CMSIS_DSP/ComplexMathFunctions/arm_cmplx_dot_prod_q15.c ****       /* Decrement the loop counter */
 142:../Dave/Generated/CMSIS_DSP/ComplexMathFunctions/arm_cmplx_dot_prod_q15.c ****       blkCnt--;
 143:../Dave/Generated/CMSIS_DSP/ComplexMathFunctions/arm_cmplx_dot_prod_q15.c ****   }
 144:../Dave/Generated/CMSIS_DSP/ComplexMathFunctions/arm_cmplx_dot_prod_q15.c **** 
 145:../Dave/Generated/CMSIS_DSP/ComplexMathFunctions/arm_cmplx_dot_prod_q15.c **** #else
 146:../Dave/Generated/CMSIS_DSP/ComplexMathFunctions/arm_cmplx_dot_prod_q15.c **** 
 147:../Dave/Generated/CMSIS_DSP/ComplexMathFunctions/arm_cmplx_dot_prod_q15.c ****   /* Run the below code for Cortex-M0 */
 148:../Dave/Generated/CMSIS_DSP/ComplexMathFunctions/arm_cmplx_dot_prod_q15.c **** 
 149:../Dave/Generated/CMSIS_DSP/ComplexMathFunctions/arm_cmplx_dot_prod_q15.c ****   while (numSamples > 0u)
 150:../Dave/Generated/CMSIS_DSP/ComplexMathFunctions/arm_cmplx_dot_prod_q15.c ****   {
 151:../Dave/Generated/CMSIS_DSP/ComplexMathFunctions/arm_cmplx_dot_prod_q15.c ****       a0 = *pSrcA++;
 152:../Dave/Generated/CMSIS_DSP/ComplexMathFunctions/arm_cmplx_dot_prod_q15.c ****       b0 = *pSrcA++;
 153:../Dave/Generated/CMSIS_DSP/ComplexMathFunctions/arm_cmplx_dot_prod_q15.c ****       c0 = *pSrcB++;
 154:../Dave/Generated/CMSIS_DSP/ComplexMathFunctions/arm_cmplx_dot_prod_q15.c ****       d0 = *pSrcB++;
 155:../Dave/Generated/CMSIS_DSP/ComplexMathFunctions/arm_cmplx_dot_prod_q15.c **** 
 156:../Dave/Generated/CMSIS_DSP/ComplexMathFunctions/arm_cmplx_dot_prod_q15.c ****       real_sum += a0 * c0;
 157:../Dave/Generated/CMSIS_DSP/ComplexMathFunctions/arm_cmplx_dot_prod_q15.c ****       imag_sum += a0 * d0;
 158:../Dave/Generated/CMSIS_DSP/ComplexMathFunctions/arm_cmplx_dot_prod_q15.c ****       real_sum -= b0 * d0;
 159:../Dave/Generated/CMSIS_DSP/ComplexMathFunctions/arm_cmplx_dot_prod_q15.c ****       imag_sum += b0 * c0;
 160:../Dave/Generated/CMSIS_DSP/ComplexMathFunctions/arm_cmplx_dot_prod_q15.c **** 
 161:../Dave/Generated/CMSIS_DSP/ComplexMathFunctions/arm_cmplx_dot_prod_q15.c **** 
 162:../Dave/Generated/CMSIS_DSP/ComplexMathFunctions/arm_cmplx_dot_prod_q15.c ****       /* Decrement the loop counter */
 163:../Dave/Generated/CMSIS_DSP/ComplexMathFunctions/arm_cmplx_dot_prod_q15.c ****       numSamples--;
 164:../Dave/Generated/CMSIS_DSP/ComplexMathFunctions/arm_cmplx_dot_prod_q15.c ****   }
 165:../Dave/Generated/CMSIS_DSP/ComplexMathFunctions/arm_cmplx_dot_prod_q15.c **** 
 166:../Dave/Generated/CMSIS_DSP/ComplexMathFunctions/arm_cmplx_dot_prod_q15.c **** #endif /* #if defined (ARM_MATH_DSP) */
 167:../Dave/Generated/CMSIS_DSP/ComplexMathFunctions/arm_cmplx_dot_prod_q15.c **** 
 168:../Dave/Generated/CMSIS_DSP/ComplexMathFunctions/arm_cmplx_dot_prod_q15.c ****   /* Store the real and imaginary results in 8.24 format  */
 169:../Dave/Generated/CMSIS_DSP/ComplexMathFunctions/arm_cmplx_dot_prod_q15.c ****   /* Convert real data in 34.30 to 8.24 by 6 right shifts */
 170:../Dave/Generated/CMSIS_DSP/ComplexMathFunctions/arm_cmplx_dot_prod_q15.c ****   *realResult = (q31_t) (real_sum >> 6);
 273              	 .loc 1 170 0
 274 014c 9409     	 lsrs r4,r2,#6
 275 014e 44EA8364 	 orr r4,r4,r3,lsl#26
 276 0152 039B     	 ldr r3,[sp,#12]
 171:../Dave/Generated/CMSIS_DSP/ComplexMathFunctions/arm_cmplx_dot_prod_q15.c ****   /* Convert imaginary data in 34.30 to 8.24 by 6 right shifts */
 172:../Dave/Generated/CMSIS_DSP/ComplexMathFunctions/arm_cmplx_dot_prod_q15.c ****   *imagResult = (q31_t) (imag_sum >> 6);
 277              	 .loc 1 172 0
 278 0154 8209     	 lsrs r2,r0,#6
 170:../Dave/Generated/CMSIS_DSP/ComplexMathFunctions/arm_cmplx_dot_prod_q15.c ****   /* Convert imaginary data in 34.30 to 8.24 by 6 right shifts */
 279              	 .loc 1 170 0
 280 0156 1C60     	 str r4,[r3]
 281              	 .loc 1 172 0
 282 0158 109B     	 ldr r3,[sp,#64]
 283 015a 42EA8162 	 orr r2,r2,r1,lsl#26
 284 015e 1A60     	 str r2,[r3]
 173:../Dave/Generated/CMSIS_DSP/ComplexMathFunctions/arm_cmplx_dot_prod_q15.c **** }
 285              	 .loc 1 173 0
 286 0160 07B0     	 add sp,sp,#28
 287              	.LCFI2:
 288              	 .cfi_def_cfa_offset 36
 289              	 
 290 0162 BDE8F08F 	 pop {r4,r5,r6,r7,r8,r9,r10,fp,pc}
 291              	 .cfi_endproc
 292              	.LFE135:
 294 0166 00BF     	 .text
 295              	.Letext0:
 296              	 .file 2 "c:\\infineon\\tools\\dave ide\\4.5.0.202105191637\\eclipse\\arm-gcc-49\\arm-none-eabi\\include\\machine\\_default_types.h"
 297              	 .file 3 "c:\\infineon\\tools\\dave ide\\4.5.0.202105191637\\eclipse\\arm-gcc-49\\arm-none-eabi\\include\\stdint.h"
 298              	 .file 4 "C:/Users/Utente/Desktop/Tesi/Firmware_Software/DAVE project/S2GLP_Pulsed_Doppler/Dave/Generated/CMSIS_DSP/arm_math.h"