   1              	 .syntax unified
   2              	 .cpu cortex-m4
   3              	 .eabi_attribute 27,3
   4              	 .fpu fpv4-sp-d16
   5              	 .eabi_attribute 20,1
   6              	 .eabi_attribute 21,1
   7              	 .eabi_attribute 23,3
   8              	 .eabi_attribute 24,1
   9              	 .eabi_attribute 25,1
  10              	 .eabi_attribute 26,1
  11              	 .eabi_attribute 30,2
  12              	 .eabi_attribute 34,1
  13              	 .eabi_attribute 18,4
  14              	 .thumb
  15              	 .file "radar_control.c"
  16              	 .text
  17              	.Ltext0:
  18              	 .cfi_sections .debug_frame
  19              	 .section .text.radar_init,"ax",%progbits
  20              	 .align 2
  21              	 .global radar_init
  22              	 .thumb
  23              	 .thumb_func
  25              	radar_init:
  26              	.LFB529:
  27              	 .file 1 "../Radar_Control/src/radar_control.c"
   1:../Radar_Control/src/radar_control.c **** /**
   2:../Radar_Control/src/radar_control.c ****     @file: radar_control.c
   3:../Radar_Control/src/radar_control.c **** 
   4:../Radar_Control/src/radar_control.c ****     @brief: This file contains common API definition valid for all radar 
   5:../Radar_Control/src/radar_control.c ****             operations related to MCU, BGT, PLL.
   6:../Radar_Control/src/radar_control.c **** */
   7:../Radar_Control/src/radar_control.c **** 
   8:../Radar_Control/src/radar_control.c **** /* ===========================================================================
   9:../Radar_Control/src/radar_control.c **** ** Copyright (C) 2018-2021 Infineon Technologies AG
  10:../Radar_Control/src/radar_control.c **** ** All rights reserved.
  11:../Radar_Control/src/radar_control.c **** ** ===========================================================================
  12:../Radar_Control/src/radar_control.c **** **
  13:../Radar_Control/src/radar_control.c **** ** ===========================================================================
  14:../Radar_Control/src/radar_control.c **** ** This document contains proprietary information of Infineon Technologies AG.
  15:../Radar_Control/src/radar_control.c **** ** Passing on and copying of this document, and communication of its contents
  16:../Radar_Control/src/radar_control.c **** ** is not permitted without Infineon's prior written authorization.
  17:../Radar_Control/src/radar_control.c **** ** ===========================================================================
  18:../Radar_Control/src/radar_control.c **** */
  19:../Radar_Control/src/radar_control.c **** 
  20:../Radar_Control/src/radar_control.c **** /*
  21:../Radar_Control/src/radar_control.c **** ==============================================================================
  22:../Radar_Control/src/radar_control.c ****     1. INCLUDE FILES
  23:../Radar_Control/src/radar_control.c **** ==============================================================================
  24:../Radar_Control/src/radar_control.c ****  */
  25:../Radar_Control/src/radar_control.c **** 
  26:../Radar_Control/src/radar_control.c **** #include "sense2gol_bsp.h"
  27:../Radar_Control/src/radar_control.c **** #include "sense2gol_bsp_limits.h"
  28:../Radar_Control/src/radar_control.c **** #include "radar_api.h"
  29:../Radar_Control/src/radar_control.c **** #include "radar_control.h"
  30:../Radar_Control/src/radar_control.c **** #include "ds_radar_interface.h"
  31:../Radar_Control/src/radar_control.c **** 
  32:../Radar_Control/src/radar_control.c **** /*
  33:../Radar_Control/src/radar_control.c **** ==============================================================================
  34:../Radar_Control/src/radar_control.c ****    2. LOCAL DEFINITIONS
  35:../Radar_Control/src/radar_control.c **** ==============================================================================
  36:../Radar_Control/src/radar_control.c ****  */
  37:../Radar_Control/src/radar_control.c **** 
  38:../Radar_Control/src/radar_control.c **** /*
  39:../Radar_Control/src/radar_control.c **** ==============================================================================
  40:../Radar_Control/src/radar_control.c ****    3. LOCAL TYPES
  41:../Radar_Control/src/radar_control.c **** ==============================================================================
  42:../Radar_Control/src/radar_control.c ****  */
  43:../Radar_Control/src/radar_control.c **** 
  44:../Radar_Control/src/radar_control.c **** /*
  45:../Radar_Control/src/radar_control.c **** ==============================================================================
  46:../Radar_Control/src/radar_control.c ****    4. DATA
  47:../Radar_Control/src/radar_control.c **** ==============================================================================
  48:../Radar_Control/src/radar_control.c ****  */
  49:../Radar_Control/src/radar_control.c **** 
  50:../Radar_Control/src/radar_control.c **** volatile  uint32_t    g_adc_sampling_completed = false;
  51:../Radar_Control/src/radar_control.c **** 
  52:../Radar_Control/src/radar_control.c **** Radar_Data_Acq_Mode_t  s_data_acq_mode = RADAR_MANUAL_TRIGGER_MODE;
  53:../Radar_Control/src/radar_control.c **** 
  54:../Radar_Control/src/radar_control.c **** /*
  55:../Radar_Control/src/radar_control.c **** ==============================================================================
  56:../Radar_Control/src/radar_control.c ****    5. LOCAL FUNCTION PROTOTYPES
  57:../Radar_Control/src/radar_control.c **** ==============================================================================
  58:../Radar_Control/src/radar_control.c ****  */
  59:../Radar_Control/src/radar_control.c **** 
  60:../Radar_Control/src/radar_control.c **** /*
  61:../Radar_Control/src/radar_control.c **** ==============================================================================
  62:../Radar_Control/src/radar_control.c ****     6. EXPORTED FUNCTIONS
  63:../Radar_Control/src/radar_control.c **** ==============================================================================
  64:../Radar_Control/src/radar_control.c ****  */
  65:../Radar_Control/src/radar_control.c **** 
  66:../Radar_Control/src/radar_control.c **** uint16_t radar_init(Radar_Handle_t device)
  67:../Radar_Control/src/radar_control.c **** {
  28              	 .loc 1 67 0
  29              	 .cfi_startproc
  30              	 
  31              	 
  32              	.LVL0:
  33 0000 10B5     	 push {r4,lr}
  34              	.LCFI0:
  35              	 .cfi_def_cfa_offset 8
  36              	 .cfi_offset 4,-8
  37              	 .cfi_offset 14,-4
  68:../Radar_Control/src/radar_control.c ****   uint16_t status = RADAR_ERR_OK;
  69:../Radar_Control/src/radar_control.c **** 
  70:../Radar_Control/src/radar_control.c ****   device_settings_t *p_Dev = ds_device_get_settings();
  38              	 .loc 1 70 0
  39 0002 FFF7FEFF 	 bl ds_device_get_settings
  40              	.LVL1:
  41 0006 0446     	 mov r4,r0
  42              	.LVL2:
  71:../Radar_Control/src/radar_control.c ****   
  72:../Radar_Control/src/radar_control.c ****   /* USB and DMA Setup */
  73:../Radar_Control/src/radar_control.c ****   acq_buf_obj *p_acq_buf = ds_get_active_acq_buf();
  43              	 .loc 1 73 0
  44 0008 FFF7FEFF 	 bl ds_get_active_acq_buf
  45              	.LVL3:
  74:../Radar_Control/src/radar_control.c **** 
  75:../Radar_Control/src/radar_control.c ****   bsp_dma_set_adc_control_from_acq_buf_obj(p_acq_buf);
  46              	 .loc 1 75 0
  47 000c FFF7FEFF 	 bl bsp_dma_set_adc_control_from_acq_buf_obj
  48              	.LVL4:
  76:../Radar_Control/src/radar_control.c ****   
  77:../Radar_Control/src/radar_control.c ****   status |= (uint16_t) bsp_init(p_Dev);
  49              	 .loc 1 77 0
  50 0010 2046     	 mov r0,r4
  51 0012 FFF7FEFF 	 bl bsp_init
  52              	.LVL5:
  78:../Radar_Control/src/radar_control.c ****   
  79:../Radar_Control/src/radar_control.c ****   status |= radar_set_sampling_freq(device, p_Dev->pll_modulation_mode, p_Dev->adc_sampling_freq_Hz
  53              	 .loc 1 79 0
  54 0016 D4ED057A 	 flds s15,[r4,#20]
  55              	.LBB6:
  56              	.LBB7:
  80:../Radar_Control/src/radar_control.c ****   
  81:../Radar_Control/src/radar_control.c ****   return (status);
  82:../Radar_Control/src/radar_control.c **** }
  83:../Radar_Control/src/radar_control.c **** 
  84:../Radar_Control/src/radar_control.c **** //============================================================================
  85:../Radar_Control/src/radar_control.c **** 
  86:../Radar_Control/src/radar_control.c **** uint16_t radar_start_acquisition(Radar_Handle_t device)
  87:../Radar_Control/src/radar_control.c **** {
  88:../Radar_Control/src/radar_control.c ****   uint16_t status = RADAR_ERR_BUSY;
  89:../Radar_Control/src/radar_control.c ****   
  90:../Radar_Control/src/radar_control.c ****   if (ds_device_get_settings()->frame_period_usec > 0)
  91:../Radar_Control/src/radar_control.c ****   {
  92:../Radar_Control/src/radar_control.c ****     status = radar_set_automatic_frame_trigger(device, ds_device_get_settings()->frame_period_usec)
  93:../Radar_Control/src/radar_control.c ****   }
  94:../Radar_Control/src/radar_control.c ****   return (status);
  95:../Radar_Control/src/radar_control.c **** }
  96:../Radar_Control/src/radar_control.c **** 
  97:../Radar_Control/src/radar_control.c **** //============================================================================
  98:../Radar_Control/src/radar_control.c **** 
  99:../Radar_Control/src/radar_control.c **** uint16_t radar_stop_acquisition(Radar_Handle_t device)
 100:../Radar_Control/src/radar_control.c **** {
 101:../Radar_Control/src/radar_control.c ****   uint16_t status = RADAR_ERR_BUSY;
 102:../Radar_Control/src/radar_control.c ****   
 103:../Radar_Control/src/radar_control.c ****   status = radar_set_automatic_frame_trigger(device , 0);
 104:../Radar_Control/src/radar_control.c ****   
 105:../Radar_Control/src/radar_control.c ****   return (status);
 106:../Radar_Control/src/radar_control.c **** }
 107:../Radar_Control/src/radar_control.c **** 
 108:../Radar_Control/src/radar_control.c **** //============================================================================
 109:../Radar_Control/src/radar_control.c **** 
 110:../Radar_Control/src/radar_control.c **** 
 111:../Radar_Control/src/radar_control.c **** void radar_get_frame_period(Radar_Handle_t device, uint32_t* time_msec)
 112:../Radar_Control/src/radar_control.c **** {
 113:../Radar_Control/src/radar_control.c ****   XMC_UNUSED_ARG(device);
 114:../Radar_Control/src/radar_control.c ****   
 115:../Radar_Control/src/radar_control.c ****   *time_msec = (ds_device_get_settings()->frame_period_usec / 1000);
 116:../Radar_Control/src/radar_control.c **** }
 117:../Radar_Control/src/radar_control.c **** 
 118:../Radar_Control/src/radar_control.c **** //============================================================================
 119:../Radar_Control/src/radar_control.c **** 
 120:../Radar_Control/src/radar_control.c **** uint16_t radar_set_sampling_freq(Radar_Handle_t device, Modulation_Type_t modulation_type, const fl
 121:../Radar_Control/src/radar_control.c **** {
 122:../Radar_Control/src/radar_control.c ****   XMC_UNUSED_ARG(device);
 123:../Radar_Control/src/radar_control.c ****   XMC_UNUSED_ARG(modulation_type);
 124:../Radar_Control/src/radar_control.c ****   XMC_UNUSED_ARG(freq_hz);
 125:../Radar_Control/src/radar_control.c **** 
 126:../Radar_Control/src/radar_control.c ****   //FIXME: Add settings freq here
 127:../Radar_Control/src/radar_control.c **** 
 128:../Radar_Control/src/radar_control.c ****   if (((uint32_t)freq_hz <= 0) || ((uint32_t)freq_hz > BSP_MAX_ADC_FREQ_HZ))
  57              	 .loc 1 128 0
  58 001a 074A     	 ldr r2,.L5
  59              	.LBE7:
  60              	.LBE6:
  79:../Radar_Control/src/radar_control.c ****   
  61              	 .loc 1 79 0
  62 001c F8EE677A 	 fuitos s15,s15
  77:../Radar_Control/src/radar_control.c ****   
  63              	 .loc 1 77 0
  64 0020 80B2     	 uxth r0,r0
  65              	.LVL6:
  66              	.LBB9:
  67              	.LBB8:
  68              	 .loc 1 128 0
  69 0022 FCEEE77A 	 ftouizs s15,s15
  70 0026 17EE903A 	 fmrs r3,s15
  71 002a 013B     	 subs r3,r3,#1
 129:../Radar_Control/src/radar_control.c ****   {
 130:../Radar_Control/src/radar_control.c ****     return RADAR_ERR_BUSY;
 131:../Radar_Control/src/radar_control.c ****   }
 132:../Radar_Control/src/radar_control.c **** 
 133:../Radar_Control/src/radar_control.c ****   return (RADAR_ERR_OK);
  72              	 .loc 1 133 0
  73 002c 9342     	 cmp r3,r2
  74 002e 8CBF     	 ite hi
  75 0030 0223     	 movhi r3,#2
  76 0032 0023     	 movls r3,#0
  77              	.LVL7:
  78              	.LBE8:
  79              	.LBE9:
  82:../Radar_Control/src/radar_control.c **** 
  80              	 .loc 1 82 0
  81 0034 1843     	 orrs r0,r0,r3
  82              	.LVL8:
  83 0036 10BD     	 pop {r4,pc}
  84              	.LVL9:
  85              	.L6:
  86              	 .align 2
  87              	.L5:
  88 0038 5FE31600 	 .word 1499999
  89              	 .cfi_endproc
  90              	.LFE529:
  92              	 .section .text.radar_start_acquisition,"ax",%progbits
  93              	 .align 2
  94              	 .global radar_start_acquisition
  95              	 .thumb
  96              	 .thumb_func
  98              	radar_start_acquisition:
  99              	.LFB530:
  87:../Radar_Control/src/radar_control.c ****   uint16_t status = RADAR_ERR_BUSY;
 100              	 .loc 1 87 0
 101              	 .cfi_startproc
 102              	 
 103              	 
 104              	.LVL10:
 105 0000 10B5     	 push {r4,lr}
 106              	.LCFI1:
 107              	 .cfi_def_cfa_offset 8
 108              	 .cfi_offset 4,-8
 109              	 .cfi_offset 14,-4
  87:../Radar_Control/src/radar_control.c ****   uint16_t status = RADAR_ERR_BUSY;
 110              	 .loc 1 87 0
 111 0002 0446     	 mov r4,r0
  90:../Radar_Control/src/radar_control.c ****   {
 112              	 .loc 1 90 0
 113 0004 FFF7FEFF 	 bl ds_device_get_settings
 114              	.LVL11:
 115 0008 036A     	 ldr r3,[r0,#32]
 116 000a 0BB9     	 cbnz r3,.L11
  95:../Radar_Control/src/radar_control.c **** 
 117              	 .loc 1 95 0
 118 000c 0220     	 movs r0,#2
 119 000e 10BD     	 pop {r4,pc}
 120              	.LVL12:
 121              	.L11:
  92:../Radar_Control/src/radar_control.c ****   }
 122              	 .loc 1 92 0
 123 0010 FFF7FEFF 	 bl ds_device_get_settings
 124              	.LVL13:
 125 0014 016A     	 ldr r1,[r0,#32]
 126 0016 2046     	 mov r0,r4
  95:../Radar_Control/src/radar_control.c **** 
 127              	 .loc 1 95 0
 128 0018 BDE81040 	 pop {r4,lr}
 129              	.LCFI2:
 130              	 .cfi_restore 14
 131              	 .cfi_restore 4
 132              	 .cfi_def_cfa_offset 0
 133              	.LVL14:
  92:../Radar_Control/src/radar_control.c ****   }
 134              	 .loc 1 92 0
 135 001c FFF7FEBF 	 b radar_set_automatic_frame_trigger
 136              	.LVL15:
 137              	 .cfi_endproc
 138              	.LFE530:
 140              	 .section .text.radar_stop_acquisition,"ax",%progbits
 141              	 .align 2
 142              	 .global radar_stop_acquisition
 143              	 .thumb
 144              	 .thumb_func
 146              	radar_stop_acquisition:
 147              	.LFB531:
 100:../Radar_Control/src/radar_control.c ****   uint16_t status = RADAR_ERR_BUSY;
 148              	 .loc 1 100 0
 149              	 .cfi_startproc
 150              	 
 151              	 
 152              	 
 153              	.LVL16:
 103:../Radar_Control/src/radar_control.c ****   
 154              	 .loc 1 103 0
 155 0000 0021     	 movs r1,#0
 156 0002 FFF7FEBF 	 b radar_set_automatic_frame_trigger
 157              	.LVL17:
 158              	 .cfi_endproc
 159              	.LFE531:
 161 0006 00BF     	 .section .text.radar_get_frame_period,"ax",%progbits
 162              	 .align 2
 163              	 .global radar_get_frame_period
 164              	 .thumb
 165              	 .thumb_func
 167              	radar_get_frame_period:
 168              	.LFB532:
 112:../Radar_Control/src/radar_control.c ****   XMC_UNUSED_ARG(device);
 169              	 .loc 1 112 0
 170              	 .cfi_startproc
 171              	 
 172              	 
 173              	.LVL18:
 174 0000 10B5     	 push {r4,lr}
 175              	.LCFI3:
 176              	 .cfi_def_cfa_offset 8
 177              	 .cfi_offset 4,-8
 178              	 .cfi_offset 14,-4
 112:../Radar_Control/src/radar_control.c ****   XMC_UNUSED_ARG(device);
 179              	 .loc 1 112 0
 180 0002 0C46     	 mov r4,r1
 115:../Radar_Control/src/radar_control.c **** }
 181              	 .loc 1 115 0
 182 0004 FFF7FEFF 	 bl ds_device_get_settings
 183              	.LVL19:
 184 0008 034A     	 ldr r2,.L15
 185 000a 036A     	 ldr r3,[r0,#32]
 186 000c A2FB0323 	 umull r2,r3,r2,r3
 187 0010 9B09     	 lsrs r3,r3,#6
 188 0012 2360     	 str r3,[r4]
 189 0014 10BD     	 pop {r4,pc}
 190              	.LVL20:
 191              	.L16:
 192 0016 00BF     	 .align 2
 193              	.L15:
 194 0018 D34D6210 	 .word 274877907
 195              	 .cfi_endproc
 196              	.LFE532:
 198              	 .section .text.radar_set_sampling_freq,"ax",%progbits
 199              	 .align 2
 200              	 .global radar_set_sampling_freq
 201              	 .thumb
 202              	 .thumb_func
 204              	radar_set_sampling_freq:
 205              	.LFB533:
 121:../Radar_Control/src/radar_control.c ****   XMC_UNUSED_ARG(device);
 206              	 .loc 1 121 0
 207              	 .cfi_startproc
 208              	 
 209              	 
 210              	 
 211              	.LVL21:
 128:../Radar_Control/src/radar_control.c ****   {
 212              	 .loc 1 128 0
 213 0000 07EE902A 	 fmsr s15,r2
 214 0004 FCEEE77A 	 ftouizs s15,s15
 215 0008 0448     	 ldr r0,.L20
 216              	.LVL22:
 217 000a 17EE902A 	 fmrs r2,s15
 218              	.LVL23:
 219 000e 013A     	 subs r2,r2,#1
 134:../Radar_Control/src/radar_control.c **** }
 220              	 .loc 1 134 0
 221 0010 8242     	 cmp r2,r0
 222 0012 8CBF     	 ite hi
 223 0014 0220     	 movhi r0,#2
 224 0016 0020     	 movls r0,#0
 225 0018 7047     	 bx lr
 226              	.L21:
 227 001a 00BF     	 .align 2
 228              	.L20:
 229 001c 5FE31600 	 .word 1499999
 230              	 .cfi_endproc
 231              	.LFE533:
 233              	 .section .text.radar_get_sampling_freq,"ax",%progbits
 234              	 .align 2
 235              	 .global radar_get_sampling_freq
 236              	 .thumb
 237              	 .thumb_func
 239              	radar_get_sampling_freq:
 240              	.LFB534:
 135:../Radar_Control/src/radar_control.c **** 
 136:../Radar_Control/src/radar_control.c **** //============================================================================
 137:../Radar_Control/src/radar_control.c **** 
 138:../Radar_Control/src/radar_control.c **** void radar_get_sampling_freq(Radar_Handle_t device, float* freq_Hz)
 139:../Radar_Control/src/radar_control.c **** {
 241              	 .loc 1 139 0
 242              	 .cfi_startproc
 243              	 
 244              	 
 245              	.LVL24:
 246 0000 10B5     	 push {r4,lr}
 247              	.LCFI4:
 248              	 .cfi_def_cfa_offset 8
 249              	 .cfi_offset 4,-8
 250              	 .cfi_offset 14,-4
 251              	 .loc 1 139 0
 252 0002 0C46     	 mov r4,r1
 140:../Radar_Control/src/radar_control.c ****   XMC_UNUSED_ARG(device);
 141:../Radar_Control/src/radar_control.c ****   
 142:../Radar_Control/src/radar_control.c ****   *freq_Hz = (1000.0f * 1000.0f) * 100.0f / ds_device_get_settings()->adc_sampling_freq_Hz;
 253              	 .loc 1 142 0
 254 0004 FFF7FEFF 	 bl ds_device_get_settings
 255              	.LVL25:
 256 0008 D0ED057A 	 flds s15,[r0,#20]
 257 000c 9FED047A 	 flds s14,.L24
 258 0010 F8EE677A 	 fuitos s15,s15
 259 0014 C7EE277A 	 fdivs s15,s14,s15
 260 0018 C4ED007A 	 fsts s15,[r4]
 261 001c 10BD     	 pop {r4,pc}
 262              	.LVL26:
 263              	.L25:
 264 001e 00BF     	 .align 2
 265              	.L24:
 266 0020 20BCBE4C 	 .word 1287568416
 267              	 .cfi_endproc
 268              	.LFE534:
 270              	 .section .text.radar_register_callback,"ax",%progbits
 271              	 .align 2
 272              	 .global radar_register_callback
 273              	 .thumb
 274              	 .thumb_func
 276              	radar_register_callback:
 277              	.LFB535:
 143:../Radar_Control/src/radar_control.c **** }
 144:../Radar_Control/src/radar_control.c **** 
 145:../Radar_Control/src/radar_control.c **** //============================================================================
 146:../Radar_Control/src/radar_control.c **** 
 147:../Radar_Control/src/radar_control.c **** uint16_t radar_register_callback(Radar_Callback_ID_t cb_id, void (*pcallback)(void *parameter))
 148:../Radar_Control/src/radar_control.c **** {
 278              	 .loc 1 148 0
 279              	 .cfi_startproc
 280              	 
 281              	 
 282              	.LVL27:
 149:../Radar_Control/src/radar_control.c ****   uint16_t status = RADAR_ERR_OK;
 150:../Radar_Control/src/radar_control.c **** 
 151:../Radar_Control/src/radar_control.c ****   /* Check if the callback function is valid */
 152:../Radar_Control/src/radar_control.c ****   if (pcallback == NULL)
 283              	 .loc 1 152 0
 284 0000 51B1     	 cbz r1,.L30
 153:../Radar_Control/src/radar_control.c ****   {
 154:../Radar_Control/src/radar_control.c ****     return (RADAR_ERR_BUSY);
 155:../Radar_Control/src/radar_control.c ****   }
 156:../Radar_Control/src/radar_control.c **** 
 157:../Radar_Control/src/radar_control.c ****   /* Register user callback function based on callback ID */
 158:../Radar_Control/src/radar_control.c ****   switch (cb_id)
 285              	 .loc 1 158 0
 286 0002 0128     	 cmp r0,#1
 148:../Radar_Control/src/radar_control.c ****   uint16_t status = RADAR_ERR_OK;
 287              	 .loc 1 148 0
 288 0004 08B5     	 push {r3,lr}
 289              	.LCFI5:
 290              	 .cfi_def_cfa_offset 8
 291              	 .cfi_offset 3,-8
 292              	 .cfi_offset 14,-4
 293              	 .loc 1 158 0
 294 0006 03D0     	 beq .L29
 295 0008 0228     	 cmp r0,#2
 296 000a 01D0     	 beq .L29
 159:../Radar_Control/src/radar_control.c ****   {
 160:../Radar_Control/src/radar_control.c ****   case RADAR_ACQUISITION_STARTED_CB_ID:
 161:../Radar_Control/src/radar_control.c ****     /* Callback executed by BSP layer at the beginning of data acquisition */
 162:../Radar_Control/src/radar_control.c ****     bsp_register_callback(BSP_ACQUISITION_STARTED_CB_ID, pcallback);
 163:../Radar_Control/src/radar_control.c ****     break;
 164:../Radar_Control/src/radar_control.c **** 
 165:../Radar_Control/src/radar_control.c ****   case RADAR_ACQUISITION_DONE_CB_ID:
 166:../Radar_Control/src/radar_control.c ****     /* Callback executed by BSP layer at the end of data acquisition process */
 167:../Radar_Control/src/radar_control.c ****     bsp_register_callback(BSP_ACQUISITION_DONE_CB_ID, pcallback);
 168:../Radar_Control/src/radar_control.c ****     break;
 169:../Radar_Control/src/radar_control.c **** 
 170:../Radar_Control/src/radar_control.c ****   default:
 171:../Radar_Control/src/radar_control.c ****     /* Return error status */
 172:../Radar_Control/src/radar_control.c ****     status = RADAR_ERR_BUSY;
 297              	 .loc 1 172 0
 298 000c 0220     	 movs r0,#2
 299              	.LVL28:
 173:../Radar_Control/src/radar_control.c ****     break;
 174:../Radar_Control/src/radar_control.c ****   }
 175:../Radar_Control/src/radar_control.c **** 
 176:../Radar_Control/src/radar_control.c ****   return (status);
 177:../Radar_Control/src/radar_control.c **** }
 300              	 .loc 1 177 0
 301 000e 08BD     	 pop {r3,pc}
 302              	.LVL29:
 303              	.L29:
 167:../Radar_Control/src/radar_control.c ****     break;
 304              	 .loc 1 167 0
 305 0010 FFF7FEFF 	 bl bsp_register_callback
 306              	.LVL30:
 149:../Radar_Control/src/radar_control.c **** 
 307              	 .loc 1 149 0
 308 0014 0020     	 movs r0,#0
 168:../Radar_Control/src/radar_control.c **** 
 309              	 .loc 1 168 0
 310 0016 08BD     	 pop {r3,pc}
 311              	.LVL31:
 312              	.L30:
 313              	.LCFI6:
 314              	 .cfi_def_cfa_offset 0
 315              	 .cfi_restore 3
 316              	 .cfi_restore 14
 154:../Radar_Control/src/radar_control.c ****   }
 317              	 .loc 1 154 0
 318 0018 0220     	 movs r0,#2
 319              	.LVL32:
 320              	 .loc 1 177 0
 321 001a 7047     	 bx lr
 322              	 .cfi_endproc
 323              	.LFE535:
 325              	 .section .text.radar_unregister_callback,"ax",%progbits
 326              	 .align 2
 327              	 .global radar_unregister_callback
 328              	 .thumb
 329              	 .thumb_func
 331              	radar_unregister_callback:
 332              	.LFB536:
 178:../Radar_Control/src/radar_control.c **** 
 179:../Radar_Control/src/radar_control.c **** //============================================================================
 180:../Radar_Control/src/radar_control.c **** 
 181:../Radar_Control/src/radar_control.c **** uint16_t radar_unregister_callback(Radar_Callback_ID_t cb_id)
 182:../Radar_Control/src/radar_control.c **** {
 333              	 .loc 1 182 0
 334              	 .cfi_startproc
 335              	 
 336              	 
 337              	.LVL33:
 183:../Radar_Control/src/radar_control.c ****   uint16_t status = RADAR_ERR_OK;
 184:../Radar_Control/src/radar_control.c **** 
 185:../Radar_Control/src/radar_control.c ****   /* Unregister user callback function based on callback ID */
 186:../Radar_Control/src/radar_control.c ****   switch (cb_id)
 338              	 .loc 1 186 0
 339 0000 0128     	 cmp r0,#1
 182:../Radar_Control/src/radar_control.c ****   uint16_t status = RADAR_ERR_OK;
 340              	 .loc 1 182 0
 341 0002 08B5     	 push {r3,lr}
 342              	.LCFI7:
 343              	 .cfi_def_cfa_offset 8
 344              	 .cfi_offset 3,-8
 345              	 .cfi_offset 14,-4
 346              	 .loc 1 186 0
 347 0004 01D0     	 beq .L38
 348 0006 0228     	 cmp r0,#2
 349 0008 03D1     	 bne .L42
 350              	.L38:
 187:../Radar_Control/src/radar_control.c ****   {
 188:../Radar_Control/src/radar_control.c ****   case RADAR_ACQUISITION_STARTED_CB_ID:
 189:../Radar_Control/src/radar_control.c ****     bsp_unregister_callback(BSP_ACQUISITION_STARTED_CB_ID);
 190:../Radar_Control/src/radar_control.c ****     break;
 191:../Radar_Control/src/radar_control.c **** 
 192:../Radar_Control/src/radar_control.c ****   case RADAR_ACQUISITION_DONE_CB_ID:
 193:../Radar_Control/src/radar_control.c ****     bsp_unregister_callback(BSP_ACQUISITION_DONE_CB_ID);
 351              	 .loc 1 193 0
 352 000a FFF7FEFF 	 bl bsp_unregister_callback
 353              	.LVL34:
 183:../Radar_Control/src/radar_control.c **** 
 354              	 .loc 1 183 0
 355 000e 0020     	 movs r0,#0
 194:../Radar_Control/src/radar_control.c ****     break;
 356              	 .loc 1 194 0
 357 0010 08BD     	 pop {r3,pc}
 358              	.LVL35:
 359              	.L42:
 195:../Radar_Control/src/radar_control.c **** 
 196:../Radar_Control/src/radar_control.c ****   default:
 197:../Radar_Control/src/radar_control.c ****     /* Return error status */
 198:../Radar_Control/src/radar_control.c ****     status = RADAR_ERR_BUSY;
 360              	 .loc 1 198 0
 361 0012 0220     	 movs r0,#2
 362              	.LVL36:
 199:../Radar_Control/src/radar_control.c ****     break;
 200:../Radar_Control/src/radar_control.c ****   }
 201:../Radar_Control/src/radar_control.c ****   
 202:../Radar_Control/src/radar_control.c ****   return (status);
 203:../Radar_Control/src/radar_control.c **** }
 363              	 .loc 1 203 0
 364 0014 08BD     	 pop {r3,pc}
 365              	 .cfi_endproc
 366              	.LFE536:
 368 0016 00BF     	 .section .text.radar_apply_hw_settings,"ax",%progbits
 369              	 .align 2
 370              	 .global radar_apply_hw_settings
 371              	 .thumb
 372              	 .thumb_func
 374              	radar_apply_hw_settings:
 375              	.LFB538:
 204:../Radar_Control/src/radar_control.c **** 
 205:../Radar_Control/src/radar_control.c **** //============================================================================
 206:../Radar_Control/src/radar_control.c **** 
 207:../Radar_Control/src/radar_control.c **** static uint32_t radar_apply_new_hw_setting(Radar_Handle_t device, device_settings_t *p_new)
 208:../Radar_Control/src/radar_control.c **** {
 209:../Radar_Control/src/radar_control.c ****   uint32_t retval = RADAR_ERR_OK;
 210:../Radar_Control/src/radar_control.c **** 
 211:../Radar_Control/src/radar_control.c ****   radar_stop_acquisition(device);
 212:../Radar_Control/src/radar_control.c **** 
 213:../Radar_Control/src/radar_control.c ****   bsp_bgt_shut_down();
 214:../Radar_Control/src/radar_control.c **** 
 215:../Radar_Control/src/radar_control.c ****   if (bsp_update(p_new) != 0)
 216:../Radar_Control/src/radar_control.c ****   {
 217:../Radar_Control/src/radar_control.c **** 	  // invalid settings values not changed!
 218:../Radar_Control/src/radar_control.c **** 	  retval = RADAR_ERR_PARAMETER_OUT_OF_RANGE;
 219:../Radar_Control/src/radar_control.c ****   }
 220:../Radar_Control/src/radar_control.c **** 
 221:../Radar_Control/src/radar_control.c ****   /* recreate acq-buffer object! */
 222:../Radar_Control/src/radar_control.c ****   /* the buffer is statically allocated to the max supported buffer size, so it is save to re-use i
 223:../Radar_Control/src/radar_control.c ****    * checks should have been applied earlier! */
 224:../Radar_Control/src/radar_control.c ****   acq_buf_obj *p_acq_buf = ds_get_active_acq_buf();
 225:../Radar_Control/src/radar_control.c **** 
 226:../Radar_Control/src/radar_control.c ****   uint8_t *p_temp_buf = p_acq_buf->p_acq_buf;
 227:../Radar_Control/src/radar_control.c ****   uint32_t reserved_size = p_acq_buf->internals.size_of_acq_buffer;
 228:../Radar_Control/src/radar_control.c **** 
 229:../Radar_Control/src/radar_control.c **** 
 230:../Radar_Control/src/radar_control.c ****   acq_buf_obj acq_buf = create_acq_data_buffer_obj(p_temp_buf, reserved_size,
 231:../Radar_Control/src/radar_control.c **** 	  											   p_new->num_of_chirps_per_frame,
 232:../Radar_Control/src/radar_control.c **** 												   p_new->num_samples_per_chirp, BSP_MAX_NUM_ADC_CHANNELS, p_new->adc_resolution, p_new
 233:../Radar_Control/src/radar_control.c **** 
 234:../Radar_Control/src/radar_control.c ****   ds_set_active_acq_buf(acq_buf);
 235:../Radar_Control/src/radar_control.c ****   
 236:../Radar_Control/src/radar_control.c ****   return retval; // confirm that everything was o.k.
 237:../Radar_Control/src/radar_control.c **** }
 238:../Radar_Control/src/radar_control.c **** 
 239:../Radar_Control/src/radar_control.c **** //============================================================================
 240:../Radar_Control/src/radar_control.c **** 
 241:../Radar_Control/src/radar_control.c **** uint32_t radar_apply_hw_settings(Radar_Handle_t device, device_settings_t *p_hw_settings)
 242:../Radar_Control/src/radar_control.c **** {
 376              	 .loc 1 242 0
 377              	 .cfi_startproc
 378              	 
 379              	 
 380              	.LVL37:
 381 0000 F0B5     	 push {r4,r5,r6,r7,lr}
 382              	.LCFI8:
 383              	 .cfi_def_cfa_offset 20
 384              	 .cfi_offset 4,-20
 385              	 .cfi_offset 5,-16
 386              	 .cfi_offset 6,-12
 387              	 .cfi_offset 7,-8
 388              	 .cfi_offset 14,-4
 389 0002 0C46     	 mov r4,r1
 390              	.LVL38:
 391 0004 99B0     	 sub sp,sp,#100
 392              	.LCFI9:
 393              	 .cfi_def_cfa_offset 120
 394              	.LBB14:
 395              	.LBB15:
 396              	.LBB16:
 397              	.LBB17:
 103:../Radar_Control/src/radar_control.c ****   
 398              	 .loc 1 103 0
 399 0006 0021     	 movs r1,#0
 400              	.LVL39:
 401 0008 FFF7FEFF 	 bl radar_set_automatic_frame_trigger
 402              	.LVL40:
 403              	.LBE17:
 404              	.LBE16:
 213:../Radar_Control/src/radar_control.c **** 
 405              	 .loc 1 213 0
 406 000c FFF7FEFF 	 bl bsp_bgt_shut_down
 407              	.LVL41:
 215:../Radar_Control/src/radar_control.c ****   {
 408              	 .loc 1 215 0
 409 0010 2046     	 mov r0,r4
 410 0012 FFF7FEFF 	 bl bsp_update
 411              	.LVL42:
 412 0016 0028     	 cmp r0,#0
 218:../Radar_Control/src/radar_control.c ****   }
 413              	 .loc 1 218 0
 414 0018 0CBF     	 ite eq
 415 001a 0027     	 moveq r7,#0
 416 001c 0C27     	 movne r7,#12
 417              	.LVL43:
 224:../Radar_Control/src/radar_control.c **** 
 418              	 .loc 1 224 0
 419 001e FFF7FEFF 	 bl ds_get_active_acq_buf
 420              	.LVL44:
 230:../Radar_Control/src/radar_control.c **** 	  											   p_new->num_of_chirps_per_frame,
 421              	 .loc 1 230 0
 422 0022 A68C     	 ldrh r6,[r4,#36]
 423 0024 A38B     	 ldrh r3,[r4,#28]
 424 0026 C16A     	 ldr r1,[r0,#44]
 425 0028 C268     	 ldr r2,[r0,#12]
 426 002a 257E     	 ldrb r5,[r4,#24]
 427 002c E06A     	 ldr r0,[r4,#44]
 428              	.LVL45:
 429 002e 0096     	 str r6,[sp]
 430 0030 0424     	 movs r4,#4
 431              	.LVL46:
 432 0032 0AAE     	 add r6,sp,#40
 433 0034 0295     	 str r5,[sp,#8]
 434 0036 0390     	 str r0,[sp,#12]
 435 0038 0194     	 str r4,[sp,#4]
 436 003a 3046     	 mov r0,r6
 234:../Radar_Control/src/radar_control.c ****   
 437              	 .loc 1 234 0
 438 003c 0EAD     	 add r5,sp,#56
 230:../Radar_Control/src/radar_control.c **** 	  											   p_new->num_of_chirps_per_frame,
 439              	 .loc 1 230 0
 440 003e FFF7FEFF 	 bl create_acq_data_buffer_obj
 441              	.LVL47:
 234:../Radar_Control/src/radar_control.c ****   
 442              	 .loc 1 234 0
 443 0042 0FCD     	 ldmia r5!,{r0,r1,r2,r3}
 444 0044 6C46     	 mov r4,sp
 445 0046 0FC4     	 stmia r4!,{r0,r1,r2,r3}
 446 0048 0FCD     	 ldmia r5!,{r0,r1,r2,r3}
 447 004a 0FC4     	 stmia r4!,{r0,r1,r2,r3}
 448 004c 95E80300 	 ldmia r5,{r0,r1}
 449 0050 84E80300 	 stmia r4,{r0,r1}
 450 0054 96E80F00 	 ldmia r6,{r0,r1,r2,r3}
 451 0058 FFF7FEFF 	 bl ds_set_active_acq_buf
 452              	.LVL48:
 453              	.LBE15:
 454              	.LBE14:
 243:../Radar_Control/src/radar_control.c ****   uint32_t retval = RADAR_ERR_OK;
 244:../Radar_Control/src/radar_control.c **** 
 245:../Radar_Control/src/radar_control.c ****   retval = radar_apply_new_hw_setting(device, p_hw_settings);
 246:../Radar_Control/src/radar_control.c ****   
 247:../Radar_Control/src/radar_control.c ****   return retval;
 248:../Radar_Control/src/radar_control.c **** }
 455              	 .loc 1 248 0
 456 005c 3846     	 mov r0,r7
 457 005e 19B0     	 add sp,sp,#100
 458              	.LCFI10:
 459              	 .cfi_def_cfa_offset 20
 460              	 
 461 0060 F0BD     	 pop {r4,r5,r6,r7,pc}
 462              	 .cfi_endproc
 463              	.LFE538:
 465 0062 00BF     	 .section .text.radar_get_data_acq_mode,"ax",%progbits
 466              	 .align 2
 467              	 .global radar_get_data_acq_mode
 468              	 .thumb
 469              	 .thumb_func
 471              	radar_get_data_acq_mode:
 472              	.LFB539:
 249:../Radar_Control/src/radar_control.c **** 
 250:../Radar_Control/src/radar_control.c **** //============================================================================
 251:../Radar_Control/src/radar_control.c **** 
 252:../Radar_Control/src/radar_control.c **** Radar_Data_Acq_Mode_t radar_get_data_acq_mode(void)
 253:../Radar_Control/src/radar_control.c **** {
 473              	 .loc 1 253 0
 474              	 .cfi_startproc
 475              	 
 476              	 
 477              	 
 254:../Radar_Control/src/radar_control.c ****   return s_data_acq_mode;
 478              	 .loc 1 254 0
 479 0000 014B     	 ldr r3,.L48
 255:../Radar_Control/src/radar_control.c **** }
 480              	 .loc 1 255 0
 481 0002 1878     	 ldrb r0,[r3]
 482 0004 7047     	 bx lr
 483              	.L49:
 484 0006 00BF     	 .align 2
 485              	.L48:
 486 0008 00000000 	 .word .LANCHOR0
 487              	 .cfi_endproc
 488              	.LFE539:
 490              	 .section .text.radar_set_data_acq_mode,"ax",%progbits
 491              	 .align 2
 492              	 .global radar_set_data_acq_mode
 493              	 .thumb
 494              	 .thumb_func
 496              	radar_set_data_acq_mode:
 497              	.LFB540:
 256:../Radar_Control/src/radar_control.c **** 
 257:../Radar_Control/src/radar_control.c **** //============================================================================
 258:../Radar_Control/src/radar_control.c **** 
 259:../Radar_Control/src/radar_control.c **** void radar_set_data_acq_mode(Radar_Data_Acq_Mode_t new_mode)
 260:../Radar_Control/src/radar_control.c **** {
 498              	 .loc 1 260 0
 499              	 .cfi_startproc
 500              	 
 501              	 
 502              	 
 503              	.LVL49:
 261:../Radar_Control/src/radar_control.c ****   s_data_acq_mode = new_mode;
 504              	 .loc 1 261 0
 505 0000 014B     	 ldr r3,.L51
 506 0002 1870     	 strb r0,[r3]
 507 0004 7047     	 bx lr
 508              	.L52:
 509 0006 00BF     	 .align 2
 510              	.L51:
 511 0008 00000000 	 .word .LANCHOR0
 512              	 .cfi_endproc
 513              	.LFE540:
 515              	 .global s_data_acq_mode
 516              	 .global g_adc_sampling_completed
 517              	 .section .bss.s_data_acq_mode,"aw",%nobits
 518              	 .set .LANCHOR0,.+0
 521              	s_data_acq_mode:
 522 0000 00       	 .space 1
 523              	 .section .bss.g_adc_sampling_completed,"aw",%nobits
 524              	 .align 2
 527              	g_adc_sampling_completed:
 528 0000 00000000 	 .space 4
 529              	 .text
 530              	.Letext0:
 531              	 .file 2 "c:\\infineon\\tools\\dave ide\\4.5.0.202105191637\\eclipse\\arm-gcc-49\\lib\\gcc\\arm-none-eabi\\4.9.3\\include\\stddef.h"
 532              	 .file 3 "c:\\infineon\\tools\\dave ide\\4.5.0.202105191637\\eclipse\\arm-gcc-49\\arm-none-eabi\\include\\machine\\_default_types.h"
 533              	 .file 4 "c:\\infineon\\tools\\dave ide\\4.5.0.202105191637\\eclipse\\arm-gcc-49\\arm-none-eabi\\include\\stdint.h"
 534              	 .file 5 "C:/Users/Utente/Desktop/Tesi/Firmware_Software/DAVE project/S2GLP_Pulsed_Doppler/Libraries/CMSIS/Infineon/XMC4700_series/Include/XMC4700.h"
 535              	 .file 6 "C:/Users/Utente/Desktop/Tesi/Firmware_Software/DAVE project/S2GLP_Pulsed_Doppler/Libraries/XMCLib/inc/xmc_vadc.h"
 536              	 .file 7 "C:/Users/Utente/Desktop/Tesi/Firmware_Software/DAVE project/S2GLP_Pulsed_Doppler/Libraries/XMCLib/inc/xmc_usbd_regs.h"
 537              	 .file 8 "C:/Users/Utente/Desktop/Tesi/Firmware_Software/DAVE project/S2GLP_Pulsed_Doppler/Libraries/XMCLib/inc/xmc_usbd.h"
 538              	 .file 9 "C:/Users/Utente/Desktop/Tesi/Firmware_Software/DAVE project/S2GLP_Pulsed_Doppler/Dave/Generated/USBD/usbd.h"
 539              	 .file 10 "C:/Users/Utente/Desktop/Tesi/Firmware_Software/DAVE project/S2GLP_Pulsed_Doppler/Libraries/XMCLib/inc/xmc_usic.h"
 540              	 .file 11 "C:/Users/Utente/Desktop/Tesi/Firmware_Software/DAVE project/S2GLP_Pulsed_Doppler/Radar_Control/inc/acq_buffer.h"
 541              	 .file 12 "C:/Users/Utente/Desktop/Tesi/Firmware_Software/DAVE project/S2GLP_Pulsed_Doppler/Store/inc/datastore.h"
 542              	 .file 13 "C:/Users/Utente/Desktop/Tesi/Firmware_Software/DAVE project/S2GLP_Pulsed_Doppler/BSP/Sense2GoLPulse/inc/sense2gol_bsp.h"
 543              	 .file 14 "C:/Users/Utente/Desktop/Tesi/Firmware_Software/DAVE project/S2GLP_Pulsed_Doppler/Radar_Control/inc/radar_api.h"
 544              	 .file 15 "C:/Users/Utente/Desktop/Tesi/Firmware_Software/DAVE project/S2GLP_Pulsed_Doppler/Radar_Control/inc/radar_control.h"
 545              	 .file 16 "C:/Users/Utente/Desktop/Tesi/Firmware_Software/DAVE project/S2GLP_Pulsed_Doppler/Libraries/CMSIS/Include/core_cm4.h"
 546              	 .file 17 "C:/Users/Utente/Desktop/Tesi/Firmware_Software/DAVE project/S2GLP_Pulsed_Doppler/Libraries/CMSIS/Infineon/XMC4700_series/Include/system_XMC4700.h"
 547              	 .file 18 "C:/Users/Utente/Desktop/Tesi/Firmware_Software/DAVE project/S2GLP_Pulsed_Doppler/Dave/Generated/ADC_MEASUREMENT_ADV/adc_measurement_adv.h"
 548              	 .file 19 "C:/Users/Utente/Desktop/Tesi/Firmware_Software/DAVE project/S2GLP_Pulsed_Doppler/Dave/Generated/USBD/usbd_extern.h"