   1              	 .syntax unified
   2              	 .cpu cortex-m4
   3              	 .eabi_attribute 27,3
   4              	 .fpu fpv4-sp-d16
   5              	 .eabi_attribute 20,1
   6              	 .eabi_attribute 21,1
   7              	 .eabi_attribute 23,3
   8              	 .eabi_attribute 24,1
   9              	 .eabi_attribute 25,1
  10              	 .eabi_attribute 26,1
  11              	 .eabi_attribute 30,2
  12              	 .eabi_attribute 34,1
  13              	 .eabi_attribute 18,4
  14              	 .thumb
  15              	 .file "radar_device_status.c"
  16              	 .text
  17              	.Ltext0:
  18              	 .cfi_sections .debug_frame
  19              	 .section .text.device_status_get_handle,"ax",%progbits
  20              	 .align 2
  21              	 .global device_status_get_handle
  22              	 .thumb
  23              	 .thumb_func
  25              	device_status_get_handle:
  26              	.LFB0:
  27              	 .file 1 "../Radar_Control/src/radar_device_status.c"
   1:../Radar_Control/src/radar_device_status.c **** /**
   2:../Radar_Control/src/radar_device_status.c ****     @file: radar_device_status.c
   3:../Radar_Control/src/radar_device_status.c ****  */
   4:../Radar_Control/src/radar_device_status.c **** 
   5:../Radar_Control/src/radar_device_status.c **** /* ===========================================================================
   6:../Radar_Control/src/radar_device_status.c **** ** Copyright (C) 2021 Infineon Technologies AG
   7:../Radar_Control/src/radar_device_status.c **** ** All rights reserved.
   8:../Radar_Control/src/radar_device_status.c **** ** ===========================================================================
   9:../Radar_Control/src/radar_device_status.c **** **
  10:../Radar_Control/src/radar_device_status.c **** ** ===========================================================================
  11:../Radar_Control/src/radar_device_status.c **** ** This document contains proprietary information of Infineon Technologies AG.
  12:../Radar_Control/src/radar_device_status.c **** ** Passing on and copying of this document, and communication of its contents
  13:../Radar_Control/src/radar_device_status.c **** ** is not permitted without Infineon's prior written authorization.
  14:../Radar_Control/src/radar_device_status.c **** ** ===========================================================================
  15:../Radar_Control/src/radar_device_status.c **** */
  16:../Radar_Control/src/radar_device_status.c **** 
  17:../Radar_Control/src/radar_device_status.c **** /*
  18:../Radar_Control/src/radar_device_status.c **** ==============================================================================
  19:../Radar_Control/src/radar_device_status.c ****     1. INCLUDE FILES
  20:../Radar_Control/src/radar_device_status.c **** ==============================================================================
  21:../Radar_Control/src/radar_device_status.c ****  */
  22:../Radar_Control/src/radar_device_status.c **** 
  23:../Radar_Control/src/radar_device_status.c **** #include "radar_device_status.h"
  24:../Radar_Control/src/radar_device_status.c **** 
  25:../Radar_Control/src/radar_device_status.c **** /*
  26:../Radar_Control/src/radar_device_status.c **** ==============================================================================
  27:../Radar_Control/src/radar_device_status.c ****    2. LOCAL DEFINITIONS
  28:../Radar_Control/src/radar_device_status.c **** ==============================================================================
  29:../Radar_Control/src/radar_device_status.c ****  */
  30:../Radar_Control/src/radar_device_status.c **** 
  31:../Radar_Control/src/radar_device_status.c **** /*
  32:../Radar_Control/src/radar_device_status.c **** ==============================================================================
  33:../Radar_Control/src/radar_device_status.c ****    3. LOCAL TYPES
  34:../Radar_Control/src/radar_device_status.c **** ==============================================================================
  35:../Radar_Control/src/radar_device_status.c ****  */
  36:../Radar_Control/src/radar_device_status.c **** 
  37:../Radar_Control/src/radar_device_status.c **** /*
  38:../Radar_Control/src/radar_device_status.c **** ==============================================================================
  39:../Radar_Control/src/radar_device_status.c ****    4. DATA
  40:../Radar_Control/src/radar_device_status.c **** ==============================================================================
  41:../Radar_Control/src/radar_device_status.c ****  */
  42:../Radar_Control/src/radar_device_status.c **** 
  43:../Radar_Control/src/radar_device_status.c **** static Device_Status_t device_status;
  44:../Radar_Control/src/radar_device_status.c **** 
  45:../Radar_Control/src/radar_device_status.c **** typedef struct {
  46:../Radar_Control/src/radar_device_status.c **** 	Device_Error_t code;
  47:../Radar_Control/src/radar_device_status.c **** 	char *		   pText;
  48:../Radar_Control/src/radar_device_status.c **** 	uint32_t       red_led_toggle_time_msec;
  49:../Radar_Control/src/radar_device_status.c **** } device_error_desc_t;
  50:../Radar_Control/src/radar_device_status.c **** 
  51:../Radar_Control/src/radar_device_status.c **** device_error_desc_t DEVICE_ERROR_DESCRIPTION_TABLE[] =
  52:../Radar_Control/src/radar_device_status.c **** {
  53:../Radar_Control/src/radar_device_status.c **** 	{ UNKNOWN, "UNKNOWN ERROR", 200 },  /* Unknown error must be first entry! */
  54:../Radar_Control/src/radar_device_status.c **** 	{ FATAL_ERROR_BOARD_NOT_SUPPORTED, 	"ERROR: - Board unsupported", 100 },
  55:../Radar_Control/src/radar_device_status.c **** 	{ FATAL_ERROR_INVALID_RF_SHIELD, 	"ERROR: - Invalid Board ID, or Board not connected", 400 },
  56:../Radar_Control/src/radar_device_status.c **** 	{ FATAL_ERROR_BOARD_NOT_PROGRAMMED, "ERROR: - Board ID not programmed", 200 },
  57:../Radar_Control/src/radar_device_status.c **** 
  58:../Radar_Control/src/radar_device_status.c **** };
  59:../Radar_Control/src/radar_device_status.c **** 
  60:../Radar_Control/src/radar_device_status.c **** /*
  61:../Radar_Control/src/radar_device_status.c **** ==============================================================================
  62:../Radar_Control/src/radar_device_status.c ****    5. LOCAL FUNCTION PROTOTYPES
  63:../Radar_Control/src/radar_device_status.c **** ==============================================================================
  64:../Radar_Control/src/radar_device_status.c ****  */
  65:../Radar_Control/src/radar_device_status.c **** 
  66:../Radar_Control/src/radar_device_status.c **** /*
  67:../Radar_Control/src/radar_device_status.c **** ==============================================================================
  68:../Radar_Control/src/radar_device_status.c ****     6. EXPORTED FUNCTIONS
  69:../Radar_Control/src/radar_device_status.c **** ==============================================================================
  70:../Radar_Control/src/radar_device_status.c ****  */
  71:../Radar_Control/src/radar_device_status.c **** 
  72:../Radar_Control/src/radar_device_status.c **** Device_Status_t* device_status_get_handle()
  73:../Radar_Control/src/radar_device_status.c **** {
  28              	 .loc 1 73 0
  29              	 .cfi_startproc
  30              	 
  31              	 
  32              	 
  74:../Radar_Control/src/radar_device_status.c **** 	return &device_status;
  75:../Radar_Control/src/radar_device_status.c **** }
  33              	 .loc 1 75 0
  34 0000 0048     	 ldr r0,.L2
  35 0002 7047     	 bx lr
  36              	.L3:
  37              	 .align 2
  38              	.L2:
  39 0004 00000000 	 .word .LANCHOR0
  40              	 .cfi_endproc
  41              	.LFE0:
  43              	 .section .text.device_status_get_state,"ax",%progbits
  44              	 .align 2
  45              	 .global device_status_get_state
  46              	 .thumb
  47              	 .thumb_func
  49              	device_status_get_state:
  50              	.LFB1:
  76:../Radar_Control/src/radar_device_status.c **** 
  77:../Radar_Control/src/radar_device_status.c **** //============================================================================
  78:../Radar_Control/src/radar_device_status.c **** 
  79:../Radar_Control/src/radar_device_status.c **** void device_status_get_state(Device_State_t *mcu_state)
  80:../Radar_Control/src/radar_device_status.c **** {
  51              	 .loc 1 80 0
  52              	 .cfi_startproc
  53              	 
  54              	 
  55              	 
  56              	.LVL0:
  81:../Radar_Control/src/radar_device_status.c **** 	*mcu_state = device_status.state;
  57              	 .loc 1 81 0
  58 0000 014B     	 ldr r3,.L5
  59 0002 1B78     	 ldrb r3,[r3]
  60 0004 0370     	 strb r3,[r0]
  61 0006 7047     	 bx lr
  62              	.L6:
  63              	 .align 2
  64              	.L5:
  65 0008 00000000 	 .word .LANCHOR0
  66              	 .cfi_endproc
  67              	.LFE1:
  69              	 .section .text.device_status_set_error,"ax",%progbits
  70              	 .align 2
  71              	 .global device_status_set_error
  72              	 .thumb
  73              	 .thumb_func
  75              	device_status_set_error:
  76              	.LFB2:
  82:../Radar_Control/src/radar_device_status.c **** }
  83:../Radar_Control/src/radar_device_status.c **** 
  84:../Radar_Control/src/radar_device_status.c **** //============================================================================
  85:../Radar_Control/src/radar_device_status.c **** 
  86:../Radar_Control/src/radar_device_status.c **** /**
  87:../Radar_Control/src/radar_device_status.c ****  * @brief function to set specific error
  88:../Radar_Control/src/radar_device_status.c ****  * @param radar_error
  89:../Radar_Control/src/radar_device_status.c ****  */
  90:../Radar_Control/src/radar_device_status.c **** /*Error prioritized, keep either first or last error*/
  91:../Radar_Control/src/radar_device_status.c **** void device_status_set_error(Device_Error_t radar_error)
  92:../Radar_Control/src/radar_device_status.c **** {
  77              	 .loc 1 92 0
  78              	 .cfi_startproc
  79              	 
  80              	 
  81              	 
  82              	.LVL1:
  93:../Radar_Control/src/radar_device_status.c **** 	uint8_t new_error_type =  FIND_TYPE_OF_ERROR(radar_error);
  94:../Radar_Control/src/radar_device_status.c **** 	uint8_t latest_error_type = FIND_TYPE_OF_ERROR(device_status.latest_error);
  83              	 .loc 1 94 0
  84 0000 144A     	 ldr r2,.L16
  85 0002 5368     	 ldr r3,[r2,#4]
  95:../Radar_Control/src/radar_device_status.c **** 
  96:../Radar_Control/src/radar_device_status.c **** 	/* only one message is stored: guard to not overwrite for example error through a status*/
  97:../Radar_Control/src/radar_device_status.c **** 	if (latest_error_type < new_error_type)
  86              	 .loc 1 97 0
  87 0004 C3F30331 	 ubfx r1,r3,#12,#4
  93:../Radar_Control/src/radar_device_status.c **** 	uint8_t new_error_type =  FIND_TYPE_OF_ERROR(radar_error);
  88              	 .loc 1 93 0
  89 0008 C0F30333 	 ubfx r3,r0,#12,#4
  90              	.LVL2:
  91              	 .loc 1 97 0
  92 000c 8B42     	 cmp r3,r1
  98:../Radar_Control/src/radar_device_status.c **** 	{
  99:../Radar_Control/src/radar_device_status.c **** 		device_status.latest_error = radar_error;
 100:../Radar_Control/src/radar_device_status.c **** 	}
 101:../Radar_Control/src/radar_device_status.c **** 
 102:../Radar_Control/src/radar_device_status.c **** 	switch(new_error_type)
  93              	 .loc 1 102 0
  94 000e 03F1FF33 	 add r3,r3,#-1
  95              	.LVL3:
  99:../Radar_Control/src/radar_device_status.c **** 	}
  96              	 .loc 1 99 0
  97 0012 88BF     	 it hi
  98 0014 5060     	 strhi r0,[r2,#4]
  99              	 .loc 1 102 0
 100 0016 032B     	 cmp r3,#3
 101 0018 08D8     	 bhi .L7
 102 001a DFE803F0 	 tbb [pc,r3]
 103              	.L11:
 104 001e 14       	 .byte (.L10-.L11)/2
 105 001f 0E       	 .byte (.L12-.L11)/2
 106 0020 08       	 .byte (.L13-.L11)/2
 107 0021 02       	 .byte (.L14-.L11)/2
 108              	 .p2align 1
 109              	.L14:
 103:../Radar_Control/src/radar_device_status.c **** 	{
 104:../Radar_Control/src/radar_device_status.c **** 	case STATE_INFO:
 105:../Radar_Control/src/radar_device_status.c **** 		device_status.state = STATE_INFO;
 106:../Radar_Control/src/radar_device_status.c **** 		device_status.info_count++;
 107:../Radar_Control/src/radar_device_status.c **** 		break;
 108:../Radar_Control/src/radar_device_status.c **** 
 109:../Radar_Control/src/radar_device_status.c **** 	case STATE_WARNING:
 110:../Radar_Control/src/radar_device_status.c **** 		device_status.state = STATE_WARNING;
 111:../Radar_Control/src/radar_device_status.c **** 		device_status.warning_count++;
 112:../Radar_Control/src/radar_device_status.c **** 		break;
 113:../Radar_Control/src/radar_device_status.c **** 
 114:../Radar_Control/src/radar_device_status.c **** 	case STATE_ERROR:
 115:../Radar_Control/src/radar_device_status.c **** 		device_status.state = STATE_ERROR;
 116:../Radar_Control/src/radar_device_status.c **** 		device_status.error_count++;
 117:../Radar_Control/src/radar_device_status.c **** 		break;
 118:../Radar_Control/src/radar_device_status.c **** 
 119:../Radar_Control/src/radar_device_status.c **** 	case STATE_FATAL_ERROR:
 120:../Radar_Control/src/radar_device_status.c **** 		device_status.state = STATE_FATAL_ERROR;
 121:../Radar_Control/src/radar_device_status.c **** 		device_status.fatal_error_count++;
 110              	 .loc 1 121 0
 111 0022 D37A     	 ldrb r3,[r2,#11]
 112              	.LVL4:
 120:../Radar_Control/src/radar_device_status.c **** 		device_status.fatal_error_count++;
 113              	 .loc 1 120 0
 114 0024 0421     	 movs r1,#4
 115              	 .loc 1 121 0
 116 0026 0133     	 adds r3,r3,#1
 117 0028 D372     	 strb r3,[r2,#11]
 120:../Radar_Control/src/radar_device_status.c **** 		device_status.fatal_error_count++;
 118              	 .loc 1 120 0
 119 002a 1170     	 strb r1,[r2]
 120              	.L7:
 121 002c 7047     	 bx lr
 122              	.L13:
 116:../Radar_Control/src/radar_device_status.c **** 		break;
 123              	 .loc 1 116 0
 124 002e 937A     	 ldrb r3,[r2,#10]
 115:../Radar_Control/src/radar_device_status.c **** 		device_status.error_count++;
 125              	 .loc 1 115 0
 126 0030 0321     	 movs r1,#3
 116:../Radar_Control/src/radar_device_status.c **** 		break;
 127              	 .loc 1 116 0
 128 0032 0133     	 adds r3,r3,#1
 129 0034 9372     	 strb r3,[r2,#10]
 115:../Radar_Control/src/radar_device_status.c **** 		device_status.error_count++;
 130              	 .loc 1 115 0
 131 0036 1170     	 strb r1,[r2]
 117:../Radar_Control/src/radar_device_status.c **** 
 132              	 .loc 1 117 0
 133 0038 7047     	 bx lr
 134              	.L12:
 111:../Radar_Control/src/radar_device_status.c **** 		break;
 135              	 .loc 1 111 0
 136 003a 537A     	 ldrb r3,[r2,#9]
 110:../Radar_Control/src/radar_device_status.c **** 		device_status.warning_count++;
 137              	 .loc 1 110 0
 138 003c 0221     	 movs r1,#2
 111:../Radar_Control/src/radar_device_status.c **** 		break;
 139              	 .loc 1 111 0
 140 003e 0133     	 adds r3,r3,#1
 141 0040 5372     	 strb r3,[r2,#9]
 110:../Radar_Control/src/radar_device_status.c **** 		device_status.warning_count++;
 142              	 .loc 1 110 0
 143 0042 1170     	 strb r1,[r2]
 112:../Radar_Control/src/radar_device_status.c **** 
 144              	 .loc 1 112 0
 145 0044 7047     	 bx lr
 146              	.L10:
 106:../Radar_Control/src/radar_device_status.c **** 		break;
 147              	 .loc 1 106 0
 148 0046 137A     	 ldrb r3,[r2,#8]
 105:../Radar_Control/src/radar_device_status.c **** 		device_status.info_count++;
 149              	 .loc 1 105 0
 150 0048 0121     	 movs r1,#1
 106:../Radar_Control/src/radar_device_status.c **** 		break;
 151              	 .loc 1 106 0
 152 004a 0B44     	 add r3,r3,r1
 153 004c 1372     	 strb r3,[r2,#8]
 105:../Radar_Control/src/radar_device_status.c **** 		device_status.info_count++;
 154              	 .loc 1 105 0
 155 004e 1170     	 strb r1,[r2]
 107:../Radar_Control/src/radar_device_status.c **** 
 156              	 .loc 1 107 0
 157 0050 7047     	 bx lr
 158              	.L17:
 159 0052 00BF     	 .align 2
 160              	.L16:
 161 0054 00000000 	 .word .LANCHOR0
 162              	 .cfi_endproc
 163              	.LFE2:
 165              	 .section .text.device_status_get_error_description,"ax",%progbits
 166              	 .align 2
 167              	 .global device_status_get_error_description
 168              	 .thumb
 169              	 .thumb_func
 171              	device_status_get_error_description:
 172              	.LFB3:
 122:../Radar_Control/src/radar_device_status.c **** 		break;
 123:../Radar_Control/src/radar_device_status.c **** 
 124:../Radar_Control/src/radar_device_status.c **** 	default:
 125:../Radar_Control/src/radar_device_status.c **** 		break;
 126:../Radar_Control/src/radar_device_status.c **** 	}
 127:../Radar_Control/src/radar_device_status.c **** }
 128:../Radar_Control/src/radar_device_status.c **** 
 129:../Radar_Control/src/radar_device_status.c **** //============================================================================
 130:../Radar_Control/src/radar_device_status.c **** 
 131:../Radar_Control/src/radar_device_status.c **** /**
 132:../Radar_Control/src/radar_device_status.c ****  * @brief function to get the corresponding description string of the error
 133:../Radar_Control/src/radar_device_status.c ****  * @param error is the device error enum type
 134:../Radar_Control/src/radar_device_status.c ****  * @return const char * to error description
 135:../Radar_Control/src/radar_device_status.c ****  */
 136:../Radar_Control/src/radar_device_status.c **** const char* device_status_get_error_description(Device_Error_t error)
 137:../Radar_Control/src/radar_device_status.c **** {
 173              	 .loc 1 137 0
 174              	 .cfi_startproc
 175              	 
 176              	 
 177              	 
 178              	.LVL5:
 179              	.LBB2:
 138:../Radar_Control/src/radar_device_status.c **** 	/*
 139:../Radar_Control/src/radar_device_status.c **** 	 * in case of an error, we do not need to be efficient!
 140:../Radar_Control/src/radar_device_status.c **** 	 */
 141:../Radar_Control/src/radar_device_status.c **** 	uint32_t elems = sizeof(DEVICE_ERROR_DESCRIPTION_TABLE)/sizeof(DEVICE_ERROR_DESCRIPTION_TABLE[0]);
 142:../Radar_Control/src/radar_device_status.c **** 	for (uint32_t i = 0; i< elems; i++)
 143:../Radar_Control/src/radar_device_status.c **** 	{
 144:../Radar_Control/src/radar_device_status.c **** 		if (error == DEVICE_ERROR_DESCRIPTION_TABLE[i].code)
 180              	 .loc 1 144 0
 181 0000 0D4B     	 ldr r3,.L26
 182 0002 1A68     	 ldr r2,[r3]
 183 0004 8242     	 cmp r2,r0
 184 0006 13D0     	 beq .L22
 185              	.LVL6:
 186 0008 DA68     	 ldr r2,[r3,#12]
 187 000a 8242     	 cmp r2,r0
 188 000c 12D0     	 beq .L23
 189              	.LVL7:
 190 000e 9A69     	 ldr r2,[r3,#24]
 191 0010 8242     	 cmp r2,r0
 192 0012 06D0     	 beq .L24
 193              	.LVL8:
 194 0014 5A6A     	 ldr r2,[r3,#36]
 195 0016 8242     	 cmp r2,r0
 142:../Radar_Control/src/radar_device_status.c **** 	{
 196              	 .loc 1 142 0
 197 0018 08BF     	 it eq
 198 001a 0322     	 moveq r2,#3
 199              	 .loc 1 144 0
 200 001c 02D0     	 beq .L19
 201              	.LVL9:
 202              	.LBE2:
 145:../Radar_Control/src/radar_device_status.c **** 		{
 146:../Radar_Control/src/radar_device_status.c **** 			return DEVICE_ERROR_DESCRIPTION_TABLE[i].pText;
 147:../Radar_Control/src/radar_device_status.c **** 		}
 148:../Radar_Control/src/radar_device_status.c **** 	}
 149:../Radar_Control/src/radar_device_status.c **** 	/* did not found an entry, return text with index 0! */
 150:../Radar_Control/src/radar_device_status.c **** 	return DEVICE_ERROR_DESCRIPTION_TABLE[0].pText;
 203              	 .loc 1 150 0 discriminator 2
 204 001e 5868     	 ldr r0,[r3,#4]
 205              	.LVL10:
 151:../Radar_Control/src/radar_device_status.c **** }
 206              	 .loc 1 151 0 discriminator 2
 207 0020 7047     	 bx lr
 208              	.LVL11:
 209              	.L24:
 210              	.LBB3:
 142:../Radar_Control/src/radar_device_status.c **** 	{
 211              	 .loc 1 142 0
 212 0022 0222     	 movs r2,#2
 213              	.LVL12:
 214              	.L19:
 146:../Radar_Control/src/radar_device_status.c **** 		}
 215              	 .loc 1 146 0
 216 0024 02EB4202 	 add r2,r2,r2,lsl#1
 217 0028 03EB8203 	 add r3,r3,r2,lsl#2
 218 002c 5868     	 ldr r0,[r3,#4]
 219              	.LVL13:
 220 002e 7047     	 bx lr
 221              	.LVL14:
 222              	.L22:
 142:../Radar_Control/src/radar_device_status.c **** 	{
 223              	 .loc 1 142 0
 224 0030 0022     	 movs r2,#0
 225 0032 F7E7     	 b .L19
 226              	.LVL15:
 227              	.L23:
 228 0034 0122     	 movs r2,#1
 229 0036 F5E7     	 b .L19
 230              	.L27:
 231              	 .align 2
 232              	.L26:
 233 0038 00000000 	 .word .LANCHOR1
 234              	.LBE3:
 235              	 .cfi_endproc
 236              	.LFE3:
 238              	 .section .text.device_status_get_toggle_time_msec,"ax",%progbits
 239              	 .align 2
 240              	 .global device_status_get_toggle_time_msec
 241              	 .thumb
 242              	 .thumb_func
 244              	device_status_get_toggle_time_msec:
 245              	.LFB4:
 152:../Radar_Control/src/radar_device_status.c **** 
 153:../Radar_Control/src/radar_device_status.c **** //============================================================================
 154:../Radar_Control/src/radar_device_status.c **** 
 155:../Radar_Control/src/radar_device_status.c **** uint32_t device_status_get_toggle_time_msec(Device_Error_t error)
 156:../Radar_Control/src/radar_device_status.c **** {
 246              	 .loc 1 156 0
 247              	 .cfi_startproc
 248              	 
 249              	 
 250              	 
 251              	.LVL16:
 252              	.LBB4:
 157:../Radar_Control/src/radar_device_status.c **** 	/*
 158:../Radar_Control/src/radar_device_status.c **** 	 * in case of an error, we do not need to be efficient!
 159:../Radar_Control/src/radar_device_status.c **** 	 */
 160:../Radar_Control/src/radar_device_status.c **** 	uint32_t elems = sizeof(DEVICE_ERROR_DESCRIPTION_TABLE)/sizeof(DEVICE_ERROR_DESCRIPTION_TABLE[0]);
 161:../Radar_Control/src/radar_device_status.c **** 	for (uint32_t i = 0; i< elems; i++)
 162:../Radar_Control/src/radar_device_status.c **** 	{
 163:../Radar_Control/src/radar_device_status.c **** 		if (error == DEVICE_ERROR_DESCRIPTION_TABLE[i].code)
 253              	 .loc 1 163 0
 254 0000 0D4B     	 ldr r3,.L36
 255 0002 1A68     	 ldr r2,[r3]
 256 0004 8242     	 cmp r2,r0
 257 0006 13D0     	 beq .L32
 258              	.LVL17:
 259 0008 DA68     	 ldr r2,[r3,#12]
 260 000a 8242     	 cmp r2,r0
 261 000c 12D0     	 beq .L33
 262              	.LVL18:
 263 000e 9A69     	 ldr r2,[r3,#24]
 264 0010 8242     	 cmp r2,r0
 265 0012 06D0     	 beq .L34
 266              	.LVL19:
 267 0014 5A6A     	 ldr r2,[r3,#36]
 268 0016 8242     	 cmp r2,r0
 161:../Radar_Control/src/radar_device_status.c **** 	{
 269              	 .loc 1 161 0
 270 0018 08BF     	 it eq
 271 001a 0322     	 moveq r2,#3
 272              	 .loc 1 163 0
 273 001c 02D0     	 beq .L29
 274              	.LVL20:
 275              	.LBE4:
 164:../Radar_Control/src/radar_device_status.c **** 		{
 165:../Radar_Control/src/radar_device_status.c **** 			return DEVICE_ERROR_DESCRIPTION_TABLE[i].red_led_toggle_time_msec;
 166:../Radar_Control/src/radar_device_status.c **** 		}
 167:../Radar_Control/src/radar_device_status.c **** 	}
 168:../Radar_Control/src/radar_device_status.c **** 	/* did not found an entry, return text with index 0! */
 169:../Radar_Control/src/radar_device_status.c **** 	return DEVICE_ERROR_DESCRIPTION_TABLE[0].red_led_toggle_time_msec;
 276              	 .loc 1 169 0 discriminator 2
 277 001e 9868     	 ldr r0,[r3,#8]
 278              	.LVL21:
 170:../Radar_Control/src/radar_device_status.c **** }
 279              	 .loc 1 170 0 discriminator 2
 280 0020 7047     	 bx lr
 281              	.LVL22:
 282              	.L34:
 283              	.LBB5:
 161:../Radar_Control/src/radar_device_status.c **** 	{
 284              	 .loc 1 161 0
 285 0022 0222     	 movs r2,#2
 286              	.LVL23:
 287              	.L29:
 165:../Radar_Control/src/radar_device_status.c **** 		}
 288              	 .loc 1 165 0
 289 0024 02EB4202 	 add r2,r2,r2,lsl#1
 290 0028 03EB8203 	 add r3,r3,r2,lsl#2
 291 002c 9868     	 ldr r0,[r3,#8]
 292              	.LVL24:
 293 002e 7047     	 bx lr
 294              	.LVL25:
 295              	.L32:
 161:../Radar_Control/src/radar_device_status.c **** 	{
 296              	 .loc 1 161 0
 297 0030 0022     	 movs r2,#0
 298 0032 F7E7     	 b .L29
 299              	.LVL26:
 300              	.L33:
 301 0034 0122     	 movs r2,#1
 302 0036 F5E7     	 b .L29
 303              	.L37:
 304              	 .align 2
 305              	.L36:
 306 0038 00000000 	 .word .LANCHOR1
 307              	.LBE5:
 308              	 .cfi_endproc
 309              	.LFE4:
 311              	 .section .text.device_status_check,"ax",%progbits
 312              	 .align 2
 313              	 .global device_status_check
 314              	 .thumb
 315              	 .thumb_func
 317              	device_status_check:
 318              	.LFB5:
 171:../Radar_Control/src/radar_device_status.c **** 
 172:../Radar_Control/src/radar_device_status.c **** //============================================================================
 173:../Radar_Control/src/radar_device_status.c **** 
 174:../Radar_Control/src/radar_device_status.c **** /**
 175:../Radar_Control/src/radar_device_status.c ****  * @brief function to check device status
 176:../Radar_Control/src/radar_device_status.c ****  * 
 177:../Radar_Control/src/radar_device_status.c ****  * @return -1 if error exists else 0
 178:../Radar_Control/src/radar_device_status.c ****  */
 179:../Radar_Control/src/radar_device_status.c **** uint32_t device_status_check()
 180:../Radar_Control/src/radar_device_status.c **** {
 319              	 .loc 1 180 0
 320              	 .cfi_startproc
 321              	 
 322              	 
 323              	 
 324              	.LVL27:
 181:../Radar_Control/src/radar_device_status.c **** 	uint32_t retval = 0;
 182:../Radar_Control/src/radar_device_status.c **** 
 183:../Radar_Control/src/radar_device_status.c **** 	if (device_status.state != STATE_NO_ERROR)
 325              	 .loc 1 183 0
 326 0000 034B     	 ldr r3,.L39
 327 0002 1878     	 ldrb r0,[r3]
 328 0004 0030     	 adds r0,r0,#0
 329 0006 18BF     	 it ne
 330 0008 0120     	 movne r0,#1
 184:../Radar_Control/src/radar_device_status.c **** 	{
 185:../Radar_Control/src/radar_device_status.c **** 		retval = -1;
 186:../Radar_Control/src/radar_device_status.c **** 	}
 187:../Radar_Control/src/radar_device_status.c **** 	return retval;
 188:../Radar_Control/src/radar_device_status.c **** }
 331              	 .loc 1 188 0
 332 000a 4042     	 negs r0,r0
 333 000c 7047     	 bx lr
 334              	.L40:
 335 000e 00BF     	 .align 2
 336              	.L39:
 337 0010 00000000 	 .word .LANCHOR0
 338              	 .cfi_endproc
 339              	.LFE5:
 341              	 .section .text.device_status_get_error,"ax",%progbits
 342              	 .align 2
 343              	 .global device_status_get_error
 344              	 .thumb
 345              	 .thumb_func
 347              	device_status_get_error:
 348              	.LFB6:
 189:../Radar_Control/src/radar_device_status.c **** 
 190:../Radar_Control/src/radar_device_status.c **** //============================================================================
 191:../Radar_Control/src/radar_device_status.c **** 
 192:../Radar_Control/src/radar_device_status.c **** /**
 193:../Radar_Control/src/radar_device_status.c ****  * @brief function to get the current device error
 194:../Radar_Control/src/radar_device_status.c ****  * 
 195:../Radar_Control/src/radar_device_status.c ****  * @param radar_error
 196:../Radar_Control/src/radar_device_status.c ****  */
 197:../Radar_Control/src/radar_device_status.c **** void device_status_get_error(Device_Error_t *radar_error)
 198:../Radar_Control/src/radar_device_status.c **** {
 349              	 .loc 1 198 0
 350              	 .cfi_startproc
 351              	 
 352              	 
 353              	 
 354              	.LVL28:
 199:../Radar_Control/src/radar_device_status.c **** 	*radar_error = device_status.latest_error;
 355              	 .loc 1 199 0
 356 0000 014B     	 ldr r3,.L42
 357 0002 5B68     	 ldr r3,[r3,#4]
 358 0004 0360     	 str r3,[r0]
 359 0006 7047     	 bx lr
 360              	.L43:
 361              	 .align 2
 362              	.L42:
 363 0008 00000000 	 .word .LANCHOR0
 364              	 .cfi_endproc
 365              	.LFE6:
 367              	 .section .text.device_status_clean,"ax",%progbits
 368              	 .align 2
 369              	 .global device_status_clean
 370              	 .thumb
 371              	 .thumb_func
 373              	device_status_clean:
 374              	.LFB7:
 200:../Radar_Control/src/radar_device_status.c **** }
 201:../Radar_Control/src/radar_device_status.c **** 
 202:../Radar_Control/src/radar_device_status.c **** //============================================================================
 203:../Radar_Control/src/radar_device_status.c **** 
 204:../Radar_Control/src/radar_device_status.c **** /**
 205:../Radar_Control/src/radar_device_status.c ****  * @brief function to clean the errors of the device status
 206:../Radar_Control/src/radar_device_status.c ****  */
 207:../Radar_Control/src/radar_device_status.c **** void device_status_clean()
 208:../Radar_Control/src/radar_device_status.c **** {
 375              	 .loc 1 208 0
 376              	 .cfi_startproc
 377              	 
 378              	 
 379              	 
 209:../Radar_Control/src/radar_device_status.c **** 	device_status.latest_error = 0x0000;
 380              	 .loc 1 209 0
 381 0000 024B     	 ldr r3,.L45
 382 0002 0022     	 movs r2,#0
 383 0004 5A60     	 str r2,[r3,#4]
 210:../Radar_Control/src/radar_device_status.c **** 	device_status.state = STATE_NO_ERROR;
 384              	 .loc 1 210 0
 385 0006 1A70     	 strb r2,[r3]
 386 0008 7047     	 bx lr
 387              	.L46:
 388 000a 00BF     	 .align 2
 389              	.L45:
 390 000c 00000000 	 .word .LANCHOR0
 391              	 .cfi_endproc
 392              	.LFE7:
 394              	 .global DEVICE_ERROR_DESCRIPTION_TABLE
 395              	 .section .bss.device_status,"aw",%nobits
 396              	 .align 2
 397              	 .set .LANCHOR0,.+0
 400              	device_status:
 401 0000 00000000 	 .space 12
 401      00000000 
 401      00000000 
 402              	 .section .data.DEVICE_ERROR_DESCRIPTION_TABLE,"aw",%progbits
 403              	 .align 2
 404              	 .set .LANCHOR1,.+0
 407              	DEVICE_ERROR_DESCRIPTION_TABLE:
 408 0000 FFFFFFFF 	 .word -1
 409 0004 00000000 	 .word .LC0
 410 0008 C8000000 	 .word 200
 411 000c 00410000 	 .word 16640
 412 0010 10000000 	 .word .LC1
 413 0014 64000000 	 .word 100
 414 0018 01410000 	 .word 16641
 415 001c 2C000000 	 .word .LC2
 416 0020 90010000 	 .word 400
 417 0024 02410000 	 .word 16642
 418 0028 60000000 	 .word .LC3
 419 002c C8000000 	 .word 200
 420              	 .section .rodata.str1.4,"aMS",%progbits,1
 421              	 .align 2
 422              	.LC0:
 423 0000 554E4B4E 	 .ascii "UNKNOWN ERROR\000"
 423      4F574E20 
 423      4552524F 
 423      5200
 424 000e 0000     	 .space 2
 425              	.LC1:
 426 0010 4552524F 	 .ascii "ERROR: - Board unsupported\000"
 426      523A202D 
 426      20426F61 
 426      72642075 
 426      6E737570 
 427 002b 00       	 .space 1
 428              	.LC2:
 429 002c 4552524F 	 .ascii "ERROR: - Invalid Board ID, or Board not connected\000"
 429      523A202D 
 429      20496E76 
 429      616C6964 
 429      20426F61 
 430 005e 0000     	 .space 2
 431              	.LC3:
 432 0060 4552524F 	 .ascii "ERROR: - Board ID not programmed\000"
 432      523A202D 
 432      20426F61 
 432      72642049 
 432      44206E6F 
 433 0081 000000   	 .text
 434              	.Letext0:
 435              	 .file 2 "c:\\infineon\\tools\\dave ide\\4.5.0.202105191637\\eclipse\\arm-gcc-49\\arm-none-eabi\\include\\machine\\_default_types.h"
 436              	 .file 3 "c:\\infineon\\tools\\dave ide\\4.5.0.202105191637\\eclipse\\arm-gcc-49\\arm-none-eabi\\include\\stdint.h"
 437              	 .file 4 "C:/Users/Utente/Desktop/Tesi/Firmware_Software/DAVE project/S2GLP_Pulsed_Doppler/Radar_Control/inc/radar_device_status.h"
DEFINED SYMBOLS
                            *ABS*:00000000 radar_device_status.c
    {standard input}:20     .text.device_status_get_handle:00000000 $t
    {standard input}:25     .text.device_status_get_handle:00000000 device_status_get_handle
    {standard input}:39     .text.device_status_get_handle:00000004 $d
    {standard input}:44     .text.device_status_get_state:00000000 $t
    {standard input}:49     .text.device_status_get_state:00000000 device_status_get_state
    {standard input}:65     .text.device_status_get_state:00000008 $d
    {standard input}:70     .text.device_status_set_error:00000000 $t
    {standard input}:75     .text.device_status_set_error:00000000 device_status_set_error
    {standard input}:104    .text.device_status_set_error:0000001e $d
    {standard input}:108    .text.device_status_set_error:00000022 $t
    {standard input}:161    .text.device_status_set_error:00000054 $d
    {standard input}:166    .text.device_status_get_error_description:00000000 $t
    {standard input}:171    .text.device_status_get_error_description:00000000 device_status_get_error_description
    {standard input}:233    .text.device_status_get_error_description:00000038 $d
    {standard input}:239    .text.device_status_get_toggle_time_msec:00000000 $t
    {standard input}:244    .text.device_status_get_toggle_time_msec:00000000 device_status_get_toggle_time_msec
    {standard input}:306    .text.device_status_get_toggle_time_msec:00000038 $d
    {standard input}:312    .text.device_status_check:00000000 $t
    {standard input}:317    .text.device_status_check:00000000 device_status_check
    {standard input}:337    .text.device_status_check:00000010 $d
    {standard input}:342    .text.device_status_get_error:00000000 $t
    {standard input}:347    .text.device_status_get_error:00000000 device_status_get_error
    {standard input}:363    .text.device_status_get_error:00000008 $d
    {standard input}:368    .text.device_status_clean:00000000 $t
    {standard input}:373    .text.device_status_clean:00000000 device_status_clean
    {standard input}:390    .text.device_status_clean:0000000c $d
    {standard input}:407    .data.DEVICE_ERROR_DESCRIPTION_TABLE:00000000 DEVICE_ERROR_DESCRIPTION_TABLE
    {standard input}:396    .bss.device_status:00000000 $d
    {standard input}:400    .bss.device_status:00000000 device_status
    {standard input}:403    .data.DEVICE_ERROR_DESCRIPTION_TABLE:00000000 $d
    {standard input}:421    .rodata.str1.4:00000000 $d
                     .debug_frame:00000010 $d

NO UNDEFINED SYMBOLS
