   1              	 .syntax unified
   2              	 .cpu cortex-m4
   3              	 .eabi_attribute 27,3
   4              	 .fpu fpv4-sp-d16
   5              	 .eabi_attribute 20,1
   6              	 .eabi_attribute 21,1
   7              	 .eabi_attribute 23,3
   8              	 .eabi_attribute 24,1
   9              	 .eabi_attribute 25,1
  10              	 .eabi_attribute 26,1
  11              	 .eabi_attribute 30,2
  12              	 .eabi_attribute 34,1
  13              	 .eabi_attribute 18,4
  14              	 .thumb
  15              	 .file "EndpointRadarMcuBase.c"
  16              	 .text
  17              	.Ltext0:
  18              	 .cfi_sections .debug_frame
  19              	 .section .text.send_consumption_response,"ax",%progbits
  20              	 .align 2
  21              	 .global send_consumption_response
  22              	 .thumb
  23              	 .thumb_func
  25              	send_consumption_response:
  26              	.LFB546:
  27              	 .file 1 "../HostCommunication/src/EndpointRadarMcuBase.c"
   1:../HostCommunication/src/EndpointRadarMcuBase.c **** /**
   2:../HostCommunication/src/EndpointRadarMcuBase.c ****  * @file: EndpointRadarMcuBase.c
   3:../HostCommunication/src/EndpointRadarMcuBase.c ****  *
   4:../HostCommunication/src/EndpointRadarMcuBase.c ****  * @brief: Radar endpoint containing functionality pertinent to Industrial 
   5:../HostCommunication/src/EndpointRadarMcuBase.c ****  *         radar demo kits.
   6:../HostCommunication/src/EndpointRadarMcuBase.c ****  */
   7:../HostCommunication/src/EndpointRadarMcuBase.c **** 
   8:../HostCommunication/src/EndpointRadarMcuBase.c **** /* ===========================================================================
   9:../HostCommunication/src/EndpointRadarMcuBase.c **** ** Copyright (C) 2018-2021 Infineon Technologies AG
  10:../HostCommunication/src/EndpointRadarMcuBase.c **** ** All rights reserved.
  11:../HostCommunication/src/EndpointRadarMcuBase.c **** ** ===========================================================================
  12:../HostCommunication/src/EndpointRadarMcuBase.c **** **
  13:../HostCommunication/src/EndpointRadarMcuBase.c **** ** ===========================================================================
  14:../HostCommunication/src/EndpointRadarMcuBase.c **** ** This document contains proprietary information of Infineon Technologies AG.
  15:../HostCommunication/src/EndpointRadarMcuBase.c **** ** Passing on and copying of this document, and communication of its contents
  16:../HostCommunication/src/EndpointRadarMcuBase.c **** ** is not permitted without Infineon's prior written authorisation.
  17:../HostCommunication/src/EndpointRadarMcuBase.c **** ** ===========================================================================
  18:../HostCommunication/src/EndpointRadarMcuBase.c **** */
  19:../HostCommunication/src/EndpointRadarMcuBase.c **** 
  20:../HostCommunication/src/EndpointRadarMcuBase.c **** /*
  21:../HostCommunication/src/EndpointRadarMcuBase.c **** ==============================================================================
  22:../HostCommunication/src/EndpointRadarMcuBase.c ****    1. INCLUDE FILES
  23:../HostCommunication/src/EndpointRadarMcuBase.c **** ==============================================================================
  24:../HostCommunication/src/EndpointRadarMcuBase.c ****  */
  25:../HostCommunication/src/EndpointRadarMcuBase.c **** #include "EndpointRadarMcuBase.h"
  26:../HostCommunication/src/EndpointRadarMcuBase.c **** #include "EndpointRadarChangeCodes.h"
  27:../HostCommunication/src/EndpointRadarMcuBase.c **** #include "PayloadHelper.h"
  28:../HostCommunication/src/EndpointRadarMcuBase.c **** #include "EndpointRadarMcubase.h"
  29:../HostCommunication/src/EndpointRadarMcuBase.c **** #include "radar_mcubase.h"
  30:../HostCommunication/src/EndpointRadarMcuBase.c **** #include "datastore_eep.h"
  31:../HostCommunication/src/EndpointRadarMcuBase.c **** #include "radar_pulse.h"
  32:../HostCommunication/src/EndpointRadarMcuBase.c **** 
  33:../HostCommunication/src/EndpointRadarMcuBase.c **** /*
  34:../HostCommunication/src/EndpointRadarMcuBase.c **** ==============================================================================
  35:../HostCommunication/src/EndpointRadarMcuBase.c ****    2. LOCAL DEFINITIONS
  36:../HostCommunication/src/EndpointRadarMcuBase.c **** ==============================================================================
  37:../HostCommunication/src/EndpointRadarMcuBase.c ****  */
  38:../HostCommunication/src/EndpointRadarMcuBase.c **** /**
  39:../HostCommunication/src/EndpointRadarMcuBase.c ****  * \defgroup MessageTypes
  40:../HostCommunication/src/EndpointRadarMcuBase.c ****  *
  41:../HostCommunication/src/EndpointRadarMcuBase.c ****  * @brief: This end point knows these message types.
  42:../HostCommunication/src/EndpointRadarMcuBase.c ****  *
  43:../HostCommunication/src/EndpointRadarMcuBase.c ****  * The first payload byte of every message is one of these codes.
  44:../HostCommunication/src/EndpointRadarMcuBase.c ****  *
  45:../HostCommunication/src/EndpointRadarMcuBase.c ****  * @{
  46:../HostCommunication/src/EndpointRadarMcuBase.c ****  */
  47:../HostCommunication/src/EndpointRadarMcuBase.c ****  
  48:../HostCommunication/src/EndpointRadarMcuBase.c **** #define MSG_CONSUMPTION_DEF_IND			0xD0
  49:../HostCommunication/src/EndpointRadarMcuBase.c **** #define MSG_CONSUMPTION_DEF_RES			0xD1	/**< A message containing the parameters variation */
  50:../HostCommunication/src/EndpointRadarMcuBase.c **** #define MSG_CONSUMPTION_IND		    	0xD2    /**< A message to request the consumption */
  51:../HostCommunication/src/EndpointRadarMcuBase.c **** #define MSG_CONSUMPTION_RES			    0xD3    /**< A message to provide the consumption */
  52:../HostCommunication/src/EndpointRadarMcuBase.c **** 
  53:../HostCommunication/src/EndpointRadarMcuBase.c **** #define MSG_RF_SHIELD_ID_IND			0xE0	// to be implemented
  54:../HostCommunication/src/EndpointRadarMcuBase.c **** #define MSG_RF_SHIELD_ID_RES			0xE1	// to be implemented
  55:../HostCommunication/src/EndpointRadarMcuBase.c **** 
  56:../HostCommunication/src/EndpointRadarMcuBase.c **** #define MSG_STORE_PARAMETER_IND			0xE2	// to be implemented
  57:../HostCommunication/src/EndpointRadarMcuBase.c **** #define MSG_STORE_PARAMETER_RES			0xE3	// to be implemented
  58:../HostCommunication/src/EndpointRadarMcuBase.c **** #define MSG_PARA_FACTORY_RESET_IND		0xE4	// to be implemented
  59:../HostCommunication/src/EndpointRadarMcuBase.c **** #define MSG_PARA_FACTORY_RESET_RES		0xE5	// to be implemented
  60:../HostCommunication/src/EndpointRadarMcuBase.c **** 
  61:../HostCommunication/src/EndpointRadarMcuBase.c **** #define MSG_ERROR_REQ					0xF0 	// to be implemented
  62:../HostCommunication/src/EndpointRadarMcuBase.c **** 
  63:../HostCommunication/src/EndpointRadarMcuBase.c **** // TODO: move to a common place
  64:../HostCommunication/src/EndpointRadarMcuBase.c **** #define NB_OF_ELEMENTS(a)  (sizeof(a)/sizeof(a[0]))
  65:../HostCommunication/src/EndpointRadarMcuBase.c **** 
  66:../HostCommunication/src/EndpointRadarMcuBase.c **** static uint8_t mcu_base_endpoint = 0;
  67:../HostCommunication/src/EndpointRadarMcuBase.c **** 
  68:../HostCommunication/src/EndpointRadarMcuBase.c **** /** @} */
  69:../HostCommunication/src/EndpointRadarMcuBase.c **** 
  70:../HostCommunication/src/EndpointRadarMcuBase.c **** /*  helper */
  71:../HostCommunication/src/EndpointRadarMcuBase.c **** 
  72:../HostCommunication/src/EndpointRadarMcuBase.c **** uint16_t send_consumption_response(uint8_t entries, consumption_response_t *pData )
  73:../HostCommunication/src/EndpointRadarMcuBase.c **** {
  28              	 .loc 1 73 0
  29              	 .cfi_startproc
  30              	 
  31              	 
  32              	.LVL0:
  33 0000 2DE9F043 	 push {r4,r5,r6,r7,r8,r9,lr}
  34              	.LCFI0:
  35              	 .cfi_def_cfa_offset 28
  36              	 .cfi_offset 4,-28
  37              	 .cfi_offset 5,-24
  38              	 .cfi_offset 6,-20
  39              	 .cfi_offset 7,-16
  40              	 .cfi_offset 8,-12
  41              	 .cfi_offset 9,-8
  42              	 .cfi_offset 14,-4
  74:../HostCommunication/src/EndpointRadarMcuBase.c **** 	uint8_t message[256];
  75:../HostCommunication/src/EndpointRadarMcuBase.c **** 	int16_t offset = 0;
  76:../HostCommunication/src/EndpointRadarMcuBase.c **** 	uint8_t endpoint = mcu_base_endpoint;
  43              	 .loc 1 76 0
  44 0004 2F4B     	 ldr r3,.L14
  73:../HostCommunication/src/EndpointRadarMcuBase.c **** 	uint8_t message[256];
  45              	 .loc 1 73 0
  46 0006 C1B0     	 sub sp,sp,#260
  47              	.LCFI1:
  48              	 .cfi_def_cfa_offset 288
  49              	.LBB37:
  50              	.LBB38:
  51              	 .file 2 "C:/Users/Utente/Desktop/Tesi/Firmware_Software/DAVE project/S2GLP_Pulsed_Doppler/HostCommunication/inc/PayloadHelper.h"
   1:C:/Users/Utente/Desktop/Tesi/Firmware_Software/DAVE project/S2GLP_Pulsed_Doppler/HostCommunication/inc\PayloadHelper.h **** ﻿/**
   2:C:/Users/Utente/Desktop/Tesi/Firmware_Software/DAVE project/S2GLP_Pulsed_Doppler/HostCommunication/inc\PayloadHelper.h ****  * \file PayloadHelper.h
   3:C:/Users/Utente/Desktop/Tesi/Firmware_Software/DAVE project/S2GLP_Pulsed_Doppler/HostCommunication/inc\PayloadHelper.h ****  *
   4:C:/Users/Utente/Desktop/Tesi/Firmware_Software/DAVE project/S2GLP_Pulsed_Doppler/HostCommunication/inc\PayloadHelper.h ****  * \brief This file defines an internal protocol API to be used by endpoint
   5:C:/Users/Utente/Desktop/Tesi/Firmware_Software/DAVE project/S2GLP_Pulsed_Doppler/HostCommunication/inc\PayloadHelper.h ****  *        implementations.
   6:C:/Users/Utente/Desktop/Tesi/Firmware_Software/DAVE project/S2GLP_Pulsed_Doppler/HostCommunication/inc\PayloadHelper.h ****  *
   7:C:/Users/Utente/Desktop/Tesi/Firmware_Software/DAVE project/S2GLP_Pulsed_Doppler/HostCommunication/inc\PayloadHelper.h ****  * This file defines some light weight function that help to access data in
   8:C:/Users/Utente/Desktop/Tesi/Firmware_Software/DAVE project/S2GLP_Pulsed_Doppler/HostCommunication/inc\PayloadHelper.h ****  * protocol payload. Different implementation allow to adapt to the
   9:C:/Users/Utente/Desktop/Tesi/Firmware_Software/DAVE project/S2GLP_Pulsed_Doppler/HostCommunication/inc\PayloadHelper.h ****  * capabilities of the target machine. Special implementations can be chosen
  10:C:/Users/Utente/Desktop/Tesi/Firmware_Software/DAVE project/S2GLP_Pulsed_Doppler/HostCommunication/inc\PayloadHelper.h ****  * by defining the according compile time switch. If none of the available
  11:C:/Users/Utente/Desktop/Tesi/Firmware_Software/DAVE project/S2GLP_Pulsed_Doppler/HostCommunication/inc\PayloadHelper.h ****  * compile time switches is chosen, the default implementation will be used.
  12:C:/Users/Utente/Desktop/Tesi/Firmware_Software/DAVE project/S2GLP_Pulsed_Doppler/HostCommunication/inc\PayloadHelper.h ****  *
  13:C:/Users/Utente/Desktop/Tesi/Firmware_Software/DAVE project/S2GLP_Pulsed_Doppler/HostCommunication/inc\PayloadHelper.h ****  * The default implementation is safe on all target machines and can handle
  14:C:/Users/Utente/Desktop/Tesi/Firmware_Software/DAVE project/S2GLP_Pulsed_Doppler/HostCommunication/inc\PayloadHelper.h ****  * both, big endian CPUs and little endian CPUs. It may be slower than other
  15:C:/Users/Utente/Desktop/Tesi/Firmware_Software/DAVE project/S2GLP_Pulsed_Doppler/HostCommunication/inc\PayloadHelper.h ****  * special implementations.
  16:C:/Users/Utente/Desktop/Tesi/Firmware_Software/DAVE project/S2GLP_Pulsed_Doppler/HostCommunication/inc\PayloadHelper.h ****  *
  17:C:/Users/Utente/Desktop/Tesi/Firmware_Software/DAVE project/S2GLP_Pulsed_Doppler/HostCommunication/inc\PayloadHelper.h ****  * If the compile time switch COMLIB_ALLOW_PAYLOAD_CASTS is set, a special
  18:C:/Users/Utente/Desktop/Tesi/Firmware_Software/DAVE project/S2GLP_Pulsed_Doppler/HostCommunication/inc\PayloadHelper.h ****  * implementation for little endian machines is used, that can access data
  19:C:/Users/Utente/Desktop/Tesi/Firmware_Software/DAVE project/S2GLP_Pulsed_Doppler/HostCommunication/inc\PayloadHelper.h ****  * faster by casting data to the right data type. This implementation works
  20:C:/Users/Utente/Desktop/Tesi/Firmware_Software/DAVE project/S2GLP_Pulsed_Doppler/HostCommunication/inc\PayloadHelper.h ****  * only for CPUs that have no alignment requirement for 16 bit and 32 bit
  21:C:/Users/Utente/Desktop/Tesi/Firmware_Software/DAVE project/S2GLP_Pulsed_Doppler/HostCommunication/inc\PayloadHelper.h ****  * integers.
  22:C:/Users/Utente/Desktop/Tesi/Firmware_Software/DAVE project/S2GLP_Pulsed_Doppler/HostCommunication/inc\PayloadHelper.h ****  */
  23:C:/Users/Utente/Desktop/Tesi/Firmware_Software/DAVE project/S2GLP_Pulsed_Doppler/HostCommunication/inc\PayloadHelper.h **** 
  24:C:/Users/Utente/Desktop/Tesi/Firmware_Software/DAVE project/S2GLP_Pulsed_Doppler/HostCommunication/inc\PayloadHelper.h **** /* ===========================================================================
  25:C:/Users/Utente/Desktop/Tesi/Firmware_Software/DAVE project/S2GLP_Pulsed_Doppler/HostCommunication/inc\PayloadHelper.h **** ** Copyright (C) 2016-2021 Infineon Technologies AG
  26:C:/Users/Utente/Desktop/Tesi/Firmware_Software/DAVE project/S2GLP_Pulsed_Doppler/HostCommunication/inc\PayloadHelper.h **** ** All rights reserved.
  27:C:/Users/Utente/Desktop/Tesi/Firmware_Software/DAVE project/S2GLP_Pulsed_Doppler/HostCommunication/inc\PayloadHelper.h **** ** ===========================================================================
  28:C:/Users/Utente/Desktop/Tesi/Firmware_Software/DAVE project/S2GLP_Pulsed_Doppler/HostCommunication/inc\PayloadHelper.h **** **
  29:C:/Users/Utente/Desktop/Tesi/Firmware_Software/DAVE project/S2GLP_Pulsed_Doppler/HostCommunication/inc\PayloadHelper.h **** ** ===========================================================================
  30:C:/Users/Utente/Desktop/Tesi/Firmware_Software/DAVE project/S2GLP_Pulsed_Doppler/HostCommunication/inc\PayloadHelper.h **** ** This document contains proprietary information of Infineon Technologies AG.
  31:C:/Users/Utente/Desktop/Tesi/Firmware_Software/DAVE project/S2GLP_Pulsed_Doppler/HostCommunication/inc\PayloadHelper.h **** ** Passing on and copying of this document, and communication of its contents
  32:C:/Users/Utente/Desktop/Tesi/Firmware_Software/DAVE project/S2GLP_Pulsed_Doppler/HostCommunication/inc\PayloadHelper.h **** ** is not permitted without Infineon's prior written authorisation.
  33:C:/Users/Utente/Desktop/Tesi/Firmware_Software/DAVE project/S2GLP_Pulsed_Doppler/HostCommunication/inc\PayloadHelper.h **** ** ===========================================================================
  34:C:/Users/Utente/Desktop/Tesi/Firmware_Software/DAVE project/S2GLP_Pulsed_Doppler/HostCommunication/inc\PayloadHelper.h **** */
  35:C:/Users/Utente/Desktop/Tesi/Firmware_Software/DAVE project/S2GLP_Pulsed_Doppler/HostCommunication/inc\PayloadHelper.h **** 
  36:C:/Users/Utente/Desktop/Tesi/Firmware_Software/DAVE project/S2GLP_Pulsed_Doppler/HostCommunication/inc\PayloadHelper.h **** #ifndef HOSTCOMMUNICATION_PAYLOAD_HELPER_H_
  37:C:/Users/Utente/Desktop/Tesi/Firmware_Software/DAVE project/S2GLP_Pulsed_Doppler/HostCommunication/inc\PayloadHelper.h **** #define HOSTCOMMUNICATION_PAYLOAD_HELPER_H_
  38:C:/Users/Utente/Desktop/Tesi/Firmware_Software/DAVE project/S2GLP_Pulsed_Doppler/HostCommunication/inc\PayloadHelper.h **** 
  39:C:/Users/Utente/Desktop/Tesi/Firmware_Software/DAVE project/S2GLP_Pulsed_Doppler/HostCommunication/inc\PayloadHelper.h **** /*
  40:C:/Users/Utente/Desktop/Tesi/Firmware_Software/DAVE project/S2GLP_Pulsed_Doppler/HostCommunication/inc\PayloadHelper.h **** ==============================================================================
  41:C:/Users/Utente/Desktop/Tesi/Firmware_Software/DAVE project/S2GLP_Pulsed_Doppler/HostCommunication/inc\PayloadHelper.h ****    1. INCLUDE FILES
  42:C:/Users/Utente/Desktop/Tesi/Firmware_Software/DAVE project/S2GLP_Pulsed_Doppler/HostCommunication/inc\PayloadHelper.h **** ==============================================================================
  43:C:/Users/Utente/Desktop/Tesi/Firmware_Software/DAVE project/S2GLP_Pulsed_Doppler/HostCommunication/inc\PayloadHelper.h ****  */
  44:C:/Users/Utente/Desktop/Tesi/Firmware_Software/DAVE project/S2GLP_Pulsed_Doppler/HostCommunication/inc\PayloadHelper.h **** #include <stdint.h>
  45:C:/Users/Utente/Desktop/Tesi/Firmware_Software/DAVE project/S2GLP_Pulsed_Doppler/HostCommunication/inc\PayloadHelper.h **** #include <stdlib.h>
  46:C:/Users/Utente/Desktop/Tesi/Firmware_Software/DAVE project/S2GLP_Pulsed_Doppler/HostCommunication/inc\PayloadHelper.h **** 
  47:C:/Users/Utente/Desktop/Tesi/Firmware_Software/DAVE project/S2GLP_Pulsed_Doppler/HostCommunication/inc\PayloadHelper.h **** 
  48:C:/Users/Utente/Desktop/Tesi/Firmware_Software/DAVE project/S2GLP_Pulsed_Doppler/HostCommunication/inc\PayloadHelper.h **** #if !defined(STATIC_ASSERT)
  49:C:/Users/Utente/Desktop/Tesi/Firmware_Software/DAVE project/S2GLP_Pulsed_Doppler/HostCommunication/inc\PayloadHelper.h **** #define STATIC_ASSERT(test_for_true) _Static_assert((test_for_true), "(" #test_for_true ") failed")
  50:C:/Users/Utente/Desktop/Tesi/Firmware_Software/DAVE project/S2GLP_Pulsed_Doppler/HostCommunication/inc\PayloadHelper.h **** #endif
  51:C:/Users/Utente/Desktop/Tesi/Firmware_Software/DAVE project/S2GLP_Pulsed_Doppler/HostCommunication/inc\PayloadHelper.h **** 
  52:C:/Users/Utente/Desktop/Tesi/Firmware_Software/DAVE project/S2GLP_Pulsed_Doppler/HostCommunication/inc\PayloadHelper.h **** /*
  53:C:/Users/Utente/Desktop/Tesi/Firmware_Software/DAVE project/S2GLP_Pulsed_Doppler/HostCommunication/inc\PayloadHelper.h **** ==============================================================================
  54:C:/Users/Utente/Desktop/Tesi/Firmware_Software/DAVE project/S2GLP_Pulsed_Doppler/HostCommunication/inc\PayloadHelper.h ****    2. FUNCTION PROTOTYPES AND INLINE FUNCTIONS
  55:C:/Users/Utente/Desktop/Tesi/Firmware_Software/DAVE project/S2GLP_Pulsed_Doppler/HostCommunication/inc\PayloadHelper.h **** ==============================================================================
  56:C:/Users/Utente/Desktop/Tesi/Firmware_Software/DAVE project/S2GLP_Pulsed_Doppler/HostCommunication/inc\PayloadHelper.h ****  */
  57:C:/Users/Utente/Desktop/Tesi/Firmware_Software/DAVE project/S2GLP_Pulsed_Doppler/HostCommunication/inc\PayloadHelper.h **** 
  58:C:/Users/Utente/Desktop/Tesi/Firmware_Software/DAVE project/S2GLP_Pulsed_Doppler/HostCommunication/inc\PayloadHelper.h **** /**
  59:C:/Users/Utente/Desktop/Tesi/Firmware_Software/DAVE project/S2GLP_Pulsed_Doppler/HostCommunication/inc\PayloadHelper.h ****  * \internal
  60:C:/Users/Utente/Desktop/Tesi/Firmware_Software/DAVE project/S2GLP_Pulsed_Doppler/HostCommunication/inc\PayloadHelper.h ****  * \brief The function extracts a signed 8 bit integer from a payload buffer.
  61:C:/Users/Utente/Desktop/Tesi/Firmware_Software/DAVE project/S2GLP_Pulsed_Doppler/HostCommunication/inc\PayloadHelper.h ****  *
  62:C:/Users/Utente/Desktop/Tesi/Firmware_Software/DAVE project/S2GLP_Pulsed_Doppler/HostCommunication/inc\PayloadHelper.h ****  * The function reads one byte from the given payload buffer at the requested
  63:C:/Users/Utente/Desktop/Tesi/Firmware_Software/DAVE project/S2GLP_Pulsed_Doppler/HostCommunication/inc\PayloadHelper.h ****  * position and interprets it as a signed 8 bit integer value, which will be
  64:C:/Users/Utente/Desktop/Tesi/Firmware_Software/DAVE project/S2GLP_Pulsed_Doppler/HostCommunication/inc\PayloadHelper.h ****  * returned.
  65:C:/Users/Utente/Desktop/Tesi/Firmware_Software/DAVE project/S2GLP_Pulsed_Doppler/HostCommunication/inc\PayloadHelper.h ****  *
  66:C:/Users/Utente/Desktop/Tesi/Firmware_Software/DAVE project/S2GLP_Pulsed_Doppler/HostCommunication/inc\PayloadHelper.h ****  * \param[in] payload  A pointer to a block of payload data.
  67:C:/Users/Utente/Desktop/Tesi/Firmware_Software/DAVE project/S2GLP_Pulsed_Doppler/HostCommunication/inc\PayloadHelper.h ****  * \param[in] offset   The byte position at which the requested data value
  68:C:/Users/Utente/Desktop/Tesi/Firmware_Software/DAVE project/S2GLP_Pulsed_Doppler/HostCommunication/inc\PayloadHelper.h ****  *                     starts.
  69:C:/Users/Utente/Desktop/Tesi/Firmware_Software/DAVE project/S2GLP_Pulsed_Doppler/HostCommunication/inc\PayloadHelper.h ****  *
  70:C:/Users/Utente/Desktop/Tesi/Firmware_Software/DAVE project/S2GLP_Pulsed_Doppler/HostCommunication/inc\PayloadHelper.h ****  * \return The function returns the value read from the payload.
  71:C:/Users/Utente/Desktop/Tesi/Firmware_Software/DAVE project/S2GLP_Pulsed_Doppler/HostCommunication/inc\PayloadHelper.h ****  */
  72:C:/Users/Utente/Desktop/Tesi/Firmware_Software/DAVE project/S2GLP_Pulsed_Doppler/HostCommunication/inc\PayloadHelper.h **** static inline int8_t rd_payload_i8(const uint8_t* payload, size_t offset)
  73:C:/Users/Utente/Desktop/Tesi/Firmware_Software/DAVE project/S2GLP_Pulsed_Doppler/HostCommunication/inc\PayloadHelper.h **** {
  74:C:/Users/Utente/Desktop/Tesi/Firmware_Software/DAVE project/S2GLP_Pulsed_Doppler/HostCommunication/inc\PayloadHelper.h ****     return (int8_t)payload[offset];
  75:C:/Users/Utente/Desktop/Tesi/Firmware_Software/DAVE project/S2GLP_Pulsed_Doppler/HostCommunication/inc\PayloadHelper.h **** }
  76:C:/Users/Utente/Desktop/Tesi/Firmware_Software/DAVE project/S2GLP_Pulsed_Doppler/HostCommunication/inc\PayloadHelper.h **** 
  77:C:/Users/Utente/Desktop/Tesi/Firmware_Software/DAVE project/S2GLP_Pulsed_Doppler/HostCommunication/inc\PayloadHelper.h **** /**
  78:C:/Users/Utente/Desktop/Tesi/Firmware_Software/DAVE project/S2GLP_Pulsed_Doppler/HostCommunication/inc\PayloadHelper.h ****  * \internal
  79:C:/Users/Utente/Desktop/Tesi/Firmware_Software/DAVE project/S2GLP_Pulsed_Doppler/HostCommunication/inc\PayloadHelper.h ****  * \brief The function extracts an unsigned 8 bit integer from a payload
  80:C:/Users/Utente/Desktop/Tesi/Firmware_Software/DAVE project/S2GLP_Pulsed_Doppler/HostCommunication/inc\PayloadHelper.h ****  *        buffer.
  81:C:/Users/Utente/Desktop/Tesi/Firmware_Software/DAVE project/S2GLP_Pulsed_Doppler/HostCommunication/inc\PayloadHelper.h ****  *
  82:C:/Users/Utente/Desktop/Tesi/Firmware_Software/DAVE project/S2GLP_Pulsed_Doppler/HostCommunication/inc\PayloadHelper.h ****  * The function reads one byte from the given payload buffer at the requested
  83:C:/Users/Utente/Desktop/Tesi/Firmware_Software/DAVE project/S2GLP_Pulsed_Doppler/HostCommunication/inc\PayloadHelper.h ****  * position and interprets it as an unsigned 8 bit integer value, which will
  84:C:/Users/Utente/Desktop/Tesi/Firmware_Software/DAVE project/S2GLP_Pulsed_Doppler/HostCommunication/inc\PayloadHelper.h ****  * be returned.
  85:C:/Users/Utente/Desktop/Tesi/Firmware_Software/DAVE project/S2GLP_Pulsed_Doppler/HostCommunication/inc\PayloadHelper.h ****  *
  86:C:/Users/Utente/Desktop/Tesi/Firmware_Software/DAVE project/S2GLP_Pulsed_Doppler/HostCommunication/inc\PayloadHelper.h ****  * \param[in] payload  A pointer to a block of payload data.
  87:C:/Users/Utente/Desktop/Tesi/Firmware_Software/DAVE project/S2GLP_Pulsed_Doppler/HostCommunication/inc\PayloadHelper.h ****  * \param[in] offset   The byte position at which the requested data value
  88:C:/Users/Utente/Desktop/Tesi/Firmware_Software/DAVE project/S2GLP_Pulsed_Doppler/HostCommunication/inc\PayloadHelper.h ****  *                     starts.
  89:C:/Users/Utente/Desktop/Tesi/Firmware_Software/DAVE project/S2GLP_Pulsed_Doppler/HostCommunication/inc\PayloadHelper.h ****  *
  90:C:/Users/Utente/Desktop/Tesi/Firmware_Software/DAVE project/S2GLP_Pulsed_Doppler/HostCommunication/inc\PayloadHelper.h ****  * \return The function returns the value read from the payload.
  91:C:/Users/Utente/Desktop/Tesi/Firmware_Software/DAVE project/S2GLP_Pulsed_Doppler/HostCommunication/inc\PayloadHelper.h ****  */
  92:C:/Users/Utente/Desktop/Tesi/Firmware_Software/DAVE project/S2GLP_Pulsed_Doppler/HostCommunication/inc\PayloadHelper.h **** static inline uint8_t rd_payload_u8(const uint8_t* payload, size_t offset)
  93:C:/Users/Utente/Desktop/Tesi/Firmware_Software/DAVE project/S2GLP_Pulsed_Doppler/HostCommunication/inc\PayloadHelper.h **** {
  94:C:/Users/Utente/Desktop/Tesi/Firmware_Software/DAVE project/S2GLP_Pulsed_Doppler/HostCommunication/inc\PayloadHelper.h ****     return payload[offset];
  95:C:/Users/Utente/Desktop/Tesi/Firmware_Software/DAVE project/S2GLP_Pulsed_Doppler/HostCommunication/inc\PayloadHelper.h **** }
  96:C:/Users/Utente/Desktop/Tesi/Firmware_Software/DAVE project/S2GLP_Pulsed_Doppler/HostCommunication/inc\PayloadHelper.h **** 
  97:C:/Users/Utente/Desktop/Tesi/Firmware_Software/DAVE project/S2GLP_Pulsed_Doppler/HostCommunication/inc\PayloadHelper.h **** /**
  98:C:/Users/Utente/Desktop/Tesi/Firmware_Software/DAVE project/S2GLP_Pulsed_Doppler/HostCommunication/inc\PayloadHelper.h ****  * \internal
  99:C:/Users/Utente/Desktop/Tesi/Firmware_Software/DAVE project/S2GLP_Pulsed_Doppler/HostCommunication/inc\PayloadHelper.h ****  * \brief The function extracts a signed 16 bit integer from a payload buffer.
 100:C:/Users/Utente/Desktop/Tesi/Firmware_Software/DAVE project/S2GLP_Pulsed_Doppler/HostCommunication/inc\PayloadHelper.h ****  *
 101:C:/Users/Utente/Desktop/Tesi/Firmware_Software/DAVE project/S2GLP_Pulsed_Doppler/HostCommunication/inc\PayloadHelper.h ****  * The function reads two bytes from the given payload buffer starting at the
 102:C:/Users/Utente/Desktop/Tesi/Firmware_Software/DAVE project/S2GLP_Pulsed_Doppler/HostCommunication/inc\PayloadHelper.h ****  * requested position and interprets them as a signed 16 bit integer value,
 103:C:/Users/Utente/Desktop/Tesi/Firmware_Software/DAVE project/S2GLP_Pulsed_Doppler/HostCommunication/inc\PayloadHelper.h ****  * which will be returned. If needed the byte order is swapped to convert from
 104:C:/Users/Utente/Desktop/Tesi/Firmware_Software/DAVE project/S2GLP_Pulsed_Doppler/HostCommunication/inc\PayloadHelper.h ****  * the payload's little endian format to the CPU's endian format.
 105:C:/Users/Utente/Desktop/Tesi/Firmware_Software/DAVE project/S2GLP_Pulsed_Doppler/HostCommunication/inc\PayloadHelper.h ****  *
 106:C:/Users/Utente/Desktop/Tesi/Firmware_Software/DAVE project/S2GLP_Pulsed_Doppler/HostCommunication/inc\PayloadHelper.h ****  * \param[in] payload  A pointer to a block of payload data.
 107:C:/Users/Utente/Desktop/Tesi/Firmware_Software/DAVE project/S2GLP_Pulsed_Doppler/HostCommunication/inc\PayloadHelper.h ****  * \param[in] offset   The byte position at which the requested data value
 108:C:/Users/Utente/Desktop/Tesi/Firmware_Software/DAVE project/S2GLP_Pulsed_Doppler/HostCommunication/inc\PayloadHelper.h ****  *                     starts.
 109:C:/Users/Utente/Desktop/Tesi/Firmware_Software/DAVE project/S2GLP_Pulsed_Doppler/HostCommunication/inc\PayloadHelper.h ****  *
 110:C:/Users/Utente/Desktop/Tesi/Firmware_Software/DAVE project/S2GLP_Pulsed_Doppler/HostCommunication/inc\PayloadHelper.h ****  * \return The function returns the value read from the payload.
 111:C:/Users/Utente/Desktop/Tesi/Firmware_Software/DAVE project/S2GLP_Pulsed_Doppler/HostCommunication/inc\PayloadHelper.h ****  */
 112:C:/Users/Utente/Desktop/Tesi/Firmware_Software/DAVE project/S2GLP_Pulsed_Doppler/HostCommunication/inc\PayloadHelper.h **** static inline int16_t rd_payload_i16(const uint8_t* payload, size_t offset);
 113:C:/Users/Utente/Desktop/Tesi/Firmware_Software/DAVE project/S2GLP_Pulsed_Doppler/HostCommunication/inc\PayloadHelper.h **** 
 114:C:/Users/Utente/Desktop/Tesi/Firmware_Software/DAVE project/S2GLP_Pulsed_Doppler/HostCommunication/inc\PayloadHelper.h **** /**
 115:C:/Users/Utente/Desktop/Tesi/Firmware_Software/DAVE project/S2GLP_Pulsed_Doppler/HostCommunication/inc\PayloadHelper.h ****  * \internal
 116:C:/Users/Utente/Desktop/Tesi/Firmware_Software/DAVE project/S2GLP_Pulsed_Doppler/HostCommunication/inc\PayloadHelper.h ****  * \brief The function extracts an unsigned 16 bit integer from a payload
 117:C:/Users/Utente/Desktop/Tesi/Firmware_Software/DAVE project/S2GLP_Pulsed_Doppler/HostCommunication/inc\PayloadHelper.h ****  *        buffer.
 118:C:/Users/Utente/Desktop/Tesi/Firmware_Software/DAVE project/S2GLP_Pulsed_Doppler/HostCommunication/inc\PayloadHelper.h ****  *
 119:C:/Users/Utente/Desktop/Tesi/Firmware_Software/DAVE project/S2GLP_Pulsed_Doppler/HostCommunication/inc\PayloadHelper.h ****  * The function reads two bytes from the given payload buffer starting at the
 120:C:/Users/Utente/Desktop/Tesi/Firmware_Software/DAVE project/S2GLP_Pulsed_Doppler/HostCommunication/inc\PayloadHelper.h ****  * requested position and interprets them as an unsigned 16 bit integer value,
 121:C:/Users/Utente/Desktop/Tesi/Firmware_Software/DAVE project/S2GLP_Pulsed_Doppler/HostCommunication/inc\PayloadHelper.h ****  * which will be returned. If needed the byte order is swapped to convert from
 122:C:/Users/Utente/Desktop/Tesi/Firmware_Software/DAVE project/S2GLP_Pulsed_Doppler/HostCommunication/inc\PayloadHelper.h ****  * the payload's little endian format to the CPU's endian format.
 123:C:/Users/Utente/Desktop/Tesi/Firmware_Software/DAVE project/S2GLP_Pulsed_Doppler/HostCommunication/inc\PayloadHelper.h ****  *
 124:C:/Users/Utente/Desktop/Tesi/Firmware_Software/DAVE project/S2GLP_Pulsed_Doppler/HostCommunication/inc\PayloadHelper.h ****  * \param[in] payload  A pointer to a block of payload data.
 125:C:/Users/Utente/Desktop/Tesi/Firmware_Software/DAVE project/S2GLP_Pulsed_Doppler/HostCommunication/inc\PayloadHelper.h ****  * \param[in] offset   The byte position at which the requested data value
 126:C:/Users/Utente/Desktop/Tesi/Firmware_Software/DAVE project/S2GLP_Pulsed_Doppler/HostCommunication/inc\PayloadHelper.h ****  *                     starts.
 127:C:/Users/Utente/Desktop/Tesi/Firmware_Software/DAVE project/S2GLP_Pulsed_Doppler/HostCommunication/inc\PayloadHelper.h ****  *
 128:C:/Users/Utente/Desktop/Tesi/Firmware_Software/DAVE project/S2GLP_Pulsed_Doppler/HostCommunication/inc\PayloadHelper.h ****  * \return The function returns the value read from the payload.
 129:C:/Users/Utente/Desktop/Tesi/Firmware_Software/DAVE project/S2GLP_Pulsed_Doppler/HostCommunication/inc\PayloadHelper.h ****  */
 130:C:/Users/Utente/Desktop/Tesi/Firmware_Software/DAVE project/S2GLP_Pulsed_Doppler/HostCommunication/inc\PayloadHelper.h **** static inline uint16_t rd_payload_u16(const uint8_t* payload,
 131:C:/Users/Utente/Desktop/Tesi/Firmware_Software/DAVE project/S2GLP_Pulsed_Doppler/HostCommunication/inc\PayloadHelper.h **** 		size_t offset);
 132:C:/Users/Utente/Desktop/Tesi/Firmware_Software/DAVE project/S2GLP_Pulsed_Doppler/HostCommunication/inc\PayloadHelper.h **** 
 133:C:/Users/Utente/Desktop/Tesi/Firmware_Software/DAVE project/S2GLP_Pulsed_Doppler/HostCommunication/inc\PayloadHelper.h **** /**
 134:C:/Users/Utente/Desktop/Tesi/Firmware_Software/DAVE project/S2GLP_Pulsed_Doppler/HostCommunication/inc\PayloadHelper.h ****  * \internal
 135:C:/Users/Utente/Desktop/Tesi/Firmware_Software/DAVE project/S2GLP_Pulsed_Doppler/HostCommunication/inc\PayloadHelper.h ****  * \brief The function extracts a signed 32 bit integer from a payload buffer.
 136:C:/Users/Utente/Desktop/Tesi/Firmware_Software/DAVE project/S2GLP_Pulsed_Doppler/HostCommunication/inc\PayloadHelper.h ****  *
 137:C:/Users/Utente/Desktop/Tesi/Firmware_Software/DAVE project/S2GLP_Pulsed_Doppler/HostCommunication/inc\PayloadHelper.h ****  * The function reads four bytes from the given payload buffer starting at the
 138:C:/Users/Utente/Desktop/Tesi/Firmware_Software/DAVE project/S2GLP_Pulsed_Doppler/HostCommunication/inc\PayloadHelper.h ****  * requested position and interprets them as a signed 32 bit integer value,
 139:C:/Users/Utente/Desktop/Tesi/Firmware_Software/DAVE project/S2GLP_Pulsed_Doppler/HostCommunication/inc\PayloadHelper.h ****  * which will be returned. If needed the byte order is swapped to convert from
 140:C:/Users/Utente/Desktop/Tesi/Firmware_Software/DAVE project/S2GLP_Pulsed_Doppler/HostCommunication/inc\PayloadHelper.h ****  * the payload's little endian format to the CPU's endian format.
 141:C:/Users/Utente/Desktop/Tesi/Firmware_Software/DAVE project/S2GLP_Pulsed_Doppler/HostCommunication/inc\PayloadHelper.h ****  *
 142:C:/Users/Utente/Desktop/Tesi/Firmware_Software/DAVE project/S2GLP_Pulsed_Doppler/HostCommunication/inc\PayloadHelper.h ****  * \param[in] payload  A pointer to a block of payload data.
 143:C:/Users/Utente/Desktop/Tesi/Firmware_Software/DAVE project/S2GLP_Pulsed_Doppler/HostCommunication/inc\PayloadHelper.h ****  * \param[in] offset   The byte position at which the requested data value
 144:C:/Users/Utente/Desktop/Tesi/Firmware_Software/DAVE project/S2GLP_Pulsed_Doppler/HostCommunication/inc\PayloadHelper.h ****  *                     starts.
 145:C:/Users/Utente/Desktop/Tesi/Firmware_Software/DAVE project/S2GLP_Pulsed_Doppler/HostCommunication/inc\PayloadHelper.h ****  *
 146:C:/Users/Utente/Desktop/Tesi/Firmware_Software/DAVE project/S2GLP_Pulsed_Doppler/HostCommunication/inc\PayloadHelper.h ****  * \return The function returns the value read from the payload.
 147:C:/Users/Utente/Desktop/Tesi/Firmware_Software/DAVE project/S2GLP_Pulsed_Doppler/HostCommunication/inc\PayloadHelper.h ****  */
 148:C:/Users/Utente/Desktop/Tesi/Firmware_Software/DAVE project/S2GLP_Pulsed_Doppler/HostCommunication/inc\PayloadHelper.h **** static inline int32_t rd_payload_i32(const uint8_t* payload, size_t offset);
 149:C:/Users/Utente/Desktop/Tesi/Firmware_Software/DAVE project/S2GLP_Pulsed_Doppler/HostCommunication/inc\PayloadHelper.h **** 
 150:C:/Users/Utente/Desktop/Tesi/Firmware_Software/DAVE project/S2GLP_Pulsed_Doppler/HostCommunication/inc\PayloadHelper.h **** /**
 151:C:/Users/Utente/Desktop/Tesi/Firmware_Software/DAVE project/S2GLP_Pulsed_Doppler/HostCommunication/inc\PayloadHelper.h ****  * \internal
 152:C:/Users/Utente/Desktop/Tesi/Firmware_Software/DAVE project/S2GLP_Pulsed_Doppler/HostCommunication/inc\PayloadHelper.h ****  * \brief The function extracts an unsigned 32 bit integer from a payload
 153:C:/Users/Utente/Desktop/Tesi/Firmware_Software/DAVE project/S2GLP_Pulsed_Doppler/HostCommunication/inc\PayloadHelper.h ****  *        buffer.
 154:C:/Users/Utente/Desktop/Tesi/Firmware_Software/DAVE project/S2GLP_Pulsed_Doppler/HostCommunication/inc\PayloadHelper.h ****  *
 155:C:/Users/Utente/Desktop/Tesi/Firmware_Software/DAVE project/S2GLP_Pulsed_Doppler/HostCommunication/inc\PayloadHelper.h ****  * The function reads four bytes from the given payload buffer starting at the
 156:C:/Users/Utente/Desktop/Tesi/Firmware_Software/DAVE project/S2GLP_Pulsed_Doppler/HostCommunication/inc\PayloadHelper.h ****  * requested position and interprets them as an unsigned 32 bit integer value,
 157:C:/Users/Utente/Desktop/Tesi/Firmware_Software/DAVE project/S2GLP_Pulsed_Doppler/HostCommunication/inc\PayloadHelper.h ****  * which will be returned. If needed the byte order is swapped to convert from
 158:C:/Users/Utente/Desktop/Tesi/Firmware_Software/DAVE project/S2GLP_Pulsed_Doppler/HostCommunication/inc\PayloadHelper.h ****  * the payload's little endian format to the CPU's endian format.
 159:C:/Users/Utente/Desktop/Tesi/Firmware_Software/DAVE project/S2GLP_Pulsed_Doppler/HostCommunication/inc\PayloadHelper.h ****  *
 160:C:/Users/Utente/Desktop/Tesi/Firmware_Software/DAVE project/S2GLP_Pulsed_Doppler/HostCommunication/inc\PayloadHelper.h ****  * \param[in] payload  A pointer to a block of payload data.
 161:C:/Users/Utente/Desktop/Tesi/Firmware_Software/DAVE project/S2GLP_Pulsed_Doppler/HostCommunication/inc\PayloadHelper.h ****  * \param[in] offset   The byte position at which the requested data value
 162:C:/Users/Utente/Desktop/Tesi/Firmware_Software/DAVE project/S2GLP_Pulsed_Doppler/HostCommunication/inc\PayloadHelper.h ****  *                     starts.
 163:C:/Users/Utente/Desktop/Tesi/Firmware_Software/DAVE project/S2GLP_Pulsed_Doppler/HostCommunication/inc\PayloadHelper.h ****  *
 164:C:/Users/Utente/Desktop/Tesi/Firmware_Software/DAVE project/S2GLP_Pulsed_Doppler/HostCommunication/inc\PayloadHelper.h ****  * \return The function returns the value read from the payload.
 165:C:/Users/Utente/Desktop/Tesi/Firmware_Software/DAVE project/S2GLP_Pulsed_Doppler/HostCommunication/inc\PayloadHelper.h ****  */
 166:C:/Users/Utente/Desktop/Tesi/Firmware_Software/DAVE project/S2GLP_Pulsed_Doppler/HostCommunication/inc\PayloadHelper.h **** static inline uint32_t rd_payload_u32(const uint8_t* payload,
 167:C:/Users/Utente/Desktop/Tesi/Firmware_Software/DAVE project/S2GLP_Pulsed_Doppler/HostCommunication/inc\PayloadHelper.h **** 		size_t offset);
 168:C:/Users/Utente/Desktop/Tesi/Firmware_Software/DAVE project/S2GLP_Pulsed_Doppler/HostCommunication/inc\PayloadHelper.h **** 
 169:C:/Users/Utente/Desktop/Tesi/Firmware_Software/DAVE project/S2GLP_Pulsed_Doppler/HostCommunication/inc\PayloadHelper.h **** /**
 170:C:/Users/Utente/Desktop/Tesi/Firmware_Software/DAVE project/S2GLP_Pulsed_Doppler/HostCommunication/inc\PayloadHelper.h ****  * \internal
 171:C:/Users/Utente/Desktop/Tesi/Firmware_Software/DAVE project/S2GLP_Pulsed_Doppler/HostCommunication/inc\PayloadHelper.h ****  * \brief The function extracts a signed 64 bit integer from a payload buffer.
 172:C:/Users/Utente/Desktop/Tesi/Firmware_Software/DAVE project/S2GLP_Pulsed_Doppler/HostCommunication/inc\PayloadHelper.h ****  *
 173:C:/Users/Utente/Desktop/Tesi/Firmware_Software/DAVE project/S2GLP_Pulsed_Doppler/HostCommunication/inc\PayloadHelper.h ****  * The function reads four bytes from the given payload buffer starting at the
 174:C:/Users/Utente/Desktop/Tesi/Firmware_Software/DAVE project/S2GLP_Pulsed_Doppler/HostCommunication/inc\PayloadHelper.h ****  * requested position and interprets them as a signed 64 bit integer value,
 175:C:/Users/Utente/Desktop/Tesi/Firmware_Software/DAVE project/S2GLP_Pulsed_Doppler/HostCommunication/inc\PayloadHelper.h ****  * which will be returned. If needed the byte order is swapped to convert from
 176:C:/Users/Utente/Desktop/Tesi/Firmware_Software/DAVE project/S2GLP_Pulsed_Doppler/HostCommunication/inc\PayloadHelper.h ****  * the payload's little endian format to the CPU's endian format.
 177:C:/Users/Utente/Desktop/Tesi/Firmware_Software/DAVE project/S2GLP_Pulsed_Doppler/HostCommunication/inc\PayloadHelper.h ****  *
 178:C:/Users/Utente/Desktop/Tesi/Firmware_Software/DAVE project/S2GLP_Pulsed_Doppler/HostCommunication/inc\PayloadHelper.h ****  * \param[in] payload  A pointer to a block of payload data.
 179:C:/Users/Utente/Desktop/Tesi/Firmware_Software/DAVE project/S2GLP_Pulsed_Doppler/HostCommunication/inc\PayloadHelper.h ****  * \param[in] offset   The byte position at which the requested data value
 180:C:/Users/Utente/Desktop/Tesi/Firmware_Software/DAVE project/S2GLP_Pulsed_Doppler/HostCommunication/inc\PayloadHelper.h ****  *                     starts.
 181:C:/Users/Utente/Desktop/Tesi/Firmware_Software/DAVE project/S2GLP_Pulsed_Doppler/HostCommunication/inc\PayloadHelper.h ****  *
 182:C:/Users/Utente/Desktop/Tesi/Firmware_Software/DAVE project/S2GLP_Pulsed_Doppler/HostCommunication/inc\PayloadHelper.h ****  * \return The function returns the value read from the payload.
 183:C:/Users/Utente/Desktop/Tesi/Firmware_Software/DAVE project/S2GLP_Pulsed_Doppler/HostCommunication/inc\PayloadHelper.h ****  */
 184:C:/Users/Utente/Desktop/Tesi/Firmware_Software/DAVE project/S2GLP_Pulsed_Doppler/HostCommunication/inc\PayloadHelper.h **** static inline int64_t rd_payload_i64(const uint8_t* payload, size_t offset);
 185:C:/Users/Utente/Desktop/Tesi/Firmware_Software/DAVE project/S2GLP_Pulsed_Doppler/HostCommunication/inc\PayloadHelper.h **** 
 186:C:/Users/Utente/Desktop/Tesi/Firmware_Software/DAVE project/S2GLP_Pulsed_Doppler/HostCommunication/inc\PayloadHelper.h **** /**
 187:C:/Users/Utente/Desktop/Tesi/Firmware_Software/DAVE project/S2GLP_Pulsed_Doppler/HostCommunication/inc\PayloadHelper.h ****  * \internal
 188:C:/Users/Utente/Desktop/Tesi/Firmware_Software/DAVE project/S2GLP_Pulsed_Doppler/HostCommunication/inc\PayloadHelper.h ****  * \brief The function extracts an unsigned 64 bit integer from a payload
 189:C:/Users/Utente/Desktop/Tesi/Firmware_Software/DAVE project/S2GLP_Pulsed_Doppler/HostCommunication/inc\PayloadHelper.h ****  *        buffer.
 190:C:/Users/Utente/Desktop/Tesi/Firmware_Software/DAVE project/S2GLP_Pulsed_Doppler/HostCommunication/inc\PayloadHelper.h ****  *
 191:C:/Users/Utente/Desktop/Tesi/Firmware_Software/DAVE project/S2GLP_Pulsed_Doppler/HostCommunication/inc\PayloadHelper.h ****  * The function reads four bytes from the given payload buffer starting at the
 192:C:/Users/Utente/Desktop/Tesi/Firmware_Software/DAVE project/S2GLP_Pulsed_Doppler/HostCommunication/inc\PayloadHelper.h ****  * requested position and interprets them as an unsigned 64 bit integer value,
 193:C:/Users/Utente/Desktop/Tesi/Firmware_Software/DAVE project/S2GLP_Pulsed_Doppler/HostCommunication/inc\PayloadHelper.h ****  * which will be returned. If needed the byte order is swapped to convert from
 194:C:/Users/Utente/Desktop/Tesi/Firmware_Software/DAVE project/S2GLP_Pulsed_Doppler/HostCommunication/inc\PayloadHelper.h ****  * the payload's little endian format to the CPU's endian format.
 195:C:/Users/Utente/Desktop/Tesi/Firmware_Software/DAVE project/S2GLP_Pulsed_Doppler/HostCommunication/inc\PayloadHelper.h ****  *
 196:C:/Users/Utente/Desktop/Tesi/Firmware_Software/DAVE project/S2GLP_Pulsed_Doppler/HostCommunication/inc\PayloadHelper.h ****  * \param[in] payload  A pointer to a block of payload data.
 197:C:/Users/Utente/Desktop/Tesi/Firmware_Software/DAVE project/S2GLP_Pulsed_Doppler/HostCommunication/inc\PayloadHelper.h ****  * \param[in] offset   The byte position at which the requested data value
 198:C:/Users/Utente/Desktop/Tesi/Firmware_Software/DAVE project/S2GLP_Pulsed_Doppler/HostCommunication/inc\PayloadHelper.h ****  *                     starts.
 199:C:/Users/Utente/Desktop/Tesi/Firmware_Software/DAVE project/S2GLP_Pulsed_Doppler/HostCommunication/inc\PayloadHelper.h ****  *
 200:C:/Users/Utente/Desktop/Tesi/Firmware_Software/DAVE project/S2GLP_Pulsed_Doppler/HostCommunication/inc\PayloadHelper.h ****  * \return The function returns the value read from the payload.
 201:C:/Users/Utente/Desktop/Tesi/Firmware_Software/DAVE project/S2GLP_Pulsed_Doppler/HostCommunication/inc\PayloadHelper.h ****  */
 202:C:/Users/Utente/Desktop/Tesi/Firmware_Software/DAVE project/S2GLP_Pulsed_Doppler/HostCommunication/inc\PayloadHelper.h **** static inline uint64_t rd_payload_u64(const uint8_t* payload,
 203:C:/Users/Utente/Desktop/Tesi/Firmware_Software/DAVE project/S2GLP_Pulsed_Doppler/HostCommunication/inc\PayloadHelper.h **** 		size_t offset);
 204:C:/Users/Utente/Desktop/Tesi/Firmware_Software/DAVE project/S2GLP_Pulsed_Doppler/HostCommunication/inc\PayloadHelper.h **** 
 205:C:/Users/Utente/Desktop/Tesi/Firmware_Software/DAVE project/S2GLP_Pulsed_Doppler/HostCommunication/inc\PayloadHelper.h **** /**
 206:C:/Users/Utente/Desktop/Tesi/Firmware_Software/DAVE project/S2GLP_Pulsed_Doppler/HostCommunication/inc\PayloadHelper.h ****  * \internal
 207:C:/Users/Utente/Desktop/Tesi/Firmware_Software/DAVE project/S2GLP_Pulsed_Doppler/HostCommunication/inc\PayloadHelper.h ****  * \brief The function writes a signed 8 bit integer value to a payload
 208:C:/Users/Utente/Desktop/Tesi/Firmware_Software/DAVE project/S2GLP_Pulsed_Doppler/HostCommunication/inc\PayloadHelper.h ****  *        buffer.
 209:C:/Users/Utente/Desktop/Tesi/Firmware_Software/DAVE project/S2GLP_Pulsed_Doppler/HostCommunication/inc\PayloadHelper.h ****  *
 210:C:/Users/Utente/Desktop/Tesi/Firmware_Software/DAVE project/S2GLP_Pulsed_Doppler/HostCommunication/inc\PayloadHelper.h ****  * The function writes the given value into the given payload buffer at the
 211:C:/Users/Utente/Desktop/Tesi/Firmware_Software/DAVE project/S2GLP_Pulsed_Doppler/HostCommunication/inc\PayloadHelper.h ****  * requested position.
 212:C:/Users/Utente/Desktop/Tesi/Firmware_Software/DAVE project/S2GLP_Pulsed_Doppler/HostCommunication/inc\PayloadHelper.h ****  *
 213:C:/Users/Utente/Desktop/Tesi/Firmware_Software/DAVE project/S2GLP_Pulsed_Doppler/HostCommunication/inc\PayloadHelper.h ****  * \param[in] payload  A pointer to a block of payload data.
 214:C:/Users/Utente/Desktop/Tesi/Firmware_Software/DAVE project/S2GLP_Pulsed_Doppler/HostCommunication/inc\PayloadHelper.h ****  * \param[in] offset   The byte position at which the value will be written
 215:C:/Users/Utente/Desktop/Tesi/Firmware_Software/DAVE project/S2GLP_Pulsed_Doppler/HostCommunication/inc\PayloadHelper.h ****  *                     to.
 216:C:/Users/Utente/Desktop/Tesi/Firmware_Software/DAVE project/S2GLP_Pulsed_Doppler/HostCommunication/inc\PayloadHelper.h ****  * \param[in] value    The value to be written into the payload buffer.
 217:C:/Users/Utente/Desktop/Tesi/Firmware_Software/DAVE project/S2GLP_Pulsed_Doppler/HostCommunication/inc\PayloadHelper.h ****  */
 218:C:/Users/Utente/Desktop/Tesi/Firmware_Software/DAVE project/S2GLP_Pulsed_Doppler/HostCommunication/inc\PayloadHelper.h **** static inline size_t wr_payload_i8(uint8_t* payload, size_t offset,
 219:C:/Users/Utente/Desktop/Tesi/Firmware_Software/DAVE project/S2GLP_Pulsed_Doppler/HostCommunication/inc\PayloadHelper.h ****                                  int8_t value)
 220:C:/Users/Utente/Desktop/Tesi/Firmware_Software/DAVE project/S2GLP_Pulsed_Doppler/HostCommunication/inc\PayloadHelper.h **** {
 221:C:/Users/Utente/Desktop/Tesi/Firmware_Software/DAVE project/S2GLP_Pulsed_Doppler/HostCommunication/inc\PayloadHelper.h ****     payload[offset] = (uint8_t)value;
 222:C:/Users/Utente/Desktop/Tesi/Firmware_Software/DAVE project/S2GLP_Pulsed_Doppler/HostCommunication/inc\PayloadHelper.h ****     return sizeof(int8_t);
 223:C:/Users/Utente/Desktop/Tesi/Firmware_Software/DAVE project/S2GLP_Pulsed_Doppler/HostCommunication/inc\PayloadHelper.h **** }
 224:C:/Users/Utente/Desktop/Tesi/Firmware_Software/DAVE project/S2GLP_Pulsed_Doppler/HostCommunication/inc\PayloadHelper.h **** 
 225:C:/Users/Utente/Desktop/Tesi/Firmware_Software/DAVE project/S2GLP_Pulsed_Doppler/HostCommunication/inc\PayloadHelper.h **** /**
 226:C:/Users/Utente/Desktop/Tesi/Firmware_Software/DAVE project/S2GLP_Pulsed_Doppler/HostCommunication/inc\PayloadHelper.h ****  * \internal
 227:C:/Users/Utente/Desktop/Tesi/Firmware_Software/DAVE project/S2GLP_Pulsed_Doppler/HostCommunication/inc\PayloadHelper.h ****  * \brief The function writes an unsigned 8 bit integer value to a payload
 228:C:/Users/Utente/Desktop/Tesi/Firmware_Software/DAVE project/S2GLP_Pulsed_Doppler/HostCommunication/inc\PayloadHelper.h ****  *        buffer.
 229:C:/Users/Utente/Desktop/Tesi/Firmware_Software/DAVE project/S2GLP_Pulsed_Doppler/HostCommunication/inc\PayloadHelper.h ****  *
 230:C:/Users/Utente/Desktop/Tesi/Firmware_Software/DAVE project/S2GLP_Pulsed_Doppler/HostCommunication/inc\PayloadHelper.h ****  * The function writes the given value into the given payload buffer at the
 231:C:/Users/Utente/Desktop/Tesi/Firmware_Software/DAVE project/S2GLP_Pulsed_Doppler/HostCommunication/inc\PayloadHelper.h ****  * requested position.
 232:C:/Users/Utente/Desktop/Tesi/Firmware_Software/DAVE project/S2GLP_Pulsed_Doppler/HostCommunication/inc\PayloadHelper.h ****  *
 233:C:/Users/Utente/Desktop/Tesi/Firmware_Software/DAVE project/S2GLP_Pulsed_Doppler/HostCommunication/inc\PayloadHelper.h ****  * \param[in] payload  A pointer to a block of payload data.
 234:C:/Users/Utente/Desktop/Tesi/Firmware_Software/DAVE project/S2GLP_Pulsed_Doppler/HostCommunication/inc\PayloadHelper.h ****  * \param[in] offset   The byte position at which the value will be written
 235:C:/Users/Utente/Desktop/Tesi/Firmware_Software/DAVE project/S2GLP_Pulsed_Doppler/HostCommunication/inc\PayloadHelper.h ****  *                     to.
 236:C:/Users/Utente/Desktop/Tesi/Firmware_Software/DAVE project/S2GLP_Pulsed_Doppler/HostCommunication/inc\PayloadHelper.h ****  * \param[in] value    The value to be written into the payload buffer.
 237:C:/Users/Utente/Desktop/Tesi/Firmware_Software/DAVE project/S2GLP_Pulsed_Doppler/HostCommunication/inc\PayloadHelper.h ****  */
 238:C:/Users/Utente/Desktop/Tesi/Firmware_Software/DAVE project/S2GLP_Pulsed_Doppler/HostCommunication/inc\PayloadHelper.h **** static inline size_t wr_payload_u8(uint8_t* payload, size_t offset,
 239:C:/Users/Utente/Desktop/Tesi/Firmware_Software/DAVE project/S2GLP_Pulsed_Doppler/HostCommunication/inc\PayloadHelper.h ****                                  uint8_t value)
 240:C:/Users/Utente/Desktop/Tesi/Firmware_Software/DAVE project/S2GLP_Pulsed_Doppler/HostCommunication/inc\PayloadHelper.h **** {
 241:C:/Users/Utente/Desktop/Tesi/Firmware_Software/DAVE project/S2GLP_Pulsed_Doppler/HostCommunication/inc\PayloadHelper.h ****     payload[offset] = value;
  52              	 .loc 2 241 0
  53 0008 D322     	 movs r2,#211
  54              	.LBE38:
  55              	.LBE37:
  73:../HostCommunication/src/EndpointRadarMcuBase.c **** 	uint8_t message[256];
  56              	 .loc 1 73 0
  57 000a 0546     	 mov r5,r0
  58              	.LBB40:
  59              	.LBB41:
  60              	 .loc 2 241 0
  61 000c 8DF80300 	 strb r0,[sp,#3]
  62              	.LBE41:
  63              	.LBE40:
  64              	.LBB42:
  65              	.LBB39:
  66 0010 8DF80020 	 strb r2,[sp]
  67              	.LBE39:
  68              	.LBE42:
  69              	 .loc 1 76 0
  70 0014 1E78     	 ldrb r6,[r3]
  71              	.LVL1:
  72              	.LBB43:
  77:../HostCommunication/src/EndpointRadarMcuBase.c **** 
  78:../HostCommunication/src/EndpointRadarMcuBase.c **** 	offset += wr_payload_u8(message, offset, MSG_CONSUMPTION_RES);
  79:../HostCommunication/src/EndpointRadarMcuBase.c **** 	offset += sizeof(uint16_t); // reserve space for the total message size and write it later
  80:../HostCommunication/src/EndpointRadarMcuBase.c **** 	offset += wr_payload_u8(message, offset, entries);
  81:../HostCommunication/src/EndpointRadarMcuBase.c **** 	for(int i = 0; i < entries; i++) {
  73              	 .loc 1 81 0
  74 0016 0028     	 cmp r0,#0
  75 0018 50D0     	 beq .L6
  76 001a 0F46     	 mov r7,r1
  77 001c 4FF00008 	 mov r8,#0
  78 0020 0423     	 movs r3,#4
  79              	.LVL2:
  80              	.L5:
  81              	.LBB44:
  82:../HostCommunication/src/EndpointRadarMcuBase.c **** 		offset += wr_payload_u8(message, offset, pData[i].index);
  82              	 .loc 1 82 0
  83 0022 03F10109 	 add r9,r3,#1
  84 0026 1BB2     	 sxth r3,r3
  85              	.LVL3:
  86 0028 1FFA89F9 	 uxth r9,r9
  87              	.LVL4:
  88              	.LBB45:
  89              	.LBB46:
  90              	 .loc 2 241 0
  91 002c 3978     	 ldrb r1,[r7]
  92 002e 0DF80310 	 strb r1,[sp,r3]
  93              	.LBE46:
  94              	.LBE45:
  83:../HostCommunication/src/EndpointRadarMcuBase.c **** 		offset += wr_payload_float(message, offset, pData[i].value);
  95              	 .loc 1 83 0
  96 0032 7A68     	 ldr r2,[r7,#4]
  97 0034 0FFA89F1 	 sxth r1,r9
  98 0038 6846     	 mov r0,sp
  99 003a FFF7FEFF 	 bl wr_payload_float
 100              	.LVL5:
  84:../HostCommunication/src/EndpointRadarMcuBase.c **** 
  85:../HostCommunication/src/EndpointRadarMcuBase.c **** 		uint8_t len = (uint8_t) strlen(pData[i].p_unit);
 101              	 .loc 1 85 0
 102 003e BC68     	 ldr r4,[r7,#8]
  83:../HostCommunication/src/EndpointRadarMcuBase.c **** 		offset += wr_payload_float(message, offset, pData[i].value);
 103              	 .loc 1 83 0
 104 0040 4844     	 add r0,r0,r9
 105 0042 1FFA80F9 	 uxth r9,r0
 106              	.LVL6:
 107              	 .loc 1 85 0
 108 0046 2046     	 mov r0,r4
 109 0048 FFF7FEFF 	 bl strlen
 110              	.LVL7:
  86:../HostCommunication/src/EndpointRadarMcuBase.c **** 		offset += wr_payload_u8(message, offset, len);
 111              	 .loc 1 86 0
 112 004c 09F1010E 	 add lr,r9,#1
 113 0050 0FFA89F9 	 sxth r9,r9
 114              	.LVL8:
 115 0054 1FFA8EFE 	 uxth lr,lr
 116              	.LBB47:
  87:../HostCommunication/src/EndpointRadarMcuBase.c **** 		for(int k = 0; k < len; k++)
 117              	 .loc 1 87 0
 118 0058 10F0FF0C 	 ands ip,r0,#255
 119              	.LBE47:
  85:../HostCommunication/src/EndpointRadarMcuBase.c **** 		offset += wr_payload_u8(message, offset, len);
 120              	 .loc 1 85 0
 121 005c 0DF80900 	 strb r0,[sp,r9]
  86:../HostCommunication/src/EndpointRadarMcuBase.c **** 		offset += wr_payload_u8(message, offset, len);
 122              	 .loc 1 86 0
 123 0060 1FFA8EF3 	 uxth r3,lr
 124              	.LVL9:
 125              	.LBB50:
 126              	 .loc 1 87 0
 127 0064 0FD0     	 beq .L3
 128 0066 2046     	 mov r0,r4
 129              	.LVL10:
 130 0068 04EB0C01 	 add r1,r4,ip
 131              	.LVL11:
 132              	.L4:
  88:../HostCommunication/src/EndpointRadarMcuBase.c **** 		{
  89:../HostCommunication/src/EndpointRadarMcuBase.c **** 			offset += wr_payload_u8(message, offset, pData[i].p_unit[k]);
 133              	 .loc 1 89 0 discriminator 3
 134 006c 10F8014B 	 ldrb r4,[r0],#1
 135              	.LVL12:
 136 0070 1AB2     	 sxth r2,r3
 137              	.LVL13:
  87:../HostCommunication/src/EndpointRadarMcuBase.c **** 		{
 138              	 .loc 1 87 0 discriminator 3
 139 0072 8842     	 cmp r0,r1
 140 0074 03F10103 	 add r3,r3,#1
 141              	.LVL14:
 142              	.LBB48:
 143              	.LBB49:
 144              	 .loc 2 241 0 discriminator 3
 145 0078 0DF80240 	 strb r4,[sp,r2]
 146 007c 9BB2     	 uxth r3,r3
 147              	.LVL15:
 148              	.LBE49:
 149              	.LBE48:
  87:../HostCommunication/src/EndpointRadarMcuBase.c **** 		{
 150              	 .loc 1 87 0 discriminator 3
 151 007e F5D1     	 bne .L4
 152 0080 0EEB0C00 	 add r0,lr,ip
 153 0084 83B2     	 uxth r3,r0
 154              	.LVL16:
 155              	.L3:
 156              	.LBE50:
 157              	.LBE44:
  81:../HostCommunication/src/EndpointRadarMcuBase.c **** 		offset += wr_payload_u8(message, offset, pData[i].index);
 158              	 .loc 1 81 0 discriminator 2
 159 0086 08F10108 	 add r8,r8,#1
 160              	.LVL17:
 161 008a A845     	 cmp r8,r5
 162 008c 07F10C07 	 add r7,r7,#12
 163 0090 C7D1     	 bne .L5
 164 0092 9CB2     	 uxth r4,r3
 165 0094 250A     	 lsrs r5,r4,#8
 166 0096 DBB2     	 uxtb r3,r3
 167              	.LVL18:
 168              	.L2:
 169              	.LBE43:
  90:../HostCommunication/src/EndpointRadarMcuBase.c **** 		}
  91:../HostCommunication/src/EndpointRadarMcuBase.c **** 	}
  92:../HostCommunication/src/EndpointRadarMcuBase.c **** 	wr_payload_u16(message,1,offset);
  93:../HostCommunication/src/EndpointRadarMcuBase.c **** 
  94:../HostCommunication/src/EndpointRadarMcuBase.c **** 	/* send message */
  95:../HostCommunication/src/EndpointRadarMcuBase.c **** 	protocol_send_header(endpoint, offset);
 170              	 .loc 1 95 0
 171 0098 3046     	 mov r0,r6
 172 009a 2146     	 mov r1,r4
 173              	.LBB51:
 174              	.LBB52:
 242:C:/Users/Utente/Desktop/Tesi/Firmware_Software/DAVE project/S2GLP_Pulsed_Doppler/HostCommunication/inc\PayloadHelper.h ****     return sizeof(uint8_t);
 243:C:/Users/Utente/Desktop/Tesi/Firmware_Software/DAVE project/S2GLP_Pulsed_Doppler/HostCommunication/inc\PayloadHelper.h **** }
 244:C:/Users/Utente/Desktop/Tesi/Firmware_Software/DAVE project/S2GLP_Pulsed_Doppler/HostCommunication/inc\PayloadHelper.h **** 
 245:C:/Users/Utente/Desktop/Tesi/Firmware_Software/DAVE project/S2GLP_Pulsed_Doppler/HostCommunication/inc\PayloadHelper.h **** /**
 246:C:/Users/Utente/Desktop/Tesi/Firmware_Software/DAVE project/S2GLP_Pulsed_Doppler/HostCommunication/inc\PayloadHelper.h ****  * \internal
 247:C:/Users/Utente/Desktop/Tesi/Firmware_Software/DAVE project/S2GLP_Pulsed_Doppler/HostCommunication/inc\PayloadHelper.h ****  * \brief The function writes a signed 16 bit integer value to a payload
 248:C:/Users/Utente/Desktop/Tesi/Firmware_Software/DAVE project/S2GLP_Pulsed_Doppler/HostCommunication/inc\PayloadHelper.h ****  *        buffer.
 249:C:/Users/Utente/Desktop/Tesi/Firmware_Software/DAVE project/S2GLP_Pulsed_Doppler/HostCommunication/inc\PayloadHelper.h ****  *
 250:C:/Users/Utente/Desktop/Tesi/Firmware_Software/DAVE project/S2GLP_Pulsed_Doppler/HostCommunication/inc\PayloadHelper.h ****  * The function writes the given value into the given payload buffer at the
 251:C:/Users/Utente/Desktop/Tesi/Firmware_Software/DAVE project/S2GLP_Pulsed_Doppler/HostCommunication/inc\PayloadHelper.h ****  * requested position. If needed the byte order is swapped to convert from the
 252:C:/Users/Utente/Desktop/Tesi/Firmware_Software/DAVE project/S2GLP_Pulsed_Doppler/HostCommunication/inc\PayloadHelper.h ****  * payload's little endian format to the CPU's endian format.
 253:C:/Users/Utente/Desktop/Tesi/Firmware_Software/DAVE project/S2GLP_Pulsed_Doppler/HostCommunication/inc\PayloadHelper.h ****  *
 254:C:/Users/Utente/Desktop/Tesi/Firmware_Software/DAVE project/S2GLP_Pulsed_Doppler/HostCommunication/inc\PayloadHelper.h ****  * \param[in] payload  A pointer to a block of payload data.
 255:C:/Users/Utente/Desktop/Tesi/Firmware_Software/DAVE project/S2GLP_Pulsed_Doppler/HostCommunication/inc\PayloadHelper.h ****  * \param[in] offset   The byte position at which the value will be written
 256:C:/Users/Utente/Desktop/Tesi/Firmware_Software/DAVE project/S2GLP_Pulsed_Doppler/HostCommunication/inc\PayloadHelper.h ****  *                     to.
 257:C:/Users/Utente/Desktop/Tesi/Firmware_Software/DAVE project/S2GLP_Pulsed_Doppler/HostCommunication/inc\PayloadHelper.h ****  * \param[in] value    The value to be written into the payload buffer.
 258:C:/Users/Utente/Desktop/Tesi/Firmware_Software/DAVE project/S2GLP_Pulsed_Doppler/HostCommunication/inc\PayloadHelper.h ****  */
 259:C:/Users/Utente/Desktop/Tesi/Firmware_Software/DAVE project/S2GLP_Pulsed_Doppler/HostCommunication/inc\PayloadHelper.h **** static inline size_t wr_payload_i16(uint8_t* payload, size_t offset,
 260:C:/Users/Utente/Desktop/Tesi/Firmware_Software/DAVE project/S2GLP_Pulsed_Doppler/HostCommunication/inc\PayloadHelper.h ****                                   int16_t value);
 261:C:/Users/Utente/Desktop/Tesi/Firmware_Software/DAVE project/S2GLP_Pulsed_Doppler/HostCommunication/inc\PayloadHelper.h **** 
 262:C:/Users/Utente/Desktop/Tesi/Firmware_Software/DAVE project/S2GLP_Pulsed_Doppler/HostCommunication/inc\PayloadHelper.h **** /**
 263:C:/Users/Utente/Desktop/Tesi/Firmware_Software/DAVE project/S2GLP_Pulsed_Doppler/HostCommunication/inc\PayloadHelper.h ****  * \internal
 264:C:/Users/Utente/Desktop/Tesi/Firmware_Software/DAVE project/S2GLP_Pulsed_Doppler/HostCommunication/inc\PayloadHelper.h ****  * \brief The function writes an unsigned 16 bit integer value to a payload
 265:C:/Users/Utente/Desktop/Tesi/Firmware_Software/DAVE project/S2GLP_Pulsed_Doppler/HostCommunication/inc\PayloadHelper.h ****  *        buffer.
 266:C:/Users/Utente/Desktop/Tesi/Firmware_Software/DAVE project/S2GLP_Pulsed_Doppler/HostCommunication/inc\PayloadHelper.h ****  *
 267:C:/Users/Utente/Desktop/Tesi/Firmware_Software/DAVE project/S2GLP_Pulsed_Doppler/HostCommunication/inc\PayloadHelper.h ****  * The function writes the given value into the given payload buffer at the
 268:C:/Users/Utente/Desktop/Tesi/Firmware_Software/DAVE project/S2GLP_Pulsed_Doppler/HostCommunication/inc\PayloadHelper.h ****  * requested position. If needed the byte order is swapped to convert from the
 269:C:/Users/Utente/Desktop/Tesi/Firmware_Software/DAVE project/S2GLP_Pulsed_Doppler/HostCommunication/inc\PayloadHelper.h ****  * payload's little endian format to the CPU's endian format.
 270:C:/Users/Utente/Desktop/Tesi/Firmware_Software/DAVE project/S2GLP_Pulsed_Doppler/HostCommunication/inc\PayloadHelper.h ****  *
 271:C:/Users/Utente/Desktop/Tesi/Firmware_Software/DAVE project/S2GLP_Pulsed_Doppler/HostCommunication/inc\PayloadHelper.h ****  * \param[in] payload  A pointer to a block of payload data.
 272:C:/Users/Utente/Desktop/Tesi/Firmware_Software/DAVE project/S2GLP_Pulsed_Doppler/HostCommunication/inc\PayloadHelper.h ****  * \param[in] offset   The byte position at which the value will be written
 273:C:/Users/Utente/Desktop/Tesi/Firmware_Software/DAVE project/S2GLP_Pulsed_Doppler/HostCommunication/inc\PayloadHelper.h ****  *                     to.
 274:C:/Users/Utente/Desktop/Tesi/Firmware_Software/DAVE project/S2GLP_Pulsed_Doppler/HostCommunication/inc\PayloadHelper.h ****  * \param[in] value    The value to be written into the payload buffer.
 275:C:/Users/Utente/Desktop/Tesi/Firmware_Software/DAVE project/S2GLP_Pulsed_Doppler/HostCommunication/inc\PayloadHelper.h ****  */
 276:C:/Users/Utente/Desktop/Tesi/Firmware_Software/DAVE project/S2GLP_Pulsed_Doppler/HostCommunication/inc\PayloadHelper.h **** static inline size_t wr_payload_u16(uint8_t* payload, size_t offset,
 277:C:/Users/Utente/Desktop/Tesi/Firmware_Software/DAVE project/S2GLP_Pulsed_Doppler/HostCommunication/inc\PayloadHelper.h ****                                   uint16_t value);
 278:C:/Users/Utente/Desktop/Tesi/Firmware_Software/DAVE project/S2GLP_Pulsed_Doppler/HostCommunication/inc\PayloadHelper.h **** 
 279:C:/Users/Utente/Desktop/Tesi/Firmware_Software/DAVE project/S2GLP_Pulsed_Doppler/HostCommunication/inc\PayloadHelper.h **** /**
 280:C:/Users/Utente/Desktop/Tesi/Firmware_Software/DAVE project/S2GLP_Pulsed_Doppler/HostCommunication/inc\PayloadHelper.h ****  * \internal
 281:C:/Users/Utente/Desktop/Tesi/Firmware_Software/DAVE project/S2GLP_Pulsed_Doppler/HostCommunication/inc\PayloadHelper.h ****  * \brief The function writes a signed 32 bit integer value to a payload
 282:C:/Users/Utente/Desktop/Tesi/Firmware_Software/DAVE project/S2GLP_Pulsed_Doppler/HostCommunication/inc\PayloadHelper.h ****  *        buffer.
 283:C:/Users/Utente/Desktop/Tesi/Firmware_Software/DAVE project/S2GLP_Pulsed_Doppler/HostCommunication/inc\PayloadHelper.h ****  *
 284:C:/Users/Utente/Desktop/Tesi/Firmware_Software/DAVE project/S2GLP_Pulsed_Doppler/HostCommunication/inc\PayloadHelper.h ****  * The function writes the given value into the given payload buffer at the
 285:C:/Users/Utente/Desktop/Tesi/Firmware_Software/DAVE project/S2GLP_Pulsed_Doppler/HostCommunication/inc\PayloadHelper.h ****  * requested position. If needed the byte order is swapped to convert from the
 286:C:/Users/Utente/Desktop/Tesi/Firmware_Software/DAVE project/S2GLP_Pulsed_Doppler/HostCommunication/inc\PayloadHelper.h ****  * payload's little endian format to the CPU's endian format.
 287:C:/Users/Utente/Desktop/Tesi/Firmware_Software/DAVE project/S2GLP_Pulsed_Doppler/HostCommunication/inc\PayloadHelper.h ****  *
 288:C:/Users/Utente/Desktop/Tesi/Firmware_Software/DAVE project/S2GLP_Pulsed_Doppler/HostCommunication/inc\PayloadHelper.h ****  * \param[in] payload  A pointer to a block of payload data.
 289:C:/Users/Utente/Desktop/Tesi/Firmware_Software/DAVE project/S2GLP_Pulsed_Doppler/HostCommunication/inc\PayloadHelper.h ****  * \param[in] offset   The byte position at which the value will be written
 290:C:/Users/Utente/Desktop/Tesi/Firmware_Software/DAVE project/S2GLP_Pulsed_Doppler/HostCommunication/inc\PayloadHelper.h ****  *                     to.
 291:C:/Users/Utente/Desktop/Tesi/Firmware_Software/DAVE project/S2GLP_Pulsed_Doppler/HostCommunication/inc\PayloadHelper.h ****  * \param[in] value    The value to be written into the payload buffer.
 292:C:/Users/Utente/Desktop/Tesi/Firmware_Software/DAVE project/S2GLP_Pulsed_Doppler/HostCommunication/inc\PayloadHelper.h ****  */
 293:C:/Users/Utente/Desktop/Tesi/Firmware_Software/DAVE project/S2GLP_Pulsed_Doppler/HostCommunication/inc\PayloadHelper.h **** static inline size_t wr_payload_i32(uint8_t* payload, size_t offset,
 294:C:/Users/Utente/Desktop/Tesi/Firmware_Software/DAVE project/S2GLP_Pulsed_Doppler/HostCommunication/inc\PayloadHelper.h ****                                   int32_t value);
 295:C:/Users/Utente/Desktop/Tesi/Firmware_Software/DAVE project/S2GLP_Pulsed_Doppler/HostCommunication/inc\PayloadHelper.h **** 
 296:C:/Users/Utente/Desktop/Tesi/Firmware_Software/DAVE project/S2GLP_Pulsed_Doppler/HostCommunication/inc\PayloadHelper.h **** /**
 297:C:/Users/Utente/Desktop/Tesi/Firmware_Software/DAVE project/S2GLP_Pulsed_Doppler/HostCommunication/inc\PayloadHelper.h ****  * \internal
 298:C:/Users/Utente/Desktop/Tesi/Firmware_Software/DAVE project/S2GLP_Pulsed_Doppler/HostCommunication/inc\PayloadHelper.h ****  * \brief The function writes an unsigned 32 bit integer value to a payload
 299:C:/Users/Utente/Desktop/Tesi/Firmware_Software/DAVE project/S2GLP_Pulsed_Doppler/HostCommunication/inc\PayloadHelper.h ****  *        buffer.
 300:C:/Users/Utente/Desktop/Tesi/Firmware_Software/DAVE project/S2GLP_Pulsed_Doppler/HostCommunication/inc\PayloadHelper.h ****  *
 301:C:/Users/Utente/Desktop/Tesi/Firmware_Software/DAVE project/S2GLP_Pulsed_Doppler/HostCommunication/inc\PayloadHelper.h ****  * The function writes the given value into the given payload buffer at the
 302:C:/Users/Utente/Desktop/Tesi/Firmware_Software/DAVE project/S2GLP_Pulsed_Doppler/HostCommunication/inc\PayloadHelper.h ****  * requested position. If needed the byte order is swapped to convert from the
 303:C:/Users/Utente/Desktop/Tesi/Firmware_Software/DAVE project/S2GLP_Pulsed_Doppler/HostCommunication/inc\PayloadHelper.h ****  * payload's little endian format to the CPU's endian format.
 304:C:/Users/Utente/Desktop/Tesi/Firmware_Software/DAVE project/S2GLP_Pulsed_Doppler/HostCommunication/inc\PayloadHelper.h ****  *
 305:C:/Users/Utente/Desktop/Tesi/Firmware_Software/DAVE project/S2GLP_Pulsed_Doppler/HostCommunication/inc\PayloadHelper.h ****  * \param[in] payload  A pointer to a block of payload data.
 306:C:/Users/Utente/Desktop/Tesi/Firmware_Software/DAVE project/S2GLP_Pulsed_Doppler/HostCommunication/inc\PayloadHelper.h ****  * \param[in] offset   The byte position at which the value will be written
 307:C:/Users/Utente/Desktop/Tesi/Firmware_Software/DAVE project/S2GLP_Pulsed_Doppler/HostCommunication/inc\PayloadHelper.h ****  *                     to.
 308:C:/Users/Utente/Desktop/Tesi/Firmware_Software/DAVE project/S2GLP_Pulsed_Doppler/HostCommunication/inc\PayloadHelper.h ****  * \param[in] value    The value to be written into the payload buffer.
 309:C:/Users/Utente/Desktop/Tesi/Firmware_Software/DAVE project/S2GLP_Pulsed_Doppler/HostCommunication/inc\PayloadHelper.h ****  */
 310:C:/Users/Utente/Desktop/Tesi/Firmware_Software/DAVE project/S2GLP_Pulsed_Doppler/HostCommunication/inc\PayloadHelper.h **** static inline size_t wr_payload_u32(uint8_t* payload, size_t offset,
 311:C:/Users/Utente/Desktop/Tesi/Firmware_Software/DAVE project/S2GLP_Pulsed_Doppler/HostCommunication/inc\PayloadHelper.h ****                                   uint32_t value);
 312:C:/Users/Utente/Desktop/Tesi/Firmware_Software/DAVE project/S2GLP_Pulsed_Doppler/HostCommunication/inc\PayloadHelper.h **** 
 313:C:/Users/Utente/Desktop/Tesi/Firmware_Software/DAVE project/S2GLP_Pulsed_Doppler/HostCommunication/inc\PayloadHelper.h **** /**
 314:C:/Users/Utente/Desktop/Tesi/Firmware_Software/DAVE project/S2GLP_Pulsed_Doppler/HostCommunication/inc\PayloadHelper.h ****  * \internal
 315:C:/Users/Utente/Desktop/Tesi/Firmware_Software/DAVE project/S2GLP_Pulsed_Doppler/HostCommunication/inc\PayloadHelper.h ****  * \brief The function writes a signed 64 bit integer value to a payload
 316:C:/Users/Utente/Desktop/Tesi/Firmware_Software/DAVE project/S2GLP_Pulsed_Doppler/HostCommunication/inc\PayloadHelper.h ****  *        buffer.
 317:C:/Users/Utente/Desktop/Tesi/Firmware_Software/DAVE project/S2GLP_Pulsed_Doppler/HostCommunication/inc\PayloadHelper.h ****  *
 318:C:/Users/Utente/Desktop/Tesi/Firmware_Software/DAVE project/S2GLP_Pulsed_Doppler/HostCommunication/inc\PayloadHelper.h ****  * The function writes the given value into the given payload buffer at the
 319:C:/Users/Utente/Desktop/Tesi/Firmware_Software/DAVE project/S2GLP_Pulsed_Doppler/HostCommunication/inc\PayloadHelper.h ****  * requested position. If needed the byte order is swapped to convert from the
 320:C:/Users/Utente/Desktop/Tesi/Firmware_Software/DAVE project/S2GLP_Pulsed_Doppler/HostCommunication/inc\PayloadHelper.h ****  * payload's little endian format to the CPU's endian format.
 321:C:/Users/Utente/Desktop/Tesi/Firmware_Software/DAVE project/S2GLP_Pulsed_Doppler/HostCommunication/inc\PayloadHelper.h ****  *
 322:C:/Users/Utente/Desktop/Tesi/Firmware_Software/DAVE project/S2GLP_Pulsed_Doppler/HostCommunication/inc\PayloadHelper.h ****  * \param[in] payload  A pointer to a block of payload data.
 323:C:/Users/Utente/Desktop/Tesi/Firmware_Software/DAVE project/S2GLP_Pulsed_Doppler/HostCommunication/inc\PayloadHelper.h ****  * \param[in] offset   The byte position at which the value will be written
 324:C:/Users/Utente/Desktop/Tesi/Firmware_Software/DAVE project/S2GLP_Pulsed_Doppler/HostCommunication/inc\PayloadHelper.h ****  *                     to.
 325:C:/Users/Utente/Desktop/Tesi/Firmware_Software/DAVE project/S2GLP_Pulsed_Doppler/HostCommunication/inc\PayloadHelper.h ****  * \param[in] value    The value to be written into the payload buffer.
 326:C:/Users/Utente/Desktop/Tesi/Firmware_Software/DAVE project/S2GLP_Pulsed_Doppler/HostCommunication/inc\PayloadHelper.h ****  */
 327:C:/Users/Utente/Desktop/Tesi/Firmware_Software/DAVE project/S2GLP_Pulsed_Doppler/HostCommunication/inc\PayloadHelper.h **** static inline size_t wr_payload_i64(uint8_t* payload, size_t offset,
 328:C:/Users/Utente/Desktop/Tesi/Firmware_Software/DAVE project/S2GLP_Pulsed_Doppler/HostCommunication/inc\PayloadHelper.h ****                                   int64_t value);
 329:C:/Users/Utente/Desktop/Tesi/Firmware_Software/DAVE project/S2GLP_Pulsed_Doppler/HostCommunication/inc\PayloadHelper.h **** 
 330:C:/Users/Utente/Desktop/Tesi/Firmware_Software/DAVE project/S2GLP_Pulsed_Doppler/HostCommunication/inc\PayloadHelper.h **** /**
 331:C:/Users/Utente/Desktop/Tesi/Firmware_Software/DAVE project/S2GLP_Pulsed_Doppler/HostCommunication/inc\PayloadHelper.h ****  * \internal
 332:C:/Users/Utente/Desktop/Tesi/Firmware_Software/DAVE project/S2GLP_Pulsed_Doppler/HostCommunication/inc\PayloadHelper.h ****  * \brief The function writes an unsigned 64 bit integer value to a payload
 333:C:/Users/Utente/Desktop/Tesi/Firmware_Software/DAVE project/S2GLP_Pulsed_Doppler/HostCommunication/inc\PayloadHelper.h ****  *        buffer.
 334:C:/Users/Utente/Desktop/Tesi/Firmware_Software/DAVE project/S2GLP_Pulsed_Doppler/HostCommunication/inc\PayloadHelper.h ****  *
 335:C:/Users/Utente/Desktop/Tesi/Firmware_Software/DAVE project/S2GLP_Pulsed_Doppler/HostCommunication/inc\PayloadHelper.h ****  * The function writes the given value into the given payload buffer at the
 336:C:/Users/Utente/Desktop/Tesi/Firmware_Software/DAVE project/S2GLP_Pulsed_Doppler/HostCommunication/inc\PayloadHelper.h ****  * requested position. If needed the byte order is swapped to convert from the
 337:C:/Users/Utente/Desktop/Tesi/Firmware_Software/DAVE project/S2GLP_Pulsed_Doppler/HostCommunication/inc\PayloadHelper.h ****  * payload's little endian format to the CPU's endian format.
 338:C:/Users/Utente/Desktop/Tesi/Firmware_Software/DAVE project/S2GLP_Pulsed_Doppler/HostCommunication/inc\PayloadHelper.h ****  *
 339:C:/Users/Utente/Desktop/Tesi/Firmware_Software/DAVE project/S2GLP_Pulsed_Doppler/HostCommunication/inc\PayloadHelper.h ****  * \param[in] payload  A pointer to a block of payload data.
 340:C:/Users/Utente/Desktop/Tesi/Firmware_Software/DAVE project/S2GLP_Pulsed_Doppler/HostCommunication/inc\PayloadHelper.h ****  * \param[in] offset   The byte position at which the value will be written
 341:C:/Users/Utente/Desktop/Tesi/Firmware_Software/DAVE project/S2GLP_Pulsed_Doppler/HostCommunication/inc\PayloadHelper.h ****  *                     to.
 342:C:/Users/Utente/Desktop/Tesi/Firmware_Software/DAVE project/S2GLP_Pulsed_Doppler/HostCommunication/inc\PayloadHelper.h ****  * \param[in] value    The value to be written into the payload buffer.
 343:C:/Users/Utente/Desktop/Tesi/Firmware_Software/DAVE project/S2GLP_Pulsed_Doppler/HostCommunication/inc\PayloadHelper.h ****  */
 344:C:/Users/Utente/Desktop/Tesi/Firmware_Software/DAVE project/S2GLP_Pulsed_Doppler/HostCommunication/inc\PayloadHelper.h **** static inline size_t wr_payload_u64(uint8_t* payload, size_t offset,
 345:C:/Users/Utente/Desktop/Tesi/Firmware_Software/DAVE project/S2GLP_Pulsed_Doppler/HostCommunication/inc\PayloadHelper.h ****                                   uint64_t value);
 346:C:/Users/Utente/Desktop/Tesi/Firmware_Software/DAVE project/S2GLP_Pulsed_Doppler/HostCommunication/inc\PayloadHelper.h **** /*
 347:C:/Users/Utente/Desktop/Tesi/Firmware_Software/DAVE project/S2GLP_Pulsed_Doppler/HostCommunication/inc\PayloadHelper.h **** ==============================================================================
 348:C:/Users/Utente/Desktop/Tesi/Firmware_Software/DAVE project/S2GLP_Pulsed_Doppler/HostCommunication/inc\PayloadHelper.h ****    3. INLINE FUNCTIONS
 349:C:/Users/Utente/Desktop/Tesi/Firmware_Software/DAVE project/S2GLP_Pulsed_Doppler/HostCommunication/inc\PayloadHelper.h **** ==============================================================================
 350:C:/Users/Utente/Desktop/Tesi/Firmware_Software/DAVE project/S2GLP_Pulsed_Doppler/HostCommunication/inc\PayloadHelper.h ****  */
 351:C:/Users/Utente/Desktop/Tesi/Firmware_Software/DAVE project/S2GLP_Pulsed_Doppler/HostCommunication/inc\PayloadHelper.h **** #ifdef COMLIB_ALLOW_PAYLOAD_CASTS
 352:C:/Users/Utente/Desktop/Tesi/Firmware_Software/DAVE project/S2GLP_Pulsed_Doppler/HostCommunication/inc\PayloadHelper.h **** /*
 353:C:/Users/Utente/Desktop/Tesi/Firmware_Software/DAVE project/S2GLP_Pulsed_Doppler/HostCommunication/inc\PayloadHelper.h ****  * The following function implementations wan only be used on machines with
 354:C:/Users/Utente/Desktop/Tesi/Firmware_Software/DAVE project/S2GLP_Pulsed_Doppler/HostCommunication/inc\PayloadHelper.h ****  * little endian CPUs, but are faster than the generic implementations.
 355:C:/Users/Utente/Desktop/Tesi/Firmware_Software/DAVE project/S2GLP_Pulsed_Doppler/HostCommunication/inc\PayloadHelper.h ****  */
 356:C:/Users/Utente/Desktop/Tesi/Firmware_Software/DAVE project/S2GLP_Pulsed_Doppler/HostCommunication/inc\PayloadHelper.h **** 
 357:C:/Users/Utente/Desktop/Tesi/Firmware_Software/DAVE project/S2GLP_Pulsed_Doppler/HostCommunication/inc\PayloadHelper.h **** static inline int16_t rd_payload_i16(const uint8_t* payload, uint16_t offset)
 358:C:/Users/Utente/Desktop/Tesi/Firmware_Software/DAVE project/S2GLP_Pulsed_Doppler/HostCommunication/inc\PayloadHelper.h **** {
 359:C:/Users/Utente/Desktop/Tesi/Firmware_Software/DAVE project/S2GLP_Pulsed_Doppler/HostCommunication/inc\PayloadHelper.h ****     return *(int16_t*)(payload + offset);
 360:C:/Users/Utente/Desktop/Tesi/Firmware_Software/DAVE project/S2GLP_Pulsed_Doppler/HostCommunication/inc\PayloadHelper.h **** }
 361:C:/Users/Utente/Desktop/Tesi/Firmware_Software/DAVE project/S2GLP_Pulsed_Doppler/HostCommunication/inc\PayloadHelper.h **** 
 362:C:/Users/Utente/Desktop/Tesi/Firmware_Software/DAVE project/S2GLP_Pulsed_Doppler/HostCommunication/inc\PayloadHelper.h **** static inline uint16_t rd_payload_u16(const uint8_t* payload, uint16_t offset)
 363:C:/Users/Utente/Desktop/Tesi/Firmware_Software/DAVE project/S2GLP_Pulsed_Doppler/HostCommunication/inc\PayloadHelper.h **** {
 364:C:/Users/Utente/Desktop/Tesi/Firmware_Software/DAVE project/S2GLP_Pulsed_Doppler/HostCommunication/inc\PayloadHelper.h ****     return *(uint16_t*)(payload + offset);
 365:C:/Users/Utente/Desktop/Tesi/Firmware_Software/DAVE project/S2GLP_Pulsed_Doppler/HostCommunication/inc\PayloadHelper.h **** }
 366:C:/Users/Utente/Desktop/Tesi/Firmware_Software/DAVE project/S2GLP_Pulsed_Doppler/HostCommunication/inc\PayloadHelper.h **** 
 367:C:/Users/Utente/Desktop/Tesi/Firmware_Software/DAVE project/S2GLP_Pulsed_Doppler/HostCommunication/inc\PayloadHelper.h **** static inline int32_t rd_payload_i32(const uint8_t* payload, uint16_t offset)
 368:C:/Users/Utente/Desktop/Tesi/Firmware_Software/DAVE project/S2GLP_Pulsed_Doppler/HostCommunication/inc\PayloadHelper.h **** {
 369:C:/Users/Utente/Desktop/Tesi/Firmware_Software/DAVE project/S2GLP_Pulsed_Doppler/HostCommunication/inc\PayloadHelper.h ****     return *(int32_t*)(payload + offset);
 370:C:/Users/Utente/Desktop/Tesi/Firmware_Software/DAVE project/S2GLP_Pulsed_Doppler/HostCommunication/inc\PayloadHelper.h **** }
 371:C:/Users/Utente/Desktop/Tesi/Firmware_Software/DAVE project/S2GLP_Pulsed_Doppler/HostCommunication/inc\PayloadHelper.h **** 
 372:C:/Users/Utente/Desktop/Tesi/Firmware_Software/DAVE project/S2GLP_Pulsed_Doppler/HostCommunication/inc\PayloadHelper.h **** static inline uint32_t rd_payload_u32(const uint8_t* payload, uint16_t offset)
 373:C:/Users/Utente/Desktop/Tesi/Firmware_Software/DAVE project/S2GLP_Pulsed_Doppler/HostCommunication/inc\PayloadHelper.h **** {
 374:C:/Users/Utente/Desktop/Tesi/Firmware_Software/DAVE project/S2GLP_Pulsed_Doppler/HostCommunication/inc\PayloadHelper.h ****     return *(uint32_t*)(payload + offset);
 375:C:/Users/Utente/Desktop/Tesi/Firmware_Software/DAVE project/S2GLP_Pulsed_Doppler/HostCommunication/inc\PayloadHelper.h **** }
 376:C:/Users/Utente/Desktop/Tesi/Firmware_Software/DAVE project/S2GLP_Pulsed_Doppler/HostCommunication/inc\PayloadHelper.h **** 
 377:C:/Users/Utente/Desktop/Tesi/Firmware_Software/DAVE project/S2GLP_Pulsed_Doppler/HostCommunication/inc\PayloadHelper.h **** static inline int64_t rd_payload_i64(const uint8_t* payload, uint16_t offset)
 378:C:/Users/Utente/Desktop/Tesi/Firmware_Software/DAVE project/S2GLP_Pulsed_Doppler/HostCommunication/inc\PayloadHelper.h **** {
 379:C:/Users/Utente/Desktop/Tesi/Firmware_Software/DAVE project/S2GLP_Pulsed_Doppler/HostCommunication/inc\PayloadHelper.h ****     union
 380:C:/Users/Utente/Desktop/Tesi/Firmware_Software/DAVE project/S2GLP_Pulsed_Doppler/HostCommunication/inc\PayloadHelper.h ****     {
 381:C:/Users/Utente/Desktop/Tesi/Firmware_Software/DAVE project/S2GLP_Pulsed_Doppler/HostCommunication/inc\PayloadHelper.h ****         uint32_t u32[2];
 382:C:/Users/Utente/Desktop/Tesi/Firmware_Software/DAVE project/S2GLP_Pulsed_Doppler/HostCommunication/inc\PayloadHelper.h ****         int64_t i64;
 383:C:/Users/Utente/Desktop/Tesi/Firmware_Software/DAVE project/S2GLP_Pulsed_Doppler/HostCommunication/inc\PayloadHelper.h ****     } value;
 384:C:/Users/Utente/Desktop/Tesi/Firmware_Software/DAVE project/S2GLP_Pulsed_Doppler/HostCommunication/inc\PayloadHelper.h ****     value.u32[0] = *(uint32_t*)(payload + offset);
 385:C:/Users/Utente/Desktop/Tesi/Firmware_Software/DAVE project/S2GLP_Pulsed_Doppler/HostCommunication/inc\PayloadHelper.h ****     value.u32[1] = *(uint32_t*)(payload + offset + 4);
 386:C:/Users/Utente/Desktop/Tesi/Firmware_Software/DAVE project/S2GLP_Pulsed_Doppler/HostCommunication/inc\PayloadHelper.h **** 
 387:C:/Users/Utente/Desktop/Tesi/Firmware_Software/DAVE project/S2GLP_Pulsed_Doppler/HostCommunication/inc\PayloadHelper.h ****     return value.i64;
 388:C:/Users/Utente/Desktop/Tesi/Firmware_Software/DAVE project/S2GLP_Pulsed_Doppler/HostCommunication/inc\PayloadHelper.h **** }
 389:C:/Users/Utente/Desktop/Tesi/Firmware_Software/DAVE project/S2GLP_Pulsed_Doppler/HostCommunication/inc\PayloadHelper.h **** 
 390:C:/Users/Utente/Desktop/Tesi/Firmware_Software/DAVE project/S2GLP_Pulsed_Doppler/HostCommunication/inc\PayloadHelper.h **** static inline uint64_t rd_payload_u64(const uint8_t* payload, uint16_t offset)
 391:C:/Users/Utente/Desktop/Tesi/Firmware_Software/DAVE project/S2GLP_Pulsed_Doppler/HostCommunication/inc\PayloadHelper.h **** {
 392:C:/Users/Utente/Desktop/Tesi/Firmware_Software/DAVE project/S2GLP_Pulsed_Doppler/HostCommunication/inc\PayloadHelper.h ****     union
 393:C:/Users/Utente/Desktop/Tesi/Firmware_Software/DAVE project/S2GLP_Pulsed_Doppler/HostCommunication/inc\PayloadHelper.h ****     {
 394:C:/Users/Utente/Desktop/Tesi/Firmware_Software/DAVE project/S2GLP_Pulsed_Doppler/HostCommunication/inc\PayloadHelper.h ****         uint32_t u32[2];
 395:C:/Users/Utente/Desktop/Tesi/Firmware_Software/DAVE project/S2GLP_Pulsed_Doppler/HostCommunication/inc\PayloadHelper.h ****         uint64_t u64;
 396:C:/Users/Utente/Desktop/Tesi/Firmware_Software/DAVE project/S2GLP_Pulsed_Doppler/HostCommunication/inc\PayloadHelper.h ****     } value;
 397:C:/Users/Utente/Desktop/Tesi/Firmware_Software/DAVE project/S2GLP_Pulsed_Doppler/HostCommunication/inc\PayloadHelper.h ****     value.u32[0] = *(uint32_t*)(payload + offset);
 398:C:/Users/Utente/Desktop/Tesi/Firmware_Software/DAVE project/S2GLP_Pulsed_Doppler/HostCommunication/inc\PayloadHelper.h ****     value.u32[1] = *(uint32_t*)(payload + offset + 4);
 399:C:/Users/Utente/Desktop/Tesi/Firmware_Software/DAVE project/S2GLP_Pulsed_Doppler/HostCommunication/inc\PayloadHelper.h **** 
 400:C:/Users/Utente/Desktop/Tesi/Firmware_Software/DAVE project/S2GLP_Pulsed_Doppler/HostCommunication/inc\PayloadHelper.h ****     return value.u64;
 401:C:/Users/Utente/Desktop/Tesi/Firmware_Software/DAVE project/S2GLP_Pulsed_Doppler/HostCommunication/inc\PayloadHelper.h **** }
 402:C:/Users/Utente/Desktop/Tesi/Firmware_Software/DAVE project/S2GLP_Pulsed_Doppler/HostCommunication/inc\PayloadHelper.h **** 
 403:C:/Users/Utente/Desktop/Tesi/Firmware_Software/DAVE project/S2GLP_Pulsed_Doppler/HostCommunication/inc\PayloadHelper.h **** static inline void wr_payload_i16(uint8_t* payload, uint16_t offset,
 404:C:/Users/Utente/Desktop/Tesi/Firmware_Software/DAVE project/S2GLP_Pulsed_Doppler/HostCommunication/inc\PayloadHelper.h ****                                   int16_t iValue)
 405:C:/Users/Utente/Desktop/Tesi/Firmware_Software/DAVE project/S2GLP_Pulsed_Doppler/HostCommunication/inc\PayloadHelper.h **** {
 406:C:/Users/Utente/Desktop/Tesi/Firmware_Software/DAVE project/S2GLP_Pulsed_Doppler/HostCommunication/inc\PayloadHelper.h ****     *(int16_t*)(payload + offset) = iValue;
 407:C:/Users/Utente/Desktop/Tesi/Firmware_Software/DAVE project/S2GLP_Pulsed_Doppler/HostCommunication/inc\PayloadHelper.h **** }
 408:C:/Users/Utente/Desktop/Tesi/Firmware_Software/DAVE project/S2GLP_Pulsed_Doppler/HostCommunication/inc\PayloadHelper.h **** 
 409:C:/Users/Utente/Desktop/Tesi/Firmware_Software/DAVE project/S2GLP_Pulsed_Doppler/HostCommunication/inc\PayloadHelper.h **** static inline void wr_payload_u16(uint8_t* payload, uint16_t offset,
 410:C:/Users/Utente/Desktop/Tesi/Firmware_Software/DAVE project/S2GLP_Pulsed_Doppler/HostCommunication/inc\PayloadHelper.h ****                                   uint16_t value)
 411:C:/Users/Utente/Desktop/Tesi/Firmware_Software/DAVE project/S2GLP_Pulsed_Doppler/HostCommunication/inc\PayloadHelper.h **** {
 412:C:/Users/Utente/Desktop/Tesi/Firmware_Software/DAVE project/S2GLP_Pulsed_Doppler/HostCommunication/inc\PayloadHelper.h ****     *(uint16_t*)(payload + offset) = value;
 413:C:/Users/Utente/Desktop/Tesi/Firmware_Software/DAVE project/S2GLP_Pulsed_Doppler/HostCommunication/inc\PayloadHelper.h **** }
 414:C:/Users/Utente/Desktop/Tesi/Firmware_Software/DAVE project/S2GLP_Pulsed_Doppler/HostCommunication/inc\PayloadHelper.h **** 
 415:C:/Users/Utente/Desktop/Tesi/Firmware_Software/DAVE project/S2GLP_Pulsed_Doppler/HostCommunication/inc\PayloadHelper.h **** static inline void wr_payload_i32(uint8_t* payload, uint16_t offset,
 416:C:/Users/Utente/Desktop/Tesi/Firmware_Software/DAVE project/S2GLP_Pulsed_Doppler/HostCommunication/inc\PayloadHelper.h ****                                   int32_t value)
 417:C:/Users/Utente/Desktop/Tesi/Firmware_Software/DAVE project/S2GLP_Pulsed_Doppler/HostCommunication/inc\PayloadHelper.h **** {
 418:C:/Users/Utente/Desktop/Tesi/Firmware_Software/DAVE project/S2GLP_Pulsed_Doppler/HostCommunication/inc\PayloadHelper.h ****     *(int32_t*)(payload + offset) = value;
 419:C:/Users/Utente/Desktop/Tesi/Firmware_Software/DAVE project/S2GLP_Pulsed_Doppler/HostCommunication/inc\PayloadHelper.h **** }
 420:C:/Users/Utente/Desktop/Tesi/Firmware_Software/DAVE project/S2GLP_Pulsed_Doppler/HostCommunication/inc\PayloadHelper.h **** 
 421:C:/Users/Utente/Desktop/Tesi/Firmware_Software/DAVE project/S2GLP_Pulsed_Doppler/HostCommunication/inc\PayloadHelper.h **** static inline void wr_payload_u32(uint8_t* payload, uint16_t offset,
 422:C:/Users/Utente/Desktop/Tesi/Firmware_Software/DAVE project/S2GLP_Pulsed_Doppler/HostCommunication/inc\PayloadHelper.h ****                                   uint32_t value)
 423:C:/Users/Utente/Desktop/Tesi/Firmware_Software/DAVE project/S2GLP_Pulsed_Doppler/HostCommunication/inc\PayloadHelper.h **** {
 424:C:/Users/Utente/Desktop/Tesi/Firmware_Software/DAVE project/S2GLP_Pulsed_Doppler/HostCommunication/inc\PayloadHelper.h ****     *(uint32_t*)(payload + offset) = value;
 425:C:/Users/Utente/Desktop/Tesi/Firmware_Software/DAVE project/S2GLP_Pulsed_Doppler/HostCommunication/inc\PayloadHelper.h **** }
 426:C:/Users/Utente/Desktop/Tesi/Firmware_Software/DAVE project/S2GLP_Pulsed_Doppler/HostCommunication/inc\PayloadHelper.h **** 
 427:C:/Users/Utente/Desktop/Tesi/Firmware_Software/DAVE project/S2GLP_Pulsed_Doppler/HostCommunication/inc\PayloadHelper.h **** static inline void wr_payload_i64(uint8_t* payload, uint16_t offset,
 428:C:/Users/Utente/Desktop/Tesi/Firmware_Software/DAVE project/S2GLP_Pulsed_Doppler/HostCommunication/inc\PayloadHelper.h ****                                   int64_t value)
 429:C:/Users/Utente/Desktop/Tesi/Firmware_Software/DAVE project/S2GLP_Pulsed_Doppler/HostCommunication/inc\PayloadHelper.h **** {
 430:C:/Users/Utente/Desktop/Tesi/Firmware_Software/DAVE project/S2GLP_Pulsed_Doppler/HostCommunication/inc\PayloadHelper.h ****     union
 431:C:/Users/Utente/Desktop/Tesi/Firmware_Software/DAVE project/S2GLP_Pulsed_Doppler/HostCommunication/inc\PayloadHelper.h ****     {
 432:C:/Users/Utente/Desktop/Tesi/Firmware_Software/DAVE project/S2GLP_Pulsed_Doppler/HostCommunication/inc\PayloadHelper.h ****         uint32_t u32[2];
 433:C:/Users/Utente/Desktop/Tesi/Firmware_Software/DAVE project/S2GLP_Pulsed_Doppler/HostCommunication/inc\PayloadHelper.h ****         int64_t i64;
 434:C:/Users/Utente/Desktop/Tesi/Firmware_Software/DAVE project/S2GLP_Pulsed_Doppler/HostCommunication/inc\PayloadHelper.h ****     } value_;
 435:C:/Users/Utente/Desktop/Tesi/Firmware_Software/DAVE project/S2GLP_Pulsed_Doppler/HostCommunication/inc\PayloadHelper.h ****     value_.i64 = value;
 436:C:/Users/Utente/Desktop/Tesi/Firmware_Software/DAVE project/S2GLP_Pulsed_Doppler/HostCommunication/inc\PayloadHelper.h ****     *(uint32_t*)(payload + offset)     = value_.u32[0];
 437:C:/Users/Utente/Desktop/Tesi/Firmware_Software/DAVE project/S2GLP_Pulsed_Doppler/HostCommunication/inc\PayloadHelper.h ****     *(uint32_t*)(payload + offset + 4) = value_.u32[1];
 438:C:/Users/Utente/Desktop/Tesi/Firmware_Software/DAVE project/S2GLP_Pulsed_Doppler/HostCommunication/inc\PayloadHelper.h **** }
 439:C:/Users/Utente/Desktop/Tesi/Firmware_Software/DAVE project/S2GLP_Pulsed_Doppler/HostCommunication/inc\PayloadHelper.h **** 
 440:C:/Users/Utente/Desktop/Tesi/Firmware_Software/DAVE project/S2GLP_Pulsed_Doppler/HostCommunication/inc\PayloadHelper.h **** static inline void wr_payload_u64(uint8_t* payload, uint16_t offset,
 441:C:/Users/Utente/Desktop/Tesi/Firmware_Software/DAVE project/S2GLP_Pulsed_Doppler/HostCommunication/inc\PayloadHelper.h ****                                   uint64_t value)
 442:C:/Users/Utente/Desktop/Tesi/Firmware_Software/DAVE project/S2GLP_Pulsed_Doppler/HostCommunication/inc\PayloadHelper.h **** {
 443:C:/Users/Utente/Desktop/Tesi/Firmware_Software/DAVE project/S2GLP_Pulsed_Doppler/HostCommunication/inc\PayloadHelper.h ****     union
 444:C:/Users/Utente/Desktop/Tesi/Firmware_Software/DAVE project/S2GLP_Pulsed_Doppler/HostCommunication/inc\PayloadHelper.h ****     {
 445:C:/Users/Utente/Desktop/Tesi/Firmware_Software/DAVE project/S2GLP_Pulsed_Doppler/HostCommunication/inc\PayloadHelper.h ****         uint32_t u32[2];
 446:C:/Users/Utente/Desktop/Tesi/Firmware_Software/DAVE project/S2GLP_Pulsed_Doppler/HostCommunication/inc\PayloadHelper.h ****         uint64_t u64;
 447:C:/Users/Utente/Desktop/Tesi/Firmware_Software/DAVE project/S2GLP_Pulsed_Doppler/HostCommunication/inc\PayloadHelper.h ****     } value_;
 448:C:/Users/Utente/Desktop/Tesi/Firmware_Software/DAVE project/S2GLP_Pulsed_Doppler/HostCommunication/inc\PayloadHelper.h ****     value_.u64 = value;
 449:C:/Users/Utente/Desktop/Tesi/Firmware_Software/DAVE project/S2GLP_Pulsed_Doppler/HostCommunication/inc\PayloadHelper.h ****     *(uint32_t*)(payload + offset)     = value_.u32[0];
 450:C:/Users/Utente/Desktop/Tesi/Firmware_Software/DAVE project/S2GLP_Pulsed_Doppler/HostCommunication/inc\PayloadHelper.h ****     *(uint32_t*)(payload + offset + 4) = value_.u32[1];
 451:C:/Users/Utente/Desktop/Tesi/Firmware_Software/DAVE project/S2GLP_Pulsed_Doppler/HostCommunication/inc\PayloadHelper.h **** }
 452:C:/Users/Utente/Desktop/Tesi/Firmware_Software/DAVE project/S2GLP_Pulsed_Doppler/HostCommunication/inc\PayloadHelper.h **** 
 453:C:/Users/Utente/Desktop/Tesi/Firmware_Software/DAVE project/S2GLP_Pulsed_Doppler/HostCommunication/inc\PayloadHelper.h **** /*
 454:C:/Users/Utente/Desktop/Tesi/Firmware_Software/DAVE project/S2GLP_Pulsed_Doppler/HostCommunication/inc\PayloadHelper.h **** ==============================================================================
 455:C:/Users/Utente/Desktop/Tesi/Firmware_Software/DAVE project/S2GLP_Pulsed_Doppler/HostCommunication/inc\PayloadHelper.h ****    4. INLINE FUNCTIONS
 456:C:/Users/Utente/Desktop/Tesi/Firmware_Software/DAVE project/S2GLP_Pulsed_Doppler/HostCommunication/inc\PayloadHelper.h **** ==============================================================================
 457:C:/Users/Utente/Desktop/Tesi/Firmware_Software/DAVE project/S2GLP_Pulsed_Doppler/HostCommunication/inc\PayloadHelper.h ****  */
 458:C:/Users/Utente/Desktop/Tesi/Firmware_Software/DAVE project/S2GLP_Pulsed_Doppler/HostCommunication/inc\PayloadHelper.h **** #else
 459:C:/Users/Utente/Desktop/Tesi/Firmware_Software/DAVE project/S2GLP_Pulsed_Doppler/HostCommunication/inc\PayloadHelper.h **** /*
 460:C:/Users/Utente/Desktop/Tesi/Firmware_Software/DAVE project/S2GLP_Pulsed_Doppler/HostCommunication/inc\PayloadHelper.h ****  * The following function implementations are safe on any platform, but slower
 461:C:/Users/Utente/Desktop/Tesi/Firmware_Software/DAVE project/S2GLP_Pulsed_Doppler/HostCommunication/inc\PayloadHelper.h ****  * than the native little endian implementations.
 462:C:/Users/Utente/Desktop/Tesi/Firmware_Software/DAVE project/S2GLP_Pulsed_Doppler/HostCommunication/inc\PayloadHelper.h ****  */
 463:C:/Users/Utente/Desktop/Tesi/Firmware_Software/DAVE project/S2GLP_Pulsed_Doppler/HostCommunication/inc\PayloadHelper.h **** 
 464:C:/Users/Utente/Desktop/Tesi/Firmware_Software/DAVE project/S2GLP_Pulsed_Doppler/HostCommunication/inc\PayloadHelper.h **** static inline int16_t rd_payload_i16(const uint8_t* payload, size_t offset)
 465:C:/Users/Utente/Desktop/Tesi/Firmware_Software/DAVE project/S2GLP_Pulsed_Doppler/HostCommunication/inc\PayloadHelper.h **** {
 466:C:/Users/Utente/Desktop/Tesi/Firmware_Software/DAVE project/S2GLP_Pulsed_Doppler/HostCommunication/inc\PayloadHelper.h ****     return (int16_t)((((uint16_t)payload[offset + 1]) <<  8) |
 467:C:/Users/Utente/Desktop/Tesi/Firmware_Software/DAVE project/S2GLP_Pulsed_Doppler/HostCommunication/inc\PayloadHelper.h ****                       ((uint16_t)payload[offset    ]));
 468:C:/Users/Utente/Desktop/Tesi/Firmware_Software/DAVE project/S2GLP_Pulsed_Doppler/HostCommunication/inc\PayloadHelper.h **** }
 469:C:/Users/Utente/Desktop/Tesi/Firmware_Software/DAVE project/S2GLP_Pulsed_Doppler/HostCommunication/inc\PayloadHelper.h **** 
 470:C:/Users/Utente/Desktop/Tesi/Firmware_Software/DAVE project/S2GLP_Pulsed_Doppler/HostCommunication/inc\PayloadHelper.h **** static inline uint16_t rd_payload_u16(const uint8_t* payload, size_t offset)
 471:C:/Users/Utente/Desktop/Tesi/Firmware_Software/DAVE project/S2GLP_Pulsed_Doppler/HostCommunication/inc\PayloadHelper.h **** {
 472:C:/Users/Utente/Desktop/Tesi/Firmware_Software/DAVE project/S2GLP_Pulsed_Doppler/HostCommunication/inc\PayloadHelper.h ****     return (((uint16_t)payload[offset + 1]) <<  8) |
 473:C:/Users/Utente/Desktop/Tesi/Firmware_Software/DAVE project/S2GLP_Pulsed_Doppler/HostCommunication/inc\PayloadHelper.h ****             ((uint16_t)payload[offset    ]);
 474:C:/Users/Utente/Desktop/Tesi/Firmware_Software/DAVE project/S2GLP_Pulsed_Doppler/HostCommunication/inc\PayloadHelper.h **** }
 475:C:/Users/Utente/Desktop/Tesi/Firmware_Software/DAVE project/S2GLP_Pulsed_Doppler/HostCommunication/inc\PayloadHelper.h **** 
 476:C:/Users/Utente/Desktop/Tesi/Firmware_Software/DAVE project/S2GLP_Pulsed_Doppler/HostCommunication/inc\PayloadHelper.h **** static inline int32_t rd_payload_i32(const uint8_t* payload, size_t offset)
 477:C:/Users/Utente/Desktop/Tesi/Firmware_Software/DAVE project/S2GLP_Pulsed_Doppler/HostCommunication/inc\PayloadHelper.h **** {
 478:C:/Users/Utente/Desktop/Tesi/Firmware_Software/DAVE project/S2GLP_Pulsed_Doppler/HostCommunication/inc\PayloadHelper.h ****     return (int32_t)((((uint32_t)payload[offset + 3]) << 24) |
 479:C:/Users/Utente/Desktop/Tesi/Firmware_Software/DAVE project/S2GLP_Pulsed_Doppler/HostCommunication/inc\PayloadHelper.h ****                      (((uint32_t)payload[offset + 2]) << 16) |
 480:C:/Users/Utente/Desktop/Tesi/Firmware_Software/DAVE project/S2GLP_Pulsed_Doppler/HostCommunication/inc\PayloadHelper.h ****                      (((uint32_t)payload[offset + 1]) <<  8) |
 481:C:/Users/Utente/Desktop/Tesi/Firmware_Software/DAVE project/S2GLP_Pulsed_Doppler/HostCommunication/inc\PayloadHelper.h ****                       ((uint32_t)payload[offset    ]));
 482:C:/Users/Utente/Desktop/Tesi/Firmware_Software/DAVE project/S2GLP_Pulsed_Doppler/HostCommunication/inc\PayloadHelper.h **** }
 483:C:/Users/Utente/Desktop/Tesi/Firmware_Software/DAVE project/S2GLP_Pulsed_Doppler/HostCommunication/inc\PayloadHelper.h **** 
 484:C:/Users/Utente/Desktop/Tesi/Firmware_Software/DAVE project/S2GLP_Pulsed_Doppler/HostCommunication/inc\PayloadHelper.h **** static inline uint32_t rd_payload_u32(const uint8_t* payload, size_t offset)
 485:C:/Users/Utente/Desktop/Tesi/Firmware_Software/DAVE project/S2GLP_Pulsed_Doppler/HostCommunication/inc\PayloadHelper.h **** {
 486:C:/Users/Utente/Desktop/Tesi/Firmware_Software/DAVE project/S2GLP_Pulsed_Doppler/HostCommunication/inc\PayloadHelper.h ****     return (((uint32_t)payload[offset + 3]) << 24) |
 487:C:/Users/Utente/Desktop/Tesi/Firmware_Software/DAVE project/S2GLP_Pulsed_Doppler/HostCommunication/inc\PayloadHelper.h ****            (((uint32_t)payload[offset + 2]) << 16) |
 488:C:/Users/Utente/Desktop/Tesi/Firmware_Software/DAVE project/S2GLP_Pulsed_Doppler/HostCommunication/inc\PayloadHelper.h ****            (((uint32_t)payload[offset + 1]) <<  8) |
 489:C:/Users/Utente/Desktop/Tesi/Firmware_Software/DAVE project/S2GLP_Pulsed_Doppler/HostCommunication/inc\PayloadHelper.h ****             ((uint32_t)payload[offset    ]);
 490:C:/Users/Utente/Desktop/Tesi/Firmware_Software/DAVE project/S2GLP_Pulsed_Doppler/HostCommunication/inc\PayloadHelper.h **** }
 491:C:/Users/Utente/Desktop/Tesi/Firmware_Software/DAVE project/S2GLP_Pulsed_Doppler/HostCommunication/inc\PayloadHelper.h **** 
 492:C:/Users/Utente/Desktop/Tesi/Firmware_Software/DAVE project/S2GLP_Pulsed_Doppler/HostCommunication/inc\PayloadHelper.h **** static inline int64_t rd_payload_i64(const uint8_t* payload, size_t offset)
 493:C:/Users/Utente/Desktop/Tesi/Firmware_Software/DAVE project/S2GLP_Pulsed_Doppler/HostCommunication/inc\PayloadHelper.h **** {
 494:C:/Users/Utente/Desktop/Tesi/Firmware_Software/DAVE project/S2GLP_Pulsed_Doppler/HostCommunication/inc\PayloadHelper.h ****     return (int64_t)((((uint64_t)payload[offset + 7]) << 56) |
 495:C:/Users/Utente/Desktop/Tesi/Firmware_Software/DAVE project/S2GLP_Pulsed_Doppler/HostCommunication/inc\PayloadHelper.h ****                      (((uint64_t)payload[offset + 6]) << 48) |
 496:C:/Users/Utente/Desktop/Tesi/Firmware_Software/DAVE project/S2GLP_Pulsed_Doppler/HostCommunication/inc\PayloadHelper.h ****                      (((uint64_t)payload[offset + 5]) << 40) |
 497:C:/Users/Utente/Desktop/Tesi/Firmware_Software/DAVE project/S2GLP_Pulsed_Doppler/HostCommunication/inc\PayloadHelper.h ****                      (((uint64_t)payload[offset + 4]) << 32) |
 498:C:/Users/Utente/Desktop/Tesi/Firmware_Software/DAVE project/S2GLP_Pulsed_Doppler/HostCommunication/inc\PayloadHelper.h ****                      (((uint64_t)payload[offset + 3]) << 24) |
 499:C:/Users/Utente/Desktop/Tesi/Firmware_Software/DAVE project/S2GLP_Pulsed_Doppler/HostCommunication/inc\PayloadHelper.h ****                      (((uint64_t)payload[offset + 2]) << 16) |
 500:C:/Users/Utente/Desktop/Tesi/Firmware_Software/DAVE project/S2GLP_Pulsed_Doppler/HostCommunication/inc\PayloadHelper.h ****                      (((uint64_t)payload[offset + 1]) <<  8) |
 501:C:/Users/Utente/Desktop/Tesi/Firmware_Software/DAVE project/S2GLP_Pulsed_Doppler/HostCommunication/inc\PayloadHelper.h ****                       ((uint64_t)payload[offset    ]));
 502:C:/Users/Utente/Desktop/Tesi/Firmware_Software/DAVE project/S2GLP_Pulsed_Doppler/HostCommunication/inc\PayloadHelper.h **** }
 503:C:/Users/Utente/Desktop/Tesi/Firmware_Software/DAVE project/S2GLP_Pulsed_Doppler/HostCommunication/inc\PayloadHelper.h **** 
 504:C:/Users/Utente/Desktop/Tesi/Firmware_Software/DAVE project/S2GLP_Pulsed_Doppler/HostCommunication/inc\PayloadHelper.h **** static inline uint64_t rd_payload_u64(const uint8_t* payload, size_t offset)
 505:C:/Users/Utente/Desktop/Tesi/Firmware_Software/DAVE project/S2GLP_Pulsed_Doppler/HostCommunication/inc\PayloadHelper.h **** {
 506:C:/Users/Utente/Desktop/Tesi/Firmware_Software/DAVE project/S2GLP_Pulsed_Doppler/HostCommunication/inc\PayloadHelper.h ****     return (((uint64_t)payload[offset + 7]) << 56) |
 507:C:/Users/Utente/Desktop/Tesi/Firmware_Software/DAVE project/S2GLP_Pulsed_Doppler/HostCommunication/inc\PayloadHelper.h ****            (((uint64_t)payload[offset + 6]) << 48) |
 508:C:/Users/Utente/Desktop/Tesi/Firmware_Software/DAVE project/S2GLP_Pulsed_Doppler/HostCommunication/inc\PayloadHelper.h ****            (((uint64_t)payload[offset + 5]) << 40) |
 509:C:/Users/Utente/Desktop/Tesi/Firmware_Software/DAVE project/S2GLP_Pulsed_Doppler/HostCommunication/inc\PayloadHelper.h ****            (((uint64_t)payload[offset + 4]) << 32) |
 510:C:/Users/Utente/Desktop/Tesi/Firmware_Software/DAVE project/S2GLP_Pulsed_Doppler/HostCommunication/inc\PayloadHelper.h ****            (((uint64_t)payload[offset + 3]) << 24) |
 511:C:/Users/Utente/Desktop/Tesi/Firmware_Software/DAVE project/S2GLP_Pulsed_Doppler/HostCommunication/inc\PayloadHelper.h ****            (((uint64_t)payload[offset + 2]) << 16) |
 512:C:/Users/Utente/Desktop/Tesi/Firmware_Software/DAVE project/S2GLP_Pulsed_Doppler/HostCommunication/inc\PayloadHelper.h ****            (((uint64_t)payload[offset + 1]) <<  8) |
 513:C:/Users/Utente/Desktop/Tesi/Firmware_Software/DAVE project/S2GLP_Pulsed_Doppler/HostCommunication/inc\PayloadHelper.h ****             ((uint64_t)payload[offset    ]);
 514:C:/Users/Utente/Desktop/Tesi/Firmware_Software/DAVE project/S2GLP_Pulsed_Doppler/HostCommunication/inc\PayloadHelper.h **** }
 515:C:/Users/Utente/Desktop/Tesi/Firmware_Software/DAVE project/S2GLP_Pulsed_Doppler/HostCommunication/inc\PayloadHelper.h **** 
 516:C:/Users/Utente/Desktop/Tesi/Firmware_Software/DAVE project/S2GLP_Pulsed_Doppler/HostCommunication/inc\PayloadHelper.h **** 
 517:C:/Users/Utente/Desktop/Tesi/Firmware_Software/DAVE project/S2GLP_Pulsed_Doppler/HostCommunication/inc\PayloadHelper.h **** static inline float rd_payload_float(const uint8_t* payload, size_t offset)
 518:C:/Users/Utente/Desktop/Tesi/Firmware_Software/DAVE project/S2GLP_Pulsed_Doppler/HostCommunication/inc\PayloadHelper.h **** {
 519:C:/Users/Utente/Desktop/Tesi/Firmware_Software/DAVE project/S2GLP_Pulsed_Doppler/HostCommunication/inc\PayloadHelper.h **** 	STATIC_ASSERT(sizeof(float) == sizeof(uint32_t));
 520:C:/Users/Utente/Desktop/Tesi/Firmware_Software/DAVE project/S2GLP_Pulsed_Doppler/HostCommunication/inc\PayloadHelper.h **** 		typedef union {
 521:C:/Users/Utente/Desktop/Tesi/Firmware_Software/DAVE project/S2GLP_Pulsed_Doppler/HostCommunication/inc\PayloadHelper.h **** 			uint32_t u32_value;
 522:C:/Users/Utente/Desktop/Tesi/Firmware_Software/DAVE project/S2GLP_Pulsed_Doppler/HostCommunication/inc\PayloadHelper.h **** 			float float_value;
 523:C:/Users/Utente/Desktop/Tesi/Firmware_Software/DAVE project/S2GLP_Pulsed_Doppler/HostCommunication/inc\PayloadHelper.h **** 		} temp_union;
 524:C:/Users/Utente/Desktop/Tesi/Firmware_Software/DAVE project/S2GLP_Pulsed_Doppler/HostCommunication/inc\PayloadHelper.h **** 
 525:C:/Users/Utente/Desktop/Tesi/Firmware_Software/DAVE project/S2GLP_Pulsed_Doppler/HostCommunication/inc\PayloadHelper.h **** 	temp_union data;
 526:C:/Users/Utente/Desktop/Tesi/Firmware_Software/DAVE project/S2GLP_Pulsed_Doppler/HostCommunication/inc\PayloadHelper.h **** 
 527:C:/Users/Utente/Desktop/Tesi/Firmware_Software/DAVE project/S2GLP_Pulsed_Doppler/HostCommunication/inc\PayloadHelper.h **** 	data.u32_value =
 528:C:/Users/Utente/Desktop/Tesi/Firmware_Software/DAVE project/S2GLP_Pulsed_Doppler/HostCommunication/inc\PayloadHelper.h ****     		(((uint32_t)payload[offset + 3]) << 24) |
 529:C:/Users/Utente/Desktop/Tesi/Firmware_Software/DAVE project/S2GLP_Pulsed_Doppler/HostCommunication/inc\PayloadHelper.h ****            (((uint32_t)payload[offset + 2]) << 16) |
 530:C:/Users/Utente/Desktop/Tesi/Firmware_Software/DAVE project/S2GLP_Pulsed_Doppler/HostCommunication/inc\PayloadHelper.h ****            (((uint32_t)payload[offset + 1]) <<  8) |
 531:C:/Users/Utente/Desktop/Tesi/Firmware_Software/DAVE project/S2GLP_Pulsed_Doppler/HostCommunication/inc\PayloadHelper.h ****             ((uint32_t)payload[offset    ]);
 532:C:/Users/Utente/Desktop/Tesi/Firmware_Software/DAVE project/S2GLP_Pulsed_Doppler/HostCommunication/inc\PayloadHelper.h **** 
 533:C:/Users/Utente/Desktop/Tesi/Firmware_Software/DAVE project/S2GLP_Pulsed_Doppler/HostCommunication/inc\PayloadHelper.h ****     return data.float_value;
 534:C:/Users/Utente/Desktop/Tesi/Firmware_Software/DAVE project/S2GLP_Pulsed_Doppler/HostCommunication/inc\PayloadHelper.h **** }
 535:C:/Users/Utente/Desktop/Tesi/Firmware_Software/DAVE project/S2GLP_Pulsed_Doppler/HostCommunication/inc\PayloadHelper.h **** 
 536:C:/Users/Utente/Desktop/Tesi/Firmware_Software/DAVE project/S2GLP_Pulsed_Doppler/HostCommunication/inc\PayloadHelper.h **** 
 537:C:/Users/Utente/Desktop/Tesi/Firmware_Software/DAVE project/S2GLP_Pulsed_Doppler/HostCommunication/inc\PayloadHelper.h **** static inline size_t wr_payload_i16(uint8_t* payload, size_t offset,
 538:C:/Users/Utente/Desktop/Tesi/Firmware_Software/DAVE project/S2GLP_Pulsed_Doppler/HostCommunication/inc\PayloadHelper.h ****                                   int16_t value)
 539:C:/Users/Utente/Desktop/Tesi/Firmware_Software/DAVE project/S2GLP_Pulsed_Doppler/HostCommunication/inc\PayloadHelper.h **** {
 540:C:/Users/Utente/Desktop/Tesi/Firmware_Software/DAVE project/S2GLP_Pulsed_Doppler/HostCommunication/inc\PayloadHelper.h ****     payload[offset + 1] = (((uint16_t)value) >>  8) & 0xFF;
 541:C:/Users/Utente/Desktop/Tesi/Firmware_Software/DAVE project/S2GLP_Pulsed_Doppler/HostCommunication/inc\PayloadHelper.h ****     payload[offset    ] =  ((uint16_t)value)        & 0xFF;
 542:C:/Users/Utente/Desktop/Tesi/Firmware_Software/DAVE project/S2GLP_Pulsed_Doppler/HostCommunication/inc\PayloadHelper.h ****     return sizeof(int16_t);
 543:C:/Users/Utente/Desktop/Tesi/Firmware_Software/DAVE project/S2GLP_Pulsed_Doppler/HostCommunication/inc\PayloadHelper.h **** }
 544:C:/Users/Utente/Desktop/Tesi/Firmware_Software/DAVE project/S2GLP_Pulsed_Doppler/HostCommunication/inc\PayloadHelper.h **** 
 545:C:/Users/Utente/Desktop/Tesi/Firmware_Software/DAVE project/S2GLP_Pulsed_Doppler/HostCommunication/inc\PayloadHelper.h **** static inline size_t wr_payload_u16(uint8_t* payload, size_t offset,
 546:C:/Users/Utente/Desktop/Tesi/Firmware_Software/DAVE project/S2GLP_Pulsed_Doppler/HostCommunication/inc\PayloadHelper.h ****                                   uint16_t value)
 547:C:/Users/Utente/Desktop/Tesi/Firmware_Software/DAVE project/S2GLP_Pulsed_Doppler/HostCommunication/inc\PayloadHelper.h **** {
 548:C:/Users/Utente/Desktop/Tesi/Firmware_Software/DAVE project/S2GLP_Pulsed_Doppler/HostCommunication/inc\PayloadHelper.h ****     payload[offset + 1] = (value >>  8) & 0xFF;
 549:C:/Users/Utente/Desktop/Tesi/Firmware_Software/DAVE project/S2GLP_Pulsed_Doppler/HostCommunication/inc\PayloadHelper.h ****     payload[offset    ] =  value        & 0xFF;
 175              	 .loc 2 549 0
 176 009c 8DF80130 	 strb r3,[sp,#1]
 548:C:/Users/Utente/Desktop/Tesi/Firmware_Software/DAVE project/S2GLP_Pulsed_Doppler/HostCommunication/inc\PayloadHelper.h ****     payload[offset    ] =  value        & 0xFF;
 177              	 .loc 2 548 0
 178 00a0 8DF80250 	 strb r5,[sp,#2]
 179              	.LBE52:
 180              	.LBE51:
 181              	 .loc 1 95 0
 182 00a4 FFF7FEFF 	 bl protocol_send_header
 183              	.LVL19:
  96:../HostCommunication/src/EndpointRadarMcuBase.c **** 	protocol_send_payload(message, offset);
 184              	 .loc 1 96 0
 185 00a8 6846     	 mov r0,sp
 186 00aa 2146     	 mov r1,r4
 187 00ac FFF7FEFF 	 bl protocol_send_payload
 188              	.LVL20:
  97:../HostCommunication/src/EndpointRadarMcuBase.c **** 	protocol_send_tail();
 189              	 .loc 1 97 0
 190 00b0 FFF7FEFF 	 bl protocol_send_tail
 191              	.LVL21:
  98:../HostCommunication/src/EndpointRadarMcuBase.c **** 
  99:../HostCommunication/src/EndpointRadarMcuBase.c **** 	return RADAR_ERR_OK;
 100:../HostCommunication/src/EndpointRadarMcuBase.c **** }
 192              	 .loc 1 100 0
 193 00b4 0020     	 movs r0,#0
 194 00b6 41B0     	 add sp,sp,#260
 195              	.LCFI2:
 196              	 .cfi_remember_state
 197              	 .cfi_def_cfa_offset 28
 198              	.LVL22:
 199              	 
 200 00b8 BDE8F083 	 pop {r4,r5,r6,r7,r8,r9,pc}
 201              	.LVL23:
 202              	.L6:
 203              	.LCFI3:
 204              	 .cfi_restore_state
 205              	.LBB53:
  81:../HostCommunication/src/EndpointRadarMcuBase.c **** 		offset += wr_payload_u8(message, offset, pData[i].index);
 206              	 .loc 1 81 0
 207 00bc 0423     	 movs r3,#4
 208 00be 1C46     	 mov r4,r3
 209 00c0 EAE7     	 b .L2
 210              	.L15:
 211 00c2 00BF     	 .align 2
 212              	.L14:
 213 00c4 00000000 	 .word .LANCHOR0
 214              	.LBE53:
 215              	 .cfi_endproc
 216              	.LFE546:
 218              	 .section .text.ep_radar_mcu_base_handle_message,"ax",%progbits
 219              	 .align 2
 220              	 .global ep_radar_mcu_base_handle_message
 221              	 .thumb
 222              	 .thumb_func
 224              	ep_radar_mcu_base_handle_message:
 225              	.LFB547:
 101:../HostCommunication/src/EndpointRadarMcuBase.c **** 
 102:../HostCommunication/src/EndpointRadarMcuBase.c **** /*
 103:../HostCommunication/src/EndpointRadarMcuBase.c **** ==============================================================================
 104:../HostCommunication/src/EndpointRadarMcuBase.c ****    6. EXPORTED FUNCTIONS
 105:../HostCommunication/src/EndpointRadarMcuBase.c **** ==============================================================================
 106:../HostCommunication/src/EndpointRadarMcuBase.c ****  */
 107:../HostCommunication/src/EndpointRadarMcuBase.c **** 
 108:../HostCommunication/src/EndpointRadarMcuBase.c **** /*
 109:../HostCommunication/src/EndpointRadarMcuBase.c ****  *  TODO: take this out of the store:
 110:../HostCommunication/src/EndpointRadarMcuBase.c ****  */
 111:../HostCommunication/src/EndpointRadarMcuBase.c **** 
 112:../HostCommunication/src/EndpointRadarMcuBase.c **** uint32_t g_detected_rf_shield_id = 0;
 113:../HostCommunication/src/EndpointRadarMcuBase.c **** 
 114:../HostCommunication/src/EndpointRadarMcuBase.c **** uint16_t ep_radar_mcu_base_handle_message(uint8_t endpoint, uint8_t *message_data,
 115:../HostCommunication/src/EndpointRadarMcuBase.c **** 											uint16_t num_bytes,	void* context)
 116:../HostCommunication/src/EndpointRadarMcuBase.c **** {
 226              	 .loc 1 116 0
 227              	 .cfi_startproc
 228              	 
 229              	 
 230              	.LVL24:
 231 0000 F0B5     	 push {r4,r5,r6,r7,lr}
 232              	.LCFI4:
 233              	 .cfi_def_cfa_offset 20
 234              	 .cfi_offset 4,-20
 235              	 .cfi_offset 5,-16
 236              	 .cfi_offset 6,-12
 237              	 .cfi_offset 7,-8
 238              	 .cfi_offset 14,-4
 117:../HostCommunication/src/EndpointRadarMcuBase.c **** 	mcu_base_endpoint = endpoint;
 118:../HostCommunication/src/EndpointRadarMcuBase.c **** 
 119:../HostCommunication/src/EndpointRadarMcuBase.c **** 	switch (message_data[0])
 239              	 .loc 1 119 0
 240 0002 0B78     	 ldrb r3,[r1]
 241              	.LVL25:
 117:../HostCommunication/src/EndpointRadarMcuBase.c **** 	mcu_base_endpoint = endpoint;
 242              	 .loc 1 117 0
 243 0004 584C     	 ldr r4,.L36
 244              	 .loc 1 119 0
 245 0006 D03B     	 subs r3,r3,#208
 116:../HostCommunication/src/EndpointRadarMcuBase.c **** 	mcu_base_endpoint = endpoint;
 246              	 .loc 1 116 0
 247 0008 85B0     	 sub sp,sp,#20
 248              	.LCFI5:
 249              	 .cfi_def_cfa_offset 40
 116:../HostCommunication/src/EndpointRadarMcuBase.c **** 	mcu_base_endpoint = endpoint;
 250              	 .loc 1 116 0
 251 000a 0546     	 mov r5,r0
 117:../HostCommunication/src/EndpointRadarMcuBase.c **** 	mcu_base_endpoint = endpoint;
 252              	 .loc 1 117 0
 253 000c 2070     	 strb r0,[r4]
 254              	 .loc 1 119 0
 255 000e 142B     	 cmp r3,#20
 256 0010 0FD8     	 bhi .L31
 257 0012 DFE803F0 	 tbb [pc,r3]
 258              	.LVL26:
 259              	.L19:
 260 0016 12       	 .byte (.L18-.L19)/2
 261 0017 0E       	 .byte (.L31-.L19)/2
 262 0018 39       	 .byte (.L20-.L19)/2
 263 0019 0E       	 .byte (.L31-.L19)/2
 264 001a 0E       	 .byte (.L31-.L19)/2
 265 001b 0E       	 .byte (.L31-.L19)/2
 266 001c 0E       	 .byte (.L31-.L19)/2
 267 001d 0E       	 .byte (.L31-.L19)/2
 268 001e 0E       	 .byte (.L31-.L19)/2
 269 001f 0E       	 .byte (.L31-.L19)/2
 270 0020 0E       	 .byte (.L31-.L19)/2
 271 0021 0E       	 .byte (.L31-.L19)/2
 272 0022 0E       	 .byte (.L31-.L19)/2
 273 0023 0E       	 .byte (.L31-.L19)/2
 274 0024 0E       	 .byte (.L31-.L19)/2
 275 0025 0E       	 .byte (.L31-.L19)/2
 276 0026 49       	 .byte (.L21-.L19)/2
 277 0027 0E       	 .byte (.L31-.L19)/2
 278 0028 7B       	 .byte (.L22-.L19)/2
 279 0029 0E       	 .byte (.L31-.L19)/2
 280 002a 0B       	 .byte (.L23-.L19)/2
 281 002b 00       	 .p2align 1
 282              	.L23:
 120:../HostCommunication/src/EndpointRadarMcuBase.c **** 	{
 121:../HostCommunication/src/EndpointRadarMcuBase.c **** 
 122:../HostCommunication/src/EndpointRadarMcuBase.c **** 	case MSG_CONSUMPTION_DEF_IND:
 123:../HostCommunication/src/EndpointRadarMcuBase.c **** 		if (num_bytes == 1)
 124:../HostCommunication/src/EndpointRadarMcuBase.c **** 		{
 125:../HostCommunication/src/EndpointRadarMcuBase.c **** 			static uint8_t message[512]; // allocate statically, rather then on the call stack!
 126:../HostCommunication/src/EndpointRadarMcuBase.c **** 			memset(message, 0, sizeof(message));
 127:../HostCommunication/src/EndpointRadarMcuBase.c **** 
 128:../HostCommunication/src/EndpointRadarMcuBase.c **** 			uint32_t offset = 0;
 129:../HostCommunication/src/EndpointRadarMcuBase.c **** 			para_consumption_def_t *p_consumption_def_list = radar_get_consumption_labels();
 130:../HostCommunication/src/EndpointRadarMcuBase.c **** 			if (p_consumption_def_list == NULL)
 131:../HostCommunication/src/EndpointRadarMcuBase.c **** 			{
 132:../HostCommunication/src/EndpointRadarMcuBase.c **** 				para_consumption_def_t empty_def = {.num_labels = 0};
 133:../HostCommunication/src/EndpointRadarMcuBase.c **** 				p_consumption_def_list = &empty_def;
 134:../HostCommunication/src/EndpointRadarMcuBase.c **** 			}
 135:../HostCommunication/src/EndpointRadarMcuBase.c **** 
 136:../HostCommunication/src/EndpointRadarMcuBase.c **** 			offset += wr_payload_u8(message, 0, MSG_CONSUMPTION_DEF_RES);
 137:../HostCommunication/src/EndpointRadarMcuBase.c **** 			offset += sizeof(uint16_t); // size if uint16
 138:../HostCommunication/src/EndpointRadarMcuBase.c **** 
 139:../HostCommunication/src/EndpointRadarMcuBase.c **** 			offset += wr_payload_helper_string_list(message, offset, p_consumption_def_list->num_labels, p_c
 140:../HostCommunication/src/EndpointRadarMcuBase.c **** 
 141:../HostCommunication/src/EndpointRadarMcuBase.c **** 			// write size values of the message!
 142:../HostCommunication/src/EndpointRadarMcuBase.c **** 			wr_payload_u16(message, 1, (uint16_t)offset);
 143:../HostCommunication/src/EndpointRadarMcuBase.c **** 
 144:../HostCommunication/src/EndpointRadarMcuBase.c **** 			/* send message */
 145:../HostCommunication/src/EndpointRadarMcuBase.c **** 			protocol_send_header(endpoint, offset);
 146:../HostCommunication/src/EndpointRadarMcuBase.c **** 			protocol_send_payload(message, offset);
 147:../HostCommunication/src/EndpointRadarMcuBase.c **** 			protocol_send_tail();
 148:../HostCommunication/src/EndpointRadarMcuBase.c **** 
 149:../HostCommunication/src/EndpointRadarMcuBase.c **** 			return RADAR_ERR_OK;
 150:../HostCommunication/src/EndpointRadarMcuBase.c **** 		}
 151:../HostCommunication/src/EndpointRadarMcuBase.c **** 		break;
 152:../HostCommunication/src/EndpointRadarMcuBase.c **** 	case MSG_CONSUMPTION_IND:
 153:../HostCommunication/src/EndpointRadarMcuBase.c **** 		if (num_bytes == 5)
 154:../HostCommunication/src/EndpointRadarMcuBase.c **** 		{
 155:../HostCommunication/src/EndpointRadarMcuBase.c **** 			uint16_t in_offset = 1;
 156:../HostCommunication/src/EndpointRadarMcuBase.c **** 			uint32_t repeat_count = rd_payload_u32(message_data, in_offset);
 157:../HostCommunication/src/EndpointRadarMcuBase.c **** 			set_consumption_repeat_count(repeat_count);
 158:../HostCommunication/src/EndpointRadarMcuBase.c **** 			return RADAR_ERR_OK;
 159:../HostCommunication/src/EndpointRadarMcuBase.c **** 		}
 160:../HostCommunication/src/EndpointRadarMcuBase.c **** 		break;
 161:../HostCommunication/src/EndpointRadarMcuBase.c **** 
 162:../HostCommunication/src/EndpointRadarMcuBase.c **** 	case MSG_RF_SHIELD_ID_IND:
 163:../HostCommunication/src/EndpointRadarMcuBase.c **** 		if (num_bytes == 1)
 164:../HostCommunication/src/EndpointRadarMcuBase.c **** 		{
 165:../HostCommunication/src/EndpointRadarMcuBase.c **** 			/* we received a request to provide the detected RF shield id */
 166:../HostCommunication/src/EndpointRadarMcuBase.c **** 
 167:../HostCommunication/src/EndpointRadarMcuBase.c **** 			static uint8_t message[200]; // allocate statically, rather then on the call stack!
 168:../HostCommunication/src/EndpointRadarMcuBase.c **** 			memset(message, 0, sizeof(message));
 169:../HostCommunication/src/EndpointRadarMcuBase.c **** 
 170:../HostCommunication/src/EndpointRadarMcuBase.c **** 			/* get rf board id variant */
 171:../HostCommunication/src/EndpointRadarMcuBase.c **** 			uint32_t index = ds_get_board_variant();
 172:../HostCommunication/src/EndpointRadarMcuBase.c **** 
 173:../HostCommunication/src/EndpointRadarMcuBase.c **** 			if (index == 0 || index > sizeof(rf_shield_info) / sizeof(rf_shield_info[0]) + 1 )
 174:../HostCommunication/src/EndpointRadarMcuBase.c **** 			{
 175:../HostCommunication/src/EndpointRadarMcuBase.c **** 			index = 1;
 176:../HostCommunication/src/EndpointRadarMcuBase.c **** 			}
 177:../HostCommunication/src/EndpointRadarMcuBase.c **** 			pulse_rf_shield_info_t *p_info = &rf_shield_info[index - 1];
 178:../HostCommunication/src/EndpointRadarMcuBase.c **** 
 179:../HostCommunication/src/EndpointRadarMcuBase.c **** 			board_info_cnf_t board_info = { .major_version = 2, .minor_version = 0, .description = "XMC4700 
 180:../HostCommunication/src/EndpointRadarMcuBase.c **** 
 181:../HostCommunication/src/EndpointRadarMcuBase.c **** 			board_info_cnf_t *p_board_info = &board_info;
 182:../HostCommunication/src/EndpointRadarMcuBase.c **** 
 183:../HostCommunication/src/EndpointRadarMcuBase.c **** 			uint32_t offset = 0;
 184:../HostCommunication/src/EndpointRadarMcuBase.c **** 			offset += wr_payload_u8(message, offset, MSG_RF_SHIELD_ID_RES);
 185:../HostCommunication/src/EndpointRadarMcuBase.c **** 			offset += wr_payload_u8(message, offset, p_board_info->major_version);
 186:../HostCommunication/src/EndpointRadarMcuBase.c **** 			offset += wr_payload_u8(message, offset, p_board_info->minor_version);
 187:../HostCommunication/src/EndpointRadarMcuBase.c **** 			offset += wr_payload_string(message, offset, p_info->rf_shield_board_id);
 188:../HostCommunication/src/EndpointRadarMcuBase.c **** 			offset += wr_payload_string(message, offset, p_board_info->description);
 189:../HostCommunication/src/EndpointRadarMcuBase.c **** 
 190:../HostCommunication/src/EndpointRadarMcuBase.c **** 			/* send message */
 191:../HostCommunication/src/EndpointRadarMcuBase.c **** 			protocol_send_header(endpoint, offset);
 192:../HostCommunication/src/EndpointRadarMcuBase.c **** 			protocol_send_payload(message, offset);
 193:../HostCommunication/src/EndpointRadarMcuBase.c **** 			protocol_send_tail();
 194:../HostCommunication/src/EndpointRadarMcuBase.c **** 			return RADAR_ERR_OK;
 195:../HostCommunication/src/EndpointRadarMcuBase.c **** 		}
 196:../HostCommunication/src/EndpointRadarMcuBase.c **** 		break;
 197:../HostCommunication/src/EndpointRadarMcuBase.c **** 
 198:../HostCommunication/src/EndpointRadarMcuBase.c **** 	case MSG_STORE_PARAMETER_IND:
 199:../HostCommunication/src/EndpointRadarMcuBase.c **** 		if (num_bytes == 1)
 200:../HostCommunication/src/EndpointRadarMcuBase.c **** 		{
 201:../HostCommunication/src/EndpointRadarMcuBase.c **** 			/* we received a request to store the Parameter persistent */
 202:../HostCommunication/src/EndpointRadarMcuBase.c **** 			static uint8_t message[10]; // allocate statically, rather then on the call stack!
 203:../HostCommunication/src/EndpointRadarMcuBase.c **** 			memset(message, 0, sizeof(message));
 204:../HostCommunication/src/EndpointRadarMcuBase.c **** 
 205:../HostCommunication/src/EndpointRadarMcuBase.c **** 			/* store the parameters persistent */
 206:../HostCommunication/src/EndpointRadarMcuBase.c **** 			ds_hw_para_store_persistent();
 207:../HostCommunication/src/EndpointRadarMcuBase.c **** 			ds_algo_para_store_persistent();
 208:../HostCommunication/src/EndpointRadarMcuBase.c **** 
 209:../HostCommunication/src/EndpointRadarMcuBase.c **** 			uint16_t offset = 0;
 210:../HostCommunication/src/EndpointRadarMcuBase.c **** 			offset += wr_payload_u8(message, 0, MSG_STORE_PARAMETER_RES);
 211:../HostCommunication/src/EndpointRadarMcuBase.c **** 
 212:../HostCommunication/src/EndpointRadarMcuBase.c **** 			/* send message */
 213:../HostCommunication/src/EndpointRadarMcuBase.c **** 			protocol_send_header(endpoint, offset);
 214:../HostCommunication/src/EndpointRadarMcuBase.c **** 			protocol_send_payload(message, offset);
 215:../HostCommunication/src/EndpointRadarMcuBase.c **** 			protocol_send_tail();
 216:../HostCommunication/src/EndpointRadarMcuBase.c **** 			return RADAR_ERR_OK;
 217:../HostCommunication/src/EndpointRadarMcuBase.c **** 		}
 218:../HostCommunication/src/EndpointRadarMcuBase.c **** 		break;
 219:../HostCommunication/src/EndpointRadarMcuBase.c **** 
 220:../HostCommunication/src/EndpointRadarMcuBase.c **** 	case MSG_PARA_FACTORY_RESET_IND:
 221:../HostCommunication/src/EndpointRadarMcuBase.c **** 		if (num_bytes == 1)
 283              	 .loc 1 221 0
 284 002c 012A     	 cmp r2,#1
 285 002e 00F08980 	 beq .L34
 286              	.L31:
 222:../HostCommunication/src/EndpointRadarMcuBase.c **** 		{
 223:../HostCommunication/src/EndpointRadarMcuBase.c **** 			/* we received a request to store the Parameter persistent */
 224:../HostCommunication/src/EndpointRadarMcuBase.c **** 			static uint8_t message[10]; // allocate statically, rather then on the call stack!
 225:../HostCommunication/src/EndpointRadarMcuBase.c **** 			memset(message, 0, sizeof(message));
 226:../HostCommunication/src/EndpointRadarMcuBase.c **** 
 227:../HostCommunication/src/EndpointRadarMcuBase.c **** 			uint16_t offset = 0;
 228:../HostCommunication/src/EndpointRadarMcuBase.c **** 			offset += wr_payload_u8(message, 0, MSG_PARA_FACTORY_RESET_RES);
 229:../HostCommunication/src/EndpointRadarMcuBase.c **** 
 230:../HostCommunication/src/EndpointRadarMcuBase.c **** 			/* restore parameter from factory settings! */
 231:../HostCommunication/src/EndpointRadarMcuBase.c **** 			ds_hw_para_factory_reset();
 232:../HostCommunication/src/EndpointRadarMcuBase.c **** 			ds_algo_para_factory_reset();
 233:../HostCommunication/src/EndpointRadarMcuBase.c **** 
 234:../HostCommunication/src/EndpointRadarMcuBase.c **** 			/* send message */
 235:../HostCommunication/src/EndpointRadarMcuBase.c **** 			protocol_send_header(endpoint, offset);
 236:../HostCommunication/src/EndpointRadarMcuBase.c **** 			protocol_send_payload(message, offset);
 237:../HostCommunication/src/EndpointRadarMcuBase.c **** 			protocol_send_tail();
 238:../HostCommunication/src/EndpointRadarMcuBase.c **** 			return RADAR_ERR_OK;
 239:../HostCommunication/src/EndpointRadarMcuBase.c **** 		}
 240:../HostCommunication/src/EndpointRadarMcuBase.c **** 		break;
 241:../HostCommunication/src/EndpointRadarMcuBase.c **** 
 242:../HostCommunication/src/EndpointRadarMcuBase.c **** 	default:
 243:../HostCommunication/src/EndpointRadarMcuBase.c **** 		break;
 244:../HostCommunication/src/EndpointRadarMcuBase.c **** 	}
 245:../HostCommunication/src/EndpointRadarMcuBase.c **** 
 246:../HostCommunication/src/EndpointRadarMcuBase.c **** 	return PROTOCOL_STATUS_INVALID_PAYLOAD;
 287              	 .loc 1 246 0
 288 0032 4FF6FF70 	 movw r0,#65535
 289              	.LVL27:
 290              	.L17:
 247:../HostCommunication/src/EndpointRadarMcuBase.c **** }
 291              	 .loc 1 247 0 discriminator 1
 292 0036 05B0     	 add sp,sp,#20
 293              	.LCFI6:
 294              	 .cfi_remember_state
 295              	 .cfi_def_cfa_offset 20
 296              	 
 297 0038 F0BD     	 pop {r4,r5,r6,r7,pc}
 298              	.LVL28:
 299              	.L18:
 300              	.LCFI7:
 301              	 .cfi_restore_state
 123:../HostCommunication/src/EndpointRadarMcuBase.c **** 		{
 302              	 .loc 1 123 0
 303 003a 012A     	 cmp r2,#1
 304 003c F9D1     	 bne .L31
 305              	.LBB76:
 126:../HostCommunication/src/EndpointRadarMcuBase.c **** 
 306              	 .loc 1 126 0
 307 003e 0021     	 movs r1,#0
 308              	.LVL29:
 309 0040 4FF40072 	 mov r2,#512
 310              	.LVL30:
 311 0044 4948     	 ldr r0,.L36+4
 312 0046 FFF7FEFF 	 bl memset
 313              	.LVL31:
 129:../HostCommunication/src/EndpointRadarMcuBase.c **** 			if (p_consumption_def_list == NULL)
 314              	 .loc 1 129 0
 315 004a FFF7FEFF 	 bl radar_get_consumption_labels
 316              	.LVL32:
 130:../HostCommunication/src/EndpointRadarMcuBase.c **** 			{
 317              	 .loc 1 130 0
 318 004e 0028     	 cmp r0,#0
 319 0050 00F08880 	 beq .L35
 320              	.L24:
 321              	.LVL33:
 322              	.LBB77:
 323              	.LBB78:
 241:C:/Users/Utente/Desktop/Tesi/Firmware_Software/DAVE project/S2GLP_Pulsed_Doppler/HostCommunication/inc\PayloadHelper.h ****     return sizeof(uint8_t);
 324              	 .loc 2 241 0
 325 0054 454C     	 ldr r4,.L36+4
 326              	.LBE78:
 327              	.LBE77:
 139:../HostCommunication/src/EndpointRadarMcuBase.c **** 
 328              	 .loc 1 139 0
 329 0056 4368     	 ldr r3,[r0,#4]
 330              	.LBB80:
 331              	.LBB79:
 241:C:/Users/Utente/Desktop/Tesi/Firmware_Software/DAVE project/S2GLP_Pulsed_Doppler/HostCommunication/inc\PayloadHelper.h ****     return sizeof(uint8_t);
 332              	 .loc 2 241 0
 333 0058 D122     	 movs r2,#209
 334 005a 2270     	 strb r2,[r4]
 335              	.LVL34:
 336              	.LBE79:
 337              	.LBE80:
 139:../HostCommunication/src/EndpointRadarMcuBase.c **** 
 338              	 .loc 1 139 0
 339 005c 0268     	 ldr r2,[r0]
 340 005e 0321     	 movs r1,#3
 341 0060 2046     	 mov r0,r4
 342              	.LVL35:
 343 0062 FFF7FEFF 	 bl wr_payload_helper_string_list
 344              	.LVL36:
 345 0066 C31C     	 adds r3,r0,#3
 346              	.LVL37:
 142:../HostCommunication/src/EndpointRadarMcuBase.c **** 
 347              	 .loc 1 142 0
 348 0068 9EB2     	 uxth r6,r3
 349              	.LVL38:
 350              	.LBB81:
 351              	.LBB82:
 548:C:/Users/Utente/Desktop/Tesi/Firmware_Software/DAVE project/S2GLP_Pulsed_Doppler/HostCommunication/inc\PayloadHelper.h ****     payload[offset    ] =  value        & 0xFF;
 352              	 .loc 2 548 0
 353 006a 320A     	 lsrs r2,r6,#8
 354              	 .loc 2 549 0
 355 006c 6370     	 strb r3,[r4,#1]
 548:C:/Users/Utente/Desktop/Tesi/Firmware_Software/DAVE project/S2GLP_Pulsed_Doppler/HostCommunication/inc\PayloadHelper.h ****     payload[offset    ] =  value        & 0xFF;
 356              	 .loc 2 548 0
 357 006e A270     	 strb r2,[r4,#2]
 358              	.LBE82:
 359              	.LBE81:
 145:../HostCommunication/src/EndpointRadarMcuBase.c **** 			protocol_send_payload(message, offset);
 360              	 .loc 1 145 0
 361 0070 2846     	 mov r0,r5
 362 0072 3146     	 mov r1,r6
 363 0074 FFF7FEFF 	 bl protocol_send_header
 364              	.LVL39:
 146:../HostCommunication/src/EndpointRadarMcuBase.c **** 			protocol_send_tail();
 365              	 .loc 1 146 0
 366 0078 2046     	 mov r0,r4
 367 007a 3146     	 mov r1,r6
 368 007c FFF7FEFF 	 bl protocol_send_payload
 369              	.LVL40:
 147:../HostCommunication/src/EndpointRadarMcuBase.c **** 
 370              	 .loc 1 147 0
 371 0080 FFF7FEFF 	 bl protocol_send_tail
 372              	.LVL41:
 149:../HostCommunication/src/EndpointRadarMcuBase.c **** 		}
 373              	 .loc 1 149 0
 374 0084 0020     	 movs r0,#0
 375 0086 D6E7     	 b .L17
 376              	.LVL42:
 377              	.L20:
 378              	.LBE76:
 153:../HostCommunication/src/EndpointRadarMcuBase.c **** 		{
 379              	 .loc 1 153 0
 380 0088 052A     	 cmp r2,#5
 381 008a D2D1     	 bne .L31
 382              	.LVL43:
 383              	.LBB84:
 384              	.LBB85:
 385              	.LBB86:
 487:C:/Users/Utente/Desktop/Tesi/Firmware_Software/DAVE project/S2GLP_Pulsed_Doppler/HostCommunication/inc\PayloadHelper.h ****            (((uint32_t)payload[offset + 1]) <<  8) |
 386              	 .loc 2 487 0
 387 008c CB78     	 ldrb r3,[r1,#3]
 486:C:/Users/Utente/Desktop/Tesi/Firmware_Software/DAVE project/S2GLP_Pulsed_Doppler/HostCommunication/inc\PayloadHelper.h ****            (((uint32_t)payload[offset + 2]) << 16) |
 388              	 .loc 2 486 0
 389 008e 0C79     	 ldrb r4,[r1,#4]
 489:C:/Users/Utente/Desktop/Tesi/Firmware_Software/DAVE project/S2GLP_Pulsed_Doppler/HostCommunication/inc\PayloadHelper.h **** }
 390              	 .loc 2 489 0
 391 0090 4A78     	 ldrb r2,[r1,#1]
 392              	.LVL44:
 488:C:/Users/Utente/Desktop/Tesi/Firmware_Software/DAVE project/S2GLP_Pulsed_Doppler/HostCommunication/inc\PayloadHelper.h ****             ((uint32_t)payload[offset    ]);
 393              	 .loc 2 488 0
 394 0092 8878     	 ldrb r0,[r1,#2]
 487:C:/Users/Utente/Desktop/Tesi/Firmware_Software/DAVE project/S2GLP_Pulsed_Doppler/HostCommunication/inc\PayloadHelper.h ****            (((uint32_t)payload[offset + 1]) <<  8) |
 395              	 .loc 2 487 0
 396 0094 1B04     	 lsls r3,r3,#16
 486:C:/Users/Utente/Desktop/Tesi/Firmware_Software/DAVE project/S2GLP_Pulsed_Doppler/HostCommunication/inc\PayloadHelper.h ****            (((uint32_t)payload[offset + 2]) << 16) |
 397              	 .loc 2 486 0
 398 0096 43EA0463 	 orr r3,r3,r4,lsl#24
 399 009a 1343     	 orrs r3,r3,r2
 400              	.LBE86:
 401              	.LBE85:
 157:../HostCommunication/src/EndpointRadarMcuBase.c **** 			return RADAR_ERR_OK;
 402              	 .loc 1 157 0
 403 009c 43EA0020 	 orr r0,r3,r0,lsl#8
 404 00a0 FFF7FEFF 	 bl set_consumption_repeat_count
 405              	.LVL45:
 158:../HostCommunication/src/EndpointRadarMcuBase.c **** 		}
 406              	 .loc 1 158 0
 407 00a4 0020     	 movs r0,#0
 408 00a6 C6E7     	 b .L17
 409              	.LVL46:
 410              	.L21:
 411              	.LBE84:
 163:../HostCommunication/src/EndpointRadarMcuBase.c **** 		{
 412              	 .loc 1 163 0
 413 00a8 012A     	 cmp r2,#1
 414 00aa C2D1     	 bne .L31
 415              	.LBB87:
 168:../HostCommunication/src/EndpointRadarMcuBase.c **** 
 416              	 .loc 1 168 0
 417 00ac 3048     	 ldr r0,.L36+8
 418 00ae 0021     	 movs r1,#0
 419              	.LVL47:
 420 00b0 C822     	 movs r2,#200
 421              	.LVL48:
 422              	.LBB88:
 423              	.LBB89:
 241:C:/Users/Utente/Desktop/Tesi/Firmware_Software/DAVE project/S2GLP_Pulsed_Doppler/HostCommunication/inc\PayloadHelper.h ****     return sizeof(uint8_t);
 424              	 .loc 2 241 0
 425 00b2 0746     	 mov r7,r0
 426              	.LBE89:
 427              	.LBE88:
 168:../HostCommunication/src/EndpointRadarMcuBase.c **** 
 428              	 .loc 1 168 0
 429 00b4 FFF7FEFF 	 bl memset
 430              	.LVL49:
 171:../HostCommunication/src/EndpointRadarMcuBase.c **** 
 431              	 .loc 1 171 0
 432 00b8 FFF7FEFF 	 bl ds_get_board_variant
 433              	.LVL50:
 173:../HostCommunication/src/EndpointRadarMcuBase.c **** 			{
 434              	 .loc 1 173 0
 435 00bc 0138     	 subs r0,r0,#1
 436              	.LVL51:
 437 00be 0328     	 cmp r0,#3
 438 00c0 28BF     	 it cs
 439 00c2 0020     	 movcs r0,#0
 440              	.LVL52:
 187:../HostCommunication/src/EndpointRadarMcuBase.c **** 			offset += wr_payload_string(message, offset, p_board_info->description);
 441              	 .loc 1 187 0
 442 00c4 2B4B     	 ldr r3,.L36+12
 443 00c6 00EB8000 	 add r0,r0,r0,lsl#2
 444              	.LVL53:
 445 00ca 03EB8000 	 add r0,r3,r0,lsl#2
 446              	.LBB91:
 447              	.LBB90:
 241:C:/Users/Utente/Desktop/Tesi/Firmware_Software/DAVE project/S2GLP_Pulsed_Doppler/HostCommunication/inc\PayloadHelper.h ****     return sizeof(uint8_t);
 448              	 .loc 2 241 0
 449 00ce E123     	 movs r3,#225
 450 00d0 3B70     	 strb r3,[r7]
 451              	.LVL54:
 452              	.LBE90:
 453              	.LBE91:
 454              	.LBB92:
 455              	.LBB93:
 456 00d2 0024     	 movs r4,#0
 457              	.LBE93:
 458              	.LBE92:
 459              	.LBB95:
 460              	.LBB96:
 461 00d4 0223     	 movs r3,#2
 462 00d6 7B70     	 strb r3,[r7,#1]
 463              	.LVL55:
 464              	.LBE96:
 465              	.LBE95:
 187:../HostCommunication/src/EndpointRadarMcuBase.c **** 			offset += wr_payload_string(message, offset, p_board_info->description);
 466              	 .loc 1 187 0
 467 00d8 8268     	 ldr r2,[r0,#8]
 468              	.LBB97:
 469              	.LBB94:
 241:C:/Users/Utente/Desktop/Tesi/Firmware_Software/DAVE project/S2GLP_Pulsed_Doppler/HostCommunication/inc\PayloadHelper.h ****     return sizeof(uint8_t);
 470              	 .loc 2 241 0
 471 00da BC70     	 strb r4,[r7,#2]
 472              	.LVL56:
 473              	.LBE94:
 474              	.LBE97:
 187:../HostCommunication/src/EndpointRadarMcuBase.c **** 			offset += wr_payload_string(message, offset, p_board_info->description);
 475              	 .loc 1 187 0
 476 00dc 0321     	 movs r1,#3
 477 00de 3846     	 mov r0,r7
 478 00e0 FFF7FEFF 	 bl wr_payload_string
 479              	.LVL57:
 480 00e4 C61C     	 adds r6,r0,#3
 481              	.LVL58:
 188:../HostCommunication/src/EndpointRadarMcuBase.c **** 
 482              	 .loc 1 188 0
 483 00e6 244A     	 ldr r2,.L36+16
 484 00e8 3146     	 mov r1,r6
 485 00ea 3846     	 mov r0,r7
 486 00ec FFF7FEFF 	 bl wr_payload_string
 487              	.LVL59:
 488 00f0 3044     	 add r0,r0,r6
 489              	.LVL60:
 191:../HostCommunication/src/EndpointRadarMcuBase.c **** 			protocol_send_payload(message, offset);
 490              	 .loc 1 191 0
 491 00f2 86B2     	 uxth r6,r0
 492 00f4 3146     	 mov r1,r6
 493 00f6 2846     	 mov r0,r5
 494              	.LVL61:
 495 00f8 FFF7FEFF 	 bl protocol_send_header
 496              	.LVL62:
 192:../HostCommunication/src/EndpointRadarMcuBase.c **** 			protocol_send_tail();
 497              	 .loc 1 192 0
 498 00fc 3846     	 mov r0,r7
 499 00fe 3146     	 mov r1,r6
 500 0100 FFF7FEFF 	 bl protocol_send_payload
 501              	.LVL63:
 193:../HostCommunication/src/EndpointRadarMcuBase.c **** 			return RADAR_ERR_OK;
 502              	 .loc 1 193 0
 503 0104 FFF7FEFF 	 bl protocol_send_tail
 504              	.LVL64:
 194:../HostCommunication/src/EndpointRadarMcuBase.c **** 		}
 505              	 .loc 1 194 0
 506 0108 2046     	 mov r0,r4
 507 010a 94E7     	 b .L17
 508              	.LVL65:
 509              	.L22:
 510              	.LBE87:
 199:../HostCommunication/src/EndpointRadarMcuBase.c **** 		{
 511              	 .loc 1 199 0
 512 010c 012A     	 cmp r2,#1
 513 010e 90D1     	 bne .L31
 514              	.LBB98:
 203:../HostCommunication/src/EndpointRadarMcuBase.c **** 
 515              	 .loc 1 203 0
 516 0110 1A4E     	 ldr r6,.L36+20
 517 0112 0192     	 str r2,[sp,#4]
 518 0114 0024     	 movs r4,#0
 519 0116 3481     	 strh r4,[r6,#8]
 520 0118 3460     	 str r4,[r6]
 521 011a 7460     	 str r4,[r6,#4]
 206:../HostCommunication/src/EndpointRadarMcuBase.c **** 			ds_algo_para_store_persistent();
 522              	 .loc 1 206 0
 523 011c FFF7FEFF 	 bl ds_hw_para_store_persistent
 524              	.LVL66:
 207:../HostCommunication/src/EndpointRadarMcuBase.c **** 
 525              	 .loc 1 207 0
 526 0120 FFF7FEFF 	 bl ds_algo_para_store_persistent
 527              	.LVL67:
 213:../HostCommunication/src/EndpointRadarMcuBase.c **** 			protocol_send_payload(message, offset);
 528              	 .loc 1 213 0
 529 0124 019A     	 ldr r2,[sp,#4]
 530              	.LBB99:
 531              	.LBB100:
 241:C:/Users/Utente/Desktop/Tesi/Firmware_Software/DAVE project/S2GLP_Pulsed_Doppler/HostCommunication/inc\PayloadHelper.h ****     return sizeof(uint8_t);
 532              	 .loc 2 241 0
 533 0126 E323     	 movs r3,#227
 534              	.LBE100:
 535              	.LBE99:
 213:../HostCommunication/src/EndpointRadarMcuBase.c **** 			protocol_send_payload(message, offset);
 536              	 .loc 1 213 0
 537 0128 2846     	 mov r0,r5
 538 012a 1146     	 mov r1,r2
 539              	.LBB102:
 540              	.LBB101:
 241:C:/Users/Utente/Desktop/Tesi/Firmware_Software/DAVE project/S2GLP_Pulsed_Doppler/HostCommunication/inc\PayloadHelper.h ****     return sizeof(uint8_t);
 541              	 .loc 2 241 0
 542 012c 3370     	 strb r3,[r6]
 543              	.LVL68:
 544              	.L33:
 545              	.LBE101:
 546              	.LBE102:
 547              	.LBE98:
 548              	.LBB103:
 235:../HostCommunication/src/EndpointRadarMcuBase.c **** 			protocol_send_payload(message, offset);
 549              	 .loc 1 235 0
 550 012e FFF7FEFF 	 bl protocol_send_header
 551              	.LVL69:
 236:../HostCommunication/src/EndpointRadarMcuBase.c **** 			protocol_send_tail();
 552              	 .loc 1 236 0
 553 0132 019A     	 ldr r2,[sp,#4]
 554 0134 3046     	 mov r0,r6
 555 0136 1146     	 mov r1,r2
 556 0138 FFF7FEFF 	 bl protocol_send_payload
 557              	.LVL70:
 237:../HostCommunication/src/EndpointRadarMcuBase.c **** 			return RADAR_ERR_OK;
 558              	 .loc 1 237 0
 559 013c FFF7FEFF 	 bl protocol_send_tail
 560              	.LVL71:
 238:../HostCommunication/src/EndpointRadarMcuBase.c **** 		}
 561              	 .loc 1 238 0
 562 0140 2046     	 mov r0,r4
 563 0142 78E7     	 b .L17
 564              	.LVL72:
 565              	.L34:
 225:../HostCommunication/src/EndpointRadarMcuBase.c **** 
 566              	 .loc 1 225 0
 567 0144 0E4E     	 ldr r6,.L36+24
 568 0146 0192     	 str r2,[sp,#4]
 569              	.LBB104:
 570              	.LBB105:
 241:C:/Users/Utente/Desktop/Tesi/Firmware_Software/DAVE project/S2GLP_Pulsed_Doppler/HostCommunication/inc\PayloadHelper.h ****     return sizeof(uint8_t);
 571              	 .loc 2 241 0
 572 0148 E521     	 movs r1,#229
 573              	.LVL73:
 574              	.LBE105:
 575              	.LBE104:
 225:../HostCommunication/src/EndpointRadarMcuBase.c **** 
 576              	 .loc 1 225 0
 577 014a 0024     	 movs r4,#0
 578 014c 3460     	 str r4,[r6]
 579 014e 7460     	 str r4,[r6,#4]
 580              	.LBB107:
 581              	.LBB106:
 241:C:/Users/Utente/Desktop/Tesi/Firmware_Software/DAVE project/S2GLP_Pulsed_Doppler/HostCommunication/inc\PayloadHelper.h ****     return sizeof(uint8_t);
 582              	 .loc 2 241 0
 583 0150 3170     	 strb r1,[r6]
 584              	.LBE106:
 585              	.LBE107:
 225:../HostCommunication/src/EndpointRadarMcuBase.c **** 
 586              	 .loc 1 225 0
 587 0152 3481     	 strh r4,[r6,#8]
 588              	.LVL74:
 231:../HostCommunication/src/EndpointRadarMcuBase.c **** 			ds_algo_para_factory_reset();
 589              	 .loc 1 231 0
 590 0154 FFF7FEFF 	 bl ds_hw_para_factory_reset
 591              	.LVL75:
 232:../HostCommunication/src/EndpointRadarMcuBase.c **** 
 592              	 .loc 1 232 0
 593 0158 FFF7FEFF 	 bl ds_algo_para_factory_reset
 594              	.LVL76:
 235:../HostCommunication/src/EndpointRadarMcuBase.c **** 			protocol_send_payload(message, offset);
 595              	 .loc 1 235 0
 596 015c 019A     	 ldr r2,[sp,#4]
 597 015e 2846     	 mov r0,r5
 598 0160 1146     	 mov r1,r2
 599 0162 E4E7     	 b .L33
 600              	.LVL77:
 601              	.L35:
 602              	.LBE103:
 603              	.LBB108:
 604              	.LBB83:
 133:../HostCommunication/src/EndpointRadarMcuBase.c **** 			}
 605              	 .loc 1 133 0
 606 0164 02A8     	 add r0,sp,#8
 607              	.LVL78:
 608 0166 75E7     	 b .L24
 609              	.L37:
 610              	 .align 2
 611              	.L36:
 612 0168 00000000 	 .word .LANCHOR0
 613 016c 00000000 	 .word .LANCHOR1
 614 0170 00000000 	 .word .LANCHOR2
 615 0174 00000000 	 .word rf_shield_info
 616 0178 00000000 	 .word .LC0
 617 017c 00000000 	 .word .LANCHOR3
 618 0180 00000000 	 .word .LANCHOR4
 619              	.LBE83:
 620              	.LBE108:
 621              	 .cfi_endproc
 622              	.LFE547:
 624              	 .section .text.ep_radar_mcu_base_handle_change,"ax",%progbits
 625              	 .align 2
 626              	 .global ep_radar_mcu_base_handle_change
 627              	 .thumb
 628              	 .thumb_func
 630              	ep_radar_mcu_base_handle_change:
 631              	.LFB548:
 248:../HostCommunication/src/EndpointRadarMcuBase.c **** 
 249:../HostCommunication/src/EndpointRadarMcuBase.c **** //============================================================================
 250:../HostCommunication/src/EndpointRadarMcuBase.c **** 
 251:../HostCommunication/src/EndpointRadarMcuBase.c **** void ep_radar_mcu_base_handle_change(uint8_t endpoint, void* context, uint32_t what)
 252:../HostCommunication/src/EndpointRadarMcuBase.c **** {
 632              	 .loc 1 252 0
 633              	 .cfi_startproc
 634              	 
 635              	 
 636              	.LVL79:
 253:../HostCommunication/src/EndpointRadarMcuBase.c **** 	Radar_Handle_t radar_driver = (Radar_Handle_t)context;
 254:../HostCommunication/src/EndpointRadarMcuBase.c **** 
 255:../HostCommunication/src/EndpointRadarMcuBase.c **** 	(void)radar_driver; /* Suppress compiler warnings of unused variable */
 256:../HostCommunication/src/EndpointRadarMcuBase.c **** 
 257:../HostCommunication/src/EndpointRadarMcuBase.c **** 	switch (what)
 637              	 .loc 1 257 0
 638 0000 142A     	 cmp r2,#20
 639 0002 00D0     	 beq .L44
 640 0004 7047     	 bx lr
 641              	.L44:
 252:../HostCommunication/src/EndpointRadarMcuBase.c **** 	Radar_Handle_t radar_driver = (Radar_Handle_t)context;
 642              	 .loc 1 252 0
 643 0006 08B5     	 push {r3,lr}
 644              	.LCFI8:
 645              	 .cfi_def_cfa_offset 8
 646              	 .cfi_offset 3,-8
 647              	 .cfi_offset 14,-4
 258:../HostCommunication/src/EndpointRadarMcuBase.c **** 	{
 259:../HostCommunication/src/EndpointRadarMcuBase.c **** 
 260:../HostCommunication/src/EndpointRadarMcuBase.c **** 	case EP_RADAR_CHNG_CURRENT_CONSUMPTION:
 261:../HostCommunication/src/EndpointRadarMcuBase.c **** 		inc_consumption_repeat_count(1);
 648              	 .loc 1 261 0
 649 0008 0120     	 movs r0,#1
 650              	.LVL80:
 651 000a FFF7FEFF 	 bl inc_consumption_repeat_count
 652              	.LVL81:
 262:../HostCommunication/src/EndpointRadarMcuBase.c **** 		mcu_base_updates();
 263:../HostCommunication/src/EndpointRadarMcuBase.c **** 		break;
 264:../HostCommunication/src/EndpointRadarMcuBase.c **** 	default:
 265:../HostCommunication/src/EndpointRadarMcuBase.c **** 		break;
 266:../HostCommunication/src/EndpointRadarMcuBase.c **** 	}
 267:../HostCommunication/src/EndpointRadarMcuBase.c **** }
 653              	 .loc 1 267 0
 654 000e BDE80840 	 pop {r3,lr}
 655              	.LCFI9:
 656              	 .cfi_restore 14
 657              	 .cfi_restore 3
 658              	 .cfi_def_cfa_offset 0
 262:../HostCommunication/src/EndpointRadarMcuBase.c **** 		mcu_base_updates();
 659              	 .loc 1 262 0
 660 0012 FFF7FEBF 	 b mcu_base_updates
 661              	.LVL82:
 662              	 .cfi_endproc
 663              	.LFE548:
 665              	 .global g_detected_rf_shield_id
 666 0016 00BF     	 .section .bss.mcu_base_endpoint,"aw",%nobits
 667              	 .set .LANCHOR0,.+0
 670              	mcu_base_endpoint:
 671 0000 00       	 .space 1
 672              	 .section .bss.g_detected_rf_shield_id,"aw",%nobits
 673              	 .align 2
 676              	g_detected_rf_shield_id:
 677 0000 00000000 	 .space 4
 678              	 .section .bss.message.18180,"aw",%nobits
 679              	 .align 2
 680              	 .set .LANCHOR1,.+0
 683              	message.18180:
 684 0000 00000000 	 .space 512
 684      00000000 
 684      00000000 
 684      00000000 
 684      00000000 
 685              	 .section .rodata.str1.4,"aMS",%progbits,1
 686              	 .align 2
 687              	.LC0:
 688 0000 584D4334 	 .ascii "XMC4700 Radar baseboard V2.0\000"
 688      37303020 
 688      52616461 
 688      72206261 
 688      7365626F 
 689 001d 000000   	 .section .bss.message.18189,"aw",%nobits
 690              	 .align 2
 691              	 .set .LANCHOR2,.+0
 694              	message.18189:
 695 0000 00000000 	 .space 200
 695      00000000 
 695      00000000 
 695      00000000 
 695      00000000 
 696              	 .section .bss.message.18196,"aw",%nobits
 697              	 .align 2
 698              	 .set .LANCHOR3,.+0
 701              	message.18196:
 702 0000 00000000 	 .space 10
 702      00000000 
 702      0000
 703 000a 0000     	 .section .bss.message.18199,"aw",%nobits
 704              	 .align 2
 705              	 .set .LANCHOR4,.+0
 708              	message.18199:
 709 0000 00000000 	 .space 10
 709      00000000 
 709      0000
 710 000a 0000     	 .text
 711              	.Letext0:
 712              	 .file 3 "c:\\infineon\\tools\\dave ide\\4.5.0.202105191637\\eclipse\\arm-gcc-49\\arm-none-eabi\\include\\machine\\_default_types.h"
 713              	 .file 4 "c:\\infineon\\tools\\dave ide\\4.5.0.202105191637\\eclipse\\arm-gcc-49\\arm-none-eabi\\include\\stdint.h"
 714              	 .file 5 "c:\\infineon\\tools\\dave ide\\4.5.0.202105191637\\eclipse\\arm-gcc-49\\lib\\gcc\\arm-none-eabi\\4.9.3\\include\\stddef.h"
 715              	 .file 6 "C:/Users/Utente/Desktop/Tesi/Firmware_Software/DAVE project/S2GLP_Pulsed_Doppler/Libraries/CMSIS/Infineon/XMC4700_series/Include/XMC4700.h"
 716              	 .file 7 "C:/Users/Utente/Desktop/Tesi/Firmware_Software/DAVE project/S2GLP_Pulsed_Doppler/Libraries/XMCLib/inc/xmc_vadc.h"
 717              	 .file 8 "C:/Users/Utente/Desktop/Tesi/Firmware_Software/DAVE project/S2GLP_Pulsed_Doppler/Libraries/XMCLib/inc/xmc_usbd_regs.h"
 718              	 .file 9 "C:/Users/Utente/Desktop/Tesi/Firmware_Software/DAVE project/S2GLP_Pulsed_Doppler/Libraries/XMCLib/inc/xmc_usbd.h"
 719              	 .file 10 "C:/Users/Utente/Desktop/Tesi/Firmware_Software/DAVE project/S2GLP_Pulsed_Doppler/Dave/Generated/USBD/usbd.h"
 720              	 .file 11 "C:/Users/Utente/Desktop/Tesi/Firmware_Software/DAVE project/S2GLP_Pulsed_Doppler/Libraries/XMCLib/inc/xmc_usic.h"
 721              	 .file 12 "C:/Users/Utente/Desktop/Tesi/Firmware_Software/DAVE project/S2GLP_Pulsed_Doppler/Radar_Control/inc/radar_api.h"
 722              	 .file 13 "C:/Users/Utente/Desktop/Tesi/Firmware_Software/DAVE project/S2GLP_Pulsed_Doppler/HostCommunication/inc/EndpointRadarMcuBase.h"
 723              	 .file 14 "C:/Users/Utente/Desktop/Tesi/Firmware_Software/DAVE project/S2GLP_Pulsed_Doppler/Radar_Control/inc/radar_pulse.h"
 724              	 .file 15 "C:/Users/Utente/Desktop/Tesi/Firmware_Software/DAVE project/S2GLP_Pulsed_Doppler/Libraries/CMSIS/Include/core_cm4.h"
 725              	 .file 16 "C:/Users/Utente/Desktop/Tesi/Firmware_Software/DAVE project/S2GLP_Pulsed_Doppler/Libraries/CMSIS/Infineon/XMC4700_series/Include/system_XMC4700.h"
 726              	 .file 17 "C:/Users/Utente/Desktop/Tesi/Firmware_Software/DAVE project/S2GLP_Pulsed_Doppler/Dave/Generated/ADC_MEASUREMENT_ADV/adc_measurement_adv.h"
 727              	 .file 18 "C:/Users/Utente/Desktop/Tesi/Firmware_Software/DAVE project/S2GLP_Pulsed_Doppler/Dave/Generated/USBD/usbd_extern.h"
 728              	 .file 19 "c:\\infineon\\tools\\dave ide\\4.5.0.202105191637\\eclipse\\arm-gcc-49\\arm-none-eabi\\include\\string.h"
 729              	 .file 20 "C:/Users/Utente/Desktop/Tesi/Firmware_Software/DAVE project/S2GLP_Pulsed_Doppler/HostCommunication/inc/Protocol.h"
 730              	 .file 21 "C:/Users/Utente/Desktop/Tesi/Firmware_Software/DAVE project/S2GLP_Pulsed_Doppler/Radar_Control/inc/radar_mcubase.h"
 731              	 .file 22 "C:/Users/Utente/Desktop/Tesi/Firmware_Software/DAVE project/S2GLP_Pulsed_Doppler/Store/inc/datastore.h"