   1              	 .syntax unified
   2              	 .cpu cortex-m4
   3              	 .eabi_attribute 27,3
   4              	 .fpu fpv4-sp-d16
   5              	 .eabi_attribute 20,1
   6              	 .eabi_attribute 21,1
   7              	 .eabi_attribute 23,3
   8              	 .eabi_attribute 24,1
   9              	 .eabi_attribute 25,1
  10              	 .eabi_attribute 26,1
  11              	 .eabi_attribute 30,2
  12              	 .eabi_attribute 34,1
  13              	 .eabi_attribute 18,4
  14              	 .thumb
  15              	 .file "EndpointRadars2glpulse.c"
  16              	 .text
  17              	.Ltext0:
  18              	 .cfi_sections .debug_frame
  19              	 .section .text.send_result_response,"ax",%progbits
  20              	 .align 2
  21              	 .global send_result_response
  22              	 .thumb
  23              	 .thumb_func
  25              	send_result_response:
  26              	.LFB546:
  27              	 .file 1 "../HostCommunication/src/EndpointRadars2glpulse.c"
   1:../HostCommunication/src/EndpointRadars2glpulse.c **** /**
   2:../HostCommunication/src/EndpointRadars2glpulse.c ****  * \file EndpointRadars2glpulse.c
   3:../HostCommunication/src/EndpointRadars2glpulse.c ****  *
   4:../HostCommunication/src/EndpointRadars2glpulse.c ****  * \brief Radar endpoint containing functionality pertinent to Sense2GoL Pulse
   5:../HostCommunication/src/EndpointRadars2glpulse.c ****  *        Industrial radar demo kit.
   6:../HostCommunication/src/EndpointRadars2glpulse.c ****  */
   7:../HostCommunication/src/EndpointRadars2glpulse.c **** 
   8:../HostCommunication/src/EndpointRadars2glpulse.c **** /* ===========================================================================
   9:../HostCommunication/src/EndpointRadars2glpulse.c **** ** Copyright (C) 2018-2021 Infineon Technologies AG
  10:../HostCommunication/src/EndpointRadars2glpulse.c **** ** All rights reserved.
  11:../HostCommunication/src/EndpointRadars2glpulse.c **** ** ===========================================================================
  12:../HostCommunication/src/EndpointRadars2glpulse.c **** **
  13:../HostCommunication/src/EndpointRadars2glpulse.c **** ** ===========================================================================
  14:../HostCommunication/src/EndpointRadars2glpulse.c **** ** This document contains proprietary information of Infineon Technologies AG.
  15:../HostCommunication/src/EndpointRadars2glpulse.c **** ** Passing on and copying of this document, and communication of its contents
  16:../HostCommunication/src/EndpointRadars2glpulse.c **** ** is not permitted without Infineon's prior written authorisation.
  17:../HostCommunication/src/EndpointRadars2glpulse.c **** ** ===========================================================================
  18:../HostCommunication/src/EndpointRadars2glpulse.c **** */
  19:../HostCommunication/src/EndpointRadars2glpulse.c **** 
  20:../HostCommunication/src/EndpointRadars2glpulse.c **** /*
  21:../HostCommunication/src/EndpointRadars2glpulse.c **** ==============================================================================
  22:../HostCommunication/src/EndpointRadars2glpulse.c ****    1. INCLUDE FILES
  23:../HostCommunication/src/EndpointRadars2glpulse.c **** ==============================================================================
  24:../HostCommunication/src/EndpointRadars2glpulse.c ****  */
  25:../HostCommunication/src/EndpointRadars2glpulse.c **** #include "sense2gol_bsp_limits.h"
  26:../HostCommunication/src/EndpointRadars2glpulse.c **** #include "EndpointRadars2glpulse.h"
  27:../HostCommunication/src/EndpointRadars2glpulse.c **** #include "radar_pulse.h"
  28:../HostCommunication/src/EndpointRadars2glpulse.c **** #include "EndpointRadarChangeCodes.h"
  29:../HostCommunication/src/EndpointRadars2glpulse.c **** #include "PayloadHelper.h"
  30:../HostCommunication/src/EndpointRadars2glpulse.c **** 
  31:../HostCommunication/src/EndpointRadars2glpulse.c **** 
  32:../HostCommunication/src/EndpointRadars2glpulse.c **** /*
  33:../HostCommunication/src/EndpointRadars2glpulse.c **** ==============================================================================
  34:../HostCommunication/src/EndpointRadars2glpulse.c ****    2. LOCAL DEFINITIONS
  35:../HostCommunication/src/EndpointRadars2glpulse.c **** ==============================================================================
  36:../HostCommunication/src/EndpointRadars2glpulse.c ****  */
  37:../HostCommunication/src/EndpointRadars2glpulse.c **** /**
  38:../HostCommunication/src/EndpointRadars2glpulse.c ****  * \defgroup MessageTypes
  39:../HostCommunication/src/EndpointRadars2glpulse.c ****  *
  40:../HostCommunication/src/EndpointRadars2glpulse.c ****  * \brief This end point knows these message types.
  41:../HostCommunication/src/EndpointRadars2glpulse.c ****  *
  42:../HostCommunication/src/EndpointRadars2glpulse.c ****  * The first payload byte of every message is one of these codes.
  43:../HostCommunication/src/EndpointRadars2glpulse.c ****  *
  44:../HostCommunication/src/EndpointRadars2glpulse.c ****  * @{
  45:../HostCommunication/src/EndpointRadars2glpulse.c ****  */
  46:../HostCommunication/src/EndpointRadars2glpulse.c **** 
  47:../HostCommunication/src/EndpointRadars2glpulse.c **** /** @} */
  48:../HostCommunication/src/EndpointRadars2glpulse.c **** 
  49:../HostCommunication/src/EndpointRadars2glpulse.c **** /*
  50:../HostCommunication/src/EndpointRadars2glpulse.c **** ==============================================================================
  51:../HostCommunication/src/EndpointRadars2glpulse.c ****    2. LOCAL DEFINITIONS
  52:../HostCommunication/src/EndpointRadars2glpulse.c **** ==============================================================================
  53:../HostCommunication/src/EndpointRadars2glpulse.c ****  */
  54:../HostCommunication/src/EndpointRadars2glpulse.c **** 
  55:../HostCommunication/src/EndpointRadars2glpulse.c **** /*
  56:../HostCommunication/src/EndpointRadars2glpulse.c **** ==============================================================================
  57:../HostCommunication/src/EndpointRadars2glpulse.c ****    3. LOCAL TYPES
  58:../HostCommunication/src/EndpointRadars2glpulse.c **** ==============================================================================
  59:../HostCommunication/src/EndpointRadars2glpulse.c ****  */
  60:../HostCommunication/src/EndpointRadars2glpulse.c **** 
  61:../HostCommunication/src/EndpointRadars2glpulse.c **** /*
  62:../HostCommunication/src/EndpointRadars2glpulse.c **** ==============================================================================
  63:../HostCommunication/src/EndpointRadars2glpulse.c ****    4. DATA
  64:../HostCommunication/src/EndpointRadars2glpulse.c **** ==============================================================================
  65:../HostCommunication/src/EndpointRadars2glpulse.c ****  */
  66:../HostCommunication/src/EndpointRadars2glpulse.c **** 
  67:../HostCommunication/src/EndpointRadars2glpulse.c **** /*static */ pulse_para_values_t  g_parameter_pulse;
  68:../HostCommunication/src/EndpointRadars2glpulse.c **** 
  69:../HostCommunication/src/EndpointRadars2glpulse.c **** /*
  70:../HostCommunication/src/EndpointRadars2glpulse.c **** ==============================================================================
  71:../HostCommunication/src/EndpointRadars2glpulse.c ****    5. LOCAL FUNCTION PROTOTYPES
  72:../HostCommunication/src/EndpointRadars2glpulse.c **** ==============================================================================
  73:../HostCommunication/src/EndpointRadars2glpulse.c ****  */
  74:../HostCommunication/src/EndpointRadars2glpulse.c **** 
  75:../HostCommunication/src/EndpointRadars2glpulse.c **** static size_t packing_helper_12Bit(uint8_t *p_dest, uint16_t *p_src, size_t numSamples);
  76:../HostCommunication/src/EndpointRadars2glpulse.c **** 
  77:../HostCommunication/src/EndpointRadars2glpulse.c **** /*
  78:../HostCommunication/src/EndpointRadars2glpulse.c **** ==============================================================================
  79:../HostCommunication/src/EndpointRadars2glpulse.c ****    6. EXPORTED FUNCTIONS
  80:../HostCommunication/src/EndpointRadars2glpulse.c **** ==============================================================================
  81:../HostCommunication/src/EndpointRadars2glpulse.c ****  */
  82:../HostCommunication/src/EndpointRadars2glpulse.c **** 
  83:../HostCommunication/src/EndpointRadars2glpulse.c **** void send_result_response(uint8_t endpoint, pulse_result_response_t *p_pulse_result)
  84:../HostCommunication/src/EndpointRadars2glpulse.c **** {
  28              	 .loc 1 84 0
  29              	 .cfi_startproc
  30              	 
  31              	 
  32              	.LVL0:
  33 0000 2DE9F041 	 push {r4,r5,r6,r7,r8,lr}
  34              	.LCFI0:
  35              	 .cfi_def_cfa_offset 24
  36              	 .cfi_offset 4,-24
  37              	 .cfi_offset 5,-20
  38              	 .cfi_offset 6,-16
  39              	 .cfi_offset 7,-12
  40              	 .cfi_offset 8,-8
  41              	 .cfi_offset 14,-4
  85:../HostCommunication/src/EndpointRadars2glpulse.c **** 	static uint32_t result_cnt = 0; // zero init at startup!
  86:../HostCommunication/src/EndpointRadars2glpulse.c **** 	static uint8_t message[sizeof(pulse_result_response_t)+20];
  87:../HostCommunication/src/EndpointRadars2glpulse.c **** 	int16_t offset = 0;
  88:../HostCommunication/src/EndpointRadars2glpulse.c **** 
  89:../HostCommunication/src/EndpointRadars2glpulse.c **** 	offset += wr_payload_u8(message, offset, MSG_RESULT_RES);
  90:../HostCommunication/src/EndpointRadars2glpulse.c **** 	offset += wr_payload_u32(message, offset, result_cnt);
  42              	 .loc 1 90 0
  43 0004 264E     	 ldr r6,.L3
  44              	.LBB96:
  45              	.LBB97:
  46              	 .file 2 "C:/Users/Utente/Desktop/Tesi/Firmware_Software/DAVE project/S2GLP_Pulsed_Doppler/HostCommunication/inc/PayloadHelper.h"
   1:C:/Users/Utente/Desktop/Tesi/Firmware_Software/DAVE project/S2GLP_Pulsed_Doppler/HostCommunication/inc\PayloadHelper.h **** ﻿/**
   2:C:/Users/Utente/Desktop/Tesi/Firmware_Software/DAVE project/S2GLP_Pulsed_Doppler/HostCommunication/inc\PayloadHelper.h ****  * \file PayloadHelper.h
   3:C:/Users/Utente/Desktop/Tesi/Firmware_Software/DAVE project/S2GLP_Pulsed_Doppler/HostCommunication/inc\PayloadHelper.h ****  *
   4:C:/Users/Utente/Desktop/Tesi/Firmware_Software/DAVE project/S2GLP_Pulsed_Doppler/HostCommunication/inc\PayloadHelper.h ****  * \brief This file defines an internal protocol API to be used by endpoint
   5:C:/Users/Utente/Desktop/Tesi/Firmware_Software/DAVE project/S2GLP_Pulsed_Doppler/HostCommunication/inc\PayloadHelper.h ****  *        implementations.
   6:C:/Users/Utente/Desktop/Tesi/Firmware_Software/DAVE project/S2GLP_Pulsed_Doppler/HostCommunication/inc\PayloadHelper.h ****  *
   7:C:/Users/Utente/Desktop/Tesi/Firmware_Software/DAVE project/S2GLP_Pulsed_Doppler/HostCommunication/inc\PayloadHelper.h ****  * This file defines some light weight function that help to access data in
   8:C:/Users/Utente/Desktop/Tesi/Firmware_Software/DAVE project/S2GLP_Pulsed_Doppler/HostCommunication/inc\PayloadHelper.h ****  * protocol payload. Different implementation allow to adapt to the
   9:C:/Users/Utente/Desktop/Tesi/Firmware_Software/DAVE project/S2GLP_Pulsed_Doppler/HostCommunication/inc\PayloadHelper.h ****  * capabilities of the target machine. Special implementations can be chosen
  10:C:/Users/Utente/Desktop/Tesi/Firmware_Software/DAVE project/S2GLP_Pulsed_Doppler/HostCommunication/inc\PayloadHelper.h ****  * by defining the according compile time switch. If none of the available
  11:C:/Users/Utente/Desktop/Tesi/Firmware_Software/DAVE project/S2GLP_Pulsed_Doppler/HostCommunication/inc\PayloadHelper.h ****  * compile time switches is chosen, the default implementation will be used.
  12:C:/Users/Utente/Desktop/Tesi/Firmware_Software/DAVE project/S2GLP_Pulsed_Doppler/HostCommunication/inc\PayloadHelper.h ****  *
  13:C:/Users/Utente/Desktop/Tesi/Firmware_Software/DAVE project/S2GLP_Pulsed_Doppler/HostCommunication/inc\PayloadHelper.h ****  * The default implementation is safe on all target machines and can handle
  14:C:/Users/Utente/Desktop/Tesi/Firmware_Software/DAVE project/S2GLP_Pulsed_Doppler/HostCommunication/inc\PayloadHelper.h ****  * both, big endian CPUs and little endian CPUs. It may be slower than other
  15:C:/Users/Utente/Desktop/Tesi/Firmware_Software/DAVE project/S2GLP_Pulsed_Doppler/HostCommunication/inc\PayloadHelper.h ****  * special implementations.
  16:C:/Users/Utente/Desktop/Tesi/Firmware_Software/DAVE project/S2GLP_Pulsed_Doppler/HostCommunication/inc\PayloadHelper.h ****  *
  17:C:/Users/Utente/Desktop/Tesi/Firmware_Software/DAVE project/S2GLP_Pulsed_Doppler/HostCommunication/inc\PayloadHelper.h ****  * If the compile time switch COMLIB_ALLOW_PAYLOAD_CASTS is set, a special
  18:C:/Users/Utente/Desktop/Tesi/Firmware_Software/DAVE project/S2GLP_Pulsed_Doppler/HostCommunication/inc\PayloadHelper.h ****  * implementation for little endian machines is used, that can access data
  19:C:/Users/Utente/Desktop/Tesi/Firmware_Software/DAVE project/S2GLP_Pulsed_Doppler/HostCommunication/inc\PayloadHelper.h ****  * faster by casting data to the right data type. This implementation works
  20:C:/Users/Utente/Desktop/Tesi/Firmware_Software/DAVE project/S2GLP_Pulsed_Doppler/HostCommunication/inc\PayloadHelper.h ****  * only for CPUs that have no alignment requirement for 16 bit and 32 bit
  21:C:/Users/Utente/Desktop/Tesi/Firmware_Software/DAVE project/S2GLP_Pulsed_Doppler/HostCommunication/inc\PayloadHelper.h ****  * integers.
  22:C:/Users/Utente/Desktop/Tesi/Firmware_Software/DAVE project/S2GLP_Pulsed_Doppler/HostCommunication/inc\PayloadHelper.h ****  */
  23:C:/Users/Utente/Desktop/Tesi/Firmware_Software/DAVE project/S2GLP_Pulsed_Doppler/HostCommunication/inc\PayloadHelper.h **** 
  24:C:/Users/Utente/Desktop/Tesi/Firmware_Software/DAVE project/S2GLP_Pulsed_Doppler/HostCommunication/inc\PayloadHelper.h **** /* ===========================================================================
  25:C:/Users/Utente/Desktop/Tesi/Firmware_Software/DAVE project/S2GLP_Pulsed_Doppler/HostCommunication/inc\PayloadHelper.h **** ** Copyright (C) 2016-2021 Infineon Technologies AG
  26:C:/Users/Utente/Desktop/Tesi/Firmware_Software/DAVE project/S2GLP_Pulsed_Doppler/HostCommunication/inc\PayloadHelper.h **** ** All rights reserved.
  27:C:/Users/Utente/Desktop/Tesi/Firmware_Software/DAVE project/S2GLP_Pulsed_Doppler/HostCommunication/inc\PayloadHelper.h **** ** ===========================================================================
  28:C:/Users/Utente/Desktop/Tesi/Firmware_Software/DAVE project/S2GLP_Pulsed_Doppler/HostCommunication/inc\PayloadHelper.h **** **
  29:C:/Users/Utente/Desktop/Tesi/Firmware_Software/DAVE project/S2GLP_Pulsed_Doppler/HostCommunication/inc\PayloadHelper.h **** ** ===========================================================================
  30:C:/Users/Utente/Desktop/Tesi/Firmware_Software/DAVE project/S2GLP_Pulsed_Doppler/HostCommunication/inc\PayloadHelper.h **** ** This document contains proprietary information of Infineon Technologies AG.
  31:C:/Users/Utente/Desktop/Tesi/Firmware_Software/DAVE project/S2GLP_Pulsed_Doppler/HostCommunication/inc\PayloadHelper.h **** ** Passing on and copying of this document, and communication of its contents
  32:C:/Users/Utente/Desktop/Tesi/Firmware_Software/DAVE project/S2GLP_Pulsed_Doppler/HostCommunication/inc\PayloadHelper.h **** ** is not permitted without Infineon's prior written authorisation.
  33:C:/Users/Utente/Desktop/Tesi/Firmware_Software/DAVE project/S2GLP_Pulsed_Doppler/HostCommunication/inc\PayloadHelper.h **** ** ===========================================================================
  34:C:/Users/Utente/Desktop/Tesi/Firmware_Software/DAVE project/S2GLP_Pulsed_Doppler/HostCommunication/inc\PayloadHelper.h **** */
  35:C:/Users/Utente/Desktop/Tesi/Firmware_Software/DAVE project/S2GLP_Pulsed_Doppler/HostCommunication/inc\PayloadHelper.h **** 
  36:C:/Users/Utente/Desktop/Tesi/Firmware_Software/DAVE project/S2GLP_Pulsed_Doppler/HostCommunication/inc\PayloadHelper.h **** #ifndef HOSTCOMMUNICATION_PAYLOAD_HELPER_H_
  37:C:/Users/Utente/Desktop/Tesi/Firmware_Software/DAVE project/S2GLP_Pulsed_Doppler/HostCommunication/inc\PayloadHelper.h **** #define HOSTCOMMUNICATION_PAYLOAD_HELPER_H_
  38:C:/Users/Utente/Desktop/Tesi/Firmware_Software/DAVE project/S2GLP_Pulsed_Doppler/HostCommunication/inc\PayloadHelper.h **** 
  39:C:/Users/Utente/Desktop/Tesi/Firmware_Software/DAVE project/S2GLP_Pulsed_Doppler/HostCommunication/inc\PayloadHelper.h **** /*
  40:C:/Users/Utente/Desktop/Tesi/Firmware_Software/DAVE project/S2GLP_Pulsed_Doppler/HostCommunication/inc\PayloadHelper.h **** ==============================================================================
  41:C:/Users/Utente/Desktop/Tesi/Firmware_Software/DAVE project/S2GLP_Pulsed_Doppler/HostCommunication/inc\PayloadHelper.h ****    1. INCLUDE FILES
  42:C:/Users/Utente/Desktop/Tesi/Firmware_Software/DAVE project/S2GLP_Pulsed_Doppler/HostCommunication/inc\PayloadHelper.h **** ==============================================================================
  43:C:/Users/Utente/Desktop/Tesi/Firmware_Software/DAVE project/S2GLP_Pulsed_Doppler/HostCommunication/inc\PayloadHelper.h ****  */
  44:C:/Users/Utente/Desktop/Tesi/Firmware_Software/DAVE project/S2GLP_Pulsed_Doppler/HostCommunication/inc\PayloadHelper.h **** #include <stdint.h>
  45:C:/Users/Utente/Desktop/Tesi/Firmware_Software/DAVE project/S2GLP_Pulsed_Doppler/HostCommunication/inc\PayloadHelper.h **** #include <stdlib.h>
  46:C:/Users/Utente/Desktop/Tesi/Firmware_Software/DAVE project/S2GLP_Pulsed_Doppler/HostCommunication/inc\PayloadHelper.h **** 
  47:C:/Users/Utente/Desktop/Tesi/Firmware_Software/DAVE project/S2GLP_Pulsed_Doppler/HostCommunication/inc\PayloadHelper.h **** 
  48:C:/Users/Utente/Desktop/Tesi/Firmware_Software/DAVE project/S2GLP_Pulsed_Doppler/HostCommunication/inc\PayloadHelper.h **** #if !defined(STATIC_ASSERT)
  49:C:/Users/Utente/Desktop/Tesi/Firmware_Software/DAVE project/S2GLP_Pulsed_Doppler/HostCommunication/inc\PayloadHelper.h **** #define STATIC_ASSERT(test_for_true) _Static_assert((test_for_true), "(" #test_for_true ") failed")
  50:C:/Users/Utente/Desktop/Tesi/Firmware_Software/DAVE project/S2GLP_Pulsed_Doppler/HostCommunication/inc\PayloadHelper.h **** #endif
  51:C:/Users/Utente/Desktop/Tesi/Firmware_Software/DAVE project/S2GLP_Pulsed_Doppler/HostCommunication/inc\PayloadHelper.h **** 
  52:C:/Users/Utente/Desktop/Tesi/Firmware_Software/DAVE project/S2GLP_Pulsed_Doppler/HostCommunication/inc\PayloadHelper.h **** /*
  53:C:/Users/Utente/Desktop/Tesi/Firmware_Software/DAVE project/S2GLP_Pulsed_Doppler/HostCommunication/inc\PayloadHelper.h **** ==============================================================================
  54:C:/Users/Utente/Desktop/Tesi/Firmware_Software/DAVE project/S2GLP_Pulsed_Doppler/HostCommunication/inc\PayloadHelper.h ****    2. FUNCTION PROTOTYPES AND INLINE FUNCTIONS
  55:C:/Users/Utente/Desktop/Tesi/Firmware_Software/DAVE project/S2GLP_Pulsed_Doppler/HostCommunication/inc\PayloadHelper.h **** ==============================================================================
  56:C:/Users/Utente/Desktop/Tesi/Firmware_Software/DAVE project/S2GLP_Pulsed_Doppler/HostCommunication/inc\PayloadHelper.h ****  */
  57:C:/Users/Utente/Desktop/Tesi/Firmware_Software/DAVE project/S2GLP_Pulsed_Doppler/HostCommunication/inc\PayloadHelper.h **** 
  58:C:/Users/Utente/Desktop/Tesi/Firmware_Software/DAVE project/S2GLP_Pulsed_Doppler/HostCommunication/inc\PayloadHelper.h **** /**
  59:C:/Users/Utente/Desktop/Tesi/Firmware_Software/DAVE project/S2GLP_Pulsed_Doppler/HostCommunication/inc\PayloadHelper.h ****  * \internal
  60:C:/Users/Utente/Desktop/Tesi/Firmware_Software/DAVE project/S2GLP_Pulsed_Doppler/HostCommunication/inc\PayloadHelper.h ****  * \brief The function extracts a signed 8 bit integer from a payload buffer.
  61:C:/Users/Utente/Desktop/Tesi/Firmware_Software/DAVE project/S2GLP_Pulsed_Doppler/HostCommunication/inc\PayloadHelper.h ****  *
  62:C:/Users/Utente/Desktop/Tesi/Firmware_Software/DAVE project/S2GLP_Pulsed_Doppler/HostCommunication/inc\PayloadHelper.h ****  * The function reads one byte from the given payload buffer at the requested
  63:C:/Users/Utente/Desktop/Tesi/Firmware_Software/DAVE project/S2GLP_Pulsed_Doppler/HostCommunication/inc\PayloadHelper.h ****  * position and interprets it as a signed 8 bit integer value, which will be
  64:C:/Users/Utente/Desktop/Tesi/Firmware_Software/DAVE project/S2GLP_Pulsed_Doppler/HostCommunication/inc\PayloadHelper.h ****  * returned.
  65:C:/Users/Utente/Desktop/Tesi/Firmware_Software/DAVE project/S2GLP_Pulsed_Doppler/HostCommunication/inc\PayloadHelper.h ****  *
  66:C:/Users/Utente/Desktop/Tesi/Firmware_Software/DAVE project/S2GLP_Pulsed_Doppler/HostCommunication/inc\PayloadHelper.h ****  * \param[in] payload  A pointer to a block of payload data.
  67:C:/Users/Utente/Desktop/Tesi/Firmware_Software/DAVE project/S2GLP_Pulsed_Doppler/HostCommunication/inc\PayloadHelper.h ****  * \param[in] offset   The byte position at which the requested data value
  68:C:/Users/Utente/Desktop/Tesi/Firmware_Software/DAVE project/S2GLP_Pulsed_Doppler/HostCommunication/inc\PayloadHelper.h ****  *                     starts.
  69:C:/Users/Utente/Desktop/Tesi/Firmware_Software/DAVE project/S2GLP_Pulsed_Doppler/HostCommunication/inc\PayloadHelper.h ****  *
  70:C:/Users/Utente/Desktop/Tesi/Firmware_Software/DAVE project/S2GLP_Pulsed_Doppler/HostCommunication/inc\PayloadHelper.h ****  * \return The function returns the value read from the payload.
  71:C:/Users/Utente/Desktop/Tesi/Firmware_Software/DAVE project/S2GLP_Pulsed_Doppler/HostCommunication/inc\PayloadHelper.h ****  */
  72:C:/Users/Utente/Desktop/Tesi/Firmware_Software/DAVE project/S2GLP_Pulsed_Doppler/HostCommunication/inc\PayloadHelper.h **** static inline int8_t rd_payload_i8(const uint8_t* payload, size_t offset)
  73:C:/Users/Utente/Desktop/Tesi/Firmware_Software/DAVE project/S2GLP_Pulsed_Doppler/HostCommunication/inc\PayloadHelper.h **** {
  74:C:/Users/Utente/Desktop/Tesi/Firmware_Software/DAVE project/S2GLP_Pulsed_Doppler/HostCommunication/inc\PayloadHelper.h ****     return (int8_t)payload[offset];
  75:C:/Users/Utente/Desktop/Tesi/Firmware_Software/DAVE project/S2GLP_Pulsed_Doppler/HostCommunication/inc\PayloadHelper.h **** }
  76:C:/Users/Utente/Desktop/Tesi/Firmware_Software/DAVE project/S2GLP_Pulsed_Doppler/HostCommunication/inc\PayloadHelper.h **** 
  77:C:/Users/Utente/Desktop/Tesi/Firmware_Software/DAVE project/S2GLP_Pulsed_Doppler/HostCommunication/inc\PayloadHelper.h **** /**
  78:C:/Users/Utente/Desktop/Tesi/Firmware_Software/DAVE project/S2GLP_Pulsed_Doppler/HostCommunication/inc\PayloadHelper.h ****  * \internal
  79:C:/Users/Utente/Desktop/Tesi/Firmware_Software/DAVE project/S2GLP_Pulsed_Doppler/HostCommunication/inc\PayloadHelper.h ****  * \brief The function extracts an unsigned 8 bit integer from a payload
  80:C:/Users/Utente/Desktop/Tesi/Firmware_Software/DAVE project/S2GLP_Pulsed_Doppler/HostCommunication/inc\PayloadHelper.h ****  *        buffer.
  81:C:/Users/Utente/Desktop/Tesi/Firmware_Software/DAVE project/S2GLP_Pulsed_Doppler/HostCommunication/inc\PayloadHelper.h ****  *
  82:C:/Users/Utente/Desktop/Tesi/Firmware_Software/DAVE project/S2GLP_Pulsed_Doppler/HostCommunication/inc\PayloadHelper.h ****  * The function reads one byte from the given payload buffer at the requested
  83:C:/Users/Utente/Desktop/Tesi/Firmware_Software/DAVE project/S2GLP_Pulsed_Doppler/HostCommunication/inc\PayloadHelper.h ****  * position and interprets it as an unsigned 8 bit integer value, which will
  84:C:/Users/Utente/Desktop/Tesi/Firmware_Software/DAVE project/S2GLP_Pulsed_Doppler/HostCommunication/inc\PayloadHelper.h ****  * be returned.
  85:C:/Users/Utente/Desktop/Tesi/Firmware_Software/DAVE project/S2GLP_Pulsed_Doppler/HostCommunication/inc\PayloadHelper.h ****  *
  86:C:/Users/Utente/Desktop/Tesi/Firmware_Software/DAVE project/S2GLP_Pulsed_Doppler/HostCommunication/inc\PayloadHelper.h ****  * \param[in] payload  A pointer to a block of payload data.
  87:C:/Users/Utente/Desktop/Tesi/Firmware_Software/DAVE project/S2GLP_Pulsed_Doppler/HostCommunication/inc\PayloadHelper.h ****  * \param[in] offset   The byte position at which the requested data value
  88:C:/Users/Utente/Desktop/Tesi/Firmware_Software/DAVE project/S2GLP_Pulsed_Doppler/HostCommunication/inc\PayloadHelper.h ****  *                     starts.
  89:C:/Users/Utente/Desktop/Tesi/Firmware_Software/DAVE project/S2GLP_Pulsed_Doppler/HostCommunication/inc\PayloadHelper.h ****  *
  90:C:/Users/Utente/Desktop/Tesi/Firmware_Software/DAVE project/S2GLP_Pulsed_Doppler/HostCommunication/inc\PayloadHelper.h ****  * \return The function returns the value read from the payload.
  91:C:/Users/Utente/Desktop/Tesi/Firmware_Software/DAVE project/S2GLP_Pulsed_Doppler/HostCommunication/inc\PayloadHelper.h ****  */
  92:C:/Users/Utente/Desktop/Tesi/Firmware_Software/DAVE project/S2GLP_Pulsed_Doppler/HostCommunication/inc\PayloadHelper.h **** static inline uint8_t rd_payload_u8(const uint8_t* payload, size_t offset)
  93:C:/Users/Utente/Desktop/Tesi/Firmware_Software/DAVE project/S2GLP_Pulsed_Doppler/HostCommunication/inc\PayloadHelper.h **** {
  94:C:/Users/Utente/Desktop/Tesi/Firmware_Software/DAVE project/S2GLP_Pulsed_Doppler/HostCommunication/inc\PayloadHelper.h ****     return payload[offset];
  95:C:/Users/Utente/Desktop/Tesi/Firmware_Software/DAVE project/S2GLP_Pulsed_Doppler/HostCommunication/inc\PayloadHelper.h **** }
  96:C:/Users/Utente/Desktop/Tesi/Firmware_Software/DAVE project/S2GLP_Pulsed_Doppler/HostCommunication/inc\PayloadHelper.h **** 
  97:C:/Users/Utente/Desktop/Tesi/Firmware_Software/DAVE project/S2GLP_Pulsed_Doppler/HostCommunication/inc\PayloadHelper.h **** /**
  98:C:/Users/Utente/Desktop/Tesi/Firmware_Software/DAVE project/S2GLP_Pulsed_Doppler/HostCommunication/inc\PayloadHelper.h ****  * \internal
  99:C:/Users/Utente/Desktop/Tesi/Firmware_Software/DAVE project/S2GLP_Pulsed_Doppler/HostCommunication/inc\PayloadHelper.h ****  * \brief The function extracts a signed 16 bit integer from a payload buffer.
 100:C:/Users/Utente/Desktop/Tesi/Firmware_Software/DAVE project/S2GLP_Pulsed_Doppler/HostCommunication/inc\PayloadHelper.h ****  *
 101:C:/Users/Utente/Desktop/Tesi/Firmware_Software/DAVE project/S2GLP_Pulsed_Doppler/HostCommunication/inc\PayloadHelper.h ****  * The function reads two bytes from the given payload buffer starting at the
 102:C:/Users/Utente/Desktop/Tesi/Firmware_Software/DAVE project/S2GLP_Pulsed_Doppler/HostCommunication/inc\PayloadHelper.h ****  * requested position and interprets them as a signed 16 bit integer value,
 103:C:/Users/Utente/Desktop/Tesi/Firmware_Software/DAVE project/S2GLP_Pulsed_Doppler/HostCommunication/inc\PayloadHelper.h ****  * which will be returned. If needed the byte order is swapped to convert from
 104:C:/Users/Utente/Desktop/Tesi/Firmware_Software/DAVE project/S2GLP_Pulsed_Doppler/HostCommunication/inc\PayloadHelper.h ****  * the payload's little endian format to the CPU's endian format.
 105:C:/Users/Utente/Desktop/Tesi/Firmware_Software/DAVE project/S2GLP_Pulsed_Doppler/HostCommunication/inc\PayloadHelper.h ****  *
 106:C:/Users/Utente/Desktop/Tesi/Firmware_Software/DAVE project/S2GLP_Pulsed_Doppler/HostCommunication/inc\PayloadHelper.h ****  * \param[in] payload  A pointer to a block of payload data.
 107:C:/Users/Utente/Desktop/Tesi/Firmware_Software/DAVE project/S2GLP_Pulsed_Doppler/HostCommunication/inc\PayloadHelper.h ****  * \param[in] offset   The byte position at which the requested data value
 108:C:/Users/Utente/Desktop/Tesi/Firmware_Software/DAVE project/S2GLP_Pulsed_Doppler/HostCommunication/inc\PayloadHelper.h ****  *                     starts.
 109:C:/Users/Utente/Desktop/Tesi/Firmware_Software/DAVE project/S2GLP_Pulsed_Doppler/HostCommunication/inc\PayloadHelper.h ****  *
 110:C:/Users/Utente/Desktop/Tesi/Firmware_Software/DAVE project/S2GLP_Pulsed_Doppler/HostCommunication/inc\PayloadHelper.h ****  * \return The function returns the value read from the payload.
 111:C:/Users/Utente/Desktop/Tesi/Firmware_Software/DAVE project/S2GLP_Pulsed_Doppler/HostCommunication/inc\PayloadHelper.h ****  */
 112:C:/Users/Utente/Desktop/Tesi/Firmware_Software/DAVE project/S2GLP_Pulsed_Doppler/HostCommunication/inc\PayloadHelper.h **** static inline int16_t rd_payload_i16(const uint8_t* payload, size_t offset);
 113:C:/Users/Utente/Desktop/Tesi/Firmware_Software/DAVE project/S2GLP_Pulsed_Doppler/HostCommunication/inc\PayloadHelper.h **** 
 114:C:/Users/Utente/Desktop/Tesi/Firmware_Software/DAVE project/S2GLP_Pulsed_Doppler/HostCommunication/inc\PayloadHelper.h **** /**
 115:C:/Users/Utente/Desktop/Tesi/Firmware_Software/DAVE project/S2GLP_Pulsed_Doppler/HostCommunication/inc\PayloadHelper.h ****  * \internal
 116:C:/Users/Utente/Desktop/Tesi/Firmware_Software/DAVE project/S2GLP_Pulsed_Doppler/HostCommunication/inc\PayloadHelper.h ****  * \brief The function extracts an unsigned 16 bit integer from a payload
 117:C:/Users/Utente/Desktop/Tesi/Firmware_Software/DAVE project/S2GLP_Pulsed_Doppler/HostCommunication/inc\PayloadHelper.h ****  *        buffer.
 118:C:/Users/Utente/Desktop/Tesi/Firmware_Software/DAVE project/S2GLP_Pulsed_Doppler/HostCommunication/inc\PayloadHelper.h ****  *
 119:C:/Users/Utente/Desktop/Tesi/Firmware_Software/DAVE project/S2GLP_Pulsed_Doppler/HostCommunication/inc\PayloadHelper.h ****  * The function reads two bytes from the given payload buffer starting at the
 120:C:/Users/Utente/Desktop/Tesi/Firmware_Software/DAVE project/S2GLP_Pulsed_Doppler/HostCommunication/inc\PayloadHelper.h ****  * requested position and interprets them as an unsigned 16 bit integer value,
 121:C:/Users/Utente/Desktop/Tesi/Firmware_Software/DAVE project/S2GLP_Pulsed_Doppler/HostCommunication/inc\PayloadHelper.h ****  * which will be returned. If needed the byte order is swapped to convert from
 122:C:/Users/Utente/Desktop/Tesi/Firmware_Software/DAVE project/S2GLP_Pulsed_Doppler/HostCommunication/inc\PayloadHelper.h ****  * the payload's little endian format to the CPU's endian format.
 123:C:/Users/Utente/Desktop/Tesi/Firmware_Software/DAVE project/S2GLP_Pulsed_Doppler/HostCommunication/inc\PayloadHelper.h ****  *
 124:C:/Users/Utente/Desktop/Tesi/Firmware_Software/DAVE project/S2GLP_Pulsed_Doppler/HostCommunication/inc\PayloadHelper.h ****  * \param[in] payload  A pointer to a block of payload data.
 125:C:/Users/Utente/Desktop/Tesi/Firmware_Software/DAVE project/S2GLP_Pulsed_Doppler/HostCommunication/inc\PayloadHelper.h ****  * \param[in] offset   The byte position at which the requested data value
 126:C:/Users/Utente/Desktop/Tesi/Firmware_Software/DAVE project/S2GLP_Pulsed_Doppler/HostCommunication/inc\PayloadHelper.h ****  *                     starts.
 127:C:/Users/Utente/Desktop/Tesi/Firmware_Software/DAVE project/S2GLP_Pulsed_Doppler/HostCommunication/inc\PayloadHelper.h ****  *
 128:C:/Users/Utente/Desktop/Tesi/Firmware_Software/DAVE project/S2GLP_Pulsed_Doppler/HostCommunication/inc\PayloadHelper.h ****  * \return The function returns the value read from the payload.
 129:C:/Users/Utente/Desktop/Tesi/Firmware_Software/DAVE project/S2GLP_Pulsed_Doppler/HostCommunication/inc\PayloadHelper.h ****  */
 130:C:/Users/Utente/Desktop/Tesi/Firmware_Software/DAVE project/S2GLP_Pulsed_Doppler/HostCommunication/inc\PayloadHelper.h **** static inline uint16_t rd_payload_u16(const uint8_t* payload,
 131:C:/Users/Utente/Desktop/Tesi/Firmware_Software/DAVE project/S2GLP_Pulsed_Doppler/HostCommunication/inc\PayloadHelper.h **** 		size_t offset);
 132:C:/Users/Utente/Desktop/Tesi/Firmware_Software/DAVE project/S2GLP_Pulsed_Doppler/HostCommunication/inc\PayloadHelper.h **** 
 133:C:/Users/Utente/Desktop/Tesi/Firmware_Software/DAVE project/S2GLP_Pulsed_Doppler/HostCommunication/inc\PayloadHelper.h **** /**
 134:C:/Users/Utente/Desktop/Tesi/Firmware_Software/DAVE project/S2GLP_Pulsed_Doppler/HostCommunication/inc\PayloadHelper.h ****  * \internal
 135:C:/Users/Utente/Desktop/Tesi/Firmware_Software/DAVE project/S2GLP_Pulsed_Doppler/HostCommunication/inc\PayloadHelper.h ****  * \brief The function extracts a signed 32 bit integer from a payload buffer.
 136:C:/Users/Utente/Desktop/Tesi/Firmware_Software/DAVE project/S2GLP_Pulsed_Doppler/HostCommunication/inc\PayloadHelper.h ****  *
 137:C:/Users/Utente/Desktop/Tesi/Firmware_Software/DAVE project/S2GLP_Pulsed_Doppler/HostCommunication/inc\PayloadHelper.h ****  * The function reads four bytes from the given payload buffer starting at the
 138:C:/Users/Utente/Desktop/Tesi/Firmware_Software/DAVE project/S2GLP_Pulsed_Doppler/HostCommunication/inc\PayloadHelper.h ****  * requested position and interprets them as a signed 32 bit integer value,
 139:C:/Users/Utente/Desktop/Tesi/Firmware_Software/DAVE project/S2GLP_Pulsed_Doppler/HostCommunication/inc\PayloadHelper.h ****  * which will be returned. If needed the byte order is swapped to convert from
 140:C:/Users/Utente/Desktop/Tesi/Firmware_Software/DAVE project/S2GLP_Pulsed_Doppler/HostCommunication/inc\PayloadHelper.h ****  * the payload's little endian format to the CPU's endian format.
 141:C:/Users/Utente/Desktop/Tesi/Firmware_Software/DAVE project/S2GLP_Pulsed_Doppler/HostCommunication/inc\PayloadHelper.h ****  *
 142:C:/Users/Utente/Desktop/Tesi/Firmware_Software/DAVE project/S2GLP_Pulsed_Doppler/HostCommunication/inc\PayloadHelper.h ****  * \param[in] payload  A pointer to a block of payload data.
 143:C:/Users/Utente/Desktop/Tesi/Firmware_Software/DAVE project/S2GLP_Pulsed_Doppler/HostCommunication/inc\PayloadHelper.h ****  * \param[in] offset   The byte position at which the requested data value
 144:C:/Users/Utente/Desktop/Tesi/Firmware_Software/DAVE project/S2GLP_Pulsed_Doppler/HostCommunication/inc\PayloadHelper.h ****  *                     starts.
 145:C:/Users/Utente/Desktop/Tesi/Firmware_Software/DAVE project/S2GLP_Pulsed_Doppler/HostCommunication/inc\PayloadHelper.h ****  *
 146:C:/Users/Utente/Desktop/Tesi/Firmware_Software/DAVE project/S2GLP_Pulsed_Doppler/HostCommunication/inc\PayloadHelper.h ****  * \return The function returns the value read from the payload.
 147:C:/Users/Utente/Desktop/Tesi/Firmware_Software/DAVE project/S2GLP_Pulsed_Doppler/HostCommunication/inc\PayloadHelper.h ****  */
 148:C:/Users/Utente/Desktop/Tesi/Firmware_Software/DAVE project/S2GLP_Pulsed_Doppler/HostCommunication/inc\PayloadHelper.h **** static inline int32_t rd_payload_i32(const uint8_t* payload, size_t offset);
 149:C:/Users/Utente/Desktop/Tesi/Firmware_Software/DAVE project/S2GLP_Pulsed_Doppler/HostCommunication/inc\PayloadHelper.h **** 
 150:C:/Users/Utente/Desktop/Tesi/Firmware_Software/DAVE project/S2GLP_Pulsed_Doppler/HostCommunication/inc\PayloadHelper.h **** /**
 151:C:/Users/Utente/Desktop/Tesi/Firmware_Software/DAVE project/S2GLP_Pulsed_Doppler/HostCommunication/inc\PayloadHelper.h ****  * \internal
 152:C:/Users/Utente/Desktop/Tesi/Firmware_Software/DAVE project/S2GLP_Pulsed_Doppler/HostCommunication/inc\PayloadHelper.h ****  * \brief The function extracts an unsigned 32 bit integer from a payload
 153:C:/Users/Utente/Desktop/Tesi/Firmware_Software/DAVE project/S2GLP_Pulsed_Doppler/HostCommunication/inc\PayloadHelper.h ****  *        buffer.
 154:C:/Users/Utente/Desktop/Tesi/Firmware_Software/DAVE project/S2GLP_Pulsed_Doppler/HostCommunication/inc\PayloadHelper.h ****  *
 155:C:/Users/Utente/Desktop/Tesi/Firmware_Software/DAVE project/S2GLP_Pulsed_Doppler/HostCommunication/inc\PayloadHelper.h ****  * The function reads four bytes from the given payload buffer starting at the
 156:C:/Users/Utente/Desktop/Tesi/Firmware_Software/DAVE project/S2GLP_Pulsed_Doppler/HostCommunication/inc\PayloadHelper.h ****  * requested position and interprets them as an unsigned 32 bit integer value,
 157:C:/Users/Utente/Desktop/Tesi/Firmware_Software/DAVE project/S2GLP_Pulsed_Doppler/HostCommunication/inc\PayloadHelper.h ****  * which will be returned. If needed the byte order is swapped to convert from
 158:C:/Users/Utente/Desktop/Tesi/Firmware_Software/DAVE project/S2GLP_Pulsed_Doppler/HostCommunication/inc\PayloadHelper.h ****  * the payload's little endian format to the CPU's endian format.
 159:C:/Users/Utente/Desktop/Tesi/Firmware_Software/DAVE project/S2GLP_Pulsed_Doppler/HostCommunication/inc\PayloadHelper.h ****  *
 160:C:/Users/Utente/Desktop/Tesi/Firmware_Software/DAVE project/S2GLP_Pulsed_Doppler/HostCommunication/inc\PayloadHelper.h ****  * \param[in] payload  A pointer to a block of payload data.
 161:C:/Users/Utente/Desktop/Tesi/Firmware_Software/DAVE project/S2GLP_Pulsed_Doppler/HostCommunication/inc\PayloadHelper.h ****  * \param[in] offset   The byte position at which the requested data value
 162:C:/Users/Utente/Desktop/Tesi/Firmware_Software/DAVE project/S2GLP_Pulsed_Doppler/HostCommunication/inc\PayloadHelper.h ****  *                     starts.
 163:C:/Users/Utente/Desktop/Tesi/Firmware_Software/DAVE project/S2GLP_Pulsed_Doppler/HostCommunication/inc\PayloadHelper.h ****  *
 164:C:/Users/Utente/Desktop/Tesi/Firmware_Software/DAVE project/S2GLP_Pulsed_Doppler/HostCommunication/inc\PayloadHelper.h ****  * \return The function returns the value read from the payload.
 165:C:/Users/Utente/Desktop/Tesi/Firmware_Software/DAVE project/S2GLP_Pulsed_Doppler/HostCommunication/inc\PayloadHelper.h ****  */
 166:C:/Users/Utente/Desktop/Tesi/Firmware_Software/DAVE project/S2GLP_Pulsed_Doppler/HostCommunication/inc\PayloadHelper.h **** static inline uint32_t rd_payload_u32(const uint8_t* payload,
 167:C:/Users/Utente/Desktop/Tesi/Firmware_Software/DAVE project/S2GLP_Pulsed_Doppler/HostCommunication/inc\PayloadHelper.h **** 		size_t offset);
 168:C:/Users/Utente/Desktop/Tesi/Firmware_Software/DAVE project/S2GLP_Pulsed_Doppler/HostCommunication/inc\PayloadHelper.h **** 
 169:C:/Users/Utente/Desktop/Tesi/Firmware_Software/DAVE project/S2GLP_Pulsed_Doppler/HostCommunication/inc\PayloadHelper.h **** /**
 170:C:/Users/Utente/Desktop/Tesi/Firmware_Software/DAVE project/S2GLP_Pulsed_Doppler/HostCommunication/inc\PayloadHelper.h ****  * \internal
 171:C:/Users/Utente/Desktop/Tesi/Firmware_Software/DAVE project/S2GLP_Pulsed_Doppler/HostCommunication/inc\PayloadHelper.h ****  * \brief The function extracts a signed 64 bit integer from a payload buffer.
 172:C:/Users/Utente/Desktop/Tesi/Firmware_Software/DAVE project/S2GLP_Pulsed_Doppler/HostCommunication/inc\PayloadHelper.h ****  *
 173:C:/Users/Utente/Desktop/Tesi/Firmware_Software/DAVE project/S2GLP_Pulsed_Doppler/HostCommunication/inc\PayloadHelper.h ****  * The function reads four bytes from the given payload buffer starting at the
 174:C:/Users/Utente/Desktop/Tesi/Firmware_Software/DAVE project/S2GLP_Pulsed_Doppler/HostCommunication/inc\PayloadHelper.h ****  * requested position and interprets them as a signed 64 bit integer value,
 175:C:/Users/Utente/Desktop/Tesi/Firmware_Software/DAVE project/S2GLP_Pulsed_Doppler/HostCommunication/inc\PayloadHelper.h ****  * which will be returned. If needed the byte order is swapped to convert from
 176:C:/Users/Utente/Desktop/Tesi/Firmware_Software/DAVE project/S2GLP_Pulsed_Doppler/HostCommunication/inc\PayloadHelper.h ****  * the payload's little endian format to the CPU's endian format.
 177:C:/Users/Utente/Desktop/Tesi/Firmware_Software/DAVE project/S2GLP_Pulsed_Doppler/HostCommunication/inc\PayloadHelper.h ****  *
 178:C:/Users/Utente/Desktop/Tesi/Firmware_Software/DAVE project/S2GLP_Pulsed_Doppler/HostCommunication/inc\PayloadHelper.h ****  * \param[in] payload  A pointer to a block of payload data.
 179:C:/Users/Utente/Desktop/Tesi/Firmware_Software/DAVE project/S2GLP_Pulsed_Doppler/HostCommunication/inc\PayloadHelper.h ****  * \param[in] offset   The byte position at which the requested data value
 180:C:/Users/Utente/Desktop/Tesi/Firmware_Software/DAVE project/S2GLP_Pulsed_Doppler/HostCommunication/inc\PayloadHelper.h ****  *                     starts.
 181:C:/Users/Utente/Desktop/Tesi/Firmware_Software/DAVE project/S2GLP_Pulsed_Doppler/HostCommunication/inc\PayloadHelper.h ****  *
 182:C:/Users/Utente/Desktop/Tesi/Firmware_Software/DAVE project/S2GLP_Pulsed_Doppler/HostCommunication/inc\PayloadHelper.h ****  * \return The function returns the value read from the payload.
 183:C:/Users/Utente/Desktop/Tesi/Firmware_Software/DAVE project/S2GLP_Pulsed_Doppler/HostCommunication/inc\PayloadHelper.h ****  */
 184:C:/Users/Utente/Desktop/Tesi/Firmware_Software/DAVE project/S2GLP_Pulsed_Doppler/HostCommunication/inc\PayloadHelper.h **** static inline int64_t rd_payload_i64(const uint8_t* payload, size_t offset);
 185:C:/Users/Utente/Desktop/Tesi/Firmware_Software/DAVE project/S2GLP_Pulsed_Doppler/HostCommunication/inc\PayloadHelper.h **** 
 186:C:/Users/Utente/Desktop/Tesi/Firmware_Software/DAVE project/S2GLP_Pulsed_Doppler/HostCommunication/inc\PayloadHelper.h **** /**
 187:C:/Users/Utente/Desktop/Tesi/Firmware_Software/DAVE project/S2GLP_Pulsed_Doppler/HostCommunication/inc\PayloadHelper.h ****  * \internal
 188:C:/Users/Utente/Desktop/Tesi/Firmware_Software/DAVE project/S2GLP_Pulsed_Doppler/HostCommunication/inc\PayloadHelper.h ****  * \brief The function extracts an unsigned 64 bit integer from a payload
 189:C:/Users/Utente/Desktop/Tesi/Firmware_Software/DAVE project/S2GLP_Pulsed_Doppler/HostCommunication/inc\PayloadHelper.h ****  *        buffer.
 190:C:/Users/Utente/Desktop/Tesi/Firmware_Software/DAVE project/S2GLP_Pulsed_Doppler/HostCommunication/inc\PayloadHelper.h ****  *
 191:C:/Users/Utente/Desktop/Tesi/Firmware_Software/DAVE project/S2GLP_Pulsed_Doppler/HostCommunication/inc\PayloadHelper.h ****  * The function reads four bytes from the given payload buffer starting at the
 192:C:/Users/Utente/Desktop/Tesi/Firmware_Software/DAVE project/S2GLP_Pulsed_Doppler/HostCommunication/inc\PayloadHelper.h ****  * requested position and interprets them as an unsigned 64 bit integer value,
 193:C:/Users/Utente/Desktop/Tesi/Firmware_Software/DAVE project/S2GLP_Pulsed_Doppler/HostCommunication/inc\PayloadHelper.h ****  * which will be returned. If needed the byte order is swapped to convert from
 194:C:/Users/Utente/Desktop/Tesi/Firmware_Software/DAVE project/S2GLP_Pulsed_Doppler/HostCommunication/inc\PayloadHelper.h ****  * the payload's little endian format to the CPU's endian format.
 195:C:/Users/Utente/Desktop/Tesi/Firmware_Software/DAVE project/S2GLP_Pulsed_Doppler/HostCommunication/inc\PayloadHelper.h ****  *
 196:C:/Users/Utente/Desktop/Tesi/Firmware_Software/DAVE project/S2GLP_Pulsed_Doppler/HostCommunication/inc\PayloadHelper.h ****  * \param[in] payload  A pointer to a block of payload data.
 197:C:/Users/Utente/Desktop/Tesi/Firmware_Software/DAVE project/S2GLP_Pulsed_Doppler/HostCommunication/inc\PayloadHelper.h ****  * \param[in] offset   The byte position at which the requested data value
 198:C:/Users/Utente/Desktop/Tesi/Firmware_Software/DAVE project/S2GLP_Pulsed_Doppler/HostCommunication/inc\PayloadHelper.h ****  *                     starts.
 199:C:/Users/Utente/Desktop/Tesi/Firmware_Software/DAVE project/S2GLP_Pulsed_Doppler/HostCommunication/inc\PayloadHelper.h ****  *
 200:C:/Users/Utente/Desktop/Tesi/Firmware_Software/DAVE project/S2GLP_Pulsed_Doppler/HostCommunication/inc\PayloadHelper.h ****  * \return The function returns the value read from the payload.
 201:C:/Users/Utente/Desktop/Tesi/Firmware_Software/DAVE project/S2GLP_Pulsed_Doppler/HostCommunication/inc\PayloadHelper.h ****  */
 202:C:/Users/Utente/Desktop/Tesi/Firmware_Software/DAVE project/S2GLP_Pulsed_Doppler/HostCommunication/inc\PayloadHelper.h **** static inline uint64_t rd_payload_u64(const uint8_t* payload,
 203:C:/Users/Utente/Desktop/Tesi/Firmware_Software/DAVE project/S2GLP_Pulsed_Doppler/HostCommunication/inc\PayloadHelper.h **** 		size_t offset);
 204:C:/Users/Utente/Desktop/Tesi/Firmware_Software/DAVE project/S2GLP_Pulsed_Doppler/HostCommunication/inc\PayloadHelper.h **** 
 205:C:/Users/Utente/Desktop/Tesi/Firmware_Software/DAVE project/S2GLP_Pulsed_Doppler/HostCommunication/inc\PayloadHelper.h **** /**
 206:C:/Users/Utente/Desktop/Tesi/Firmware_Software/DAVE project/S2GLP_Pulsed_Doppler/HostCommunication/inc\PayloadHelper.h ****  * \internal
 207:C:/Users/Utente/Desktop/Tesi/Firmware_Software/DAVE project/S2GLP_Pulsed_Doppler/HostCommunication/inc\PayloadHelper.h ****  * \brief The function writes a signed 8 bit integer value to a payload
 208:C:/Users/Utente/Desktop/Tesi/Firmware_Software/DAVE project/S2GLP_Pulsed_Doppler/HostCommunication/inc\PayloadHelper.h ****  *        buffer.
 209:C:/Users/Utente/Desktop/Tesi/Firmware_Software/DAVE project/S2GLP_Pulsed_Doppler/HostCommunication/inc\PayloadHelper.h ****  *
 210:C:/Users/Utente/Desktop/Tesi/Firmware_Software/DAVE project/S2GLP_Pulsed_Doppler/HostCommunication/inc\PayloadHelper.h ****  * The function writes the given value into the given payload buffer at the
 211:C:/Users/Utente/Desktop/Tesi/Firmware_Software/DAVE project/S2GLP_Pulsed_Doppler/HostCommunication/inc\PayloadHelper.h ****  * requested position.
 212:C:/Users/Utente/Desktop/Tesi/Firmware_Software/DAVE project/S2GLP_Pulsed_Doppler/HostCommunication/inc\PayloadHelper.h ****  *
 213:C:/Users/Utente/Desktop/Tesi/Firmware_Software/DAVE project/S2GLP_Pulsed_Doppler/HostCommunication/inc\PayloadHelper.h ****  * \param[in] payload  A pointer to a block of payload data.
 214:C:/Users/Utente/Desktop/Tesi/Firmware_Software/DAVE project/S2GLP_Pulsed_Doppler/HostCommunication/inc\PayloadHelper.h ****  * \param[in] offset   The byte position at which the value will be written
 215:C:/Users/Utente/Desktop/Tesi/Firmware_Software/DAVE project/S2GLP_Pulsed_Doppler/HostCommunication/inc\PayloadHelper.h ****  *                     to.
 216:C:/Users/Utente/Desktop/Tesi/Firmware_Software/DAVE project/S2GLP_Pulsed_Doppler/HostCommunication/inc\PayloadHelper.h ****  * \param[in] value    The value to be written into the payload buffer.
 217:C:/Users/Utente/Desktop/Tesi/Firmware_Software/DAVE project/S2GLP_Pulsed_Doppler/HostCommunication/inc\PayloadHelper.h ****  */
 218:C:/Users/Utente/Desktop/Tesi/Firmware_Software/DAVE project/S2GLP_Pulsed_Doppler/HostCommunication/inc\PayloadHelper.h **** static inline size_t wr_payload_i8(uint8_t* payload, size_t offset,
 219:C:/Users/Utente/Desktop/Tesi/Firmware_Software/DAVE project/S2GLP_Pulsed_Doppler/HostCommunication/inc\PayloadHelper.h ****                                  int8_t value)
 220:C:/Users/Utente/Desktop/Tesi/Firmware_Software/DAVE project/S2GLP_Pulsed_Doppler/HostCommunication/inc\PayloadHelper.h **** {
 221:C:/Users/Utente/Desktop/Tesi/Firmware_Software/DAVE project/S2GLP_Pulsed_Doppler/HostCommunication/inc\PayloadHelper.h ****     payload[offset] = (uint8_t)value;
 222:C:/Users/Utente/Desktop/Tesi/Firmware_Software/DAVE project/S2GLP_Pulsed_Doppler/HostCommunication/inc\PayloadHelper.h ****     return sizeof(int8_t);
 223:C:/Users/Utente/Desktop/Tesi/Firmware_Software/DAVE project/S2GLP_Pulsed_Doppler/HostCommunication/inc\PayloadHelper.h **** }
 224:C:/Users/Utente/Desktop/Tesi/Firmware_Software/DAVE project/S2GLP_Pulsed_Doppler/HostCommunication/inc\PayloadHelper.h **** 
 225:C:/Users/Utente/Desktop/Tesi/Firmware_Software/DAVE project/S2GLP_Pulsed_Doppler/HostCommunication/inc\PayloadHelper.h **** /**
 226:C:/Users/Utente/Desktop/Tesi/Firmware_Software/DAVE project/S2GLP_Pulsed_Doppler/HostCommunication/inc\PayloadHelper.h ****  * \internal
 227:C:/Users/Utente/Desktop/Tesi/Firmware_Software/DAVE project/S2GLP_Pulsed_Doppler/HostCommunication/inc\PayloadHelper.h ****  * \brief The function writes an unsigned 8 bit integer value to a payload
 228:C:/Users/Utente/Desktop/Tesi/Firmware_Software/DAVE project/S2GLP_Pulsed_Doppler/HostCommunication/inc\PayloadHelper.h ****  *        buffer.
 229:C:/Users/Utente/Desktop/Tesi/Firmware_Software/DAVE project/S2GLP_Pulsed_Doppler/HostCommunication/inc\PayloadHelper.h ****  *
 230:C:/Users/Utente/Desktop/Tesi/Firmware_Software/DAVE project/S2GLP_Pulsed_Doppler/HostCommunication/inc\PayloadHelper.h ****  * The function writes the given value into the given payload buffer at the
 231:C:/Users/Utente/Desktop/Tesi/Firmware_Software/DAVE project/S2GLP_Pulsed_Doppler/HostCommunication/inc\PayloadHelper.h ****  * requested position.
 232:C:/Users/Utente/Desktop/Tesi/Firmware_Software/DAVE project/S2GLP_Pulsed_Doppler/HostCommunication/inc\PayloadHelper.h ****  *
 233:C:/Users/Utente/Desktop/Tesi/Firmware_Software/DAVE project/S2GLP_Pulsed_Doppler/HostCommunication/inc\PayloadHelper.h ****  * \param[in] payload  A pointer to a block of payload data.
 234:C:/Users/Utente/Desktop/Tesi/Firmware_Software/DAVE project/S2GLP_Pulsed_Doppler/HostCommunication/inc\PayloadHelper.h ****  * \param[in] offset   The byte position at which the value will be written
 235:C:/Users/Utente/Desktop/Tesi/Firmware_Software/DAVE project/S2GLP_Pulsed_Doppler/HostCommunication/inc\PayloadHelper.h ****  *                     to.
 236:C:/Users/Utente/Desktop/Tesi/Firmware_Software/DAVE project/S2GLP_Pulsed_Doppler/HostCommunication/inc\PayloadHelper.h ****  * \param[in] value    The value to be written into the payload buffer.
 237:C:/Users/Utente/Desktop/Tesi/Firmware_Software/DAVE project/S2GLP_Pulsed_Doppler/HostCommunication/inc\PayloadHelper.h ****  */
 238:C:/Users/Utente/Desktop/Tesi/Firmware_Software/DAVE project/S2GLP_Pulsed_Doppler/HostCommunication/inc\PayloadHelper.h **** static inline size_t wr_payload_u8(uint8_t* payload, size_t offset,
 239:C:/Users/Utente/Desktop/Tesi/Firmware_Software/DAVE project/S2GLP_Pulsed_Doppler/HostCommunication/inc\PayloadHelper.h ****                                  uint8_t value)
 240:C:/Users/Utente/Desktop/Tesi/Firmware_Software/DAVE project/S2GLP_Pulsed_Doppler/HostCommunication/inc\PayloadHelper.h **** {
 241:C:/Users/Utente/Desktop/Tesi/Firmware_Software/DAVE project/S2GLP_Pulsed_Doppler/HostCommunication/inc\PayloadHelper.h ****     payload[offset] = value;
  47              	 .loc 2 241 0
  48 0006 274D     	 ldr r5,.L3+4
  49              	.LBE97:
  50              	.LBE96:
  51              	 .loc 1 90 0
  52 0008 3368     	 ldr r3,[r6]
  53              	.LBB100:
  54              	.LBB101:
 242:C:/Users/Utente/Desktop/Tesi/Firmware_Software/DAVE project/S2GLP_Pulsed_Doppler/HostCommunication/inc\PayloadHelper.h ****     return sizeof(uint8_t);
 243:C:/Users/Utente/Desktop/Tesi/Firmware_Software/DAVE project/S2GLP_Pulsed_Doppler/HostCommunication/inc\PayloadHelper.h **** }
 244:C:/Users/Utente/Desktop/Tesi/Firmware_Software/DAVE project/S2GLP_Pulsed_Doppler/HostCommunication/inc\PayloadHelper.h **** 
 245:C:/Users/Utente/Desktop/Tesi/Firmware_Software/DAVE project/S2GLP_Pulsed_Doppler/HostCommunication/inc\PayloadHelper.h **** /**
 246:C:/Users/Utente/Desktop/Tesi/Firmware_Software/DAVE project/S2GLP_Pulsed_Doppler/HostCommunication/inc\PayloadHelper.h ****  * \internal
 247:C:/Users/Utente/Desktop/Tesi/Firmware_Software/DAVE project/S2GLP_Pulsed_Doppler/HostCommunication/inc\PayloadHelper.h ****  * \brief The function writes a signed 16 bit integer value to a payload
 248:C:/Users/Utente/Desktop/Tesi/Firmware_Software/DAVE project/S2GLP_Pulsed_Doppler/HostCommunication/inc\PayloadHelper.h ****  *        buffer.
 249:C:/Users/Utente/Desktop/Tesi/Firmware_Software/DAVE project/S2GLP_Pulsed_Doppler/HostCommunication/inc\PayloadHelper.h ****  *
 250:C:/Users/Utente/Desktop/Tesi/Firmware_Software/DAVE project/S2GLP_Pulsed_Doppler/HostCommunication/inc\PayloadHelper.h ****  * The function writes the given value into the given payload buffer at the
 251:C:/Users/Utente/Desktop/Tesi/Firmware_Software/DAVE project/S2GLP_Pulsed_Doppler/HostCommunication/inc\PayloadHelper.h ****  * requested position. If needed the byte order is swapped to convert from the
 252:C:/Users/Utente/Desktop/Tesi/Firmware_Software/DAVE project/S2GLP_Pulsed_Doppler/HostCommunication/inc\PayloadHelper.h ****  * payload's little endian format to the CPU's endian format.
 253:C:/Users/Utente/Desktop/Tesi/Firmware_Software/DAVE project/S2GLP_Pulsed_Doppler/HostCommunication/inc\PayloadHelper.h ****  *
 254:C:/Users/Utente/Desktop/Tesi/Firmware_Software/DAVE project/S2GLP_Pulsed_Doppler/HostCommunication/inc\PayloadHelper.h ****  * \param[in] payload  A pointer to a block of payload data.
 255:C:/Users/Utente/Desktop/Tesi/Firmware_Software/DAVE project/S2GLP_Pulsed_Doppler/HostCommunication/inc\PayloadHelper.h ****  * \param[in] offset   The byte position at which the value will be written
 256:C:/Users/Utente/Desktop/Tesi/Firmware_Software/DAVE project/S2GLP_Pulsed_Doppler/HostCommunication/inc\PayloadHelper.h ****  *                     to.
 257:C:/Users/Utente/Desktop/Tesi/Firmware_Software/DAVE project/S2GLP_Pulsed_Doppler/HostCommunication/inc\PayloadHelper.h ****  * \param[in] value    The value to be written into the payload buffer.
 258:C:/Users/Utente/Desktop/Tesi/Firmware_Software/DAVE project/S2GLP_Pulsed_Doppler/HostCommunication/inc\PayloadHelper.h ****  */
 259:C:/Users/Utente/Desktop/Tesi/Firmware_Software/DAVE project/S2GLP_Pulsed_Doppler/HostCommunication/inc\PayloadHelper.h **** static inline size_t wr_payload_i16(uint8_t* payload, size_t offset,
 260:C:/Users/Utente/Desktop/Tesi/Firmware_Software/DAVE project/S2GLP_Pulsed_Doppler/HostCommunication/inc\PayloadHelper.h ****                                   int16_t value);
 261:C:/Users/Utente/Desktop/Tesi/Firmware_Software/DAVE project/S2GLP_Pulsed_Doppler/HostCommunication/inc\PayloadHelper.h **** 
 262:C:/Users/Utente/Desktop/Tesi/Firmware_Software/DAVE project/S2GLP_Pulsed_Doppler/HostCommunication/inc\PayloadHelper.h **** /**
 263:C:/Users/Utente/Desktop/Tesi/Firmware_Software/DAVE project/S2GLP_Pulsed_Doppler/HostCommunication/inc\PayloadHelper.h ****  * \internal
 264:C:/Users/Utente/Desktop/Tesi/Firmware_Software/DAVE project/S2GLP_Pulsed_Doppler/HostCommunication/inc\PayloadHelper.h ****  * \brief The function writes an unsigned 16 bit integer value to a payload
 265:C:/Users/Utente/Desktop/Tesi/Firmware_Software/DAVE project/S2GLP_Pulsed_Doppler/HostCommunication/inc\PayloadHelper.h ****  *        buffer.
 266:C:/Users/Utente/Desktop/Tesi/Firmware_Software/DAVE project/S2GLP_Pulsed_Doppler/HostCommunication/inc\PayloadHelper.h ****  *
 267:C:/Users/Utente/Desktop/Tesi/Firmware_Software/DAVE project/S2GLP_Pulsed_Doppler/HostCommunication/inc\PayloadHelper.h ****  * The function writes the given value into the given payload buffer at the
 268:C:/Users/Utente/Desktop/Tesi/Firmware_Software/DAVE project/S2GLP_Pulsed_Doppler/HostCommunication/inc\PayloadHelper.h ****  * requested position. If needed the byte order is swapped to convert from the
 269:C:/Users/Utente/Desktop/Tesi/Firmware_Software/DAVE project/S2GLP_Pulsed_Doppler/HostCommunication/inc\PayloadHelper.h ****  * payload's little endian format to the CPU's endian format.
 270:C:/Users/Utente/Desktop/Tesi/Firmware_Software/DAVE project/S2GLP_Pulsed_Doppler/HostCommunication/inc\PayloadHelper.h ****  *
 271:C:/Users/Utente/Desktop/Tesi/Firmware_Software/DAVE project/S2GLP_Pulsed_Doppler/HostCommunication/inc\PayloadHelper.h ****  * \param[in] payload  A pointer to a block of payload data.
 272:C:/Users/Utente/Desktop/Tesi/Firmware_Software/DAVE project/S2GLP_Pulsed_Doppler/HostCommunication/inc\PayloadHelper.h ****  * \param[in] offset   The byte position at which the value will be written
 273:C:/Users/Utente/Desktop/Tesi/Firmware_Software/DAVE project/S2GLP_Pulsed_Doppler/HostCommunication/inc\PayloadHelper.h ****  *                     to.
 274:C:/Users/Utente/Desktop/Tesi/Firmware_Software/DAVE project/S2GLP_Pulsed_Doppler/HostCommunication/inc\PayloadHelper.h ****  * \param[in] value    The value to be written into the payload buffer.
 275:C:/Users/Utente/Desktop/Tesi/Firmware_Software/DAVE project/S2GLP_Pulsed_Doppler/HostCommunication/inc\PayloadHelper.h ****  */
 276:C:/Users/Utente/Desktop/Tesi/Firmware_Software/DAVE project/S2GLP_Pulsed_Doppler/HostCommunication/inc\PayloadHelper.h **** static inline size_t wr_payload_u16(uint8_t* payload, size_t offset,
 277:C:/Users/Utente/Desktop/Tesi/Firmware_Software/DAVE project/S2GLP_Pulsed_Doppler/HostCommunication/inc\PayloadHelper.h ****                                   uint16_t value);
 278:C:/Users/Utente/Desktop/Tesi/Firmware_Software/DAVE project/S2GLP_Pulsed_Doppler/HostCommunication/inc\PayloadHelper.h **** 
 279:C:/Users/Utente/Desktop/Tesi/Firmware_Software/DAVE project/S2GLP_Pulsed_Doppler/HostCommunication/inc\PayloadHelper.h **** /**
 280:C:/Users/Utente/Desktop/Tesi/Firmware_Software/DAVE project/S2GLP_Pulsed_Doppler/HostCommunication/inc\PayloadHelper.h ****  * \internal
 281:C:/Users/Utente/Desktop/Tesi/Firmware_Software/DAVE project/S2GLP_Pulsed_Doppler/HostCommunication/inc\PayloadHelper.h ****  * \brief The function writes a signed 32 bit integer value to a payload
 282:C:/Users/Utente/Desktop/Tesi/Firmware_Software/DAVE project/S2GLP_Pulsed_Doppler/HostCommunication/inc\PayloadHelper.h ****  *        buffer.
 283:C:/Users/Utente/Desktop/Tesi/Firmware_Software/DAVE project/S2GLP_Pulsed_Doppler/HostCommunication/inc\PayloadHelper.h ****  *
 284:C:/Users/Utente/Desktop/Tesi/Firmware_Software/DAVE project/S2GLP_Pulsed_Doppler/HostCommunication/inc\PayloadHelper.h ****  * The function writes the given value into the given payload buffer at the
 285:C:/Users/Utente/Desktop/Tesi/Firmware_Software/DAVE project/S2GLP_Pulsed_Doppler/HostCommunication/inc\PayloadHelper.h ****  * requested position. If needed the byte order is swapped to convert from the
 286:C:/Users/Utente/Desktop/Tesi/Firmware_Software/DAVE project/S2GLP_Pulsed_Doppler/HostCommunication/inc\PayloadHelper.h ****  * payload's little endian format to the CPU's endian format.
 287:C:/Users/Utente/Desktop/Tesi/Firmware_Software/DAVE project/S2GLP_Pulsed_Doppler/HostCommunication/inc\PayloadHelper.h ****  *
 288:C:/Users/Utente/Desktop/Tesi/Firmware_Software/DAVE project/S2GLP_Pulsed_Doppler/HostCommunication/inc\PayloadHelper.h ****  * \param[in] payload  A pointer to a block of payload data.
 289:C:/Users/Utente/Desktop/Tesi/Firmware_Software/DAVE project/S2GLP_Pulsed_Doppler/HostCommunication/inc\PayloadHelper.h ****  * \param[in] offset   The byte position at which the value will be written
 290:C:/Users/Utente/Desktop/Tesi/Firmware_Software/DAVE project/S2GLP_Pulsed_Doppler/HostCommunication/inc\PayloadHelper.h ****  *                     to.
 291:C:/Users/Utente/Desktop/Tesi/Firmware_Software/DAVE project/S2GLP_Pulsed_Doppler/HostCommunication/inc\PayloadHelper.h ****  * \param[in] value    The value to be written into the payload buffer.
 292:C:/Users/Utente/Desktop/Tesi/Firmware_Software/DAVE project/S2GLP_Pulsed_Doppler/HostCommunication/inc\PayloadHelper.h ****  */
 293:C:/Users/Utente/Desktop/Tesi/Firmware_Software/DAVE project/S2GLP_Pulsed_Doppler/HostCommunication/inc\PayloadHelper.h **** static inline size_t wr_payload_i32(uint8_t* payload, size_t offset,
 294:C:/Users/Utente/Desktop/Tesi/Firmware_Software/DAVE project/S2GLP_Pulsed_Doppler/HostCommunication/inc\PayloadHelper.h ****                                   int32_t value);
 295:C:/Users/Utente/Desktop/Tesi/Firmware_Software/DAVE project/S2GLP_Pulsed_Doppler/HostCommunication/inc\PayloadHelper.h **** 
 296:C:/Users/Utente/Desktop/Tesi/Firmware_Software/DAVE project/S2GLP_Pulsed_Doppler/HostCommunication/inc\PayloadHelper.h **** /**
 297:C:/Users/Utente/Desktop/Tesi/Firmware_Software/DAVE project/S2GLP_Pulsed_Doppler/HostCommunication/inc\PayloadHelper.h ****  * \internal
 298:C:/Users/Utente/Desktop/Tesi/Firmware_Software/DAVE project/S2GLP_Pulsed_Doppler/HostCommunication/inc\PayloadHelper.h ****  * \brief The function writes an unsigned 32 bit integer value to a payload
 299:C:/Users/Utente/Desktop/Tesi/Firmware_Software/DAVE project/S2GLP_Pulsed_Doppler/HostCommunication/inc\PayloadHelper.h ****  *        buffer.
 300:C:/Users/Utente/Desktop/Tesi/Firmware_Software/DAVE project/S2GLP_Pulsed_Doppler/HostCommunication/inc\PayloadHelper.h ****  *
 301:C:/Users/Utente/Desktop/Tesi/Firmware_Software/DAVE project/S2GLP_Pulsed_Doppler/HostCommunication/inc\PayloadHelper.h ****  * The function writes the given value into the given payload buffer at the
 302:C:/Users/Utente/Desktop/Tesi/Firmware_Software/DAVE project/S2GLP_Pulsed_Doppler/HostCommunication/inc\PayloadHelper.h ****  * requested position. If needed the byte order is swapped to convert from the
 303:C:/Users/Utente/Desktop/Tesi/Firmware_Software/DAVE project/S2GLP_Pulsed_Doppler/HostCommunication/inc\PayloadHelper.h ****  * payload's little endian format to the CPU's endian format.
 304:C:/Users/Utente/Desktop/Tesi/Firmware_Software/DAVE project/S2GLP_Pulsed_Doppler/HostCommunication/inc\PayloadHelper.h ****  *
 305:C:/Users/Utente/Desktop/Tesi/Firmware_Software/DAVE project/S2GLP_Pulsed_Doppler/HostCommunication/inc\PayloadHelper.h ****  * \param[in] payload  A pointer to a block of payload data.
 306:C:/Users/Utente/Desktop/Tesi/Firmware_Software/DAVE project/S2GLP_Pulsed_Doppler/HostCommunication/inc\PayloadHelper.h ****  * \param[in] offset   The byte position at which the value will be written
 307:C:/Users/Utente/Desktop/Tesi/Firmware_Software/DAVE project/S2GLP_Pulsed_Doppler/HostCommunication/inc\PayloadHelper.h ****  *                     to.
 308:C:/Users/Utente/Desktop/Tesi/Firmware_Software/DAVE project/S2GLP_Pulsed_Doppler/HostCommunication/inc\PayloadHelper.h ****  * \param[in] value    The value to be written into the payload buffer.
 309:C:/Users/Utente/Desktop/Tesi/Firmware_Software/DAVE project/S2GLP_Pulsed_Doppler/HostCommunication/inc\PayloadHelper.h ****  */
 310:C:/Users/Utente/Desktop/Tesi/Firmware_Software/DAVE project/S2GLP_Pulsed_Doppler/HostCommunication/inc\PayloadHelper.h **** static inline size_t wr_payload_u32(uint8_t* payload, size_t offset,
 311:C:/Users/Utente/Desktop/Tesi/Firmware_Software/DAVE project/S2GLP_Pulsed_Doppler/HostCommunication/inc\PayloadHelper.h ****                                   uint32_t value);
 312:C:/Users/Utente/Desktop/Tesi/Firmware_Software/DAVE project/S2GLP_Pulsed_Doppler/HostCommunication/inc\PayloadHelper.h **** 
 313:C:/Users/Utente/Desktop/Tesi/Firmware_Software/DAVE project/S2GLP_Pulsed_Doppler/HostCommunication/inc\PayloadHelper.h **** /**
 314:C:/Users/Utente/Desktop/Tesi/Firmware_Software/DAVE project/S2GLP_Pulsed_Doppler/HostCommunication/inc\PayloadHelper.h ****  * \internal
 315:C:/Users/Utente/Desktop/Tesi/Firmware_Software/DAVE project/S2GLP_Pulsed_Doppler/HostCommunication/inc\PayloadHelper.h ****  * \brief The function writes a signed 64 bit integer value to a payload
 316:C:/Users/Utente/Desktop/Tesi/Firmware_Software/DAVE project/S2GLP_Pulsed_Doppler/HostCommunication/inc\PayloadHelper.h ****  *        buffer.
 317:C:/Users/Utente/Desktop/Tesi/Firmware_Software/DAVE project/S2GLP_Pulsed_Doppler/HostCommunication/inc\PayloadHelper.h ****  *
 318:C:/Users/Utente/Desktop/Tesi/Firmware_Software/DAVE project/S2GLP_Pulsed_Doppler/HostCommunication/inc\PayloadHelper.h ****  * The function writes the given value into the given payload buffer at the
 319:C:/Users/Utente/Desktop/Tesi/Firmware_Software/DAVE project/S2GLP_Pulsed_Doppler/HostCommunication/inc\PayloadHelper.h ****  * requested position. If needed the byte order is swapped to convert from the
 320:C:/Users/Utente/Desktop/Tesi/Firmware_Software/DAVE project/S2GLP_Pulsed_Doppler/HostCommunication/inc\PayloadHelper.h ****  * payload's little endian format to the CPU's endian format.
 321:C:/Users/Utente/Desktop/Tesi/Firmware_Software/DAVE project/S2GLP_Pulsed_Doppler/HostCommunication/inc\PayloadHelper.h ****  *
 322:C:/Users/Utente/Desktop/Tesi/Firmware_Software/DAVE project/S2GLP_Pulsed_Doppler/HostCommunication/inc\PayloadHelper.h ****  * \param[in] payload  A pointer to a block of payload data.
 323:C:/Users/Utente/Desktop/Tesi/Firmware_Software/DAVE project/S2GLP_Pulsed_Doppler/HostCommunication/inc\PayloadHelper.h ****  * \param[in] offset   The byte position at which the value will be written
 324:C:/Users/Utente/Desktop/Tesi/Firmware_Software/DAVE project/S2GLP_Pulsed_Doppler/HostCommunication/inc\PayloadHelper.h ****  *                     to.
 325:C:/Users/Utente/Desktop/Tesi/Firmware_Software/DAVE project/S2GLP_Pulsed_Doppler/HostCommunication/inc\PayloadHelper.h ****  * \param[in] value    The value to be written into the payload buffer.
 326:C:/Users/Utente/Desktop/Tesi/Firmware_Software/DAVE project/S2GLP_Pulsed_Doppler/HostCommunication/inc\PayloadHelper.h ****  */
 327:C:/Users/Utente/Desktop/Tesi/Firmware_Software/DAVE project/S2GLP_Pulsed_Doppler/HostCommunication/inc\PayloadHelper.h **** static inline size_t wr_payload_i64(uint8_t* payload, size_t offset,
 328:C:/Users/Utente/Desktop/Tesi/Firmware_Software/DAVE project/S2GLP_Pulsed_Doppler/HostCommunication/inc\PayloadHelper.h ****                                   int64_t value);
 329:C:/Users/Utente/Desktop/Tesi/Firmware_Software/DAVE project/S2GLP_Pulsed_Doppler/HostCommunication/inc\PayloadHelper.h **** 
 330:C:/Users/Utente/Desktop/Tesi/Firmware_Software/DAVE project/S2GLP_Pulsed_Doppler/HostCommunication/inc\PayloadHelper.h **** /**
 331:C:/Users/Utente/Desktop/Tesi/Firmware_Software/DAVE project/S2GLP_Pulsed_Doppler/HostCommunication/inc\PayloadHelper.h ****  * \internal
 332:C:/Users/Utente/Desktop/Tesi/Firmware_Software/DAVE project/S2GLP_Pulsed_Doppler/HostCommunication/inc\PayloadHelper.h ****  * \brief The function writes an unsigned 64 bit integer value to a payload
 333:C:/Users/Utente/Desktop/Tesi/Firmware_Software/DAVE project/S2GLP_Pulsed_Doppler/HostCommunication/inc\PayloadHelper.h ****  *        buffer.
 334:C:/Users/Utente/Desktop/Tesi/Firmware_Software/DAVE project/S2GLP_Pulsed_Doppler/HostCommunication/inc\PayloadHelper.h ****  *
 335:C:/Users/Utente/Desktop/Tesi/Firmware_Software/DAVE project/S2GLP_Pulsed_Doppler/HostCommunication/inc\PayloadHelper.h ****  * The function writes the given value into the given payload buffer at the
 336:C:/Users/Utente/Desktop/Tesi/Firmware_Software/DAVE project/S2GLP_Pulsed_Doppler/HostCommunication/inc\PayloadHelper.h ****  * requested position. If needed the byte order is swapped to convert from the
 337:C:/Users/Utente/Desktop/Tesi/Firmware_Software/DAVE project/S2GLP_Pulsed_Doppler/HostCommunication/inc\PayloadHelper.h ****  * payload's little endian format to the CPU's endian format.
 338:C:/Users/Utente/Desktop/Tesi/Firmware_Software/DAVE project/S2GLP_Pulsed_Doppler/HostCommunication/inc\PayloadHelper.h ****  *
 339:C:/Users/Utente/Desktop/Tesi/Firmware_Software/DAVE project/S2GLP_Pulsed_Doppler/HostCommunication/inc\PayloadHelper.h ****  * \param[in] payload  A pointer to a block of payload data.
 340:C:/Users/Utente/Desktop/Tesi/Firmware_Software/DAVE project/S2GLP_Pulsed_Doppler/HostCommunication/inc\PayloadHelper.h ****  * \param[in] offset   The byte position at which the value will be written
 341:C:/Users/Utente/Desktop/Tesi/Firmware_Software/DAVE project/S2GLP_Pulsed_Doppler/HostCommunication/inc\PayloadHelper.h ****  *                     to.
 342:C:/Users/Utente/Desktop/Tesi/Firmware_Software/DAVE project/S2GLP_Pulsed_Doppler/HostCommunication/inc\PayloadHelper.h ****  * \param[in] value    The value to be written into the payload buffer.
 343:C:/Users/Utente/Desktop/Tesi/Firmware_Software/DAVE project/S2GLP_Pulsed_Doppler/HostCommunication/inc\PayloadHelper.h ****  */
 344:C:/Users/Utente/Desktop/Tesi/Firmware_Software/DAVE project/S2GLP_Pulsed_Doppler/HostCommunication/inc\PayloadHelper.h **** static inline size_t wr_payload_u64(uint8_t* payload, size_t offset,
 345:C:/Users/Utente/Desktop/Tesi/Firmware_Software/DAVE project/S2GLP_Pulsed_Doppler/HostCommunication/inc\PayloadHelper.h ****                                   uint64_t value);
 346:C:/Users/Utente/Desktop/Tesi/Firmware_Software/DAVE project/S2GLP_Pulsed_Doppler/HostCommunication/inc\PayloadHelper.h **** /*
 347:C:/Users/Utente/Desktop/Tesi/Firmware_Software/DAVE project/S2GLP_Pulsed_Doppler/HostCommunication/inc\PayloadHelper.h **** ==============================================================================
 348:C:/Users/Utente/Desktop/Tesi/Firmware_Software/DAVE project/S2GLP_Pulsed_Doppler/HostCommunication/inc\PayloadHelper.h ****    3. INLINE FUNCTIONS
 349:C:/Users/Utente/Desktop/Tesi/Firmware_Software/DAVE project/S2GLP_Pulsed_Doppler/HostCommunication/inc\PayloadHelper.h **** ==============================================================================
 350:C:/Users/Utente/Desktop/Tesi/Firmware_Software/DAVE project/S2GLP_Pulsed_Doppler/HostCommunication/inc\PayloadHelper.h ****  */
 351:C:/Users/Utente/Desktop/Tesi/Firmware_Software/DAVE project/S2GLP_Pulsed_Doppler/HostCommunication/inc\PayloadHelper.h **** #ifdef COMLIB_ALLOW_PAYLOAD_CASTS
 352:C:/Users/Utente/Desktop/Tesi/Firmware_Software/DAVE project/S2GLP_Pulsed_Doppler/HostCommunication/inc\PayloadHelper.h **** /*
 353:C:/Users/Utente/Desktop/Tesi/Firmware_Software/DAVE project/S2GLP_Pulsed_Doppler/HostCommunication/inc\PayloadHelper.h ****  * The following function implementations wan only be used on machines with
 354:C:/Users/Utente/Desktop/Tesi/Firmware_Software/DAVE project/S2GLP_Pulsed_Doppler/HostCommunication/inc\PayloadHelper.h ****  * little endian CPUs, but are faster than the generic implementations.
 355:C:/Users/Utente/Desktop/Tesi/Firmware_Software/DAVE project/S2GLP_Pulsed_Doppler/HostCommunication/inc\PayloadHelper.h ****  */
 356:C:/Users/Utente/Desktop/Tesi/Firmware_Software/DAVE project/S2GLP_Pulsed_Doppler/HostCommunication/inc\PayloadHelper.h **** 
 357:C:/Users/Utente/Desktop/Tesi/Firmware_Software/DAVE project/S2GLP_Pulsed_Doppler/HostCommunication/inc\PayloadHelper.h **** static inline int16_t rd_payload_i16(const uint8_t* payload, uint16_t offset)
 358:C:/Users/Utente/Desktop/Tesi/Firmware_Software/DAVE project/S2GLP_Pulsed_Doppler/HostCommunication/inc\PayloadHelper.h **** {
 359:C:/Users/Utente/Desktop/Tesi/Firmware_Software/DAVE project/S2GLP_Pulsed_Doppler/HostCommunication/inc\PayloadHelper.h ****     return *(int16_t*)(payload + offset);
 360:C:/Users/Utente/Desktop/Tesi/Firmware_Software/DAVE project/S2GLP_Pulsed_Doppler/HostCommunication/inc\PayloadHelper.h **** }
 361:C:/Users/Utente/Desktop/Tesi/Firmware_Software/DAVE project/S2GLP_Pulsed_Doppler/HostCommunication/inc\PayloadHelper.h **** 
 362:C:/Users/Utente/Desktop/Tesi/Firmware_Software/DAVE project/S2GLP_Pulsed_Doppler/HostCommunication/inc\PayloadHelper.h **** static inline uint16_t rd_payload_u16(const uint8_t* payload, uint16_t offset)
 363:C:/Users/Utente/Desktop/Tesi/Firmware_Software/DAVE project/S2GLP_Pulsed_Doppler/HostCommunication/inc\PayloadHelper.h **** {
 364:C:/Users/Utente/Desktop/Tesi/Firmware_Software/DAVE project/S2GLP_Pulsed_Doppler/HostCommunication/inc\PayloadHelper.h ****     return *(uint16_t*)(payload + offset);
 365:C:/Users/Utente/Desktop/Tesi/Firmware_Software/DAVE project/S2GLP_Pulsed_Doppler/HostCommunication/inc\PayloadHelper.h **** }
 366:C:/Users/Utente/Desktop/Tesi/Firmware_Software/DAVE project/S2GLP_Pulsed_Doppler/HostCommunication/inc\PayloadHelper.h **** 
 367:C:/Users/Utente/Desktop/Tesi/Firmware_Software/DAVE project/S2GLP_Pulsed_Doppler/HostCommunication/inc\PayloadHelper.h **** static inline int32_t rd_payload_i32(const uint8_t* payload, uint16_t offset)
 368:C:/Users/Utente/Desktop/Tesi/Firmware_Software/DAVE project/S2GLP_Pulsed_Doppler/HostCommunication/inc\PayloadHelper.h **** {
 369:C:/Users/Utente/Desktop/Tesi/Firmware_Software/DAVE project/S2GLP_Pulsed_Doppler/HostCommunication/inc\PayloadHelper.h ****     return *(int32_t*)(payload + offset);
 370:C:/Users/Utente/Desktop/Tesi/Firmware_Software/DAVE project/S2GLP_Pulsed_Doppler/HostCommunication/inc\PayloadHelper.h **** }
 371:C:/Users/Utente/Desktop/Tesi/Firmware_Software/DAVE project/S2GLP_Pulsed_Doppler/HostCommunication/inc\PayloadHelper.h **** 
 372:C:/Users/Utente/Desktop/Tesi/Firmware_Software/DAVE project/S2GLP_Pulsed_Doppler/HostCommunication/inc\PayloadHelper.h **** static inline uint32_t rd_payload_u32(const uint8_t* payload, uint16_t offset)
 373:C:/Users/Utente/Desktop/Tesi/Firmware_Software/DAVE project/S2GLP_Pulsed_Doppler/HostCommunication/inc\PayloadHelper.h **** {
 374:C:/Users/Utente/Desktop/Tesi/Firmware_Software/DAVE project/S2GLP_Pulsed_Doppler/HostCommunication/inc\PayloadHelper.h ****     return *(uint32_t*)(payload + offset);
 375:C:/Users/Utente/Desktop/Tesi/Firmware_Software/DAVE project/S2GLP_Pulsed_Doppler/HostCommunication/inc\PayloadHelper.h **** }
 376:C:/Users/Utente/Desktop/Tesi/Firmware_Software/DAVE project/S2GLP_Pulsed_Doppler/HostCommunication/inc\PayloadHelper.h **** 
 377:C:/Users/Utente/Desktop/Tesi/Firmware_Software/DAVE project/S2GLP_Pulsed_Doppler/HostCommunication/inc\PayloadHelper.h **** static inline int64_t rd_payload_i64(const uint8_t* payload, uint16_t offset)
 378:C:/Users/Utente/Desktop/Tesi/Firmware_Software/DAVE project/S2GLP_Pulsed_Doppler/HostCommunication/inc\PayloadHelper.h **** {
 379:C:/Users/Utente/Desktop/Tesi/Firmware_Software/DAVE project/S2GLP_Pulsed_Doppler/HostCommunication/inc\PayloadHelper.h ****     union
 380:C:/Users/Utente/Desktop/Tesi/Firmware_Software/DAVE project/S2GLP_Pulsed_Doppler/HostCommunication/inc\PayloadHelper.h ****     {
 381:C:/Users/Utente/Desktop/Tesi/Firmware_Software/DAVE project/S2GLP_Pulsed_Doppler/HostCommunication/inc\PayloadHelper.h ****         uint32_t u32[2];
 382:C:/Users/Utente/Desktop/Tesi/Firmware_Software/DAVE project/S2GLP_Pulsed_Doppler/HostCommunication/inc\PayloadHelper.h ****         int64_t i64;
 383:C:/Users/Utente/Desktop/Tesi/Firmware_Software/DAVE project/S2GLP_Pulsed_Doppler/HostCommunication/inc\PayloadHelper.h ****     } value;
 384:C:/Users/Utente/Desktop/Tesi/Firmware_Software/DAVE project/S2GLP_Pulsed_Doppler/HostCommunication/inc\PayloadHelper.h ****     value.u32[0] = *(uint32_t*)(payload + offset);
 385:C:/Users/Utente/Desktop/Tesi/Firmware_Software/DAVE project/S2GLP_Pulsed_Doppler/HostCommunication/inc\PayloadHelper.h ****     value.u32[1] = *(uint32_t*)(payload + offset + 4);
 386:C:/Users/Utente/Desktop/Tesi/Firmware_Software/DAVE project/S2GLP_Pulsed_Doppler/HostCommunication/inc\PayloadHelper.h **** 
 387:C:/Users/Utente/Desktop/Tesi/Firmware_Software/DAVE project/S2GLP_Pulsed_Doppler/HostCommunication/inc\PayloadHelper.h ****     return value.i64;
 388:C:/Users/Utente/Desktop/Tesi/Firmware_Software/DAVE project/S2GLP_Pulsed_Doppler/HostCommunication/inc\PayloadHelper.h **** }
 389:C:/Users/Utente/Desktop/Tesi/Firmware_Software/DAVE project/S2GLP_Pulsed_Doppler/HostCommunication/inc\PayloadHelper.h **** 
 390:C:/Users/Utente/Desktop/Tesi/Firmware_Software/DAVE project/S2GLP_Pulsed_Doppler/HostCommunication/inc\PayloadHelper.h **** static inline uint64_t rd_payload_u64(const uint8_t* payload, uint16_t offset)
 391:C:/Users/Utente/Desktop/Tesi/Firmware_Software/DAVE project/S2GLP_Pulsed_Doppler/HostCommunication/inc\PayloadHelper.h **** {
 392:C:/Users/Utente/Desktop/Tesi/Firmware_Software/DAVE project/S2GLP_Pulsed_Doppler/HostCommunication/inc\PayloadHelper.h ****     union
 393:C:/Users/Utente/Desktop/Tesi/Firmware_Software/DAVE project/S2GLP_Pulsed_Doppler/HostCommunication/inc\PayloadHelper.h ****     {
 394:C:/Users/Utente/Desktop/Tesi/Firmware_Software/DAVE project/S2GLP_Pulsed_Doppler/HostCommunication/inc\PayloadHelper.h ****         uint32_t u32[2];
 395:C:/Users/Utente/Desktop/Tesi/Firmware_Software/DAVE project/S2GLP_Pulsed_Doppler/HostCommunication/inc\PayloadHelper.h ****         uint64_t u64;
 396:C:/Users/Utente/Desktop/Tesi/Firmware_Software/DAVE project/S2GLP_Pulsed_Doppler/HostCommunication/inc\PayloadHelper.h ****     } value;
 397:C:/Users/Utente/Desktop/Tesi/Firmware_Software/DAVE project/S2GLP_Pulsed_Doppler/HostCommunication/inc\PayloadHelper.h ****     value.u32[0] = *(uint32_t*)(payload + offset);
 398:C:/Users/Utente/Desktop/Tesi/Firmware_Software/DAVE project/S2GLP_Pulsed_Doppler/HostCommunication/inc\PayloadHelper.h ****     value.u32[1] = *(uint32_t*)(payload + offset + 4);
 399:C:/Users/Utente/Desktop/Tesi/Firmware_Software/DAVE project/S2GLP_Pulsed_Doppler/HostCommunication/inc\PayloadHelper.h **** 
 400:C:/Users/Utente/Desktop/Tesi/Firmware_Software/DAVE project/S2GLP_Pulsed_Doppler/HostCommunication/inc\PayloadHelper.h ****     return value.u64;
 401:C:/Users/Utente/Desktop/Tesi/Firmware_Software/DAVE project/S2GLP_Pulsed_Doppler/HostCommunication/inc\PayloadHelper.h **** }
 402:C:/Users/Utente/Desktop/Tesi/Firmware_Software/DAVE project/S2GLP_Pulsed_Doppler/HostCommunication/inc\PayloadHelper.h **** 
 403:C:/Users/Utente/Desktop/Tesi/Firmware_Software/DAVE project/S2GLP_Pulsed_Doppler/HostCommunication/inc\PayloadHelper.h **** static inline void wr_payload_i16(uint8_t* payload, uint16_t offset,
 404:C:/Users/Utente/Desktop/Tesi/Firmware_Software/DAVE project/S2GLP_Pulsed_Doppler/HostCommunication/inc\PayloadHelper.h ****                                   int16_t iValue)
 405:C:/Users/Utente/Desktop/Tesi/Firmware_Software/DAVE project/S2GLP_Pulsed_Doppler/HostCommunication/inc\PayloadHelper.h **** {
 406:C:/Users/Utente/Desktop/Tesi/Firmware_Software/DAVE project/S2GLP_Pulsed_Doppler/HostCommunication/inc\PayloadHelper.h ****     *(int16_t*)(payload + offset) = iValue;
 407:C:/Users/Utente/Desktop/Tesi/Firmware_Software/DAVE project/S2GLP_Pulsed_Doppler/HostCommunication/inc\PayloadHelper.h **** }
 408:C:/Users/Utente/Desktop/Tesi/Firmware_Software/DAVE project/S2GLP_Pulsed_Doppler/HostCommunication/inc\PayloadHelper.h **** 
 409:C:/Users/Utente/Desktop/Tesi/Firmware_Software/DAVE project/S2GLP_Pulsed_Doppler/HostCommunication/inc\PayloadHelper.h **** static inline void wr_payload_u16(uint8_t* payload, uint16_t offset,
 410:C:/Users/Utente/Desktop/Tesi/Firmware_Software/DAVE project/S2GLP_Pulsed_Doppler/HostCommunication/inc\PayloadHelper.h ****                                   uint16_t value)
 411:C:/Users/Utente/Desktop/Tesi/Firmware_Software/DAVE project/S2GLP_Pulsed_Doppler/HostCommunication/inc\PayloadHelper.h **** {
 412:C:/Users/Utente/Desktop/Tesi/Firmware_Software/DAVE project/S2GLP_Pulsed_Doppler/HostCommunication/inc\PayloadHelper.h ****     *(uint16_t*)(payload + offset) = value;
 413:C:/Users/Utente/Desktop/Tesi/Firmware_Software/DAVE project/S2GLP_Pulsed_Doppler/HostCommunication/inc\PayloadHelper.h **** }
 414:C:/Users/Utente/Desktop/Tesi/Firmware_Software/DAVE project/S2GLP_Pulsed_Doppler/HostCommunication/inc\PayloadHelper.h **** 
 415:C:/Users/Utente/Desktop/Tesi/Firmware_Software/DAVE project/S2GLP_Pulsed_Doppler/HostCommunication/inc\PayloadHelper.h **** static inline void wr_payload_i32(uint8_t* payload, uint16_t offset,
 416:C:/Users/Utente/Desktop/Tesi/Firmware_Software/DAVE project/S2GLP_Pulsed_Doppler/HostCommunication/inc\PayloadHelper.h ****                                   int32_t value)
 417:C:/Users/Utente/Desktop/Tesi/Firmware_Software/DAVE project/S2GLP_Pulsed_Doppler/HostCommunication/inc\PayloadHelper.h **** {
 418:C:/Users/Utente/Desktop/Tesi/Firmware_Software/DAVE project/S2GLP_Pulsed_Doppler/HostCommunication/inc\PayloadHelper.h ****     *(int32_t*)(payload + offset) = value;
 419:C:/Users/Utente/Desktop/Tesi/Firmware_Software/DAVE project/S2GLP_Pulsed_Doppler/HostCommunication/inc\PayloadHelper.h **** }
 420:C:/Users/Utente/Desktop/Tesi/Firmware_Software/DAVE project/S2GLP_Pulsed_Doppler/HostCommunication/inc\PayloadHelper.h **** 
 421:C:/Users/Utente/Desktop/Tesi/Firmware_Software/DAVE project/S2GLP_Pulsed_Doppler/HostCommunication/inc\PayloadHelper.h **** static inline void wr_payload_u32(uint8_t* payload, uint16_t offset,
 422:C:/Users/Utente/Desktop/Tesi/Firmware_Software/DAVE project/S2GLP_Pulsed_Doppler/HostCommunication/inc\PayloadHelper.h ****                                   uint32_t value)
 423:C:/Users/Utente/Desktop/Tesi/Firmware_Software/DAVE project/S2GLP_Pulsed_Doppler/HostCommunication/inc\PayloadHelper.h **** {
 424:C:/Users/Utente/Desktop/Tesi/Firmware_Software/DAVE project/S2GLP_Pulsed_Doppler/HostCommunication/inc\PayloadHelper.h ****     *(uint32_t*)(payload + offset) = value;
 425:C:/Users/Utente/Desktop/Tesi/Firmware_Software/DAVE project/S2GLP_Pulsed_Doppler/HostCommunication/inc\PayloadHelper.h **** }
 426:C:/Users/Utente/Desktop/Tesi/Firmware_Software/DAVE project/S2GLP_Pulsed_Doppler/HostCommunication/inc\PayloadHelper.h **** 
 427:C:/Users/Utente/Desktop/Tesi/Firmware_Software/DAVE project/S2GLP_Pulsed_Doppler/HostCommunication/inc\PayloadHelper.h **** static inline void wr_payload_i64(uint8_t* payload, uint16_t offset,
 428:C:/Users/Utente/Desktop/Tesi/Firmware_Software/DAVE project/S2GLP_Pulsed_Doppler/HostCommunication/inc\PayloadHelper.h ****                                   int64_t value)
 429:C:/Users/Utente/Desktop/Tesi/Firmware_Software/DAVE project/S2GLP_Pulsed_Doppler/HostCommunication/inc\PayloadHelper.h **** {
 430:C:/Users/Utente/Desktop/Tesi/Firmware_Software/DAVE project/S2GLP_Pulsed_Doppler/HostCommunication/inc\PayloadHelper.h ****     union
 431:C:/Users/Utente/Desktop/Tesi/Firmware_Software/DAVE project/S2GLP_Pulsed_Doppler/HostCommunication/inc\PayloadHelper.h ****     {
 432:C:/Users/Utente/Desktop/Tesi/Firmware_Software/DAVE project/S2GLP_Pulsed_Doppler/HostCommunication/inc\PayloadHelper.h ****         uint32_t u32[2];
 433:C:/Users/Utente/Desktop/Tesi/Firmware_Software/DAVE project/S2GLP_Pulsed_Doppler/HostCommunication/inc\PayloadHelper.h ****         int64_t i64;
 434:C:/Users/Utente/Desktop/Tesi/Firmware_Software/DAVE project/S2GLP_Pulsed_Doppler/HostCommunication/inc\PayloadHelper.h ****     } value_;
 435:C:/Users/Utente/Desktop/Tesi/Firmware_Software/DAVE project/S2GLP_Pulsed_Doppler/HostCommunication/inc\PayloadHelper.h ****     value_.i64 = value;
 436:C:/Users/Utente/Desktop/Tesi/Firmware_Software/DAVE project/S2GLP_Pulsed_Doppler/HostCommunication/inc\PayloadHelper.h ****     *(uint32_t*)(payload + offset)     = value_.u32[0];
 437:C:/Users/Utente/Desktop/Tesi/Firmware_Software/DAVE project/S2GLP_Pulsed_Doppler/HostCommunication/inc\PayloadHelper.h ****     *(uint32_t*)(payload + offset + 4) = value_.u32[1];
 438:C:/Users/Utente/Desktop/Tesi/Firmware_Software/DAVE project/S2GLP_Pulsed_Doppler/HostCommunication/inc\PayloadHelper.h **** }
 439:C:/Users/Utente/Desktop/Tesi/Firmware_Software/DAVE project/S2GLP_Pulsed_Doppler/HostCommunication/inc\PayloadHelper.h **** 
 440:C:/Users/Utente/Desktop/Tesi/Firmware_Software/DAVE project/S2GLP_Pulsed_Doppler/HostCommunication/inc\PayloadHelper.h **** static inline void wr_payload_u64(uint8_t* payload, uint16_t offset,
 441:C:/Users/Utente/Desktop/Tesi/Firmware_Software/DAVE project/S2GLP_Pulsed_Doppler/HostCommunication/inc\PayloadHelper.h ****                                   uint64_t value)
 442:C:/Users/Utente/Desktop/Tesi/Firmware_Software/DAVE project/S2GLP_Pulsed_Doppler/HostCommunication/inc\PayloadHelper.h **** {
 443:C:/Users/Utente/Desktop/Tesi/Firmware_Software/DAVE project/S2GLP_Pulsed_Doppler/HostCommunication/inc\PayloadHelper.h ****     union
 444:C:/Users/Utente/Desktop/Tesi/Firmware_Software/DAVE project/S2GLP_Pulsed_Doppler/HostCommunication/inc\PayloadHelper.h ****     {
 445:C:/Users/Utente/Desktop/Tesi/Firmware_Software/DAVE project/S2GLP_Pulsed_Doppler/HostCommunication/inc\PayloadHelper.h ****         uint32_t u32[2];
 446:C:/Users/Utente/Desktop/Tesi/Firmware_Software/DAVE project/S2GLP_Pulsed_Doppler/HostCommunication/inc\PayloadHelper.h ****         uint64_t u64;
 447:C:/Users/Utente/Desktop/Tesi/Firmware_Software/DAVE project/S2GLP_Pulsed_Doppler/HostCommunication/inc\PayloadHelper.h ****     } value_;
 448:C:/Users/Utente/Desktop/Tesi/Firmware_Software/DAVE project/S2GLP_Pulsed_Doppler/HostCommunication/inc\PayloadHelper.h ****     value_.u64 = value;
 449:C:/Users/Utente/Desktop/Tesi/Firmware_Software/DAVE project/S2GLP_Pulsed_Doppler/HostCommunication/inc\PayloadHelper.h ****     *(uint32_t*)(payload + offset)     = value_.u32[0];
 450:C:/Users/Utente/Desktop/Tesi/Firmware_Software/DAVE project/S2GLP_Pulsed_Doppler/HostCommunication/inc\PayloadHelper.h ****     *(uint32_t*)(payload + offset + 4) = value_.u32[1];
 451:C:/Users/Utente/Desktop/Tesi/Firmware_Software/DAVE project/S2GLP_Pulsed_Doppler/HostCommunication/inc\PayloadHelper.h **** }
 452:C:/Users/Utente/Desktop/Tesi/Firmware_Software/DAVE project/S2GLP_Pulsed_Doppler/HostCommunication/inc\PayloadHelper.h **** 
 453:C:/Users/Utente/Desktop/Tesi/Firmware_Software/DAVE project/S2GLP_Pulsed_Doppler/HostCommunication/inc\PayloadHelper.h **** /*
 454:C:/Users/Utente/Desktop/Tesi/Firmware_Software/DAVE project/S2GLP_Pulsed_Doppler/HostCommunication/inc\PayloadHelper.h **** ==============================================================================
 455:C:/Users/Utente/Desktop/Tesi/Firmware_Software/DAVE project/S2GLP_Pulsed_Doppler/HostCommunication/inc\PayloadHelper.h ****    4. INLINE FUNCTIONS
 456:C:/Users/Utente/Desktop/Tesi/Firmware_Software/DAVE project/S2GLP_Pulsed_Doppler/HostCommunication/inc\PayloadHelper.h **** ==============================================================================
 457:C:/Users/Utente/Desktop/Tesi/Firmware_Software/DAVE project/S2GLP_Pulsed_Doppler/HostCommunication/inc\PayloadHelper.h ****  */
 458:C:/Users/Utente/Desktop/Tesi/Firmware_Software/DAVE project/S2GLP_Pulsed_Doppler/HostCommunication/inc\PayloadHelper.h **** #else
 459:C:/Users/Utente/Desktop/Tesi/Firmware_Software/DAVE project/S2GLP_Pulsed_Doppler/HostCommunication/inc\PayloadHelper.h **** /*
 460:C:/Users/Utente/Desktop/Tesi/Firmware_Software/DAVE project/S2GLP_Pulsed_Doppler/HostCommunication/inc\PayloadHelper.h ****  * The following function implementations are safe on any platform, but slower
 461:C:/Users/Utente/Desktop/Tesi/Firmware_Software/DAVE project/S2GLP_Pulsed_Doppler/HostCommunication/inc\PayloadHelper.h ****  * than the native little endian implementations.
 462:C:/Users/Utente/Desktop/Tesi/Firmware_Software/DAVE project/S2GLP_Pulsed_Doppler/HostCommunication/inc\PayloadHelper.h ****  */
 463:C:/Users/Utente/Desktop/Tesi/Firmware_Software/DAVE project/S2GLP_Pulsed_Doppler/HostCommunication/inc\PayloadHelper.h **** 
 464:C:/Users/Utente/Desktop/Tesi/Firmware_Software/DAVE project/S2GLP_Pulsed_Doppler/HostCommunication/inc\PayloadHelper.h **** static inline int16_t rd_payload_i16(const uint8_t* payload, size_t offset)
 465:C:/Users/Utente/Desktop/Tesi/Firmware_Software/DAVE project/S2GLP_Pulsed_Doppler/HostCommunication/inc\PayloadHelper.h **** {
 466:C:/Users/Utente/Desktop/Tesi/Firmware_Software/DAVE project/S2GLP_Pulsed_Doppler/HostCommunication/inc\PayloadHelper.h ****     return (int16_t)((((uint16_t)payload[offset + 1]) <<  8) |
 467:C:/Users/Utente/Desktop/Tesi/Firmware_Software/DAVE project/S2GLP_Pulsed_Doppler/HostCommunication/inc\PayloadHelper.h ****                       ((uint16_t)payload[offset    ]));
 468:C:/Users/Utente/Desktop/Tesi/Firmware_Software/DAVE project/S2GLP_Pulsed_Doppler/HostCommunication/inc\PayloadHelper.h **** }
 469:C:/Users/Utente/Desktop/Tesi/Firmware_Software/DAVE project/S2GLP_Pulsed_Doppler/HostCommunication/inc\PayloadHelper.h **** 
 470:C:/Users/Utente/Desktop/Tesi/Firmware_Software/DAVE project/S2GLP_Pulsed_Doppler/HostCommunication/inc\PayloadHelper.h **** static inline uint16_t rd_payload_u16(const uint8_t* payload, size_t offset)
 471:C:/Users/Utente/Desktop/Tesi/Firmware_Software/DAVE project/S2GLP_Pulsed_Doppler/HostCommunication/inc\PayloadHelper.h **** {
 472:C:/Users/Utente/Desktop/Tesi/Firmware_Software/DAVE project/S2GLP_Pulsed_Doppler/HostCommunication/inc\PayloadHelper.h ****     return (((uint16_t)payload[offset + 1]) <<  8) |
 473:C:/Users/Utente/Desktop/Tesi/Firmware_Software/DAVE project/S2GLP_Pulsed_Doppler/HostCommunication/inc\PayloadHelper.h ****             ((uint16_t)payload[offset    ]);
 474:C:/Users/Utente/Desktop/Tesi/Firmware_Software/DAVE project/S2GLP_Pulsed_Doppler/HostCommunication/inc\PayloadHelper.h **** }
 475:C:/Users/Utente/Desktop/Tesi/Firmware_Software/DAVE project/S2GLP_Pulsed_Doppler/HostCommunication/inc\PayloadHelper.h **** 
 476:C:/Users/Utente/Desktop/Tesi/Firmware_Software/DAVE project/S2GLP_Pulsed_Doppler/HostCommunication/inc\PayloadHelper.h **** static inline int32_t rd_payload_i32(const uint8_t* payload, size_t offset)
 477:C:/Users/Utente/Desktop/Tesi/Firmware_Software/DAVE project/S2GLP_Pulsed_Doppler/HostCommunication/inc\PayloadHelper.h **** {
 478:C:/Users/Utente/Desktop/Tesi/Firmware_Software/DAVE project/S2GLP_Pulsed_Doppler/HostCommunication/inc\PayloadHelper.h ****     return (int32_t)((((uint32_t)payload[offset + 3]) << 24) |
 479:C:/Users/Utente/Desktop/Tesi/Firmware_Software/DAVE project/S2GLP_Pulsed_Doppler/HostCommunication/inc\PayloadHelper.h ****                      (((uint32_t)payload[offset + 2]) << 16) |
 480:C:/Users/Utente/Desktop/Tesi/Firmware_Software/DAVE project/S2GLP_Pulsed_Doppler/HostCommunication/inc\PayloadHelper.h ****                      (((uint32_t)payload[offset + 1]) <<  8) |
 481:C:/Users/Utente/Desktop/Tesi/Firmware_Software/DAVE project/S2GLP_Pulsed_Doppler/HostCommunication/inc\PayloadHelper.h ****                       ((uint32_t)payload[offset    ]));
 482:C:/Users/Utente/Desktop/Tesi/Firmware_Software/DAVE project/S2GLP_Pulsed_Doppler/HostCommunication/inc\PayloadHelper.h **** }
 483:C:/Users/Utente/Desktop/Tesi/Firmware_Software/DAVE project/S2GLP_Pulsed_Doppler/HostCommunication/inc\PayloadHelper.h **** 
 484:C:/Users/Utente/Desktop/Tesi/Firmware_Software/DAVE project/S2GLP_Pulsed_Doppler/HostCommunication/inc\PayloadHelper.h **** static inline uint32_t rd_payload_u32(const uint8_t* payload, size_t offset)
 485:C:/Users/Utente/Desktop/Tesi/Firmware_Software/DAVE project/S2GLP_Pulsed_Doppler/HostCommunication/inc\PayloadHelper.h **** {
 486:C:/Users/Utente/Desktop/Tesi/Firmware_Software/DAVE project/S2GLP_Pulsed_Doppler/HostCommunication/inc\PayloadHelper.h ****     return (((uint32_t)payload[offset + 3]) << 24) |
 487:C:/Users/Utente/Desktop/Tesi/Firmware_Software/DAVE project/S2GLP_Pulsed_Doppler/HostCommunication/inc\PayloadHelper.h ****            (((uint32_t)payload[offset + 2]) << 16) |
 488:C:/Users/Utente/Desktop/Tesi/Firmware_Software/DAVE project/S2GLP_Pulsed_Doppler/HostCommunication/inc\PayloadHelper.h ****            (((uint32_t)payload[offset + 1]) <<  8) |
 489:C:/Users/Utente/Desktop/Tesi/Firmware_Software/DAVE project/S2GLP_Pulsed_Doppler/HostCommunication/inc\PayloadHelper.h ****             ((uint32_t)payload[offset    ]);
 490:C:/Users/Utente/Desktop/Tesi/Firmware_Software/DAVE project/S2GLP_Pulsed_Doppler/HostCommunication/inc\PayloadHelper.h **** }
 491:C:/Users/Utente/Desktop/Tesi/Firmware_Software/DAVE project/S2GLP_Pulsed_Doppler/HostCommunication/inc\PayloadHelper.h **** 
 492:C:/Users/Utente/Desktop/Tesi/Firmware_Software/DAVE project/S2GLP_Pulsed_Doppler/HostCommunication/inc\PayloadHelper.h **** static inline int64_t rd_payload_i64(const uint8_t* payload, size_t offset)
 493:C:/Users/Utente/Desktop/Tesi/Firmware_Software/DAVE project/S2GLP_Pulsed_Doppler/HostCommunication/inc\PayloadHelper.h **** {
 494:C:/Users/Utente/Desktop/Tesi/Firmware_Software/DAVE project/S2GLP_Pulsed_Doppler/HostCommunication/inc\PayloadHelper.h ****     return (int64_t)((((uint64_t)payload[offset + 7]) << 56) |
 495:C:/Users/Utente/Desktop/Tesi/Firmware_Software/DAVE project/S2GLP_Pulsed_Doppler/HostCommunication/inc\PayloadHelper.h ****                      (((uint64_t)payload[offset + 6]) << 48) |
 496:C:/Users/Utente/Desktop/Tesi/Firmware_Software/DAVE project/S2GLP_Pulsed_Doppler/HostCommunication/inc\PayloadHelper.h ****                      (((uint64_t)payload[offset + 5]) << 40) |
 497:C:/Users/Utente/Desktop/Tesi/Firmware_Software/DAVE project/S2GLP_Pulsed_Doppler/HostCommunication/inc\PayloadHelper.h ****                      (((uint64_t)payload[offset + 4]) << 32) |
 498:C:/Users/Utente/Desktop/Tesi/Firmware_Software/DAVE project/S2GLP_Pulsed_Doppler/HostCommunication/inc\PayloadHelper.h ****                      (((uint64_t)payload[offset + 3]) << 24) |
 499:C:/Users/Utente/Desktop/Tesi/Firmware_Software/DAVE project/S2GLP_Pulsed_Doppler/HostCommunication/inc\PayloadHelper.h ****                      (((uint64_t)payload[offset + 2]) << 16) |
 500:C:/Users/Utente/Desktop/Tesi/Firmware_Software/DAVE project/S2GLP_Pulsed_Doppler/HostCommunication/inc\PayloadHelper.h ****                      (((uint64_t)payload[offset + 1]) <<  8) |
 501:C:/Users/Utente/Desktop/Tesi/Firmware_Software/DAVE project/S2GLP_Pulsed_Doppler/HostCommunication/inc\PayloadHelper.h ****                       ((uint64_t)payload[offset    ]));
 502:C:/Users/Utente/Desktop/Tesi/Firmware_Software/DAVE project/S2GLP_Pulsed_Doppler/HostCommunication/inc\PayloadHelper.h **** }
 503:C:/Users/Utente/Desktop/Tesi/Firmware_Software/DAVE project/S2GLP_Pulsed_Doppler/HostCommunication/inc\PayloadHelper.h **** 
 504:C:/Users/Utente/Desktop/Tesi/Firmware_Software/DAVE project/S2GLP_Pulsed_Doppler/HostCommunication/inc\PayloadHelper.h **** static inline uint64_t rd_payload_u64(const uint8_t* payload, size_t offset)
 505:C:/Users/Utente/Desktop/Tesi/Firmware_Software/DAVE project/S2GLP_Pulsed_Doppler/HostCommunication/inc\PayloadHelper.h **** {
 506:C:/Users/Utente/Desktop/Tesi/Firmware_Software/DAVE project/S2GLP_Pulsed_Doppler/HostCommunication/inc\PayloadHelper.h ****     return (((uint64_t)payload[offset + 7]) << 56) |
 507:C:/Users/Utente/Desktop/Tesi/Firmware_Software/DAVE project/S2GLP_Pulsed_Doppler/HostCommunication/inc\PayloadHelper.h ****            (((uint64_t)payload[offset + 6]) << 48) |
 508:C:/Users/Utente/Desktop/Tesi/Firmware_Software/DAVE project/S2GLP_Pulsed_Doppler/HostCommunication/inc\PayloadHelper.h ****            (((uint64_t)payload[offset + 5]) << 40) |
 509:C:/Users/Utente/Desktop/Tesi/Firmware_Software/DAVE project/S2GLP_Pulsed_Doppler/HostCommunication/inc\PayloadHelper.h ****            (((uint64_t)payload[offset + 4]) << 32) |
 510:C:/Users/Utente/Desktop/Tesi/Firmware_Software/DAVE project/S2GLP_Pulsed_Doppler/HostCommunication/inc\PayloadHelper.h ****            (((uint64_t)payload[offset + 3]) << 24) |
 511:C:/Users/Utente/Desktop/Tesi/Firmware_Software/DAVE project/S2GLP_Pulsed_Doppler/HostCommunication/inc\PayloadHelper.h ****            (((uint64_t)payload[offset + 2]) << 16) |
 512:C:/Users/Utente/Desktop/Tesi/Firmware_Software/DAVE project/S2GLP_Pulsed_Doppler/HostCommunication/inc\PayloadHelper.h ****            (((uint64_t)payload[offset + 1]) <<  8) |
 513:C:/Users/Utente/Desktop/Tesi/Firmware_Software/DAVE project/S2GLP_Pulsed_Doppler/HostCommunication/inc\PayloadHelper.h ****             ((uint64_t)payload[offset    ]);
 514:C:/Users/Utente/Desktop/Tesi/Firmware_Software/DAVE project/S2GLP_Pulsed_Doppler/HostCommunication/inc\PayloadHelper.h **** }
 515:C:/Users/Utente/Desktop/Tesi/Firmware_Software/DAVE project/S2GLP_Pulsed_Doppler/HostCommunication/inc\PayloadHelper.h **** 
 516:C:/Users/Utente/Desktop/Tesi/Firmware_Software/DAVE project/S2GLP_Pulsed_Doppler/HostCommunication/inc\PayloadHelper.h **** 
 517:C:/Users/Utente/Desktop/Tesi/Firmware_Software/DAVE project/S2GLP_Pulsed_Doppler/HostCommunication/inc\PayloadHelper.h **** static inline float rd_payload_float(const uint8_t* payload, size_t offset)
 518:C:/Users/Utente/Desktop/Tesi/Firmware_Software/DAVE project/S2GLP_Pulsed_Doppler/HostCommunication/inc\PayloadHelper.h **** {
 519:C:/Users/Utente/Desktop/Tesi/Firmware_Software/DAVE project/S2GLP_Pulsed_Doppler/HostCommunication/inc\PayloadHelper.h **** 	STATIC_ASSERT(sizeof(float) == sizeof(uint32_t));
 520:C:/Users/Utente/Desktop/Tesi/Firmware_Software/DAVE project/S2GLP_Pulsed_Doppler/HostCommunication/inc\PayloadHelper.h **** 		typedef union {
 521:C:/Users/Utente/Desktop/Tesi/Firmware_Software/DAVE project/S2GLP_Pulsed_Doppler/HostCommunication/inc\PayloadHelper.h **** 			uint32_t u32_value;
 522:C:/Users/Utente/Desktop/Tesi/Firmware_Software/DAVE project/S2GLP_Pulsed_Doppler/HostCommunication/inc\PayloadHelper.h **** 			float float_value;
 523:C:/Users/Utente/Desktop/Tesi/Firmware_Software/DAVE project/S2GLP_Pulsed_Doppler/HostCommunication/inc\PayloadHelper.h **** 		} temp_union;
 524:C:/Users/Utente/Desktop/Tesi/Firmware_Software/DAVE project/S2GLP_Pulsed_Doppler/HostCommunication/inc\PayloadHelper.h **** 
 525:C:/Users/Utente/Desktop/Tesi/Firmware_Software/DAVE project/S2GLP_Pulsed_Doppler/HostCommunication/inc\PayloadHelper.h **** 	temp_union data;
 526:C:/Users/Utente/Desktop/Tesi/Firmware_Software/DAVE project/S2GLP_Pulsed_Doppler/HostCommunication/inc\PayloadHelper.h **** 
 527:C:/Users/Utente/Desktop/Tesi/Firmware_Software/DAVE project/S2GLP_Pulsed_Doppler/HostCommunication/inc\PayloadHelper.h **** 	data.u32_value =
 528:C:/Users/Utente/Desktop/Tesi/Firmware_Software/DAVE project/S2GLP_Pulsed_Doppler/HostCommunication/inc\PayloadHelper.h ****     		(((uint32_t)payload[offset + 3]) << 24) |
 529:C:/Users/Utente/Desktop/Tesi/Firmware_Software/DAVE project/S2GLP_Pulsed_Doppler/HostCommunication/inc\PayloadHelper.h ****            (((uint32_t)payload[offset + 2]) << 16) |
 530:C:/Users/Utente/Desktop/Tesi/Firmware_Software/DAVE project/S2GLP_Pulsed_Doppler/HostCommunication/inc\PayloadHelper.h ****            (((uint32_t)payload[offset + 1]) <<  8) |
 531:C:/Users/Utente/Desktop/Tesi/Firmware_Software/DAVE project/S2GLP_Pulsed_Doppler/HostCommunication/inc\PayloadHelper.h ****             ((uint32_t)payload[offset    ]);
 532:C:/Users/Utente/Desktop/Tesi/Firmware_Software/DAVE project/S2GLP_Pulsed_Doppler/HostCommunication/inc\PayloadHelper.h **** 
 533:C:/Users/Utente/Desktop/Tesi/Firmware_Software/DAVE project/S2GLP_Pulsed_Doppler/HostCommunication/inc\PayloadHelper.h ****     return data.float_value;
 534:C:/Users/Utente/Desktop/Tesi/Firmware_Software/DAVE project/S2GLP_Pulsed_Doppler/HostCommunication/inc\PayloadHelper.h **** }
 535:C:/Users/Utente/Desktop/Tesi/Firmware_Software/DAVE project/S2GLP_Pulsed_Doppler/HostCommunication/inc\PayloadHelper.h **** 
 536:C:/Users/Utente/Desktop/Tesi/Firmware_Software/DAVE project/S2GLP_Pulsed_Doppler/HostCommunication/inc\PayloadHelper.h **** 
 537:C:/Users/Utente/Desktop/Tesi/Firmware_Software/DAVE project/S2GLP_Pulsed_Doppler/HostCommunication/inc\PayloadHelper.h **** static inline size_t wr_payload_i16(uint8_t* payload, size_t offset,
 538:C:/Users/Utente/Desktop/Tesi/Firmware_Software/DAVE project/S2GLP_Pulsed_Doppler/HostCommunication/inc\PayloadHelper.h ****                                   int16_t value)
 539:C:/Users/Utente/Desktop/Tesi/Firmware_Software/DAVE project/S2GLP_Pulsed_Doppler/HostCommunication/inc\PayloadHelper.h **** {
 540:C:/Users/Utente/Desktop/Tesi/Firmware_Software/DAVE project/S2GLP_Pulsed_Doppler/HostCommunication/inc\PayloadHelper.h ****     payload[offset + 1] = (((uint16_t)value) >>  8) & 0xFF;
 541:C:/Users/Utente/Desktop/Tesi/Firmware_Software/DAVE project/S2GLP_Pulsed_Doppler/HostCommunication/inc\PayloadHelper.h ****     payload[offset    ] =  ((uint16_t)value)        & 0xFF;
 542:C:/Users/Utente/Desktop/Tesi/Firmware_Software/DAVE project/S2GLP_Pulsed_Doppler/HostCommunication/inc\PayloadHelper.h ****     return sizeof(int16_t);
 543:C:/Users/Utente/Desktop/Tesi/Firmware_Software/DAVE project/S2GLP_Pulsed_Doppler/HostCommunication/inc\PayloadHelper.h **** }
 544:C:/Users/Utente/Desktop/Tesi/Firmware_Software/DAVE project/S2GLP_Pulsed_Doppler/HostCommunication/inc\PayloadHelper.h **** 
 545:C:/Users/Utente/Desktop/Tesi/Firmware_Software/DAVE project/S2GLP_Pulsed_Doppler/HostCommunication/inc\PayloadHelper.h **** static inline size_t wr_payload_u16(uint8_t* payload, size_t offset,
 546:C:/Users/Utente/Desktop/Tesi/Firmware_Software/DAVE project/S2GLP_Pulsed_Doppler/HostCommunication/inc\PayloadHelper.h ****                                   uint16_t value)
 547:C:/Users/Utente/Desktop/Tesi/Firmware_Software/DAVE project/S2GLP_Pulsed_Doppler/HostCommunication/inc\PayloadHelper.h **** {
 548:C:/Users/Utente/Desktop/Tesi/Firmware_Software/DAVE project/S2GLP_Pulsed_Doppler/HostCommunication/inc\PayloadHelper.h ****     payload[offset + 1] = (value >>  8) & 0xFF;
 549:C:/Users/Utente/Desktop/Tesi/Firmware_Software/DAVE project/S2GLP_Pulsed_Doppler/HostCommunication/inc\PayloadHelper.h ****     payload[offset    ] =  value        & 0xFF;
 550:C:/Users/Utente/Desktop/Tesi/Firmware_Software/DAVE project/S2GLP_Pulsed_Doppler/HostCommunication/inc\PayloadHelper.h ****     return sizeof(uint16_t);
 551:C:/Users/Utente/Desktop/Tesi/Firmware_Software/DAVE project/S2GLP_Pulsed_Doppler/HostCommunication/inc\PayloadHelper.h **** 
 552:C:/Users/Utente/Desktop/Tesi/Firmware_Software/DAVE project/S2GLP_Pulsed_Doppler/HostCommunication/inc\PayloadHelper.h **** }
 553:C:/Users/Utente/Desktop/Tesi/Firmware_Software/DAVE project/S2GLP_Pulsed_Doppler/HostCommunication/inc\PayloadHelper.h **** 
 554:C:/Users/Utente/Desktop/Tesi/Firmware_Software/DAVE project/S2GLP_Pulsed_Doppler/HostCommunication/inc\PayloadHelper.h **** static inline size_t wr_payload_i32(uint8_t* payload, size_t offset,
 555:C:/Users/Utente/Desktop/Tesi/Firmware_Software/DAVE project/S2GLP_Pulsed_Doppler/HostCommunication/inc\PayloadHelper.h ****                                   int32_t value)
 556:C:/Users/Utente/Desktop/Tesi/Firmware_Software/DAVE project/S2GLP_Pulsed_Doppler/HostCommunication/inc\PayloadHelper.h **** {
 557:C:/Users/Utente/Desktop/Tesi/Firmware_Software/DAVE project/S2GLP_Pulsed_Doppler/HostCommunication/inc\PayloadHelper.h ****     payload[offset + 3] = (((uint32_t)value) >> 24) & 0xFF;
 558:C:/Users/Utente/Desktop/Tesi/Firmware_Software/DAVE project/S2GLP_Pulsed_Doppler/HostCommunication/inc\PayloadHelper.h ****     payload[offset + 2] = (((uint32_t)value) >> 16) & 0xFF;
 559:C:/Users/Utente/Desktop/Tesi/Firmware_Software/DAVE project/S2GLP_Pulsed_Doppler/HostCommunication/inc\PayloadHelper.h ****     payload[offset + 1] = (((uint32_t)value) >>  8) & 0xFF;
 560:C:/Users/Utente/Desktop/Tesi/Firmware_Software/DAVE project/S2GLP_Pulsed_Doppler/HostCommunication/inc\PayloadHelper.h ****     payload[offset    ] =  ((uint32_t)value)        & 0xFF;
 561:C:/Users/Utente/Desktop/Tesi/Firmware_Software/DAVE project/S2GLP_Pulsed_Doppler/HostCommunication/inc\PayloadHelper.h **** 
 562:C:/Users/Utente/Desktop/Tesi/Firmware_Software/DAVE project/S2GLP_Pulsed_Doppler/HostCommunication/inc\PayloadHelper.h ****     return sizeof(int32_t);
 563:C:/Users/Utente/Desktop/Tesi/Firmware_Software/DAVE project/S2GLP_Pulsed_Doppler/HostCommunication/inc\PayloadHelper.h **** }
 564:C:/Users/Utente/Desktop/Tesi/Firmware_Software/DAVE project/S2GLP_Pulsed_Doppler/HostCommunication/inc\PayloadHelper.h **** 
 565:C:/Users/Utente/Desktop/Tesi/Firmware_Software/DAVE project/S2GLP_Pulsed_Doppler/HostCommunication/inc\PayloadHelper.h **** static inline size_t wr_payload_u32(uint8_t* payload, size_t offset,
 566:C:/Users/Utente/Desktop/Tesi/Firmware_Software/DAVE project/S2GLP_Pulsed_Doppler/HostCommunication/inc\PayloadHelper.h ****                                   uint32_t value)
 567:C:/Users/Utente/Desktop/Tesi/Firmware_Software/DAVE project/S2GLP_Pulsed_Doppler/HostCommunication/inc\PayloadHelper.h **** {
 568:C:/Users/Utente/Desktop/Tesi/Firmware_Software/DAVE project/S2GLP_Pulsed_Doppler/HostCommunication/inc\PayloadHelper.h ****     payload[offset + 3] = (value >> 24) & 0xFF;
 569:C:/Users/Utente/Desktop/Tesi/Firmware_Software/DAVE project/S2GLP_Pulsed_Doppler/HostCommunication/inc\PayloadHelper.h ****     payload[offset + 2] = (value >> 16) & 0xFF;
 570:C:/Users/Utente/Desktop/Tesi/Firmware_Software/DAVE project/S2GLP_Pulsed_Doppler/HostCommunication/inc\PayloadHelper.h ****     payload[offset + 1] = (value >>  8) & 0xFF;
 571:C:/Users/Utente/Desktop/Tesi/Firmware_Software/DAVE project/S2GLP_Pulsed_Doppler/HostCommunication/inc\PayloadHelper.h ****     payload[offset    ] =  value        & 0xFF;
  55              	 .loc 2 571 0
  56 000a 6B70     	 strb r3,[r5,#1]
  57              	.LBE101:
  58              	.LBE100:
  84:../HostCommunication/src/EndpointRadars2glpulse.c **** 	static uint32_t result_cnt = 0; // zero init at startup!
  59              	 .loc 1 84 0
  60 000c 8846     	 mov r8,r1
  61              	.LBB105:
  62              	.LBB102:
 568:C:/Users/Utente/Desktop/Tesi/Firmware_Software/DAVE project/S2GLP_Pulsed_Doppler/HostCommunication/inc\PayloadHelper.h ****     payload[offset + 2] = (value >> 16) & 0xFF;
  63              	 .loc 2 568 0
  64 000e 1C0E     	 lsrs r4,r3,#24
 569:C:/Users/Utente/Desktop/Tesi/Firmware_Software/DAVE project/S2GLP_Pulsed_Doppler/HostCommunication/inc\PayloadHelper.h ****     payload[offset + 1] = (value >>  8) & 0xFF;
  65              	 .loc 2 569 0
  66 0010 1A0C     	 lsrs r2,r3,#16
  67              	.LBE102:
  68              	.LBE105:
  69              	.LBB106:
  70              	.LBB98:
 241:C:/Users/Utente/Desktop/Tesi/Firmware_Software/DAVE project/S2GLP_Pulsed_Doppler/HostCommunication/inc\PayloadHelper.h ****     return sizeof(uint8_t);
  71              	 .loc 2 241 0
  72 0012 3621     	 movs r1,#54
  73              	.LVL1:
  74              	.LBE98:
  75              	.LBE106:
  76              	.LBB107:
  77              	.LBB103:
 570:C:/Users/Utente/Desktop/Tesi/Firmware_Software/DAVE project/S2GLP_Pulsed_Doppler/HostCommunication/inc\PayloadHelper.h ****     payload[offset    ] =  value        & 0xFF;
  78              	 .loc 2 570 0
  79 0014 1B0A     	 lsrs r3,r3,#8
 568:C:/Users/Utente/Desktop/Tesi/Firmware_Software/DAVE project/S2GLP_Pulsed_Doppler/HostCommunication/inc\PayloadHelper.h ****     payload[offset + 2] = (value >> 16) & 0xFF;
  80              	 .loc 2 568 0
  81 0016 2C71     	 strb r4,[r5,#4]
  82              	.LBE103:
  83              	.LBE107:
  84              	.LBB108:
  85              	.LBB99:
 241:C:/Users/Utente/Desktop/Tesi/Firmware_Software/DAVE project/S2GLP_Pulsed_Doppler/HostCommunication/inc\PayloadHelper.h ****     return sizeof(uint8_t);
  86              	 .loc 2 241 0
  87 0018 2970     	 strb r1,[r5]
  88              	.LVL2:
  89              	.LBE99:
  90              	.LBE108:
  91              	.LBB109:
  92              	.LBB104:
 569:C:/Users/Utente/Desktop/Tesi/Firmware_Software/DAVE project/S2GLP_Pulsed_Doppler/HostCommunication/inc\PayloadHelper.h ****     payload[offset + 1] = (value >>  8) & 0xFF;
  93              	 .loc 2 569 0
  94 001a EA70     	 strb r2,[r5,#3]
 570:C:/Users/Utente/Desktop/Tesi/Firmware_Software/DAVE project/S2GLP_Pulsed_Doppler/HostCommunication/inc\PayloadHelper.h ****     payload[offset    ] =  value        & 0xFF;
  95              	 .loc 2 570 0
  96 001c AB70     	 strb r3,[r5,#2]
  97              	.LBE104:
  98              	.LBE109:
  91:../HostCommunication/src/EndpointRadars2glpulse.c **** 	offset += wr_payload_u32(message, offset, p_pulse_result->frame_count);
  99              	 .loc 1 91 0
 100 001e D8F80030 	 ldr r3,[r8]
 101              	.LVL3:
 102              	.LBB110:
 103              	.LBB111:
 104              	 .loc 2 571 0
 105 0022 6B71     	 strb r3,[r5,#5]
 106              	.LVL4:
 568:C:/Users/Utente/Desktop/Tesi/Firmware_Software/DAVE project/S2GLP_Pulsed_Doppler/HostCommunication/inc\PayloadHelper.h ****     payload[offset + 2] = (value >> 16) & 0xFF;
 107              	 .loc 2 568 0
 108 0024 190E     	 lsrs r1,r3,#24
 569:C:/Users/Utente/Desktop/Tesi/Firmware_Software/DAVE project/S2GLP_Pulsed_Doppler/HostCommunication/inc\PayloadHelper.h ****     payload[offset + 1] = (value >>  8) & 0xFF;
 109              	 .loc 2 569 0
 110 0026 1A0C     	 lsrs r2,r3,#16
 570:C:/Users/Utente/Desktop/Tesi/Firmware_Software/DAVE project/S2GLP_Pulsed_Doppler/HostCommunication/inc\PayloadHelper.h ****     payload[offset    ] =  value        & 0xFF;
 111              	 .loc 2 570 0
 112 0028 1B0A     	 lsrs r3,r3,#8
 113              	.LVL5:
 114 002a AB71     	 strb r3,[r5,#6]
 568:C:/Users/Utente/Desktop/Tesi/Firmware_Software/DAVE project/S2GLP_Pulsed_Doppler/HostCommunication/inc\PayloadHelper.h ****     payload[offset + 2] = (value >> 16) & 0xFF;
 115              	 .loc 2 568 0
 116 002c 2972     	 strb r1,[r5,#8]
 569:C:/Users/Utente/Desktop/Tesi/Firmware_Software/DAVE project/S2GLP_Pulsed_Doppler/HostCommunication/inc\PayloadHelper.h ****     payload[offset + 1] = (value >>  8) & 0xFF;
 117              	 .loc 2 569 0
 118 002e EA71     	 strb r2,[r5,#7]
 119              	.LBE111:
 120              	.LBE110:
  84:../HostCommunication/src/EndpointRadars2glpulse.c **** 	static uint32_t result_cnt = 0; // zero init at startup!
 121              	 .loc 1 84 0
 122 0030 0746     	 mov r7,r0
  92:../HostCommunication/src/EndpointRadars2glpulse.c **** 	offset += wr_payload_float(message, offset, p_pulse_result->velocity_mps);
 123              	 .loc 1 92 0
 124 0032 D8F80420 	 ldr r2,[r8,#4]
 125 0036 0921     	 movs r1,#9
 126 0038 2846     	 mov r0,r5
 127              	.LVL6:
 128 003a FFF7FEFF 	 bl wr_payload_float
 129              	.LVL7:
 130 003e 0930     	 adds r0,r0,#9
 131 0040 84B2     	 uxth r4,r0
 132              	.LVL8:
  93:../HostCommunication/src/EndpointRadars2glpulse.c **** 	offset += wr_payload_float(message, offset, p_pulse_result->level_nu);
 133              	 .loc 1 93 0
 134 0042 21B2     	 sxth r1,r4
 135 0044 D8F80820 	 ldr r2,[r8,#8]
 136 0048 2846     	 mov r0,r5
 137 004a FFF7FEFF 	 bl wr_payload_float
 138              	.LVL9:
 139 004e 2044     	 add r0,r0,r4
 140 0050 80B2     	 uxth r0,r0
 141              	.LVL10:
  94:../HostCommunication/src/EndpointRadars2glpulse.c **** 	offset += wr_payload_u8(message, offset, p_pulse_result->target_departing_bool);
 142              	 .loc 1 94 0
 143 0052 03B2     	 sxth r3,r0
 144 0054 98F80C20 	 ldrb r2,[r8,#12]
 145              	.LVL11:
 146              	.LBB112:
 147              	.LBB113:
 241:C:/Users/Utente/Desktop/Tesi/Firmware_Software/DAVE project/S2GLP_Pulsed_Doppler/HostCommunication/inc\PayloadHelper.h ****     return sizeof(uint8_t);
 148              	 .loc 2 241 0
 149 0058 EA54     	 strb r2,[r5,r3]
 150              	.LVL12:
 151              	.LBE113:
 152              	.LBE112:
 153              	 .loc 1 94 0
 154 005a 431C     	 adds r3,r0,#1
 155              	.LVL13:
  95:../HostCommunication/src/EndpointRadars2glpulse.c **** 	offset += wr_payload_u8(message, offset, p_pulse_result->target_approaching_bool);
 156              	 .loc 1 95 0
 157 005c 1BB2     	 sxth r3,r3
 158 005e 98F80D20 	 ldrb r2,[r8,#13]
 159              	.LVL14:
 160              	.LBB114:
 161              	.LBB115:
 241:C:/Users/Utente/Desktop/Tesi/Firmware_Software/DAVE project/S2GLP_Pulsed_Doppler/HostCommunication/inc\PayloadHelper.h ****     return sizeof(uint8_t);
 162              	 .loc 2 241 0
 163 0062 EA54     	 strb r2,[r5,r3]
 164              	.LVL15:
 165              	.LBE115:
 166              	.LBE114:
 167              	 .loc 1 95 0
 168 0064 831C     	 adds r3,r0,#2
  96:../HostCommunication/src/EndpointRadars2glpulse.c **** 	offset += wr_payload_u8(message, offset, p_pulse_result->motion_detected_bool);
 169              	 .loc 1 96 0
 170 0066 1BB2     	 sxth r3,r3
 171 0068 98F80E20 	 ldrb r2,[r8,#14]
 172              	.LVL16:
 173              	.LBB116:
 174              	.LBB117:
 241:C:/Users/Utente/Desktop/Tesi/Firmware_Software/DAVE project/S2GLP_Pulsed_Doppler/HostCommunication/inc\PayloadHelper.h ****     return sizeof(uint8_t);
 175              	 .loc 2 241 0
 176 006c EA54     	 strb r2,[r5,r3]
 177              	.LVL17:
 178              	.LBE117:
 179              	.LBE116:
 180              	 .loc 1 96 0
 181 006e 0330     	 adds r0,r0,#3
 182              	.LVL18:
 183 0070 84B2     	 uxth r4,r0
 184              	.LVL19:
  97:../HostCommunication/src/EndpointRadars2glpulse.c **** 	offset += wr_payload_float(message, offset, p_pulse_result->doppler_frequency_hz);
 185              	 .loc 1 97 0
 186 0072 D8F81020 	 ldr r2,[r8,#16]
 187              	.LVL20:
 188 0076 21B2     	 sxth r1,r4
 189 0078 2846     	 mov r0,r5
 190              	.LVL21:
 191 007a FFF7FEFF 	 bl wr_payload_float
 192              	.LVL22:
 193 007e 2044     	 add r0,r0,r4
 194 0080 84B2     	 uxth r4,r0
 195              	.LVL23:
  98:../HostCommunication/src/EndpointRadars2glpulse.c **** 
  99:../HostCommunication/src/EndpointRadars2glpulse.c **** 	/* send message */
 100:../HostCommunication/src/EndpointRadars2glpulse.c **** 	protocol_send_header(endpoint, offset);
 196              	 .loc 1 100 0
 197 0082 2146     	 mov r1,r4
 198 0084 3846     	 mov r0,r7
 199 0086 FFF7FEFF 	 bl protocol_send_header
 200              	.LVL24:
 101:../HostCommunication/src/EndpointRadars2glpulse.c **** 	protocol_send_payload(message, offset);
 201              	 .loc 1 101 0
 202 008a 2846     	 mov r0,r5
 203 008c 2146     	 mov r1,r4
 204 008e FFF7FEFF 	 bl protocol_send_payload
 205              	.LVL25:
 102:../HostCommunication/src/EndpointRadars2glpulse.c **** 	protocol_send_tail();
 206              	 .loc 1 102 0
 207 0092 FFF7FEFF 	 bl protocol_send_tail
 208              	.LVL26:
 103:../HostCommunication/src/EndpointRadars2glpulse.c **** 
 104:../HostCommunication/src/EndpointRadars2glpulse.c **** 	result_cnt += 1;
 209              	 .loc 1 104 0
 210 0096 3368     	 ldr r3,[r6]
 211 0098 0133     	 adds r3,r3,#1
 212 009a 3360     	 str r3,[r6]
 213 009c BDE8F081 	 pop {r4,r5,r6,r7,r8,pc}
 214              	.LVL27:
 215              	.L4:
 216              	 .align 2
 217              	.L3:
 218 00a0 00000000 	 .word .LANCHOR1
 219 00a4 00000000 	 .word .LANCHOR0
 220              	 .cfi_endproc
 221              	.LFE546:
 223              	 .section .text.send_parameter_values,"ax",%progbits
 224              	 .align 2
 225              	 .global send_parameter_values
 226              	 .thumb
 227              	 .thumb_func
 229              	send_parameter_values:
 230              	.LFB547:
 105:../HostCommunication/src/EndpointRadars2glpulse.c **** }
 106:../HostCommunication/src/EndpointRadars2glpulse.c **** 
 107:../HostCommunication/src/EndpointRadars2glpulse.c **** //============================================================================
 108:../HostCommunication/src/EndpointRadars2glpulse.c **** 
 109:../HostCommunication/src/EndpointRadars2glpulse.c **** 
 110:../HostCommunication/src/EndpointRadars2glpulse.c **** void send_parameter_values(uint8_t endpoint, pulse_para_values_t *p_para)
 111:../HostCommunication/src/EndpointRadars2glpulse.c **** {
 231              	 .loc 1 111 0
 232              	 .cfi_startproc
 233              	 
 234              	 
 235              	.LVL28:
 236 0000 F8B5     	 push {r3,r4,r5,r6,r7,lr}
 237              	.LCFI1:
 238              	 .cfi_def_cfa_offset 24
 239              	 .cfi_offset 3,-24
 240              	 .cfi_offset 4,-20
 241              	 .cfi_offset 5,-16
 242              	 .cfi_offset 6,-12
 243              	 .cfi_offset 7,-8
 244              	 .cfi_offset 14,-4
 245              	.LBB118:
 246              	.LBB119:
 241:C:/Users/Utente/Desktop/Tesi/Firmware_Software/DAVE project/S2GLP_Pulsed_Doppler/HostCommunication/inc\PayloadHelper.h ****     return sizeof(uint8_t);
 247              	 .loc 2 241 0
 248 0002 274D     	 ldr r5,.L7
 249 0004 3123     	 movs r3,#49
 250 0006 2B70     	 strb r3,[r5]
 251              	.LVL29:
 252              	.LBE119:
 253              	.LBE118:
 254              	 .loc 1 111 0
 255 0008 0F46     	 mov r7,r1
 256 000a 0646     	 mov r6,r0
 112:../HostCommunication/src/EndpointRadars2glpulse.c **** 	size_t offset = 0;
 113:../HostCommunication/src/EndpointRadars2glpulse.c **** 	static uint8_t message[256];
 114:../HostCommunication/src/EndpointRadars2glpulse.c **** 
 115:../HostCommunication/src/EndpointRadars2glpulse.c **** 	offset += wr_payload_u8(message,    offset, MSG_PARA_VALUES_RES);
 116:../HostCommunication/src/EndpointRadars2glpulse.c **** 	offset += wr_payload_float(message, offset, p_para->max_speed_mps);
 257              	 .loc 1 116 0
 258 000c 0A68     	 ldr r2,[r1]
 259 000e 2846     	 mov r0,r5
 260              	.LVL30:
 261 0010 0121     	 movs r1,#1
 262              	.LVL31:
 263 0012 FFF7FEFF 	 bl wr_payload_float
 264              	.LVL32:
 265 0016 441C     	 adds r4,r0,#1
 266              	.LVL33:
 117:../HostCommunication/src/EndpointRadars2glpulse.c **** 	offset += wr_payload_float(message, offset, p_para->min_speed_mps);
 267              	 .loc 1 117 0
 268 0018 2146     	 mov r1,r4
 269 001a 7A68     	 ldr r2,[r7,#4]
 270 001c 2846     	 mov r0,r5
 271 001e FFF7FEFF 	 bl wr_payload_float
 272              	.LVL34:
 273 0022 0444     	 add r4,r4,r0
 274              	.LVL35:
 118:../HostCommunication/src/EndpointRadars2glpulse.c **** 	offset += wr_payload_float(message, offset, p_para->frame_time_sec);
 275              	 .loc 1 118 0
 276 0024 2146     	 mov r1,r4
 277 0026 BA68     	 ldr r2,[r7,#8]
 278 0028 2846     	 mov r0,r5
 279 002a FFF7FEFF 	 bl wr_payload_float
 280              	.LVL36:
 119:../HostCommunication/src/EndpointRadars2glpulse.c **** 
 120:../HostCommunication/src/EndpointRadars2glpulse.c **** 	offset += wr_payload_u16(message,   offset, p_para->number_of_samples_nu);
 281              	 .loc 1 120 0
 282 002e BB89     	 ldrh r3,[r7,#12]
 118:../HostCommunication/src/EndpointRadars2glpulse.c **** 	offset += wr_payload_float(message, offset, p_para->frame_time_sec);
 283              	 .loc 1 118 0
 284 0030 2044     	 add r0,r0,r4
 285              	.LVL37:
 286              	.LBB120:
 287              	.LBB121:
 548:C:/Users/Utente/Desktop/Tesi/Firmware_Software/DAVE project/S2GLP_Pulsed_Doppler/HostCommunication/inc\PayloadHelper.h ****     payload[offset    ] =  value        & 0xFF;
 288              	 .loc 2 548 0
 289 0032 2A18     	 adds r2,r5,r0
 290 0034 190A     	 lsrs r1,r3,#8
 291 0036 5170     	 strb r1,[r2,#1]
 292              	.LBE121:
 293              	.LBE120:
 294              	 .loc 1 120 0
 295 0038 841C     	 adds r4,r0,#2
 296              	.LVL38:
 297              	.LBB123:
 298              	.LBB122:
 549:C:/Users/Utente/Desktop/Tesi/Firmware_Software/DAVE project/S2GLP_Pulsed_Doppler/HostCommunication/inc\PayloadHelper.h ****     return sizeof(uint16_t);
 299              	 .loc 2 549 0
 300 003a 2B54     	 strb r3,[r5,r0]
 301              	.LBE122:
 302              	.LBE123:
 121:../HostCommunication/src/EndpointRadars2glpulse.c **** 	offset += wr_payload_float(message, offset, p_para->sampling_freq_hz);
 303              	 .loc 1 121 0
 304 003c 3A69     	 ldr r2,[r7,#16]
 305 003e 2146     	 mov r1,r4
 306 0040 2846     	 mov r0,r5
 307              	.LVL39:
 308 0042 FFF7FEFF 	 bl wr_payload_float
 309              	.LVL40:
 310 0046 0444     	 add r4,r4,r0
 311              	.LVL41:
 122:../HostCommunication/src/EndpointRadars2glpulse.c **** 	offset += wr_payload_float(message, offset, p_para->doppler_sensitivity_nu);
 312              	 .loc 1 122 0
 313 0048 2146     	 mov r1,r4
 314 004a 7A69     	 ldr r2,[r7,#20]
 315 004c 2846     	 mov r0,r5
 316 004e FFF7FEFF 	 bl wr_payload_float
 317              	.LVL42:
 318 0052 0444     	 add r4,r4,r0
 319              	.LVL43:
 123:../HostCommunication/src/EndpointRadars2glpulse.c **** 	offset += wr_payload_float(message, offset, p_para->motion_sensitivity_nu);
 320              	 .loc 1 123 0
 321 0054 2146     	 mov r1,r4
 322 0056 BA69     	 ldr r2,[r7,#24]
 323 0058 2846     	 mov r0,r5
 324 005a FFF7FEFF 	 bl wr_payload_float
 325              	.LVL44:
 326 005e 2044     	 add r0,r0,r4
 327              	.LVL45:
 124:../HostCommunication/src/EndpointRadars2glpulse.c **** 
 125:../HostCommunication/src/EndpointRadars2glpulse.c **** 	offset += wr_payload_u8(message,    offset, p_para->use_high_gain_doppler_bool);
 328              	 .loc 1 125 0
 329 0060 3B7F     	 ldrb r3,[r7,#28]
 330              	.LVL46:
 331              	.LBB124:
 332              	.LBB125:
 241:C:/Users/Utente/Desktop/Tesi/Firmware_Software/DAVE project/S2GLP_Pulsed_Doppler/HostCommunication/inc\PayloadHelper.h ****     return sizeof(uint8_t);
 333              	 .loc 2 241 0
 334 0062 2B54     	 strb r3,[r5,r0]
 335              	.LVL47:
 336              	.LBE125:
 337              	.LBE124:
 338              	.LBB126:
 339              	.LBB127:
 340 0064 2B18     	 adds r3,r5,r0
 341              	.LVL48:
 342              	.LBE127:
 343              	.LBE126:
 126:../HostCommunication/src/EndpointRadars2glpulse.c **** 	offset += wr_payload_u8(message,    offset, p_para->continuous_mode_bool);
 344              	 .loc 1 126 0
 345 0066 7A7F     	 ldrb r2,[r7,#29]
 346              	.LVL49:
 347              	.LBB129:
 348              	.LBB128:
 241:C:/Users/Utente/Desktop/Tesi/Firmware_Software/DAVE project/S2GLP_Pulsed_Doppler/HostCommunication/inc\PayloadHelper.h ****     return sizeof(uint8_t);
 349              	 .loc 2 241 0
 350 0068 5A70     	 strb r2,[r3,#1]
 351              	.LVL50:
 352              	.LBE128:
 353              	.LBE129:
 127:../HostCommunication/src/EndpointRadars2glpulse.c **** 	offset += wr_payload_u16(message,   offset, p_para->number_of_skip_samples_nu);
 354              	 .loc 1 127 0
 355 006a FA8B     	 ldrh r2,[r7,#30]
 356              	.LVL51:
 357              	.LBB130:
 358              	.LBB131:
 549:C:/Users/Utente/Desktop/Tesi/Firmware_Software/DAVE project/S2GLP_Pulsed_Doppler/HostCommunication/inc\PayloadHelper.h ****     return sizeof(uint16_t);
 359              	 .loc 2 549 0
 360 006c 9A70     	 strb r2,[r3,#2]
 361              	.LVL52:
 548:C:/Users/Utente/Desktop/Tesi/Firmware_Software/DAVE project/S2GLP_Pulsed_Doppler/HostCommunication/inc\PayloadHelper.h ****     payload[offset    ] =  value        & 0xFF;
 362              	 .loc 2 548 0
 363 006e 120A     	 lsrs r2,r2,#8
 364              	.LVL53:
 365 0070 DA70     	 strb r2,[r3,#3]
 366              	.LBE131:
 367              	.LBE130:
 128:../HostCommunication/src/EndpointRadars2glpulse.c **** 	offset += wr_payload_u32(message,   offset, p_para->pulse_width_usec);
 368              	 .loc 1 128 0
 369 0072 3A6A     	 ldr r2,[r7,#32]
 370              	.LVL54:
 371              	.LBB132:
 372              	.LBB133:
 373              	 .loc 2 571 0
 374 0074 1A71     	 strb r2,[r3,#4]
 375              	.LVL55:
 376              	.LBE133:
 377              	.LBE132:
 378              	 .loc 1 128 0
 379 0076 0830     	 adds r0,r0,#8
 380              	.LVL56:
 129:../HostCommunication/src/EndpointRadars2glpulse.c **** 
 130:../HostCommunication/src/EndpointRadars2glpulse.c **** 	/* send message */
 131:../HostCommunication/src/EndpointRadars2glpulse.c **** 	protocol_send_header(endpoint, offset);
 381              	 .loc 1 131 0
 382 0078 84B2     	 uxth r4,r0
 383              	.LBB137:
 384              	.LBB134:
 568:C:/Users/Utente/Desktop/Tesi/Firmware_Software/DAVE project/S2GLP_Pulsed_Doppler/HostCommunication/inc\PayloadHelper.h ****     payload[offset + 2] = (value >> 16) & 0xFF;
 385              	 .loc 2 568 0
 386 007a 170E     	 lsrs r7,r2,#24
 387              	.LVL57:
 388              	.LBE134:
 389              	.LBE137:
 390              	 .loc 1 131 0
 391 007c 3046     	 mov r0,r6
 392              	.LVL58:
 393              	.LBB138:
 394              	.LBB135:
 569:C:/Users/Utente/Desktop/Tesi/Firmware_Software/DAVE project/S2GLP_Pulsed_Doppler/HostCommunication/inc\PayloadHelper.h ****     payload[offset + 1] = (value >>  8) & 0xFF;
 395              	 .loc 2 569 0
 396 007e 160C     	 lsrs r6,r2,#16
 570:C:/Users/Utente/Desktop/Tesi/Firmware_Software/DAVE project/S2GLP_Pulsed_Doppler/HostCommunication/inc\PayloadHelper.h ****     payload[offset    ] =  value        & 0xFF;
 397              	 .loc 2 570 0
 398 0080 120A     	 lsrs r2,r2,#8
 399              	.LVL59:
 400              	.LBE135:
 401              	.LBE138:
 402              	 .loc 1 131 0
 403 0082 2146     	 mov r1,r4
 404              	.LBB139:
 405              	.LBB136:
 568:C:/Users/Utente/Desktop/Tesi/Firmware_Software/DAVE project/S2GLP_Pulsed_Doppler/HostCommunication/inc\PayloadHelper.h ****     payload[offset + 2] = (value >> 16) & 0xFF;
 406              	 .loc 2 568 0
 407 0084 DF71     	 strb r7,[r3,#7]
 569:C:/Users/Utente/Desktop/Tesi/Firmware_Software/DAVE project/S2GLP_Pulsed_Doppler/HostCommunication/inc\PayloadHelper.h ****     payload[offset + 1] = (value >>  8) & 0xFF;
 408              	 .loc 2 569 0
 409 0086 9E71     	 strb r6,[r3,#6]
 570:C:/Users/Utente/Desktop/Tesi/Firmware_Software/DAVE project/S2GLP_Pulsed_Doppler/HostCommunication/inc\PayloadHelper.h ****     payload[offset    ] =  value        & 0xFF;
 410              	 .loc 2 570 0
 411 0088 5A71     	 strb r2,[r3,#5]
 412              	.LBE136:
 413              	.LBE139:
 414              	 .loc 1 131 0
 415 008a FFF7FEFF 	 bl protocol_send_header
 416              	.LVL60:
 132:../HostCommunication/src/EndpointRadars2glpulse.c **** 	protocol_send_payload(message, offset);
 417              	 .loc 1 132 0
 418 008e 2846     	 mov r0,r5
 419 0090 2146     	 mov r1,r4
 420 0092 FFF7FEFF 	 bl protocol_send_payload
 421              	.LVL61:
 133:../HostCommunication/src/EndpointRadars2glpulse.c **** 	protocol_send_tail();
 134:../HostCommunication/src/EndpointRadars2glpulse.c **** }
 422              	 .loc 1 134 0
 423 0096 BDE8F840 	 pop {r3,r4,r5,r6,r7,lr}
 424              	.LCFI2:
 425              	 .cfi_restore 14
 426              	 .cfi_restore 7
 427              	 .cfi_restore 6
 428              	 .cfi_restore 5
 429              	 .cfi_restore 4
 430              	 .cfi_restore 3
 431              	 .cfi_def_cfa_offset 0
 133:../HostCommunication/src/EndpointRadars2glpulse.c **** 	protocol_send_tail();
 432              	 .loc 1 133 0
 433 009a FFF7FEBF 	 b protocol_send_tail
 434              	.LVL62:
 435              	.L8:
 436 009e 00BF     	 .align 2
 437              	.L7:
 438 00a0 00000000 	 .word .LANCHOR2
 439              	 .cfi_endproc
 440              	.LFE547:
 442              	 .section .text.send_pulse_frame_data,"ax",%progbits
 443              	 .align 2
 444              	 .global send_pulse_frame_data
 445              	 .thumb
 446              	 .thumb_func
 448              	send_pulse_frame_data:
 449              	.LFB548:
 135:../HostCommunication/src/EndpointRadars2glpulse.c **** 
 136:../HostCommunication/src/EndpointRadars2glpulse.c **** //============================================================================
 137:../HostCommunication/src/EndpointRadars2glpulse.c **** 
 138:../HostCommunication/src/EndpointRadars2glpulse.c **** void send_pulse_frame_data(uint8_t endpoint, acq_buf_obj *p_acq_buf, device_settings_t *p_dev)
 139:../HostCommunication/src/EndpointRadars2glpulse.c **** {
 450              	 .loc 1 139 0
 451              	 .cfi_startproc
 452              	 
 453              	 
 454              	.LVL63:
 455 0000 2DE9F04F 	 push {r4,r5,r6,r7,r8,r9,r10,fp,lr}
 456              	.LCFI3:
 457              	 .cfi_def_cfa_offset 36
 458              	 .cfi_offset 4,-36
 459              	 .cfi_offset 5,-32
 460              	 .cfi_offset 6,-28
 461              	 .cfi_offset 7,-24
 462              	 .cfi_offset 8,-20
 463              	 .cfi_offset 9,-16
 464              	 .cfi_offset 10,-12
 465              	 .cfi_offset 11,-8
 466              	 .cfi_offset 14,-4
 467 0004 91B0     	 sub sp,sp,#68
 468              	.LCFI4:
 469              	 .cfi_def_cfa_offset 104
 140:../HostCommunication/src/EndpointRadars2glpulse.c **** 	/* send message containing frame data */
 141:../HostCommunication/src/EndpointRadars2glpulse.c **** 	uint32_t num_samples;
 142:../HostCommunication/src/EndpointRadars2glpulse.c **** 	uint32_t data_size;
 143:../HostCommunication/src/EndpointRadars2glpulse.c **** 	uint8_t message_header[18];
 144:../HostCommunication/src/EndpointRadars2glpulse.c **** 
 145:../HostCommunication/src/EndpointRadars2glpulse.c **** 	uint32_t num_used_ant = 2;
 146:../HostCommunication/src/EndpointRadars2glpulse.c **** 
 147:../HostCommunication/src/EndpointRadars2glpulse.c **** 	/* Global buffer to have a copy of fresh ADC data to avoid frame corruption at Host */
 148:../HostCommunication/src/EndpointRadars2glpulse.c **** 	static uint8_t transport_buffer[BSP_MAX_ADC_BUFFER_SIZE_BYTES];
 149:../HostCommunication/src/EndpointRadars2glpulse.c **** 
 150:../HostCommunication/src/EndpointRadars2glpulse.c **** 	Frame_Info_t frame_info;
 151:../HostCommunication/src/EndpointRadars2glpulse.c **** 
 152:../HostCommunication/src/EndpointRadars2glpulse.c **** 	frame_info.num_rx_antennas       = BSP_NUM_RX_ANTENNAS;
 153:../HostCommunication/src/EndpointRadars2glpulse.c **** 	frame_info.num_chirps            = p_acq_buf->params.num_of_chirps_per_frame;
 154:../HostCommunication/src/EndpointRadars2glpulse.c **** 	frame_info.rx_mask               = p_dev->rx_antenna_mask;
 470              	 .loc 1 154 0
 471 0006 92F82830 	 ldrb r3,[r2,#40]
 153:../HostCommunication/src/EndpointRadars2glpulse.c **** 	frame_info.rx_mask               = p_dev->rx_antenna_mask;
 472              	 .loc 1 153 0
 473 000a 8A88     	 ldrh r2,[r1,#4]
 474              	.LVL64:
 475 000c 0592     	 str r2,[sp,#20]
 476              	.LVL65:
 155:../HostCommunication/src/EndpointRadars2glpulse.c **** 	frame_info.adc_resolution        = 12;
 156:../HostCommunication/src/EndpointRadars2glpulse.c **** 	frame_info.interleaved_rx        = 0;
 157:../HostCommunication/src/EndpointRadars2glpulse.c **** 	frame_info.frame_number          = p_acq_buf->frame_counter;
 158:../HostCommunication/src/EndpointRadars2glpulse.c **** 	frame_info.data_format           = RADAR_RX_DATA_COMPLEX;
 159:../HostCommunication/src/EndpointRadars2glpulse.c **** 	frame_info.num_samples_per_chirp = p_acq_buf->params.num_of_samples_per_chirp;
 477              	 .loc 1 159 0
 478 000e 4A88     	 ldrh r2,[r1,#2]
 479              	.LVL66:
 480 0010 0892     	 str r2,[sp,#32]
 157:../HostCommunication/src/EndpointRadars2glpulse.c **** 	frame_info.data_format           = RADAR_RX_DATA_COMPLEX;
 481              	 .loc 1 157 0
 482 0012 4D6B     	 ldr r5,[r1,#52]
 483              	.LVL67:
 484 0014 059A     	 ldr r2,[sp,#20]
 485              	.LVL68:
 154:../HostCommunication/src/EndpointRadars2glpulse.c **** 	frame_info.adc_resolution        = 12;
 486              	 .loc 1 154 0
 487 0016 0193     	 str r3,[sp,#4]
 488              	.LVL69:
 139:../HostCommunication/src/EndpointRadars2glpulse.c **** 	/* send message containing frame data */
 489              	 .loc 1 139 0
 490 0018 0C46     	 mov r4,r1
 491 001a 0899     	 ldr r1,[sp,#32]
 492              	.LVL70:
 493              	.LBB169:
 494              	.LBB170:
 495              	 .loc 2 571 0
 496 001c 8DF82D50 	 strb r5,[sp,#45]
 497              	.LBE170:
 498              	.LBE169:
 160:../HostCommunication/src/EndpointRadars2glpulse.c **** 
 161:../HostCommunication/src/EndpointRadars2glpulse.c **** 	/* Selection of Antenna to output is currently only supported for 12 Bit ADC resolution! */
 162:../HostCommunication/src/EndpointRadars2glpulse.c **** 	if (frame_info.rx_mask == 1)
 499              	 .loc 1 162 0
 500 0020 013B     	 subs r3,r3,#1
 501 0022 01FB02F2 	 mul r2,r1,r2
 502 0026 012B     	 cmp r3,#1
 503 0028 02EB4202 	 add r2,r2,r2,lsl#1
 504 002c 94BF     	 ite ls
 505 002e 0127     	 movls r7,#1
 506 0030 0227     	 movhi r7,#2
 507              	.LVL71:
 508 0032 D100     	 lsls r1,r2,#3
 163:../HostCommunication/src/EndpointRadars2glpulse.c **** 	{
 164:../HostCommunication/src/EndpointRadars2glpulse.c **** 		num_used_ant = 1;
 165:../HostCommunication/src/EndpointRadars2glpulse.c **** 	}
 166:../HostCommunication/src/EndpointRadars2glpulse.c **** 	else if (frame_info.rx_mask == 2)
 167:../HostCommunication/src/EndpointRadars2glpulse.c **** 	{
 168:../HostCommunication/src/EndpointRadars2glpulse.c **** 		num_used_ant = 1;
 169:../HostCommunication/src/EndpointRadars2glpulse.c **** 	}
 170:../HostCommunication/src/EndpointRadars2glpulse.c **** 	else
 171:../HostCommunication/src/EndpointRadars2glpulse.c **** 		num_used_ant = 2;
 172:../HostCommunication/src/EndpointRadars2glpulse.c **** 
 173:../HostCommunication/src/EndpointRadars2glpulse.c **** 	/* setup message header */
 174:../HostCommunication/src/EndpointRadars2glpulse.c **** 	wr_payload_u8(message_header, 0, MSG_GET_RAW_DATA_RES);
 175:../HostCommunication/src/EndpointRadars2glpulse.c **** 	wr_payload_u32(message_header, 1, frame_info.frame_number);
 176:../HostCommunication/src/EndpointRadars2glpulse.c **** 	wr_payload_u32(message_header, 5, frame_info.num_chirps);
 177:../HostCommunication/src/EndpointRadars2glpulse.c **** 	wr_payload_u8(message_header, 9, num_used_ant);
 178:../HostCommunication/src/EndpointRadars2glpulse.c **** 	wr_payload_u32(message_header, 10, frame_info.num_samples_per_chirp);
 179:../HostCommunication/src/EndpointRadars2glpulse.c **** 	wr_payload_u8(message_header, 14, frame_info.rx_mask);
 180:../HostCommunication/src/EndpointRadars2glpulse.c **** 	wr_payload_u8(message_header, 15, frame_info.data_format);
 181:../HostCommunication/src/EndpointRadars2glpulse.c **** 	wr_payload_u8(message_header, 16, frame_info.adc_resolution);
 182:../HostCommunication/src/EndpointRadars2glpulse.c **** 	wr_payload_u8(message_header, 17, frame_info.interleaved_rx);
 183:../HostCommunication/src/EndpointRadars2glpulse.c **** 
 184:../HostCommunication/src/EndpointRadars2glpulse.c **** 	/* calculate size of data */
 185:../HostCommunication/src/EndpointRadars2glpulse.c **** 	/* calculate total number of bits and divide by 8 to get number of
 186:../HostCommunication/src/EndpointRadars2glpulse.c **** 	   bytes. Always round upwards */
 187:../HostCommunication/src/EndpointRadars2glpulse.c **** 	num_samples = frame_info.num_chirps *
 188:../HostCommunication/src/EndpointRadars2glpulse.c **** 				  frame_info.num_samples_per_chirp *
 189:../HostCommunication/src/EndpointRadars2glpulse.c **** 				  num_used_ant *
 190:../HostCommunication/src/EndpointRadars2glpulse.c **** 				  (frame_info.data_format == RADAR_RX_DATA_REAL ? 1 : 2);
 191:../HostCommunication/src/EndpointRadars2glpulse.c **** 
 192:../HostCommunication/src/EndpointRadars2glpulse.c **** 	data_size = num_samples * frame_info.adc_resolution;
 509              	 .loc 1 192 0
 510 0034 07FB01F1 	 mul r1,r7,r1
 511              	.LBB174:
 512              	.LBB171:
 570:C:/Users/Utente/Desktop/Tesi/Firmware_Software/DAVE project/S2GLP_Pulsed_Doppler/HostCommunication/inc\PayloadHelper.h ****     payload[offset    ] =  value        & 0xFF;
 513              	 .loc 2 570 0
 514 0038 2A0A     	 lsrs r2,r5,#8
 568:C:/Users/Utente/Desktop/Tesi/Firmware_Software/DAVE project/S2GLP_Pulsed_Doppler/HostCommunication/inc\PayloadHelper.h ****     payload[offset + 2] = (value >> 16) & 0xFF;
 515              	 .loc 2 568 0
 516 003a 4FEA156C 	 lsr ip,r5,#24
 569:C:/Users/Utente/Desktop/Tesi/Firmware_Software/DAVE project/S2GLP_Pulsed_Doppler/HostCommunication/inc\PayloadHelper.h ****     payload[offset + 1] = (value >>  8) & 0xFF;
 517              	 .loc 2 569 0
 518 003e 4FEA154E 	 lsr lr,r5,#16
 519              	.LBE171:
 520              	.LBE174:
 521              	.LBB175:
 522              	.LBB176:
 570:C:/Users/Utente/Desktop/Tesi/Firmware_Software/DAVE project/S2GLP_Pulsed_Doppler/HostCommunication/inc\PayloadHelper.h ****     payload[offset    ] =  value        & 0xFF;
 523              	 .loc 2 570 0
 524 0042 059B     	 ldr r3,[sp,#20]
 525              	.LBE176:
 526              	.LBE175:
 527              	.LBB182:
 528              	.LBB183:
 529 0044 089D     	 ldr r5,[sp,#32]
 530              	.LVL72:
 531              	 .loc 2 571 0
 532 0046 DDF82080 	 ldr r8,[sp,#32]
 533              	.LBE183:
 534              	.LBE182:
 535              	.LBB188:
 536              	.LBB177:
 537 004a DDF814A0 	 ldr r10,[sp,#20]
 538              	.LBE177:
 539              	.LBE188:
 540              	.LBB189:
 541              	.LBB190:
 241:C:/Users/Utente/Desktop/Tesi/Firmware_Software/DAVE project/S2GLP_Pulsed_Doppler/HostCommunication/inc\PayloadHelper.h ****     return sizeof(uint8_t);
 542              	 .loc 2 241 0
 543 004e 8DF83570 	 strb r7,[sp,#53]
 544              	.LBE190:
 545              	.LBE189:
 193:../HostCommunication/src/EndpointRadars2glpulse.c **** 	data_size = (data_size >> 3) + ((data_size & 0x07) ? 1 : 0);
 546              	 .loc 1 193 0
 547 0052 C908     	 lsrs r1,r1,#3
 548              	.LBB191:
 549              	.LBB192:
 241:C:/Users/Utente/Desktop/Tesi/Firmware_Software/DAVE project/S2GLP_Pulsed_Doppler/HostCommunication/inc\PayloadHelper.h ****     return sizeof(uint8_t);
 550              	 .loc 2 241 0
 551 0054 4FF04709 	 mov r9,#71
 552              	.LBE192:
 553              	.LBE191:
 194:../HostCommunication/src/EndpointRadars2glpulse.c **** 
 195:../HostCommunication/src/EndpointRadars2glpulse.c **** 	/* send message header */
 196:../HostCommunication/src/EndpointRadars2glpulse.c **** 	protocol_send_header(endpoint, data_size + sizeof(message_header));
 554              	 .loc 1 196 0
 555 0058 1231     	 adds r1,r1,#18
 556              	.LBB194:
 557              	.LBB178:
 568:C:/Users/Utente/Desktop/Tesi/Firmware_Software/DAVE project/S2GLP_Pulsed_Doppler/HostCommunication/inc\PayloadHelper.h ****     payload[offset + 2] = (value >> 16) & 0xFF;
 558              	 .loc 2 568 0
 559 005a 0026     	 movs r6,#0
 570:C:/Users/Utente/Desktop/Tesi/Firmware_Software/DAVE project/S2GLP_Pulsed_Doppler/HostCommunication/inc\PayloadHelper.h ****     payload[offset    ] =  value        & 0xFF;
 560              	 .loc 2 570 0
 561 005c 1B0A     	 lsrs r3,r3,#8
 562              	.LBE178:
 563              	.LBE194:
 564              	.LBB195:
 565              	.LBB196:
 241:C:/Users/Utente/Desktop/Tesi/Firmware_Software/DAVE project/S2GLP_Pulsed_Doppler/HostCommunication/inc\PayloadHelper.h ****     return sizeof(uint8_t);
 566              	 .loc 2 241 0
 567 005e 0127     	 movs r7,#1
 568              	.LVL73:
 569              	.LBE196:
 570              	.LBE195:
 571              	 .loc 1 196 0
 572 0060 89B2     	 uxth r1,r1
 573              	.LBB198:
 574              	.LBB199:
 241:C:/Users/Utente/Desktop/Tesi/Firmware_Software/DAVE project/S2GLP_Pulsed_Doppler/HostCommunication/inc\PayloadHelper.h ****     return sizeof(uint8_t);
 575              	 .loc 2 241 0
 576 0062 9DF804B0 	 ldrb fp,[sp,#4]
 577              	.LBE199:
 578              	.LBE198:
 579              	.LBB201:
 580              	.LBB193:
 581 0066 8DF82C90 	 strb r9,[sp,#44]
 582              	.LBE193:
 583              	.LBE201:
 584              	.LBB202:
 585              	.LBB184:
 570:C:/Users/Utente/Desktop/Tesi/Firmware_Software/DAVE project/S2GLP_Pulsed_Doppler/HostCommunication/inc\PayloadHelper.h ****     payload[offset    ] =  value        & 0xFF;
 586              	 .loc 2 570 0
 587 006a 2D0A     	 lsrs r5,r5,#8
 588              	.LBE184:
 589              	.LBE202:
 590              	.LBB203:
 591              	.LBB204:
 241:C:/Users/Utente/Desktop/Tesi/Firmware_Software/DAVE project/S2GLP_Pulsed_Doppler/HostCommunication/inc\PayloadHelper.h ****     return sizeof(uint8_t);
 592              	 .loc 2 241 0
 593 006c 4FF00C09 	 mov r9,#12
 594              	.LBE204:
 595              	.LBE203:
 596              	.LBB206:
 597              	.LBB172:
 570:C:/Users/Utente/Desktop/Tesi/Firmware_Software/DAVE project/S2GLP_Pulsed_Doppler/HostCommunication/inc\PayloadHelper.h ****     payload[offset    ] =  value        & 0xFF;
 598              	 .loc 2 570 0
 599 0070 8DF82E20 	 strb r2,[sp,#46]
 600              	.LBE172:
 601              	.LBE206:
 602              	.LBB207:
 603              	.LBB179:
 604 0074 8DF83230 	 strb r3,[sp,#50]
 605              	.LBE179:
 606              	.LBE207:
 607              	.LBB208:
 608              	.LBB173:
 568:C:/Users/Utente/Desktop/Tesi/Firmware_Software/DAVE project/S2GLP_Pulsed_Doppler/HostCommunication/inc\PayloadHelper.h ****     payload[offset + 2] = (value >> 16) & 0xFF;
 609              	 .loc 2 568 0
 610 0078 8DF830C0 	 strb ip,[sp,#48]
 569:C:/Users/Utente/Desktop/Tesi/Firmware_Software/DAVE project/S2GLP_Pulsed_Doppler/HostCommunication/inc\PayloadHelper.h ****     payload[offset + 1] = (value >>  8) & 0xFF;
 611              	 .loc 2 569 0
 612 007c 8DF82FE0 	 strb lr,[sp,#47]
 613              	.LBE173:
 614              	.LBE208:
 615              	.LBB209:
 616              	.LBB197:
 241:C:/Users/Utente/Desktop/Tesi/Firmware_Software/DAVE project/S2GLP_Pulsed_Doppler/HostCommunication/inc\PayloadHelper.h ****     return sizeof(uint8_t);
 617              	 .loc 2 241 0
 618 0080 8DF83B70 	 strb r7,[sp,#59]
 619              	.LBE197:
 620              	.LBE209:
 621              	.LBB210:
 622              	.LBB180:
 623              	 .loc 2 571 0
 624 0084 8DF831A0 	 strb r10,[sp,#49]
 625              	.LVL74:
 626              	.LBE180:
 627              	.LBE210:
 628              	.LBB211:
 629              	.LBB185:
 630 0088 8DF83680 	 strb r8,[sp,#54]
 631              	.LBE185:
 632              	.LBE211:
 633              	.LBB212:
 634              	.LBB200:
 241:C:/Users/Utente/Desktop/Tesi/Firmware_Software/DAVE project/S2GLP_Pulsed_Doppler/HostCommunication/inc\PayloadHelper.h ****     return sizeof(uint8_t);
 635              	 .loc 2 241 0
 636 008c 8DF83AB0 	 strb fp,[sp,#58]
 637              	.LBE200:
 638              	.LBE212:
 639              	.LBB213:
 640              	.LBB181:
 568:C:/Users/Utente/Desktop/Tesi/Firmware_Software/DAVE project/S2GLP_Pulsed_Doppler/HostCommunication/inc\PayloadHelper.h ****     payload[offset + 2] = (value >> 16) & 0xFF;
 641              	 .loc 2 568 0
 642 0090 8DF83460 	 strb r6,[sp,#52]
 569:C:/Users/Utente/Desktop/Tesi/Firmware_Software/DAVE project/S2GLP_Pulsed_Doppler/HostCommunication/inc\PayloadHelper.h ****     payload[offset + 1] = (value >>  8) & 0xFF;
 643              	 .loc 2 569 0
 644 0094 8DF83360 	 strb r6,[sp,#51]
 645              	.LBE181:
 646              	.LBE213:
 647              	.LBB214:
 648              	.LBB186:
 568:C:/Users/Utente/Desktop/Tesi/Firmware_Software/DAVE project/S2GLP_Pulsed_Doppler/HostCommunication/inc\PayloadHelper.h ****     payload[offset + 2] = (value >> 16) & 0xFF;
 649              	 .loc 2 568 0
 650 0098 8DF83960 	 strb r6,[sp,#57]
 569:C:/Users/Utente/Desktop/Tesi/Firmware_Software/DAVE project/S2GLP_Pulsed_Doppler/HostCommunication/inc\PayloadHelper.h ****     payload[offset + 1] = (value >>  8) & 0xFF;
 651              	 .loc 2 569 0
 652 009c 8DF83860 	 strb r6,[sp,#56]
 653              	.LBE186:
 654              	.LBE214:
 655              	.LBB215:
 656              	.LBB216:
 241:C:/Users/Utente/Desktop/Tesi/Firmware_Software/DAVE project/S2GLP_Pulsed_Doppler/HostCommunication/inc\PayloadHelper.h ****     return sizeof(uint8_t);
 657              	 .loc 2 241 0
 658 00a0 8DF83D60 	 strb r6,[sp,#61]
 659              	.LBE216:
 660              	.LBE215:
 661              	.LBB217:
 662              	.LBB187:
 570:C:/Users/Utente/Desktop/Tesi/Firmware_Software/DAVE project/S2GLP_Pulsed_Doppler/HostCommunication/inc\PayloadHelper.h ****     payload[offset    ] =  value        & 0xFF;
 663              	 .loc 2 570 0
 664 00a4 8DF83750 	 strb r5,[sp,#55]
 665              	.LBE187:
 666              	.LBE217:
 667              	.LBB218:
 668              	.LBB205:
 241:C:/Users/Utente/Desktop/Tesi/Firmware_Software/DAVE project/S2GLP_Pulsed_Doppler/HostCommunication/inc\PayloadHelper.h ****     return sizeof(uint8_t);
 669              	 .loc 2 241 0
 670 00a8 8DF83C90 	 strb r9,[sp,#60]
 671              	.LVL75:
 672              	.LBE205:
 673              	.LBE218:
 674              	 .loc 1 196 0
 675 00ac FFF7FEFF 	 bl protocol_send_header
 676              	.LVL76:
 197:../HostCommunication/src/EndpointRadars2glpulse.c **** 	protocol_send_payload(message_header, sizeof(message_header));
 677              	 .loc 1 197 0
 678 00b0 1221     	 movs r1,#18
 679 00b2 0BA8     	 add r0,sp,#44
 680              	.LVL77:
 681 00b4 FFF7FEFF 	 bl protocol_send_payload
 682              	.LVL78:
 198:../HostCommunication/src/EndpointRadars2glpulse.c **** 
 199:../HostCommunication/src/EndpointRadars2glpulse.c **** 	uint8_t *destPtr = &transport_buffer[0];
 200:../HostCommunication/src/EndpointRadars2glpulse.c **** 	uint8_t *srcPtr = p_acq_buf->p_acq_buf;
 201:../HostCommunication/src/EndpointRadars2glpulse.c **** 
 202:../HostCommunication/src/EndpointRadars2glpulse.c **** 	uint32_t channel_inc = frame_info.num_samples_per_chirp * sizeof(uint16_t);
 683              	 .loc 1 202 0
 684 00b8 08FA07F1 	 lsl r1,r8,r7
 685 00bc 4346     	 mov r3,r8
 686 00be 0391     	 str r1,[sp,#12]
 687              	.LBB219:
 203:../HostCommunication/src/EndpointRadars2glpulse.c **** 	uint32_t chirp_inc = channel_inc * frame_info.num_rx_antennas * (frame_info.data_format == RADAR_R
 204:../HostCommunication/src/EndpointRadars2glpulse.c **** 
 205:../HostCommunication/src/EndpointRadars2glpulse.c **** 	uint32_t processed_out_bytes = 0;
 206:../HostCommunication/src/EndpointRadars2glpulse.c **** 
 207:../HostCommunication/src/EndpointRadars2glpulse.c **** 	for (uint32_t chirp = 0; chirp < frame_info.num_chirps; chirp++)
 688              	 .loc 1 207 0
 689 00c0 5246     	 mov r2,r10
 690              	.LBE219:
 203:../HostCommunication/src/EndpointRadars2glpulse.c **** 	uint32_t chirp_inc = channel_inc * frame_info.num_rx_antennas * (frame_info.data_format == RADAR_R
 691              	 .loc 1 203 0
 692 00c2 D900     	 lsls r1,r3,#3
 200:../HostCommunication/src/EndpointRadars2glpulse.c **** 
 693              	 .loc 1 200 0
 694 00c4 E76A     	 ldr r7,[r4,#44]
 695              	.LVL79:
 203:../HostCommunication/src/EndpointRadars2glpulse.c **** 	uint32_t chirp_inc = channel_inc * frame_info.num_rx_antennas * (frame_info.data_format == RADAR_R
 696              	 .loc 1 203 0
 697 00c6 0791     	 str r1,[sp,#28]
 698              	.LVL80:
 699              	.LBB250:
 700              	 .loc 1 207 0
 701 00c8 002A     	 cmp r2,#0
 702 00ca 57D0     	 beq .L11
 703 00cc A8F10203 	 sub r3,r8,#2
 704 00d0 5B08     	 lsrs r3,r3,#1
 705 00d2 0133     	 adds r3,r3,#1
 706 00d4 03EB4303 	 add r3,r3,r3,lsl#1
 707 00d8 0693     	 str r3,[sp,#24]
 708 00da 9BB2     	 uxth r3,r3
 709 00dc 4146     	 mov r1,r8
 710              	.LVL81:
 711 00de 0993     	 str r3,[sp,#36]
 712 00e0 08F00103 	 and r3,r8,#1
 713 00e4 0293     	 str r3,[sp,#8]
 714 00e6 2B4C     	 ldr r4,.L34
 715              	.LVL82:
 716 00e8 8B00     	 lsls r3,r1,#2
 717 00ea 0437     	 adds r7,r7,#4
 718              	.LVL83:
 719 00ec 0493     	 str r3,[sp,#16]
 720              	.LVL84:
 721              	.L12:
 722              	.LBB220:
 723 00ee B946     	 mov r9,r7
 724 00f0 0025     	 movs r5,#0
 725              	.LVL85:
 726              	.L18:
 727              	.LBB221:
 208:../HostCommunication/src/EndpointRadars2glpulse.c **** 	{
 209:../HostCommunication/src/EndpointRadars2glpulse.c **** 		for (uint32_t ant_idx = 0; ant_idx < frame_info.num_rx_antennas; ant_idx++) // max Ant mask!
 210:../HostCommunication/src/EndpointRadars2glpulse.c **** 		{
 211:../HostCommunication/src/EndpointRadars2glpulse.c **** 			uint8_t mask = (1 << ant_idx);
 728              	 .loc 1 211 0
 729 00f2 0123     	 movs r3,#1
 212:../HostCommunication/src/EndpointRadars2glpulse.c **** 			if ((mask & frame_info.rx_mask) != 0)
 730              	 .loc 1 212 0
 731 00f4 019A     	 ldr r2,[sp,#4]
 211:../HostCommunication/src/EndpointRadars2glpulse.c **** 			if ((mask & frame_info.rx_mask) != 0)
 732              	 .loc 1 211 0
 733 00f6 AB40     	 lsls r3,r3,r5
 734              	 .loc 1 212 0
 735 00f8 1A42     	 tst r2,r3
 736 00fa 36D0     	 beq .L13
 737              	.LBB222:
 738              	.LBB223:
 739              	.LBB224:
 740              	.LBB225:
 741              	.LBB226:
 213:../HostCommunication/src/EndpointRadars2glpulse.c **** 			{
 214:../HostCommunication/src/EndpointRadars2glpulse.c **** 				uint32_t num_chan_per_ant = (frame_info.data_format == RADAR_RX_DATA_REAL ? 1 : 2);
 215:../HostCommunication/src/EndpointRadars2glpulse.c **** 				for (uint32_t ch_idx = 0; ch_idx < num_chan_per_ant; ch_idx++)
 216:../HostCommunication/src/EndpointRadars2glpulse.c **** 				{
 217:../HostCommunication/src/EndpointRadars2glpulse.c **** 					uint32_t in_offset = (chirp_inc * chirp) + (channel_inc * (ant_idx * num_chan_per_ant + ch_idx
 218:../HostCommunication/src/EndpointRadars2glpulse.c **** 					size_t out_offset = packing_helper_12Bit(destPtr, (uint16_t *)&srcPtr[in_offset], frame_info.n
 219:../HostCommunication/src/EndpointRadars2glpulse.c **** 
 220:../HostCommunication/src/EndpointRadars2glpulse.c **** 					protocol_send_payload((uint8_t*)destPtr, out_offset);
 221:../HostCommunication/src/EndpointRadars2glpulse.c **** 
 222:../HostCommunication/src/EndpointRadars2glpulse.c **** 					destPtr += out_offset;
 223:../HostCommunication/src/EndpointRadars2glpulse.c **** 					processed_out_bytes += out_offset;
 224:../HostCommunication/src/EndpointRadars2glpulse.c **** 				}
 225:../HostCommunication/src/EndpointRadars2glpulse.c **** 			}
 226:../HostCommunication/src/EndpointRadars2glpulse.c **** 		}
 227:../HostCommunication/src/EndpointRadars2glpulse.c **** 	}
 228:../HostCommunication/src/EndpointRadars2glpulse.c **** 
 229:../HostCommunication/src/EndpointRadars2glpulse.c **** 	protocol_send_tail();
 230:../HostCommunication/src/EndpointRadars2glpulse.c **** }
 231:../HostCommunication/src/EndpointRadars2glpulse.c **** 
 232:../HostCommunication/src/EndpointRadars2glpulse.c **** //============================================================================
 233:../HostCommunication/src/EndpointRadars2glpulse.c **** 
 234:../HostCommunication/src/EndpointRadars2glpulse.c **** uint16_t ep_radar_s2glpulse_handle_message(uint8_t endpoint, uint8_t *message_data,
 235:../HostCommunication/src/EndpointRadars2glpulse.c **** 										   uint16_t num_bytes, void* context)
 236:../HostCommunication/src/EndpointRadars2glpulse.c **** {
 237:../HostCommunication/src/EndpointRadars2glpulse.c **** 	switch (message_data[0])
 238:../HostCommunication/src/EndpointRadars2glpulse.c **** 	{
 239:../HostCommunication/src/EndpointRadars2glpulse.c **** 	case MSG_PARA_VALUES_IND:
 240:../HostCommunication/src/EndpointRadars2glpulse.c **** 		if (num_bytes == 1)
 241:../HostCommunication/src/EndpointRadars2glpulse.c **** 		{
 242:../HostCommunication/src/EndpointRadars2glpulse.c **** 			copyStore2comPara(&g_parameter_pulse);
 243:../HostCommunication/src/EndpointRadars2glpulse.c **** 			send_parameter_values(endpoint, &g_parameter_pulse);
 244:../HostCommunication/src/EndpointRadars2glpulse.c **** 
 245:../HostCommunication/src/EndpointRadars2glpulse.c **** 			return RADAR_ERR_OK;
 246:../HostCommunication/src/EndpointRadars2glpulse.c **** 		}
 247:../HostCommunication/src/EndpointRadars2glpulse.c **** 		break;
 248:../HostCommunication/src/EndpointRadars2glpulse.c **** 
 249:../HostCommunication/src/EndpointRadars2glpulse.c **** 	case MSG_PARA_VALUES_DEF_IND:
 250:../HostCommunication/src/EndpointRadars2glpulse.c **** 		if (num_bytes == 1)
 251:../HostCommunication/src/EndpointRadars2glpulse.c **** 		{
 252:../HostCommunication/src/EndpointRadars2glpulse.c **** 			static uint8_t message[512]; // allocate statically, rather then on the call stack!
 253:../HostCommunication/src/EndpointRadars2glpulse.c **** 			memset(message, 0, sizeof(message));
 254:../HostCommunication/src/EndpointRadars2glpulse.c **** 
 255:../HostCommunication/src/EndpointRadars2glpulse.c **** 			size_t offset = 0;
 256:../HostCommunication/src/EndpointRadars2glpulse.c **** 
 257:../HostCommunication/src/EndpointRadars2glpulse.c **** 			offset += wr_payload_u8(message, 0, MSG_PARA_VALUES_DEF_RES);
 258:../HostCommunication/src/EndpointRadars2glpulse.c **** 			offset += sizeof(uint16_t); // size if uint16
 259:../HostCommunication/src/EndpointRadars2glpulse.c **** 
 260:../HostCommunication/src/EndpointRadars2glpulse.c **** 			offset += wr_payload_float(message, offset, c_para_value_def_list.max_speed_mps_lower_boundary);
 261:../HostCommunication/src/EndpointRadars2glpulse.c **** 			offset += wr_payload_float(message, offset, c_para_value_def_list.max_speed_mps_upper_boundary);
 262:../HostCommunication/src/EndpointRadars2glpulse.c **** 			offset += wr_payload_float(message, offset, c_para_value_def_list.min_speed_mps_lower_boundary);
 263:../HostCommunication/src/EndpointRadars2glpulse.c **** 			offset += wr_payload_float(message, offset, c_para_value_def_list.min_speed_mps_upper_boundary);
 264:../HostCommunication/src/EndpointRadars2glpulse.c **** 			offset += wr_payload_float(message, offset, c_para_value_def_list.frame_time_sec_lower_boundary)
 265:../HostCommunication/src/EndpointRadars2glpulse.c **** 			offset += wr_payload_float(message, offset, c_para_value_def_list.frame_time_sec_upper_boundary)
 266:../HostCommunication/src/EndpointRadars2glpulse.c **** 
 267:../HostCommunication/src/EndpointRadars2glpulse.c **** 			uint8_t size_elems = sizeof(c_para_value_def_list.sample_list) / sizeof(uint16_t);
 268:../HostCommunication/src/EndpointRadars2glpulse.c **** 			offset += wr_payload_u8(message, offset, size_elems);
 269:../HostCommunication/src/EndpointRadars2glpulse.c **** 			for (int n = 0; n < size_elems; n++)
 270:../HostCommunication/src/EndpointRadars2glpulse.c **** 			{
 271:../HostCommunication/src/EndpointRadars2glpulse.c **** 				offset += wr_payload_u16(message, offset, c_para_value_def_list.sample_list[n]);
 272:../HostCommunication/src/EndpointRadars2glpulse.c **** 			}
 273:../HostCommunication/src/EndpointRadars2glpulse.c **** 
 274:../HostCommunication/src/EndpointRadars2glpulse.c **** 			offset += wr_payload_float(message, offset, c_para_value_def_list.sampling_freq_hz_lower_boundar
 275:../HostCommunication/src/EndpointRadars2glpulse.c **** 			offset += wr_payload_float(message, offset, c_para_value_def_list.sampling_freq_hz_upper_boundar
 276:../HostCommunication/src/EndpointRadars2glpulse.c **** 			offset += wr_payload_float(message, offset, c_para_value_def_list.doppler_sensitivity_nu_lower_b
 277:../HostCommunication/src/EndpointRadars2glpulse.c **** 			offset += wr_payload_float(message, offset, c_para_value_def_list.doppler_sensitivity_nu_upper_b
 278:../HostCommunication/src/EndpointRadars2glpulse.c **** 			offset += wr_payload_float(message, offset, c_para_value_def_list.motion_sensitivity_nu_lower_bo
 279:../HostCommunication/src/EndpointRadars2glpulse.c **** 			offset += wr_payload_float(message, offset, c_para_value_def_list.motion_sensitivity_nu_upper_bo
 280:../HostCommunication/src/EndpointRadars2glpulse.c **** 
 281:../HostCommunication/src/EndpointRadars2glpulse.c **** 			offset += wr_payload_u32(message, offset, c_para_value_def_list.number_of_skip_samples_nu_lower_
 282:../HostCommunication/src/EndpointRadars2glpulse.c **** 			offset += wr_payload_u32(message, offset, c_para_value_def_list.number_of_skip_samples_nu_upper_
 283:../HostCommunication/src/EndpointRadars2glpulse.c **** 
 284:../HostCommunication/src/EndpointRadars2glpulse.c **** 			offset += wr_payload_u32(message, offset, c_para_value_def_list.pulse_width_usec_lower_boundary)
 285:../HostCommunication/src/EndpointRadars2glpulse.c **** 			offset += wr_payload_u32(message, offset, c_para_value_def_list.pulse_width_usec_upper_boundary)
 286:../HostCommunication/src/EndpointRadars2glpulse.c **** 
 287:../HostCommunication/src/EndpointRadars2glpulse.c **** 			// write size values of the message!
 288:../HostCommunication/src/EndpointRadars2glpulse.c **** 			wr_payload_u16(message, 1, (uint16_t)offset);
 289:../HostCommunication/src/EndpointRadars2glpulse.c **** 
 290:../HostCommunication/src/EndpointRadars2glpulse.c **** 			/* send message */
 291:../HostCommunication/src/EndpointRadars2glpulse.c **** 			protocol_send_header(endpoint, offset);
 292:../HostCommunication/src/EndpointRadars2glpulse.c **** 			protocol_send_payload(message, offset);
 293:../HostCommunication/src/EndpointRadars2glpulse.c **** 			protocol_send_tail();
 294:../HostCommunication/src/EndpointRadars2glpulse.c **** 
 295:../HostCommunication/src/EndpointRadars2glpulse.c **** 			return RADAR_ERR_OK;
 296:../HostCommunication/src/EndpointRadars2glpulse.c **** 		}
 297:../HostCommunication/src/EndpointRadars2glpulse.c **** 		break;
 298:../HostCommunication/src/EndpointRadars2glpulse.c **** 
 299:../HostCommunication/src/EndpointRadars2glpulse.c **** 	case MSG_PARA_SET_VALUES_IND:
 300:../HostCommunication/src/EndpointRadars2glpulse.c **** 		if (num_bytes == 35)
 301:../HostCommunication/src/EndpointRadars2glpulse.c **** 		{
 302:../HostCommunication/src/EndpointRadars2glpulse.c **** 			size_t offset = 1; // skip id
 303:../HostCommunication/src/EndpointRadars2glpulse.c **** 
 304:../HostCommunication/src/EndpointRadars2glpulse.c **** 			g_parameter_pulse.max_speed_mps = rd_payload_float(message_data, offset);
 305:../HostCommunication/src/EndpointRadars2glpulse.c **** 			offset += sizeof(float);
 306:../HostCommunication/src/EndpointRadars2glpulse.c **** 			g_parameter_pulse.min_speed_mps = rd_payload_float(message_data, offset);
 307:../HostCommunication/src/EndpointRadars2glpulse.c **** 			offset += sizeof(float);
 308:../HostCommunication/src/EndpointRadars2glpulse.c **** 			g_parameter_pulse.frame_time_sec = rd_payload_float(message_data, offset);
 309:../HostCommunication/src/EndpointRadars2glpulse.c **** 			offset += sizeof(float);
 310:../HostCommunication/src/EndpointRadars2glpulse.c **** 			g_parameter_pulse.number_of_samples_nu = rd_payload_u16(message_data, offset);
 311:../HostCommunication/src/EndpointRadars2glpulse.c **** 			offset += sizeof(uint16_t);
 312:../HostCommunication/src/EndpointRadars2glpulse.c **** 			g_parameter_pulse.sampling_freq_hz = rd_payload_float(message_data, offset);
 313:../HostCommunication/src/EndpointRadars2glpulse.c **** 			offset += sizeof(float);
 314:../HostCommunication/src/EndpointRadars2glpulse.c **** 			g_parameter_pulse.doppler_sensitivity_nu = rd_payload_float(message_data, offset);
 315:../HostCommunication/src/EndpointRadars2glpulse.c **** 			offset += sizeof(float);
 316:../HostCommunication/src/EndpointRadars2glpulse.c **** 			g_parameter_pulse.motion_sensitivity_nu = rd_payload_float(message_data, offset);
 317:../HostCommunication/src/EndpointRadars2glpulse.c **** 			offset += sizeof(float);
 318:../HostCommunication/src/EndpointRadars2glpulse.c **** 			g_parameter_pulse.use_high_gain_doppler_bool = rd_payload_u8(message_data, offset);
 319:../HostCommunication/src/EndpointRadars2glpulse.c **** 			offset += sizeof(uint8_t);
 320:../HostCommunication/src/EndpointRadars2glpulse.c **** 			g_parameter_pulse.continuous_mode_bool = rd_payload_u8(message_data, offset);
 321:../HostCommunication/src/EndpointRadars2glpulse.c **** 			offset += sizeof(uint8_t);
 322:../HostCommunication/src/EndpointRadars2glpulse.c **** 			g_parameter_pulse.number_of_skip_samples_nu = rd_payload_u16(message_data, offset);
 323:../HostCommunication/src/EndpointRadars2glpulse.c **** 			offset += sizeof(uint16_t);
 324:../HostCommunication/src/EndpointRadars2glpulse.c **** 			g_parameter_pulse.pulse_width_usec = rd_payload_u32(message_data, offset);
 325:../HostCommunication/src/EndpointRadars2glpulse.c **** 			offset += sizeof(uint32_t);
 326:../HostCommunication/src/EndpointRadars2glpulse.c **** 
 327:../HostCommunication/src/EndpointRadars2glpulse.c **** 			uint32_t status = copyComPara2Store(&g_parameter_pulse);
 328:../HostCommunication/src/EndpointRadars2glpulse.c **** 			if (status)
 329:../HostCommunication/src/EndpointRadars2glpulse.c **** 			{
 330:../HostCommunication/src/EndpointRadars2glpulse.c **** 				/* send message */
 331:../HostCommunication/src/EndpointRadars2glpulse.c **** 				send_parameter_values(endpoint, &g_parameter_pulse);
 332:../HostCommunication/src/EndpointRadars2glpulse.c **** 
 333:../HostCommunication/src/EndpointRadars2glpulse.c **** 				/* inform other endpoints of the change */
 334:../HostCommunication/src/EndpointRadars2glpulse.c **** 				Radar_Handle_t radar_driver = (Radar_Handle_t)context;
 335:../HostCommunication/src/EndpointRadars2glpulse.c **** 
 336:../HostCommunication/src/EndpointRadars2glpulse.c **** 				protocol_broadcast_change(radar_driver, EP_RADAR_CHNG_CURRENT_CONSUMPTION);
 337:../HostCommunication/src/EndpointRadars2glpulse.c **** 				return RADAR_ERR_OK;
 338:../HostCommunication/src/EndpointRadars2glpulse.c **** 			}
 339:../HostCommunication/src/EndpointRadars2glpulse.c **** 			else
 340:../HostCommunication/src/EndpointRadars2glpulse.c **** 			{
 341:../HostCommunication/src/EndpointRadars2glpulse.c **** 				return RADAR_ERR_PARAMETER_OUT_OF_RANGE;
 342:../HostCommunication/src/EndpointRadars2glpulse.c **** 			}
 343:../HostCommunication/src/EndpointRadars2glpulse.c **** 		}
 344:../HostCommunication/src/EndpointRadars2glpulse.c **** 		/*
 345:../HostCommunication/src/EndpointRadars2glpulse.c **** 			else
 346:../HostCommunication/src/EndpointRadars2glpulse.c **** 				error("wrong message size!");
 347:../HostCommunication/src/EndpointRadars2glpulse.c **** 			*/
 348:../HostCommunication/src/EndpointRadars2glpulse.c **** 		break;
 349:../HostCommunication/src/EndpointRadars2glpulse.c **** 
 350:../HostCommunication/src/EndpointRadars2glpulse.c **** 	case MSG_RESULT_IND:
 351:../HostCommunication/src/EndpointRadars2glpulse.c **** 		if (num_bytes == 5)
 352:../HostCommunication/src/EndpointRadars2glpulse.c **** 		{
 353:../HostCommunication/src/EndpointRadars2glpulse.c **** 			uint16_t in_offset = 1;
 354:../HostCommunication/src/EndpointRadars2glpulse.c **** 			uint32_t repeat_count = rd_payload_u32(message_data, in_offset);
 355:../HostCommunication/src/EndpointRadars2glpulse.c **** 
 356:../HostCommunication/src/EndpointRadars2glpulse.c **** 			set_result_repeat_count(endpoint, repeat_count);
 357:../HostCommunication/src/EndpointRadars2glpulse.c **** 
 358:../HostCommunication/src/EndpointRadars2glpulse.c **** 			return RADAR_ERR_OK;
 359:../HostCommunication/src/EndpointRadars2glpulse.c **** 		}
 360:../HostCommunication/src/EndpointRadars2glpulse.c **** 		break;
 361:../HostCommunication/src/EndpointRadars2glpulse.c **** 
 362:../HostCommunication/src/EndpointRadars2glpulse.c **** 	case MSG_GET_SHIELD_INFO_IND:
 363:../HostCommunication/src/EndpointRadars2glpulse.c **** 		if (num_bytes == 1)
 364:../HostCommunication/src/EndpointRadars2glpulse.c **** 		{
 365:../HostCommunication/src/EndpointRadars2glpulse.c **** 
 366:../HostCommunication/src/EndpointRadars2glpulse.c **** 			static uint8_t message[512];
 367:../HostCommunication/src/EndpointRadars2glpulse.c **** 			uint16_t offset = 0;
 368:../HostCommunication/src/EndpointRadars2glpulse.c **** 
 369:../HostCommunication/src/EndpointRadars2glpulse.c **** 			uint32_t index = ds_get_board_variant();
 370:../HostCommunication/src/EndpointRadars2glpulse.c **** 
 371:../HostCommunication/src/EndpointRadars2glpulse.c **** 			if (index == 0 || index > sizeof(rf_shield_info) / sizeof(rf_shield_info[0]) + 1)
 372:../HostCommunication/src/EndpointRadars2glpulse.c **** 			{
 373:../HostCommunication/src/EndpointRadars2glpulse.c **** 				index = 1;
 374:../HostCommunication/src/EndpointRadars2glpulse.c **** 			}
 375:../HostCommunication/src/EndpointRadars2glpulse.c **** 
 376:../HostCommunication/src/EndpointRadars2glpulse.c **** 			pulse_rf_shield_info_t *p_info = &rf_shield_info[index - 1];
 377:../HostCommunication/src/EndpointRadars2glpulse.c **** 
 378:../HostCommunication/src/EndpointRadars2glpulse.c **** 			offset += wr_payload_u8(message, offset, MSG_GET_SHIELD_INFO_RES);
 379:../HostCommunication/src/EndpointRadars2glpulse.c **** 			offset += wr_payload_u32(message, offset, p_info->rf_frequency_khz);
 380:../HostCommunication/src/EndpointRadars2glpulse.c **** 			offset += wr_payload_u8(message, offset, p_info->major_rf_shield_version);
 381:../HostCommunication/src/EndpointRadars2glpulse.c **** 			offset += wr_payload_u8(message, offset, p_info->minor_rf_shield_version);
 382:../HostCommunication/src/EndpointRadars2glpulse.c **** 			offset += wr_payload_u8(message, offset, p_info->num_tx_antennas);
 383:../HostCommunication/src/EndpointRadars2glpulse.c **** 			offset += wr_payload_u8(message, offset, p_info->num_rx_antennas);
 384:../HostCommunication/src/EndpointRadars2glpulse.c **** 
 385:../HostCommunication/src/EndpointRadars2glpulse.c **** 			offset += wr_payload_string(message, offset, p_info->rf_shield_board_id);
 386:../HostCommunication/src/EndpointRadars2glpulse.c **** 			offset += wr_payload_string(message, offset, p_info->description);
 387:../HostCommunication/src/EndpointRadars2glpulse.c **** 			offset += wr_payload_string(message, offset, p_info->modulation);
 388:../HostCommunication/src/EndpointRadars2glpulse.c **** 
 389:../HostCommunication/src/EndpointRadars2glpulse.c **** 			/* send message */
 390:../HostCommunication/src/EndpointRadars2glpulse.c **** 			protocol_send_header(endpoint, offset);
 391:../HostCommunication/src/EndpointRadars2glpulse.c **** 			protocol_send_payload(message, offset);
 392:../HostCommunication/src/EndpointRadars2glpulse.c **** 			protocol_send_tail();
 393:../HostCommunication/src/EndpointRadars2glpulse.c **** 
 394:../HostCommunication/src/EndpointRadars2glpulse.c **** 			return RADAR_ERR_OK;
 395:../HostCommunication/src/EndpointRadars2glpulse.c **** 		}
 396:../HostCommunication/src/EndpointRadars2glpulse.c **** 		break;
 397:../HostCommunication/src/EndpointRadars2glpulse.c **** 
 398:../HostCommunication/src/EndpointRadars2glpulse.c **** 	case MSG_GET_RAW_DATA_IND:
 399:../HostCommunication/src/EndpointRadars2glpulse.c **** 		if (num_bytes == 5)
 400:../HostCommunication/src/EndpointRadars2glpulse.c **** 		{
 401:../HostCommunication/src/EndpointRadars2glpulse.c **** 			uint16_t in_offset = 1;
 402:../HostCommunication/src/EndpointRadars2glpulse.c **** 			uint32_t repeat_count = rd_payload_u32(message_data, in_offset);
 403:../HostCommunication/src/EndpointRadars2glpulse.c **** 
 404:../HostCommunication/src/EndpointRadars2glpulse.c **** 			set_raw_data_repeat_count(endpoint, repeat_count);
 405:../HostCommunication/src/EndpointRadars2glpulse.c **** 
 406:../HostCommunication/src/EndpointRadars2glpulse.c **** 			return RADAR_ERR_OK;
 407:../HostCommunication/src/EndpointRadars2glpulse.c **** 		}
 408:../HostCommunication/src/EndpointRadars2glpulse.c **** 		break;
 409:../HostCommunication/src/EndpointRadars2glpulse.c **** 
 410:../HostCommunication/src/EndpointRadars2glpulse.c **** 	default:
 411:../HostCommunication/src/EndpointRadars2glpulse.c **** 		break;
 412:../HostCommunication/src/EndpointRadars2glpulse.c **** 	}
 413:../HostCommunication/src/EndpointRadars2glpulse.c **** 	return PROTOCOL_STATUS_INVALID_PAYLOAD;
 414:../HostCommunication/src/EndpointRadars2glpulse.c **** }
 415:../HostCommunication/src/EndpointRadars2glpulse.c **** 
 416:../HostCommunication/src/EndpointRadars2glpulse.c **** //============================================================================
 417:../HostCommunication/src/EndpointRadars2glpulse.c **** 
 418:../HostCommunication/src/EndpointRadars2glpulse.c **** void ep_radar_s2glpulse_handle_change(uint8_t endpoint, void* context, uint32_t what)
 419:../HostCommunication/src/EndpointRadars2glpulse.c **** {
 420:../HostCommunication/src/EndpointRadars2glpulse.c **** 	Radar_Handle_t radar_driver = (Radar_Handle_t)context;
 421:../HostCommunication/src/EndpointRadars2glpulse.c **** 
 422:../HostCommunication/src/EndpointRadars2glpulse.c **** 	(void)radar_driver; /* Suppress compiler warnings of unused variable */
 423:../HostCommunication/src/EndpointRadars2glpulse.c **** 
 424:../HostCommunication/src/EndpointRadars2glpulse.c **** 	switch (what)
 425:../HostCommunication/src/EndpointRadars2glpulse.c **** 	{
 426:../HostCommunication/src/EndpointRadars2glpulse.c **** 	default:
 427:../HostCommunication/src/EndpointRadars2glpulse.c **** 		break;
 428:../HostCommunication/src/EndpointRadars2glpulse.c **** 	}
 429:../HostCommunication/src/EndpointRadars2glpulse.c **** }
 430:../HostCommunication/src/EndpointRadars2glpulse.c **** 
 431:../HostCommunication/src/EndpointRadars2glpulse.c **** /*
 432:../HostCommunication/src/EndpointRadars2glpulse.c **** ==============================================================================
 433:../HostCommunication/src/EndpointRadars2glpulse.c ****   7. LOCAL FUNCTIONS
 434:../HostCommunication/src/EndpointRadars2glpulse.c **** ==============================================================================
 435:../HostCommunication/src/EndpointRadars2glpulse.c ****  */
 436:../HostCommunication/src/EndpointRadars2glpulse.c **** 
 437:../HostCommunication/src/EndpointRadars2glpulse.c **** static size_t packing_helper_12Bit(uint8_t *p_dest, uint16_t *p_src, size_t numSamples)
 438:../HostCommunication/src/EndpointRadars2glpulse.c **** {
 439:../HostCommunication/src/EndpointRadars2glpulse.c **** 	/* numBytes needs to be divided by 2 */
 440:../HostCommunication/src/EndpointRadars2glpulse.c **** 	if ((numSamples & 1) != 0)
 742              	 .loc 1 440 0
 743 00fc 029B     	 ldr r3,[sp,#8]
 744              	.LBE226:
 745              	.LBE225:
 746              	.LBE224:
 747              	.LBE223:
 748              	.LBE222:
 749 00fe C846     	 mov r8,r9
 750 0100 4FF0020A 	 mov r10,#2
 751              	.LVL86:
 752              	.LBB246:
 753              	.LBB244:
 754              	.LBB239:
 755              	.LBB235:
 756              	.LBB231:
 757 0104 8BB1     	 cbz r3,.L33
 758              	.LVL87:
 759              	.L20:
 760 0106 4FF6FF71 	 movw r1,#65535
 441:../HostCommunication/src/EndpointRadars2glpulse.c **** 		return -1;
 761              	 .loc 1 441 0
 762 010a 4FF0FF3B 	 mov fp,#-1
 763              	.LVL88:
 764              	.L14:
 765 010e 039B     	 ldr r3,[sp,#12]
 766              	.LBE231:
 767              	.LBE235:
 220:../HostCommunication/src/EndpointRadars2glpulse.c **** 
 768              	 .loc 1 220 0
 769 0110 2046     	 mov r0,r4
 770 0112 9844     	 add r8,r8,r3
 771 0114 FFF7FEFF 	 bl protocol_send_payload
 772              	.LVL89:
 773              	.LBE239:
 215:../HostCommunication/src/EndpointRadars2glpulse.c **** 				{
 774              	 .loc 1 215 0
 775 0118 BAF1010F 	 cmp r10,#1
 776              	.LBB240:
 222:../HostCommunication/src/EndpointRadars2glpulse.c **** 					processed_out_bytes += out_offset;
 777              	 .loc 1 222 0
 778 011c 5C44     	 add r4,r4,fp
 779              	.LVL90:
 780              	.LBE240:
 215:../HostCommunication/src/EndpointRadars2glpulse.c **** 				{
 781              	 .loc 1 215 0
 782 011e 24D0     	 beq .L13
 783              	.LBB241:
 784              	.LBB236:
 785              	.LBB232:
 440:../HostCommunication/src/EndpointRadars2glpulse.c **** 		return -1;
 786              	 .loc 1 440 0
 787 0120 029B     	 ldr r3,[sp,#8]
 788              	.LBE232:
 789              	.LBE236:
 790              	.LBE241:
 791 0122 4FF0010A 	 mov r10,#1
 792              	.LVL91:
 793              	.LBB242:
 794              	.LBB237:
 795              	.LBB233:
 796 0126 002B     	 cmp r3,#0
 797 0128 EDD1     	 bne .L20
 798              	.LVL92:
 799              	.L33:
 442:../HostCommunication/src/EndpointRadars2glpulse.c **** 
 443:../HostCommunication/src/EndpointRadars2glpulse.c **** 	size_t   processed_output_bytes = 0;
 444:../HostCommunication/src/EndpointRadars2glpulse.c **** 
 445:../HostCommunication/src/EndpointRadars2glpulse.c **** 	while (numSamples >= 2)
 800              	 .loc 1 445 0
 801 012a 089B     	 ldr r3,[sp,#32]
 802 012c 012B     	 cmp r3,#1
 803 012e 2CD9     	 bls .L21
 804 0130 069B     	 ldr r3,[sp,#24]
 805 0132 4146     	 mov r1,r8
 806 0134 04EB030C 	 add ip,r4,r3
 807 0138 2246     	 mov r2,r4
 808              	.LVL93:
 809              	.L16:
 810              	.LBB227:
 446:../HostCommunication/src/EndpointRadars2glpulse.c **** 	{
 447:../HostCommunication/src/EndpointRadars2glpulse.c **** 		/* pack two samples into one 32 bit word */
 448:../HostCommunication/src/EndpointRadars2glpulse.c **** 		uint32_t packed_word;
 449:../HostCommunication/src/EndpointRadars2glpulse.c **** 		packed_word  = *p_src++;
 450:../HostCommunication/src/EndpointRadars2glpulse.c **** 		packed_word |= *p_src++ << 12;
 811              	 .loc 1 450 0
 812 013a 31F8020C 	 ldrh r0,[r1,#-2]
 449:../HostCommunication/src/EndpointRadars2glpulse.c **** 		packed_word |= *p_src++ << 12;
 813              	 .loc 1 449 0
 814 013e 31F8043C 	 ldrh r3,[r1,#-4]
 815              	.LVL94:
 816              	 .loc 1 450 0
 817 0142 43EA0033 	 orr r3,r3,r0,lsl#12
 818              	.LVL95:
 819              	.LBB228:
 820              	.LBB229:
 568:C:/Users/Utente/Desktop/Tesi/Firmware_Software/DAVE project/S2GLP_Pulsed_Doppler/HostCommunication/inc\PayloadHelper.h ****     payload[offset + 2] = (value >> 16) & 0xFF;
 821              	 .loc 2 568 0
 822 0146 180E     	 lsrs r0,r3,#24
 823 0148 D070     	 strb r0,[r2,#3]
 569:C:/Users/Utente/Desktop/Tesi/Firmware_Software/DAVE project/S2GLP_Pulsed_Doppler/HostCommunication/inc\PayloadHelper.h ****     payload[offset + 1] = (value >>  8) & 0xFF;
 824              	 .loc 2 569 0
 825 014a 4FEA134E 	 lsr lr,r3,#16
 570:C:/Users/Utente/Desktop/Tesi/Firmware_Software/DAVE project/S2GLP_Pulsed_Doppler/HostCommunication/inc\PayloadHelper.h ****     payload[offset    ] =  value        & 0xFF;
 826              	 .loc 2 570 0
 827 014e 180A     	 lsrs r0,r3,#8
 569:C:/Users/Utente/Desktop/Tesi/Firmware_Software/DAVE project/S2GLP_Pulsed_Doppler/HostCommunication/inc\PayloadHelper.h ****     payload[offset + 1] = (value >>  8) & 0xFF;
 828              	 .loc 2 569 0
 829 0150 82F802E0 	 strb lr,[r2,#2]
 570:C:/Users/Utente/Desktop/Tesi/Firmware_Software/DAVE project/S2GLP_Pulsed_Doppler/HostCommunication/inc\PayloadHelper.h ****     payload[offset    ] =  value        & 0xFF;
 830              	 .loc 2 570 0
 831 0154 5070     	 strb r0,[r2,#1]
 832              	 .loc 2 571 0
 833 0156 02F8033B 	 strb r3,[r2],#3
 834              	.LVL96:
 835              	.LBE229:
 836              	.LBE228:
 837              	.LBE227:
 445:../HostCommunication/src/EndpointRadars2glpulse.c **** 	{
 838              	 .loc 1 445 0
 839 015a 6245     	 cmp r2,ip
 840 015c 01F10401 	 add r1,r1,#4
 841              	.LVL97:
 842 0160 EBD1     	 bne .L16
 843              	.LBB230:
 451:../HostCommunication/src/EndpointRadars2glpulse.c **** 
 452:../HostCommunication/src/EndpointRadars2glpulse.c **** 		/* write packed word into buffer */
 453:../HostCommunication/src/EndpointRadars2glpulse.c **** 		wr_payload_u32(p_dest, 0, packed_word);
 454:../HostCommunication/src/EndpointRadars2glpulse.c **** 		p_dest += 3;
 455:../HostCommunication/src/EndpointRadars2glpulse.c **** 
 456:../HostCommunication/src/EndpointRadars2glpulse.c **** 		numSamples -= 2;
 457:../HostCommunication/src/EndpointRadars2glpulse.c **** 		processed_output_bytes += 3;
 844              	 .loc 1 457 0
 845 0162 069B     	 ldr r3,[sp,#24]
 846              	.LVL98:
 847              	.LBE230:
 445:../HostCommunication/src/EndpointRadars2glpulse.c **** 	{
 848              	 .loc 1 445 0
 849 0164 0999     	 ldr r1,[sp,#36]
 850              	.LVL99:
 458:../HostCommunication/src/EndpointRadars2glpulse.c **** 	}
 459:../HostCommunication/src/EndpointRadars2glpulse.c **** 
 460:../HostCommunication/src/EndpointRadars2glpulse.c **** 	return processed_output_bytes;
 851              	 .loc 1 460 0
 852 0166 9B46     	 mov fp,r3
 853 0168 D1E7     	 b .L14
 854              	.LVL100:
 855              	.L13:
 856 016a 049B     	 ldr r3,[sp,#16]
 857 016c 9944     	 add r9,r9,r3
 858              	.LBE233:
 859              	.LBE237:
 860              	.LBE242:
 861              	.LBE244:
 862              	.LBE246:
 863              	.LBE221:
 209:../HostCommunication/src/EndpointRadars2glpulse.c **** 		{
 864              	 .loc 1 209 0 discriminator 2
 865 016e 55B1     	 cbz r5,.L23
 866 0170 079B     	 ldr r3,[sp,#28]
 867 0172 1F44     	 add r7,r7,r3
 868              	.LBE220:
 207:../HostCommunication/src/EndpointRadars2glpulse.c **** 	{
 869              	 .loc 1 207 0 discriminator 2
 870 0174 059B     	 ldr r3,[sp,#20]
 871 0176 0136     	 adds r6,r6,#1
 872              	.LVL101:
 873 0178 B342     	 cmp r3,r6
 874 017a B8D1     	 bne .L12
 875              	.LVL102:
 876              	.L11:
 877              	.LBE250:
 229:../HostCommunication/src/EndpointRadars2glpulse.c **** }
 878              	 .loc 1 229 0
 879 017c FFF7FEFF 	 bl protocol_send_tail
 880              	.LVL103:
 230:../HostCommunication/src/EndpointRadars2glpulse.c **** 
 881              	 .loc 1 230 0
 882 0180 11B0     	 add sp,sp,#68
 883              	.LCFI5:
 884              	 .cfi_remember_state
 885              	 .cfi_def_cfa_offset 36
 886              	 
 887 0182 BDE8F08F 	 pop {r4,r5,r6,r7,r8,r9,r10,fp,pc}
 888              	.LVL104:
 889              	.L23:
 890              	.LCFI6:
 891              	 .cfi_restore_state
 892              	.LBB251:
 893              	.LBB249:
 894 0186 0125     	 movs r5,#1
 895              	.LVL105:
 896 0188 B3E7     	 b .L18
 897              	.LVL106:
 898              	.L21:
 899              	.LBB248:
 900              	.LBB247:
 901              	.LBB245:
 902              	.LBB243:
 903              	.LBB238:
 904              	.LBB234:
 445:../HostCommunication/src/EndpointRadars2glpulse.c **** 	{
 905              	 .loc 1 445 0
 906 018a 029B     	 ldr r3,[sp,#8]
 907              	.LVL107:
 908 018c 1946     	 mov r1,r3
 909              	 .loc 1 460 0
 910 018e 9B46     	 mov fp,r3
 911 0190 BDE7     	 b .L14
 912              	.L35:
 913 0192 00BF     	 .align 2
 914              	.L34:
 915 0194 00000000 	 .word .LANCHOR3
 916              	.LBE234:
 917              	.LBE238:
 918              	.LBE243:
 919              	.LBE245:
 920              	.LBE247:
 921              	.LBE248:
 922              	.LBE249:
 923              	.LBE251:
 924              	 .cfi_endproc
 925              	.LFE548:
 927              	 .section .text.ep_radar_s2glpulse_handle_message,"ax",%progbits
 928              	 .align 2
 929              	 .global ep_radar_s2glpulse_handle_message
 930              	 .thumb
 931              	 .thumb_func
 933              	ep_radar_s2glpulse_handle_message:
 934              	.LFB549:
 236:../HostCommunication/src/EndpointRadars2glpulse.c **** 	switch (message_data[0])
 935              	 .loc 1 236 0
 936              	 .cfi_startproc
 937              	 
 938              	 
 939              	.LVL108:
 940 0000 2DE9F04F 	 push {r4,r5,r6,r7,r8,r9,r10,fp,lr}
 941              	.LCFI7:
 942              	 .cfi_def_cfa_offset 36
 943              	 .cfi_offset 4,-36
 944              	 .cfi_offset 5,-32
 945              	 .cfi_offset 6,-28
 946              	 .cfi_offset 7,-24
 947              	 .cfi_offset 8,-20
 948              	 .cfi_offset 9,-16
 949              	 .cfi_offset 10,-12
 950              	 .cfi_offset 11,-8
 951              	 .cfi_offset 14,-4
 952 0004 0446     	 mov r4,r0
 237:../HostCommunication/src/EndpointRadars2glpulse.c **** 	{
 953              	 .loc 1 237 0
 954 0006 0878     	 ldrb r0,[r1]
 955              	.LVL109:
 956 0008 3038     	 subs r0,r0,#48
 236:../HostCommunication/src/EndpointRadars2glpulse.c **** 	switch (message_data[0])
 957              	 .loc 1 236 0
 958 000a 89B0     	 sub sp,sp,#36
 959              	.LCFI8:
 960              	 .cfi_def_cfa_offset 72
 237:../HostCommunication/src/EndpointRadars2glpulse.c **** 	{
 961              	 .loc 1 237 0
 962 000c 1628     	 cmp r0,#22
 963 000e 1BD8     	 bhi .L53
 964 0010 DFE810F0 	 tbh [pc,r0,lsl#1]
 965              	.L39:
 966 0014 1F00     	 .2byte (.L38-.L39)/2
 967 0016 1A00     	 .2byte (.L53-.L39)/2
 968 0018 2A00     	 .2byte (.L40-.L39)/2
 969 001a 1A00     	 .2byte (.L53-.L39)/2
 970 001c F300     	 .2byte (.L41-.L39)/2
 971 001e 8101     	 .2byte (.L42-.L39)/2
 972 0020 1A00     	 .2byte (.L53-.L39)/2
 973 0022 1A00     	 .2byte (.L53-.L39)/2
 974 0024 1A00     	 .2byte (.L53-.L39)/2
 975 0026 1A00     	 .2byte (.L53-.L39)/2
 976 0028 1A00     	 .2byte (.L53-.L39)/2
 977 002a 1A00     	 .2byte (.L53-.L39)/2
 978 002c 1A00     	 .2byte (.L53-.L39)/2
 979 002e 1A00     	 .2byte (.L53-.L39)/2
 980 0030 1A00     	 .2byte (.L53-.L39)/2
 981 0032 1A00     	 .2byte (.L53-.L39)/2
 982 0034 9A01     	 .2byte (.L43-.L39)/2
 983 0036 1A00     	 .2byte (.L53-.L39)/2
 984 0038 1A00     	 .2byte (.L53-.L39)/2
 985 003a 1A00     	 .2byte (.L53-.L39)/2
 986 003c 1A00     	 .2byte (.L53-.L39)/2
 987 003e 1A00     	 .2byte (.L53-.L39)/2
 988 0040 1700     	 .2byte (.L44-.L39)/2
 989              	 .p2align 1
 990              	.L44:
 399:../HostCommunication/src/EndpointRadars2glpulse.c **** 		{
 991              	 .loc 1 399 0
 992 0042 052A     	 cmp r2,#5
 993 0044 00F0CC81 	 beq .L55
 994              	.L53:
 413:../HostCommunication/src/EndpointRadars2glpulse.c **** }
 995              	 .loc 1 413 0
 996 0048 4FF6FF70 	 movw r0,#65535
 997              	.LVL110:
 998              	.L37:
 414:../HostCommunication/src/EndpointRadars2glpulse.c **** 
 999              	 .loc 1 414 0
 1000 004c 09B0     	 add sp,sp,#36
 1001              	.LCFI9:
 1002              	 .cfi_remember_state
 1003              	 .cfi_def_cfa_offset 36
 1004              	 
 1005 004e BDE8F08F 	 pop {r4,r5,r6,r7,r8,r9,r10,fp,pc}
 1006              	.LVL111:
 1007              	.L38:
 1008              	.LCFI10:
 1009              	 .cfi_restore_state
 240:../HostCommunication/src/EndpointRadars2glpulse.c **** 		{
 1010              	 .loc 1 240 0
 1011 0052 012A     	 cmp r2,#1
 1012 0054 F8D1     	 bne .L53
 242:../HostCommunication/src/EndpointRadars2glpulse.c **** 			send_parameter_values(endpoint, &g_parameter_pulse);
 1013              	 .loc 1 242 0
 1014 0056 B948     	 ldr r0,.L57
 1015 0058 FFF7FEFF 	 bl copyStore2comPara
 1016              	.LVL112:
 243:../HostCommunication/src/EndpointRadars2glpulse.c **** 
 1017              	 .loc 1 243 0
 1018 005c 2046     	 mov r0,r4
 1019 005e B749     	 ldr r1,.L57
 1020 0060 FFF7FEFF 	 bl send_parameter_values
 1021              	.LVL113:
 245:../HostCommunication/src/EndpointRadars2glpulse.c **** 		}
 1022              	 .loc 1 245 0
 1023 0064 0020     	 movs r0,#0
 1024 0066 F1E7     	 b .L37
 1025              	.LVL114:
 1026              	.L40:
 250:../HostCommunication/src/EndpointRadars2glpulse.c **** 		{
 1027              	 .loc 1 250 0
 1028 0068 012A     	 cmp r2,#1
 1029 006a EDD1     	 bne .L53
 1030              	.LBB313:
 253:../HostCommunication/src/EndpointRadars2glpulse.c **** 
 1031              	 .loc 1 253 0
 1032 006c B44D     	 ldr r5,.L57+4
 260:../HostCommunication/src/EndpointRadars2glpulse.c **** 			offset += wr_payload_float(message, offset, c_para_value_def_list.max_speed_mps_upper_boundary);
 1033              	 .loc 1 260 0
 1034 006e B54F     	 ldr r7,.L57+8
 253:../HostCommunication/src/EndpointRadars2glpulse.c **** 
 1035              	 .loc 1 253 0
 1036 0070 0021     	 movs r1,#0
 1037              	.LVL115:
 1038 0072 4FF40072 	 mov r2,#512
 1039              	.LVL116:
 1040 0076 2846     	 mov r0,r5
 1041 0078 FFF7FEFF 	 bl memset
 1042              	.LVL117:
 1043              	.LBB314:
 1044              	.LBB315:
 241:C:/Users/Utente/Desktop/Tesi/Firmware_Software/DAVE project/S2GLP_Pulsed_Doppler/HostCommunication/inc\PayloadHelper.h ****     return sizeof(uint8_t);
 1045              	 .loc 2 241 0
 1046 007c 3323     	 movs r3,#51
 1047 007e 2B70     	 strb r3,[r5]
 1048              	.LVL118:
 1049              	.LBE315:
 1050              	.LBE314:
 260:../HostCommunication/src/EndpointRadars2glpulse.c **** 			offset += wr_payload_float(message, offset, c_para_value_def_list.max_speed_mps_upper_boundary);
 1051              	 .loc 1 260 0
 1052 0080 3A68     	 ldr r2,[r7]
 1053 0082 0321     	 movs r1,#3
 1054 0084 2846     	 mov r0,r5
 1055 0086 FFF7FEFF 	 bl wr_payload_float
 1056              	.LVL119:
 1057 008a C61C     	 adds r6,r0,#3
 1058              	.LVL120:
 261:../HostCommunication/src/EndpointRadars2glpulse.c **** 			offset += wr_payload_float(message, offset, c_para_value_def_list.min_speed_mps_lower_boundary);
 1059              	 .loc 1 261 0
 1060 008c 3146     	 mov r1,r6
 1061 008e 7A68     	 ldr r2,[r7,#4]
 1062 0090 2846     	 mov r0,r5
 1063 0092 FFF7FEFF 	 bl wr_payload_float
 1064              	.LVL121:
 1065 0096 0644     	 add r6,r6,r0
 1066              	.LVL122:
 262:../HostCommunication/src/EndpointRadars2glpulse.c **** 			offset += wr_payload_float(message, offset, c_para_value_def_list.min_speed_mps_upper_boundary);
 1067              	 .loc 1 262 0
 1068 0098 3146     	 mov r1,r6
 1069 009a BA68     	 ldr r2,[r7,#8]
 1070 009c 2846     	 mov r0,r5
 1071 009e FFF7FEFF 	 bl wr_payload_float
 1072              	.LVL123:
 1073 00a2 0644     	 add r6,r6,r0
 1074              	.LVL124:
 263:../HostCommunication/src/EndpointRadars2glpulse.c **** 			offset += wr_payload_float(message, offset, c_para_value_def_list.frame_time_sec_lower_boundary)
 1075              	 .loc 1 263 0
 1076 00a4 3146     	 mov r1,r6
 1077 00a6 FA68     	 ldr r2,[r7,#12]
 1078 00a8 2846     	 mov r0,r5
 1079 00aa FFF7FEFF 	 bl wr_payload_float
 1080              	.LVL125:
 1081 00ae 0644     	 add r6,r6,r0
 1082              	.LVL126:
 264:../HostCommunication/src/EndpointRadars2glpulse.c **** 			offset += wr_payload_float(message, offset, c_para_value_def_list.frame_time_sec_upper_boundary)
 1083              	 .loc 1 264 0
 1084 00b0 3146     	 mov r1,r6
 1085 00b2 3A69     	 ldr r2,[r7,#16]
 1086 00b4 2846     	 mov r0,r5
 1087 00b6 FFF7FEFF 	 bl wr_payload_float
 1088              	.LVL127:
 1089 00ba 0644     	 add r6,r6,r0
 1090              	.LVL128:
 265:../HostCommunication/src/EndpointRadars2glpulse.c **** 
 1091              	 .loc 1 265 0
 1092 00bc 3146     	 mov r1,r6
 1093 00be 7A69     	 ldr r2,[r7,#20]
 1094 00c0 2846     	 mov r0,r5
 1095 00c2 FFF7FEFF 	 bl wr_payload_float
 1096              	.LVL129:
 1097              	.LBB316:
 271:../HostCommunication/src/EndpointRadars2glpulse.c **** 			}
 1098              	 .loc 1 271 0
 1099 00c6 B7F81CC0 	 ldrh ip,[r7,#28]
 1100 00ca B7F81EE0 	 ldrh lr,[r7,#30]
 1101 00ce 398B     	 ldrh r1,[r7,#24]
 1102 00d0 B7F81A80 	 ldrh r8,[r7,#26]
 1103              	.LBE316:
 274:../HostCommunication/src/EndpointRadars2glpulse.c **** 			offset += wr_payload_float(message, offset, c_para_value_def_list.sampling_freq_hz_upper_boundar
 1104              	 .loc 1 274 0
 1105 00d4 3A6A     	 ldr r2,[r7,#32]
 265:../HostCommunication/src/EndpointRadars2glpulse.c **** 
 1106              	 .loc 1 265 0
 1107 00d6 3044     	 add r0,r0,r6
 1108              	.LVL130:
 1109              	.LBB321:
 1110              	.LBB317:
 1111              	.LBB318:
 548:C:/Users/Utente/Desktop/Tesi/Firmware_Software/DAVE project/S2GLP_Pulsed_Doppler/HostCommunication/inc\PayloadHelper.h ****     payload[offset    ] =  value        & 0xFF;
 1112              	 .loc 2 548 0
 1113 00d8 2B18     	 adds r3,r5,r0
 1114 00da 00F10906 	 add r6,r0,#9
 1115              	.LBE318:
 1116              	.LBE317:
 1117              	.LBE321:
 1118              	.LBB322:
 1119              	.LBB323:
 241:C:/Users/Utente/Desktop/Tesi/Firmware_Software/DAVE project/S2GLP_Pulsed_Doppler/HostCommunication/inc\PayloadHelper.h ****     return sizeof(uint8_t);
 1120              	 .loc 2 241 0
 1121 00de 4FF00409 	 mov r9,#4
 1122 00e2 05F80090 	 strb r9,[r5,r0]
 1123              	.LVL131:
 1124              	.LBE323:
 1125              	.LBE322:
 1126              	.LBB324:
 1127              	.LBB320:
 1128              	.LBB319:
 548:C:/Users/Utente/Desktop/Tesi/Firmware_Software/DAVE project/S2GLP_Pulsed_Doppler/HostCommunication/inc\PayloadHelper.h ****     payload[offset    ] =  value        & 0xFF;
 1129              	 .loc 2 548 0
 1130 00e6 4FEA1C2A 	 lsr r10,ip,#8
 1131 00ea 4FEA1E29 	 lsr r9,lr,#8
 1132 00ee 0196     	 str r6,[sp,#4]
 1133 00f0 4FEA112B 	 lsr fp,r1,#8
 1134 00f4 4FEA1826 	 lsr r6,r8,#8
 549:C:/Users/Utente/Desktop/Tesi/Firmware_Software/DAVE project/S2GLP_Pulsed_Doppler/HostCommunication/inc\PayloadHelper.h ****     return sizeof(uint16_t);
 1135              	 .loc 2 549 0
 1136 00f8 83F805C0 	 strb ip,[r3,#5]
 1137 00fc 83F807E0 	 strb lr,[r3,#7]
 1138 0100 5970     	 strb r1,[r3,#1]
 1139              	.LVL132:
 548:C:/Users/Utente/Desktop/Tesi/Firmware_Software/DAVE project/S2GLP_Pulsed_Doppler/HostCommunication/inc\PayloadHelper.h ****     payload[offset    ] =  value        & 0xFF;
 1140              	 .loc 2 548 0
 1141 0102 83F802B0 	 strb fp,[r3,#2]
 549:C:/Users/Utente/Desktop/Tesi/Firmware_Software/DAVE project/S2GLP_Pulsed_Doppler/HostCommunication/inc\PayloadHelper.h ****     return sizeof(uint16_t);
 1142              	 .loc 2 549 0
 1143 0106 83F80380 	 strb r8,[r3,#3]
 1144              	.LVL133:
 548:C:/Users/Utente/Desktop/Tesi/Firmware_Software/DAVE project/S2GLP_Pulsed_Doppler/HostCommunication/inc\PayloadHelper.h ****     payload[offset    ] =  value        & 0xFF;
 1145              	 .loc 2 548 0
 1146 010a 1E71     	 strb r6,[r3,#4]
 1147 010c 83F806A0 	 strb r10,[r3,#6]
 1148 0110 83F80890 	 strb r9,[r3,#8]
 1149              	.LVL134:
 1150              	.LBE319:
 1151              	.LBE320:
 1152              	.LBE324:
 274:../HostCommunication/src/EndpointRadars2glpulse.c **** 			offset += wr_payload_float(message, offset, c_para_value_def_list.sampling_freq_hz_upper_boundar
 1153              	 .loc 1 274 0
 1154 0114 0199     	 ldr r1,[sp,#4]
 1155 0116 2846     	 mov r0,r5
 1156              	.LVL135:
 1157 0118 FFF7FEFF 	 bl wr_payload_float
 1158              	.LVL136:
 1159 011c 019B     	 ldr r3,[sp,#4]
 275:../HostCommunication/src/EndpointRadars2glpulse.c **** 			offset += wr_payload_float(message, offset, c_para_value_def_list.doppler_sensitivity_nu_lower_b
 1160              	 .loc 1 275 0
 1161 011e 7A6A     	 ldr r2,[r7,#36]
 274:../HostCommunication/src/EndpointRadars2glpulse.c **** 			offset += wr_payload_float(message, offset, c_para_value_def_list.sampling_freq_hz_upper_boundar
 1162              	 .loc 1 274 0
 1163 0120 0344     	 add r3,r3,r0
 275:../HostCommunication/src/EndpointRadars2glpulse.c **** 			offset += wr_payload_float(message, offset, c_para_value_def_list.doppler_sensitivity_nu_lower_b
 1164              	 .loc 1 275 0
 1165 0122 1946     	 mov r1,r3
 1166 0124 2846     	 mov r0,r5
 274:../HostCommunication/src/EndpointRadars2glpulse.c **** 			offset += wr_payload_float(message, offset, c_para_value_def_list.sampling_freq_hz_upper_boundar
 1167              	 .loc 1 274 0
 1168 0126 1E46     	 mov r6,r3
 1169              	.LVL137:
 275:../HostCommunication/src/EndpointRadars2glpulse.c **** 			offset += wr_payload_float(message, offset, c_para_value_def_list.doppler_sensitivity_nu_lower_b
 1170              	 .loc 1 275 0
 1171 0128 FFF7FEFF 	 bl wr_payload_float
 1172              	.LVL138:
 1173 012c 0644     	 add r6,r6,r0
 1174              	.LVL139:
 276:../HostCommunication/src/EndpointRadars2glpulse.c **** 			offset += wr_payload_float(message, offset, c_para_value_def_list.doppler_sensitivity_nu_upper_b
 1175              	 .loc 1 276 0
 1176 012e 3146     	 mov r1,r6
 1177 0130 BA6A     	 ldr r2,[r7,#40]
 1178 0132 2846     	 mov r0,r5
 1179 0134 FFF7FEFF 	 bl wr_payload_float
 1180              	.LVL140:
 1181 0138 0644     	 add r6,r6,r0
 1182              	.LVL141:
 277:../HostCommunication/src/EndpointRadars2glpulse.c **** 			offset += wr_payload_float(message, offset, c_para_value_def_list.motion_sensitivity_nu_lower_bo
 1183              	 .loc 1 277 0
 1184 013a 3146     	 mov r1,r6
 1185 013c FA6A     	 ldr r2,[r7,#44]
 1186 013e 2846     	 mov r0,r5
 1187 0140 FFF7FEFF 	 bl wr_payload_float
 1188              	.LVL142:
 1189 0144 0644     	 add r6,r6,r0
 1190              	.LVL143:
 278:../HostCommunication/src/EndpointRadars2glpulse.c **** 			offset += wr_payload_float(message, offset, c_para_value_def_list.motion_sensitivity_nu_upper_bo
 1191              	 .loc 1 278 0
 1192 0146 3146     	 mov r1,r6
 1193 0148 3A6B     	 ldr r2,[r7,#48]
 1194 014a 2846     	 mov r0,r5
 1195 014c FFF7FEFF 	 bl wr_payload_float
 1196              	.LVL144:
 1197 0150 0644     	 add r6,r6,r0
 1198              	.LVL145:
 279:../HostCommunication/src/EndpointRadars2glpulse.c **** 
 1199              	 .loc 1 279 0
 1200 0152 3146     	 mov r1,r6
 1201 0154 7A6B     	 ldr r2,[r7,#52]
 1202 0156 2846     	 mov r0,r5
 1203 0158 FFF7FEFF 	 bl wr_payload_float
 1204              	.LVL146:
 281:../HostCommunication/src/EndpointRadars2glpulse.c **** 			offset += wr_payload_u32(message, offset, c_para_value_def_list.number_of_skip_samples_nu_upper_
 1205              	 .loc 1 281 0
 1206 015c D7F838C0 	 ldr ip,[r7,#56]
 282:../HostCommunication/src/EndpointRadars2glpulse.c **** 
 1207              	 .loc 1 282 0
 1208 0160 D7F83CE0 	 ldr lr,[r7,#60]
 284:../HostCommunication/src/EndpointRadars2glpulse.c **** 			offset += wr_payload_u32(message, offset, c_para_value_def_list.pulse_width_usec_upper_boundary)
 1209              	 .loc 1 284 0
 1210 0164 396C     	 ldr r1,[r7,#64]
 279:../HostCommunication/src/EndpointRadars2glpulse.c **** 
 1211              	 .loc 1 279 0
 1212 0166 3318     	 adds r3,r6,r0
 1213              	.LVL147:
 1214              	.LBB325:
 1215              	.LBB326:
 568:C:/Users/Utente/Desktop/Tesi/Firmware_Software/DAVE project/S2GLP_Pulsed_Doppler/HostCommunication/inc\PayloadHelper.h ****     payload[offset + 2] = (value >> 16) & 0xFF;
 1216              	 .loc 2 568 0
 1217 0168 EA18     	 adds r2,r5,r3
 1218              	.LBE326:
 1219              	.LBE325:
 285:../HostCommunication/src/EndpointRadars2glpulse.c **** 
 1220              	 .loc 1 285 0
 1221 016a 7E6C     	 ldr r6,[r7,#68]
 1222 016c 03F11008 	 add r8,r3,#16
 1223              	.LBB330:
 1224              	.LBB327:
 568:C:/Users/Utente/Desktop/Tesi/Firmware_Software/DAVE project/S2GLP_Pulsed_Doppler/HostCommunication/inc\PayloadHelper.h ****     payload[offset + 2] = (value >> 16) & 0xFF;
 1225              	 .loc 2 568 0
 1226 0170 4FEA1C6A 	 lsr r10,ip,#24
 569:C:/Users/Utente/Desktop/Tesi/Firmware_Software/DAVE project/S2GLP_Pulsed_Doppler/HostCommunication/inc\PayloadHelper.h ****     payload[offset + 1] = (value >>  8) & 0xFF;
 1227              	 .loc 2 569 0
 1228 0174 4FEA1C49 	 lsr r9,ip,#16
 568:C:/Users/Utente/Desktop/Tesi/Firmware_Software/DAVE project/S2GLP_Pulsed_Doppler/HostCommunication/inc\PayloadHelper.h ****     payload[offset + 2] = (value >> 16) & 0xFF;
 1229              	 .loc 2 568 0
 1230 0178 82F803A0 	 strb r10,[r2,#3]
 569:C:/Users/Utente/Desktop/Tesi/Firmware_Software/DAVE project/S2GLP_Pulsed_Doppler/HostCommunication/inc\PayloadHelper.h ****     payload[offset + 1] = (value >>  8) & 0xFF;
 1231              	 .loc 2 569 0
 1232 017c 82F80290 	 strb r9,[r2,#2]
 1233              	.LBE327:
 1234              	.LBE330:
 288:../HostCommunication/src/EndpointRadars2glpulse.c **** 
 1235              	 .loc 1 288 0
 1236 0180 1FFA88F7 	 uxth r7,r8
 1237              	.LVL148:
 291:../HostCommunication/src/EndpointRadars2glpulse.c **** 			protocol_send_payload(message, offset);
 1238              	 .loc 1 291 0
 1239 0184 2046     	 mov r0,r4
 1240              	.LBB331:
 1241              	.LBB332:
 568:C:/Users/Utente/Desktop/Tesi/Firmware_Software/DAVE project/S2GLP_Pulsed_Doppler/HostCommunication/inc\PayloadHelper.h ****     payload[offset + 2] = (value >> 16) & 0xFF;
 1242              	 .loc 2 568 0
 1243 0186 4FEA1E6B 	 lsr fp,lr,#24
 1244              	.LBE332:
 1245              	.LBE331:
 1246              	.LBB335:
 1247              	.LBB328:
 570:C:/Users/Utente/Desktop/Tesi/Firmware_Software/DAVE project/S2GLP_Pulsed_Doppler/HostCommunication/inc\PayloadHelper.h ****     payload[offset    ] =  value        & 0xFF;
 1248              	 .loc 2 570 0
 1249 018a 4FEA1C24 	 lsr r4,ip,#8
 1250              	.LBE328:
 1251              	.LBE335:
 1252              	.LBB336:
 1253              	.LBB333:
 569:C:/Users/Utente/Desktop/Tesi/Firmware_Software/DAVE project/S2GLP_Pulsed_Doppler/HostCommunication/inc\PayloadHelper.h ****     payload[offset + 1] = (value >>  8) & 0xFF;
 1254              	 .loc 2 569 0
 1255 018e 4FEA1E4A 	 lsr r10,lr,#16
 570:C:/Users/Utente/Desktop/Tesi/Firmware_Software/DAVE project/S2GLP_Pulsed_Doppler/HostCommunication/inc\PayloadHelper.h ****     payload[offset    ] =  value        & 0xFF;
 1256              	 .loc 2 570 0
 1257 0192 4FEA1E29 	 lsr r9,lr,#8
 1258              	.LBE333:
 1259              	.LBE336:
 1260              	.LBB337:
 1261              	.LBB329:
 1262 0196 5470     	 strb r4,[r2,#1]
 1263              	 .loc 2 571 0
 1264 0198 05F803C0 	 strb ip,[r5,r3]
 1265              	.LBE329:
 1266              	.LBE337:
 1267              	.LBB338:
 1268              	.LBB339:
 568:C:/Users/Utente/Desktop/Tesi/Firmware_Software/DAVE project/S2GLP_Pulsed_Doppler/HostCommunication/inc\PayloadHelper.h ****     payload[offset + 2] = (value >> 16) & 0xFF;
 1269              	 .loc 2 568 0
 1270 019c 0C0E     	 lsrs r4,r1,#24
 1271              	.LVL149:
 1272              	.LBE339:
 1273              	.LBE338:
 1274              	.LBB343:
 1275              	.LBB334:
 1276              	 .loc 2 571 0
 1277 019e 82F804E0 	 strb lr,[r2,#4]
 1278              	.LVL150:
 568:C:/Users/Utente/Desktop/Tesi/Firmware_Software/DAVE project/S2GLP_Pulsed_Doppler/HostCommunication/inc\PayloadHelper.h ****     payload[offset + 2] = (value >> 16) & 0xFF;
 1279              	 .loc 2 568 0
 1280 01a2 82F807B0 	 strb fp,[r2,#7]
 569:C:/Users/Utente/Desktop/Tesi/Firmware_Software/DAVE project/S2GLP_Pulsed_Doppler/HostCommunication/inc\PayloadHelper.h ****     payload[offset + 1] = (value >>  8) & 0xFF;
 1281              	 .loc 2 569 0
 1282 01a6 82F806A0 	 strb r10,[r2,#6]
 570:C:/Users/Utente/Desktop/Tesi/Firmware_Software/DAVE project/S2GLP_Pulsed_Doppler/HostCommunication/inc\PayloadHelper.h ****     payload[offset    ] =  value        & 0xFF;
 1283              	 .loc 2 570 0
 1284 01aa 82F80590 	 strb r9,[r2,#5]
 1285              	.LBE334:
 1286              	.LBE343:
 1287              	.LBB344:
 1288              	.LBB340:
 569:C:/Users/Utente/Desktop/Tesi/Firmware_Software/DAVE project/S2GLP_Pulsed_Doppler/HostCommunication/inc\PayloadHelper.h ****     payload[offset + 1] = (value >>  8) & 0xFF;
 1289              	 .loc 2 569 0
 1290 01ae 0B0C     	 lsrs r3,r1,#16
 1291              	.LVL151:
 570:C:/Users/Utente/Desktop/Tesi/Firmware_Software/DAVE project/S2GLP_Pulsed_Doppler/HostCommunication/inc\PayloadHelper.h ****     payload[offset    ] =  value        & 0xFF;
 1292              	 .loc 2 570 0
 1293 01b0 4FEA112C 	 lsr ip,r1,#8
 1294              	.LVL152:
 1295              	.LBE340:
 1296              	.LBE344:
 1297              	.LBB345:
 1298              	.LBB346:
 568:C:/Users/Utente/Desktop/Tesi/Firmware_Software/DAVE project/S2GLP_Pulsed_Doppler/HostCommunication/inc\PayloadHelper.h ****     payload[offset + 2] = (value >> 16) & 0xFF;
 1299              	 .loc 2 568 0
 1300 01b4 4FEA166E 	 lsr lr,r6,#24
 1301              	.LVL153:
 569:C:/Users/Utente/Desktop/Tesi/Firmware_Software/DAVE project/S2GLP_Pulsed_Doppler/HostCommunication/inc\PayloadHelper.h ****     payload[offset + 1] = (value >>  8) & 0xFF;
 1302              	 .loc 2 569 0
 1303 01b8 4FEA164B 	 lsr fp,r6,#16
 570:C:/Users/Utente/Desktop/Tesi/Firmware_Software/DAVE project/S2GLP_Pulsed_Doppler/HostCommunication/inc\PayloadHelper.h ****     payload[offset    ] =  value        & 0xFF;
 1304              	 .loc 2 570 0
 1305 01bc 4FEA162A 	 lsr r10,r6,#8
 1306              	.LBE346:
 1307              	.LBE345:
 1308              	.LBB349:
 1309              	.LBB350:
 548:C:/Users/Utente/Desktop/Tesi/Firmware_Software/DAVE project/S2GLP_Pulsed_Doppler/HostCommunication/inc\PayloadHelper.h ****     payload[offset    ] =  value        & 0xFF;
 1310              	 .loc 2 548 0
 1311 01c0 4FEA1729 	 lsr r9,r7,#8
 1312              	.LBE350:
 1313              	.LBE349:
 1314              	.LBB352:
 1315              	.LBB341:
 1316              	 .loc 2 571 0
 1317 01c4 1172     	 strb r1,[r2,#8]
 1318              	.LVL154:
 1319              	.LBE341:
 1320              	.LBE352:
 1321              	.LBB353:
 1322              	.LBB347:
 1323 01c6 1673     	 strb r6,[r2,#12]
 1324              	.LBE347:
 1325              	.LBE353:
 1326              	.LBB354:
 1327              	.LBB342:
 568:C:/Users/Utente/Desktop/Tesi/Firmware_Software/DAVE project/S2GLP_Pulsed_Doppler/HostCommunication/inc\PayloadHelper.h ****     payload[offset + 2] = (value >> 16) & 0xFF;
 1328              	 .loc 2 568 0
 1329 01c8 D472     	 strb r4,[r2,#11]
 569:C:/Users/Utente/Desktop/Tesi/Firmware_Software/DAVE project/S2GLP_Pulsed_Doppler/HostCommunication/inc\PayloadHelper.h ****     payload[offset + 1] = (value >>  8) & 0xFF;
 1330              	 .loc 2 569 0
 1331 01ca 9372     	 strb r3,[r2,#10]
 570:C:/Users/Utente/Desktop/Tesi/Firmware_Software/DAVE project/S2GLP_Pulsed_Doppler/HostCommunication/inc\PayloadHelper.h ****     payload[offset    ] =  value        & 0xFF;
 1332              	 .loc 2 570 0
 1333 01cc 82F809C0 	 strb ip,[r2,#9]
 1334              	.LBE342:
 1335              	.LBE354:
 1336              	.LBB355:
 1337              	.LBB348:
 568:C:/Users/Utente/Desktop/Tesi/Firmware_Software/DAVE project/S2GLP_Pulsed_Doppler/HostCommunication/inc\PayloadHelper.h ****     payload[offset + 2] = (value >> 16) & 0xFF;
 1338              	 .loc 2 568 0
 1339 01d0 82F80FE0 	 strb lr,[r2,#15]
 569:C:/Users/Utente/Desktop/Tesi/Firmware_Software/DAVE project/S2GLP_Pulsed_Doppler/HostCommunication/inc\PayloadHelper.h ****     payload[offset + 1] = (value >>  8) & 0xFF;
 1340              	 .loc 2 569 0
 1341 01d4 82F80EB0 	 strb fp,[r2,#14]
 570:C:/Users/Utente/Desktop/Tesi/Firmware_Software/DAVE project/S2GLP_Pulsed_Doppler/HostCommunication/inc\PayloadHelper.h ****     payload[offset    ] =  value        & 0xFF;
 1342              	 .loc 2 570 0
 1343 01d8 82F80DA0 	 strb r10,[r2,#13]
 1344              	.LBE348:
 1345              	.LBE355:
 291:../HostCommunication/src/EndpointRadars2glpulse.c **** 			protocol_send_payload(message, offset);
 1346              	 .loc 1 291 0
 1347 01dc 3946     	 mov r1,r7
 1348              	.LVL155:
 1349              	.LBB356:
 1350              	.LBB351:
 549:C:/Users/Utente/Desktop/Tesi/Firmware_Software/DAVE project/S2GLP_Pulsed_Doppler/HostCommunication/inc\PayloadHelper.h ****     return sizeof(uint16_t);
 1351              	 .loc 2 549 0
 1352 01de 85F80180 	 strb r8,[r5,#1]
 548:C:/Users/Utente/Desktop/Tesi/Firmware_Software/DAVE project/S2GLP_Pulsed_Doppler/HostCommunication/inc\PayloadHelper.h ****     payload[offset    ] =  value        & 0xFF;
 1353              	 .loc 2 548 0
 1354 01e2 85F80290 	 strb r9,[r5,#2]
 1355              	.LBE351:
 1356              	.LBE356:
 291:../HostCommunication/src/EndpointRadars2glpulse.c **** 			protocol_send_payload(message, offset);
 1357              	 .loc 1 291 0
 1358 01e6 FFF7FEFF 	 bl protocol_send_header
 1359              	.LVL156:
 292:../HostCommunication/src/EndpointRadars2glpulse.c **** 			protocol_send_tail();
 1360              	 .loc 1 292 0
 1361 01ea 2846     	 mov r0,r5
 1362 01ec 3946     	 mov r1,r7
 1363 01ee FFF7FEFF 	 bl protocol_send_payload
 1364              	.LVL157:
 293:../HostCommunication/src/EndpointRadars2glpulse.c **** 
 1365              	 .loc 1 293 0
 1366 01f2 FFF7FEFF 	 bl protocol_send_tail
 1367              	.LVL158:
 295:../HostCommunication/src/EndpointRadars2glpulse.c **** 		}
 1368              	 .loc 1 295 0
 1369 01f6 0020     	 movs r0,#0
 1370 01f8 28E7     	 b .L37
 1371              	.LVL159:
 1372              	.L41:
 1373              	.LBE313:
 300:../HostCommunication/src/EndpointRadars2glpulse.c **** 		{
 1374              	 .loc 1 300 0
 1375 01fa 232A     	 cmp r2,#35
 1376 01fc 7FF424AF 	 bne .L53
 1377              	.LVL160:
 1378              	.LBB357:
 1379              	.LBB358:
 1380              	.LBB359:
 529:C:/Users/Utente/Desktop/Tesi/Firmware_Software/DAVE project/S2GLP_Pulsed_Doppler/HostCommunication/inc\PayloadHelper.h ****            (((uint32_t)payload[offset + 1]) <<  8) |
 1381              	 .loc 2 529 0
 1382 0200 4A7C     	 ldrb r2,[r1,#17]
 1383              	.LVL161:
 528:C:/Users/Utente/Desktop/Tesi/Firmware_Software/DAVE project/S2GLP_Pulsed_Doppler/HostCommunication/inc\PayloadHelper.h ****            (((uint32_t)payload[offset + 2]) << 16) |
 1384              	 .loc 2 528 0
 1385 0202 91F81280 	 ldrb r8,[r1,#18]
 531:C:/Users/Utente/Desktop/Tesi/Firmware_Software/DAVE project/S2GLP_Pulsed_Doppler/HostCommunication/inc\PayloadHelper.h **** 
 1386              	 .loc 2 531 0
 1387 0206 CE7B     	 ldrb r6,[r1,#15]
 1388              	.LBE359:
 1389              	.LBE358:
 1390              	.LBB362:
 1391              	.LBB363:
 530:C:/Users/Utente/Desktop/Tesi/Firmware_Software/DAVE project/S2GLP_Pulsed_Doppler/HostCommunication/inc\PayloadHelper.h ****             ((uint32_t)payload[offset    ]);
 1392              	 .loc 2 530 0
 1393 0208 8879     	 ldrb r0,[r1,#6]
 1394              	.LBE363:
 1395              	.LBE362:
 1396              	.LBB370:
 1397              	.LBB360:
 1398 020a 91F810E0 	 ldrb lr,[r1,#16]
 1399              	.LBE360:
 1400              	.LBE370:
 304:../HostCommunication/src/EndpointRadars2glpulse.c **** 			offset += sizeof(float);
 1401              	 .loc 1 304 0
 1402 020e 4B4D     	 ldr r5,.L57
 1403              	.LBB371:
 1404              	.LBB364:
 530:C:/Users/Utente/Desktop/Tesi/Firmware_Software/DAVE project/S2GLP_Pulsed_Doppler/HostCommunication/inc\PayloadHelper.h ****             ((uint32_t)payload[offset    ]);
 1405              	 .loc 2 530 0
 1406 0210 0390     	 str r0,[sp,#12]
 1407              	.LBE364:
 1408              	.LBE371:
 1409              	.LBB372:
 1410              	.LBB361:
 529:C:/Users/Utente/Desktop/Tesi/Firmware_Software/DAVE project/S2GLP_Pulsed_Doppler/HostCommunication/inc\PayloadHelper.h ****            (((uint32_t)payload[offset + 1]) <<  8) |
 1411              	 .loc 2 529 0
 1412 0212 1204     	 lsls r2,r2,#16
 528:C:/Users/Utente/Desktop/Tesi/Firmware_Software/DAVE project/S2GLP_Pulsed_Doppler/HostCommunication/inc\PayloadHelper.h ****            (((uint32_t)payload[offset + 2]) << 16) |
 1413              	 .loc 2 528 0
 1414 0214 42EA0862 	 orr r2,r2,r8,lsl#24
 1415              	.LBE361:
 1416              	.LBE372:
 1417              	.LBB373:
 1418              	.LBB374:
 530:C:/Users/Utente/Desktop/Tesi/Firmware_Software/DAVE project/S2GLP_Pulsed_Doppler/HostCommunication/inc\PayloadHelper.h ****             ((uint32_t)payload[offset    ]);
 1419              	 .loc 2 530 0
 1420 0218 887A     	 ldrb r0,[r1,#10]
 1421              	.LBE374:
 1422              	.LBE373:
 1423              	.LBB380:
 1424              	.LBB381:
 529:C:/Users/Utente/Desktop/Tesi/Firmware_Software/DAVE project/S2GLP_Pulsed_Doppler/HostCommunication/inc\PayloadHelper.h ****            (((uint32_t)payload[offset + 1]) <<  8) |
 1425              	 .loc 2 529 0
 1426 021a 91F815C0 	 ldrb ip,[r1,#21]
 1427 021e 0793     	 str r3,[sp,#28]
 1428 0220 3243     	 orrs r2,r2,r6
 1429              	.LBE381:
 1430              	.LBE380:
 1431              	.LBB384:
 1432              	.LBB385:
 531:C:/Users/Utente/Desktop/Tesi/Firmware_Software/DAVE project/S2GLP_Pulsed_Doppler/HostCommunication/inc\PayloadHelper.h **** 
 1433              	 .loc 2 531 0
 1434 0222 4B78     	 ldrb r3,[r1,#1]
 1435              	.LVL162:
 1436              	.LBE385:
 1437              	.LBE384:
 1438              	.LBB390:
 1439              	.LBB375:
 530:C:/Users/Utente/Desktop/Tesi/Firmware_Software/DAVE project/S2GLP_Pulsed_Doppler/HostCommunication/inc\PayloadHelper.h ****             ((uint32_t)payload[offset    ]);
 1440              	 .loc 2 530 0
 1441 0224 0490     	 str r0,[sp,#16]
 1442              	.LBE375:
 1443              	.LBE390:
 312:../HostCommunication/src/EndpointRadars2glpulse.c **** 			offset += sizeof(float);
 1444              	 .loc 1 312 0
 1445 0226 42EA0E2E 	 orr lr,r2,lr,lsl#8
 1446              	.LBB391:
 1447              	.LBB392:
 472:C:/Users/Utente/Desktop/Tesi/Firmware_Software/DAVE project/S2GLP_Pulsed_Doppler/HostCommunication/inc\PayloadHelper.h ****             ((uint16_t)payload[offset    ]);
 1448              	 .loc 2 472 0
 1449 022a 887B     	 ldrb r0,[r1,#14]
 1450              	.LBE392:
 1451              	.LBE391:
 1452              	.LBB397:
 1453              	.LBB365:
 531:C:/Users/Utente/Desktop/Tesi/Firmware_Software/DAVE project/S2GLP_Pulsed_Doppler/HostCommunication/inc\PayloadHelper.h **** 
 1454              	 .loc 2 531 0
 1455 022c 4A79     	 ldrb r2,[r1,#5]
 1456              	.LBE365:
 1457              	.LBE397:
 1458              	.LBB398:
 1459              	.LBB386:
 528:C:/Users/Utente/Desktop/Tesi/Firmware_Software/DAVE project/S2GLP_Pulsed_Doppler/HostCommunication/inc\PayloadHelper.h ****            (((uint32_t)payload[offset + 2]) << 16) |
 1460              	 .loc 2 528 0
 1461 022e 91F804B0 	 ldrb fp,[r1,#4]
 529:C:/Users/Utente/Desktop/Tesi/Firmware_Software/DAVE project/S2GLP_Pulsed_Doppler/HostCommunication/inc\PayloadHelper.h ****            (((uint32_t)payload[offset + 1]) <<  8) |
 1462              	 .loc 2 529 0
 1463 0232 CF78     	 ldrb r7,[r1,#3]
 1464              	.LBE386:
 1465              	.LBE398:
 1466              	.LBB399:
 1467              	.LBB366:
 528:C:/Users/Utente/Desktop/Tesi/Firmware_Software/DAVE project/S2GLP_Pulsed_Doppler/HostCommunication/inc\PayloadHelper.h ****            (((uint32_t)payload[offset + 2]) << 16) |
 1468              	 .loc 2 528 0
 1469 0234 91F808A0 	 ldrb r10,[r1,#8]
 529:C:/Users/Utente/Desktop/Tesi/Firmware_Software/DAVE project/S2GLP_Pulsed_Doppler/HostCommunication/inc\PayloadHelper.h ****            (((uint32_t)payload[offset + 1]) <<  8) |
 1470              	 .loc 2 529 0
 1471 0238 CE79     	 ldrb r6,[r1,#7]
 1472              	.LBE366:
 1473              	.LBE399:
 1474              	.LBB400:
 1475              	.LBB376:
 528:C:/Users/Utente/Desktop/Tesi/Firmware_Software/DAVE project/S2GLP_Pulsed_Doppler/HostCommunication/inc\PayloadHelper.h ****            (((uint32_t)payload[offset + 2]) << 16) |
 1476              	 .loc 2 528 0
 1477 023a 91F80C90 	 ldrb r9,[r1,#12]
 531:C:/Users/Utente/Desktop/Tesi/Firmware_Software/DAVE project/S2GLP_Pulsed_Doppler/HostCommunication/inc\PayloadHelper.h **** 
 1478              	 .loc 2 531 0
 1479 023e 91F80980 	 ldrb r8,[r1,#9]
 1480              	.LBE376:
 1481              	.LBE400:
 1482              	.LBB401:
 1483              	.LBB387:
 1484 0242 0193     	 str r3,[sp,#4]
 1485              	.LBE387:
 1486              	.LBE401:
 1487              	.LBB402:
 1488              	.LBB367:
 1489 0244 0292     	 str r2,[sp,#8]
 1490              	.LBE367:
 1491              	.LBE402:
 1492              	.LBB403:
 1493              	.LBB388:
 530:C:/Users/Utente/Desktop/Tesi/Firmware_Software/DAVE project/S2GLP_Pulsed_Doppler/HostCommunication/inc\PayloadHelper.h ****             ((uint32_t)payload[offset    ]);
 1494              	 .loc 2 530 0
 1495 0246 8B78     	 ldrb r3,[r1,#2]
 1496              	.LVL163:
 1497              	.LBE388:
 1498              	.LBE403:
 1499              	.LBB404:
 1500              	.LBB377:
 529:C:/Users/Utente/Desktop/Tesi/Firmware_Software/DAVE project/S2GLP_Pulsed_Doppler/HostCommunication/inc\PayloadHelper.h ****            (((uint32_t)payload[offset + 1]) <<  8) |
 1501              	 .loc 2 529 0
 1502 0248 CA7A     	 ldrb r2,[r1,#11]
 1503              	.LBE377:
 1504              	.LBE404:
 1505              	.LBB405:
 1506              	.LBB393:
 472:C:/Users/Utente/Desktop/Tesi/Firmware_Software/DAVE project/S2GLP_Pulsed_Doppler/HostCommunication/inc\PayloadHelper.h ****             ((uint16_t)payload[offset    ]);
 1507              	 .loc 2 472 0
 1508 024a 0590     	 str r0,[sp,#20]
 1509 024c 487B     	 ldrb r0,[r1,#13]
 1510              	.LBE393:
 1511              	.LBE405:
 312:../HostCommunication/src/EndpointRadars2glpulse.c **** 			offset += sizeof(float);
 1512              	 .loc 1 312 0
 1513 024e C5F810E0 	 str lr,[r5,#16]
 1514              	.LVL164:
 1515              	.LBB406:
 1516              	.LBB382:
 528:C:/Users/Utente/Desktop/Tesi/Firmware_Software/DAVE project/S2GLP_Pulsed_Doppler/HostCommunication/inc\PayloadHelper.h ****            (((uint32_t)payload[offset + 2]) << 16) |
 1517              	 .loc 2 528 0
 1518 0252 91F816E0 	 ldrb lr,[r1,#22]
 1519              	.LBE382:
 1520              	.LBE406:
 1521              	.LBB407:
 1522              	.LBB394:
 472:C:/Users/Utente/Desktop/Tesi/Firmware_Software/DAVE project/S2GLP_Pulsed_Doppler/HostCommunication/inc\PayloadHelper.h ****             ((uint16_t)payload[offset    ]);
 1523              	 .loc 2 472 0
 1524 0256 0690     	 str r0,[sp,#24]
 1525              	.LBE394:
 1526              	.LBE407:
 1527              	.LBB408:
 1528              	.LBB383:
 529:C:/Users/Utente/Desktop/Tesi/Firmware_Software/DAVE project/S2GLP_Pulsed_Doppler/HostCommunication/inc\PayloadHelper.h ****            (((uint32_t)payload[offset + 1]) <<  8) |
 1529              	 .loc 2 529 0
 1530 0258 4FEA0C4C 	 lsl ip,ip,#16
 528:C:/Users/Utente/Desktop/Tesi/Firmware_Software/DAVE project/S2GLP_Pulsed_Doppler/HostCommunication/inc\PayloadHelper.h ****            (((uint32_t)payload[offset + 2]) << 16) |
 1531              	 .loc 2 528 0
 1532 025c 4CEA0E6E 	 orr lr,ip,lr,lsl#24
 531:C:/Users/Utente/Desktop/Tesi/Firmware_Software/DAVE project/S2GLP_Pulsed_Doppler/HostCommunication/inc\PayloadHelper.h **** 
 1533              	 .loc 2 531 0
 1534 0260 91F813C0 	 ldrb ip,[r1,#19]
 1535 0264 4EEA0C0E 	 orr lr,lr,ip
 530:C:/Users/Utente/Desktop/Tesi/Firmware_Software/DAVE project/S2GLP_Pulsed_Doppler/HostCommunication/inc\PayloadHelper.h ****             ((uint32_t)payload[offset    ]);
 1536              	 .loc 2 530 0
 1537 0268 91F814C0 	 ldrb ip,[r1,#20]
 1538              	.LBE383:
 1539              	.LBE408:
 1540              	.LBB409:
 1541              	.LBB378:
 529:C:/Users/Utente/Desktop/Tesi/Firmware_Software/DAVE project/S2GLP_Pulsed_Doppler/HostCommunication/inc\PayloadHelper.h ****            (((uint32_t)payload[offset + 1]) <<  8) |
 1542              	 .loc 2 529 0
 1543 026c 1204     	 lsls r2,r2,#16
 1544              	.LBE378:
 1545              	.LBE409:
 314:../HostCommunication/src/EndpointRadars2glpulse.c **** 			offset += sizeof(float);
 1546              	 .loc 1 314 0
 1547 026e 4EEA0C2E 	 orr lr,lr,ip,lsl#8
 1548 0272 C5F814E0 	 str lr,[r5,#20]
 1549              	.LBB410:
 1550              	.LBB379:
 528:C:/Users/Utente/Desktop/Tesi/Firmware_Software/DAVE project/S2GLP_Pulsed_Doppler/HostCommunication/inc\PayloadHelper.h ****            (((uint32_t)payload[offset + 2]) << 16) |
 1551              	 .loc 2 528 0
 1552 0276 42EA096C 	 orr ip,r2,r9,lsl#24
 1553              	.LBE379:
 1554              	.LBE410:
 1555              	.LBB411:
 1556              	.LBB412:
 529:C:/Users/Utente/Desktop/Tesi/Firmware_Software/DAVE project/S2GLP_Pulsed_Doppler/HostCommunication/inc\PayloadHelper.h ****            (((uint32_t)payload[offset + 1]) <<  8) |
 1557              	 .loc 2 529 0
 1558 027a 91F819E0 	 ldrb lr,[r1,#25]
 1559 027e 019A     	 ldr r2,[sp,#4]
 528:C:/Users/Utente/Desktop/Tesi/Firmware_Software/DAVE project/S2GLP_Pulsed_Doppler/HostCommunication/inc\PayloadHelper.h ****            (((uint32_t)payload[offset + 2]) << 16) |
 1560              	 .loc 2 528 0
 1561 0280 887E     	 ldrb r0,[r1,#26]
 1562              	.LBE412:
 1563              	.LBE411:
 1564              	.LBB416:
 1565              	.LBB389:
 529:C:/Users/Utente/Desktop/Tesi/Firmware_Software/DAVE project/S2GLP_Pulsed_Doppler/HostCommunication/inc\PayloadHelper.h ****            (((uint32_t)payload[offset + 1]) <<  8) |
 1566              	 .loc 2 529 0
 1567 0282 3F04     	 lsls r7,r7,#16
 528:C:/Users/Utente/Desktop/Tesi/Firmware_Software/DAVE project/S2GLP_Pulsed_Doppler/HostCommunication/inc\PayloadHelper.h ****            (((uint32_t)payload[offset + 2]) << 16) |
 1568              	 .loc 2 528 0
 1569 0284 47EA0B67 	 orr r7,r7,fp,lsl#24
 1570              	.LBE389:
 1571              	.LBE416:
 1572              	.LBB417:
 1573              	.LBB413:
 529:C:/Users/Utente/Desktop/Tesi/Firmware_Software/DAVE project/S2GLP_Pulsed_Doppler/HostCommunication/inc\PayloadHelper.h ****            (((uint32_t)payload[offset + 1]) <<  8) |
 1574              	 .loc 2 529 0
 1575 0288 4FEA0E4E 	 lsl lr,lr,#16
 1576 028c 1743     	 orrs r7,r7,r2
 1577              	.LBE413:
 1578              	.LBE417:
 1579              	.LBB418:
 1580              	.LBB368:
 1581 028e 3604     	 lsls r6,r6,#16
 1582 0290 029A     	 ldr r2,[sp,#8]
 1583              	.LBE368:
 1584              	.LBE418:
 1585              	.LBB419:
 1586              	.LBB414:
 528:C:/Users/Utente/Desktop/Tesi/Firmware_Software/DAVE project/S2GLP_Pulsed_Doppler/HostCommunication/inc\PayloadHelper.h ****            (((uint32_t)payload[offset + 2]) << 16) |
 1587              	 .loc 2 528 0
 1588 0292 4EEA0060 	 orr r0,lr,r0,lsl#24
 1589              	.LBE414:
 1590              	.LBE419:
 1591              	.LBB420:
 1592              	.LBB369:
 1593 0296 46EA0A66 	 orr r6,r6,r10,lsl#24
 1594              	.LBE369:
 1595              	.LBE420:
 1596              	.LBB421:
 1597              	.LBB415:
 531:C:/Users/Utente/Desktop/Tesi/Firmware_Software/DAVE project/S2GLP_Pulsed_Doppler/HostCommunication/inc\PayloadHelper.h **** 
 1598              	 .loc 2 531 0
 1599 029a 91F817E0 	 ldrb lr,[r1,#23]
 1600 029e 1643     	 orrs r6,r6,r2
 1601 02a0 4CEA0802 	 orr r2,ip,r8
 530:C:/Users/Utente/Desktop/Tesi/Firmware_Software/DAVE project/S2GLP_Pulsed_Doppler/HostCommunication/inc\PayloadHelper.h ****             ((uint32_t)payload[offset    ]);
 1602              	 .loc 2 530 0
 1603 02a4 91F818C0 	 ldrb ip,[r1,#24]
 1604 02a8 40EA0E00 	 orr r0,r0,lr
 1605              	.LBE415:
 1606              	.LBE421:
 316:../HostCommunication/src/EndpointRadars2glpulse.c **** 			offset += sizeof(float);
 1607              	 .loc 1 316 0
 1608 02ac 40EA0C2C 	 orr ip,r0,ip,lsl#8
 304:../HostCommunication/src/EndpointRadars2glpulse.c **** 			offset += sizeof(float);
 1609              	 .loc 1 304 0
 1610 02b0 47EA0327 	 orr r7,r7,r3,lsl#8
 308:../HostCommunication/src/EndpointRadars2glpulse.c **** 			offset += sizeof(float);
 1611              	 .loc 1 308 0
 1612 02b4 0498     	 ldr r0,[sp,#16]
 306:../HostCommunication/src/EndpointRadars2glpulse.c **** 			offset += sizeof(float);
 1613              	 .loc 1 306 0
 1614 02b6 039B     	 ldr r3,[sp,#12]
 316:../HostCommunication/src/EndpointRadars2glpulse.c **** 			offset += sizeof(float);
 1615              	 .loc 1 316 0
 1616 02b8 C5F818C0 	 str ip,[r5,#24]
 308:../HostCommunication/src/EndpointRadars2glpulse.c **** 			offset += sizeof(float);
 1617              	 .loc 1 308 0
 1618 02bc 42EA002E 	 orr lr,r2,r0,lsl#8
 306:../HostCommunication/src/EndpointRadars2glpulse.c **** 			offset += sizeof(float);
 1619              	 .loc 1 306 0
 1620 02c0 46EA0326 	 orr r6,r6,r3,lsl#8
 1621              	.LBB422:
 1622              	.LBB395:
 472:C:/Users/Utente/Desktop/Tesi/Firmware_Software/DAVE project/S2GLP_Pulsed_Doppler/HostCommunication/inc\PayloadHelper.h ****             ((uint16_t)payload[offset    ]);
 1623              	 .loc 2 472 0
 1624 02c4 0598     	 ldr r0,[sp,#20]
 1625 02c6 069B     	 ldr r3,[sp,#24]
 1626              	.LBE395:
 1627              	.LBE422:
 306:../HostCommunication/src/EndpointRadars2glpulse.c **** 			offset += sizeof(float);
 1628              	 .loc 1 306 0
 1629 02c8 6E60     	 str r6,[r5,#4]
 1630              	.LBB423:
 1631              	.LBB396:
 472:C:/Users/Utente/Desktop/Tesi/Firmware_Software/DAVE project/S2GLP_Pulsed_Doppler/HostCommunication/inc\PayloadHelper.h ****             ((uint16_t)payload[offset    ]);
 1632              	 .loc 2 472 0
 1633 02ca 43EA0022 	 orr r2,r3,r0,lsl#8
 1634              	.LBE396:
 1635              	.LBE423:
 310:../HostCommunication/src/EndpointRadars2glpulse.c **** 			offset += sizeof(uint16_t);
 1636              	 .loc 1 310 0
 1637 02ce AA81     	 strh r2,[r5,#12]
 1638              	.LBB424:
 1639              	.LBB425:
  94:C:/Users/Utente/Desktop/Tesi/Firmware_Software/DAVE project/S2GLP_Pulsed_Doppler/HostCommunication/inc\PayloadHelper.h **** }
 1640              	 .loc 2 94 0
 1641 02d0 CA7E     	 ldrb r2,[r1,#27]
 1642              	.LBE425:
 1643              	.LBE424:
 318:../HostCommunication/src/EndpointRadars2glpulse.c **** 			offset += sizeof(uint8_t);
 1644              	 .loc 1 318 0
 1645 02d2 2A77     	 strb r2,[r5,#28]
 1646              	.LBB426:
 1647              	.LBB427:
  94:C:/Users/Utente/Desktop/Tesi/Firmware_Software/DAVE project/S2GLP_Pulsed_Doppler/HostCommunication/inc\PayloadHelper.h **** }
 1648              	 .loc 2 94 0
 1649 02d4 0A7F     	 ldrb r2,[r1,#28]
 1650              	.LBE427:
 1651              	.LBE426:
 320:../HostCommunication/src/EndpointRadars2glpulse.c **** 			offset += sizeof(uint8_t);
 1652              	 .loc 1 320 0
 1653 02d6 6A77     	 strb r2,[r5,#29]
 1654              	.LBB428:
 1655              	.LBB429:
 472:C:/Users/Utente/Desktop/Tesi/Firmware_Software/DAVE project/S2GLP_Pulsed_Doppler/HostCommunication/inc\PayloadHelper.h ****             ((uint16_t)payload[offset    ]);
 1656              	 .loc 2 472 0
 1657 02d8 4E7F     	 ldrb r6,[r1,#29]
 1658              	.LBE429:
 1659              	.LBE428:
 308:../HostCommunication/src/EndpointRadars2glpulse.c **** 			offset += sizeof(float);
 1660              	 .loc 1 308 0
 1661 02da C5F808E0 	 str lr,[r5,#8]
 1662              	.LBB432:
 1663              	.LBB430:
 472:C:/Users/Utente/Desktop/Tesi/Firmware_Software/DAVE project/S2GLP_Pulsed_Doppler/HostCommunication/inc\PayloadHelper.h ****             ((uint16_t)payload[offset    ]);
 1664              	 .loc 2 472 0
 1665 02de 91F81EE0 	 ldrb lr,[r1,#30]
 1666              	.LBE430:
 1667              	.LBE432:
 1668              	.LBB433:
 1669              	.LBB434:
 487:C:/Users/Utente/Desktop/Tesi/Firmware_Software/DAVE project/S2GLP_Pulsed_Doppler/HostCommunication/inc\PayloadHelper.h ****            (((uint32_t)payload[offset + 1]) <<  8) |
 1670              	 .loc 2 487 0
 1671 02e2 91F82100 	 ldrb r0,[r1,#33]
 486:C:/Users/Utente/Desktop/Tesi/Firmware_Software/DAVE project/S2GLP_Pulsed_Doppler/HostCommunication/inc\PayloadHelper.h ****            (((uint32_t)payload[offset + 2]) << 16) |
 1672              	 .loc 2 486 0
 1673 02e6 91F82220 	 ldrb r2,[r1,#34]
 1674              	.LBE434:
 1675              	.LBE433:
 304:../HostCommunication/src/EndpointRadars2glpulse.c **** 			offset += sizeof(float);
 1676              	 .loc 1 304 0
 1677 02ea 2F60     	 str r7,[r5]
 1678              	.LVL165:
 1679              	.LBB436:
 1680              	.LBB431:
 472:C:/Users/Utente/Desktop/Tesi/Firmware_Software/DAVE project/S2GLP_Pulsed_Doppler/HostCommunication/inc\PayloadHelper.h ****             ((uint16_t)payload[offset    ]);
 1681              	 .loc 2 472 0
 1682 02ec 46EA0E26 	 orr r6,r6,lr,lsl#8
 1683              	.LBE431:
 1684              	.LBE436:
 322:../HostCommunication/src/EndpointRadars2glpulse.c **** 			offset += sizeof(uint16_t);
 1685              	 .loc 1 322 0
 1686 02f0 EE83     	 strh r6,[r5,#30]
 1687              	.LVL166:
 1688              	.LBB437:
 1689              	.LBB435:
 488:C:/Users/Utente/Desktop/Tesi/Firmware_Software/DAVE project/S2GLP_Pulsed_Doppler/HostCommunication/inc\PayloadHelper.h ****             ((uint32_t)payload[offset    ]);
 1690              	 .loc 2 488 0
 1691 02f2 91F82070 	 ldrb r7,[r1,#32]
 489:C:/Users/Utente/Desktop/Tesi/Firmware_Software/DAVE project/S2GLP_Pulsed_Doppler/HostCommunication/inc\PayloadHelper.h **** }
 1692              	 .loc 2 489 0
 1693 02f6 C97F     	 ldrb r1,[r1,#31]
 1694              	.LVL167:
 487:C:/Users/Utente/Desktop/Tesi/Firmware_Software/DAVE project/S2GLP_Pulsed_Doppler/HostCommunication/inc\PayloadHelper.h ****            (((uint32_t)payload[offset + 1]) <<  8) |
 1695              	 .loc 2 487 0
 1696 02f8 0004     	 lsls r0,r0,#16
 486:C:/Users/Utente/Desktop/Tesi/Firmware_Software/DAVE project/S2GLP_Pulsed_Doppler/HostCommunication/inc\PayloadHelper.h ****            (((uint32_t)payload[offset + 2]) << 16) |
 1697              	 .loc 2 486 0
 1698 02fa 40EA0262 	 orr r2,r0,r2,lsl#24
 1699 02fe 0A43     	 orrs r2,r2,r1
 1700 0300 42EA0722 	 orr r2,r2,r7,lsl#8
 1701              	.LBE435:
 1702              	.LBE437:
 327:../HostCommunication/src/EndpointRadars2glpulse.c **** 			if (status)
 1703              	 .loc 1 327 0
 1704 0304 2846     	 mov r0,r5
 324:../HostCommunication/src/EndpointRadars2glpulse.c **** 			offset += sizeof(uint32_t);
 1705              	 .loc 1 324 0
 1706 0306 2A62     	 str r2,[r5,#32]
 1707              	.LVL168:
 327:../HostCommunication/src/EndpointRadars2glpulse.c **** 			if (status)
 1708              	 .loc 1 327 0
 1709 0308 FFF7FEFF 	 bl copyComPara2Store
 1710              	.LVL169:
 328:../HostCommunication/src/EndpointRadars2glpulse.c **** 			{
 1711              	 .loc 1 328 0
 1712 030c 079B     	 ldr r3,[sp,#28]
 1713 030e 0028     	 cmp r0,#0
 1714 0310 75D1     	 bne .L56
 341:../HostCommunication/src/EndpointRadars2glpulse.c **** 			}
 1715              	 .loc 1 341 0
 1716 0312 0C20     	 movs r0,#12
 1717              	.LVL170:
 1718 0314 9AE6     	 b .L37
 1719              	.LVL171:
 1720              	.L42:
 1721              	.LBE357:
 351:../HostCommunication/src/EndpointRadars2glpulse.c **** 		{
 1722              	 .loc 1 351 0
 1723 0316 052A     	 cmp r2,#5
 1724 0318 7FF496AE 	 bne .L53
 1725              	.LVL172:
 1726              	.LBB439:
 1727              	.LBB440:
 1728              	.LBB441:
 487:C:/Users/Utente/Desktop/Tesi/Firmware_Software/DAVE project/S2GLP_Pulsed_Doppler/HostCommunication/inc\PayloadHelper.h ****            (((uint32_t)payload[offset + 1]) <<  8) |
 1729              	 .loc 2 487 0
 1730 031c CB78     	 ldrb r3,[r1,#3]
 1731              	.LVL173:
 486:C:/Users/Utente/Desktop/Tesi/Firmware_Software/DAVE project/S2GLP_Pulsed_Doppler/HostCommunication/inc\PayloadHelper.h ****            (((uint32_t)payload[offset + 2]) << 16) |
 1732              	 .loc 2 486 0
 1733 031e 0879     	 ldrb r0,[r1,#4]
 489:C:/Users/Utente/Desktop/Tesi/Firmware_Software/DAVE project/S2GLP_Pulsed_Doppler/HostCommunication/inc\PayloadHelper.h **** }
 1734              	 .loc 2 489 0
 1735 0320 4A78     	 ldrb r2,[r1,#1]
 1736              	.LVL174:
 488:C:/Users/Utente/Desktop/Tesi/Firmware_Software/DAVE project/S2GLP_Pulsed_Doppler/HostCommunication/inc\PayloadHelper.h ****             ((uint32_t)payload[offset    ]);
 1737              	 .loc 2 488 0
 1738 0322 8978     	 ldrb r1,[r1,#2]
 1739              	.LVL175:
 487:C:/Users/Utente/Desktop/Tesi/Firmware_Software/DAVE project/S2GLP_Pulsed_Doppler/HostCommunication/inc\PayloadHelper.h ****            (((uint32_t)payload[offset + 1]) <<  8) |
 1740              	 .loc 2 487 0
 1741 0324 1B04     	 lsls r3,r3,#16
 486:C:/Users/Utente/Desktop/Tesi/Firmware_Software/DAVE project/S2GLP_Pulsed_Doppler/HostCommunication/inc\PayloadHelper.h ****            (((uint32_t)payload[offset + 2]) << 16) |
 1742              	 .loc 2 486 0
 1743 0326 43EA0063 	 orr r3,r3,r0,lsl#24
 1744 032a 1343     	 orrs r3,r3,r2
 1745              	.LBE441:
 1746              	.LBE440:
 356:../HostCommunication/src/EndpointRadars2glpulse.c **** 
 1747              	 .loc 1 356 0
 1748 032c 2046     	 mov r0,r4
 1749 032e 43EA0121 	 orr r1,r3,r1,lsl#8
 1750 0332 FFF7FEFF 	 bl set_result_repeat_count
 1751              	.LVL176:
 358:../HostCommunication/src/EndpointRadars2glpulse.c **** 		}
 1752              	 .loc 1 358 0
 1753 0336 0020     	 movs r0,#0
 1754 0338 88E6     	 b .L37
 1755              	.L58:
 1756 033a 00BF     	 .align 2
 1757              	.L57:
 1758 033c 00000000 	 .word g_parameter_pulse
 1759 0340 00000000 	 .word .LANCHOR4
 1760 0344 00000000 	 .word c_para_value_def_list
 1761              	.LVL177:
 1762              	.L43:
 1763              	.LBE439:
 363:../HostCommunication/src/EndpointRadars2glpulse.c **** 		{
 1764              	 .loc 1 363 0
 1765 0348 012A     	 cmp r2,#1
 1766 034a 7FF47DAE 	 bne .L53
 1767              	.LVL178:
 1768              	.LBB442:
 369:../HostCommunication/src/EndpointRadars2glpulse.c **** 
 1769              	 .loc 1 369 0
 1770 034e FFF7FEFF 	 bl ds_get_board_variant
 1771              	.LVL179:
 371:../HostCommunication/src/EndpointRadars2glpulse.c **** 			{
 1772              	 .loc 1 371 0
 1773 0352 0138     	 subs r0,r0,#1
 1774              	.LVL180:
 1775 0354 0328     	 cmp r0,#3
 1776 0356 28BF     	 it cs
 1777 0358 0020     	 movcs r0,#0
 1778              	.LVL181:
 379:../HostCommunication/src/EndpointRadars2glpulse.c **** 			offset += wr_payload_u8(message, offset, p_info->major_rf_shield_version);
 1779              	 .loc 1 379 0
 1780 035a 00EB8000 	 add r0,r0,r0,lsl#2
 1781 035e 8300     	 lsls r3,r0,#2
 1782 0360 2D4D     	 ldr r5,.L59
 1783              	.LBB443:
 1784              	.LBB444:
 241:C:/Users/Utente/Desktop/Tesi/Firmware_Software/DAVE project/S2GLP_Pulsed_Doppler/HostCommunication/inc\PayloadHelper.h ****     return sizeof(uint8_t);
 1785              	 .loc 2 241 0
 1786 0362 2E4F     	 ldr r7,.L59+4
 1787              	.LBE444:
 1788              	.LBE443:
 379:../HostCommunication/src/EndpointRadars2glpulse.c **** 			offset += wr_payload_u8(message, offset, p_info->major_rf_shield_version);
 1789              	 .loc 1 379 0
 1790 0364 EA58     	 ldr r2,[r5,r3]
 1791              	.LBB447:
 1792              	.LBB448:
 1793              	 .loc 2 571 0
 1794 0366 7A70     	 strb r2,[r7,#1]
 1795              	.LBE448:
 1796              	.LBE447:
 379:../HostCommunication/src/EndpointRadars2glpulse.c **** 			offset += wr_payload_u8(message, offset, p_info->major_rf_shield_version);
 1797              	 .loc 1 379 0
 1798 0368 1D44     	 add r5,r5,r3
 1799              	.LBB453:
 1800              	.LBB449:
 568:C:/Users/Utente/Desktop/Tesi/Firmware_Software/DAVE project/S2GLP_Pulsed_Doppler/HostCommunication/inc\PayloadHelper.h ****     payload[offset + 2] = (value >> 16) & 0xFF;
 1801              	 .loc 2 568 0
 1802 036a 110E     	 lsrs r1,r2,#24
 570:C:/Users/Utente/Desktop/Tesi/Firmware_Software/DAVE project/S2GLP_Pulsed_Doppler/HostCommunication/inc\PayloadHelper.h ****     payload[offset    ] =  value        & 0xFF;
 1803              	 .loc 2 570 0
 1804 036c 130A     	 lsrs r3,r2,#8
 1805              	.LBE449:
 1806              	.LBE453:
 1807              	.LBB454:
 1808              	.LBB455:
 241:C:/Users/Utente/Desktop/Tesi/Firmware_Software/DAVE project/S2GLP_Pulsed_Doppler/HostCommunication/inc\PayloadHelper.h ****     return sizeof(uint8_t);
 1809              	 .loc 2 241 0
 1810 036e 95F805C0 	 ldrb ip,[r5,#5]
 1811              	.LBE455:
 1812              	.LBE454:
 1813              	.LBB457:
 1814              	.LBB458:
 1815 0372 95F806E0 	 ldrb lr,[r5,#6]
 1816              	.LBE458:
 1817              	.LBE457:
 1818              	.LBB460:
 1819              	.LBB461:
 1820 0376 EE79     	 ldrb r6,[r5,#7]
 1821              	.LBE461:
 1822              	.LBE460:
 1823              	.LBB463:
 1824              	.LBB464:
 1825 0378 95F80480 	 ldrb r8,[r5,#4]
 1826              	.LBE464:
 1827              	.LBE463:
 1828              	.LBB466:
 1829              	.LBB450:
 570:C:/Users/Utente/Desktop/Tesi/Firmware_Software/DAVE project/S2GLP_Pulsed_Doppler/HostCommunication/inc\PayloadHelper.h ****     payload[offset    ] =  value        & 0xFF;
 1830              	 .loc 2 570 0
 1831 037c BB70     	 strb r3,[r7,#2]
 569:C:/Users/Utente/Desktop/Tesi/Firmware_Software/DAVE project/S2GLP_Pulsed_Doppler/HostCommunication/inc\PayloadHelper.h ****     payload[offset + 1] = (value >>  8) & 0xFF;
 1832              	 .loc 2 569 0
 1833 037e 4FEA1249 	 lsr r9,r2,#16
 1834              	.LBE450:
 1835              	.LBE466:
 1836              	.LBB467:
 1837              	.LBB445:
 241:C:/Users/Utente/Desktop/Tesi/Firmware_Software/DAVE project/S2GLP_Pulsed_Doppler/HostCommunication/inc\PayloadHelper.h ****     return sizeof(uint8_t);
 1838              	 .loc 2 241 0
 1839 0382 4FF0410A 	 mov r10,#65
 1840              	.LBE445:
 1841              	.LBE467:
 1842              	.LBB468:
 1843              	.LBB456:
 1844 0386 87F806C0 	 strb ip,[r7,#6]
 1845              	.LBE456:
 1846              	.LBE468:
 1847              	.LBB469:
 1848              	.LBB459:
 1849 038a 87F807E0 	 strb lr,[r7,#7]
 1850              	.LBE459:
 1851              	.LBE469:
 385:../HostCommunication/src/EndpointRadars2glpulse.c **** 			offset += wr_payload_string(message, offset, p_info->description);
 1852              	 .loc 1 385 0
 1853 038e AA68     	 ldr r2,[r5,#8]
 1854              	.LBB470:
 1855              	.LBB451:
 568:C:/Users/Utente/Desktop/Tesi/Firmware_Software/DAVE project/S2GLP_Pulsed_Doppler/HostCommunication/inc\PayloadHelper.h ****     payload[offset + 2] = (value >> 16) & 0xFF;
 1856              	 .loc 2 568 0
 1857 0390 3971     	 strb r1,[r7,#4]
 1858              	.LBE451:
 1859              	.LBE470:
 1860              	.LBB471:
 1861              	.LBB462:
 241:C:/Users/Utente/Desktop/Tesi/Firmware_Software/DAVE project/S2GLP_Pulsed_Doppler/HostCommunication/inc\PayloadHelper.h ****     return sizeof(uint8_t);
 1862              	 .loc 2 241 0
 1863 0392 3E72     	 strb r6,[r7,#8]
 1864              	.LBE462:
 1865              	.LBE471:
 385:../HostCommunication/src/EndpointRadars2glpulse.c **** 			offset += wr_payload_string(message, offset, p_info->description);
 1866              	 .loc 1 385 0
 1867 0394 0921     	 movs r1,#9
 1868 0396 3846     	 mov r0,r7
 1869              	.LBB472:
 1870              	.LBB446:
 241:C:/Users/Utente/Desktop/Tesi/Firmware_Software/DAVE project/S2GLP_Pulsed_Doppler/HostCommunication/inc\PayloadHelper.h ****     return sizeof(uint8_t);
 1871              	 .loc 2 241 0
 1872 0398 87F800A0 	 strb r10,[r7]
 1873              	.LVL182:
 1874              	.LBE446:
 1875              	.LBE472:
 1876              	.LBB473:
 1877              	.LBB452:
 569:C:/Users/Utente/Desktop/Tesi/Firmware_Software/DAVE project/S2GLP_Pulsed_Doppler/HostCommunication/inc\PayloadHelper.h ****     payload[offset + 1] = (value >>  8) & 0xFF;
 1878              	 .loc 2 569 0
 1879 039c 87F80390 	 strb r9,[r7,#3]
 1880              	.LBE452:
 1881              	.LBE473:
 1882              	.LBB474:
 1883              	.LBB465:
 241:C:/Users/Utente/Desktop/Tesi/Firmware_Software/DAVE project/S2GLP_Pulsed_Doppler/HostCommunication/inc\PayloadHelper.h ****     return sizeof(uint8_t);
 1884              	 .loc 2 241 0
 1885 03a0 87F80580 	 strb r8,[r7,#5]
 1886              	.LVL183:
 1887              	.LBE465:
 1888              	.LBE474:
 385:../HostCommunication/src/EndpointRadars2glpulse.c **** 			offset += wr_payload_string(message, offset, p_info->description);
 1889              	 .loc 1 385 0
 1890 03a4 FFF7FEFF 	 bl wr_payload_string
 1891              	.LVL184:
 1892 03a8 0930     	 adds r0,r0,#9
 1893 03aa 86B2     	 uxth r6,r0
 1894              	.LVL185:
 386:../HostCommunication/src/EndpointRadars2glpulse.c **** 			offset += wr_payload_string(message, offset, p_info->modulation);
 1895              	 .loc 1 386 0
 1896 03ac 3146     	 mov r1,r6
 1897 03ae EA68     	 ldr r2,[r5,#12]
 1898 03b0 3846     	 mov r0,r7
 1899 03b2 FFF7FEFF 	 bl wr_payload_string
 1900              	.LVL186:
 1901 03b6 3044     	 add r0,r0,r6
 1902 03b8 86B2     	 uxth r6,r0
 1903              	.LVL187:
 387:../HostCommunication/src/EndpointRadars2glpulse.c **** 
 1904              	 .loc 1 387 0
 1905 03ba 2A69     	 ldr r2,[r5,#16]
 1906 03bc 3146     	 mov r1,r6
 1907 03be 3846     	 mov r0,r7
 1908 03c0 FFF7FEFF 	 bl wr_payload_string
 1909              	.LVL188:
 1910 03c4 3044     	 add r0,r0,r6
 1911 03c6 85B2     	 uxth r5,r0
 1912              	.LVL189:
 390:../HostCommunication/src/EndpointRadars2glpulse.c **** 			protocol_send_payload(message, offset);
 1913              	 .loc 1 390 0
 1914 03c8 2946     	 mov r1,r5
 1915 03ca 2046     	 mov r0,r4
 1916 03cc FFF7FEFF 	 bl protocol_send_header
 1917              	.LVL190:
 391:../HostCommunication/src/EndpointRadars2glpulse.c **** 			protocol_send_tail();
 1918              	 .loc 1 391 0
 1919 03d0 3846     	 mov r0,r7
 1920 03d2 2946     	 mov r1,r5
 1921 03d4 FFF7FEFF 	 bl protocol_send_payload
 1922              	.LVL191:
 392:../HostCommunication/src/EndpointRadars2glpulse.c **** 
 1923              	 .loc 1 392 0
 1924 03d8 FFF7FEFF 	 bl protocol_send_tail
 1925              	.LVL192:
 394:../HostCommunication/src/EndpointRadars2glpulse.c **** 		}
 1926              	 .loc 1 394 0
 1927 03dc 0020     	 movs r0,#0
 1928 03de 35E6     	 b .L37
 1929              	.LVL193:
 1930              	.L55:
 1931              	.LBE442:
 1932              	.LBB475:
 1933              	.LBB476:
 1934              	.LBB477:
 487:C:/Users/Utente/Desktop/Tesi/Firmware_Software/DAVE project/S2GLP_Pulsed_Doppler/HostCommunication/inc\PayloadHelper.h ****            (((uint32_t)payload[offset + 1]) <<  8) |
 1935              	 .loc 2 487 0
 1936 03e0 CB78     	 ldrb r3,[r1,#3]
 1937              	.LVL194:
 486:C:/Users/Utente/Desktop/Tesi/Firmware_Software/DAVE project/S2GLP_Pulsed_Doppler/HostCommunication/inc\PayloadHelper.h ****            (((uint32_t)payload[offset + 2]) << 16) |
 1938              	 .loc 2 486 0
 1939 03e2 0879     	 ldrb r0,[r1,#4]
 489:C:/Users/Utente/Desktop/Tesi/Firmware_Software/DAVE project/S2GLP_Pulsed_Doppler/HostCommunication/inc\PayloadHelper.h **** }
 1940              	 .loc 2 489 0
 1941 03e4 4A78     	 ldrb r2,[r1,#1]
 1942              	.LVL195:
 488:C:/Users/Utente/Desktop/Tesi/Firmware_Software/DAVE project/S2GLP_Pulsed_Doppler/HostCommunication/inc\PayloadHelper.h ****             ((uint32_t)payload[offset    ]);
 1943              	 .loc 2 488 0
 1944 03e6 8978     	 ldrb r1,[r1,#2]
 1945              	.LVL196:
 487:C:/Users/Utente/Desktop/Tesi/Firmware_Software/DAVE project/S2GLP_Pulsed_Doppler/HostCommunication/inc\PayloadHelper.h ****            (((uint32_t)payload[offset + 1]) <<  8) |
 1946              	 .loc 2 487 0
 1947 03e8 1B04     	 lsls r3,r3,#16
 486:C:/Users/Utente/Desktop/Tesi/Firmware_Software/DAVE project/S2GLP_Pulsed_Doppler/HostCommunication/inc\PayloadHelper.h ****            (((uint32_t)payload[offset + 2]) << 16) |
 1948              	 .loc 2 486 0
 1949 03ea 43EA0063 	 orr r3,r3,r0,lsl#24
 1950 03ee 1343     	 orrs r3,r3,r2
 1951              	.LBE477:
 1952              	.LBE476:
 404:../HostCommunication/src/EndpointRadars2glpulse.c **** 
 1953              	 .loc 1 404 0
 1954 03f0 2046     	 mov r0,r4
 1955 03f2 43EA0121 	 orr r1,r3,r1,lsl#8
 1956 03f6 FFF7FEFF 	 bl set_raw_data_repeat_count
 1957              	.LVL197:
 406:../HostCommunication/src/EndpointRadars2glpulse.c **** 		}
 1958              	 .loc 1 406 0
 1959 03fa 0020     	 movs r0,#0
 1960 03fc 26E6     	 b .L37
 1961              	.LVL198:
 1962              	.L56:
 1963              	.LBE475:
 1964              	.LBB478:
 1965              	.LBB438:
 331:../HostCommunication/src/EndpointRadars2glpulse.c **** 
 1966              	 .loc 1 331 0
 1967 03fe 2046     	 mov r0,r4
 1968              	.LVL199:
 1969 0400 2946     	 mov r1,r5
 1970 0402 0193     	 str r3,[sp,#4]
 1971 0404 FFF7FEFF 	 bl send_parameter_values
 1972              	.LVL200:
 336:../HostCommunication/src/EndpointRadars2glpulse.c **** 				return RADAR_ERR_OK;
 1973              	 .loc 1 336 0
 1974 0408 019B     	 ldr r3,[sp,#4]
 1975 040a 1421     	 movs r1,#20
 1976 040c 1846     	 mov r0,r3
 1977 040e FFF7FEFF 	 bl protocol_broadcast_change
 1978              	.LVL201:
 337:../HostCommunication/src/EndpointRadars2glpulse.c **** 			}
 1979              	 .loc 1 337 0
 1980 0412 0020     	 movs r0,#0
 1981 0414 1AE6     	 b .L37
 1982              	.L60:
 1983 0416 00BF     	 .align 2
 1984              	.L59:
 1985 0418 00000000 	 .word rf_shield_info
 1986 041c 00000000 	 .word .LANCHOR5
 1987              	.LBE438:
 1988              	.LBE478:
 1989              	 .cfi_endproc
 1990              	.LFE549:
 1992              	 .section .text.ep_radar_s2glpulse_handle_change,"ax",%progbits
 1993              	 .align 2
 1994              	 .global ep_radar_s2glpulse_handle_change
 1995              	 .thumb
 1996              	 .thumb_func
 1998              	ep_radar_s2glpulse_handle_change:
 1999              	.LFB550:
 419:../HostCommunication/src/EndpointRadars2glpulse.c **** 	Radar_Handle_t radar_driver = (Radar_Handle_t)context;
 2000              	 .loc 1 419 0
 2001              	 .cfi_startproc
 2002              	 
 2003              	 
 2004              	 
 2005              	.LVL202:
 2006 0000 7047     	 bx lr
 2007              	 .cfi_endproc
 2008              	.LFE550:
 2010              	 .comm g_parameter_pulse,36,4
 2011 0002 00BF     	 .section .bss.message.18163,"aw",%nobits
 2012              	 .align 2
 2013              	 .set .LANCHOR4,.+0
 2016              	message.18163:
 2017 0000 00000000 	 .space 512
 2017      00000000 
 2017      00000000 
 2017      00000000 
 2017      00000000 
 2018              	 .section .bss.message.18114,"aw",%nobits
 2019              	 .align 2
 2020              	 .set .LANCHOR0,.+0
 2023              	message.18114:
 2024 0000 00000000 	 .space 40
 2024      00000000 
 2024      00000000 
 2024      00000000 
 2024      00000000 
 2025              	 .section .bss.message.18121,"aw",%nobits
 2026              	 .align 2
 2027              	 .set .LANCHOR2,.+0
 2030              	message.18121:
 2031 0000 00000000 	 .space 256
 2031      00000000 
 2031      00000000 
 2031      00000000 
 2031      00000000 
 2032              	 .section .bss.message.18178,"aw",%nobits
 2033              	 .align 2
 2034              	 .set .LANCHOR5,.+0
 2037              	message.18178:
 2038 0000 00000000 	 .space 512
 2038      00000000 
 2038      00000000 
 2038      00000000 
 2038      00000000 
 2039              	 .section .bss.transport_buffer.18131,"aw",%nobits
 2040              	 .align 2
 2041              	 .set .LANCHOR3,.+0
 2044              	transport_buffer.18131:
 2045 0000 00000000 	 .space 4096
 2045      00000000 
 2045      00000000 
 2045      00000000 
 2045      00000000 
 2046              	 .section .bss.result_cnt.18113,"aw",%nobits
 2047              	 .align 2
 2048              	 .set .LANCHOR1,.+0
 2051              	result_cnt.18113:
 2052 0000 00000000 	 .space 4
 2053              	 .text
 2054              	.Letext0:
 2055              	 .file 3 "c:\\infineon\\tools\\dave ide\\4.5.0.202105191637\\eclipse\\arm-gcc-49\\arm-none-eabi\\include\\machine\\_default_types.h"
 2056              	 .file 4 "c:\\infineon\\tools\\dave ide\\4.5.0.202105191637\\eclipse\\arm-gcc-49\\arm-none-eabi\\include\\stdint.h"
 2057              	 .file 5 "c:\\infineon\\tools\\dave ide\\4.5.0.202105191637\\eclipse\\arm-gcc-49\\lib\\gcc\\arm-none-eabi\\4.9.3\\include\\stddef.h"
 2058              	 .file 6 "C:/Users/Utente/Desktop/Tesi/Firmware_Software/DAVE project/S2GLP_Pulsed_Doppler/Radar_Control/inc/acq_buffer.h"
 2059              	 .file 7 "C:/Users/Utente/Desktop/Tesi/Firmware_Software/DAVE project/S2GLP_Pulsed_Doppler/Store/inc/datastore.h"
 2060              	 .file 8 "C:/Users/Utente/Desktop/Tesi/Firmware_Software/DAVE project/S2GLP_Pulsed_Doppler/Libraries/CMSIS/Infineon/XMC4700_series/Include/XMC4700.h"
 2061              	 .file 9 "C:/Users/Utente/Desktop/Tesi/Firmware_Software/DAVE project/S2GLP_Pulsed_Doppler/Libraries/XMCLib/inc/xmc_vadc.h"
 2062              	 .file 10 "C:/Users/Utente/Desktop/Tesi/Firmware_Software/DAVE project/S2GLP_Pulsed_Doppler/Libraries/XMCLib/inc/xmc_usbd_regs.h"
 2063              	 .file 11 "C:/Users/Utente/Desktop/Tesi/Firmware_Software/DAVE project/S2GLP_Pulsed_Doppler/Libraries/XMCLib/inc/xmc_usbd.h"
 2064              	 .file 12 "C:/Users/Utente/Desktop/Tesi/Firmware_Software/DAVE project/S2GLP_Pulsed_Doppler/Dave/Generated/USBD/usbd.h"
 2065              	 .file 13 "C:/Users/Utente/Desktop/Tesi/Firmware_Software/DAVE project/S2GLP_Pulsed_Doppler/Libraries/XMCLib/inc/xmc_usic.h"
 2066              	 .file 14 "C:/Users/Utente/Desktop/Tesi/Firmware_Software/DAVE project/S2GLP_Pulsed_Doppler/Radar_Control/inc/radar_api.h"
 2067              	 .file 15 "C:/Users/Utente/Desktop/Tesi/Firmware_Software/DAVE project/S2GLP_Pulsed_Doppler/Radar_Control/inc/radar_pulse.h"
 2068              	 .file 16 "C:/Users/Utente/Desktop/Tesi/Firmware_Software/DAVE project/S2GLP_Pulsed_Doppler/Libraries/CMSIS/Include/core_cm4.h"
 2069              	 .file 17 "C:/Users/Utente/Desktop/Tesi/Firmware_Software/DAVE project/S2GLP_Pulsed_Doppler/Libraries/CMSIS/Infineon/XMC4700_series/Include/system_XMC4700.h"
 2070              	 .file 18 "C:/Users/Utente/Desktop/Tesi/Firmware_Software/DAVE project/S2GLP_Pulsed_Doppler/Dave/Generated/ADC_MEASUREMENT_ADV/adc_measurement_adv.h"
 2071              	 .file 19 "C:/Users/Utente/Desktop/Tesi/Firmware_Software/DAVE project/S2GLP_Pulsed_Doppler/Dave/Generated/USBD/usbd_extern.h"
 2072              	 .file 20 "C:/Users/Utente/Desktop/Tesi/Firmware_Software/DAVE project/S2GLP_Pulsed_Doppler/HostCommunication/inc/Protocol.h"