   1              	 .syntax unified
   2              	 .cpu cortex-m4
   3              	 .eabi_attribute 27,3
   4              	 .fpu fpv4-sp-d16
   5              	 .eabi_attribute 20,1
   6              	 .eabi_attribute 21,1
   7              	 .eabi_attribute 23,3
   8              	 .eabi_attribute 24,1
   9              	 .eabi_attribute 25,1
  10              	 .eabi_attribute 26,1
  11              	 .eabi_attribute 30,2
  12              	 .eabi_attribute 34,1
  13              	 .eabi_attribute 18,4
  14              	 .thumb
  15              	 .file "ProtocolHelper.c"
  16              	 .text
  17              	.Ltext0:
  18              	 .cfi_sections .debug_frame
  19              	 .section .text.wr_payload_float,"ax",%progbits
  20              	 .align 2
  21              	 .global wr_payload_float
  22              	 .thumb
  23              	 .thumb_func
  25              	wr_payload_float:
  26              	.LFB17:
  27              	 .file 1 "../HostCommunication/src/ProtocolHelper.c"
   1:../HostCommunication/src/ProtocolHelper.c **** 
   2:../HostCommunication/src/ProtocolHelper.c **** #include <stdint.h>
   3:../HostCommunication/src/ProtocolHelper.c **** #include <stdlib.h>
   4:../HostCommunication/src/ProtocolHelper.c **** #include <string.h>
   5:../HostCommunication/src/ProtocolHelper.c **** #include "PayloadHelper.h"
   6:../HostCommunication/src/ProtocolHelper.c **** 
   7:../HostCommunication/src/ProtocolHelper.c **** #if !defined(STATIC_ASSERT)
   8:../HostCommunication/src/ProtocolHelper.c **** #define STATIC_ASSERT(test_for_true) _Static_assert((test_for_true), "(" #test_for_true ") failed")
   9:../HostCommunication/src/ProtocolHelper.c **** #endif
  10:../HostCommunication/src/ProtocolHelper.c **** 
  11:../HostCommunication/src/ProtocolHelper.c **** 
  12:../HostCommunication/src/ProtocolHelper.c **** size_t wr_payload_float(uint8_t* payload, size_t offset, float value)
  13:../HostCommunication/src/ProtocolHelper.c **** {
  28              	 .loc 1 13 0
  29              	 .cfi_startproc
  30              	 
  31              	 
  32              	 
  33              	.LVL0:
  34 0000 10B4     	 push {r4}
  35              	.LCFI0:
  36              	 .cfi_def_cfa_offset 4
  37              	 .cfi_offset 4,-4
  38 0002 83B0     	 sub sp,sp,#12
  39              	.LCFI1:
  40              	 .cfi_def_cfa_offset 16
  14:../HostCommunication/src/ProtocolHelper.c **** 
  15:../HostCommunication/src/ProtocolHelper.c **** 	STATIC_ASSERT(sizeof(float) == sizeof(uint32_t));
  16:../HostCommunication/src/ProtocolHelper.c **** 	typedef union {
  17:../HostCommunication/src/ProtocolHelper.c **** 		uint32_t u32_value;
  18:../HostCommunication/src/ProtocolHelper.c **** 		float float_value;
  19:../HostCommunication/src/ProtocolHelper.c **** 	} temp_union;
  20:../HostCommunication/src/ProtocolHelper.c **** 
  21:../HostCommunication/src/ProtocolHelper.c **** 	temp_union data;
  22:../HostCommunication/src/ProtocolHelper.c **** 	data.float_value = value;
  41              	 .loc 1 22 0
  42 0004 02AB     	 add r3,sp,#8
  13:../HostCommunication/src/ProtocolHelper.c **** 
  43              	 .loc 1 13 0
  44 0006 0446     	 mov r4,r0
  45              	 .loc 1 22 0
  46 0008 43F8042D 	 str r2,[r3,#-4]!
  23:../HostCommunication/src/ProtocolHelper.c **** 
  24:../HostCommunication/src/ProtocolHelper.c **** 	memcpy(&payload[offset], &data.u32_value, sizeof(uint32_t));
  47              	 .loc 1 24 0
  48 000c 1868     	 ldr r0,[r3]
  49              	.LVL1:
  50 000e 6050     	 str r0,[r4,r1]
  25:../HostCommunication/src/ProtocolHelper.c ****     return sizeof(uint32_t);
  26:../HostCommunication/src/ProtocolHelper.c **** }
  51              	 .loc 1 26 0
  52 0010 0420     	 movs r0,#4
  53 0012 03B0     	 add sp,sp,#12
  54              	.LCFI2:
  55              	 .cfi_def_cfa_offset 4
  56              	 
  57 0014 5DF8044B 	 ldr r4,[sp],#4
  58              	.LCFI3:
  59              	 .cfi_restore 4
  60              	 .cfi_def_cfa_offset 0
  61              	.LVL2:
  62 0018 7047     	 bx lr
  63              	 .cfi_endproc
  64              	.LFE17:
  66 001a 00BF     	 .section .text.wr_payload_string,"ax",%progbits
  67              	 .align 2
  68              	 .global wr_payload_string
  69              	 .thumb
  70              	 .thumb_func
  72              	wr_payload_string:
  73              	.LFB18:
  27:../HostCommunication/src/ProtocolHelper.c **** 
  28:../HostCommunication/src/ProtocolHelper.c **** 
  29:../HostCommunication/src/ProtocolHelper.c **** size_t wr_payload_string(uint8_t *payload, size_t offset, char const *ptr)
  30:../HostCommunication/src/ProtocolHelper.c **** {
  74              	 .loc 1 30 0
  75              	 .cfi_startproc
  76              	 
  77              	 
  78              	.LVL3:
  79 0000 F8B5     	 push {r3,r4,r5,r6,r7,lr}
  80              	.LCFI4:
  81              	 .cfi_def_cfa_offset 24
  82              	 .cfi_offset 3,-24
  83              	 .cfi_offset 4,-20
  84              	 .cfi_offset 5,-16
  85              	 .cfi_offset 6,-12
  86              	 .cfi_offset 7,-8
  87              	 .cfi_offset 14,-4
  88              	 .loc 1 30 0
  89 0002 0646     	 mov r6,r0
  90 0004 0D46     	 mov r5,r1
  91              	.LVL4:
  31:../HostCommunication/src/ProtocolHelper.c **** 	size_t increment = 0;
  32:../HostCommunication/src/ProtocolHelper.c **** 	if (ptr)
  92              	 .loc 1 32 0
  93 0006 1446     	 mov r4,r2
  94 0008 002A     	 cmp r2,#0
  95 000a 56D0     	 beq .L4
  96              	.LBB40:
  33:../HostCommunication/src/ProtocolHelper.c **** 	{
  34:../HostCommunication/src/ProtocolHelper.c **** 		uint8_t len = strlen(ptr);
  97              	 .loc 1 34 0
  98 000c 1046     	 mov r0,r2
  99              	.LVL5:
 100 000e FFF7FEFF 	 bl strlen
 101              	.LVL6:
 102 0012 7055     	 strb r0,[r6,r5]
 103              	.LVL7:
 104              	.LBB41:
  35:../HostCommunication/src/ProtocolHelper.c **** 		increment += wr_payload_u8(payload, offset + increment, len);  // attach the str len
  36:../HostCommunication/src/ProtocolHelper.c **** 		for(int k = 0; k < len; k++)
 105              	 .loc 1 36 0
 106 0014 10F0FF00 	 ands r0,r0,#255
 107              	.LVL8:
 108              	.LBE41:
 109              	.LBB56:
 110              	.LBB57:
 111              	 .file 2 "C:/Users/Utente/Desktop/Tesi/Firmware_Software/DAVE project/S2GLP_Pulsed_Doppler/HostCommunication/inc/PayloadHelper.h"
   1:C:/Users/Utente/Desktop/Tesi/Firmware_Software/DAVE project/S2GLP_Pulsed_Doppler/HostCommunication/inc\PayloadHelper.h **** ﻿/**
   2:C:/Users/Utente/Desktop/Tesi/Firmware_Software/DAVE project/S2GLP_Pulsed_Doppler/HostCommunication/inc\PayloadHelper.h ****  * \file PayloadHelper.h
   3:C:/Users/Utente/Desktop/Tesi/Firmware_Software/DAVE project/S2GLP_Pulsed_Doppler/HostCommunication/inc\PayloadHelper.h ****  *
   4:C:/Users/Utente/Desktop/Tesi/Firmware_Software/DAVE project/S2GLP_Pulsed_Doppler/HostCommunication/inc\PayloadHelper.h ****  * \brief This file defines an internal protocol API to be used by endpoint
   5:C:/Users/Utente/Desktop/Tesi/Firmware_Software/DAVE project/S2GLP_Pulsed_Doppler/HostCommunication/inc\PayloadHelper.h ****  *        implementations.
   6:C:/Users/Utente/Desktop/Tesi/Firmware_Software/DAVE project/S2GLP_Pulsed_Doppler/HostCommunication/inc\PayloadHelper.h ****  *
   7:C:/Users/Utente/Desktop/Tesi/Firmware_Software/DAVE project/S2GLP_Pulsed_Doppler/HostCommunication/inc\PayloadHelper.h ****  * This file defines some light weight function that help to access data in
   8:C:/Users/Utente/Desktop/Tesi/Firmware_Software/DAVE project/S2GLP_Pulsed_Doppler/HostCommunication/inc\PayloadHelper.h ****  * protocol payload. Different implementation allow to adapt to the
   9:C:/Users/Utente/Desktop/Tesi/Firmware_Software/DAVE project/S2GLP_Pulsed_Doppler/HostCommunication/inc\PayloadHelper.h ****  * capabilities of the target machine. Special implementations can be chosen
  10:C:/Users/Utente/Desktop/Tesi/Firmware_Software/DAVE project/S2GLP_Pulsed_Doppler/HostCommunication/inc\PayloadHelper.h ****  * by defining the according compile time switch. If none of the available
  11:C:/Users/Utente/Desktop/Tesi/Firmware_Software/DAVE project/S2GLP_Pulsed_Doppler/HostCommunication/inc\PayloadHelper.h ****  * compile time switches is chosen, the default implementation will be used.
  12:C:/Users/Utente/Desktop/Tesi/Firmware_Software/DAVE project/S2GLP_Pulsed_Doppler/HostCommunication/inc\PayloadHelper.h ****  *
  13:C:/Users/Utente/Desktop/Tesi/Firmware_Software/DAVE project/S2GLP_Pulsed_Doppler/HostCommunication/inc\PayloadHelper.h ****  * The default implementation is safe on all target machines and can handle
  14:C:/Users/Utente/Desktop/Tesi/Firmware_Software/DAVE project/S2GLP_Pulsed_Doppler/HostCommunication/inc\PayloadHelper.h ****  * both, big endian CPUs and little endian CPUs. It may be slower than other
  15:C:/Users/Utente/Desktop/Tesi/Firmware_Software/DAVE project/S2GLP_Pulsed_Doppler/HostCommunication/inc\PayloadHelper.h ****  * special implementations.
  16:C:/Users/Utente/Desktop/Tesi/Firmware_Software/DAVE project/S2GLP_Pulsed_Doppler/HostCommunication/inc\PayloadHelper.h ****  *
  17:C:/Users/Utente/Desktop/Tesi/Firmware_Software/DAVE project/S2GLP_Pulsed_Doppler/HostCommunication/inc\PayloadHelper.h ****  * If the compile time switch COMLIB_ALLOW_PAYLOAD_CASTS is set, a special
  18:C:/Users/Utente/Desktop/Tesi/Firmware_Software/DAVE project/S2GLP_Pulsed_Doppler/HostCommunication/inc\PayloadHelper.h ****  * implementation for little endian machines is used, that can access data
  19:C:/Users/Utente/Desktop/Tesi/Firmware_Software/DAVE project/S2GLP_Pulsed_Doppler/HostCommunication/inc\PayloadHelper.h ****  * faster by casting data to the right data type. This implementation works
  20:C:/Users/Utente/Desktop/Tesi/Firmware_Software/DAVE project/S2GLP_Pulsed_Doppler/HostCommunication/inc\PayloadHelper.h ****  * only for CPUs that have no alignment requirement for 16 bit and 32 bit
  21:C:/Users/Utente/Desktop/Tesi/Firmware_Software/DAVE project/S2GLP_Pulsed_Doppler/HostCommunication/inc\PayloadHelper.h ****  * integers.
  22:C:/Users/Utente/Desktop/Tesi/Firmware_Software/DAVE project/S2GLP_Pulsed_Doppler/HostCommunication/inc\PayloadHelper.h ****  */
  23:C:/Users/Utente/Desktop/Tesi/Firmware_Software/DAVE project/S2GLP_Pulsed_Doppler/HostCommunication/inc\PayloadHelper.h **** 
  24:C:/Users/Utente/Desktop/Tesi/Firmware_Software/DAVE project/S2GLP_Pulsed_Doppler/HostCommunication/inc\PayloadHelper.h **** /* ===========================================================================
  25:C:/Users/Utente/Desktop/Tesi/Firmware_Software/DAVE project/S2GLP_Pulsed_Doppler/HostCommunication/inc\PayloadHelper.h **** ** Copyright (C) 2016-2021 Infineon Technologies AG
  26:C:/Users/Utente/Desktop/Tesi/Firmware_Software/DAVE project/S2GLP_Pulsed_Doppler/HostCommunication/inc\PayloadHelper.h **** ** All rights reserved.
  27:C:/Users/Utente/Desktop/Tesi/Firmware_Software/DAVE project/S2GLP_Pulsed_Doppler/HostCommunication/inc\PayloadHelper.h **** ** ===========================================================================
  28:C:/Users/Utente/Desktop/Tesi/Firmware_Software/DAVE project/S2GLP_Pulsed_Doppler/HostCommunication/inc\PayloadHelper.h **** **
  29:C:/Users/Utente/Desktop/Tesi/Firmware_Software/DAVE project/S2GLP_Pulsed_Doppler/HostCommunication/inc\PayloadHelper.h **** ** ===========================================================================
  30:C:/Users/Utente/Desktop/Tesi/Firmware_Software/DAVE project/S2GLP_Pulsed_Doppler/HostCommunication/inc\PayloadHelper.h **** ** This document contains proprietary information of Infineon Technologies AG.
  31:C:/Users/Utente/Desktop/Tesi/Firmware_Software/DAVE project/S2GLP_Pulsed_Doppler/HostCommunication/inc\PayloadHelper.h **** ** Passing on and copying of this document, and communication of its contents
  32:C:/Users/Utente/Desktop/Tesi/Firmware_Software/DAVE project/S2GLP_Pulsed_Doppler/HostCommunication/inc\PayloadHelper.h **** ** is not permitted without Infineon's prior written authorisation.
  33:C:/Users/Utente/Desktop/Tesi/Firmware_Software/DAVE project/S2GLP_Pulsed_Doppler/HostCommunication/inc\PayloadHelper.h **** ** ===========================================================================
  34:C:/Users/Utente/Desktop/Tesi/Firmware_Software/DAVE project/S2GLP_Pulsed_Doppler/HostCommunication/inc\PayloadHelper.h **** */
  35:C:/Users/Utente/Desktop/Tesi/Firmware_Software/DAVE project/S2GLP_Pulsed_Doppler/HostCommunication/inc\PayloadHelper.h **** 
  36:C:/Users/Utente/Desktop/Tesi/Firmware_Software/DAVE project/S2GLP_Pulsed_Doppler/HostCommunication/inc\PayloadHelper.h **** #ifndef HOSTCOMMUNICATION_PAYLOAD_HELPER_H_
  37:C:/Users/Utente/Desktop/Tesi/Firmware_Software/DAVE project/S2GLP_Pulsed_Doppler/HostCommunication/inc\PayloadHelper.h **** #define HOSTCOMMUNICATION_PAYLOAD_HELPER_H_
  38:C:/Users/Utente/Desktop/Tesi/Firmware_Software/DAVE project/S2GLP_Pulsed_Doppler/HostCommunication/inc\PayloadHelper.h **** 
  39:C:/Users/Utente/Desktop/Tesi/Firmware_Software/DAVE project/S2GLP_Pulsed_Doppler/HostCommunication/inc\PayloadHelper.h **** /*
  40:C:/Users/Utente/Desktop/Tesi/Firmware_Software/DAVE project/S2GLP_Pulsed_Doppler/HostCommunication/inc\PayloadHelper.h **** ==============================================================================
  41:C:/Users/Utente/Desktop/Tesi/Firmware_Software/DAVE project/S2GLP_Pulsed_Doppler/HostCommunication/inc\PayloadHelper.h ****    1. INCLUDE FILES
  42:C:/Users/Utente/Desktop/Tesi/Firmware_Software/DAVE project/S2GLP_Pulsed_Doppler/HostCommunication/inc\PayloadHelper.h **** ==============================================================================
  43:C:/Users/Utente/Desktop/Tesi/Firmware_Software/DAVE project/S2GLP_Pulsed_Doppler/HostCommunication/inc\PayloadHelper.h ****  */
  44:C:/Users/Utente/Desktop/Tesi/Firmware_Software/DAVE project/S2GLP_Pulsed_Doppler/HostCommunication/inc\PayloadHelper.h **** #include <stdint.h>
  45:C:/Users/Utente/Desktop/Tesi/Firmware_Software/DAVE project/S2GLP_Pulsed_Doppler/HostCommunication/inc\PayloadHelper.h **** #include <stdlib.h>
  46:C:/Users/Utente/Desktop/Tesi/Firmware_Software/DAVE project/S2GLP_Pulsed_Doppler/HostCommunication/inc\PayloadHelper.h **** 
  47:C:/Users/Utente/Desktop/Tesi/Firmware_Software/DAVE project/S2GLP_Pulsed_Doppler/HostCommunication/inc\PayloadHelper.h **** 
  48:C:/Users/Utente/Desktop/Tesi/Firmware_Software/DAVE project/S2GLP_Pulsed_Doppler/HostCommunication/inc\PayloadHelper.h **** #if !defined(STATIC_ASSERT)
  49:C:/Users/Utente/Desktop/Tesi/Firmware_Software/DAVE project/S2GLP_Pulsed_Doppler/HostCommunication/inc\PayloadHelper.h **** #define STATIC_ASSERT(test_for_true) _Static_assert((test_for_true), "(" #test_for_true ") failed")
  50:C:/Users/Utente/Desktop/Tesi/Firmware_Software/DAVE project/S2GLP_Pulsed_Doppler/HostCommunication/inc\PayloadHelper.h **** #endif
  51:C:/Users/Utente/Desktop/Tesi/Firmware_Software/DAVE project/S2GLP_Pulsed_Doppler/HostCommunication/inc\PayloadHelper.h **** 
  52:C:/Users/Utente/Desktop/Tesi/Firmware_Software/DAVE project/S2GLP_Pulsed_Doppler/HostCommunication/inc\PayloadHelper.h **** /*
  53:C:/Users/Utente/Desktop/Tesi/Firmware_Software/DAVE project/S2GLP_Pulsed_Doppler/HostCommunication/inc\PayloadHelper.h **** ==============================================================================
  54:C:/Users/Utente/Desktop/Tesi/Firmware_Software/DAVE project/S2GLP_Pulsed_Doppler/HostCommunication/inc\PayloadHelper.h ****    2. FUNCTION PROTOTYPES AND INLINE FUNCTIONS
  55:C:/Users/Utente/Desktop/Tesi/Firmware_Software/DAVE project/S2GLP_Pulsed_Doppler/HostCommunication/inc\PayloadHelper.h **** ==============================================================================
  56:C:/Users/Utente/Desktop/Tesi/Firmware_Software/DAVE project/S2GLP_Pulsed_Doppler/HostCommunication/inc\PayloadHelper.h ****  */
  57:C:/Users/Utente/Desktop/Tesi/Firmware_Software/DAVE project/S2GLP_Pulsed_Doppler/HostCommunication/inc\PayloadHelper.h **** 
  58:C:/Users/Utente/Desktop/Tesi/Firmware_Software/DAVE project/S2GLP_Pulsed_Doppler/HostCommunication/inc\PayloadHelper.h **** /**
  59:C:/Users/Utente/Desktop/Tesi/Firmware_Software/DAVE project/S2GLP_Pulsed_Doppler/HostCommunication/inc\PayloadHelper.h ****  * \internal
  60:C:/Users/Utente/Desktop/Tesi/Firmware_Software/DAVE project/S2GLP_Pulsed_Doppler/HostCommunication/inc\PayloadHelper.h ****  * \brief The function extracts a signed 8 bit integer from a payload buffer.
  61:C:/Users/Utente/Desktop/Tesi/Firmware_Software/DAVE project/S2GLP_Pulsed_Doppler/HostCommunication/inc\PayloadHelper.h ****  *
  62:C:/Users/Utente/Desktop/Tesi/Firmware_Software/DAVE project/S2GLP_Pulsed_Doppler/HostCommunication/inc\PayloadHelper.h ****  * The function reads one byte from the given payload buffer at the requested
  63:C:/Users/Utente/Desktop/Tesi/Firmware_Software/DAVE project/S2GLP_Pulsed_Doppler/HostCommunication/inc\PayloadHelper.h ****  * position and interprets it as a signed 8 bit integer value, which will be
  64:C:/Users/Utente/Desktop/Tesi/Firmware_Software/DAVE project/S2GLP_Pulsed_Doppler/HostCommunication/inc\PayloadHelper.h ****  * returned.
  65:C:/Users/Utente/Desktop/Tesi/Firmware_Software/DAVE project/S2GLP_Pulsed_Doppler/HostCommunication/inc\PayloadHelper.h ****  *
  66:C:/Users/Utente/Desktop/Tesi/Firmware_Software/DAVE project/S2GLP_Pulsed_Doppler/HostCommunication/inc\PayloadHelper.h ****  * \param[in] payload  A pointer to a block of payload data.
  67:C:/Users/Utente/Desktop/Tesi/Firmware_Software/DAVE project/S2GLP_Pulsed_Doppler/HostCommunication/inc\PayloadHelper.h ****  * \param[in] offset   The byte position at which the requested data value
  68:C:/Users/Utente/Desktop/Tesi/Firmware_Software/DAVE project/S2GLP_Pulsed_Doppler/HostCommunication/inc\PayloadHelper.h ****  *                     starts.
  69:C:/Users/Utente/Desktop/Tesi/Firmware_Software/DAVE project/S2GLP_Pulsed_Doppler/HostCommunication/inc\PayloadHelper.h ****  *
  70:C:/Users/Utente/Desktop/Tesi/Firmware_Software/DAVE project/S2GLP_Pulsed_Doppler/HostCommunication/inc\PayloadHelper.h ****  * \return The function returns the value read from the payload.
  71:C:/Users/Utente/Desktop/Tesi/Firmware_Software/DAVE project/S2GLP_Pulsed_Doppler/HostCommunication/inc\PayloadHelper.h ****  */
  72:C:/Users/Utente/Desktop/Tesi/Firmware_Software/DAVE project/S2GLP_Pulsed_Doppler/HostCommunication/inc\PayloadHelper.h **** static inline int8_t rd_payload_i8(const uint8_t* payload, size_t offset)
  73:C:/Users/Utente/Desktop/Tesi/Firmware_Software/DAVE project/S2GLP_Pulsed_Doppler/HostCommunication/inc\PayloadHelper.h **** {
  74:C:/Users/Utente/Desktop/Tesi/Firmware_Software/DAVE project/S2GLP_Pulsed_Doppler/HostCommunication/inc\PayloadHelper.h ****     return (int8_t)payload[offset];
  75:C:/Users/Utente/Desktop/Tesi/Firmware_Software/DAVE project/S2GLP_Pulsed_Doppler/HostCommunication/inc\PayloadHelper.h **** }
  76:C:/Users/Utente/Desktop/Tesi/Firmware_Software/DAVE project/S2GLP_Pulsed_Doppler/HostCommunication/inc\PayloadHelper.h **** 
  77:C:/Users/Utente/Desktop/Tesi/Firmware_Software/DAVE project/S2GLP_Pulsed_Doppler/HostCommunication/inc\PayloadHelper.h **** /**
  78:C:/Users/Utente/Desktop/Tesi/Firmware_Software/DAVE project/S2GLP_Pulsed_Doppler/HostCommunication/inc\PayloadHelper.h ****  * \internal
  79:C:/Users/Utente/Desktop/Tesi/Firmware_Software/DAVE project/S2GLP_Pulsed_Doppler/HostCommunication/inc\PayloadHelper.h ****  * \brief The function extracts an unsigned 8 bit integer from a payload
  80:C:/Users/Utente/Desktop/Tesi/Firmware_Software/DAVE project/S2GLP_Pulsed_Doppler/HostCommunication/inc\PayloadHelper.h ****  *        buffer.
  81:C:/Users/Utente/Desktop/Tesi/Firmware_Software/DAVE project/S2GLP_Pulsed_Doppler/HostCommunication/inc\PayloadHelper.h ****  *
  82:C:/Users/Utente/Desktop/Tesi/Firmware_Software/DAVE project/S2GLP_Pulsed_Doppler/HostCommunication/inc\PayloadHelper.h ****  * The function reads one byte from the given payload buffer at the requested
  83:C:/Users/Utente/Desktop/Tesi/Firmware_Software/DAVE project/S2GLP_Pulsed_Doppler/HostCommunication/inc\PayloadHelper.h ****  * position and interprets it as an unsigned 8 bit integer value, which will
  84:C:/Users/Utente/Desktop/Tesi/Firmware_Software/DAVE project/S2GLP_Pulsed_Doppler/HostCommunication/inc\PayloadHelper.h ****  * be returned.
  85:C:/Users/Utente/Desktop/Tesi/Firmware_Software/DAVE project/S2GLP_Pulsed_Doppler/HostCommunication/inc\PayloadHelper.h ****  *
  86:C:/Users/Utente/Desktop/Tesi/Firmware_Software/DAVE project/S2GLP_Pulsed_Doppler/HostCommunication/inc\PayloadHelper.h ****  * \param[in] payload  A pointer to a block of payload data.
  87:C:/Users/Utente/Desktop/Tesi/Firmware_Software/DAVE project/S2GLP_Pulsed_Doppler/HostCommunication/inc\PayloadHelper.h ****  * \param[in] offset   The byte position at which the requested data value
  88:C:/Users/Utente/Desktop/Tesi/Firmware_Software/DAVE project/S2GLP_Pulsed_Doppler/HostCommunication/inc\PayloadHelper.h ****  *                     starts.
  89:C:/Users/Utente/Desktop/Tesi/Firmware_Software/DAVE project/S2GLP_Pulsed_Doppler/HostCommunication/inc\PayloadHelper.h ****  *
  90:C:/Users/Utente/Desktop/Tesi/Firmware_Software/DAVE project/S2GLP_Pulsed_Doppler/HostCommunication/inc\PayloadHelper.h ****  * \return The function returns the value read from the payload.
  91:C:/Users/Utente/Desktop/Tesi/Firmware_Software/DAVE project/S2GLP_Pulsed_Doppler/HostCommunication/inc\PayloadHelper.h ****  */
  92:C:/Users/Utente/Desktop/Tesi/Firmware_Software/DAVE project/S2GLP_Pulsed_Doppler/HostCommunication/inc\PayloadHelper.h **** static inline uint8_t rd_payload_u8(const uint8_t* payload, size_t offset)
  93:C:/Users/Utente/Desktop/Tesi/Firmware_Software/DAVE project/S2GLP_Pulsed_Doppler/HostCommunication/inc\PayloadHelper.h **** {
  94:C:/Users/Utente/Desktop/Tesi/Firmware_Software/DAVE project/S2GLP_Pulsed_Doppler/HostCommunication/inc\PayloadHelper.h ****     return payload[offset];
  95:C:/Users/Utente/Desktop/Tesi/Firmware_Software/DAVE project/S2GLP_Pulsed_Doppler/HostCommunication/inc\PayloadHelper.h **** }
  96:C:/Users/Utente/Desktop/Tesi/Firmware_Software/DAVE project/S2GLP_Pulsed_Doppler/HostCommunication/inc\PayloadHelper.h **** 
  97:C:/Users/Utente/Desktop/Tesi/Firmware_Software/DAVE project/S2GLP_Pulsed_Doppler/HostCommunication/inc\PayloadHelper.h **** /**
  98:C:/Users/Utente/Desktop/Tesi/Firmware_Software/DAVE project/S2GLP_Pulsed_Doppler/HostCommunication/inc\PayloadHelper.h ****  * \internal
  99:C:/Users/Utente/Desktop/Tesi/Firmware_Software/DAVE project/S2GLP_Pulsed_Doppler/HostCommunication/inc\PayloadHelper.h ****  * \brief The function extracts a signed 16 bit integer from a payload buffer.
 100:C:/Users/Utente/Desktop/Tesi/Firmware_Software/DAVE project/S2GLP_Pulsed_Doppler/HostCommunication/inc\PayloadHelper.h ****  *
 101:C:/Users/Utente/Desktop/Tesi/Firmware_Software/DAVE project/S2GLP_Pulsed_Doppler/HostCommunication/inc\PayloadHelper.h ****  * The function reads two bytes from the given payload buffer starting at the
 102:C:/Users/Utente/Desktop/Tesi/Firmware_Software/DAVE project/S2GLP_Pulsed_Doppler/HostCommunication/inc\PayloadHelper.h ****  * requested position and interprets them as a signed 16 bit integer value,
 103:C:/Users/Utente/Desktop/Tesi/Firmware_Software/DAVE project/S2GLP_Pulsed_Doppler/HostCommunication/inc\PayloadHelper.h ****  * which will be returned. If needed the byte order is swapped to convert from
 104:C:/Users/Utente/Desktop/Tesi/Firmware_Software/DAVE project/S2GLP_Pulsed_Doppler/HostCommunication/inc\PayloadHelper.h ****  * the payload's little endian format to the CPU's endian format.
 105:C:/Users/Utente/Desktop/Tesi/Firmware_Software/DAVE project/S2GLP_Pulsed_Doppler/HostCommunication/inc\PayloadHelper.h ****  *
 106:C:/Users/Utente/Desktop/Tesi/Firmware_Software/DAVE project/S2GLP_Pulsed_Doppler/HostCommunication/inc\PayloadHelper.h ****  * \param[in] payload  A pointer to a block of payload data.
 107:C:/Users/Utente/Desktop/Tesi/Firmware_Software/DAVE project/S2GLP_Pulsed_Doppler/HostCommunication/inc\PayloadHelper.h ****  * \param[in] offset   The byte position at which the requested data value
 108:C:/Users/Utente/Desktop/Tesi/Firmware_Software/DAVE project/S2GLP_Pulsed_Doppler/HostCommunication/inc\PayloadHelper.h ****  *                     starts.
 109:C:/Users/Utente/Desktop/Tesi/Firmware_Software/DAVE project/S2GLP_Pulsed_Doppler/HostCommunication/inc\PayloadHelper.h ****  *
 110:C:/Users/Utente/Desktop/Tesi/Firmware_Software/DAVE project/S2GLP_Pulsed_Doppler/HostCommunication/inc\PayloadHelper.h ****  * \return The function returns the value read from the payload.
 111:C:/Users/Utente/Desktop/Tesi/Firmware_Software/DAVE project/S2GLP_Pulsed_Doppler/HostCommunication/inc\PayloadHelper.h ****  */
 112:C:/Users/Utente/Desktop/Tesi/Firmware_Software/DAVE project/S2GLP_Pulsed_Doppler/HostCommunication/inc\PayloadHelper.h **** static inline int16_t rd_payload_i16(const uint8_t* payload, size_t offset);
 113:C:/Users/Utente/Desktop/Tesi/Firmware_Software/DAVE project/S2GLP_Pulsed_Doppler/HostCommunication/inc\PayloadHelper.h **** 
 114:C:/Users/Utente/Desktop/Tesi/Firmware_Software/DAVE project/S2GLP_Pulsed_Doppler/HostCommunication/inc\PayloadHelper.h **** /**
 115:C:/Users/Utente/Desktop/Tesi/Firmware_Software/DAVE project/S2GLP_Pulsed_Doppler/HostCommunication/inc\PayloadHelper.h ****  * \internal
 116:C:/Users/Utente/Desktop/Tesi/Firmware_Software/DAVE project/S2GLP_Pulsed_Doppler/HostCommunication/inc\PayloadHelper.h ****  * \brief The function extracts an unsigned 16 bit integer from a payload
 117:C:/Users/Utente/Desktop/Tesi/Firmware_Software/DAVE project/S2GLP_Pulsed_Doppler/HostCommunication/inc\PayloadHelper.h ****  *        buffer.
 118:C:/Users/Utente/Desktop/Tesi/Firmware_Software/DAVE project/S2GLP_Pulsed_Doppler/HostCommunication/inc\PayloadHelper.h ****  *
 119:C:/Users/Utente/Desktop/Tesi/Firmware_Software/DAVE project/S2GLP_Pulsed_Doppler/HostCommunication/inc\PayloadHelper.h ****  * The function reads two bytes from the given payload buffer starting at the
 120:C:/Users/Utente/Desktop/Tesi/Firmware_Software/DAVE project/S2GLP_Pulsed_Doppler/HostCommunication/inc\PayloadHelper.h ****  * requested position and interprets them as an unsigned 16 bit integer value,
 121:C:/Users/Utente/Desktop/Tesi/Firmware_Software/DAVE project/S2GLP_Pulsed_Doppler/HostCommunication/inc\PayloadHelper.h ****  * which will be returned. If needed the byte order is swapped to convert from
 122:C:/Users/Utente/Desktop/Tesi/Firmware_Software/DAVE project/S2GLP_Pulsed_Doppler/HostCommunication/inc\PayloadHelper.h ****  * the payload's little endian format to the CPU's endian format.
 123:C:/Users/Utente/Desktop/Tesi/Firmware_Software/DAVE project/S2GLP_Pulsed_Doppler/HostCommunication/inc\PayloadHelper.h ****  *
 124:C:/Users/Utente/Desktop/Tesi/Firmware_Software/DAVE project/S2GLP_Pulsed_Doppler/HostCommunication/inc\PayloadHelper.h ****  * \param[in] payload  A pointer to a block of payload data.
 125:C:/Users/Utente/Desktop/Tesi/Firmware_Software/DAVE project/S2GLP_Pulsed_Doppler/HostCommunication/inc\PayloadHelper.h ****  * \param[in] offset   The byte position at which the requested data value
 126:C:/Users/Utente/Desktop/Tesi/Firmware_Software/DAVE project/S2GLP_Pulsed_Doppler/HostCommunication/inc\PayloadHelper.h ****  *                     starts.
 127:C:/Users/Utente/Desktop/Tesi/Firmware_Software/DAVE project/S2GLP_Pulsed_Doppler/HostCommunication/inc\PayloadHelper.h ****  *
 128:C:/Users/Utente/Desktop/Tesi/Firmware_Software/DAVE project/S2GLP_Pulsed_Doppler/HostCommunication/inc\PayloadHelper.h ****  * \return The function returns the value read from the payload.
 129:C:/Users/Utente/Desktop/Tesi/Firmware_Software/DAVE project/S2GLP_Pulsed_Doppler/HostCommunication/inc\PayloadHelper.h ****  */
 130:C:/Users/Utente/Desktop/Tesi/Firmware_Software/DAVE project/S2GLP_Pulsed_Doppler/HostCommunication/inc\PayloadHelper.h **** static inline uint16_t rd_payload_u16(const uint8_t* payload,
 131:C:/Users/Utente/Desktop/Tesi/Firmware_Software/DAVE project/S2GLP_Pulsed_Doppler/HostCommunication/inc\PayloadHelper.h **** 		size_t offset);
 132:C:/Users/Utente/Desktop/Tesi/Firmware_Software/DAVE project/S2GLP_Pulsed_Doppler/HostCommunication/inc\PayloadHelper.h **** 
 133:C:/Users/Utente/Desktop/Tesi/Firmware_Software/DAVE project/S2GLP_Pulsed_Doppler/HostCommunication/inc\PayloadHelper.h **** /**
 134:C:/Users/Utente/Desktop/Tesi/Firmware_Software/DAVE project/S2GLP_Pulsed_Doppler/HostCommunication/inc\PayloadHelper.h ****  * \internal
 135:C:/Users/Utente/Desktop/Tesi/Firmware_Software/DAVE project/S2GLP_Pulsed_Doppler/HostCommunication/inc\PayloadHelper.h ****  * \brief The function extracts a signed 32 bit integer from a payload buffer.
 136:C:/Users/Utente/Desktop/Tesi/Firmware_Software/DAVE project/S2GLP_Pulsed_Doppler/HostCommunication/inc\PayloadHelper.h ****  *
 137:C:/Users/Utente/Desktop/Tesi/Firmware_Software/DAVE project/S2GLP_Pulsed_Doppler/HostCommunication/inc\PayloadHelper.h ****  * The function reads four bytes from the given payload buffer starting at the
 138:C:/Users/Utente/Desktop/Tesi/Firmware_Software/DAVE project/S2GLP_Pulsed_Doppler/HostCommunication/inc\PayloadHelper.h ****  * requested position and interprets them as a signed 32 bit integer value,
 139:C:/Users/Utente/Desktop/Tesi/Firmware_Software/DAVE project/S2GLP_Pulsed_Doppler/HostCommunication/inc\PayloadHelper.h ****  * which will be returned. If needed the byte order is swapped to convert from
 140:C:/Users/Utente/Desktop/Tesi/Firmware_Software/DAVE project/S2GLP_Pulsed_Doppler/HostCommunication/inc\PayloadHelper.h ****  * the payload's little endian format to the CPU's endian format.
 141:C:/Users/Utente/Desktop/Tesi/Firmware_Software/DAVE project/S2GLP_Pulsed_Doppler/HostCommunication/inc\PayloadHelper.h ****  *
 142:C:/Users/Utente/Desktop/Tesi/Firmware_Software/DAVE project/S2GLP_Pulsed_Doppler/HostCommunication/inc\PayloadHelper.h ****  * \param[in] payload  A pointer to a block of payload data.
 143:C:/Users/Utente/Desktop/Tesi/Firmware_Software/DAVE project/S2GLP_Pulsed_Doppler/HostCommunication/inc\PayloadHelper.h ****  * \param[in] offset   The byte position at which the requested data value
 144:C:/Users/Utente/Desktop/Tesi/Firmware_Software/DAVE project/S2GLP_Pulsed_Doppler/HostCommunication/inc\PayloadHelper.h ****  *                     starts.
 145:C:/Users/Utente/Desktop/Tesi/Firmware_Software/DAVE project/S2GLP_Pulsed_Doppler/HostCommunication/inc\PayloadHelper.h ****  *
 146:C:/Users/Utente/Desktop/Tesi/Firmware_Software/DAVE project/S2GLP_Pulsed_Doppler/HostCommunication/inc\PayloadHelper.h ****  * \return The function returns the value read from the payload.
 147:C:/Users/Utente/Desktop/Tesi/Firmware_Software/DAVE project/S2GLP_Pulsed_Doppler/HostCommunication/inc\PayloadHelper.h ****  */
 148:C:/Users/Utente/Desktop/Tesi/Firmware_Software/DAVE project/S2GLP_Pulsed_Doppler/HostCommunication/inc\PayloadHelper.h **** static inline int32_t rd_payload_i32(const uint8_t* payload, size_t offset);
 149:C:/Users/Utente/Desktop/Tesi/Firmware_Software/DAVE project/S2GLP_Pulsed_Doppler/HostCommunication/inc\PayloadHelper.h **** 
 150:C:/Users/Utente/Desktop/Tesi/Firmware_Software/DAVE project/S2GLP_Pulsed_Doppler/HostCommunication/inc\PayloadHelper.h **** /**
 151:C:/Users/Utente/Desktop/Tesi/Firmware_Software/DAVE project/S2GLP_Pulsed_Doppler/HostCommunication/inc\PayloadHelper.h ****  * \internal
 152:C:/Users/Utente/Desktop/Tesi/Firmware_Software/DAVE project/S2GLP_Pulsed_Doppler/HostCommunication/inc\PayloadHelper.h ****  * \brief The function extracts an unsigned 32 bit integer from a payload
 153:C:/Users/Utente/Desktop/Tesi/Firmware_Software/DAVE project/S2GLP_Pulsed_Doppler/HostCommunication/inc\PayloadHelper.h ****  *        buffer.
 154:C:/Users/Utente/Desktop/Tesi/Firmware_Software/DAVE project/S2GLP_Pulsed_Doppler/HostCommunication/inc\PayloadHelper.h ****  *
 155:C:/Users/Utente/Desktop/Tesi/Firmware_Software/DAVE project/S2GLP_Pulsed_Doppler/HostCommunication/inc\PayloadHelper.h ****  * The function reads four bytes from the given payload buffer starting at the
 156:C:/Users/Utente/Desktop/Tesi/Firmware_Software/DAVE project/S2GLP_Pulsed_Doppler/HostCommunication/inc\PayloadHelper.h ****  * requested position and interprets them as an unsigned 32 bit integer value,
 157:C:/Users/Utente/Desktop/Tesi/Firmware_Software/DAVE project/S2GLP_Pulsed_Doppler/HostCommunication/inc\PayloadHelper.h ****  * which will be returned. If needed the byte order is swapped to convert from
 158:C:/Users/Utente/Desktop/Tesi/Firmware_Software/DAVE project/S2GLP_Pulsed_Doppler/HostCommunication/inc\PayloadHelper.h ****  * the payload's little endian format to the CPU's endian format.
 159:C:/Users/Utente/Desktop/Tesi/Firmware_Software/DAVE project/S2GLP_Pulsed_Doppler/HostCommunication/inc\PayloadHelper.h ****  *
 160:C:/Users/Utente/Desktop/Tesi/Firmware_Software/DAVE project/S2GLP_Pulsed_Doppler/HostCommunication/inc\PayloadHelper.h ****  * \param[in] payload  A pointer to a block of payload data.
 161:C:/Users/Utente/Desktop/Tesi/Firmware_Software/DAVE project/S2GLP_Pulsed_Doppler/HostCommunication/inc\PayloadHelper.h ****  * \param[in] offset   The byte position at which the requested data value
 162:C:/Users/Utente/Desktop/Tesi/Firmware_Software/DAVE project/S2GLP_Pulsed_Doppler/HostCommunication/inc\PayloadHelper.h ****  *                     starts.
 163:C:/Users/Utente/Desktop/Tesi/Firmware_Software/DAVE project/S2GLP_Pulsed_Doppler/HostCommunication/inc\PayloadHelper.h ****  *
 164:C:/Users/Utente/Desktop/Tesi/Firmware_Software/DAVE project/S2GLP_Pulsed_Doppler/HostCommunication/inc\PayloadHelper.h ****  * \return The function returns the value read from the payload.
 165:C:/Users/Utente/Desktop/Tesi/Firmware_Software/DAVE project/S2GLP_Pulsed_Doppler/HostCommunication/inc\PayloadHelper.h ****  */
 166:C:/Users/Utente/Desktop/Tesi/Firmware_Software/DAVE project/S2GLP_Pulsed_Doppler/HostCommunication/inc\PayloadHelper.h **** static inline uint32_t rd_payload_u32(const uint8_t* payload,
 167:C:/Users/Utente/Desktop/Tesi/Firmware_Software/DAVE project/S2GLP_Pulsed_Doppler/HostCommunication/inc\PayloadHelper.h **** 		size_t offset);
 168:C:/Users/Utente/Desktop/Tesi/Firmware_Software/DAVE project/S2GLP_Pulsed_Doppler/HostCommunication/inc\PayloadHelper.h **** 
 169:C:/Users/Utente/Desktop/Tesi/Firmware_Software/DAVE project/S2GLP_Pulsed_Doppler/HostCommunication/inc\PayloadHelper.h **** /**
 170:C:/Users/Utente/Desktop/Tesi/Firmware_Software/DAVE project/S2GLP_Pulsed_Doppler/HostCommunication/inc\PayloadHelper.h ****  * \internal
 171:C:/Users/Utente/Desktop/Tesi/Firmware_Software/DAVE project/S2GLP_Pulsed_Doppler/HostCommunication/inc\PayloadHelper.h ****  * \brief The function extracts a signed 64 bit integer from a payload buffer.
 172:C:/Users/Utente/Desktop/Tesi/Firmware_Software/DAVE project/S2GLP_Pulsed_Doppler/HostCommunication/inc\PayloadHelper.h ****  *
 173:C:/Users/Utente/Desktop/Tesi/Firmware_Software/DAVE project/S2GLP_Pulsed_Doppler/HostCommunication/inc\PayloadHelper.h ****  * The function reads four bytes from the given payload buffer starting at the
 174:C:/Users/Utente/Desktop/Tesi/Firmware_Software/DAVE project/S2GLP_Pulsed_Doppler/HostCommunication/inc\PayloadHelper.h ****  * requested position and interprets them as a signed 64 bit integer value,
 175:C:/Users/Utente/Desktop/Tesi/Firmware_Software/DAVE project/S2GLP_Pulsed_Doppler/HostCommunication/inc\PayloadHelper.h ****  * which will be returned. If needed the byte order is swapped to convert from
 176:C:/Users/Utente/Desktop/Tesi/Firmware_Software/DAVE project/S2GLP_Pulsed_Doppler/HostCommunication/inc\PayloadHelper.h ****  * the payload's little endian format to the CPU's endian format.
 177:C:/Users/Utente/Desktop/Tesi/Firmware_Software/DAVE project/S2GLP_Pulsed_Doppler/HostCommunication/inc\PayloadHelper.h ****  *
 178:C:/Users/Utente/Desktop/Tesi/Firmware_Software/DAVE project/S2GLP_Pulsed_Doppler/HostCommunication/inc\PayloadHelper.h ****  * \param[in] payload  A pointer to a block of payload data.
 179:C:/Users/Utente/Desktop/Tesi/Firmware_Software/DAVE project/S2GLP_Pulsed_Doppler/HostCommunication/inc\PayloadHelper.h ****  * \param[in] offset   The byte position at which the requested data value
 180:C:/Users/Utente/Desktop/Tesi/Firmware_Software/DAVE project/S2GLP_Pulsed_Doppler/HostCommunication/inc\PayloadHelper.h ****  *                     starts.
 181:C:/Users/Utente/Desktop/Tesi/Firmware_Software/DAVE project/S2GLP_Pulsed_Doppler/HostCommunication/inc\PayloadHelper.h ****  *
 182:C:/Users/Utente/Desktop/Tesi/Firmware_Software/DAVE project/S2GLP_Pulsed_Doppler/HostCommunication/inc\PayloadHelper.h ****  * \return The function returns the value read from the payload.
 183:C:/Users/Utente/Desktop/Tesi/Firmware_Software/DAVE project/S2GLP_Pulsed_Doppler/HostCommunication/inc\PayloadHelper.h ****  */
 184:C:/Users/Utente/Desktop/Tesi/Firmware_Software/DAVE project/S2GLP_Pulsed_Doppler/HostCommunication/inc\PayloadHelper.h **** static inline int64_t rd_payload_i64(const uint8_t* payload, size_t offset);
 185:C:/Users/Utente/Desktop/Tesi/Firmware_Software/DAVE project/S2GLP_Pulsed_Doppler/HostCommunication/inc\PayloadHelper.h **** 
 186:C:/Users/Utente/Desktop/Tesi/Firmware_Software/DAVE project/S2GLP_Pulsed_Doppler/HostCommunication/inc\PayloadHelper.h **** /**
 187:C:/Users/Utente/Desktop/Tesi/Firmware_Software/DAVE project/S2GLP_Pulsed_Doppler/HostCommunication/inc\PayloadHelper.h ****  * \internal
 188:C:/Users/Utente/Desktop/Tesi/Firmware_Software/DAVE project/S2GLP_Pulsed_Doppler/HostCommunication/inc\PayloadHelper.h ****  * \brief The function extracts an unsigned 64 bit integer from a payload
 189:C:/Users/Utente/Desktop/Tesi/Firmware_Software/DAVE project/S2GLP_Pulsed_Doppler/HostCommunication/inc\PayloadHelper.h ****  *        buffer.
 190:C:/Users/Utente/Desktop/Tesi/Firmware_Software/DAVE project/S2GLP_Pulsed_Doppler/HostCommunication/inc\PayloadHelper.h ****  *
 191:C:/Users/Utente/Desktop/Tesi/Firmware_Software/DAVE project/S2GLP_Pulsed_Doppler/HostCommunication/inc\PayloadHelper.h ****  * The function reads four bytes from the given payload buffer starting at the
 192:C:/Users/Utente/Desktop/Tesi/Firmware_Software/DAVE project/S2GLP_Pulsed_Doppler/HostCommunication/inc\PayloadHelper.h ****  * requested position and interprets them as an unsigned 64 bit integer value,
 193:C:/Users/Utente/Desktop/Tesi/Firmware_Software/DAVE project/S2GLP_Pulsed_Doppler/HostCommunication/inc\PayloadHelper.h ****  * which will be returned. If needed the byte order is swapped to convert from
 194:C:/Users/Utente/Desktop/Tesi/Firmware_Software/DAVE project/S2GLP_Pulsed_Doppler/HostCommunication/inc\PayloadHelper.h ****  * the payload's little endian format to the CPU's endian format.
 195:C:/Users/Utente/Desktop/Tesi/Firmware_Software/DAVE project/S2GLP_Pulsed_Doppler/HostCommunication/inc\PayloadHelper.h ****  *
 196:C:/Users/Utente/Desktop/Tesi/Firmware_Software/DAVE project/S2GLP_Pulsed_Doppler/HostCommunication/inc\PayloadHelper.h ****  * \param[in] payload  A pointer to a block of payload data.
 197:C:/Users/Utente/Desktop/Tesi/Firmware_Software/DAVE project/S2GLP_Pulsed_Doppler/HostCommunication/inc\PayloadHelper.h ****  * \param[in] offset   The byte position at which the requested data value
 198:C:/Users/Utente/Desktop/Tesi/Firmware_Software/DAVE project/S2GLP_Pulsed_Doppler/HostCommunication/inc\PayloadHelper.h ****  *                     starts.
 199:C:/Users/Utente/Desktop/Tesi/Firmware_Software/DAVE project/S2GLP_Pulsed_Doppler/HostCommunication/inc\PayloadHelper.h ****  *
 200:C:/Users/Utente/Desktop/Tesi/Firmware_Software/DAVE project/S2GLP_Pulsed_Doppler/HostCommunication/inc\PayloadHelper.h ****  * \return The function returns the value read from the payload.
 201:C:/Users/Utente/Desktop/Tesi/Firmware_Software/DAVE project/S2GLP_Pulsed_Doppler/HostCommunication/inc\PayloadHelper.h ****  */
 202:C:/Users/Utente/Desktop/Tesi/Firmware_Software/DAVE project/S2GLP_Pulsed_Doppler/HostCommunication/inc\PayloadHelper.h **** static inline uint64_t rd_payload_u64(const uint8_t* payload,
 203:C:/Users/Utente/Desktop/Tesi/Firmware_Software/DAVE project/S2GLP_Pulsed_Doppler/HostCommunication/inc\PayloadHelper.h **** 		size_t offset);
 204:C:/Users/Utente/Desktop/Tesi/Firmware_Software/DAVE project/S2GLP_Pulsed_Doppler/HostCommunication/inc\PayloadHelper.h **** 
 205:C:/Users/Utente/Desktop/Tesi/Firmware_Software/DAVE project/S2GLP_Pulsed_Doppler/HostCommunication/inc\PayloadHelper.h **** /**
 206:C:/Users/Utente/Desktop/Tesi/Firmware_Software/DAVE project/S2GLP_Pulsed_Doppler/HostCommunication/inc\PayloadHelper.h ****  * \internal
 207:C:/Users/Utente/Desktop/Tesi/Firmware_Software/DAVE project/S2GLP_Pulsed_Doppler/HostCommunication/inc\PayloadHelper.h ****  * \brief The function writes a signed 8 bit integer value to a payload
 208:C:/Users/Utente/Desktop/Tesi/Firmware_Software/DAVE project/S2GLP_Pulsed_Doppler/HostCommunication/inc\PayloadHelper.h ****  *        buffer.
 209:C:/Users/Utente/Desktop/Tesi/Firmware_Software/DAVE project/S2GLP_Pulsed_Doppler/HostCommunication/inc\PayloadHelper.h ****  *
 210:C:/Users/Utente/Desktop/Tesi/Firmware_Software/DAVE project/S2GLP_Pulsed_Doppler/HostCommunication/inc\PayloadHelper.h ****  * The function writes the given value into the given payload buffer at the
 211:C:/Users/Utente/Desktop/Tesi/Firmware_Software/DAVE project/S2GLP_Pulsed_Doppler/HostCommunication/inc\PayloadHelper.h ****  * requested position.
 212:C:/Users/Utente/Desktop/Tesi/Firmware_Software/DAVE project/S2GLP_Pulsed_Doppler/HostCommunication/inc\PayloadHelper.h ****  *
 213:C:/Users/Utente/Desktop/Tesi/Firmware_Software/DAVE project/S2GLP_Pulsed_Doppler/HostCommunication/inc\PayloadHelper.h ****  * \param[in] payload  A pointer to a block of payload data.
 214:C:/Users/Utente/Desktop/Tesi/Firmware_Software/DAVE project/S2GLP_Pulsed_Doppler/HostCommunication/inc\PayloadHelper.h ****  * \param[in] offset   The byte position at which the value will be written
 215:C:/Users/Utente/Desktop/Tesi/Firmware_Software/DAVE project/S2GLP_Pulsed_Doppler/HostCommunication/inc\PayloadHelper.h ****  *                     to.
 216:C:/Users/Utente/Desktop/Tesi/Firmware_Software/DAVE project/S2GLP_Pulsed_Doppler/HostCommunication/inc\PayloadHelper.h ****  * \param[in] value    The value to be written into the payload buffer.
 217:C:/Users/Utente/Desktop/Tesi/Firmware_Software/DAVE project/S2GLP_Pulsed_Doppler/HostCommunication/inc\PayloadHelper.h ****  */
 218:C:/Users/Utente/Desktop/Tesi/Firmware_Software/DAVE project/S2GLP_Pulsed_Doppler/HostCommunication/inc\PayloadHelper.h **** static inline size_t wr_payload_i8(uint8_t* payload, size_t offset,
 219:C:/Users/Utente/Desktop/Tesi/Firmware_Software/DAVE project/S2GLP_Pulsed_Doppler/HostCommunication/inc\PayloadHelper.h ****                                  int8_t value)
 220:C:/Users/Utente/Desktop/Tesi/Firmware_Software/DAVE project/S2GLP_Pulsed_Doppler/HostCommunication/inc\PayloadHelper.h **** {
 221:C:/Users/Utente/Desktop/Tesi/Firmware_Software/DAVE project/S2GLP_Pulsed_Doppler/HostCommunication/inc\PayloadHelper.h ****     payload[offset] = (uint8_t)value;
 222:C:/Users/Utente/Desktop/Tesi/Firmware_Software/DAVE project/S2GLP_Pulsed_Doppler/HostCommunication/inc\PayloadHelper.h ****     return sizeof(int8_t);
 223:C:/Users/Utente/Desktop/Tesi/Firmware_Software/DAVE project/S2GLP_Pulsed_Doppler/HostCommunication/inc\PayloadHelper.h **** }
 224:C:/Users/Utente/Desktop/Tesi/Firmware_Software/DAVE project/S2GLP_Pulsed_Doppler/HostCommunication/inc\PayloadHelper.h **** 
 225:C:/Users/Utente/Desktop/Tesi/Firmware_Software/DAVE project/S2GLP_Pulsed_Doppler/HostCommunication/inc\PayloadHelper.h **** /**
 226:C:/Users/Utente/Desktop/Tesi/Firmware_Software/DAVE project/S2GLP_Pulsed_Doppler/HostCommunication/inc\PayloadHelper.h ****  * \internal
 227:C:/Users/Utente/Desktop/Tesi/Firmware_Software/DAVE project/S2GLP_Pulsed_Doppler/HostCommunication/inc\PayloadHelper.h ****  * \brief The function writes an unsigned 8 bit integer value to a payload
 228:C:/Users/Utente/Desktop/Tesi/Firmware_Software/DAVE project/S2GLP_Pulsed_Doppler/HostCommunication/inc\PayloadHelper.h ****  *        buffer.
 229:C:/Users/Utente/Desktop/Tesi/Firmware_Software/DAVE project/S2GLP_Pulsed_Doppler/HostCommunication/inc\PayloadHelper.h ****  *
 230:C:/Users/Utente/Desktop/Tesi/Firmware_Software/DAVE project/S2GLP_Pulsed_Doppler/HostCommunication/inc\PayloadHelper.h ****  * The function writes the given value into the given payload buffer at the
 231:C:/Users/Utente/Desktop/Tesi/Firmware_Software/DAVE project/S2GLP_Pulsed_Doppler/HostCommunication/inc\PayloadHelper.h ****  * requested position.
 232:C:/Users/Utente/Desktop/Tesi/Firmware_Software/DAVE project/S2GLP_Pulsed_Doppler/HostCommunication/inc\PayloadHelper.h ****  *
 233:C:/Users/Utente/Desktop/Tesi/Firmware_Software/DAVE project/S2GLP_Pulsed_Doppler/HostCommunication/inc\PayloadHelper.h ****  * \param[in] payload  A pointer to a block of payload data.
 234:C:/Users/Utente/Desktop/Tesi/Firmware_Software/DAVE project/S2GLP_Pulsed_Doppler/HostCommunication/inc\PayloadHelper.h ****  * \param[in] offset   The byte position at which the value will be written
 235:C:/Users/Utente/Desktop/Tesi/Firmware_Software/DAVE project/S2GLP_Pulsed_Doppler/HostCommunication/inc\PayloadHelper.h ****  *                     to.
 236:C:/Users/Utente/Desktop/Tesi/Firmware_Software/DAVE project/S2GLP_Pulsed_Doppler/HostCommunication/inc\PayloadHelper.h ****  * \param[in] value    The value to be written into the payload buffer.
 237:C:/Users/Utente/Desktop/Tesi/Firmware_Software/DAVE project/S2GLP_Pulsed_Doppler/HostCommunication/inc\PayloadHelper.h ****  */
 238:C:/Users/Utente/Desktop/Tesi/Firmware_Software/DAVE project/S2GLP_Pulsed_Doppler/HostCommunication/inc\PayloadHelper.h **** static inline size_t wr_payload_u8(uint8_t* payload, size_t offset,
 239:C:/Users/Utente/Desktop/Tesi/Firmware_Software/DAVE project/S2GLP_Pulsed_Doppler/HostCommunication/inc\PayloadHelper.h ****                                  uint8_t value)
 240:C:/Users/Utente/Desktop/Tesi/Firmware_Software/DAVE project/S2GLP_Pulsed_Doppler/HostCommunication/inc\PayloadHelper.h **** {
 241:C:/Users/Utente/Desktop/Tesi/Firmware_Software/DAVE project/S2GLP_Pulsed_Doppler/HostCommunication/inc\PayloadHelper.h ****     payload[offset] = value;
 112              	 .loc 2 241 0
 113 0018 06EB0503 	 add r3,r6,r5
 114              	.LVL9:
 115              	.LBE57:
 116              	.LBE56:
 117              	.LBB58:
 118              	 .loc 1 36 0
 119 001c 50D0     	 beq .L13
 120 001e 6A1C     	 adds r2,r5,#1
 121 0020 3244     	 add r2,r2,r6
 122 0022 44EA0207 	 orr r7,r4,r2
 123 0026 691D     	 adds r1,r5,#5
 124 0028 17F0030F 	 tst r7,#3
 125 002c 06EB0107 	 add r7,r6,r1
 126 0030 04F10401 	 add r1,r4,#4
 127 0034 0CBF     	 ite eq
 128 0036 4FF0010E 	 moveq lr,#1
 129 003a 4FF0000E 	 movne lr,#0
 130 003e BC42     	 cmp r4,r7
 131 0040 38BF     	 it cc
 132 0042 8A42     	 cmpcc r2,r1
 133 0044 2CBF     	 ite cs
 134 0046 0121     	 movcs r1,#1
 135 0048 0021     	 movcc r1,#0
 136 004a 1EEA010F 	 tst lr,r1
 137 004e 29D0     	 beq .L6
 138 0050 0928     	 cmp r0,#9
 139 0052 27D9     	 bls .L6
 140 0054 031F     	 subs r3,r0,#4
 141              	.LVL10:
 142 0056 9B08     	 lsrs r3,r3,#2
 143 0058 0133     	 adds r3,r3,#1
 144 005a 9900     	 lsls r1,r3,#2
 145 005c A4F1040E 	 sub lr,r4,#4
 146 0060 0027     	 movs r7,#0
 147              	.LVL11:
 148              	.L7:
 149 0062 0137     	 adds r7,r7,#1
  37:../HostCommunication/src/ProtocolHelper.c **** 		{
  38:../HostCommunication/src/ProtocolHelper.c **** 			increment += wr_payload_u8(payload, offset + increment, ptr[k]);
 150              	 .loc 1 38 0 discriminator 3
 151 0064 5EF804CF 	 ldr ip,[lr,#4]!
 152              	.LVL12:
 153              	.LBB42:
 154              	.LBB43:
 155              	 .loc 2 241 0 discriminator 3
 156 0068 42F804CB 	 str ip,[r2],#4
 157 006c BB42     	 cmp r3,r7
 158 006e F8D8     	 bhi .L7
 159 0070 8842     	 cmp r0,r1
 160 0072 01F10102 	 add r2,r1,#1
 161 0076 13D0     	 beq .L12
 162              	.LVL13:
 163              	 .loc 2 241 0 is_stmt 0
 164 0078 B718     	 adds r7,r6,r2
 165              	.LBE43:
 166              	.LBE42:
 167              	 .loc 1 38 0 is_stmt 1
 168 007a 14F823E0 	 ldrb lr,[r4,r3,lsl#2]
 169              	.LVL14:
 170              	.LBB50:
 171              	.LBB44:
 172              	 .loc 2 241 0
 173 007e 07F805E0 	 strb lr,[r7,r5]
 174              	.LBE44:
 175              	.LBE50:
  36:../HostCommunication/src/ProtocolHelper.c **** 		{
 176              	 .loc 1 36 0
 177 0082 8242     	 cmp r2,r0
 178              	 .loc 1 38 0
 179 0084 01F10203 	 add r3,r1,#2
 180              	.LVL15:
  36:../HostCommunication/src/ProtocolHelper.c **** 		{
 181              	 .loc 1 36 0
 182 0088 0ADA     	 bge .L12
 183              	.LBB51:
 184              	.LBB45:
 185              	 .loc 2 241 0
 186 008a 3344     	 add r3,r3,r6
 187              	.LVL16:
 188              	.LBE45:
 189              	.LBE51:
 190              	 .loc 1 38 0
 191 008c A25C     	 ldrb r2,[r4,r2]
 192              	.LVL17:
 193              	.LBB52:
 194              	.LBB46:
 195              	 .loc 2 241 0
 196 008e 5A55     	 strb r2,[r3,r5]
 197              	.LBE46:
 198              	.LBE52:
  36:../HostCommunication/src/ProtocolHelper.c **** 		{
 199              	 .loc 1 36 0
 200 0090 8B1C     	 adds r3,r1,#2
 201              	.LVL18:
 202 0092 9842     	 cmp r0,r3
 203              	 .loc 1 38 0
 204 0094 01F10301 	 add r1,r1,#3
 205              	.LVL19:
  36:../HostCommunication/src/ProtocolHelper.c **** 		{
 206              	 .loc 1 36 0
 207 0098 02DD     	 ble .L12
 208              	.LBB53:
 209              	.LBB47:
 210              	 .loc 2 241 0
 211 009a 3144     	 add r1,r1,r6
 212              	.LBE47:
 213              	.LBE53:
 214              	 .loc 1 38 0
 215 009c E35C     	 ldrb r3,[r4,r3]
 216              	.LVL20:
 217              	.LBB54:
 218              	.LBB48:
 219              	 .loc 2 241 0
 220 009e 4B55     	 strb r3,[r1,r5]
 221              	.LVL21:
 222              	.L12:
 223 00a0 0130     	 adds r0,r0,#1
 224 00a2 F8BD     	 pop {r3,r4,r5,r6,r7,pc}
 225              	.LVL22:
 226              	.L6:
 227 00a4 0544     	 add r5,r5,r0
 228              	.LVL23:
 229 00a6 2E44     	 add r6,r6,r5
 230              	.LVL24:
 231 00a8 013C     	 subs r4,r4,#1
 232              	.LVL25:
 233              	.L11:
 234              	.LBE48:
 235              	.LBE54:
 236              	 .loc 1 38 0
 237 00aa 14F8012F 	 ldrb r2,[r4,#1]!
 238              	.LVL26:
 239              	.LBB55:
 240              	.LBB49:
 241              	 .loc 2 241 0
 242 00ae 03F8012F 	 strb r2,[r3,#1]!
 243              	.LVL27:
 244              	.LBE49:
 245              	.LBE55:
  36:../HostCommunication/src/ProtocolHelper.c **** 		{
 246              	 .loc 1 36 0
 247 00b2 B342     	 cmp r3,r6
 248 00b4 F9D1     	 bne .L11
 249 00b6 0130     	 adds r0,r0,#1
 250 00b8 F8BD     	 pop {r3,r4,r5,r6,r7,pc}
 251              	.LVL28:
 252              	.L4:
 253              	.LBE58:
 254              	.LBE40:
 255              	.LBB59:
 256              	.LBB60:
 257              	 .loc 2 241 0
 258 00ba 7255     	 strb r2,[r6,r5]
 259              	.LVL29:
 260              	.LBE60:
 261              	.LBE59:
  39:../HostCommunication/src/ProtocolHelper.c **** 		}
  40:../HostCommunication/src/ProtocolHelper.c **** 	}
  41:../HostCommunication/src/ProtocolHelper.c **** 	else
  42:../HostCommunication/src/ProtocolHelper.c **** 	{
  43:../HostCommunication/src/ProtocolHelper.c **** 		increment += wr_payload_u8(payload, offset + increment, 0);  // attach the str len 0, to indicate
 262              	 .loc 1 43 0
 263 00bc 0120     	 movs r0,#1
 264              	.LVL30:
 265 00be F8BD     	 pop {r3,r4,r5,r6,r7,pc}
 266              	.LVL31:
 267              	.L13:
 268              	.LBB61:
  35:../HostCommunication/src/ProtocolHelper.c **** 		for(int k = 0; k < len; k++)
 269              	 .loc 1 35 0
 270 00c0 0120     	 movs r0,#1
 271              	.LVL32:
 272              	.LBE61:
  44:../HostCommunication/src/ProtocolHelper.c **** 	}
  45:../HostCommunication/src/ProtocolHelper.c **** 	return increment;
  46:../HostCommunication/src/ProtocolHelper.c **** }
 273              	 .loc 1 46 0
 274 00c2 F8BD     	 pop {r3,r4,r5,r6,r7,pc}
 275              	 .cfi_endproc
 276              	.LFE18:
 278              	 .section .text.wr_payload_helper_string_list,"ax",%progbits
 279              	 .align 2
 280              	 .global wr_payload_helper_string_list
 281              	 .thumb
 282              	 .thumb_func
 284              	wr_payload_helper_string_list:
 285              	.LFB19:
  47:../HostCommunication/src/ProtocolHelper.c **** 
  48:../HostCommunication/src/ProtocolHelper.c **** 
  49:../HostCommunication/src/ProtocolHelper.c **** size_t wr_payload_helper_string_list(uint8_t* payload, size_t offset, size_t elements,  char * cons
  50:../HostCommunication/src/ProtocolHelper.c **** {
 286              	 .loc 1 50 0
 287              	 .cfi_startproc
 288              	 
 289              	 
 290              	.LVL33:
 291 0000 2DE9F04F 	 push {r4,r5,r6,r7,r8,r9,r10,fp,lr}
 292              	.LCFI5:
 293              	 .cfi_def_cfa_offset 36
 294              	 .cfi_offset 4,-36
 295              	 .cfi_offset 5,-32
 296              	 .cfi_offset 6,-28
 297              	 .cfi_offset 7,-24
 298              	 .cfi_offset 8,-20
 299              	 .cfi_offset 9,-16
 300              	 .cfi_offset 10,-12
 301              	 .cfi_offset 11,-8
 302              	 .cfi_offset 14,-4
 303 0004 8146     	 mov r9,r0
 304              	.LVL34:
 305 0006 83B0     	 sub sp,sp,#12
 306              	.LCFI6:
 307              	 .cfi_def_cfa_offset 48
 308              	 .loc 1 50 0
 309 0008 8846     	 mov r8,r1
 310              	.LVL35:
  51:../HostCommunication/src/ProtocolHelper.c **** 	size_t increment = 0;
  52:../HostCommunication/src/ProtocolHelper.c **** 	increment += wr_payload_u8(payload, offset, elements);
 311              	 .loc 1 52 0
 312 000a 4254     	 strb r2,[r0,r1]
 313              	.LVL36:
 314              	.LBB76:
  53:../HostCommunication/src/ProtocolHelper.c **** 	for(int i = 0; i < elements; i++)
 315              	 .loc 1 53 0
 316 000c 002A     	 cmp r2,#0
 317 000e 77D0     	 beq .L38
 318 0010 0126     	 movs r6,#1
 319 0012 9A46     	 mov r10,r3
 320 0014 03EB8207 	 add r7,r3,r2,lsl#2
 321 0018 8B19     	 adds r3,r1,r6
 322              	.LVL37:
 323 001a 0093     	 str r3,[sp]
 324 001c 4B1D     	 adds r3,r1,#5
 325 001e 0193     	 str r3,[sp,#4]
 326 0020 52E0     	 b .L37
 327              	.LVL38:
 328              	.L53:
 329              	.LBB77:
 330              	.LBB78:
 331              	.LBB79:
 332              	.LBB80:
  34:../HostCommunication/src/ProtocolHelper.c **** 		increment += wr_payload_u8(payload, offset + increment, len);  // attach the str len
 333              	 .loc 1 34 0
 334 0022 2046     	 mov r0,r4
 335 0024 FFF7FEFF 	 bl strlen
 336              	.LVL39:
 337 0028 09F80500 	 strb r0,[r9,r5]
 338              	.LVL40:
 339              	.LBB81:
  36:../HostCommunication/src/ProtocolHelper.c **** 		{
 340              	 .loc 1 36 0
 341 002c 10F0FF00 	 ands r0,r0,#255
 342              	.LVL41:
 343              	.LBE81:
 344              	.LBB92:
 345              	.LBB93:
 346              	 .loc 2 241 0
 347 0030 09EB0503 	 add r3,r9,r5
 348              	.LVL42:
 349              	.LBE93:
 350              	.LBE92:
 351              	.LBB94:
  36:../HostCommunication/src/ProtocolHelper.c **** 		{
 352              	 .loc 1 36 0
 353 0034 62D0     	 beq .L39
 354 0036 009A     	 ldr r2,[sp]
 355 0038 0199     	 ldr r1,[sp,#4]
 356 003a 3244     	 add r2,r2,r6
 357 003c 4A44     	 add r2,r2,r9
 358 003e 42EA040C 	 orr ip,r2,r4
 359 0042 01EB060E 	 add lr,r1,r6
 360 0046 1CF0030F 	 tst ip,#3
 361 004a 04F10401 	 add r1,r4,#4
 362 004e CE44     	 add lr,lr,r9
 363 0050 0CBF     	 ite eq
 364 0052 4FF0010C 	 moveq ip,#1
 365 0056 4FF0000C 	 movne ip,#0
 366 005a 7445     	 cmp r4,lr
 367 005c 38BF     	 it cc
 368 005e 8A42     	 cmpcc r2,r1
 369 0060 2CBF     	 ite cs
 370 0062 0121     	 movcs r1,#1
 371 0064 0021     	 movcc r1,#0
 372 0066 1CEA010F 	 tst ip,r1
 373 006a 3DD0     	 beq .L30
 374 006c 0928     	 cmp r0,#9
 375 006e 3BD9     	 bls .L30
 376 0070 011F     	 subs r1,r0,#4
 377 0072 8908     	 lsrs r1,r1,#2
 378 0074 0131     	 adds r1,r1,#1
 379 0076 8D00     	 lsls r5,r1,#2
 380              	.LVL43:
 381 0078 A4F1040C 	 sub ip,r4,#4
 382 007c 4FF0000E 	 mov lr,#0
 383 0080 9B46     	 mov fp,r3
 384              	.LVL44:
 385              	.L31:
 386 0082 0EF1010E 	 add lr,lr,#1
  38:../HostCommunication/src/ProtocolHelper.c **** 		}
 387              	 .loc 1 38 0
 388 0086 5CF8043F 	 ldr r3,[ip,#4]!
 389              	.LVL45:
 390              	.LBB82:
 391              	.LBB83:
 392              	 .loc 2 241 0
 393 008a 42F8043B 	 str r3,[r2],#4
 394 008e 7145     	 cmp r1,lr
 395 0090 F7D8     	 bhi .L31
 396 0092 A842     	 cmp r0,r5
 397 0094 5B46     	 mov r3,fp
 398 0096 05F10102 	 add r2,r5,#1
 399 009a 11D0     	 beq .L36
 400              	.LVL46:
 401              	.LBE83:
 402              	.LBE82:
  38:../HostCommunication/src/ProtocolHelper.c **** 		}
 403              	 .loc 1 38 0
 404 009c 14F82110 	 ldrb r1,[r4,r1,lsl#2]
 405              	.LVL47:
 406              	.LBB88:
 407              	.LBB84:
 408              	 .loc 2 241 0
 409 00a0 0BF80210 	 strb r1,[fp,r2]
 410              	.LBE84:
 411              	.LBE88:
  36:../HostCommunication/src/ProtocolHelper.c **** 		{
 412              	 .loc 1 36 0
 413 00a4 8242     	 cmp r2,r0
  38:../HostCommunication/src/ProtocolHelper.c **** 		}
 414              	 .loc 1 38 0
 415 00a6 05F10201 	 add r1,r5,#2
 416              	.LVL48:
  36:../HostCommunication/src/ProtocolHelper.c **** 		{
 417              	 .loc 1 36 0
 418 00aa 09DA     	 bge .L36
  38:../HostCommunication/src/ProtocolHelper.c **** 		}
 419              	 .loc 1 38 0
 420 00ac A25C     	 ldrb r2,[r4,r2]
 421              	.LVL49:
 422              	.LBB89:
 423              	.LBB85:
 424              	 .loc 2 241 0
 425 00ae 0BF80120 	 strb r2,[fp,r1]
 426              	.LBE85:
 427              	.LBE89:
  36:../HostCommunication/src/ProtocolHelper.c **** 		{
 428              	 .loc 1 36 0
 429 00b2 8842     	 cmp r0,r1
 430 00b4 0A46     	 mov r2,r1
 431              	.LVL50:
  38:../HostCommunication/src/ProtocolHelper.c **** 		}
 432              	 .loc 1 38 0
 433 00b6 05F10305 	 add r5,r5,#3
 434              	.LVL51:
  36:../HostCommunication/src/ProtocolHelper.c **** 		{
 435              	 .loc 1 36 0
 436 00ba 01DD     	 ble .L36
  38:../HostCommunication/src/ProtocolHelper.c **** 		}
 437              	 .loc 1 38 0
 438 00bc A25C     	 ldrb r2,[r4,r2]
 439              	.LVL52:
 440              	.LBB90:
 441              	.LBB86:
 442              	 .loc 2 241 0
 443 00be 5A55     	 strb r2,[r3,r5]
 444              	.LVL53:
 445              	.L36:
 446 00c0 0130     	 adds r0,r0,#1
 447              	.L29:
 448              	.LVL54:
 449              	.LBE86:
 450              	.LBE90:
 451              	.LBE94:
 452              	.LBE80:
 453              	.LBE79:
 454              	.LBE78:
 455              	.LBE77:
 456              	 .loc 1 53 0
 457 00c2 BA45     	 cmp r10,r7
 458              	.LBB105:
  54:../HostCommunication/src/ProtocolHelper.c **** 	{
  55:../HostCommunication/src/ProtocolHelper.c **** 		const char *ptr = pp_str[i];
  56:../HostCommunication/src/ProtocolHelper.c **** 		increment += wr_payload_string(payload, offset + increment, ptr);
 459              	 .loc 1 56 0
 460 00c4 0644     	 add r6,r6,r0
 461              	.LVL55:
 462              	.LBE105:
  53:../HostCommunication/src/ProtocolHelper.c **** 	{
 463              	 .loc 1 53 0
 464 00c6 0BD0     	 beq .L27
 465              	.LVL56:
 466              	.L37:
 467              	.LBB106:
  55:../HostCommunication/src/ProtocolHelper.c **** 		increment += wr_payload_string(payload, offset + increment, ptr);
 468              	 .loc 1 55 0 discriminator 3
 469 00c8 5AF8044B 	 ldr r4,[r10],#4
 470              	.LVL57:
 471              	 .loc 1 56 0 discriminator 3
 472 00cc 06EB0805 	 add r5,r6,r8
 473              	.LVL58:
 474              	.LBB102:
 475              	.LBB99:
  32:../HostCommunication/src/ProtocolHelper.c **** 	{
 476              	 .loc 1 32 0 discriminator 3
 477 00d0 002C     	 cmp r4,#0
 478 00d2 A6D1     	 bne .L53
 479              	.LVL59:
  43:../HostCommunication/src/ProtocolHelper.c **** 	}
 480              	 .loc 1 43 0
 481 00d4 0120     	 movs r0,#1
 482              	.LBE99:
 483              	.LBE102:
 484              	.LBE106:
  53:../HostCommunication/src/ProtocolHelper.c **** 	{
 485              	 .loc 1 53 0
 486 00d6 BA45     	 cmp r10,r7
 487              	.LBB107:
 488              	.LBB103:
 489              	.LBB100:
 490              	.LBB96:
 491              	.LBB97:
 492              	 .loc 2 241 0
 493 00d8 09F80540 	 strb r4,[r9,r5]
 494              	.LVL60:
 495              	.LBE97:
 496              	.LBE96:
 497              	.LBE100:
 498              	.LBE103:
 499              	 .loc 1 56 0
 500 00dc 0644     	 add r6,r6,r0
 501              	.LVL61:
 502              	.LBE107:
  53:../HostCommunication/src/ProtocolHelper.c **** 	{
 503              	 .loc 1 53 0
 504 00de F3D1     	 bne .L37
 505              	.LVL62:
 506              	.L27:
 507              	.LBE76:
  57:../HostCommunication/src/ProtocolHelper.c **** 	}
  58:../HostCommunication/src/ProtocolHelper.c **** 	return increment;
  59:../HostCommunication/src/ProtocolHelper.c **** }
 508              	 .loc 1 59 0
 509 00e0 3046     	 mov r0,r6
 510 00e2 03B0     	 add sp,sp,#12
 511              	.LCFI7:
 512              	 .cfi_remember_state
 513              	 .cfi_def_cfa_offset 36
 514              	 
 515 00e4 BDE8F08F 	 pop {r4,r5,r6,r7,r8,r9,r10,fp,pc}
 516              	.LVL63:
 517              	.L30:
 518              	.LCFI8:
 519              	 .cfi_restore_state
 520 00e8 0544     	 add r5,r5,r0
 521              	.LVL64:
 522 00ea 4D44     	 add r5,r5,r9
 523 00ec 013C     	 subs r4,r4,#1
 524              	.LVL65:
 525              	.L35:
 526              	.LBB109:
 527              	.LBB108:
 528              	.LBB104:
 529              	.LBB101:
 530              	.LBB98:
 531              	.LBB95:
  38:../HostCommunication/src/ProtocolHelper.c **** 		}
 532              	 .loc 1 38 0
 533 00ee 14F8012F 	 ldrb r2,[r4,#1]!
 534              	.LVL66:
 535              	.LBB91:
 536              	.LBB87:
 537              	 .loc 2 241 0
 538 00f2 03F8012F 	 strb r2,[r3,#1]!
 539              	.LBE87:
 540              	.LBE91:
  36:../HostCommunication/src/ProtocolHelper.c **** 		{
 541              	 .loc 1 36 0
 542 00f6 AB42     	 cmp r3,r5
 543 00f8 F9D1     	 bne .L35
 544 00fa E1E7     	 b .L36
 545              	.LVL67:
 546              	.L39:
 547              	.LBE95:
  35:../HostCommunication/src/ProtocolHelper.c **** 		for(int k = 0; k < len; k++)
 548              	 .loc 1 35 0
 549 00fc 0120     	 movs r0,#1
 550 00fe E0E7     	 b .L29
 551              	.LVL68:
 552              	.L38:
 553              	.LBE98:
 554              	.LBE101:
 555              	.LBE104:
 556              	.LBE108:
 557              	.LBE109:
  52:../HostCommunication/src/ProtocolHelper.c **** 	for(int i = 0; i < elements; i++)
 558              	 .loc 1 52 0
 559 0100 0126     	 movs r6,#1
 560 0102 EDE7     	 b .L27
 561              	 .cfi_endproc
 562              	.LFE19:
 564              	 .section .text.wr_payload_helper_float_list,"ax",%progbits
 565              	 .align 2
 566              	 .global wr_payload_helper_float_list
 567              	 .thumb
 568              	 .thumb_func
 570              	wr_payload_helper_float_list:
 571              	.LFB20:
  60:../HostCommunication/src/ProtocolHelper.c **** 
  61:../HostCommunication/src/ProtocolHelper.c **** size_t wr_payload_helper_float_list(uint8_t* payload, size_t offset, size_t elements,  float *p_val
  62:../HostCommunication/src/ProtocolHelper.c **** {
 572              	 .loc 1 62 0
 573              	 .cfi_startproc
 574              	 
 575              	 
 576              	 
 577              	.LVL69:
  63:../HostCommunication/src/ProtocolHelper.c **** 	size_t increment = 0;
  64:../HostCommunication/src/ProtocolHelper.c **** 	increment += wr_payload_u8(payload, offset, elements);
 578              	 .loc 1 64 0
 579 0000 4254     	 strb r2,[r0,r1]
 580              	.LVL70:
 581              	.LBB110:
  65:../HostCommunication/src/ProtocolHelper.c **** 	for(int i = 0; i < elements; i++)
 582              	 .loc 1 65 0
 583 0002 9AB1     	 cbz r2,.L57
 584              	.LBE110:
  62:../HostCommunication/src/ProtocolHelper.c **** 	size_t increment = 0;
 585              	 .loc 1 62 0
 586 0004 10B4     	 push {r4}
 587              	.LCFI9:
 588              	 .cfi_def_cfa_offset 4
 589              	 .cfi_offset 4,-4
 590 0006 0131     	 adds r1,r1,#1
 591              	.LVL71:
 592 0008 83B0     	 sub sp,sp,#12
 593              	.LCFI10:
 594              	 .cfi_def_cfa_offset 16
 595 000a 0144     	 add r1,r1,r0
 596              	.LVL72:
 597              	.LBB117:
 598              	 .loc 1 65 0
 599 000c 0024     	 movs r4,#0
 600              	.LVL73:
 601              	.L56:
 602              	.LBB111:
  66:../HostCommunication/src/ProtocolHelper.c **** 	{
  67:../HostCommunication/src/ProtocolHelper.c **** 		float value = p_value[i];
 603              	 .loc 1 67 0 discriminator 3
 604 000e 53F8040B 	 ldr r0,[r3],#4
 605              	.LVL74:
 606              	.LBB112:
 607              	.LBB113:
  22:../HostCommunication/src/ProtocolHelper.c **** 
 608              	 .loc 1 22 0 discriminator 3
 609 0012 0190     	 str r0,[sp,#4]
 610              	.LBE113:
 611              	.LBE112:
 612              	.LBE111:
  65:../HostCommunication/src/ProtocolHelper.c **** 	{
 613              	 .loc 1 65 0 discriminator 3
 614 0014 0134     	 adds r4,r4,#1
 615              	.LVL75:
 616              	.LBB116:
 617              	.LBB115:
 618              	.LBB114:
  24:../HostCommunication/src/ProtocolHelper.c ****     return sizeof(uint32_t);
 619              	 .loc 1 24 0 discriminator 3
 620 0016 0198     	 ldr r0,[sp,#4]
 621              	.LVL76:
 622 0018 41F8040B 	 str r0,[r1],#4
 623              	.LVL77:
 624              	.LBE114:
 625              	.LBE115:
 626              	.LBE116:
  65:../HostCommunication/src/ProtocolHelper.c **** 	{
 627              	 .loc 1 65 0 discriminator 3
 628 001c 9442     	 cmp r4,r2
 629 001e F6D1     	 bne .L56
 630 0020 A000     	 lsls r0,r4,#2
 631 0022 0130     	 adds r0,r0,#1
 632              	.LBE117:
  68:../HostCommunication/src/ProtocolHelper.c **** 		increment += wr_payload_float(payload, offset +increment, value);
  69:../HostCommunication/src/ProtocolHelper.c **** 	}
  70:../HostCommunication/src/ProtocolHelper.c **** 	return increment;
  71:../HostCommunication/src/ProtocolHelper.c **** }
 633              	 .loc 1 71 0
 634 0024 03B0     	 add sp,sp,#12
 635              	.LCFI11:
 636              	 .cfi_def_cfa_offset 4
 637              	 
 638 0026 5DF8044B 	 ldr r4,[sp],#4
 639              	.LCFI12:
 640              	 .cfi_restore 4
 641              	 .cfi_def_cfa_offset 0
 642              	.LVL78:
 643 002a 7047     	 bx lr
 644              	.LVL79:
 645              	.L57:
  64:../HostCommunication/src/ProtocolHelper.c **** 	for(int i = 0; i < elements; i++)
 646              	 .loc 1 64 0
 647 002c 0120     	 movs r0,#1
 648              	.LVL80:
 649 002e 7047     	 bx lr
 650              	 .cfi_endproc
 651              	.LFE20:
 653              	 .section .text.wr_payload_helper_uint32_list,"ax",%progbits
 654              	 .align 2
 655              	 .global wr_payload_helper_uint32_list
 656              	 .thumb
 657              	 .thumb_func
 659              	wr_payload_helper_uint32_list:
 660              	.LFB21:
  72:../HostCommunication/src/ProtocolHelper.c **** 
  73:../HostCommunication/src/ProtocolHelper.c **** size_t wr_payload_helper_uint32_list(uint8_t* payload, size_t offset, size_t elements,  uint32_t *p
  74:../HostCommunication/src/ProtocolHelper.c **** {
 661              	 .loc 1 74 0
 662              	 .cfi_startproc
 663              	 
 664              	 
 665              	 
 666              	.LVL81:
  75:../HostCommunication/src/ProtocolHelper.c **** 	size_t increment = 0;
  76:../HostCommunication/src/ProtocolHelper.c **** 	increment += wr_payload_u8(payload, offset, elements);
 667              	 .loc 1 76 0
 668 0000 4254     	 strb r2,[r0,r1]
 669              	.LVL82:
 670              	.LBB118:
 671              	.LBB119:
 672              	 .loc 2 241 0
 673 0002 0144     	 add r1,r1,r0
 674              	.LVL83:
 675              	.LBE119:
 676              	.LBE118:
 677              	.LBB120:
  77:../HostCommunication/src/ProtocolHelper.c **** 	for(int i = 0; i < elements; i++)
 678              	 .loc 1 77 0
 679 0004 9AB1     	 cbz r2,.L64
 680 0006 9200     	 lsls r2,r2,#2
 681              	.LVL84:
 682              	.LBE120:
  74:../HostCommunication/src/ProtocolHelper.c **** 	size_t increment = 0;
 683              	 .loc 1 74 0
 684 0008 F0B4     	 push {r4,r5,r6,r7}
 685              	.LCFI13:
 686              	 .cfi_def_cfa_offset 16
 687              	 .cfi_offset 4,-16
 688              	 .cfi_offset 5,-12
 689              	 .cfi_offset 6,-8
 690              	 .cfi_offset 7,-4
 691 000a 9F18     	 adds r7,r3,r2
 692              	.LVL85:
 693              	.L63:
 694              	.LBB127:
 695              	.LBB121:
  78:../HostCommunication/src/ProtocolHelper.c **** 	{
  79:../HostCommunication/src/ProtocolHelper.c **** 		uint32_t value = p_value[i];
 696              	 .loc 1 79 0 discriminator 3
 697 000c 53F8044B 	 ldr r4,[r3],#4
 698              	.LVL86:
 699              	.LBB122:
 700              	.LBB123:
 242:C:/Users/Utente/Desktop/Tesi/Firmware_Software/DAVE project/S2GLP_Pulsed_Doppler/HostCommunication/inc\PayloadHelper.h ****     return sizeof(uint8_t);
 243:C:/Users/Utente/Desktop/Tesi/Firmware_Software/DAVE project/S2GLP_Pulsed_Doppler/HostCommunication/inc\PayloadHelper.h **** }
 244:C:/Users/Utente/Desktop/Tesi/Firmware_Software/DAVE project/S2GLP_Pulsed_Doppler/HostCommunication/inc\PayloadHelper.h **** 
 245:C:/Users/Utente/Desktop/Tesi/Firmware_Software/DAVE project/S2GLP_Pulsed_Doppler/HostCommunication/inc\PayloadHelper.h **** /**
 246:C:/Users/Utente/Desktop/Tesi/Firmware_Software/DAVE project/S2GLP_Pulsed_Doppler/HostCommunication/inc\PayloadHelper.h ****  * \internal
 247:C:/Users/Utente/Desktop/Tesi/Firmware_Software/DAVE project/S2GLP_Pulsed_Doppler/HostCommunication/inc\PayloadHelper.h ****  * \brief The function writes a signed 16 bit integer value to a payload
 248:C:/Users/Utente/Desktop/Tesi/Firmware_Software/DAVE project/S2GLP_Pulsed_Doppler/HostCommunication/inc\PayloadHelper.h ****  *        buffer.
 249:C:/Users/Utente/Desktop/Tesi/Firmware_Software/DAVE project/S2GLP_Pulsed_Doppler/HostCommunication/inc\PayloadHelper.h ****  *
 250:C:/Users/Utente/Desktop/Tesi/Firmware_Software/DAVE project/S2GLP_Pulsed_Doppler/HostCommunication/inc\PayloadHelper.h ****  * The function writes the given value into the given payload buffer at the
 251:C:/Users/Utente/Desktop/Tesi/Firmware_Software/DAVE project/S2GLP_Pulsed_Doppler/HostCommunication/inc\PayloadHelper.h ****  * requested position. If needed the byte order is swapped to convert from the
 252:C:/Users/Utente/Desktop/Tesi/Firmware_Software/DAVE project/S2GLP_Pulsed_Doppler/HostCommunication/inc\PayloadHelper.h ****  * payload's little endian format to the CPU's endian format.
 253:C:/Users/Utente/Desktop/Tesi/Firmware_Software/DAVE project/S2GLP_Pulsed_Doppler/HostCommunication/inc\PayloadHelper.h ****  *
 254:C:/Users/Utente/Desktop/Tesi/Firmware_Software/DAVE project/S2GLP_Pulsed_Doppler/HostCommunication/inc\PayloadHelper.h ****  * \param[in] payload  A pointer to a block of payload data.
 255:C:/Users/Utente/Desktop/Tesi/Firmware_Software/DAVE project/S2GLP_Pulsed_Doppler/HostCommunication/inc\PayloadHelper.h ****  * \param[in] offset   The byte position at which the value will be written
 256:C:/Users/Utente/Desktop/Tesi/Firmware_Software/DAVE project/S2GLP_Pulsed_Doppler/HostCommunication/inc\PayloadHelper.h ****  *                     to.
 257:C:/Users/Utente/Desktop/Tesi/Firmware_Software/DAVE project/S2GLP_Pulsed_Doppler/HostCommunication/inc\PayloadHelper.h ****  * \param[in] value    The value to be written into the payload buffer.
 258:C:/Users/Utente/Desktop/Tesi/Firmware_Software/DAVE project/S2GLP_Pulsed_Doppler/HostCommunication/inc\PayloadHelper.h ****  */
 259:C:/Users/Utente/Desktop/Tesi/Firmware_Software/DAVE project/S2GLP_Pulsed_Doppler/HostCommunication/inc\PayloadHelper.h **** static inline size_t wr_payload_i16(uint8_t* payload, size_t offset,
 260:C:/Users/Utente/Desktop/Tesi/Firmware_Software/DAVE project/S2GLP_Pulsed_Doppler/HostCommunication/inc\PayloadHelper.h ****                                   int16_t value);
 261:C:/Users/Utente/Desktop/Tesi/Firmware_Software/DAVE project/S2GLP_Pulsed_Doppler/HostCommunication/inc\PayloadHelper.h **** 
 262:C:/Users/Utente/Desktop/Tesi/Firmware_Software/DAVE project/S2GLP_Pulsed_Doppler/HostCommunication/inc\PayloadHelper.h **** /**
 263:C:/Users/Utente/Desktop/Tesi/Firmware_Software/DAVE project/S2GLP_Pulsed_Doppler/HostCommunication/inc\PayloadHelper.h ****  * \internal
 264:C:/Users/Utente/Desktop/Tesi/Firmware_Software/DAVE project/S2GLP_Pulsed_Doppler/HostCommunication/inc\PayloadHelper.h ****  * \brief The function writes an unsigned 16 bit integer value to a payload
 265:C:/Users/Utente/Desktop/Tesi/Firmware_Software/DAVE project/S2GLP_Pulsed_Doppler/HostCommunication/inc\PayloadHelper.h ****  *        buffer.
 266:C:/Users/Utente/Desktop/Tesi/Firmware_Software/DAVE project/S2GLP_Pulsed_Doppler/HostCommunication/inc\PayloadHelper.h ****  *
 267:C:/Users/Utente/Desktop/Tesi/Firmware_Software/DAVE project/S2GLP_Pulsed_Doppler/HostCommunication/inc\PayloadHelper.h ****  * The function writes the given value into the given payload buffer at the
 268:C:/Users/Utente/Desktop/Tesi/Firmware_Software/DAVE project/S2GLP_Pulsed_Doppler/HostCommunication/inc\PayloadHelper.h ****  * requested position. If needed the byte order is swapped to convert from the
 269:C:/Users/Utente/Desktop/Tesi/Firmware_Software/DAVE project/S2GLP_Pulsed_Doppler/HostCommunication/inc\PayloadHelper.h ****  * payload's little endian format to the CPU's endian format.
 270:C:/Users/Utente/Desktop/Tesi/Firmware_Software/DAVE project/S2GLP_Pulsed_Doppler/HostCommunication/inc\PayloadHelper.h ****  *
 271:C:/Users/Utente/Desktop/Tesi/Firmware_Software/DAVE project/S2GLP_Pulsed_Doppler/HostCommunication/inc\PayloadHelper.h ****  * \param[in] payload  A pointer to a block of payload data.
 272:C:/Users/Utente/Desktop/Tesi/Firmware_Software/DAVE project/S2GLP_Pulsed_Doppler/HostCommunication/inc\PayloadHelper.h ****  * \param[in] offset   The byte position at which the value will be written
 273:C:/Users/Utente/Desktop/Tesi/Firmware_Software/DAVE project/S2GLP_Pulsed_Doppler/HostCommunication/inc\PayloadHelper.h ****  *                     to.
 274:C:/Users/Utente/Desktop/Tesi/Firmware_Software/DAVE project/S2GLP_Pulsed_Doppler/HostCommunication/inc\PayloadHelper.h ****  * \param[in] value    The value to be written into the payload buffer.
 275:C:/Users/Utente/Desktop/Tesi/Firmware_Software/DAVE project/S2GLP_Pulsed_Doppler/HostCommunication/inc\PayloadHelper.h ****  */
 276:C:/Users/Utente/Desktop/Tesi/Firmware_Software/DAVE project/S2GLP_Pulsed_Doppler/HostCommunication/inc\PayloadHelper.h **** static inline size_t wr_payload_u16(uint8_t* payload, size_t offset,
 277:C:/Users/Utente/Desktop/Tesi/Firmware_Software/DAVE project/S2GLP_Pulsed_Doppler/HostCommunication/inc\PayloadHelper.h ****                                   uint16_t value);
 278:C:/Users/Utente/Desktop/Tesi/Firmware_Software/DAVE project/S2GLP_Pulsed_Doppler/HostCommunication/inc\PayloadHelper.h **** 
 279:C:/Users/Utente/Desktop/Tesi/Firmware_Software/DAVE project/S2GLP_Pulsed_Doppler/HostCommunication/inc\PayloadHelper.h **** /**
 280:C:/Users/Utente/Desktop/Tesi/Firmware_Software/DAVE project/S2GLP_Pulsed_Doppler/HostCommunication/inc\PayloadHelper.h ****  * \internal
 281:C:/Users/Utente/Desktop/Tesi/Firmware_Software/DAVE project/S2GLP_Pulsed_Doppler/HostCommunication/inc\PayloadHelper.h ****  * \brief The function writes a signed 32 bit integer value to a payload
 282:C:/Users/Utente/Desktop/Tesi/Firmware_Software/DAVE project/S2GLP_Pulsed_Doppler/HostCommunication/inc\PayloadHelper.h ****  *        buffer.
 283:C:/Users/Utente/Desktop/Tesi/Firmware_Software/DAVE project/S2GLP_Pulsed_Doppler/HostCommunication/inc\PayloadHelper.h ****  *
 284:C:/Users/Utente/Desktop/Tesi/Firmware_Software/DAVE project/S2GLP_Pulsed_Doppler/HostCommunication/inc\PayloadHelper.h ****  * The function writes the given value into the given payload buffer at the
 285:C:/Users/Utente/Desktop/Tesi/Firmware_Software/DAVE project/S2GLP_Pulsed_Doppler/HostCommunication/inc\PayloadHelper.h ****  * requested position. If needed the byte order is swapped to convert from the
 286:C:/Users/Utente/Desktop/Tesi/Firmware_Software/DAVE project/S2GLP_Pulsed_Doppler/HostCommunication/inc\PayloadHelper.h ****  * payload's little endian format to the CPU's endian format.
 287:C:/Users/Utente/Desktop/Tesi/Firmware_Software/DAVE project/S2GLP_Pulsed_Doppler/HostCommunication/inc\PayloadHelper.h ****  *
 288:C:/Users/Utente/Desktop/Tesi/Firmware_Software/DAVE project/S2GLP_Pulsed_Doppler/HostCommunication/inc\PayloadHelper.h ****  * \param[in] payload  A pointer to a block of payload data.
 289:C:/Users/Utente/Desktop/Tesi/Firmware_Software/DAVE project/S2GLP_Pulsed_Doppler/HostCommunication/inc\PayloadHelper.h ****  * \param[in] offset   The byte position at which the value will be written
 290:C:/Users/Utente/Desktop/Tesi/Firmware_Software/DAVE project/S2GLP_Pulsed_Doppler/HostCommunication/inc\PayloadHelper.h ****  *                     to.
 291:C:/Users/Utente/Desktop/Tesi/Firmware_Software/DAVE project/S2GLP_Pulsed_Doppler/HostCommunication/inc\PayloadHelper.h ****  * \param[in] value    The value to be written into the payload buffer.
 292:C:/Users/Utente/Desktop/Tesi/Firmware_Software/DAVE project/S2GLP_Pulsed_Doppler/HostCommunication/inc\PayloadHelper.h ****  */
 293:C:/Users/Utente/Desktop/Tesi/Firmware_Software/DAVE project/S2GLP_Pulsed_Doppler/HostCommunication/inc\PayloadHelper.h **** static inline size_t wr_payload_i32(uint8_t* payload, size_t offset,
 294:C:/Users/Utente/Desktop/Tesi/Firmware_Software/DAVE project/S2GLP_Pulsed_Doppler/HostCommunication/inc\PayloadHelper.h ****                                   int32_t value);
 295:C:/Users/Utente/Desktop/Tesi/Firmware_Software/DAVE project/S2GLP_Pulsed_Doppler/HostCommunication/inc\PayloadHelper.h **** 
 296:C:/Users/Utente/Desktop/Tesi/Firmware_Software/DAVE project/S2GLP_Pulsed_Doppler/HostCommunication/inc\PayloadHelper.h **** /**
 297:C:/Users/Utente/Desktop/Tesi/Firmware_Software/DAVE project/S2GLP_Pulsed_Doppler/HostCommunication/inc\PayloadHelper.h ****  * \internal
 298:C:/Users/Utente/Desktop/Tesi/Firmware_Software/DAVE project/S2GLP_Pulsed_Doppler/HostCommunication/inc\PayloadHelper.h ****  * \brief The function writes an unsigned 32 bit integer value to a payload
 299:C:/Users/Utente/Desktop/Tesi/Firmware_Software/DAVE project/S2GLP_Pulsed_Doppler/HostCommunication/inc\PayloadHelper.h ****  *        buffer.
 300:C:/Users/Utente/Desktop/Tesi/Firmware_Software/DAVE project/S2GLP_Pulsed_Doppler/HostCommunication/inc\PayloadHelper.h ****  *
 301:C:/Users/Utente/Desktop/Tesi/Firmware_Software/DAVE project/S2GLP_Pulsed_Doppler/HostCommunication/inc\PayloadHelper.h ****  * The function writes the given value into the given payload buffer at the
 302:C:/Users/Utente/Desktop/Tesi/Firmware_Software/DAVE project/S2GLP_Pulsed_Doppler/HostCommunication/inc\PayloadHelper.h ****  * requested position. If needed the byte order is swapped to convert from the
 303:C:/Users/Utente/Desktop/Tesi/Firmware_Software/DAVE project/S2GLP_Pulsed_Doppler/HostCommunication/inc\PayloadHelper.h ****  * payload's little endian format to the CPU's endian format.
 304:C:/Users/Utente/Desktop/Tesi/Firmware_Software/DAVE project/S2GLP_Pulsed_Doppler/HostCommunication/inc\PayloadHelper.h ****  *
 305:C:/Users/Utente/Desktop/Tesi/Firmware_Software/DAVE project/S2GLP_Pulsed_Doppler/HostCommunication/inc\PayloadHelper.h ****  * \param[in] payload  A pointer to a block of payload data.
 306:C:/Users/Utente/Desktop/Tesi/Firmware_Software/DAVE project/S2GLP_Pulsed_Doppler/HostCommunication/inc\PayloadHelper.h ****  * \param[in] offset   The byte position at which the value will be written
 307:C:/Users/Utente/Desktop/Tesi/Firmware_Software/DAVE project/S2GLP_Pulsed_Doppler/HostCommunication/inc\PayloadHelper.h ****  *                     to.
 308:C:/Users/Utente/Desktop/Tesi/Firmware_Software/DAVE project/S2GLP_Pulsed_Doppler/HostCommunication/inc\PayloadHelper.h ****  * \param[in] value    The value to be written into the payload buffer.
 309:C:/Users/Utente/Desktop/Tesi/Firmware_Software/DAVE project/S2GLP_Pulsed_Doppler/HostCommunication/inc\PayloadHelper.h ****  */
 310:C:/Users/Utente/Desktop/Tesi/Firmware_Software/DAVE project/S2GLP_Pulsed_Doppler/HostCommunication/inc\PayloadHelper.h **** static inline size_t wr_payload_u32(uint8_t* payload, size_t offset,
 311:C:/Users/Utente/Desktop/Tesi/Firmware_Software/DAVE project/S2GLP_Pulsed_Doppler/HostCommunication/inc\PayloadHelper.h ****                                   uint32_t value);
 312:C:/Users/Utente/Desktop/Tesi/Firmware_Software/DAVE project/S2GLP_Pulsed_Doppler/HostCommunication/inc\PayloadHelper.h **** 
 313:C:/Users/Utente/Desktop/Tesi/Firmware_Software/DAVE project/S2GLP_Pulsed_Doppler/HostCommunication/inc\PayloadHelper.h **** /**
 314:C:/Users/Utente/Desktop/Tesi/Firmware_Software/DAVE project/S2GLP_Pulsed_Doppler/HostCommunication/inc\PayloadHelper.h ****  * \internal
 315:C:/Users/Utente/Desktop/Tesi/Firmware_Software/DAVE project/S2GLP_Pulsed_Doppler/HostCommunication/inc\PayloadHelper.h ****  * \brief The function writes a signed 64 bit integer value to a payload
 316:C:/Users/Utente/Desktop/Tesi/Firmware_Software/DAVE project/S2GLP_Pulsed_Doppler/HostCommunication/inc\PayloadHelper.h ****  *        buffer.
 317:C:/Users/Utente/Desktop/Tesi/Firmware_Software/DAVE project/S2GLP_Pulsed_Doppler/HostCommunication/inc\PayloadHelper.h ****  *
 318:C:/Users/Utente/Desktop/Tesi/Firmware_Software/DAVE project/S2GLP_Pulsed_Doppler/HostCommunication/inc\PayloadHelper.h ****  * The function writes the given value into the given payload buffer at the
 319:C:/Users/Utente/Desktop/Tesi/Firmware_Software/DAVE project/S2GLP_Pulsed_Doppler/HostCommunication/inc\PayloadHelper.h ****  * requested position. If needed the byte order is swapped to convert from the
 320:C:/Users/Utente/Desktop/Tesi/Firmware_Software/DAVE project/S2GLP_Pulsed_Doppler/HostCommunication/inc\PayloadHelper.h ****  * payload's little endian format to the CPU's endian format.
 321:C:/Users/Utente/Desktop/Tesi/Firmware_Software/DAVE project/S2GLP_Pulsed_Doppler/HostCommunication/inc\PayloadHelper.h ****  *
 322:C:/Users/Utente/Desktop/Tesi/Firmware_Software/DAVE project/S2GLP_Pulsed_Doppler/HostCommunication/inc\PayloadHelper.h ****  * \param[in] payload  A pointer to a block of payload data.
 323:C:/Users/Utente/Desktop/Tesi/Firmware_Software/DAVE project/S2GLP_Pulsed_Doppler/HostCommunication/inc\PayloadHelper.h ****  * \param[in] offset   The byte position at which the value will be written
 324:C:/Users/Utente/Desktop/Tesi/Firmware_Software/DAVE project/S2GLP_Pulsed_Doppler/HostCommunication/inc\PayloadHelper.h ****  *                     to.
 325:C:/Users/Utente/Desktop/Tesi/Firmware_Software/DAVE project/S2GLP_Pulsed_Doppler/HostCommunication/inc\PayloadHelper.h ****  * \param[in] value    The value to be written into the payload buffer.
 326:C:/Users/Utente/Desktop/Tesi/Firmware_Software/DAVE project/S2GLP_Pulsed_Doppler/HostCommunication/inc\PayloadHelper.h ****  */
 327:C:/Users/Utente/Desktop/Tesi/Firmware_Software/DAVE project/S2GLP_Pulsed_Doppler/HostCommunication/inc\PayloadHelper.h **** static inline size_t wr_payload_i64(uint8_t* payload, size_t offset,
 328:C:/Users/Utente/Desktop/Tesi/Firmware_Software/DAVE project/S2GLP_Pulsed_Doppler/HostCommunication/inc\PayloadHelper.h ****                                   int64_t value);
 329:C:/Users/Utente/Desktop/Tesi/Firmware_Software/DAVE project/S2GLP_Pulsed_Doppler/HostCommunication/inc\PayloadHelper.h **** 
 330:C:/Users/Utente/Desktop/Tesi/Firmware_Software/DAVE project/S2GLP_Pulsed_Doppler/HostCommunication/inc\PayloadHelper.h **** /**
 331:C:/Users/Utente/Desktop/Tesi/Firmware_Software/DAVE project/S2GLP_Pulsed_Doppler/HostCommunication/inc\PayloadHelper.h ****  * \internal
 332:C:/Users/Utente/Desktop/Tesi/Firmware_Software/DAVE project/S2GLP_Pulsed_Doppler/HostCommunication/inc\PayloadHelper.h ****  * \brief The function writes an unsigned 64 bit integer value to a payload
 333:C:/Users/Utente/Desktop/Tesi/Firmware_Software/DAVE project/S2GLP_Pulsed_Doppler/HostCommunication/inc\PayloadHelper.h ****  *        buffer.
 334:C:/Users/Utente/Desktop/Tesi/Firmware_Software/DAVE project/S2GLP_Pulsed_Doppler/HostCommunication/inc\PayloadHelper.h ****  *
 335:C:/Users/Utente/Desktop/Tesi/Firmware_Software/DAVE project/S2GLP_Pulsed_Doppler/HostCommunication/inc\PayloadHelper.h ****  * The function writes the given value into the given payload buffer at the
 336:C:/Users/Utente/Desktop/Tesi/Firmware_Software/DAVE project/S2GLP_Pulsed_Doppler/HostCommunication/inc\PayloadHelper.h ****  * requested position. If needed the byte order is swapped to convert from the
 337:C:/Users/Utente/Desktop/Tesi/Firmware_Software/DAVE project/S2GLP_Pulsed_Doppler/HostCommunication/inc\PayloadHelper.h ****  * payload's little endian format to the CPU's endian format.
 338:C:/Users/Utente/Desktop/Tesi/Firmware_Software/DAVE project/S2GLP_Pulsed_Doppler/HostCommunication/inc\PayloadHelper.h ****  *
 339:C:/Users/Utente/Desktop/Tesi/Firmware_Software/DAVE project/S2GLP_Pulsed_Doppler/HostCommunication/inc\PayloadHelper.h ****  * \param[in] payload  A pointer to a block of payload data.
 340:C:/Users/Utente/Desktop/Tesi/Firmware_Software/DAVE project/S2GLP_Pulsed_Doppler/HostCommunication/inc\PayloadHelper.h ****  * \param[in] offset   The byte position at which the value will be written
 341:C:/Users/Utente/Desktop/Tesi/Firmware_Software/DAVE project/S2GLP_Pulsed_Doppler/HostCommunication/inc\PayloadHelper.h ****  *                     to.
 342:C:/Users/Utente/Desktop/Tesi/Firmware_Software/DAVE project/S2GLP_Pulsed_Doppler/HostCommunication/inc\PayloadHelper.h ****  * \param[in] value    The value to be written into the payload buffer.
 343:C:/Users/Utente/Desktop/Tesi/Firmware_Software/DAVE project/S2GLP_Pulsed_Doppler/HostCommunication/inc\PayloadHelper.h ****  */
 344:C:/Users/Utente/Desktop/Tesi/Firmware_Software/DAVE project/S2GLP_Pulsed_Doppler/HostCommunication/inc\PayloadHelper.h **** static inline size_t wr_payload_u64(uint8_t* payload, size_t offset,
 345:C:/Users/Utente/Desktop/Tesi/Firmware_Software/DAVE project/S2GLP_Pulsed_Doppler/HostCommunication/inc\PayloadHelper.h ****                                   uint64_t value);
 346:C:/Users/Utente/Desktop/Tesi/Firmware_Software/DAVE project/S2GLP_Pulsed_Doppler/HostCommunication/inc\PayloadHelper.h **** /*
 347:C:/Users/Utente/Desktop/Tesi/Firmware_Software/DAVE project/S2GLP_Pulsed_Doppler/HostCommunication/inc\PayloadHelper.h **** ==============================================================================
 348:C:/Users/Utente/Desktop/Tesi/Firmware_Software/DAVE project/S2GLP_Pulsed_Doppler/HostCommunication/inc\PayloadHelper.h ****    3. INLINE FUNCTIONS
 349:C:/Users/Utente/Desktop/Tesi/Firmware_Software/DAVE project/S2GLP_Pulsed_Doppler/HostCommunication/inc\PayloadHelper.h **** ==============================================================================
 350:C:/Users/Utente/Desktop/Tesi/Firmware_Software/DAVE project/S2GLP_Pulsed_Doppler/HostCommunication/inc\PayloadHelper.h ****  */
 351:C:/Users/Utente/Desktop/Tesi/Firmware_Software/DAVE project/S2GLP_Pulsed_Doppler/HostCommunication/inc\PayloadHelper.h **** #ifdef COMLIB_ALLOW_PAYLOAD_CASTS
 352:C:/Users/Utente/Desktop/Tesi/Firmware_Software/DAVE project/S2GLP_Pulsed_Doppler/HostCommunication/inc\PayloadHelper.h **** /*
 353:C:/Users/Utente/Desktop/Tesi/Firmware_Software/DAVE project/S2GLP_Pulsed_Doppler/HostCommunication/inc\PayloadHelper.h ****  * The following function implementations wan only be used on machines with
 354:C:/Users/Utente/Desktop/Tesi/Firmware_Software/DAVE project/S2GLP_Pulsed_Doppler/HostCommunication/inc\PayloadHelper.h ****  * little endian CPUs, but are faster than the generic implementations.
 355:C:/Users/Utente/Desktop/Tesi/Firmware_Software/DAVE project/S2GLP_Pulsed_Doppler/HostCommunication/inc\PayloadHelper.h ****  */
 356:C:/Users/Utente/Desktop/Tesi/Firmware_Software/DAVE project/S2GLP_Pulsed_Doppler/HostCommunication/inc\PayloadHelper.h **** 
 357:C:/Users/Utente/Desktop/Tesi/Firmware_Software/DAVE project/S2GLP_Pulsed_Doppler/HostCommunication/inc\PayloadHelper.h **** static inline int16_t rd_payload_i16(const uint8_t* payload, uint16_t offset)
 358:C:/Users/Utente/Desktop/Tesi/Firmware_Software/DAVE project/S2GLP_Pulsed_Doppler/HostCommunication/inc\PayloadHelper.h **** {
 359:C:/Users/Utente/Desktop/Tesi/Firmware_Software/DAVE project/S2GLP_Pulsed_Doppler/HostCommunication/inc\PayloadHelper.h ****     return *(int16_t*)(payload + offset);
 360:C:/Users/Utente/Desktop/Tesi/Firmware_Software/DAVE project/S2GLP_Pulsed_Doppler/HostCommunication/inc\PayloadHelper.h **** }
 361:C:/Users/Utente/Desktop/Tesi/Firmware_Software/DAVE project/S2GLP_Pulsed_Doppler/HostCommunication/inc\PayloadHelper.h **** 
 362:C:/Users/Utente/Desktop/Tesi/Firmware_Software/DAVE project/S2GLP_Pulsed_Doppler/HostCommunication/inc\PayloadHelper.h **** static inline uint16_t rd_payload_u16(const uint8_t* payload, uint16_t offset)
 363:C:/Users/Utente/Desktop/Tesi/Firmware_Software/DAVE project/S2GLP_Pulsed_Doppler/HostCommunication/inc\PayloadHelper.h **** {
 364:C:/Users/Utente/Desktop/Tesi/Firmware_Software/DAVE project/S2GLP_Pulsed_Doppler/HostCommunication/inc\PayloadHelper.h ****     return *(uint16_t*)(payload + offset);
 365:C:/Users/Utente/Desktop/Tesi/Firmware_Software/DAVE project/S2GLP_Pulsed_Doppler/HostCommunication/inc\PayloadHelper.h **** }
 366:C:/Users/Utente/Desktop/Tesi/Firmware_Software/DAVE project/S2GLP_Pulsed_Doppler/HostCommunication/inc\PayloadHelper.h **** 
 367:C:/Users/Utente/Desktop/Tesi/Firmware_Software/DAVE project/S2GLP_Pulsed_Doppler/HostCommunication/inc\PayloadHelper.h **** static inline int32_t rd_payload_i32(const uint8_t* payload, uint16_t offset)
 368:C:/Users/Utente/Desktop/Tesi/Firmware_Software/DAVE project/S2GLP_Pulsed_Doppler/HostCommunication/inc\PayloadHelper.h **** {
 369:C:/Users/Utente/Desktop/Tesi/Firmware_Software/DAVE project/S2GLP_Pulsed_Doppler/HostCommunication/inc\PayloadHelper.h ****     return *(int32_t*)(payload + offset);
 370:C:/Users/Utente/Desktop/Tesi/Firmware_Software/DAVE project/S2GLP_Pulsed_Doppler/HostCommunication/inc\PayloadHelper.h **** }
 371:C:/Users/Utente/Desktop/Tesi/Firmware_Software/DAVE project/S2GLP_Pulsed_Doppler/HostCommunication/inc\PayloadHelper.h **** 
 372:C:/Users/Utente/Desktop/Tesi/Firmware_Software/DAVE project/S2GLP_Pulsed_Doppler/HostCommunication/inc\PayloadHelper.h **** static inline uint32_t rd_payload_u32(const uint8_t* payload, uint16_t offset)
 373:C:/Users/Utente/Desktop/Tesi/Firmware_Software/DAVE project/S2GLP_Pulsed_Doppler/HostCommunication/inc\PayloadHelper.h **** {
 374:C:/Users/Utente/Desktop/Tesi/Firmware_Software/DAVE project/S2GLP_Pulsed_Doppler/HostCommunication/inc\PayloadHelper.h ****     return *(uint32_t*)(payload + offset);
 375:C:/Users/Utente/Desktop/Tesi/Firmware_Software/DAVE project/S2GLP_Pulsed_Doppler/HostCommunication/inc\PayloadHelper.h **** }
 376:C:/Users/Utente/Desktop/Tesi/Firmware_Software/DAVE project/S2GLP_Pulsed_Doppler/HostCommunication/inc\PayloadHelper.h **** 
 377:C:/Users/Utente/Desktop/Tesi/Firmware_Software/DAVE project/S2GLP_Pulsed_Doppler/HostCommunication/inc\PayloadHelper.h **** static inline int64_t rd_payload_i64(const uint8_t* payload, uint16_t offset)
 378:C:/Users/Utente/Desktop/Tesi/Firmware_Software/DAVE project/S2GLP_Pulsed_Doppler/HostCommunication/inc\PayloadHelper.h **** {
 379:C:/Users/Utente/Desktop/Tesi/Firmware_Software/DAVE project/S2GLP_Pulsed_Doppler/HostCommunication/inc\PayloadHelper.h ****     union
 380:C:/Users/Utente/Desktop/Tesi/Firmware_Software/DAVE project/S2GLP_Pulsed_Doppler/HostCommunication/inc\PayloadHelper.h ****     {
 381:C:/Users/Utente/Desktop/Tesi/Firmware_Software/DAVE project/S2GLP_Pulsed_Doppler/HostCommunication/inc\PayloadHelper.h ****         uint32_t u32[2];
 382:C:/Users/Utente/Desktop/Tesi/Firmware_Software/DAVE project/S2GLP_Pulsed_Doppler/HostCommunication/inc\PayloadHelper.h ****         int64_t i64;
 383:C:/Users/Utente/Desktop/Tesi/Firmware_Software/DAVE project/S2GLP_Pulsed_Doppler/HostCommunication/inc\PayloadHelper.h ****     } value;
 384:C:/Users/Utente/Desktop/Tesi/Firmware_Software/DAVE project/S2GLP_Pulsed_Doppler/HostCommunication/inc\PayloadHelper.h ****     value.u32[0] = *(uint32_t*)(payload + offset);
 385:C:/Users/Utente/Desktop/Tesi/Firmware_Software/DAVE project/S2GLP_Pulsed_Doppler/HostCommunication/inc\PayloadHelper.h ****     value.u32[1] = *(uint32_t*)(payload + offset + 4);
 386:C:/Users/Utente/Desktop/Tesi/Firmware_Software/DAVE project/S2GLP_Pulsed_Doppler/HostCommunication/inc\PayloadHelper.h **** 
 387:C:/Users/Utente/Desktop/Tesi/Firmware_Software/DAVE project/S2GLP_Pulsed_Doppler/HostCommunication/inc\PayloadHelper.h ****     return value.i64;
 388:C:/Users/Utente/Desktop/Tesi/Firmware_Software/DAVE project/S2GLP_Pulsed_Doppler/HostCommunication/inc\PayloadHelper.h **** }
 389:C:/Users/Utente/Desktop/Tesi/Firmware_Software/DAVE project/S2GLP_Pulsed_Doppler/HostCommunication/inc\PayloadHelper.h **** 
 390:C:/Users/Utente/Desktop/Tesi/Firmware_Software/DAVE project/S2GLP_Pulsed_Doppler/HostCommunication/inc\PayloadHelper.h **** static inline uint64_t rd_payload_u64(const uint8_t* payload, uint16_t offset)
 391:C:/Users/Utente/Desktop/Tesi/Firmware_Software/DAVE project/S2GLP_Pulsed_Doppler/HostCommunication/inc\PayloadHelper.h **** {
 392:C:/Users/Utente/Desktop/Tesi/Firmware_Software/DAVE project/S2GLP_Pulsed_Doppler/HostCommunication/inc\PayloadHelper.h ****     union
 393:C:/Users/Utente/Desktop/Tesi/Firmware_Software/DAVE project/S2GLP_Pulsed_Doppler/HostCommunication/inc\PayloadHelper.h ****     {
 394:C:/Users/Utente/Desktop/Tesi/Firmware_Software/DAVE project/S2GLP_Pulsed_Doppler/HostCommunication/inc\PayloadHelper.h ****         uint32_t u32[2];
 395:C:/Users/Utente/Desktop/Tesi/Firmware_Software/DAVE project/S2GLP_Pulsed_Doppler/HostCommunication/inc\PayloadHelper.h ****         uint64_t u64;
 396:C:/Users/Utente/Desktop/Tesi/Firmware_Software/DAVE project/S2GLP_Pulsed_Doppler/HostCommunication/inc\PayloadHelper.h ****     } value;
 397:C:/Users/Utente/Desktop/Tesi/Firmware_Software/DAVE project/S2GLP_Pulsed_Doppler/HostCommunication/inc\PayloadHelper.h ****     value.u32[0] = *(uint32_t*)(payload + offset);
 398:C:/Users/Utente/Desktop/Tesi/Firmware_Software/DAVE project/S2GLP_Pulsed_Doppler/HostCommunication/inc\PayloadHelper.h ****     value.u32[1] = *(uint32_t*)(payload + offset + 4);
 399:C:/Users/Utente/Desktop/Tesi/Firmware_Software/DAVE project/S2GLP_Pulsed_Doppler/HostCommunication/inc\PayloadHelper.h **** 
 400:C:/Users/Utente/Desktop/Tesi/Firmware_Software/DAVE project/S2GLP_Pulsed_Doppler/HostCommunication/inc\PayloadHelper.h ****     return value.u64;
 401:C:/Users/Utente/Desktop/Tesi/Firmware_Software/DAVE project/S2GLP_Pulsed_Doppler/HostCommunication/inc\PayloadHelper.h **** }
 402:C:/Users/Utente/Desktop/Tesi/Firmware_Software/DAVE project/S2GLP_Pulsed_Doppler/HostCommunication/inc\PayloadHelper.h **** 
 403:C:/Users/Utente/Desktop/Tesi/Firmware_Software/DAVE project/S2GLP_Pulsed_Doppler/HostCommunication/inc\PayloadHelper.h **** static inline void wr_payload_i16(uint8_t* payload, uint16_t offset,
 404:C:/Users/Utente/Desktop/Tesi/Firmware_Software/DAVE project/S2GLP_Pulsed_Doppler/HostCommunication/inc\PayloadHelper.h ****                                   int16_t iValue)
 405:C:/Users/Utente/Desktop/Tesi/Firmware_Software/DAVE project/S2GLP_Pulsed_Doppler/HostCommunication/inc\PayloadHelper.h **** {
 406:C:/Users/Utente/Desktop/Tesi/Firmware_Software/DAVE project/S2GLP_Pulsed_Doppler/HostCommunication/inc\PayloadHelper.h ****     *(int16_t*)(payload + offset) = iValue;
 407:C:/Users/Utente/Desktop/Tesi/Firmware_Software/DAVE project/S2GLP_Pulsed_Doppler/HostCommunication/inc\PayloadHelper.h **** }
 408:C:/Users/Utente/Desktop/Tesi/Firmware_Software/DAVE project/S2GLP_Pulsed_Doppler/HostCommunication/inc\PayloadHelper.h **** 
 409:C:/Users/Utente/Desktop/Tesi/Firmware_Software/DAVE project/S2GLP_Pulsed_Doppler/HostCommunication/inc\PayloadHelper.h **** static inline void wr_payload_u16(uint8_t* payload, uint16_t offset,
 410:C:/Users/Utente/Desktop/Tesi/Firmware_Software/DAVE project/S2GLP_Pulsed_Doppler/HostCommunication/inc\PayloadHelper.h ****                                   uint16_t value)
 411:C:/Users/Utente/Desktop/Tesi/Firmware_Software/DAVE project/S2GLP_Pulsed_Doppler/HostCommunication/inc\PayloadHelper.h **** {
 412:C:/Users/Utente/Desktop/Tesi/Firmware_Software/DAVE project/S2GLP_Pulsed_Doppler/HostCommunication/inc\PayloadHelper.h ****     *(uint16_t*)(payload + offset) = value;
 413:C:/Users/Utente/Desktop/Tesi/Firmware_Software/DAVE project/S2GLP_Pulsed_Doppler/HostCommunication/inc\PayloadHelper.h **** }
 414:C:/Users/Utente/Desktop/Tesi/Firmware_Software/DAVE project/S2GLP_Pulsed_Doppler/HostCommunication/inc\PayloadHelper.h **** 
 415:C:/Users/Utente/Desktop/Tesi/Firmware_Software/DAVE project/S2GLP_Pulsed_Doppler/HostCommunication/inc\PayloadHelper.h **** static inline void wr_payload_i32(uint8_t* payload, uint16_t offset,
 416:C:/Users/Utente/Desktop/Tesi/Firmware_Software/DAVE project/S2GLP_Pulsed_Doppler/HostCommunication/inc\PayloadHelper.h ****                                   int32_t value)
 417:C:/Users/Utente/Desktop/Tesi/Firmware_Software/DAVE project/S2GLP_Pulsed_Doppler/HostCommunication/inc\PayloadHelper.h **** {
 418:C:/Users/Utente/Desktop/Tesi/Firmware_Software/DAVE project/S2GLP_Pulsed_Doppler/HostCommunication/inc\PayloadHelper.h ****     *(int32_t*)(payload + offset) = value;
 419:C:/Users/Utente/Desktop/Tesi/Firmware_Software/DAVE project/S2GLP_Pulsed_Doppler/HostCommunication/inc\PayloadHelper.h **** }
 420:C:/Users/Utente/Desktop/Tesi/Firmware_Software/DAVE project/S2GLP_Pulsed_Doppler/HostCommunication/inc\PayloadHelper.h **** 
 421:C:/Users/Utente/Desktop/Tesi/Firmware_Software/DAVE project/S2GLP_Pulsed_Doppler/HostCommunication/inc\PayloadHelper.h **** static inline void wr_payload_u32(uint8_t* payload, uint16_t offset,
 422:C:/Users/Utente/Desktop/Tesi/Firmware_Software/DAVE project/S2GLP_Pulsed_Doppler/HostCommunication/inc\PayloadHelper.h ****                                   uint32_t value)
 423:C:/Users/Utente/Desktop/Tesi/Firmware_Software/DAVE project/S2GLP_Pulsed_Doppler/HostCommunication/inc\PayloadHelper.h **** {
 424:C:/Users/Utente/Desktop/Tesi/Firmware_Software/DAVE project/S2GLP_Pulsed_Doppler/HostCommunication/inc\PayloadHelper.h ****     *(uint32_t*)(payload + offset) = value;
 425:C:/Users/Utente/Desktop/Tesi/Firmware_Software/DAVE project/S2GLP_Pulsed_Doppler/HostCommunication/inc\PayloadHelper.h **** }
 426:C:/Users/Utente/Desktop/Tesi/Firmware_Software/DAVE project/S2GLP_Pulsed_Doppler/HostCommunication/inc\PayloadHelper.h **** 
 427:C:/Users/Utente/Desktop/Tesi/Firmware_Software/DAVE project/S2GLP_Pulsed_Doppler/HostCommunication/inc\PayloadHelper.h **** static inline void wr_payload_i64(uint8_t* payload, uint16_t offset,
 428:C:/Users/Utente/Desktop/Tesi/Firmware_Software/DAVE project/S2GLP_Pulsed_Doppler/HostCommunication/inc\PayloadHelper.h ****                                   int64_t value)
 429:C:/Users/Utente/Desktop/Tesi/Firmware_Software/DAVE project/S2GLP_Pulsed_Doppler/HostCommunication/inc\PayloadHelper.h **** {
 430:C:/Users/Utente/Desktop/Tesi/Firmware_Software/DAVE project/S2GLP_Pulsed_Doppler/HostCommunication/inc\PayloadHelper.h ****     union
 431:C:/Users/Utente/Desktop/Tesi/Firmware_Software/DAVE project/S2GLP_Pulsed_Doppler/HostCommunication/inc\PayloadHelper.h ****     {
 432:C:/Users/Utente/Desktop/Tesi/Firmware_Software/DAVE project/S2GLP_Pulsed_Doppler/HostCommunication/inc\PayloadHelper.h ****         uint32_t u32[2];
 433:C:/Users/Utente/Desktop/Tesi/Firmware_Software/DAVE project/S2GLP_Pulsed_Doppler/HostCommunication/inc\PayloadHelper.h ****         int64_t i64;
 434:C:/Users/Utente/Desktop/Tesi/Firmware_Software/DAVE project/S2GLP_Pulsed_Doppler/HostCommunication/inc\PayloadHelper.h ****     } value_;
 435:C:/Users/Utente/Desktop/Tesi/Firmware_Software/DAVE project/S2GLP_Pulsed_Doppler/HostCommunication/inc\PayloadHelper.h ****     value_.i64 = value;
 436:C:/Users/Utente/Desktop/Tesi/Firmware_Software/DAVE project/S2GLP_Pulsed_Doppler/HostCommunication/inc\PayloadHelper.h ****     *(uint32_t*)(payload + offset)     = value_.u32[0];
 437:C:/Users/Utente/Desktop/Tesi/Firmware_Software/DAVE project/S2GLP_Pulsed_Doppler/HostCommunication/inc\PayloadHelper.h ****     *(uint32_t*)(payload + offset + 4) = value_.u32[1];
 438:C:/Users/Utente/Desktop/Tesi/Firmware_Software/DAVE project/S2GLP_Pulsed_Doppler/HostCommunication/inc\PayloadHelper.h **** }
 439:C:/Users/Utente/Desktop/Tesi/Firmware_Software/DAVE project/S2GLP_Pulsed_Doppler/HostCommunication/inc\PayloadHelper.h **** 
 440:C:/Users/Utente/Desktop/Tesi/Firmware_Software/DAVE project/S2GLP_Pulsed_Doppler/HostCommunication/inc\PayloadHelper.h **** static inline void wr_payload_u64(uint8_t* payload, uint16_t offset,
 441:C:/Users/Utente/Desktop/Tesi/Firmware_Software/DAVE project/S2GLP_Pulsed_Doppler/HostCommunication/inc\PayloadHelper.h ****                                   uint64_t value)
 442:C:/Users/Utente/Desktop/Tesi/Firmware_Software/DAVE project/S2GLP_Pulsed_Doppler/HostCommunication/inc\PayloadHelper.h **** {
 443:C:/Users/Utente/Desktop/Tesi/Firmware_Software/DAVE project/S2GLP_Pulsed_Doppler/HostCommunication/inc\PayloadHelper.h ****     union
 444:C:/Users/Utente/Desktop/Tesi/Firmware_Software/DAVE project/S2GLP_Pulsed_Doppler/HostCommunication/inc\PayloadHelper.h ****     {
 445:C:/Users/Utente/Desktop/Tesi/Firmware_Software/DAVE project/S2GLP_Pulsed_Doppler/HostCommunication/inc\PayloadHelper.h ****         uint32_t u32[2];
 446:C:/Users/Utente/Desktop/Tesi/Firmware_Software/DAVE project/S2GLP_Pulsed_Doppler/HostCommunication/inc\PayloadHelper.h ****         uint64_t u64;
 447:C:/Users/Utente/Desktop/Tesi/Firmware_Software/DAVE project/S2GLP_Pulsed_Doppler/HostCommunication/inc\PayloadHelper.h ****     } value_;
 448:C:/Users/Utente/Desktop/Tesi/Firmware_Software/DAVE project/S2GLP_Pulsed_Doppler/HostCommunication/inc\PayloadHelper.h ****     value_.u64 = value;
 449:C:/Users/Utente/Desktop/Tesi/Firmware_Software/DAVE project/S2GLP_Pulsed_Doppler/HostCommunication/inc\PayloadHelper.h ****     *(uint32_t*)(payload + offset)     = value_.u32[0];
 450:C:/Users/Utente/Desktop/Tesi/Firmware_Software/DAVE project/S2GLP_Pulsed_Doppler/HostCommunication/inc\PayloadHelper.h ****     *(uint32_t*)(payload + offset + 4) = value_.u32[1];
 451:C:/Users/Utente/Desktop/Tesi/Firmware_Software/DAVE project/S2GLP_Pulsed_Doppler/HostCommunication/inc\PayloadHelper.h **** }
 452:C:/Users/Utente/Desktop/Tesi/Firmware_Software/DAVE project/S2GLP_Pulsed_Doppler/HostCommunication/inc\PayloadHelper.h **** 
 453:C:/Users/Utente/Desktop/Tesi/Firmware_Software/DAVE project/S2GLP_Pulsed_Doppler/HostCommunication/inc\PayloadHelper.h **** /*
 454:C:/Users/Utente/Desktop/Tesi/Firmware_Software/DAVE project/S2GLP_Pulsed_Doppler/HostCommunication/inc\PayloadHelper.h **** ==============================================================================
 455:C:/Users/Utente/Desktop/Tesi/Firmware_Software/DAVE project/S2GLP_Pulsed_Doppler/HostCommunication/inc\PayloadHelper.h ****    4. INLINE FUNCTIONS
 456:C:/Users/Utente/Desktop/Tesi/Firmware_Software/DAVE project/S2GLP_Pulsed_Doppler/HostCommunication/inc\PayloadHelper.h **** ==============================================================================
 457:C:/Users/Utente/Desktop/Tesi/Firmware_Software/DAVE project/S2GLP_Pulsed_Doppler/HostCommunication/inc\PayloadHelper.h ****  */
 458:C:/Users/Utente/Desktop/Tesi/Firmware_Software/DAVE project/S2GLP_Pulsed_Doppler/HostCommunication/inc\PayloadHelper.h **** #else
 459:C:/Users/Utente/Desktop/Tesi/Firmware_Software/DAVE project/S2GLP_Pulsed_Doppler/HostCommunication/inc\PayloadHelper.h **** /*
 460:C:/Users/Utente/Desktop/Tesi/Firmware_Software/DAVE project/S2GLP_Pulsed_Doppler/HostCommunication/inc\PayloadHelper.h ****  * The following function implementations are safe on any platform, but slower
 461:C:/Users/Utente/Desktop/Tesi/Firmware_Software/DAVE project/S2GLP_Pulsed_Doppler/HostCommunication/inc\PayloadHelper.h ****  * than the native little endian implementations.
 462:C:/Users/Utente/Desktop/Tesi/Firmware_Software/DAVE project/S2GLP_Pulsed_Doppler/HostCommunication/inc\PayloadHelper.h ****  */
 463:C:/Users/Utente/Desktop/Tesi/Firmware_Software/DAVE project/S2GLP_Pulsed_Doppler/HostCommunication/inc\PayloadHelper.h **** 
 464:C:/Users/Utente/Desktop/Tesi/Firmware_Software/DAVE project/S2GLP_Pulsed_Doppler/HostCommunication/inc\PayloadHelper.h **** static inline int16_t rd_payload_i16(const uint8_t* payload, size_t offset)
 465:C:/Users/Utente/Desktop/Tesi/Firmware_Software/DAVE project/S2GLP_Pulsed_Doppler/HostCommunication/inc\PayloadHelper.h **** {
 466:C:/Users/Utente/Desktop/Tesi/Firmware_Software/DAVE project/S2GLP_Pulsed_Doppler/HostCommunication/inc\PayloadHelper.h ****     return (int16_t)((((uint16_t)payload[offset + 1]) <<  8) |
 467:C:/Users/Utente/Desktop/Tesi/Firmware_Software/DAVE project/S2GLP_Pulsed_Doppler/HostCommunication/inc\PayloadHelper.h ****                       ((uint16_t)payload[offset    ]));
 468:C:/Users/Utente/Desktop/Tesi/Firmware_Software/DAVE project/S2GLP_Pulsed_Doppler/HostCommunication/inc\PayloadHelper.h **** }
 469:C:/Users/Utente/Desktop/Tesi/Firmware_Software/DAVE project/S2GLP_Pulsed_Doppler/HostCommunication/inc\PayloadHelper.h **** 
 470:C:/Users/Utente/Desktop/Tesi/Firmware_Software/DAVE project/S2GLP_Pulsed_Doppler/HostCommunication/inc\PayloadHelper.h **** static inline uint16_t rd_payload_u16(const uint8_t* payload, size_t offset)
 471:C:/Users/Utente/Desktop/Tesi/Firmware_Software/DAVE project/S2GLP_Pulsed_Doppler/HostCommunication/inc\PayloadHelper.h **** {
 472:C:/Users/Utente/Desktop/Tesi/Firmware_Software/DAVE project/S2GLP_Pulsed_Doppler/HostCommunication/inc\PayloadHelper.h ****     return (((uint16_t)payload[offset + 1]) <<  8) |
 473:C:/Users/Utente/Desktop/Tesi/Firmware_Software/DAVE project/S2GLP_Pulsed_Doppler/HostCommunication/inc\PayloadHelper.h ****             ((uint16_t)payload[offset    ]);
 474:C:/Users/Utente/Desktop/Tesi/Firmware_Software/DAVE project/S2GLP_Pulsed_Doppler/HostCommunication/inc\PayloadHelper.h **** }
 475:C:/Users/Utente/Desktop/Tesi/Firmware_Software/DAVE project/S2GLP_Pulsed_Doppler/HostCommunication/inc\PayloadHelper.h **** 
 476:C:/Users/Utente/Desktop/Tesi/Firmware_Software/DAVE project/S2GLP_Pulsed_Doppler/HostCommunication/inc\PayloadHelper.h **** static inline int32_t rd_payload_i32(const uint8_t* payload, size_t offset)
 477:C:/Users/Utente/Desktop/Tesi/Firmware_Software/DAVE project/S2GLP_Pulsed_Doppler/HostCommunication/inc\PayloadHelper.h **** {
 478:C:/Users/Utente/Desktop/Tesi/Firmware_Software/DAVE project/S2GLP_Pulsed_Doppler/HostCommunication/inc\PayloadHelper.h ****     return (int32_t)((((uint32_t)payload[offset + 3]) << 24) |
 479:C:/Users/Utente/Desktop/Tesi/Firmware_Software/DAVE project/S2GLP_Pulsed_Doppler/HostCommunication/inc\PayloadHelper.h ****                      (((uint32_t)payload[offset + 2]) << 16) |
 480:C:/Users/Utente/Desktop/Tesi/Firmware_Software/DAVE project/S2GLP_Pulsed_Doppler/HostCommunication/inc\PayloadHelper.h ****                      (((uint32_t)payload[offset + 1]) <<  8) |
 481:C:/Users/Utente/Desktop/Tesi/Firmware_Software/DAVE project/S2GLP_Pulsed_Doppler/HostCommunication/inc\PayloadHelper.h ****                       ((uint32_t)payload[offset    ]));
 482:C:/Users/Utente/Desktop/Tesi/Firmware_Software/DAVE project/S2GLP_Pulsed_Doppler/HostCommunication/inc\PayloadHelper.h **** }
 483:C:/Users/Utente/Desktop/Tesi/Firmware_Software/DAVE project/S2GLP_Pulsed_Doppler/HostCommunication/inc\PayloadHelper.h **** 
 484:C:/Users/Utente/Desktop/Tesi/Firmware_Software/DAVE project/S2GLP_Pulsed_Doppler/HostCommunication/inc\PayloadHelper.h **** static inline uint32_t rd_payload_u32(const uint8_t* payload, size_t offset)
 485:C:/Users/Utente/Desktop/Tesi/Firmware_Software/DAVE project/S2GLP_Pulsed_Doppler/HostCommunication/inc\PayloadHelper.h **** {
 486:C:/Users/Utente/Desktop/Tesi/Firmware_Software/DAVE project/S2GLP_Pulsed_Doppler/HostCommunication/inc\PayloadHelper.h ****     return (((uint32_t)payload[offset + 3]) << 24) |
 487:C:/Users/Utente/Desktop/Tesi/Firmware_Software/DAVE project/S2GLP_Pulsed_Doppler/HostCommunication/inc\PayloadHelper.h ****            (((uint32_t)payload[offset + 2]) << 16) |
 488:C:/Users/Utente/Desktop/Tesi/Firmware_Software/DAVE project/S2GLP_Pulsed_Doppler/HostCommunication/inc\PayloadHelper.h ****            (((uint32_t)payload[offset + 1]) <<  8) |
 489:C:/Users/Utente/Desktop/Tesi/Firmware_Software/DAVE project/S2GLP_Pulsed_Doppler/HostCommunication/inc\PayloadHelper.h ****             ((uint32_t)payload[offset    ]);
 490:C:/Users/Utente/Desktop/Tesi/Firmware_Software/DAVE project/S2GLP_Pulsed_Doppler/HostCommunication/inc\PayloadHelper.h **** }
 491:C:/Users/Utente/Desktop/Tesi/Firmware_Software/DAVE project/S2GLP_Pulsed_Doppler/HostCommunication/inc\PayloadHelper.h **** 
 492:C:/Users/Utente/Desktop/Tesi/Firmware_Software/DAVE project/S2GLP_Pulsed_Doppler/HostCommunication/inc\PayloadHelper.h **** static inline int64_t rd_payload_i64(const uint8_t* payload, size_t offset)
 493:C:/Users/Utente/Desktop/Tesi/Firmware_Software/DAVE project/S2GLP_Pulsed_Doppler/HostCommunication/inc\PayloadHelper.h **** {
 494:C:/Users/Utente/Desktop/Tesi/Firmware_Software/DAVE project/S2GLP_Pulsed_Doppler/HostCommunication/inc\PayloadHelper.h ****     return (int64_t)((((uint64_t)payload[offset + 7]) << 56) |
 495:C:/Users/Utente/Desktop/Tesi/Firmware_Software/DAVE project/S2GLP_Pulsed_Doppler/HostCommunication/inc\PayloadHelper.h ****                      (((uint64_t)payload[offset + 6]) << 48) |
 496:C:/Users/Utente/Desktop/Tesi/Firmware_Software/DAVE project/S2GLP_Pulsed_Doppler/HostCommunication/inc\PayloadHelper.h ****                      (((uint64_t)payload[offset + 5]) << 40) |
 497:C:/Users/Utente/Desktop/Tesi/Firmware_Software/DAVE project/S2GLP_Pulsed_Doppler/HostCommunication/inc\PayloadHelper.h ****                      (((uint64_t)payload[offset + 4]) << 32) |
 498:C:/Users/Utente/Desktop/Tesi/Firmware_Software/DAVE project/S2GLP_Pulsed_Doppler/HostCommunication/inc\PayloadHelper.h ****                      (((uint64_t)payload[offset + 3]) << 24) |
 499:C:/Users/Utente/Desktop/Tesi/Firmware_Software/DAVE project/S2GLP_Pulsed_Doppler/HostCommunication/inc\PayloadHelper.h ****                      (((uint64_t)payload[offset + 2]) << 16) |
 500:C:/Users/Utente/Desktop/Tesi/Firmware_Software/DAVE project/S2GLP_Pulsed_Doppler/HostCommunication/inc\PayloadHelper.h ****                      (((uint64_t)payload[offset + 1]) <<  8) |
 501:C:/Users/Utente/Desktop/Tesi/Firmware_Software/DAVE project/S2GLP_Pulsed_Doppler/HostCommunication/inc\PayloadHelper.h ****                       ((uint64_t)payload[offset    ]));
 502:C:/Users/Utente/Desktop/Tesi/Firmware_Software/DAVE project/S2GLP_Pulsed_Doppler/HostCommunication/inc\PayloadHelper.h **** }
 503:C:/Users/Utente/Desktop/Tesi/Firmware_Software/DAVE project/S2GLP_Pulsed_Doppler/HostCommunication/inc\PayloadHelper.h **** 
 504:C:/Users/Utente/Desktop/Tesi/Firmware_Software/DAVE project/S2GLP_Pulsed_Doppler/HostCommunication/inc\PayloadHelper.h **** static inline uint64_t rd_payload_u64(const uint8_t* payload, size_t offset)
 505:C:/Users/Utente/Desktop/Tesi/Firmware_Software/DAVE project/S2GLP_Pulsed_Doppler/HostCommunication/inc\PayloadHelper.h **** {
 506:C:/Users/Utente/Desktop/Tesi/Firmware_Software/DAVE project/S2GLP_Pulsed_Doppler/HostCommunication/inc\PayloadHelper.h ****     return (((uint64_t)payload[offset + 7]) << 56) |
 507:C:/Users/Utente/Desktop/Tesi/Firmware_Software/DAVE project/S2GLP_Pulsed_Doppler/HostCommunication/inc\PayloadHelper.h ****            (((uint64_t)payload[offset + 6]) << 48) |
 508:C:/Users/Utente/Desktop/Tesi/Firmware_Software/DAVE project/S2GLP_Pulsed_Doppler/HostCommunication/inc\PayloadHelper.h ****            (((uint64_t)payload[offset + 5]) << 40) |
 509:C:/Users/Utente/Desktop/Tesi/Firmware_Software/DAVE project/S2GLP_Pulsed_Doppler/HostCommunication/inc\PayloadHelper.h ****            (((uint64_t)payload[offset + 4]) << 32) |
 510:C:/Users/Utente/Desktop/Tesi/Firmware_Software/DAVE project/S2GLP_Pulsed_Doppler/HostCommunication/inc\PayloadHelper.h ****            (((uint64_t)payload[offset + 3]) << 24) |
 511:C:/Users/Utente/Desktop/Tesi/Firmware_Software/DAVE project/S2GLP_Pulsed_Doppler/HostCommunication/inc\PayloadHelper.h ****            (((uint64_t)payload[offset + 2]) << 16) |
 512:C:/Users/Utente/Desktop/Tesi/Firmware_Software/DAVE project/S2GLP_Pulsed_Doppler/HostCommunication/inc\PayloadHelper.h ****            (((uint64_t)payload[offset + 1]) <<  8) |
 513:C:/Users/Utente/Desktop/Tesi/Firmware_Software/DAVE project/S2GLP_Pulsed_Doppler/HostCommunication/inc\PayloadHelper.h ****             ((uint64_t)payload[offset    ]);
 514:C:/Users/Utente/Desktop/Tesi/Firmware_Software/DAVE project/S2GLP_Pulsed_Doppler/HostCommunication/inc\PayloadHelper.h **** }
 515:C:/Users/Utente/Desktop/Tesi/Firmware_Software/DAVE project/S2GLP_Pulsed_Doppler/HostCommunication/inc\PayloadHelper.h **** 
 516:C:/Users/Utente/Desktop/Tesi/Firmware_Software/DAVE project/S2GLP_Pulsed_Doppler/HostCommunication/inc\PayloadHelper.h **** 
 517:C:/Users/Utente/Desktop/Tesi/Firmware_Software/DAVE project/S2GLP_Pulsed_Doppler/HostCommunication/inc\PayloadHelper.h **** static inline float rd_payload_float(const uint8_t* payload, size_t offset)
 518:C:/Users/Utente/Desktop/Tesi/Firmware_Software/DAVE project/S2GLP_Pulsed_Doppler/HostCommunication/inc\PayloadHelper.h **** {
 519:C:/Users/Utente/Desktop/Tesi/Firmware_Software/DAVE project/S2GLP_Pulsed_Doppler/HostCommunication/inc\PayloadHelper.h **** 	STATIC_ASSERT(sizeof(float) == sizeof(uint32_t));
 520:C:/Users/Utente/Desktop/Tesi/Firmware_Software/DAVE project/S2GLP_Pulsed_Doppler/HostCommunication/inc\PayloadHelper.h **** 		typedef union {
 521:C:/Users/Utente/Desktop/Tesi/Firmware_Software/DAVE project/S2GLP_Pulsed_Doppler/HostCommunication/inc\PayloadHelper.h **** 			uint32_t u32_value;
 522:C:/Users/Utente/Desktop/Tesi/Firmware_Software/DAVE project/S2GLP_Pulsed_Doppler/HostCommunication/inc\PayloadHelper.h **** 			float float_value;
 523:C:/Users/Utente/Desktop/Tesi/Firmware_Software/DAVE project/S2GLP_Pulsed_Doppler/HostCommunication/inc\PayloadHelper.h **** 		} temp_union;
 524:C:/Users/Utente/Desktop/Tesi/Firmware_Software/DAVE project/S2GLP_Pulsed_Doppler/HostCommunication/inc\PayloadHelper.h **** 
 525:C:/Users/Utente/Desktop/Tesi/Firmware_Software/DAVE project/S2GLP_Pulsed_Doppler/HostCommunication/inc\PayloadHelper.h **** 	temp_union data;
 526:C:/Users/Utente/Desktop/Tesi/Firmware_Software/DAVE project/S2GLP_Pulsed_Doppler/HostCommunication/inc\PayloadHelper.h **** 
 527:C:/Users/Utente/Desktop/Tesi/Firmware_Software/DAVE project/S2GLP_Pulsed_Doppler/HostCommunication/inc\PayloadHelper.h **** 	data.u32_value =
 528:C:/Users/Utente/Desktop/Tesi/Firmware_Software/DAVE project/S2GLP_Pulsed_Doppler/HostCommunication/inc\PayloadHelper.h ****     		(((uint32_t)payload[offset + 3]) << 24) |
 529:C:/Users/Utente/Desktop/Tesi/Firmware_Software/DAVE project/S2GLP_Pulsed_Doppler/HostCommunication/inc\PayloadHelper.h ****            (((uint32_t)payload[offset + 2]) << 16) |
 530:C:/Users/Utente/Desktop/Tesi/Firmware_Software/DAVE project/S2GLP_Pulsed_Doppler/HostCommunication/inc\PayloadHelper.h ****            (((uint32_t)payload[offset + 1]) <<  8) |
 531:C:/Users/Utente/Desktop/Tesi/Firmware_Software/DAVE project/S2GLP_Pulsed_Doppler/HostCommunication/inc\PayloadHelper.h ****             ((uint32_t)payload[offset    ]);
 532:C:/Users/Utente/Desktop/Tesi/Firmware_Software/DAVE project/S2GLP_Pulsed_Doppler/HostCommunication/inc\PayloadHelper.h **** 
 533:C:/Users/Utente/Desktop/Tesi/Firmware_Software/DAVE project/S2GLP_Pulsed_Doppler/HostCommunication/inc\PayloadHelper.h ****     return data.float_value;
 534:C:/Users/Utente/Desktop/Tesi/Firmware_Software/DAVE project/S2GLP_Pulsed_Doppler/HostCommunication/inc\PayloadHelper.h **** }
 535:C:/Users/Utente/Desktop/Tesi/Firmware_Software/DAVE project/S2GLP_Pulsed_Doppler/HostCommunication/inc\PayloadHelper.h **** 
 536:C:/Users/Utente/Desktop/Tesi/Firmware_Software/DAVE project/S2GLP_Pulsed_Doppler/HostCommunication/inc\PayloadHelper.h **** 
 537:C:/Users/Utente/Desktop/Tesi/Firmware_Software/DAVE project/S2GLP_Pulsed_Doppler/HostCommunication/inc\PayloadHelper.h **** static inline size_t wr_payload_i16(uint8_t* payload, size_t offset,
 538:C:/Users/Utente/Desktop/Tesi/Firmware_Software/DAVE project/S2GLP_Pulsed_Doppler/HostCommunication/inc\PayloadHelper.h ****                                   int16_t value)
 539:C:/Users/Utente/Desktop/Tesi/Firmware_Software/DAVE project/S2GLP_Pulsed_Doppler/HostCommunication/inc\PayloadHelper.h **** {
 540:C:/Users/Utente/Desktop/Tesi/Firmware_Software/DAVE project/S2GLP_Pulsed_Doppler/HostCommunication/inc\PayloadHelper.h ****     payload[offset + 1] = (((uint16_t)value) >>  8) & 0xFF;
 541:C:/Users/Utente/Desktop/Tesi/Firmware_Software/DAVE project/S2GLP_Pulsed_Doppler/HostCommunication/inc\PayloadHelper.h ****     payload[offset    ] =  ((uint16_t)value)        & 0xFF;
 542:C:/Users/Utente/Desktop/Tesi/Firmware_Software/DAVE project/S2GLP_Pulsed_Doppler/HostCommunication/inc\PayloadHelper.h ****     return sizeof(int16_t);
 543:C:/Users/Utente/Desktop/Tesi/Firmware_Software/DAVE project/S2GLP_Pulsed_Doppler/HostCommunication/inc\PayloadHelper.h **** }
 544:C:/Users/Utente/Desktop/Tesi/Firmware_Software/DAVE project/S2GLP_Pulsed_Doppler/HostCommunication/inc\PayloadHelper.h **** 
 545:C:/Users/Utente/Desktop/Tesi/Firmware_Software/DAVE project/S2GLP_Pulsed_Doppler/HostCommunication/inc\PayloadHelper.h **** static inline size_t wr_payload_u16(uint8_t* payload, size_t offset,
 546:C:/Users/Utente/Desktop/Tesi/Firmware_Software/DAVE project/S2GLP_Pulsed_Doppler/HostCommunication/inc\PayloadHelper.h ****                                   uint16_t value)
 547:C:/Users/Utente/Desktop/Tesi/Firmware_Software/DAVE project/S2GLP_Pulsed_Doppler/HostCommunication/inc\PayloadHelper.h **** {
 548:C:/Users/Utente/Desktop/Tesi/Firmware_Software/DAVE project/S2GLP_Pulsed_Doppler/HostCommunication/inc\PayloadHelper.h ****     payload[offset + 1] = (value >>  8) & 0xFF;
 549:C:/Users/Utente/Desktop/Tesi/Firmware_Software/DAVE project/S2GLP_Pulsed_Doppler/HostCommunication/inc\PayloadHelper.h ****     payload[offset    ] =  value        & 0xFF;
 550:C:/Users/Utente/Desktop/Tesi/Firmware_Software/DAVE project/S2GLP_Pulsed_Doppler/HostCommunication/inc\PayloadHelper.h ****     return sizeof(uint16_t);
 551:C:/Users/Utente/Desktop/Tesi/Firmware_Software/DAVE project/S2GLP_Pulsed_Doppler/HostCommunication/inc\PayloadHelper.h **** 
 552:C:/Users/Utente/Desktop/Tesi/Firmware_Software/DAVE project/S2GLP_Pulsed_Doppler/HostCommunication/inc\PayloadHelper.h **** }
 553:C:/Users/Utente/Desktop/Tesi/Firmware_Software/DAVE project/S2GLP_Pulsed_Doppler/HostCommunication/inc\PayloadHelper.h **** 
 554:C:/Users/Utente/Desktop/Tesi/Firmware_Software/DAVE project/S2GLP_Pulsed_Doppler/HostCommunication/inc\PayloadHelper.h **** static inline size_t wr_payload_i32(uint8_t* payload, size_t offset,
 555:C:/Users/Utente/Desktop/Tesi/Firmware_Software/DAVE project/S2GLP_Pulsed_Doppler/HostCommunication/inc\PayloadHelper.h ****                                   int32_t value)
 556:C:/Users/Utente/Desktop/Tesi/Firmware_Software/DAVE project/S2GLP_Pulsed_Doppler/HostCommunication/inc\PayloadHelper.h **** {
 557:C:/Users/Utente/Desktop/Tesi/Firmware_Software/DAVE project/S2GLP_Pulsed_Doppler/HostCommunication/inc\PayloadHelper.h ****     payload[offset + 3] = (((uint32_t)value) >> 24) & 0xFF;
 558:C:/Users/Utente/Desktop/Tesi/Firmware_Software/DAVE project/S2GLP_Pulsed_Doppler/HostCommunication/inc\PayloadHelper.h ****     payload[offset + 2] = (((uint32_t)value) >> 16) & 0xFF;
 559:C:/Users/Utente/Desktop/Tesi/Firmware_Software/DAVE project/S2GLP_Pulsed_Doppler/HostCommunication/inc\PayloadHelper.h ****     payload[offset + 1] = (((uint32_t)value) >>  8) & 0xFF;
 560:C:/Users/Utente/Desktop/Tesi/Firmware_Software/DAVE project/S2GLP_Pulsed_Doppler/HostCommunication/inc\PayloadHelper.h ****     payload[offset    ] =  ((uint32_t)value)        & 0xFF;
 561:C:/Users/Utente/Desktop/Tesi/Firmware_Software/DAVE project/S2GLP_Pulsed_Doppler/HostCommunication/inc\PayloadHelper.h **** 
 562:C:/Users/Utente/Desktop/Tesi/Firmware_Software/DAVE project/S2GLP_Pulsed_Doppler/HostCommunication/inc\PayloadHelper.h ****     return sizeof(int32_t);
 563:C:/Users/Utente/Desktop/Tesi/Firmware_Software/DAVE project/S2GLP_Pulsed_Doppler/HostCommunication/inc\PayloadHelper.h **** }
 564:C:/Users/Utente/Desktop/Tesi/Firmware_Software/DAVE project/S2GLP_Pulsed_Doppler/HostCommunication/inc\PayloadHelper.h **** 
 565:C:/Users/Utente/Desktop/Tesi/Firmware_Software/DAVE project/S2GLP_Pulsed_Doppler/HostCommunication/inc\PayloadHelper.h **** static inline size_t wr_payload_u32(uint8_t* payload, size_t offset,
 566:C:/Users/Utente/Desktop/Tesi/Firmware_Software/DAVE project/S2GLP_Pulsed_Doppler/HostCommunication/inc\PayloadHelper.h ****                                   uint32_t value)
 567:C:/Users/Utente/Desktop/Tesi/Firmware_Software/DAVE project/S2GLP_Pulsed_Doppler/HostCommunication/inc\PayloadHelper.h **** {
 568:C:/Users/Utente/Desktop/Tesi/Firmware_Software/DAVE project/S2GLP_Pulsed_Doppler/HostCommunication/inc\PayloadHelper.h ****     payload[offset + 3] = (value >> 24) & 0xFF;
 569:C:/Users/Utente/Desktop/Tesi/Firmware_Software/DAVE project/S2GLP_Pulsed_Doppler/HostCommunication/inc\PayloadHelper.h ****     payload[offset + 2] = (value >> 16) & 0xFF;
 570:C:/Users/Utente/Desktop/Tesi/Firmware_Software/DAVE project/S2GLP_Pulsed_Doppler/HostCommunication/inc\PayloadHelper.h ****     payload[offset + 1] = (value >>  8) & 0xFF;
 571:C:/Users/Utente/Desktop/Tesi/Firmware_Software/DAVE project/S2GLP_Pulsed_Doppler/HostCommunication/inc\PayloadHelper.h ****     payload[offset    ] =  value        & 0xFF;
 701              	 .loc 2 571 0 discriminator 3
 702 0010 4C70     	 strb r4,[r1,#1]
 703              	.LVL87:
 568:C:/Users/Utente/Desktop/Tesi/Firmware_Software/DAVE project/S2GLP_Pulsed_Doppler/HostCommunication/inc\PayloadHelper.h ****     payload[offset + 2] = (value >> 16) & 0xFF;
 704              	 .loc 2 568 0 discriminator 3
 705 0012 260E     	 lsrs r6,r4,#24
 569:C:/Users/Utente/Desktop/Tesi/Firmware_Software/DAVE project/S2GLP_Pulsed_Doppler/HostCommunication/inc\PayloadHelper.h ****     payload[offset + 1] = (value >>  8) & 0xFF;
 706              	 .loc 2 569 0 discriminator 3
 707 0014 250C     	 lsrs r5,r4,#16
 708              	.LBE123:
 709              	.LBE122:
 710              	.LBE121:
  77:../HostCommunication/src/ProtocolHelper.c **** 	{
 711              	 .loc 1 77 0 discriminator 3
 712 0016 BB42     	 cmp r3,r7
 713              	.LBB126:
 714              	.LBB125:
 715              	.LBB124:
 570:C:/Users/Utente/Desktop/Tesi/Firmware_Software/DAVE project/S2GLP_Pulsed_Doppler/HostCommunication/inc\PayloadHelper.h ****     payload[offset    ] =  value        & 0xFF;
 716              	 .loc 2 570 0 discriminator 3
 717 0018 4FEA1424 	 lsr r4,r4,#8
 718              	.LVL88:
 568:C:/Users/Utente/Desktop/Tesi/Firmware_Software/DAVE project/S2GLP_Pulsed_Doppler/HostCommunication/inc\PayloadHelper.h ****     payload[offset + 2] = (value >> 16) & 0xFF;
 719              	 .loc 2 568 0 discriminator 3
 720 001c 0E71     	 strb r6,[r1,#4]
 569:C:/Users/Utente/Desktop/Tesi/Firmware_Software/DAVE project/S2GLP_Pulsed_Doppler/HostCommunication/inc\PayloadHelper.h ****     payload[offset + 1] = (value >>  8) & 0xFF;
 721              	 .loc 2 569 0 discriminator 3
 722 001e CD70     	 strb r5,[r1,#3]
 570:C:/Users/Utente/Desktop/Tesi/Firmware_Software/DAVE project/S2GLP_Pulsed_Doppler/HostCommunication/inc\PayloadHelper.h ****     payload[offset    ] =  value        & 0xFF;
 723              	 .loc 2 570 0 discriminator 3
 724 0020 8C70     	 strb r4,[r1,#2]
 725 0022 01F10401 	 add r1,r1,#4
 726              	.LBE124:
 727              	.LBE125:
 728              	.LBE126:
  77:../HostCommunication/src/ProtocolHelper.c **** 	{
 729              	 .loc 1 77 0 discriminator 3
 730 0026 F1D1     	 bne .L63
 731 0028 501C     	 adds r0,r2,#1
 732              	.LVL89:
 733              	.LBE127:
  80:../HostCommunication/src/ProtocolHelper.c **** 		increment += wr_payload_u32(payload, offset +increment, value);
  81:../HostCommunication/src/ProtocolHelper.c **** 	}
  82:../HostCommunication/src/ProtocolHelper.c **** 	return increment;
  83:../HostCommunication/src/ProtocolHelper.c **** }
 734              	 .loc 1 83 0
 735 002a F0BC     	 pop {r4,r5,r6,r7}
 736              	.LCFI14:
 737              	 .cfi_restore 7
 738              	 .cfi_restore 6
 739              	 .cfi_restore 5
 740              	 .cfi_restore 4
 741              	 .cfi_def_cfa_offset 0
 742 002c 7047     	 bx lr
 743              	.LVL90:
 744              	.L64:
  76:../HostCommunication/src/ProtocolHelper.c **** 	for(int i = 0; i < elements; i++)
 745              	 .loc 1 76 0
 746 002e 0120     	 movs r0,#1
 747              	.LVL91:
 748 0030 7047     	 bx lr
 749              	 .cfi_endproc
 750              	.LFE21:
 752 0032 00BF     	 .section .text.wr_payload_helper_uint16_list,"ax",%progbits
 753              	 .align 2
 754              	 .global wr_payload_helper_uint16_list
 755              	 .thumb
 756              	 .thumb_func
 758              	wr_payload_helper_uint16_list:
 759              	.LFB22:
  84:../HostCommunication/src/ProtocolHelper.c **** 
  85:../HostCommunication/src/ProtocolHelper.c **** size_t wr_payload_helper_uint16_list(uint8_t* payload, size_t offset, size_t elements,  uint16_t *p
  86:../HostCommunication/src/ProtocolHelper.c **** {
 760              	 .loc 1 86 0
 761              	 .cfi_startproc
 762              	 
 763              	 
 764              	 
 765              	.LVL92:
  87:../HostCommunication/src/ProtocolHelper.c **** 	size_t increment = 0;
  88:../HostCommunication/src/ProtocolHelper.c **** 	increment += wr_payload_u8(payload, offset, elements);
 766              	 .loc 1 88 0
 767 0000 4254     	 strb r2,[r0,r1]
 768              	.LVL93:
 769              	.LBB128:
 770              	.LBB129:
 241:C:/Users/Utente/Desktop/Tesi/Firmware_Software/DAVE project/S2GLP_Pulsed_Doppler/HostCommunication/inc\PayloadHelper.h ****     return sizeof(uint8_t);
 771              	 .loc 2 241 0
 772 0002 0144     	 add r1,r1,r0
 773              	.LVL94:
 774              	.LBE129:
 775              	.LBE128:
 776              	.LBB130:
  89:../HostCommunication/src/ProtocolHelper.c **** 	for(int i = 0; i < elements; i++)
 777              	 .loc 1 89 0
 778 0004 7AB1     	 cbz r2,.L71
 779 0006 5200     	 lsls r2,r2,#1
 780              	.LVL95:
 781              	.LBE130:
  86:../HostCommunication/src/ProtocolHelper.c **** 	size_t increment = 0;
 782              	 .loc 1 86 0
 783 0008 30B4     	 push {r4,r5}
 784              	.LCFI15:
 785              	 .cfi_def_cfa_offset 8
 786              	 .cfi_offset 4,-8
 787              	 .cfi_offset 5,-4
 788 000a 9D18     	 adds r5,r3,r2
 789              	.LVL96:
 790              	.L70:
 791              	.LBB137:
 792              	.LBB131:
  90:../HostCommunication/src/ProtocolHelper.c **** 	{
  91:../HostCommunication/src/ProtocolHelper.c **** 		uint16_t value = p_value[i];
 793              	 .loc 1 91 0 discriminator 3
 794 000c 33F8024B 	 ldrh r4,[r3],#2
 795              	.LVL97:
 796              	.LBB132:
 797              	.LBB133:
 549:C:/Users/Utente/Desktop/Tesi/Firmware_Software/DAVE project/S2GLP_Pulsed_Doppler/HostCommunication/inc\PayloadHelper.h ****     return sizeof(uint16_t);
 798              	 .loc 2 549 0 discriminator 3
 799 0010 4C70     	 strb r4,[r1,#1]
 800              	.LVL98:
 801              	.LBE133:
 802              	.LBE132:
 803              	.LBE131:
  89:../HostCommunication/src/ProtocolHelper.c **** 	{
 804              	 .loc 1 89 0 discriminator 3
 805 0012 AB42     	 cmp r3,r5
 806              	.LBB136:
 807              	.LBB135:
 808              	.LBB134:
 548:C:/Users/Utente/Desktop/Tesi/Firmware_Software/DAVE project/S2GLP_Pulsed_Doppler/HostCommunication/inc\PayloadHelper.h ****     payload[offset    ] =  value        & 0xFF;
 809              	 .loc 2 548 0 discriminator 3
 810 0014 4FEA1424 	 lsr r4,r4,#8
 811              	.LVL99:
 812 0018 8C70     	 strb r4,[r1,#2]
 813 001a 01F10201 	 add r1,r1,#2
 814              	.LBE134:
 815              	.LBE135:
 816              	.LBE136:
  89:../HostCommunication/src/ProtocolHelper.c **** 	{
 817              	 .loc 1 89 0 discriminator 3
 818 001e F5D1     	 bne .L70
 819 0020 501C     	 adds r0,r2,#1
 820              	.LVL100:
 821              	.LBE137:
  92:../HostCommunication/src/ProtocolHelper.c **** 		increment += wr_payload_u16(payload, offset +increment, value);
  93:../HostCommunication/src/ProtocolHelper.c **** 	}
  94:../HostCommunication/src/ProtocolHelper.c **** 	return increment;
  95:../HostCommunication/src/ProtocolHelper.c **** }
 822              	 .loc 1 95 0
 823 0022 30BC     	 pop {r4,r5}
 824              	.LCFI16:
 825              	 .cfi_restore 5
 826              	 .cfi_restore 4
 827              	 .cfi_def_cfa_offset 0
 828 0024 7047     	 bx lr
 829              	.LVL101:
 830              	.L71:
  88:../HostCommunication/src/ProtocolHelper.c **** 	for(int i = 0; i < elements; i++)
 831              	 .loc 1 88 0
 832 0026 0120     	 movs r0,#1
 833              	.LVL102:
 834 0028 7047     	 bx lr
 835              	 .cfi_endproc
 836              	.LFE22:
 838 002a 00BF     	 .text
 839              	.Letext0:
 840              	 .file 3 "c:\\infineon\\tools\\dave ide\\4.5.0.202105191637\\eclipse\\arm-gcc-49\\arm-none-eabi\\include\\machine\\_default_types.h"
 841              	 .file 4 "c:\\infineon\\tools\\dave ide\\4.5.0.202105191637\\eclipse\\arm-gcc-49\\arm-none-eabi\\include\\stdint.h"
 842              	 .file 5 "c:\\infineon\\tools\\dave ide\\4.5.0.202105191637\\eclipse\\arm-gcc-49\\lib\\gcc\\arm-none-eabi\\4.9.3\\include\\stddef.h"
 843              	 .file 6 "c:\\infineon\\tools\\dave ide\\4.5.0.202105191637\\eclipse\\arm-gcc-49\\arm-none-eabi\\include\\string.h"