   1              	 .syntax unified
   2              	 .cpu cortex-m4
   3              	 .eabi_attribute 27,3
   4              	 .fpu fpv4-sp-d16
   5              	 .eabi_attribute 20,1
   6              	 .eabi_attribute 21,1
   7              	 .eabi_attribute 23,3
   8              	 .eabi_attribute 24,1
   9              	 .eabi_attribute 25,1
  10              	 .eabi_attribute 26,1
  11              	 .eabi_attribute 30,2
  12              	 .eabi_attribute 34,1
  13              	 .eabi_attribute 18,4
  14              	 .thumb
  15              	 .file "Protocol.c"
  16              	 .text
  17              	.Ltext0:
  18              	 .cfi_sections .debug_frame
  19              	 .section .text.receive_data,"ax",%progbits
  20              	 .align 2
  21              	 .thumb
  22              	 .thumb_func
  24              	receive_data:
  25              	.LFB25:
  26              	 .file 1 "../HostCommunication/src/Protocol.c"
   1:../HostCommunication/src/Protocol.c **** /**
   2:../HostCommunication/src/Protocol.c ****  * @file: Protocol.c
   3:../HostCommunication/src/Protocol.c ****  *
   4:../HostCommunication/src/Protocol.c ****  * @brief: This module implements the host communication protocol.
   5:../HostCommunication/src/Protocol.c ****  *
   6:../HostCommunication/src/Protocol.c ****  * For more information about the host communication protocol see
   7:../HostCommunication/src/Protocol.c ****  * \ref Protocol.h.
   8:../HostCommunication/src/Protocol.c ****  *
   9:../HostCommunication/src/Protocol.c ****  */
  10:../HostCommunication/src/Protocol.c **** 
  11:../HostCommunication/src/Protocol.c **** /* ===========================================================================
  12:../HostCommunication/src/Protocol.c **** ** Copyright (C) 2016-2021 Infineon Technologies AG
  13:../HostCommunication/src/Protocol.c **** ** All rights reserved.
  14:../HostCommunication/src/Protocol.c **** ** ===========================================================================
  15:../HostCommunication/src/Protocol.c **** **
  16:../HostCommunication/src/Protocol.c **** ** ===========================================================================
  17:../HostCommunication/src/Protocol.c **** ** This document contains proprietary information of Infineon Technologies AG.
  18:../HostCommunication/src/Protocol.c **** ** Passing on and copying of this document, and communication of its contents
  19:../HostCommunication/src/Protocol.c **** ** is not permitted without Infineon's prior written authorisation.
  20:../HostCommunication/src/Protocol.c **** ** ===========================================================================
  21:../HostCommunication/src/Protocol.c **** */
  22:../HostCommunication/src/Protocol.c **** 
  23:../HostCommunication/src/Protocol.c **** /*
  24:../HostCommunication/src/Protocol.c **** ==============================================================================
  25:../HostCommunication/src/Protocol.c ****    1. INCLUDE FILES
  26:../HostCommunication/src/Protocol.c **** ==============================================================================
  27:../HostCommunication/src/Protocol.c ****  */
  28:../HostCommunication/src/Protocol.c **** 
  29:../HostCommunication/src/Protocol.c **** #include "Protocol.h"
  30:../HostCommunication/src/Protocol.c **** #include "StreamInterface.h"
  31:../HostCommunication/src/Protocol.c **** #include "PayloadHelper.h"
  32:../HostCommunication/src/Protocol.c **** 
  33:../HostCommunication/src/Protocol.c ****  /********** TIMING DEBUG - Protocol End *************/
  34:../HostCommunication/src/Protocol.c **** #ifdef TIMING_DEBUG
  35:../HostCommunication/src/Protocol.c **** 	#include "DIGITAL_IO/digital_io.h"
  36:../HostCommunication/src/Protocol.c **** #endif
  37:../HostCommunication/src/Protocol.c **** 
  38:../HostCommunication/src/Protocol.c **** #include <stdlib.h> // due to NULL!
  39:../HostCommunication/src/Protocol.c **** 
  40:../HostCommunication/src/Protocol.c **** #include <stdio.h>
  41:../HostCommunication/src/Protocol.c **** 
  42:../HostCommunication/src/Protocol.c **** /*
  43:../HostCommunication/src/Protocol.c **** ==============================================================================
  44:../HostCommunication/src/Protocol.c ****    2. LOCAL DEFINITIONS
  45:../HostCommunication/src/Protocol.c **** ==============================================================================
  46:../HostCommunication/src/Protocol.c ****  */
  47:../HostCommunication/src/Protocol.c **** 
  48:../HostCommunication/src/Protocol.c **** /**
  49:../HostCommunication/src/Protocol.c ****  * \defgroup InternalConstants
  50:../HostCommunication/src/Protocol.c ****  *
  51:../HostCommunication/src/Protocol.c ****  * @brief: Constants used to define the message format.
  52:../HostCommunication/src/Protocol.c ****  *
  53:../HostCommunication/src/Protocol.c ****  * The messages exchanged between host and device contain some of those
  54:../HostCommunication/src/Protocol.c ****  * constants to define the limits of a message in the byte stream.
  55:../HostCommunication/src/Protocol.c ****  *
  56:../HostCommunication/src/Protocol.c ****  * @{
  57:../HostCommunication/src/Protocol.c ****  */
  58:../HostCommunication/src/Protocol.c **** #define CNST_STARTBYTE_DATA           0x5A    /**< A payload message begins
  59:../HostCommunication/src/Protocol.c ****                                                    with this code byte. */
  60:../HostCommunication/src/Protocol.c **** #define CNST_STARTBYTE_STATUS         0x5B    /**< A status message begins
  61:../HostCommunication/src/Protocol.c ****                                                    with this code byte. */
  62:../HostCommunication/src/Protocol.c **** #define CNST_END_OF_PAYLOAD           0xE0DB  /**< Every payload message ends
  63:../HostCommunication/src/Protocol.c ****                                                    with this 16 bit value
  64:../HostCommunication/src/Protocol.c ****                                                    (transmitted with low byte
  65:../HostCommunication/src/Protocol.c ****                                                    first!). */
  66:../HostCommunication/src/Protocol.c **** 
  67:../HostCommunication/src/Protocol.c **** #define CNST_MSG_QUERY_ENDPOINT_INFO  0x00    /**< This command code sent to
  68:../HostCommunication/src/Protocol.c ****                                                    endpoint 0 tells the device
  69:../HostCommunication/src/Protocol.c ****                                                    to send information about
  70:../HostCommunication/src/Protocol.c ****                                                    the protocol endpoints. */
  71:../HostCommunication/src/Protocol.c **** #define CNST_MSG_ENDPOINT_INFO        0x00    /**< A message containing
  72:../HostCommunication/src/Protocol.c ****                                                    endpoint information sent
  73:../HostCommunication/src/Protocol.c ****                                                    from endpoint 0 starts with
  74:../HostCommunication/src/Protocol.c ****                                                    this message type code. */
  75:../HostCommunication/src/Protocol.c **** #define CNST_MSG_QUERY_FW_INFO        0x01    /**< This command code sent to
  76:../HostCommunication/src/Protocol.c ****                                                    endpoint 0 tells the device
  77:../HostCommunication/src/Protocol.c ****                                                    to send information about
  78:../HostCommunication/src/Protocol.c ****                                                    its firmware. */
  79:../HostCommunication/src/Protocol.c **** #define CNST_MSG_FW_INFO              0x01    /**< A message containing
  80:../HostCommunication/src/Protocol.c ****                                                    firmware information sent
  81:../HostCommunication/src/Protocol.c ****                                                    from endpoint 0 starts with
  82:../HostCommunication/src/Protocol.c ****                                                    this message type code. */
  83:../HostCommunication/src/Protocol.c **** #define CNST_MSG_FIRMWARE_RESET       0x02    /**< This command code sent to
  84:../HostCommunication/src/Protocol.c ****                                                    endpoint 0 tells the device
  85:../HostCommunication/src/Protocol.c ****                                                    to do a firmware reset. */
  86:../HostCommunication/src/Protocol.c **** /** @} */
  87:../HostCommunication/src/Protocol.c **** 
  88:../HostCommunication/src/Protocol.c **** /**
  89:../HostCommunication/src/Protocol.c ****  * \defgroup StatusCodes
  90:../HostCommunication/src/Protocol.c ****  *
  91:../HostCommunication/src/Protocol.c ****  * @brief: General protocol status codes.
  92:../HostCommunication/src/Protocol.c ****  *
  93:../HostCommunication/src/Protocol.c ****  * Whenever a message with improper format is received one of the following
  94:../HostCommunication/src/Protocol.c ****  * status code will be returned. The status codes will always be sent from
  95:../HostCommunication/src/Protocol.c ****  * endpoint 0.
  96:../HostCommunication/src/Protocol.c ****  *
  97:../HostCommunication/src/Protocol.c ****  * @{
  98:../HostCommunication/src/Protocol.c ****  */
  99:../HostCommunication/src/Protocol.c **** #define PROTOCOL_ERROR_OK                0x0000  /**< No error occurred. */
 100:../HostCommunication/src/Protocol.c **** #define PROTOCOL_ERROR_TIMEOUT           0x0001  /**< The message seemed to
 101:../HostCommunication/src/Protocol.c ****                                                       end, but more data was
 102:../HostCommunication/src/Protocol.c ****                                                       expected. */
 103:../HostCommunication/src/Protocol.c **** #define PROTOCOL_ERROR_BAD_MESSAGE_START 0x0002  /**< The start byte of the
 104:../HostCommunication/src/Protocol.c ****                                                       message was incorrect.
 105:../HostCommunication/src/Protocol.c ****                                                       */
 106:../HostCommunication/src/Protocol.c **** #define PROTOCOL_ERROR_BAD_ENDPOINT_ID   0x0003  /**< An endpoint with the
 107:../HostCommunication/src/Protocol.c ****                                                       requested ID is not
 108:../HostCommunication/src/Protocol.c ****                                                       present. */
 109:../HostCommunication/src/Protocol.c **** #define PROTOCOL_ERROR_NO_PAYLOAD        0x0005  /**< A message with no
 110:../HostCommunication/src/Protocol.c ****                                                       payload is not
 111:../HostCommunication/src/Protocol.c ****                                                       supported. */
 112:../HostCommunication/src/Protocol.c **** #define PROTOCOL_ERROR_OUT_OF_MEMORY     0x0006  /**< There is not enough
 113:../HostCommunication/src/Protocol.c ****                                                       memory to store the
 114:../HostCommunication/src/Protocol.c ****                                                       payload. */
 115:../HostCommunication/src/Protocol.c **** #define PROTOCOL_ERROR_BAD_PAYLOAD_END   0x0007  /**< The message did not end
 116:../HostCommunication/src/Protocol.c ****                                                       with the expected
 117:../HostCommunication/src/Protocol.c ****                                                       sequence. */
 118:../HostCommunication/src/Protocol.c **** #define PROTOCOL_ERROR_BAD_COMMAND       0xFFFF  /**< The command sent to
 119:../HostCommunication/src/Protocol.c ****                                                       endpoint 0 is not
 120:../HostCommunication/src/Protocol.c ****                                                       understood. */
 121:../HostCommunication/src/Protocol.c **** 
 122:../HostCommunication/src/Protocol.c **** #ifndef PROTOCOL_MAX_PAYLOAD_SIZE
 123:../HostCommunication/src/Protocol.c **** 	#define PROTOCOL_MAX_PAYLOAD_SIZE    (512U)    /**< The maximum buffer size
 124:../HostCommunication/src/Protocol.c **** 													  for the received message. */
 125:../HostCommunication/src/Protocol.c **** #endif
 126:../HostCommunication/src/Protocol.c **** /** @} */
 127:../HostCommunication/src/Protocol.c **** 
 128:../HostCommunication/src/Protocol.c **** /*
 129:../HostCommunication/src/Protocol.c **** ==============================================================================
 130:../HostCommunication/src/Protocol.c ****    3. LOCAL TYPES
 131:../HostCommunication/src/Protocol.c **** ==============================================================================
 132:../HostCommunication/src/Protocol.c ****  */
 133:../HostCommunication/src/Protocol.c **** 
 134:../HostCommunication/src/Protocol.c **** /**
 135:../HostCommunication/src/Protocol.c ****  * @brief: This enumeration lists receive state of the protocol.
 136:../HostCommunication/src/Protocol.c ****  *
 137:../HostCommunication/src/Protocol.c ****  * The protocol uses a variable as the state of a finite state machine which
 138:../HostCommunication/src/Protocol.c ****  * controls what to do with received data.
 139:../HostCommunication/src/Protocol.c ****  */
 140:../HostCommunication/src/Protocol.c **** typedef enum
 141:../HostCommunication/src/Protocol.c **** {
 142:../HostCommunication/src/Protocol.c ****     PROTOCOL_STATE_IDLE,               /**< No reception is going on. The
 143:../HostCommunication/src/Protocol.c ****                                             protocol is waiting for a message
 144:../HostCommunication/src/Protocol.c ****                                             header. */
 145:../HostCommunication/src/Protocol.c ****     PROTOCOL_STATE_RECEIVING_HEADER,   /**< The begin of a message header was
 146:../HostCommunication/src/Protocol.c ****                                             received but the header has not
 147:../HostCommunication/src/Protocol.c ****                                             been received completely. */
 148:../HostCommunication/src/Protocol.c ****     PROTOCOL_STATE_RECEIVING_PAYLOAD,  /**< A message header has been received
 149:../HostCommunication/src/Protocol.c ****                                             completely. Now the reception of
 150:../HostCommunication/src/Protocol.c ****                                             the message payload is ongoing. */
 151:../HostCommunication/src/Protocol.c ****     PROTOCOL_STATE_RECEIVING_TAIL,     /**< The message payload has been
 152:../HostCommunication/src/Protocol.c ****                                             received completely. Now the
 153:../HostCommunication/src/Protocol.c ****                                             reception of the message tail is
 154:../HostCommunication/src/Protocol.c ****                                             ongoing. */
 155:../HostCommunication/src/Protocol.c ****     PROTOCOL_STATE_CONFUSED            /**< An error occurred during message
 156:../HostCommunication/src/Protocol.c ****                                             reception. The incoming data can't
 157:../HostCommunication/src/Protocol.c ****                                             be parsed properly any more. All
 158:../HostCommunication/src/Protocol.c ****                                             following data is ignored until a
 159:../HostCommunication/src/Protocol.c ****                                             timeout occurs to sync again. */
 160:../HostCommunication/src/Protocol.c **** } Protocol_State_t;
 161:../HostCommunication/src/Protocol.c **** 
 162:../HostCommunication/src/Protocol.c **** /**
 163:../HostCommunication/src/Protocol.c ****  * @brief: This structure contains all state information of the communication
 164:../HostCommunication/src/Protocol.c ****  *        protocol.
 165:../HostCommunication/src/Protocol.c ****  *
 166:../HostCommunication/src/Protocol.c ****  * This structure contains the current receive state and some pointer to store
 167:../HostCommunication/src/Protocol.c ****  * received data temporarily. It also contains a pointer to the list of
 168:../HostCommunication/src/Protocol.c ****  * endpoints and the information about timeout function and period.
 169:../HostCommunication/src/Protocol.c ****  *
 170:../HostCommunication/src/Protocol.c ****  * Theoretically multiple instances of the protocol could coexist, each of
 171:../HostCommunication/src/Protocol.c ****  * them having an instance of this team. Currently only a single instance is
 172:../HostCommunication/src/Protocol.c ****  * supported as the only instance of this type is \ref instance.
 173:../HostCommunication/src/Protocol.c ****  */
 174:../HostCommunication/src/Protocol.c **** typedef struct
 175:../HostCommunication/src/Protocol.c **** {
 176:../HostCommunication/src/Protocol.c ****     Endpoint_t*      endpoints;          /**< The list of endpoints. */
 177:../HostCommunication/src/Protocol.c ****     uint8_t          num_endpoints;      /**< The number of endpoints. */
 178:../HostCommunication/src/Protocol.c ****     Protocol_State_t state;              /**< The current receive state. */
 179:../HostCommunication/src/Protocol.c ****     uint8_t*         receive_pointer;    /**< A pointer to the memory
 180:../HostCommunication/src/Protocol.c ****                                               location, where the next
 181:../HostCommunication/src/Protocol.c ****                                               received bytes are stored. */
 182:../HostCommunication/src/Protocol.c ****     uint16_t         num_bytes_awaited;  /**< The number of bytes to be
 183:../HostCommunication/src/Protocol.c ****                                               received before the current
 184:../HostCommunication/src/Protocol.c ****                                               section of message data is
 185:../HostCommunication/src/Protocol.c ****                                               completed. */
 186:../HostCommunication/src/Protocol.c ****     uint32_t         time_of_last_byte;  /**< The system time when the last
 187:../HostCommunication/src/Protocol.c ****                                               bytes were received. This is
 188:../HostCommunication/src/Protocol.c ****                                               used to detect a timeout. */
 189:../HostCommunication/src/Protocol.c ****     uint8_t          message_frame[6];   /**< A buffer to store the received
 190:../HostCommunication/src/Protocol.c ****                                               message header and tail. */
 191:../HostCommunication/src/Protocol.c ****     uint8_t*         payload;            /**< A pointer to the payload. (Data
 192:../HostCommunication/src/Protocol.c ****                                               buffer is allocated during
 193:../HostCommunication/src/Protocol.c ****                                               reception) */
 194:../HostCommunication/src/Protocol.c ****     uint32_t         (*get_time)(void);  /**< A pointer to the function that
 195:../HostCommunication/src/Protocol.c ****                                               returns the current system time.
 196:../HostCommunication/src/Protocol.c ****                                               */
 197:../HostCommunication/src/Protocol.c ****     uint32_t         timeout_interval;   /**< The timeout period with respect
 198:../HostCommunication/src/Protocol.c ****                                               to the unit of the return value
 199:../HostCommunication/src/Protocol.c ****                                               of the get_time function. */
 200:../HostCommunication/src/Protocol.c ****     void       (*do_system_reset)(void); /**< A pointer to a function that
 201:../HostCommunication/src/Protocol.c ****                                               does a system reset. */
 202:../HostCommunication/src/Protocol.c **** 	size_t			max_payload;		 /**< holds the maximum payload buffer size, after allocation. */
 203:../HostCommunication/src/Protocol.c **** } Instance_t;
 204:../HostCommunication/src/Protocol.c **** 
 205:../HostCommunication/src/Protocol.c **** /*
 206:../HostCommunication/src/Protocol.c **** ==============================================================================
 207:../HostCommunication/src/Protocol.c ****    4. DATA
 208:../HostCommunication/src/Protocol.c **** ==============================================================================
 209:../HostCommunication/src/Protocol.c ****  */
 210:../HostCommunication/src/Protocol.c **** 
 211:../HostCommunication/src/Protocol.c **** /**
 212:../HostCommunication/src/Protocol.c ****  * @brief: The state of the protocol is stored here.
 213:../HostCommunication/src/Protocol.c ****  *
 214:../HostCommunication/src/Protocol.c ****  * See \ref Instance_t for more information.
 215:../HostCommunication/src/Protocol.c ****  */
 216:../HostCommunication/src/Protocol.c **** static Instance_t instance;
 217:../HostCommunication/src/Protocol.c **** 
 218:../HostCommunication/src/Protocol.c **** /**
 219:../HostCommunication/src/Protocol.c ****  * @brief: This array contains the firmware version.
 220:../HostCommunication/src/Protocol.c ****  *
 221:../HostCommunication/src/Protocol.c ****  * This array must be defined somewhere in the firmware project. The array
 222:../HostCommunication/src/Protocol.c ****  * contains the following numbers:
 223:../HostCommunication/src/Protocol.c ****  * - firmware_version[0] - The major firmware version.
 224:../HostCommunication/src/Protocol.c ****  * - firmware_version[1] - The minor firmware version.
 225:../HostCommunication/src/Protocol.c ****  * - firmware_version[2] - The firmware version revision.
 226:../HostCommunication/src/Protocol.c ****  */
 227:../HostCommunication/src/Protocol.c **** extern Firmware_Information_t firmware_information;
 228:../HostCommunication/src/Protocol.c **** /**
 229:../HostCommunication/src/Protocol.c ****  * @brief: Static buffer used to store the received messages,
 230:../HostCommunication/src/Protocol.c ****  *        in case of the payload size is less than PROTOCOL_MAX_PAYLOAD_SIZE.
 231:../HostCommunication/src/Protocol.c ****  */
 232:../HostCommunication/src/Protocol.c **** static uint8_t data_payload[PROTOCOL_MAX_PAYLOAD_SIZE] = { 0 };
 233:../HostCommunication/src/Protocol.c **** 
 234:../HostCommunication/src/Protocol.c **** /*
 235:../HostCommunication/src/Protocol.c **** ==============================================================================
 236:../HostCommunication/src/Protocol.c ****    5. LOCAL FUNCTION PROTOTYPES
 237:../HostCommunication/src/Protocol.c **** ==============================================================================
 238:../HostCommunication/src/Protocol.c ****  */
 239:../HostCommunication/src/Protocol.c **** 
 240:../HostCommunication/src/Protocol.c **** /**
 241:../HostCommunication/src/Protocol.c ****  * @brief: This function sends a status code to the host.
 242:../HostCommunication/src/Protocol.c ****  *
 243:../HostCommunication/src/Protocol.c ****  * Whenever the protocol receives a message from the host, it returns a status
 244:../HostCommunication/src/Protocol.c ****  * code when processing of that message is done. This function builds the
 245:../HostCommunication/src/Protocol.c ****  * according status message and sends it.
 246:../HostCommunication/src/Protocol.c ****  *
 247:../HostCommunication/src/Protocol.c ****  * \param[in] endpoint     The number of the endpoint that returned the status
 248:../HostCommunication/src/Protocol.c ****  *                         code.
 249:../HostCommunication/src/Protocol.c ****  * \param[in] status_code  The 16 bit error code to be sent.
 250:../HostCommunication/src/Protocol.c ****  */
 251:../HostCommunication/src/Protocol.c **** static void send_status_message(uint8_t endpoint, uint16_t status_code);
 252:../HostCommunication/src/Protocol.c **** 
 253:../HostCommunication/src/Protocol.c **** /**
 254:../HostCommunication/src/Protocol.c ****  * @brief: This function resets the receive state of the protocol.
 255:../HostCommunication/src/Protocol.c ****  *
 256:../HostCommunication/src/Protocol.c ****  * This function is called after a message has been received or if the
 257:../HostCommunication/src/Protocol.c ****  * protocols recovers from a receive error. The function resets the receive
 258:../HostCommunication/src/Protocol.c ****  * state and prepares the protocol to receive another message from the host.
 259:../HostCommunication/src/Protocol.c ****  */
 260:../HostCommunication/src/Protocol.c **** static void reset_state(void);
 261:../HostCommunication/src/Protocol.c **** 
 262:../HostCommunication/src/Protocol.c **** /**
 263:../HostCommunication/src/Protocol.c ****  * @brief: This function retrieves data from the host.
 264:../HostCommunication/src/Protocol.c ****  *
 265:../HostCommunication/src/Protocol.c ****  * This functions is repeatedly called during the function protocol_run. It
 266:../HostCommunication/src/Protocol.c ****  * reads data bytes from the host that have been received through the
 267:../HostCommunication/src/Protocol.c ****  * communication interface and stores them according to the current receive
 268:../HostCommunication/src/Protocol.c ****  * state.
 269:../HostCommunication/src/Protocol.c ****  *
 270:../HostCommunication/src/Protocol.c ****  * The function also performs a timeout check when a valid get_time function
 271:../HostCommunication/src/Protocol.c ****  * is available.
 272:../HostCommunication/src/Protocol.c ****  */
 273:../HostCommunication/src/Protocol.c **** static void receive_data(void);
 274:../HostCommunication/src/Protocol.c **** 
 275:../HostCommunication/src/Protocol.c **** /**
 276:../HostCommunication/src/Protocol.c ****  * @brief: This function handles payload message that are sent to the protocol
 277:../HostCommunication/src/Protocol.c ****  *        itself.
 278:../HostCommunication/src/Protocol.c ****  *
 279:../HostCommunication/src/Protocol.c ****  * When the protocol receives a payload message from the host that is
 280:../HostCommunication/src/Protocol.c ****  * addressed to endpoint 0 that message is forwarded to this function, where
 281:../HostCommunication/src/Protocol.c ****  * it is parsed.
 282:../HostCommunication/src/Protocol.c ****  *
 283:../HostCommunication/src/Protocol.c ****  * The only valid message that is known to the protocol is the message to
 284:../HostCommunication/src/Protocol.c ****  * query endpoint information. This function checks for that message and calls
 285:../HostCommunication/src/Protocol.c ****  * \ref send_endpoint_info on success.
 286:../HostCommunication/src/Protocol.c ****  *
 287:../HostCommunication/src/Protocol.c ****  * \param[in] message_data  A pointer to the buffer containing the payload.
 288:../HostCommunication/src/Protocol.c ****  * \param[in] num_bytes     The number of bytes in the payload buffer.
 289:../HostCommunication/src/Protocol.c ****  *
 290:../HostCommunication/src/Protocol.c ****  * \return The function returns a status code indicating if the payload could
 291:../HostCommunication/src/Protocol.c ****  *         be handled successfully.
 292:../HostCommunication/src/Protocol.c ****  */
 293:../HostCommunication/src/Protocol.c **** static uint16_t handle_message(uint8_t *message_data, uint16_t num_bytes);
 294:../HostCommunication/src/Protocol.c **** 
 295:../HostCommunication/src/Protocol.c **** /**
 296:../HostCommunication/src/Protocol.c ****  * @brief: This function sends endpoint information to the host.
 297:../HostCommunication/src/Protocol.c ****  *
 298:../HostCommunication/src/Protocol.c ****  * This function is called by \ref handle_message if a message was received to
 299:../HostCommunication/src/Protocol.c ****  * query information about the endpoints of the firmware. Type and version
 300:../HostCommunication/src/Protocol.c ****  * information of all types are packed into a message, which is sent to the
 301:../HostCommunication/src/Protocol.c ****  * host.
 302:../HostCommunication/src/Protocol.c ****  */
 303:../HostCommunication/src/Protocol.c **** static void send_endpoint_info(void);
 304:../HostCommunication/src/Protocol.c **** 
 305:../HostCommunication/src/Protocol.c **** /**
 306:../HostCommunication/src/Protocol.c ****  * @brief: This function sends information about the firmware to the host.
 307:../HostCommunication/src/Protocol.c ****  *
 308:../HostCommunication/src/Protocol.c ****  * This function is called by \ref handle_message if a message was received to
 309:../HostCommunication/src/Protocol.c ****  * query the firmware version. The firmware information is expected in
 310:../HostCommunication/src/Protocol.c ****  * an external structure. See \ref Firmware_Information_t for more
 311:../HostCommunication/src/Protocol.c ****  * information.
 312:../HostCommunication/src/Protocol.c ****  * \code
 313:../HostCommunication/src/Protocol.c ****  * Firmware_Information_t firmware_information;
 314:../HostCommunication/src/Protocol.c ****  * \endcode
 315:../HostCommunication/src/Protocol.c ****  */
 316:../HostCommunication/src/Protocol.c **** static void send_firmware_info(void);
 317:../HostCommunication/src/Protocol.c **** 
 318:../HostCommunication/src/Protocol.c **** /*
 319:../HostCommunication/src/Protocol.c **** ==============================================================================
 320:../HostCommunication/src/Protocol.c ****    6. EXPORTED FUNCTIONS
 321:../HostCommunication/src/Protocol.c **** ==============================================================================
 322:../HostCommunication/src/Protocol.c ****  */
 323:../HostCommunication/src/Protocol.c **** 
 324:../HostCommunication/src/Protocol.c **** void protocol_init(Endpoint_t* endpoints, uint8_t num_endpoints,
 325:../HostCommunication/src/Protocol.c ****                    uint32_t (*get_time)(void), uint32_t timeout_interval,
 326:../HostCommunication/src/Protocol.c ****                    void (*do_system_reset)(void))
 327:../HostCommunication/src/Protocol.c **** {
 328:../HostCommunication/src/Protocol.c ****     /* initialize the internal state structure */
 329:../HostCommunication/src/Protocol.c ****     instance.get_time = get_time;
 330:../HostCommunication/src/Protocol.c ****     instance.timeout_interval = timeout_interval;
 331:../HostCommunication/src/Protocol.c ****     instance.do_system_reset = do_system_reset;
 332:../HostCommunication/src/Protocol.c **** 
 333:../HostCommunication/src/Protocol.c ****     instance.endpoints = endpoints;
 334:../HostCommunication/src/Protocol.c ****     instance.num_endpoints = num_endpoints;
 335:../HostCommunication/src/Protocol.c **** 
 336:../HostCommunication/src/Protocol.c ****     instance.state = PROTOCOL_STATE_IDLE;
 337:../HostCommunication/src/Protocol.c ****     instance.receive_pointer = NULL;
 338:../HostCommunication/src/Protocol.c ****     instance.num_bytes_awaited = 0;
 339:../HostCommunication/src/Protocol.c ****     instance.time_of_last_byte = (get_time != NULL) ? instance.get_time() : 0;
 340:../HostCommunication/src/Protocol.c ****     instance.payload = data_payload;
 341:../HostCommunication/src/Protocol.c **** 	instance.max_payload = PROTOCOL_MAX_PAYLOAD_SIZE;
 342:../HostCommunication/src/Protocol.c **** 
 343:../HostCommunication/src/Protocol.c ****     /* initialize state */
 344:../HostCommunication/src/Protocol.c ****     reset_state();
 345:../HostCommunication/src/Protocol.c **** 
 346:../HostCommunication/src/Protocol.c ****     /* initialize communication interface */
 347:../HostCommunication/src/Protocol.c ****     com_init();
 348:../HostCommunication/src/Protocol.c **** }
 349:../HostCommunication/src/Protocol.c **** 
 350:../HostCommunication/src/Protocol.c **** //============================================================================
 351:../HostCommunication/src/Protocol.c **** 
 352:../HostCommunication/src/Protocol.c **** void protocol_run(void)
 353:../HostCommunication/src/Protocol.c **** {
 354:../HostCommunication/src/Protocol.c **** 	if (instance.state != PROTOCOL_STATE_CONFUSED)
 355:../HostCommunication/src/Protocol.c ****     {
 356:../HostCommunication/src/Protocol.c ****         /* if the protocol is in a defined state, read the next bytes from the
 357:../HostCommunication/src/Protocol.c ****          * input stream
 358:../HostCommunication/src/Protocol.c ****          */
 359:../HostCommunication/src/Protocol.c ****         receive_data();
 360:../HostCommunication/src/Protocol.c **** 
 361:../HostCommunication/src/Protocol.c ****         /*
 362:../HostCommunication/src/Protocol.c ****          * now process data until the end of a message has been reached
 363:../HostCommunication/src/Protocol.c ****          * (note the missing brakes, the fall through is intended to proceed
 364:../HostCommunication/src/Protocol.c ****          * with the message, so don't wonder)
 365:../HostCommunication/src/Protocol.c ****          */
 366:../HostCommunication/src/Protocol.c ****         switch (instance.state)
 367:../HostCommunication/src/Protocol.c ****         {
 368:../HostCommunication/src/Protocol.c ****         case PROTOCOL_STATE_IDLE:
 369:../HostCommunication/src/Protocol.c ****             /* if at least one byte has been received, the state is not idle
 370:../HostCommunication/src/Protocol.c ****              *  any more
 371:../HostCommunication/src/Protocol.c ****              */
 372:../HostCommunication/src/Protocol.c ****             if (instance.num_bytes_awaited < 4)
 373:../HostCommunication/src/Protocol.c ****                 instance.state = PROTOCOL_STATE_RECEIVING_HEADER;
 374:../HostCommunication/src/Protocol.c **** 
 375:../HostCommunication/src/Protocol.c ****             /* no break, fall through and continue with
 376:../HostCommunication/src/Protocol.c ****              * PROTOCOL_STATE_RECEIVING_HEADER
 377:../HostCommunication/src/Protocol.c ****              */
 378:../HostCommunication/src/Protocol.c **** 
 379:../HostCommunication/src/Protocol.c ****         case PROTOCOL_STATE_RECEIVING_HEADER:
 380:../HostCommunication/src/Protocol.c ****             if (instance.num_bytes_awaited == 0)
 381:../HostCommunication/src/Protocol.c ****             {
 382:../HostCommunication/src/Protocol.c ****                 uint8_t  sync_byte;
 383:../HostCommunication/src/Protocol.c ****                 uint8_t  endpoint;
 384:../HostCommunication/src/Protocol.c ****                 uint16_t payload_size;
 385:../HostCommunication/src/Protocol.c **** 
 386:../HostCommunication/src/Protocol.c ****                 /* when the header has been received completely, check the
 387:../HostCommunication/src/Protocol.c ****                  * header information
 388:../HostCommunication/src/Protocol.c ****                  */
 389:../HostCommunication/src/Protocol.c ****                 sync_byte    = rd_payload_u8 (instance.message_frame, 0);
 390:../HostCommunication/src/Protocol.c ****                 endpoint     = rd_payload_u8 (instance.message_frame, 1);
 391:../HostCommunication/src/Protocol.c ****                 payload_size = rd_payload_u16(instance.message_frame, 2);
 392:../HostCommunication/src/Protocol.c **** 
 393:../HostCommunication/src/Protocol.c ****                 /* check sync bye, message must be a payload message */
 394:../HostCommunication/src/Protocol.c ****                 if (sync_byte != CNST_STARTBYTE_DATA)
 395:../HostCommunication/src/Protocol.c ****                 {
 396:../HostCommunication/src/Protocol.c ****                     instance.state = PROTOCOL_STATE_CONFUSED;
 397:../HostCommunication/src/Protocol.c ****                     send_status_message(0, PROTOCOL_ERROR_BAD_MESSAGE_START);
 398:../HostCommunication/src/Protocol.c ****                     break;
 399:../HostCommunication/src/Protocol.c ****                 }
 400:../HostCommunication/src/Protocol.c **** 
 401:../HostCommunication/src/Protocol.c ****                 /* check message header for endpoint number */
 402:../HostCommunication/src/Protocol.c ****                 if (endpoint <= instance.num_endpoints)
 403:../HostCommunication/src/Protocol.c ****                 {
 404:../HostCommunication/src/Protocol.c ****                     /* check payload size (A message with no payload makes no
 405:../HostCommunication/src/Protocol.c ****                      * sense)
 406:../HostCommunication/src/Protocol.c ****                      */
 407:../HostCommunication/src/Protocol.c ****                     if (payload_size == 0)
 408:../HostCommunication/src/Protocol.c ****                     {
 409:../HostCommunication/src/Protocol.c ****                         instance.state = PROTOCOL_STATE_CONFUSED;
 410:../HostCommunication/src/Protocol.c ****                         send_status_message(0, PROTOCOL_ERROR_NO_PAYLOAD);
 411:../HostCommunication/src/Protocol.c ****                         break;
 412:../HostCommunication/src/Protocol.c ****                     }
 413:../HostCommunication/src/Protocol.c **** 
 414:../HostCommunication/src/Protocol.c ****                     /* prepare for receiving payload */
 415:../HostCommunication/src/Protocol.c ****                     if (payload_size > instance.max_payload)
 416:../HostCommunication/src/Protocol.c ****                     {
 417:../HostCommunication/src/Protocol.c ****                       instance.state = PROTOCOL_STATE_CONFUSED;
 418:../HostCommunication/src/Protocol.c ****                       send_status_message(0, PROTOCOL_ERROR_OUT_OF_MEMORY);
 419:../HostCommunication/src/Protocol.c ****                       break;
 420:../HostCommunication/src/Protocol.c ****                     }
 421:../HostCommunication/src/Protocol.c **** 
 422:../HostCommunication/src/Protocol.c ****                     instance.receive_pointer = instance.payload;
 423:../HostCommunication/src/Protocol.c ****                     instance.num_bytes_awaited = payload_size;
 424:../HostCommunication/src/Protocol.c ****                     instance.state = PROTOCOL_STATE_RECEIVING_PAYLOAD;
 425:../HostCommunication/src/Protocol.c ****                 }
 426:../HostCommunication/src/Protocol.c ****                 else
 427:../HostCommunication/src/Protocol.c ****                 {
 428:../HostCommunication/src/Protocol.c ****                     instance.state = PROTOCOL_STATE_CONFUSED;
 429:../HostCommunication/src/Protocol.c ****                     send_status_message(0, PROTOCOL_ERROR_BAD_ENDPOINT_ID);
 430:../HostCommunication/src/Protocol.c ****                     break;
 431:../HostCommunication/src/Protocol.c ****                 }
 432:../HostCommunication/src/Protocol.c **** 
 433:../HostCommunication/src/Protocol.c ****                 /* try to read payload */
 434:../HostCommunication/src/Protocol.c ****                 receive_data();
 435:../HostCommunication/src/Protocol.c **** 
 436:../HostCommunication/src/Protocol.c ****                 /* no break, fall through and continue with
 437:../HostCommunication/src/Protocol.c ****                  * PROTOCOL_STATE_RECEIVING_PAYLOAD
 438:../HostCommunication/src/Protocol.c ****                  */
 439:../HostCommunication/src/Protocol.c ****             }
 440:../HostCommunication/src/Protocol.c ****             else
 441:../HostCommunication/src/Protocol.c ****             {
 442:../HostCommunication/src/Protocol.c ****                 /* header is not complete, but no more data has been received,
 443:../HostCommunication/src/Protocol.c ****                  * stop and try again later
 444:../HostCommunication/src/Protocol.c ****                  */
 445:../HostCommunication/src/Protocol.c ****                 break;
 446:../HostCommunication/src/Protocol.c ****             }
 447:../HostCommunication/src/Protocol.c **** 
 448:../HostCommunication/src/Protocol.c ****         case PROTOCOL_STATE_RECEIVING_PAYLOAD:
 449:../HostCommunication/src/Protocol.c ****             if (instance.num_bytes_awaited == 0)
 450:../HostCommunication/src/Protocol.c ****             {
 451:../HostCommunication/src/Protocol.c ****                 /* prepare for receiving message tail */
 452:../HostCommunication/src/Protocol.c ****                 instance.receive_pointer = instance.message_frame + 4;
 453:../HostCommunication/src/Protocol.c ****                 instance.num_bytes_awaited = 2;
 454:../HostCommunication/src/Protocol.c ****                 instance.state = PROTOCOL_STATE_RECEIVING_TAIL;
 455:../HostCommunication/src/Protocol.c **** 
 456:../HostCommunication/src/Protocol.c ****                 /* try to read payload */
 457:../HostCommunication/src/Protocol.c ****                 receive_data();
 458:../HostCommunication/src/Protocol.c **** 
 459:../HostCommunication/src/Protocol.c ****                 /* no break, fall through and continue with
 460:../HostCommunication/src/Protocol.c ****                  * PROTOCOL_STATE_RECEIVING_TAIL
 461:../HostCommunication/src/Protocol.c ****                  */
 462:../HostCommunication/src/Protocol.c ****             }
 463:../HostCommunication/src/Protocol.c ****             else
 464:../HostCommunication/src/Protocol.c ****             {
 465:../HostCommunication/src/Protocol.c ****                 /* payload is not complete, but no more data has been
 466:../HostCommunication/src/Protocol.c ****                  * received, stop and try again later
 467:../HostCommunication/src/Protocol.c ****                  */
 468:../HostCommunication/src/Protocol.c ****                 break;
 469:../HostCommunication/src/Protocol.c ****             }
 470:../HostCommunication/src/Protocol.c **** 
 471:../HostCommunication/src/Protocol.c ****         case PROTOCOL_STATE_RECEIVING_TAIL:
 472:../HostCommunication/src/Protocol.c ****             if (instance.num_bytes_awaited == 0)
 473:../HostCommunication/src/Protocol.c ****             {
 474:../HostCommunication/src/Protocol.c ****                 uint8_t  endpoint;
 475:../HostCommunication/src/Protocol.c ****                 uint16_t payload_size;
 476:../HostCommunication/src/Protocol.c ****                 uint16_t end_sequence;
 477:../HostCommunication/src/Protocol.c **** 
 478:../HostCommunication/src/Protocol.c ****                 /* message is complete, now process it */
 479:../HostCommunication/src/Protocol.c ****                 endpoint     = rd_payload_u8 (instance.message_frame, 1);
 480:../HostCommunication/src/Protocol.c ****                 payload_size = rd_payload_u16(instance.message_frame, 2);
 481:../HostCommunication/src/Protocol.c ****                 end_sequence = rd_payload_u16(instance.message_frame, 4);
 482:../HostCommunication/src/Protocol.c **** 
 483:../HostCommunication/src/Protocol.c ****                 /* check end of payload sequence */
 484:../HostCommunication/src/Protocol.c ****                 if (end_sequence != CNST_END_OF_PAYLOAD)
 485:../HostCommunication/src/Protocol.c ****                 {
 486:../HostCommunication/src/Protocol.c ****                     instance.state = PROTOCOL_STATE_CONFUSED;
 487:../HostCommunication/src/Protocol.c ****                     send_status_message(0, PROTOCOL_ERROR_BAD_PAYLOAD_END);
 488:../HostCommunication/src/Protocol.c ****                     break;
 489:../HostCommunication/src/Protocol.c ****                 }
 490:../HostCommunication/src/Protocol.c **** 
 491:../HostCommunication/src/Protocol.c ****          	  /********** TIMING DEBUG - Protocol Start *************/
 492:../HostCommunication/src/Protocol.c ****           	  #ifdef TIMING_DEBUG
 493:../HostCommunication/src/Protocol.c ****                   	//DIGITAL_IO_SetOutputLow(&DIGITAL_IO_ARD_D9);
 494:../HostCommunication/src/Protocol.c ****           	  #endif
 495:../HostCommunication/src/Protocol.c **** 
 496:../HostCommunication/src/Protocol.c ****                 if (endpoint != 0)
 497:../HostCommunication/src/Protocol.c ****                 {
 498:../HostCommunication/src/Protocol.c ****                     uint16_t status_code;
 499:../HostCommunication/src/Protocol.c ****                     Endpoint_t* current_ep;
 500:../HostCommunication/src/Protocol.c **** 
 501:../HostCommunication/src/Protocol.c ****                     /* now send the payload package to the addressed endpoint
 502:../HostCommunication/src/Protocol.c ****                      * and send the status code back
 503:../HostCommunication/src/Protocol.c ****                      */
 504:../HostCommunication/src/Protocol.c ****                     current_ep = &(instance.endpoints[endpoint-1]);
 505:../HostCommunication/src/Protocol.c ****                     status_code = current_ep->handle_message(endpoint,
 506:../HostCommunication/src/Protocol.c ****                                                              instance.payload,
 507:../HostCommunication/src/Protocol.c ****                                                              payload_size,
 508:../HostCommunication/src/Protocol.c ****                                                              current_ep->
 509:../HostCommunication/src/Protocol.c ****                                                                context);
 510:../HostCommunication/src/Protocol.c ****                     send_status_message(endpoint, status_code);
 511:../HostCommunication/src/Protocol.c ****                 }
 512:../HostCommunication/src/Protocol.c ****                 else
 513:../HostCommunication/src/Protocol.c ****                 {
 514:../HostCommunication/src/Protocol.c ****                     uint16_t status_code;
 515:../HostCommunication/src/Protocol.c ****                     /* endpoint 0 is the protocol itself, so handle message
 516:../HostCommunication/src/Protocol.c ****                      * by the protocol
 517:../HostCommunication/src/Protocol.c ****                      */
 518:../HostCommunication/src/Protocol.c ****                     status_code = handle_message(instance.payload,
 519:../HostCommunication/src/Protocol.c ****                                                  payload_size);
 520:../HostCommunication/src/Protocol.c ****                     send_status_message(0, status_code);
 521:../HostCommunication/src/Protocol.c ****                 }
 522:../HostCommunication/src/Protocol.c **** 
 523:../HostCommunication/src/Protocol.c ****                 /********** TIMING DEBUG - Protocol End *************/
 524:../HostCommunication/src/Protocol.c ****                 #ifdef TIMING_DEBUG
 525:../HostCommunication/src/Protocol.c ****                   	//DIGITAL_IO_SetOutputLow(&DIGITAL_IO_ARD_D9);
 526:../HostCommunication/src/Protocol.c ****                 #endif
 527:../HostCommunication/src/Protocol.c **** 
 528:../HostCommunication/src/Protocol.c ****                 /* go back to idle state to receive the next message */
 529:../HostCommunication/src/Protocol.c ****                 reset_state();
 530:../HostCommunication/src/Protocol.c ****                 break;
 531:../HostCommunication/src/Protocol.c ****             }
 532:../HostCommunication/src/Protocol.c ****             else
 533:../HostCommunication/src/Protocol.c ****             {
 534:../HostCommunication/src/Protocol.c ****                 /* tail is not complete, but no more data has been received,
 535:../HostCommunication/src/Protocol.c ****                  * stop and try again later
 536:../HostCommunication/src/Protocol.c ****                  */
 537:../HostCommunication/src/Protocol.c ****                 break;
 538:../HostCommunication/src/Protocol.c ****             }
 539:../HostCommunication/src/Protocol.c **** 
 540:../HostCommunication/src/Protocol.c ****         default:
 541:../HostCommunication/src/Protocol.c ****             /* This shouldn't occur. Put this default branch here to suppress
 542:../HostCommunication/src/Protocol.c ****              * a warning.
 543:../HostCommunication/src/Protocol.c ****              */
 544:../HostCommunication/src/Protocol.c ****             break;
 545:../HostCommunication/src/Protocol.c ****         };
 546:../HostCommunication/src/Protocol.c ****     }
 547:../HostCommunication/src/Protocol.c **** 
 548:../HostCommunication/src/Protocol.c ****     /* if state is confused, keep on reading into a dummy buffer, until
 549:../HostCommunication/src/Protocol.c ****      * receive buffer is empty
 550:../HostCommunication/src/Protocol.c ****      */
 551:../HostCommunication/src/Protocol.c ****     if (instance.state == PROTOCOL_STATE_CONFUSED)
 552:../HostCommunication/src/Protocol.c ****     {
 553:../HostCommunication/src/Protocol.c ****         uint8_t dummy_buffer[64];
 554:../HostCommunication/src/Protocol.c ****         do
 555:../HostCommunication/src/Protocol.c ****         {
 556:../HostCommunication/src/Protocol.c ****             instance.receive_pointer = dummy_buffer;
 557:../HostCommunication/src/Protocol.c ****             instance.num_bytes_awaited = sizeof(dummy_buffer);
 558:../HostCommunication/src/Protocol.c ****             receive_data();
 559:../HostCommunication/src/Protocol.c ****         } while (instance.num_bytes_awaited == 0);
 560:../HostCommunication/src/Protocol.c **** 
 561:../HostCommunication/src/Protocol.c ****         /*
 562:../HostCommunication/src/Protocol.c ****          * The receive_data function may switch the state back to idle, if a
 563:../HostCommunication/src/Protocol.c ****          * timeout occurs, this is the  only way to get out of confused state.
 564:../HostCommunication/src/Protocol.c ****          */
 565:../HostCommunication/src/Protocol.c ****     }
 566:../HostCommunication/src/Protocol.c **** }
 567:../HostCommunication/src/Protocol.c **** 
 568:../HostCommunication/src/Protocol.c **** //============================================================================
 569:../HostCommunication/src/Protocol.c **** 
 570:../HostCommunication/src/Protocol.c **** void protocol_send_header(uint8_t endpoint, uint16_t num_bytes)
 571:../HostCommunication/src/Protocol.c **** {
 572:../HostCommunication/src/Protocol.c ****     /* setup message header and send it */
 573:../HostCommunication/src/Protocol.c ****     uint8_t header[4];
 574:../HostCommunication/src/Protocol.c ****     wr_payload_u8 (header, 0, CNST_STARTBYTE_DATA);
 575:../HostCommunication/src/Protocol.c ****     wr_payload_u8 (header, 1, endpoint);
 576:../HostCommunication/src/Protocol.c ****     wr_payload_u16(header, 2, num_bytes);
 577:../HostCommunication/src/Protocol.c **** 
 578:../HostCommunication/src/Protocol.c ****     com_send_data(header, sizeof(header));
 579:../HostCommunication/src/Protocol.c **** }
 580:../HostCommunication/src/Protocol.c **** 
 581:../HostCommunication/src/Protocol.c **** void protocol_send_payload(const uint8_t *message_data, uint16_t num_bytes)
 582:../HostCommunication/src/Protocol.c **** {
 583:../HostCommunication/src/Protocol.c ****     /* send the data through the communication stream interface */
 584:../HostCommunication/src/Protocol.c ****     com_send_data(message_data, num_bytes);
 585:../HostCommunication/src/Protocol.c **** }
 586:../HostCommunication/src/Protocol.c **** 
 587:../HostCommunication/src/Protocol.c **** void protocol_send_tail(void)
 588:../HostCommunication/src/Protocol.c **** {
 589:../HostCommunication/src/Protocol.c ****     /* setup message tail and send it */
 590:../HostCommunication/src/Protocol.c ****     uint8_t tail[2];
 591:../HostCommunication/src/Protocol.c ****     wr_payload_u16(tail, 0, CNST_END_OF_PAYLOAD);
 592:../HostCommunication/src/Protocol.c **** 
 593:../HostCommunication/src/Protocol.c ****     com_send_data(tail, sizeof(tail));
 594:../HostCommunication/src/Protocol.c ****     com_flush();
 595:../HostCommunication/src/Protocol.c **** }
 596:../HostCommunication/src/Protocol.c **** 
 597:../HostCommunication/src/Protocol.c **** //============================================================================
 598:../HostCommunication/src/Protocol.c **** 
 599:../HostCommunication/src/Protocol.c **** void protocol_broadcast_change(void* context, uint32_t what)
 600:../HostCommunication/src/Protocol.c **** {
 601:../HostCommunication/src/Protocol.c ****     uint8_t i;
 602:../HostCommunication/src/Protocol.c **** 
 603:../HostCommunication/src/Protocol.c ****     /* broadcast change notification to all endpoints that have a
 604:../HostCommunication/src/Protocol.c ****      * handle_change function
 605:../HostCommunication/src/Protocol.c ****      */
 606:../HostCommunication/src/Protocol.c ****     for (i = 0; i < instance.num_endpoints; ++i)
 607:../HostCommunication/src/Protocol.c ****     {
 608:../HostCommunication/src/Protocol.c ****         if ((instance.endpoints[i].handle_change) &&
 609:../HostCommunication/src/Protocol.c ****             (instance.endpoints[i].context == context))
 610:../HostCommunication/src/Protocol.c ****         {
 611:../HostCommunication/src/Protocol.c ****             instance.endpoints[i].handle_change(i + 1, context, what);
 612:../HostCommunication/src/Protocol.c ****         }
 613:../HostCommunication/src/Protocol.c ****     }
 614:../HostCommunication/src/Protocol.c **** }
 615:../HostCommunication/src/Protocol.c **** 
 616:../HostCommunication/src/Protocol.c **** /*
 617:../HostCommunication/src/Protocol.c **** ==============================================================================
 618:../HostCommunication/src/Protocol.c ****   7. LOCAL FUNCTIONS
 619:../HostCommunication/src/Protocol.c **** ==============================================================================
 620:../HostCommunication/src/Protocol.c ****  */
 621:../HostCommunication/src/Protocol.c **** 
 622:../HostCommunication/src/Protocol.c **** static void send_status_message(uint8_t endpoint, uint16_t status_code)
 623:../HostCommunication/src/Protocol.c **** {
 624:../HostCommunication/src/Protocol.c ****     /* setup status message */
 625:../HostCommunication/src/Protocol.c ****     uint8_t status_message[4];
 626:../HostCommunication/src/Protocol.c ****     wr_payload_u8 (status_message, 0, CNST_STARTBYTE_STATUS);
 627:../HostCommunication/src/Protocol.c ****     wr_payload_u8 (status_message, 1, endpoint);
 628:../HostCommunication/src/Protocol.c ****     wr_payload_u16(status_message, 2, status_code);
 629:../HostCommunication/src/Protocol.c **** 
 630:../HostCommunication/src/Protocol.c ****     /* now send message */
 631:../HostCommunication/src/Protocol.c ****     com_send_data(status_message, sizeof(status_message));
 632:../HostCommunication/src/Protocol.c ****     com_flush();
 633:../HostCommunication/src/Protocol.c **** }
 634:../HostCommunication/src/Protocol.c **** 
 635:../HostCommunication/src/Protocol.c **** //============================================================================
 636:../HostCommunication/src/Protocol.c **** 
 637:../HostCommunication/src/Protocol.c **** static void reset_state(void)
 638:../HostCommunication/src/Protocol.c **** {
 639:../HostCommunication/src/Protocol.c ****     /* set to idle state and store incoming data in message frame buffer */
 640:../HostCommunication/src/Protocol.c ****     instance.state             = PROTOCOL_STATE_IDLE;
 641:../HostCommunication/src/Protocol.c ****     instance.receive_pointer   = instance.message_frame;
 642:../HostCommunication/src/Protocol.c ****     instance.num_bytes_awaited = 4;
 643:../HostCommunication/src/Protocol.c **** }
 644:../HostCommunication/src/Protocol.c **** 
 645:../HostCommunication/src/Protocol.c **** //============================================================================
 646:../HostCommunication/src/Protocol.c **** 
 647:../HostCommunication/src/Protocol.c **** static void receive_data(void)
 648:../HostCommunication/src/Protocol.c **** {
  27              	 .loc 1 648 0
  28              	 .cfi_startproc
  29              	 
  30              	 
  31 0000 30B5     	 push {r4,r5,lr}
  32              	.LCFI0:
  33              	 .cfi_def_cfa_offset 12
  34              	 .cfi_offset 4,-12
  35              	 .cfi_offset 5,-8
  36              	 .cfi_offset 14,-4
 649:../HostCommunication/src/Protocol.c ****     /* receive data from communication interface */
 650:../HostCommunication/src/Protocol.c ****     uint16_t num_received_bytes = com_get_data(instance.receive_pointer,
  37              	 .loc 1 650 0
  38 0002 174C     	 ldr r4,.L16
 648:../HostCommunication/src/Protocol.c ****     /* receive data from communication interface */
  39              	 .loc 1 648 0
  40 0004 83B0     	 sub sp,sp,#12
  41              	.LCFI1:
  42              	 .cfi_def_cfa_offset 24
  43              	 .loc 1 650 0
  44 0006 A189     	 ldrh r1,[r4,#12]
  45 0008 A068     	 ldr r0,[r4,#8]
  46 000a FFF7FEFF 	 bl com_get_data
  47              	.LVL0:
 651:../HostCommunication/src/Protocol.c ****                                                instance.num_bytes_awaited);
 652:../HostCommunication/src/Protocol.c ****     instance.receive_pointer += num_received_bytes;
  48              	 .loc 1 652 0
  49 000e A268     	 ldr r2,[r4,#8]
 653:../HostCommunication/src/Protocol.c ****     instance.num_bytes_awaited -= num_received_bytes;
  50              	 .loc 1 653 0
  51 0010 A389     	 ldrh r3,[r4,#12]
 654:../HostCommunication/src/Protocol.c **** 
 655:../HostCommunication/src/Protocol.c ****     /* check for timeout */
 656:../HostCommunication/src/Protocol.c ****     if (instance.get_time != NULL)
  52              	 .loc 1 656 0
  53 0012 216A     	 ldr r1,[r4,#32]
 652:../HostCommunication/src/Protocol.c ****     instance.num_bytes_awaited -= num_received_bytes;
  54              	 .loc 1 652 0
  55 0014 0244     	 add r2,r2,r0
 653:../HostCommunication/src/Protocol.c ****     instance.num_bytes_awaited -= num_received_bytes;
  56              	 .loc 1 653 0
  57 0016 1B1A     	 subs r3,r3,r0
 650:../HostCommunication/src/Protocol.c ****                                                instance.num_bytes_awaited);
  58              	 .loc 1 650 0
  59 0018 0546     	 mov r5,r0
  60              	.LVL1:
 652:../HostCommunication/src/Protocol.c ****     instance.num_bytes_awaited -= num_received_bytes;
  61              	 .loc 1 652 0
  62 001a A260     	 str r2,[r4,#8]
 653:../HostCommunication/src/Protocol.c **** 
  63              	 .loc 1 653 0
  64 001c A381     	 strh r3,[r4,#12]
  65              	 .loc 1 656 0
  66 001e E9B1     	 cbz r1,.L1
  67              	.LBB96:
 657:../HostCommunication/src/Protocol.c ****     {
 658:../HostCommunication/src/Protocol.c ****         /* get current time */
 659:../HostCommunication/src/Protocol.c ****         uint32_t current_time = instance.get_time();
  68              	 .loc 1 659 0
  69 0020 8847     	 blx r1
  70              	.LVL2:
 660:../HostCommunication/src/Protocol.c **** 
 661:../HostCommunication/src/Protocol.c ****         /* if no data has been received, check the time since last received
 662:../HostCommunication/src/Protocol.c ****          * bytes
 663:../HostCommunication/src/Protocol.c ****          */
 664:../HostCommunication/src/Protocol.c ****         if (num_received_bytes == 0)
  71              	 .loc 1 664 0
  72 0022 D5B9     	 cbnz r5,.L4
 665:../HostCommunication/src/Protocol.c ****         {
 666:../HostCommunication/src/Protocol.c ****         	if (instance.time_of_last_byte > current_time)
  73              	 .loc 1 666 0
  74 0024 2369     	 ldr r3,[r4,#16]
  75 0026 9842     	 cmp r0,r3
  76 0028 17D3     	 bcc .L4
 667:../HostCommunication/src/Protocol.c ****         	{
 668:../HostCommunication/src/Protocol.c ****         		/* Handle time wrap-around */
 669:../HostCommunication/src/Protocol.c ****         		instance.time_of_last_byte = current_time;
 670:../HostCommunication/src/Protocol.c ****         	}
 671:../HostCommunication/src/Protocol.c ****         	else {
 672:../HostCommunication/src/Protocol.c **** 
 673:../HostCommunication/src/Protocol.c **** 				if ((instance.state != PROTOCOL_STATE_IDLE) &&
  77              	 .loc 1 673 0
  78 002a 6179     	 ldrb r1,[r4,#5]
  79 002c B1B1     	 cbz r1,.L1
 674:../HostCommunication/src/Protocol.c **** 					(current_time >= instance.time_of_last_byte +
  80              	 .loc 1 674 0 discriminator 1
  81 002e 626A     	 ldr r2,[r4,#36]
  82 0030 1344     	 add r3,r3,r2
 673:../HostCommunication/src/Protocol.c **** 					(current_time >= instance.time_of_last_byte +
  83              	 .loc 1 673 0 discriminator 1
  84 0032 9842     	 cmp r0,r3
  85 0034 12D3     	 bcc .L1
 675:../HostCommunication/src/Protocol.c **** 									 instance.timeout_interval))
 676:../HostCommunication/src/Protocol.c **** 				{
 677:../HostCommunication/src/Protocol.c **** 					/* a timeout has occurred, reset protocol state */
 678:../HostCommunication/src/Protocol.c **** 					if (instance.state != PROTOCOL_STATE_CONFUSED)
  86              	 .loc 1 678 0
  87 0036 0429     	 cmp r1,#4
  88 0038 08D0     	 beq .L7
  89              	.LVL3:
  90              	.LBB97:
  91              	.LBB98:
  92              	.LBB99:
  93              	.LBB100:
  94              	 .file 2 "C:/Users/Utente/Desktop/Tesi/Firmware_Software/DAVE project/S2GLP_Pulsed_Doppler/HostCommunication/inc/PayloadHelper.h"
   1:C:/Users/Utente/Desktop/Tesi/Firmware_Software/DAVE project/S2GLP_Pulsed_Doppler/HostCommunication/inc\PayloadHelper.h **** /**
   2:C:/Users/Utente/Desktop/Tesi/Firmware_Software/DAVE project/S2GLP_Pulsed_Doppler/HostCommunication/inc\PayloadHelper.h ****  * \file PayloadHelper.h
   3:C:/Users/Utente/Desktop/Tesi/Firmware_Software/DAVE project/S2GLP_Pulsed_Doppler/HostCommunication/inc\PayloadHelper.h ****  *
   4:C:/Users/Utente/Desktop/Tesi/Firmware_Software/DAVE project/S2GLP_Pulsed_Doppler/HostCommunication/inc\PayloadHelper.h ****  * \brief This file defines an internal protocol API to be used by endpoint
   5:C:/Users/Utente/Desktop/Tesi/Firmware_Software/DAVE project/S2GLP_Pulsed_Doppler/HostCommunication/inc\PayloadHelper.h ****  *        implementations.
   6:C:/Users/Utente/Desktop/Tesi/Firmware_Software/DAVE project/S2GLP_Pulsed_Doppler/HostCommunication/inc\PayloadHelper.h ****  *
   7:C:/Users/Utente/Desktop/Tesi/Firmware_Software/DAVE project/S2GLP_Pulsed_Doppler/HostCommunication/inc\PayloadHelper.h ****  * This file defines some light weight function that help to access data in
   8:C:/Users/Utente/Desktop/Tesi/Firmware_Software/DAVE project/S2GLP_Pulsed_Doppler/HostCommunication/inc\PayloadHelper.h ****  * protocol payload. Different implementation allow to adapt to the
   9:C:/Users/Utente/Desktop/Tesi/Firmware_Software/DAVE project/S2GLP_Pulsed_Doppler/HostCommunication/inc\PayloadHelper.h ****  * capabilities of the target machine. Special implementations can be chosen
  10:C:/Users/Utente/Desktop/Tesi/Firmware_Software/DAVE project/S2GLP_Pulsed_Doppler/HostCommunication/inc\PayloadHelper.h ****  * by defining the according compile time switch. If none of the available
  11:C:/Users/Utente/Desktop/Tesi/Firmware_Software/DAVE project/S2GLP_Pulsed_Doppler/HostCommunication/inc\PayloadHelper.h ****  * compile time switches is chosen, the default implementation will be used.
  12:C:/Users/Utente/Desktop/Tesi/Firmware_Software/DAVE project/S2GLP_Pulsed_Doppler/HostCommunication/inc\PayloadHelper.h ****  *
  13:C:/Users/Utente/Desktop/Tesi/Firmware_Software/DAVE project/S2GLP_Pulsed_Doppler/HostCommunication/inc\PayloadHelper.h ****  * The default implementation is safe on all target machines and can handle
  14:C:/Users/Utente/Desktop/Tesi/Firmware_Software/DAVE project/S2GLP_Pulsed_Doppler/HostCommunication/inc\PayloadHelper.h ****  * both, big endian CPUs and little endian CPUs. It may be slower than other
  15:C:/Users/Utente/Desktop/Tesi/Firmware_Software/DAVE project/S2GLP_Pulsed_Doppler/HostCommunication/inc\PayloadHelper.h ****  * special implementations.
  16:C:/Users/Utente/Desktop/Tesi/Firmware_Software/DAVE project/S2GLP_Pulsed_Doppler/HostCommunication/inc\PayloadHelper.h ****  *
  17:C:/Users/Utente/Desktop/Tesi/Firmware_Software/DAVE project/S2GLP_Pulsed_Doppler/HostCommunication/inc\PayloadHelper.h ****  * If the compile time switch COMLIB_ALLOW_PAYLOAD_CASTS is set, a special
  18:C:/Users/Utente/Desktop/Tesi/Firmware_Software/DAVE project/S2GLP_Pulsed_Doppler/HostCommunication/inc\PayloadHelper.h ****  * implementation for little endian machines is used, that can access data
  19:C:/Users/Utente/Desktop/Tesi/Firmware_Software/DAVE project/S2GLP_Pulsed_Doppler/HostCommunication/inc\PayloadHelper.h ****  * faster by casting data to the right data type. This implementation works
  20:C:/Users/Utente/Desktop/Tesi/Firmware_Software/DAVE project/S2GLP_Pulsed_Doppler/HostCommunication/inc\PayloadHelper.h ****  * only for CPUs that have no alignment requirement for 16 bit and 32 bit
  21:C:/Users/Utente/Desktop/Tesi/Firmware_Software/DAVE project/S2GLP_Pulsed_Doppler/HostCommunication/inc\PayloadHelper.h ****  * integers.
  22:C:/Users/Utente/Desktop/Tesi/Firmware_Software/DAVE project/S2GLP_Pulsed_Doppler/HostCommunication/inc\PayloadHelper.h ****  */
  23:C:/Users/Utente/Desktop/Tesi/Firmware_Software/DAVE project/S2GLP_Pulsed_Doppler/HostCommunication/inc\PayloadHelper.h **** 
  24:C:/Users/Utente/Desktop/Tesi/Firmware_Software/DAVE project/S2GLP_Pulsed_Doppler/HostCommunication/inc\PayloadHelper.h **** /* ===========================================================================
  25:C:/Users/Utente/Desktop/Tesi/Firmware_Software/DAVE project/S2GLP_Pulsed_Doppler/HostCommunication/inc\PayloadHelper.h **** ** Copyright (C) 2016-2021 Infineon Technologies AG
  26:C:/Users/Utente/Desktop/Tesi/Firmware_Software/DAVE project/S2GLP_Pulsed_Doppler/HostCommunication/inc\PayloadHelper.h **** ** All rights reserved.
  27:C:/Users/Utente/Desktop/Tesi/Firmware_Software/DAVE project/S2GLP_Pulsed_Doppler/HostCommunication/inc\PayloadHelper.h **** ** ===========================================================================
  28:C:/Users/Utente/Desktop/Tesi/Firmware_Software/DAVE project/S2GLP_Pulsed_Doppler/HostCommunication/inc\PayloadHelper.h **** **
  29:C:/Users/Utente/Desktop/Tesi/Firmware_Software/DAVE project/S2GLP_Pulsed_Doppler/HostCommunication/inc\PayloadHelper.h **** ** ===========================================================================
  30:C:/Users/Utente/Desktop/Tesi/Firmware_Software/DAVE project/S2GLP_Pulsed_Doppler/HostCommunication/inc\PayloadHelper.h **** ** This document contains proprietary information of Infineon Technologies AG.
  31:C:/Users/Utente/Desktop/Tesi/Firmware_Software/DAVE project/S2GLP_Pulsed_Doppler/HostCommunication/inc\PayloadHelper.h **** ** Passing on and copying of this document, and communication of its contents
  32:C:/Users/Utente/Desktop/Tesi/Firmware_Software/DAVE project/S2GLP_Pulsed_Doppler/HostCommunication/inc\PayloadHelper.h **** ** is not permitted without Infineon's prior written authorisation.
  33:C:/Users/Utente/Desktop/Tesi/Firmware_Software/DAVE project/S2GLP_Pulsed_Doppler/HostCommunication/inc\PayloadHelper.h **** ** ===========================================================================
  34:C:/Users/Utente/Desktop/Tesi/Firmware_Software/DAVE project/S2GLP_Pulsed_Doppler/HostCommunication/inc\PayloadHelper.h **** */
  35:C:/Users/Utente/Desktop/Tesi/Firmware_Software/DAVE project/S2GLP_Pulsed_Doppler/HostCommunication/inc\PayloadHelper.h **** 
  36:C:/Users/Utente/Desktop/Tesi/Firmware_Software/DAVE project/S2GLP_Pulsed_Doppler/HostCommunication/inc\PayloadHelper.h **** #ifndef HOSTCOMMUNICATION_PAYLOAD_HELPER_H_
  37:C:/Users/Utente/Desktop/Tesi/Firmware_Software/DAVE project/S2GLP_Pulsed_Doppler/HostCommunication/inc\PayloadHelper.h **** #define HOSTCOMMUNICATION_PAYLOAD_HELPER_H_
  38:C:/Users/Utente/Desktop/Tesi/Firmware_Software/DAVE project/S2GLP_Pulsed_Doppler/HostCommunication/inc\PayloadHelper.h **** 
  39:C:/Users/Utente/Desktop/Tesi/Firmware_Software/DAVE project/S2GLP_Pulsed_Doppler/HostCommunication/inc\PayloadHelper.h **** /*
  40:C:/Users/Utente/Desktop/Tesi/Firmware_Software/DAVE project/S2GLP_Pulsed_Doppler/HostCommunication/inc\PayloadHelper.h **** ==============================================================================
  41:C:/Users/Utente/Desktop/Tesi/Firmware_Software/DAVE project/S2GLP_Pulsed_Doppler/HostCommunication/inc\PayloadHelper.h ****    1. INCLUDE FILES
  42:C:/Users/Utente/Desktop/Tesi/Firmware_Software/DAVE project/S2GLP_Pulsed_Doppler/HostCommunication/inc\PayloadHelper.h **** ==============================================================================
  43:C:/Users/Utente/Desktop/Tesi/Firmware_Software/DAVE project/S2GLP_Pulsed_Doppler/HostCommunication/inc\PayloadHelper.h ****  */
  44:C:/Users/Utente/Desktop/Tesi/Firmware_Software/DAVE project/S2GLP_Pulsed_Doppler/HostCommunication/inc\PayloadHelper.h **** #include <stdint.h>
  45:C:/Users/Utente/Desktop/Tesi/Firmware_Software/DAVE project/S2GLP_Pulsed_Doppler/HostCommunication/inc\PayloadHelper.h **** #include <stdlib.h>
  46:C:/Users/Utente/Desktop/Tesi/Firmware_Software/DAVE project/S2GLP_Pulsed_Doppler/HostCommunication/inc\PayloadHelper.h **** 
  47:C:/Users/Utente/Desktop/Tesi/Firmware_Software/DAVE project/S2GLP_Pulsed_Doppler/HostCommunication/inc\PayloadHelper.h **** 
  48:C:/Users/Utente/Desktop/Tesi/Firmware_Software/DAVE project/S2GLP_Pulsed_Doppler/HostCommunication/inc\PayloadHelper.h **** #if !defined(STATIC_ASSERT)
  49:C:/Users/Utente/Desktop/Tesi/Firmware_Software/DAVE project/S2GLP_Pulsed_Doppler/HostCommunication/inc\PayloadHelper.h **** #define STATIC_ASSERT(test_for_true) _Static_assert((test_for_true), "(" #test_for_true ") failed")
  50:C:/Users/Utente/Desktop/Tesi/Firmware_Software/DAVE project/S2GLP_Pulsed_Doppler/HostCommunication/inc\PayloadHelper.h **** #endif
  51:C:/Users/Utente/Desktop/Tesi/Firmware_Software/DAVE project/S2GLP_Pulsed_Doppler/HostCommunication/inc\PayloadHelper.h **** 
  52:C:/Users/Utente/Desktop/Tesi/Firmware_Software/DAVE project/S2GLP_Pulsed_Doppler/HostCommunication/inc\PayloadHelper.h **** /*
  53:C:/Users/Utente/Desktop/Tesi/Firmware_Software/DAVE project/S2GLP_Pulsed_Doppler/HostCommunication/inc\PayloadHelper.h **** ==============================================================================
  54:C:/Users/Utente/Desktop/Tesi/Firmware_Software/DAVE project/S2GLP_Pulsed_Doppler/HostCommunication/inc\PayloadHelper.h ****    2. FUNCTION PROTOTYPES AND INLINE FUNCTIONS
  55:C:/Users/Utente/Desktop/Tesi/Firmware_Software/DAVE project/S2GLP_Pulsed_Doppler/HostCommunication/inc\PayloadHelper.h **** ==============================================================================
  56:C:/Users/Utente/Desktop/Tesi/Firmware_Software/DAVE project/S2GLP_Pulsed_Doppler/HostCommunication/inc\PayloadHelper.h ****  */
  57:C:/Users/Utente/Desktop/Tesi/Firmware_Software/DAVE project/S2GLP_Pulsed_Doppler/HostCommunication/inc\PayloadHelper.h **** 
  58:C:/Users/Utente/Desktop/Tesi/Firmware_Software/DAVE project/S2GLP_Pulsed_Doppler/HostCommunication/inc\PayloadHelper.h **** /**
  59:C:/Users/Utente/Desktop/Tesi/Firmware_Software/DAVE project/S2GLP_Pulsed_Doppler/HostCommunication/inc\PayloadHelper.h ****  * \internal
  60:C:/Users/Utente/Desktop/Tesi/Firmware_Software/DAVE project/S2GLP_Pulsed_Doppler/HostCommunication/inc\PayloadHelper.h ****  * \brief The function extracts a signed 8 bit integer from a payload buffer.
  61:C:/Users/Utente/Desktop/Tesi/Firmware_Software/DAVE project/S2GLP_Pulsed_Doppler/HostCommunication/inc\PayloadHelper.h ****  *
  62:C:/Users/Utente/Desktop/Tesi/Firmware_Software/DAVE project/S2GLP_Pulsed_Doppler/HostCommunication/inc\PayloadHelper.h ****  * The function reads one byte from the given payload buffer at the requested
  63:C:/Users/Utente/Desktop/Tesi/Firmware_Software/DAVE project/S2GLP_Pulsed_Doppler/HostCommunication/inc\PayloadHelper.h ****  * position and interprets it as a signed 8 bit integer value, which will be
  64:C:/Users/Utente/Desktop/Tesi/Firmware_Software/DAVE project/S2GLP_Pulsed_Doppler/HostCommunication/inc\PayloadHelper.h ****  * returned.
  65:C:/Users/Utente/Desktop/Tesi/Firmware_Software/DAVE project/S2GLP_Pulsed_Doppler/HostCommunication/inc\PayloadHelper.h ****  *
  66:C:/Users/Utente/Desktop/Tesi/Firmware_Software/DAVE project/S2GLP_Pulsed_Doppler/HostCommunication/inc\PayloadHelper.h ****  * \param[in] payload  A pointer to a block of payload data.
  67:C:/Users/Utente/Desktop/Tesi/Firmware_Software/DAVE project/S2GLP_Pulsed_Doppler/HostCommunication/inc\PayloadHelper.h ****  * \param[in] offset   The byte position at which the requested data value
  68:C:/Users/Utente/Desktop/Tesi/Firmware_Software/DAVE project/S2GLP_Pulsed_Doppler/HostCommunication/inc\PayloadHelper.h ****  *                     starts.
  69:C:/Users/Utente/Desktop/Tesi/Firmware_Software/DAVE project/S2GLP_Pulsed_Doppler/HostCommunication/inc\PayloadHelper.h ****  *
  70:C:/Users/Utente/Desktop/Tesi/Firmware_Software/DAVE project/S2GLP_Pulsed_Doppler/HostCommunication/inc\PayloadHelper.h ****  * \return The function returns the value read from the payload.
  71:C:/Users/Utente/Desktop/Tesi/Firmware_Software/DAVE project/S2GLP_Pulsed_Doppler/HostCommunication/inc\PayloadHelper.h ****  */
  72:C:/Users/Utente/Desktop/Tesi/Firmware_Software/DAVE project/S2GLP_Pulsed_Doppler/HostCommunication/inc\PayloadHelper.h **** static inline int8_t rd_payload_i8(const uint8_t* payload, size_t offset)
  73:C:/Users/Utente/Desktop/Tesi/Firmware_Software/DAVE project/S2GLP_Pulsed_Doppler/HostCommunication/inc\PayloadHelper.h **** {
  74:C:/Users/Utente/Desktop/Tesi/Firmware_Software/DAVE project/S2GLP_Pulsed_Doppler/HostCommunication/inc\PayloadHelper.h ****     return (int8_t)payload[offset];
  75:C:/Users/Utente/Desktop/Tesi/Firmware_Software/DAVE project/S2GLP_Pulsed_Doppler/HostCommunication/inc\PayloadHelper.h **** }
  76:C:/Users/Utente/Desktop/Tesi/Firmware_Software/DAVE project/S2GLP_Pulsed_Doppler/HostCommunication/inc\PayloadHelper.h **** 
  77:C:/Users/Utente/Desktop/Tesi/Firmware_Software/DAVE project/S2GLP_Pulsed_Doppler/HostCommunication/inc\PayloadHelper.h **** /**
  78:C:/Users/Utente/Desktop/Tesi/Firmware_Software/DAVE project/S2GLP_Pulsed_Doppler/HostCommunication/inc\PayloadHelper.h ****  * \internal
  79:C:/Users/Utente/Desktop/Tesi/Firmware_Software/DAVE project/S2GLP_Pulsed_Doppler/HostCommunication/inc\PayloadHelper.h ****  * \brief The function extracts an unsigned 8 bit integer from a payload
  80:C:/Users/Utente/Desktop/Tesi/Firmware_Software/DAVE project/S2GLP_Pulsed_Doppler/HostCommunication/inc\PayloadHelper.h ****  *        buffer.
  81:C:/Users/Utente/Desktop/Tesi/Firmware_Software/DAVE project/S2GLP_Pulsed_Doppler/HostCommunication/inc\PayloadHelper.h ****  *
  82:C:/Users/Utente/Desktop/Tesi/Firmware_Software/DAVE project/S2GLP_Pulsed_Doppler/HostCommunication/inc\PayloadHelper.h ****  * The function reads one byte from the given payload buffer at the requested
  83:C:/Users/Utente/Desktop/Tesi/Firmware_Software/DAVE project/S2GLP_Pulsed_Doppler/HostCommunication/inc\PayloadHelper.h ****  * position and interprets it as an unsigned 8 bit integer value, which will
  84:C:/Users/Utente/Desktop/Tesi/Firmware_Software/DAVE project/S2GLP_Pulsed_Doppler/HostCommunication/inc\PayloadHelper.h ****  * be returned.
  85:C:/Users/Utente/Desktop/Tesi/Firmware_Software/DAVE project/S2GLP_Pulsed_Doppler/HostCommunication/inc\PayloadHelper.h ****  *
  86:C:/Users/Utente/Desktop/Tesi/Firmware_Software/DAVE project/S2GLP_Pulsed_Doppler/HostCommunication/inc\PayloadHelper.h ****  * \param[in] payload  A pointer to a block of payload data.
  87:C:/Users/Utente/Desktop/Tesi/Firmware_Software/DAVE project/S2GLP_Pulsed_Doppler/HostCommunication/inc\PayloadHelper.h ****  * \param[in] offset   The byte position at which the requested data value
  88:C:/Users/Utente/Desktop/Tesi/Firmware_Software/DAVE project/S2GLP_Pulsed_Doppler/HostCommunication/inc\PayloadHelper.h ****  *                     starts.
  89:C:/Users/Utente/Desktop/Tesi/Firmware_Software/DAVE project/S2GLP_Pulsed_Doppler/HostCommunication/inc\PayloadHelper.h ****  *
  90:C:/Users/Utente/Desktop/Tesi/Firmware_Software/DAVE project/S2GLP_Pulsed_Doppler/HostCommunication/inc\PayloadHelper.h ****  * \return The function returns the value read from the payload.
  91:C:/Users/Utente/Desktop/Tesi/Firmware_Software/DAVE project/S2GLP_Pulsed_Doppler/HostCommunication/inc\PayloadHelper.h ****  */
  92:C:/Users/Utente/Desktop/Tesi/Firmware_Software/DAVE project/S2GLP_Pulsed_Doppler/HostCommunication/inc\PayloadHelper.h **** static inline uint8_t rd_payload_u8(const uint8_t* payload, size_t offset)
  93:C:/Users/Utente/Desktop/Tesi/Firmware_Software/DAVE project/S2GLP_Pulsed_Doppler/HostCommunication/inc\PayloadHelper.h **** {
  94:C:/Users/Utente/Desktop/Tesi/Firmware_Software/DAVE project/S2GLP_Pulsed_Doppler/HostCommunication/inc\PayloadHelper.h ****     return payload[offset];
  95:C:/Users/Utente/Desktop/Tesi/Firmware_Software/DAVE project/S2GLP_Pulsed_Doppler/HostCommunication/inc\PayloadHelper.h **** }
  96:C:/Users/Utente/Desktop/Tesi/Firmware_Software/DAVE project/S2GLP_Pulsed_Doppler/HostCommunication/inc\PayloadHelper.h **** 
  97:C:/Users/Utente/Desktop/Tesi/Firmware_Software/DAVE project/S2GLP_Pulsed_Doppler/HostCommunication/inc\PayloadHelper.h **** /**
  98:C:/Users/Utente/Desktop/Tesi/Firmware_Software/DAVE project/S2GLP_Pulsed_Doppler/HostCommunication/inc\PayloadHelper.h ****  * \internal
  99:C:/Users/Utente/Desktop/Tesi/Firmware_Software/DAVE project/S2GLP_Pulsed_Doppler/HostCommunication/inc\PayloadHelper.h ****  * \brief The function extracts a signed 16 bit integer from a payload buffer.
 100:C:/Users/Utente/Desktop/Tesi/Firmware_Software/DAVE project/S2GLP_Pulsed_Doppler/HostCommunication/inc\PayloadHelper.h ****  *
 101:C:/Users/Utente/Desktop/Tesi/Firmware_Software/DAVE project/S2GLP_Pulsed_Doppler/HostCommunication/inc\PayloadHelper.h ****  * The function reads two bytes from the given payload buffer starting at the
 102:C:/Users/Utente/Desktop/Tesi/Firmware_Software/DAVE project/S2GLP_Pulsed_Doppler/HostCommunication/inc\PayloadHelper.h ****  * requested position and interprets them as a signed 16 bit integer value,
 103:C:/Users/Utente/Desktop/Tesi/Firmware_Software/DAVE project/S2GLP_Pulsed_Doppler/HostCommunication/inc\PayloadHelper.h ****  * which will be returned. If needed the byte order is swapped to convert from
 104:C:/Users/Utente/Desktop/Tesi/Firmware_Software/DAVE project/S2GLP_Pulsed_Doppler/HostCommunication/inc\PayloadHelper.h ****  * the payload's little endian format to the CPU's endian format.
 105:C:/Users/Utente/Desktop/Tesi/Firmware_Software/DAVE project/S2GLP_Pulsed_Doppler/HostCommunication/inc\PayloadHelper.h ****  *
 106:C:/Users/Utente/Desktop/Tesi/Firmware_Software/DAVE project/S2GLP_Pulsed_Doppler/HostCommunication/inc\PayloadHelper.h ****  * \param[in] payload  A pointer to a block of payload data.
 107:C:/Users/Utente/Desktop/Tesi/Firmware_Software/DAVE project/S2GLP_Pulsed_Doppler/HostCommunication/inc\PayloadHelper.h ****  * \param[in] offset   The byte position at which the requested data value
 108:C:/Users/Utente/Desktop/Tesi/Firmware_Software/DAVE project/S2GLP_Pulsed_Doppler/HostCommunication/inc\PayloadHelper.h ****  *                     starts.
 109:C:/Users/Utente/Desktop/Tesi/Firmware_Software/DAVE project/S2GLP_Pulsed_Doppler/HostCommunication/inc\PayloadHelper.h ****  *
 110:C:/Users/Utente/Desktop/Tesi/Firmware_Software/DAVE project/S2GLP_Pulsed_Doppler/HostCommunication/inc\PayloadHelper.h ****  * \return The function returns the value read from the payload.
 111:C:/Users/Utente/Desktop/Tesi/Firmware_Software/DAVE project/S2GLP_Pulsed_Doppler/HostCommunication/inc\PayloadHelper.h ****  */
 112:C:/Users/Utente/Desktop/Tesi/Firmware_Software/DAVE project/S2GLP_Pulsed_Doppler/HostCommunication/inc\PayloadHelper.h **** static inline int16_t rd_payload_i16(const uint8_t* payload, size_t offset);
 113:C:/Users/Utente/Desktop/Tesi/Firmware_Software/DAVE project/S2GLP_Pulsed_Doppler/HostCommunication/inc\PayloadHelper.h **** 
 114:C:/Users/Utente/Desktop/Tesi/Firmware_Software/DAVE project/S2GLP_Pulsed_Doppler/HostCommunication/inc\PayloadHelper.h **** /**
 115:C:/Users/Utente/Desktop/Tesi/Firmware_Software/DAVE project/S2GLP_Pulsed_Doppler/HostCommunication/inc\PayloadHelper.h ****  * \internal
 116:C:/Users/Utente/Desktop/Tesi/Firmware_Software/DAVE project/S2GLP_Pulsed_Doppler/HostCommunication/inc\PayloadHelper.h ****  * \brief The function extracts an unsigned 16 bit integer from a payload
 117:C:/Users/Utente/Desktop/Tesi/Firmware_Software/DAVE project/S2GLP_Pulsed_Doppler/HostCommunication/inc\PayloadHelper.h ****  *        buffer.
 118:C:/Users/Utente/Desktop/Tesi/Firmware_Software/DAVE project/S2GLP_Pulsed_Doppler/HostCommunication/inc\PayloadHelper.h ****  *
 119:C:/Users/Utente/Desktop/Tesi/Firmware_Software/DAVE project/S2GLP_Pulsed_Doppler/HostCommunication/inc\PayloadHelper.h ****  * The function reads two bytes from the given payload buffer starting at the
 120:C:/Users/Utente/Desktop/Tesi/Firmware_Software/DAVE project/S2GLP_Pulsed_Doppler/HostCommunication/inc\PayloadHelper.h ****  * requested position and interprets them as an unsigned 16 bit integer value,
 121:C:/Users/Utente/Desktop/Tesi/Firmware_Software/DAVE project/S2GLP_Pulsed_Doppler/HostCommunication/inc\PayloadHelper.h ****  * which will be returned. If needed the byte order is swapped to convert from
 122:C:/Users/Utente/Desktop/Tesi/Firmware_Software/DAVE project/S2GLP_Pulsed_Doppler/HostCommunication/inc\PayloadHelper.h ****  * the payload's little endian format to the CPU's endian format.
 123:C:/Users/Utente/Desktop/Tesi/Firmware_Software/DAVE project/S2GLP_Pulsed_Doppler/HostCommunication/inc\PayloadHelper.h ****  *
 124:C:/Users/Utente/Desktop/Tesi/Firmware_Software/DAVE project/S2GLP_Pulsed_Doppler/HostCommunication/inc\PayloadHelper.h ****  * \param[in] payload  A pointer to a block of payload data.
 125:C:/Users/Utente/Desktop/Tesi/Firmware_Software/DAVE project/S2GLP_Pulsed_Doppler/HostCommunication/inc\PayloadHelper.h ****  * \param[in] offset   The byte position at which the requested data value
 126:C:/Users/Utente/Desktop/Tesi/Firmware_Software/DAVE project/S2GLP_Pulsed_Doppler/HostCommunication/inc\PayloadHelper.h ****  *                     starts.
 127:C:/Users/Utente/Desktop/Tesi/Firmware_Software/DAVE project/S2GLP_Pulsed_Doppler/HostCommunication/inc\PayloadHelper.h ****  *
 128:C:/Users/Utente/Desktop/Tesi/Firmware_Software/DAVE project/S2GLP_Pulsed_Doppler/HostCommunication/inc\PayloadHelper.h ****  * \return The function returns the value read from the payload.
 129:C:/Users/Utente/Desktop/Tesi/Firmware_Software/DAVE project/S2GLP_Pulsed_Doppler/HostCommunication/inc\PayloadHelper.h ****  */
 130:C:/Users/Utente/Desktop/Tesi/Firmware_Software/DAVE project/S2GLP_Pulsed_Doppler/HostCommunication/inc\PayloadHelper.h **** static inline uint16_t rd_payload_u16(const uint8_t* payload,
 131:C:/Users/Utente/Desktop/Tesi/Firmware_Software/DAVE project/S2GLP_Pulsed_Doppler/HostCommunication/inc\PayloadHelper.h **** 		size_t offset);
 132:C:/Users/Utente/Desktop/Tesi/Firmware_Software/DAVE project/S2GLP_Pulsed_Doppler/HostCommunication/inc\PayloadHelper.h **** 
 133:C:/Users/Utente/Desktop/Tesi/Firmware_Software/DAVE project/S2GLP_Pulsed_Doppler/HostCommunication/inc\PayloadHelper.h **** /**
 134:C:/Users/Utente/Desktop/Tesi/Firmware_Software/DAVE project/S2GLP_Pulsed_Doppler/HostCommunication/inc\PayloadHelper.h ****  * \internal
 135:C:/Users/Utente/Desktop/Tesi/Firmware_Software/DAVE project/S2GLP_Pulsed_Doppler/HostCommunication/inc\PayloadHelper.h ****  * \brief The function extracts a signed 32 bit integer from a payload buffer.
 136:C:/Users/Utente/Desktop/Tesi/Firmware_Software/DAVE project/S2GLP_Pulsed_Doppler/HostCommunication/inc\PayloadHelper.h ****  *
 137:C:/Users/Utente/Desktop/Tesi/Firmware_Software/DAVE project/S2GLP_Pulsed_Doppler/HostCommunication/inc\PayloadHelper.h ****  * The function reads four bytes from the given payload buffer starting at the
 138:C:/Users/Utente/Desktop/Tesi/Firmware_Software/DAVE project/S2GLP_Pulsed_Doppler/HostCommunication/inc\PayloadHelper.h ****  * requested position and interprets them as a signed 32 bit integer value,
 139:C:/Users/Utente/Desktop/Tesi/Firmware_Software/DAVE project/S2GLP_Pulsed_Doppler/HostCommunication/inc\PayloadHelper.h ****  * which will be returned. If needed the byte order is swapped to convert from
 140:C:/Users/Utente/Desktop/Tesi/Firmware_Software/DAVE project/S2GLP_Pulsed_Doppler/HostCommunication/inc\PayloadHelper.h ****  * the payload's little endian format to the CPU's endian format.
 141:C:/Users/Utente/Desktop/Tesi/Firmware_Software/DAVE project/S2GLP_Pulsed_Doppler/HostCommunication/inc\PayloadHelper.h ****  *
 142:C:/Users/Utente/Desktop/Tesi/Firmware_Software/DAVE project/S2GLP_Pulsed_Doppler/HostCommunication/inc\PayloadHelper.h ****  * \param[in] payload  A pointer to a block of payload data.
 143:C:/Users/Utente/Desktop/Tesi/Firmware_Software/DAVE project/S2GLP_Pulsed_Doppler/HostCommunication/inc\PayloadHelper.h ****  * \param[in] offset   The byte position at which the requested data value
 144:C:/Users/Utente/Desktop/Tesi/Firmware_Software/DAVE project/S2GLP_Pulsed_Doppler/HostCommunication/inc\PayloadHelper.h ****  *                     starts.
 145:C:/Users/Utente/Desktop/Tesi/Firmware_Software/DAVE project/S2GLP_Pulsed_Doppler/HostCommunication/inc\PayloadHelper.h ****  *
 146:C:/Users/Utente/Desktop/Tesi/Firmware_Software/DAVE project/S2GLP_Pulsed_Doppler/HostCommunication/inc\PayloadHelper.h ****  * \return The function returns the value read from the payload.
 147:C:/Users/Utente/Desktop/Tesi/Firmware_Software/DAVE project/S2GLP_Pulsed_Doppler/HostCommunication/inc\PayloadHelper.h ****  */
 148:C:/Users/Utente/Desktop/Tesi/Firmware_Software/DAVE project/S2GLP_Pulsed_Doppler/HostCommunication/inc\PayloadHelper.h **** static inline int32_t rd_payload_i32(const uint8_t* payload, size_t offset);
 149:C:/Users/Utente/Desktop/Tesi/Firmware_Software/DAVE project/S2GLP_Pulsed_Doppler/HostCommunication/inc\PayloadHelper.h **** 
 150:C:/Users/Utente/Desktop/Tesi/Firmware_Software/DAVE project/S2GLP_Pulsed_Doppler/HostCommunication/inc\PayloadHelper.h **** /**
 151:C:/Users/Utente/Desktop/Tesi/Firmware_Software/DAVE project/S2GLP_Pulsed_Doppler/HostCommunication/inc\PayloadHelper.h ****  * \internal
 152:C:/Users/Utente/Desktop/Tesi/Firmware_Software/DAVE project/S2GLP_Pulsed_Doppler/HostCommunication/inc\PayloadHelper.h ****  * \brief The function extracts an unsigned 32 bit integer from a payload
 153:C:/Users/Utente/Desktop/Tesi/Firmware_Software/DAVE project/S2GLP_Pulsed_Doppler/HostCommunication/inc\PayloadHelper.h ****  *        buffer.
 154:C:/Users/Utente/Desktop/Tesi/Firmware_Software/DAVE project/S2GLP_Pulsed_Doppler/HostCommunication/inc\PayloadHelper.h ****  *
 155:C:/Users/Utente/Desktop/Tesi/Firmware_Software/DAVE project/S2GLP_Pulsed_Doppler/HostCommunication/inc\PayloadHelper.h ****  * The function reads four bytes from the given payload buffer starting at the
 156:C:/Users/Utente/Desktop/Tesi/Firmware_Software/DAVE project/S2GLP_Pulsed_Doppler/HostCommunication/inc\PayloadHelper.h ****  * requested position and interprets them as an unsigned 32 bit integer value,
 157:C:/Users/Utente/Desktop/Tesi/Firmware_Software/DAVE project/S2GLP_Pulsed_Doppler/HostCommunication/inc\PayloadHelper.h ****  * which will be returned. If needed the byte order is swapped to convert from
 158:C:/Users/Utente/Desktop/Tesi/Firmware_Software/DAVE project/S2GLP_Pulsed_Doppler/HostCommunication/inc\PayloadHelper.h ****  * the payload's little endian format to the CPU's endian format.
 159:C:/Users/Utente/Desktop/Tesi/Firmware_Software/DAVE project/S2GLP_Pulsed_Doppler/HostCommunication/inc\PayloadHelper.h ****  *
 160:C:/Users/Utente/Desktop/Tesi/Firmware_Software/DAVE project/S2GLP_Pulsed_Doppler/HostCommunication/inc\PayloadHelper.h ****  * \param[in] payload  A pointer to a block of payload data.
 161:C:/Users/Utente/Desktop/Tesi/Firmware_Software/DAVE project/S2GLP_Pulsed_Doppler/HostCommunication/inc\PayloadHelper.h ****  * \param[in] offset   The byte position at which the requested data value
 162:C:/Users/Utente/Desktop/Tesi/Firmware_Software/DAVE project/S2GLP_Pulsed_Doppler/HostCommunication/inc\PayloadHelper.h ****  *                     starts.
 163:C:/Users/Utente/Desktop/Tesi/Firmware_Software/DAVE project/S2GLP_Pulsed_Doppler/HostCommunication/inc\PayloadHelper.h ****  *
 164:C:/Users/Utente/Desktop/Tesi/Firmware_Software/DAVE project/S2GLP_Pulsed_Doppler/HostCommunication/inc\PayloadHelper.h ****  * \return The function returns the value read from the payload.
 165:C:/Users/Utente/Desktop/Tesi/Firmware_Software/DAVE project/S2GLP_Pulsed_Doppler/HostCommunication/inc\PayloadHelper.h ****  */
 166:C:/Users/Utente/Desktop/Tesi/Firmware_Software/DAVE project/S2GLP_Pulsed_Doppler/HostCommunication/inc\PayloadHelper.h **** static inline uint32_t rd_payload_u32(const uint8_t* payload,
 167:C:/Users/Utente/Desktop/Tesi/Firmware_Software/DAVE project/S2GLP_Pulsed_Doppler/HostCommunication/inc\PayloadHelper.h **** 		size_t offset);
 168:C:/Users/Utente/Desktop/Tesi/Firmware_Software/DAVE project/S2GLP_Pulsed_Doppler/HostCommunication/inc\PayloadHelper.h **** 
 169:C:/Users/Utente/Desktop/Tesi/Firmware_Software/DAVE project/S2GLP_Pulsed_Doppler/HostCommunication/inc\PayloadHelper.h **** /**
 170:C:/Users/Utente/Desktop/Tesi/Firmware_Software/DAVE project/S2GLP_Pulsed_Doppler/HostCommunication/inc\PayloadHelper.h ****  * \internal
 171:C:/Users/Utente/Desktop/Tesi/Firmware_Software/DAVE project/S2GLP_Pulsed_Doppler/HostCommunication/inc\PayloadHelper.h ****  * \brief The function extracts a signed 64 bit integer from a payload buffer.
 172:C:/Users/Utente/Desktop/Tesi/Firmware_Software/DAVE project/S2GLP_Pulsed_Doppler/HostCommunication/inc\PayloadHelper.h ****  *
 173:C:/Users/Utente/Desktop/Tesi/Firmware_Software/DAVE project/S2GLP_Pulsed_Doppler/HostCommunication/inc\PayloadHelper.h ****  * The function reads four bytes from the given payload buffer starting at the
 174:C:/Users/Utente/Desktop/Tesi/Firmware_Software/DAVE project/S2GLP_Pulsed_Doppler/HostCommunication/inc\PayloadHelper.h ****  * requested position and interprets them as a signed 64 bit integer value,
 175:C:/Users/Utente/Desktop/Tesi/Firmware_Software/DAVE project/S2GLP_Pulsed_Doppler/HostCommunication/inc\PayloadHelper.h ****  * which will be returned. If needed the byte order is swapped to convert from
 176:C:/Users/Utente/Desktop/Tesi/Firmware_Software/DAVE project/S2GLP_Pulsed_Doppler/HostCommunication/inc\PayloadHelper.h ****  * the payload's little endian format to the CPU's endian format.
 177:C:/Users/Utente/Desktop/Tesi/Firmware_Software/DAVE project/S2GLP_Pulsed_Doppler/HostCommunication/inc\PayloadHelper.h ****  *
 178:C:/Users/Utente/Desktop/Tesi/Firmware_Software/DAVE project/S2GLP_Pulsed_Doppler/HostCommunication/inc\PayloadHelper.h ****  * \param[in] payload  A pointer to a block of payload data.
 179:C:/Users/Utente/Desktop/Tesi/Firmware_Software/DAVE project/S2GLP_Pulsed_Doppler/HostCommunication/inc\PayloadHelper.h ****  * \param[in] offset   The byte position at which the requested data value
 180:C:/Users/Utente/Desktop/Tesi/Firmware_Software/DAVE project/S2GLP_Pulsed_Doppler/HostCommunication/inc\PayloadHelper.h ****  *                     starts.
 181:C:/Users/Utente/Desktop/Tesi/Firmware_Software/DAVE project/S2GLP_Pulsed_Doppler/HostCommunication/inc\PayloadHelper.h ****  *
 182:C:/Users/Utente/Desktop/Tesi/Firmware_Software/DAVE project/S2GLP_Pulsed_Doppler/HostCommunication/inc\PayloadHelper.h ****  * \return The function returns the value read from the payload.
 183:C:/Users/Utente/Desktop/Tesi/Firmware_Software/DAVE project/S2GLP_Pulsed_Doppler/HostCommunication/inc\PayloadHelper.h ****  */
 184:C:/Users/Utente/Desktop/Tesi/Firmware_Software/DAVE project/S2GLP_Pulsed_Doppler/HostCommunication/inc\PayloadHelper.h **** static inline int64_t rd_payload_i64(const uint8_t* payload, size_t offset);
 185:C:/Users/Utente/Desktop/Tesi/Firmware_Software/DAVE project/S2GLP_Pulsed_Doppler/HostCommunication/inc\PayloadHelper.h **** 
 186:C:/Users/Utente/Desktop/Tesi/Firmware_Software/DAVE project/S2GLP_Pulsed_Doppler/HostCommunication/inc\PayloadHelper.h **** /**
 187:C:/Users/Utente/Desktop/Tesi/Firmware_Software/DAVE project/S2GLP_Pulsed_Doppler/HostCommunication/inc\PayloadHelper.h ****  * \internal
 188:C:/Users/Utente/Desktop/Tesi/Firmware_Software/DAVE project/S2GLP_Pulsed_Doppler/HostCommunication/inc\PayloadHelper.h ****  * \brief The function extracts an unsigned 64 bit integer from a payload
 189:C:/Users/Utente/Desktop/Tesi/Firmware_Software/DAVE project/S2GLP_Pulsed_Doppler/HostCommunication/inc\PayloadHelper.h ****  *        buffer.
 190:C:/Users/Utente/Desktop/Tesi/Firmware_Software/DAVE project/S2GLP_Pulsed_Doppler/HostCommunication/inc\PayloadHelper.h ****  *
 191:C:/Users/Utente/Desktop/Tesi/Firmware_Software/DAVE project/S2GLP_Pulsed_Doppler/HostCommunication/inc\PayloadHelper.h ****  * The function reads four bytes from the given payload buffer starting at the
 192:C:/Users/Utente/Desktop/Tesi/Firmware_Software/DAVE project/S2GLP_Pulsed_Doppler/HostCommunication/inc\PayloadHelper.h ****  * requested position and interprets them as an unsigned 64 bit integer value,
 193:C:/Users/Utente/Desktop/Tesi/Firmware_Software/DAVE project/S2GLP_Pulsed_Doppler/HostCommunication/inc\PayloadHelper.h ****  * which will be returned. If needed the byte order is swapped to convert from
 194:C:/Users/Utente/Desktop/Tesi/Firmware_Software/DAVE project/S2GLP_Pulsed_Doppler/HostCommunication/inc\PayloadHelper.h ****  * the payload's little endian format to the CPU's endian format.
 195:C:/Users/Utente/Desktop/Tesi/Firmware_Software/DAVE project/S2GLP_Pulsed_Doppler/HostCommunication/inc\PayloadHelper.h ****  *
 196:C:/Users/Utente/Desktop/Tesi/Firmware_Software/DAVE project/S2GLP_Pulsed_Doppler/HostCommunication/inc\PayloadHelper.h ****  * \param[in] payload  A pointer to a block of payload data.
 197:C:/Users/Utente/Desktop/Tesi/Firmware_Software/DAVE project/S2GLP_Pulsed_Doppler/HostCommunication/inc\PayloadHelper.h ****  * \param[in] offset   The byte position at which the requested data value
 198:C:/Users/Utente/Desktop/Tesi/Firmware_Software/DAVE project/S2GLP_Pulsed_Doppler/HostCommunication/inc\PayloadHelper.h ****  *                     starts.
 199:C:/Users/Utente/Desktop/Tesi/Firmware_Software/DAVE project/S2GLP_Pulsed_Doppler/HostCommunication/inc\PayloadHelper.h ****  *
 200:C:/Users/Utente/Desktop/Tesi/Firmware_Software/DAVE project/S2GLP_Pulsed_Doppler/HostCommunication/inc\PayloadHelper.h ****  * \return The function returns the value read from the payload.
 201:C:/Users/Utente/Desktop/Tesi/Firmware_Software/DAVE project/S2GLP_Pulsed_Doppler/HostCommunication/inc\PayloadHelper.h ****  */
 202:C:/Users/Utente/Desktop/Tesi/Firmware_Software/DAVE project/S2GLP_Pulsed_Doppler/HostCommunication/inc\PayloadHelper.h **** static inline uint64_t rd_payload_u64(const uint8_t* payload,
 203:C:/Users/Utente/Desktop/Tesi/Firmware_Software/DAVE project/S2GLP_Pulsed_Doppler/HostCommunication/inc\PayloadHelper.h **** 		size_t offset);
 204:C:/Users/Utente/Desktop/Tesi/Firmware_Software/DAVE project/S2GLP_Pulsed_Doppler/HostCommunication/inc\PayloadHelper.h **** 
 205:C:/Users/Utente/Desktop/Tesi/Firmware_Software/DAVE project/S2GLP_Pulsed_Doppler/HostCommunication/inc\PayloadHelper.h **** /**
 206:C:/Users/Utente/Desktop/Tesi/Firmware_Software/DAVE project/S2GLP_Pulsed_Doppler/HostCommunication/inc\PayloadHelper.h ****  * \internal
 207:C:/Users/Utente/Desktop/Tesi/Firmware_Software/DAVE project/S2GLP_Pulsed_Doppler/HostCommunication/inc\PayloadHelper.h ****  * \brief The function writes a signed 8 bit integer value to a payload
 208:C:/Users/Utente/Desktop/Tesi/Firmware_Software/DAVE project/S2GLP_Pulsed_Doppler/HostCommunication/inc\PayloadHelper.h ****  *        buffer.
 209:C:/Users/Utente/Desktop/Tesi/Firmware_Software/DAVE project/S2GLP_Pulsed_Doppler/HostCommunication/inc\PayloadHelper.h ****  *
 210:C:/Users/Utente/Desktop/Tesi/Firmware_Software/DAVE project/S2GLP_Pulsed_Doppler/HostCommunication/inc\PayloadHelper.h ****  * The function writes the given value into the given payload buffer at the
 211:C:/Users/Utente/Desktop/Tesi/Firmware_Software/DAVE project/S2GLP_Pulsed_Doppler/HostCommunication/inc\PayloadHelper.h ****  * requested position.
 212:C:/Users/Utente/Desktop/Tesi/Firmware_Software/DAVE project/S2GLP_Pulsed_Doppler/HostCommunication/inc\PayloadHelper.h ****  *
 213:C:/Users/Utente/Desktop/Tesi/Firmware_Software/DAVE project/S2GLP_Pulsed_Doppler/HostCommunication/inc\PayloadHelper.h ****  * \param[in] payload  A pointer to a block of payload data.
 214:C:/Users/Utente/Desktop/Tesi/Firmware_Software/DAVE project/S2GLP_Pulsed_Doppler/HostCommunication/inc\PayloadHelper.h ****  * \param[in] offset   The byte position at which the value will be written
 215:C:/Users/Utente/Desktop/Tesi/Firmware_Software/DAVE project/S2GLP_Pulsed_Doppler/HostCommunication/inc\PayloadHelper.h ****  *                     to.
 216:C:/Users/Utente/Desktop/Tesi/Firmware_Software/DAVE project/S2GLP_Pulsed_Doppler/HostCommunication/inc\PayloadHelper.h ****  * \param[in] value    The value to be written into the payload buffer.
 217:C:/Users/Utente/Desktop/Tesi/Firmware_Software/DAVE project/S2GLP_Pulsed_Doppler/HostCommunication/inc\PayloadHelper.h ****  */
 218:C:/Users/Utente/Desktop/Tesi/Firmware_Software/DAVE project/S2GLP_Pulsed_Doppler/HostCommunication/inc\PayloadHelper.h **** static inline size_t wr_payload_i8(uint8_t* payload, size_t offset,
 219:C:/Users/Utente/Desktop/Tesi/Firmware_Software/DAVE project/S2GLP_Pulsed_Doppler/HostCommunication/inc\PayloadHelper.h ****                                  int8_t value)
 220:C:/Users/Utente/Desktop/Tesi/Firmware_Software/DAVE project/S2GLP_Pulsed_Doppler/HostCommunication/inc\PayloadHelper.h **** {
 221:C:/Users/Utente/Desktop/Tesi/Firmware_Software/DAVE project/S2GLP_Pulsed_Doppler/HostCommunication/inc\PayloadHelper.h ****     payload[offset] = (uint8_t)value;
 222:C:/Users/Utente/Desktop/Tesi/Firmware_Software/DAVE project/S2GLP_Pulsed_Doppler/HostCommunication/inc\PayloadHelper.h ****     return sizeof(int8_t);
 223:C:/Users/Utente/Desktop/Tesi/Firmware_Software/DAVE project/S2GLP_Pulsed_Doppler/HostCommunication/inc\PayloadHelper.h **** }
 224:C:/Users/Utente/Desktop/Tesi/Firmware_Software/DAVE project/S2GLP_Pulsed_Doppler/HostCommunication/inc\PayloadHelper.h **** 
 225:C:/Users/Utente/Desktop/Tesi/Firmware_Software/DAVE project/S2GLP_Pulsed_Doppler/HostCommunication/inc\PayloadHelper.h **** /**
 226:C:/Users/Utente/Desktop/Tesi/Firmware_Software/DAVE project/S2GLP_Pulsed_Doppler/HostCommunication/inc\PayloadHelper.h ****  * \internal
 227:C:/Users/Utente/Desktop/Tesi/Firmware_Software/DAVE project/S2GLP_Pulsed_Doppler/HostCommunication/inc\PayloadHelper.h ****  * \brief The function writes an unsigned 8 bit integer value to a payload
 228:C:/Users/Utente/Desktop/Tesi/Firmware_Software/DAVE project/S2GLP_Pulsed_Doppler/HostCommunication/inc\PayloadHelper.h ****  *        buffer.
 229:C:/Users/Utente/Desktop/Tesi/Firmware_Software/DAVE project/S2GLP_Pulsed_Doppler/HostCommunication/inc\PayloadHelper.h ****  *
 230:C:/Users/Utente/Desktop/Tesi/Firmware_Software/DAVE project/S2GLP_Pulsed_Doppler/HostCommunication/inc\PayloadHelper.h ****  * The function writes the given value into the given payload buffer at the
 231:C:/Users/Utente/Desktop/Tesi/Firmware_Software/DAVE project/S2GLP_Pulsed_Doppler/HostCommunication/inc\PayloadHelper.h ****  * requested position.
 232:C:/Users/Utente/Desktop/Tesi/Firmware_Software/DAVE project/S2GLP_Pulsed_Doppler/HostCommunication/inc\PayloadHelper.h ****  *
 233:C:/Users/Utente/Desktop/Tesi/Firmware_Software/DAVE project/S2GLP_Pulsed_Doppler/HostCommunication/inc\PayloadHelper.h ****  * \param[in] payload  A pointer to a block of payload data.
 234:C:/Users/Utente/Desktop/Tesi/Firmware_Software/DAVE project/S2GLP_Pulsed_Doppler/HostCommunication/inc\PayloadHelper.h ****  * \param[in] offset   The byte position at which the value will be written
 235:C:/Users/Utente/Desktop/Tesi/Firmware_Software/DAVE project/S2GLP_Pulsed_Doppler/HostCommunication/inc\PayloadHelper.h ****  *                     to.
 236:C:/Users/Utente/Desktop/Tesi/Firmware_Software/DAVE project/S2GLP_Pulsed_Doppler/HostCommunication/inc\PayloadHelper.h ****  * \param[in] value    The value to be written into the payload buffer.
 237:C:/Users/Utente/Desktop/Tesi/Firmware_Software/DAVE project/S2GLP_Pulsed_Doppler/HostCommunication/inc\PayloadHelper.h ****  */
 238:C:/Users/Utente/Desktop/Tesi/Firmware_Software/DAVE project/S2GLP_Pulsed_Doppler/HostCommunication/inc\PayloadHelper.h **** static inline size_t wr_payload_u8(uint8_t* payload, size_t offset,
 239:C:/Users/Utente/Desktop/Tesi/Firmware_Software/DAVE project/S2GLP_Pulsed_Doppler/HostCommunication/inc\PayloadHelper.h ****                                  uint8_t value)
 240:C:/Users/Utente/Desktop/Tesi/Firmware_Software/DAVE project/S2GLP_Pulsed_Doppler/HostCommunication/inc\PayloadHelper.h **** {
 241:C:/Users/Utente/Desktop/Tesi/Firmware_Software/DAVE project/S2GLP_Pulsed_Doppler/HostCommunication/inc\PayloadHelper.h ****     payload[offset] = value;
  95              	 .loc 2 241 0
  96 003a 02A8     	 add r0,sp,#8
  97              	.LVL4:
  98 003c 094B     	 ldr r3,.L16+4
  99 003e 40F8043D 	 str r3,[r0,#-4]!
 100              	.LBE100:
 101              	.LBE99:
 631:../HostCommunication/src/Protocol.c ****     com_flush();
 102              	 .loc 1 631 0
 103 0042 0421     	 movs r1,#4
 104 0044 FFF7FEFF 	 bl com_send_data
 105              	.LVL5:
 632:../HostCommunication/src/Protocol.c **** }
 106              	 .loc 1 632 0
 107 0048 FFF7FEFF 	 bl com_flush
 108              	.LVL6:
 109              	.L7:
 110              	.LBE98:
 111              	.LBE97:
 112              	.LBB101:
 113              	.LBB102:
 640:../HostCommunication/src/Protocol.c ****     instance.receive_pointer   = instance.message_frame;
 114              	 .loc 1 640 0
 115 004c 0023     	 movs r3,#0
 641:../HostCommunication/src/Protocol.c ****     instance.num_bytes_awaited = 4;
 116              	 .loc 1 641 0
 117 004e 064A     	 ldr r2,.L16+8
 640:../HostCommunication/src/Protocol.c ****     instance.receive_pointer   = instance.message_frame;
 118              	 .loc 1 640 0
 119 0050 6371     	 strb r3,[r4,#5]
 642:../HostCommunication/src/Protocol.c **** }
 120              	 .loc 1 642 0
 121 0052 0423     	 movs r3,#4
 641:../HostCommunication/src/Protocol.c ****     instance.num_bytes_awaited = 4;
 122              	 .loc 1 641 0
 123 0054 A260     	 str r2,[r4,#8]
 642:../HostCommunication/src/Protocol.c **** }
 124              	 .loc 1 642 0
 125 0056 A381     	 strh r3,[r4,#12]
 126 0058 00E0     	 b .L1
 127              	.LVL7:
 128              	.L4:
 129              	.LBE102:
 130              	.LBE101:
 679:../HostCommunication/src/Protocol.c **** 						send_status_message(0, PROTOCOL_ERROR_TIMEOUT);
 680:../HostCommunication/src/Protocol.c **** 					reset_state();
 681:../HostCommunication/src/Protocol.c **** 				}
 682:../HostCommunication/src/Protocol.c ****         	}
 683:../HostCommunication/src/Protocol.c ****         }
 684:../HostCommunication/src/Protocol.c ****         else
 685:../HostCommunication/src/Protocol.c ****         {
 686:../HostCommunication/src/Protocol.c ****             /* data has been received, so remember current time for next
 687:../HostCommunication/src/Protocol.c ****              * timeout check
 688:../HostCommunication/src/Protocol.c ****              */
 689:../HostCommunication/src/Protocol.c ****             instance.time_of_last_byte = current_time;
 131              	 .loc 1 689 0
 132 005a 2061     	 str r0,[r4,#16]
 133              	.LVL8:
 134              	.L1:
 135              	.LBE96:
 690:../HostCommunication/src/Protocol.c ****         }
 691:../HostCommunication/src/Protocol.c ****     }
 692:../HostCommunication/src/Protocol.c **** }
 136              	 .loc 1 692 0
 137 005c 03B0     	 add sp,sp,#12
 138              	.LCFI2:
 139              	 .cfi_def_cfa_offset 12
 140              	 
 141 005e 30BD     	 pop {r4,r5,pc}
 142              	.L17:
 143              	 .align 2
 144              	.L16:
 145 0060 00000000 	 .word .LANCHOR0
 146 0064 5B000100 	 .word 65627
 147 0068 14000000 	 .word .LANCHOR0+20
 148              	 .cfi_endproc
 149              	.LFE25:
 151              	 .section .text.protocol_init,"ax",%progbits
 152              	 .align 2
 153              	 .global protocol_init
 154              	 .thumb
 155              	 .thumb_func
 157              	protocol_init:
 158              	.LFB17:
 327:../HostCommunication/src/Protocol.c ****     /* initialize the internal state structure */
 159              	 .loc 1 327 0
 160              	 .cfi_startproc
 161              	 
 162              	 
 163              	.LVL9:
 164 0000 38B5     	 push {r3,r4,r5,lr}
 165              	.LCFI3:
 166              	 .cfi_def_cfa_offset 16
 167              	 .cfi_offset 3,-16
 168              	 .cfi_offset 4,-12
 169              	 .cfi_offset 5,-8
 170              	 .cfi_offset 14,-4
 329:../HostCommunication/src/Protocol.c ****     instance.timeout_interval = timeout_interval;
 171              	 .loc 1 329 0
 172 0002 0F4C     	 ldr r4,.L22
 327:../HostCommunication/src/Protocol.c ****     /* initialize the internal state structure */
 173              	 .loc 1 327 0
 174 0004 049D     	 ldr r5,[sp,#16]
 330:../HostCommunication/src/Protocol.c ****     instance.do_system_reset = do_system_reset;
 175              	 .loc 1 330 0
 176 0006 6362     	 str r3,[r4,#36]
 336:../HostCommunication/src/Protocol.c ****     instance.receive_pointer = NULL;
 177              	 .loc 1 336 0
 178 0008 0023     	 movs r3,#0
 179              	.LVL10:
 329:../HostCommunication/src/Protocol.c ****     instance.timeout_interval = timeout_interval;
 180              	 .loc 1 329 0
 181 000a 2262     	 str r2,[r4,#32]
 333:../HostCommunication/src/Protocol.c ****     instance.num_endpoints = num_endpoints;
 182              	 .loc 1 333 0
 183 000c 2060     	 str r0,[r4]
 334:../HostCommunication/src/Protocol.c **** 
 184              	 .loc 1 334 0
 185 000e 2171     	 strb r1,[r4,#4]
 331:../HostCommunication/src/Protocol.c **** 
 186              	 .loc 1 331 0
 187 0010 A562     	 str r5,[r4,#40]
 336:../HostCommunication/src/Protocol.c ****     instance.receive_pointer = NULL;
 188              	 .loc 1 336 0
 189 0012 6371     	 strb r3,[r4,#5]
 337:../HostCommunication/src/Protocol.c ****     instance.num_bytes_awaited = 0;
 190              	 .loc 1 337 0
 191 0014 A360     	 str r3,[r4,#8]
 338:../HostCommunication/src/Protocol.c ****     instance.time_of_last_byte = (get_time != NULL) ? instance.get_time() : 0;
 192              	 .loc 1 338 0
 193 0016 A381     	 strh r3,[r4,#12]
 339:../HostCommunication/src/Protocol.c ****     instance.payload = data_payload;
 194              	 .loc 1 339 0
 195 0018 82B1     	 cbz r2,.L20
 339:../HostCommunication/src/Protocol.c ****     instance.payload = data_payload;
 196              	 .loc 1 339 0 is_stmt 0 discriminator 1
 197 001a 9047     	 blx r2
 198              	.LVL11:
 199              	.L19:
 340:../HostCommunication/src/Protocol.c **** 	instance.max_payload = PROTOCOL_MAX_PAYLOAD_SIZE;
 200              	 .loc 1 340 0 is_stmt 1 discriminator 4
 201 001c 094D     	 ldr r5,.L22+4
 339:../HostCommunication/src/Protocol.c ****     instance.payload = data_payload;
 202              	 .loc 1 339 0 discriminator 4
 203 001e 2061     	 str r0,[r4,#16]
 204              	.LBB103:
 205              	.LBB104:
 642:../HostCommunication/src/Protocol.c **** }
 206              	 .loc 1 642 0 discriminator 4
 207 0020 0423     	 movs r3,#4
 641:../HostCommunication/src/Protocol.c ****     instance.num_bytes_awaited = 4;
 208              	 .loc 1 641 0 discriminator 4
 209 0022 094A     	 ldr r2,.L22+8
 210              	.LBE104:
 211              	.LBE103:
 340:../HostCommunication/src/Protocol.c **** 	instance.max_payload = PROTOCOL_MAX_PAYLOAD_SIZE;
 212              	 .loc 1 340 0 discriminator 4
 213 0024 E561     	 str r5,[r4,#28]
 341:../HostCommunication/src/Protocol.c **** 
 214              	 .loc 1 341 0 discriminator 4
 215 0026 4FF40070 	 mov r0,#512
 216              	.LBB107:
 217              	.LBB105:
 640:../HostCommunication/src/Protocol.c ****     instance.receive_pointer   = instance.message_frame;
 218              	 .loc 1 640 0 discriminator 4
 219 002a 0021     	 movs r1,#0
 220              	.LBE105:
 221              	.LBE107:
 341:../HostCommunication/src/Protocol.c **** 
 222              	 .loc 1 341 0 discriminator 4
 223 002c E062     	 str r0,[r4,#44]
 224              	.LBB108:
 225              	.LBB106:
 640:../HostCommunication/src/Protocol.c ****     instance.receive_pointer   = instance.message_frame;
 226              	 .loc 1 640 0 discriminator 4
 227 002e 6171     	 strb r1,[r4,#5]
 641:../HostCommunication/src/Protocol.c ****     instance.num_bytes_awaited = 4;
 228              	 .loc 1 641 0 discriminator 4
 229 0030 A260     	 str r2,[r4,#8]
 642:../HostCommunication/src/Protocol.c **** }
 230              	 .loc 1 642 0 discriminator 4
 231 0032 A381     	 strh r3,[r4,#12]
 232              	.LBE106:
 233              	.LBE108:
 348:../HostCommunication/src/Protocol.c **** 
 234              	 .loc 1 348 0 discriminator 4
 235 0034 BDE83840 	 pop {r3,r4,r5,lr}
 236              	.LCFI4:
 237              	 .cfi_remember_state
 238              	 .cfi_restore 14
 239              	 .cfi_restore 5
 240              	 .cfi_restore 4
 241              	 .cfi_restore 3
 242              	 .cfi_def_cfa_offset 0
 243              	.LVL12:
 347:../HostCommunication/src/Protocol.c **** }
 244              	 .loc 1 347 0 discriminator 4
 245 0038 FFF7FEBF 	 b com_init
 246              	.LVL13:
 247              	.L20:
 248              	.LCFI5:
 249              	 .cfi_restore_state
 339:../HostCommunication/src/Protocol.c ****     instance.payload = data_payload;
 250              	 .loc 1 339 0
 251 003c 1046     	 mov r0,r2
 252              	.LVL14:
 253 003e EDE7     	 b .L19
 254              	.L23:
 255              	 .align 2
 256              	.L22:
 257 0040 00000000 	 .word .LANCHOR0
 258 0044 00000000 	 .word .LANCHOR1
 259 0048 14000000 	 .word .LANCHOR0+20
 260              	 .cfi_endproc
 261              	.LFE17:
 263              	 .section .text.protocol_run,"ax",%progbits
 264              	 .align 2
 265              	 .global protocol_run
 266              	 .thumb
 267              	 .thumb_func
 269              	protocol_run:
 270              	.LFB18:
 353:../HostCommunication/src/Protocol.c **** 	if (instance.state != PROTOCOL_STATE_CONFUSED)
 271              	 .loc 1 353 0
 272              	 .cfi_startproc
 273              	 
 274              	 
 275 0000 2DE9F041 	 push {r4,r5,r6,r7,r8,lr}
 276              	.LCFI6:
 277              	 .cfi_def_cfa_offset 24
 278              	 .cfi_offset 4,-24
 279              	 .cfi_offset 5,-20
 280              	 .cfi_offset 6,-16
 281              	 .cfi_offset 7,-12
 282              	 .cfi_offset 8,-8
 283              	 .cfi_offset 14,-4
 354:../HostCommunication/src/Protocol.c ****     {
 284              	 .loc 1 354 0
 285 0004 A14C     	 ldr r4,.L92
 286 0006 6379     	 ldrb r3,[r4,#5]
 287 0008 042B     	 cmp r3,#4
 353:../HostCommunication/src/Protocol.c **** 	if (instance.state != PROTOCOL_STATE_CONFUSED)
 288              	 .loc 1 353 0
 289 000a 92B0     	 sub sp,sp,#72
 290              	.LCFI7:
 291              	 .cfi_def_cfa_offset 96
 354:../HostCommunication/src/Protocol.c ****     {
 292              	 .loc 1 354 0
 293 000c 2BD0     	 beq .L53
 359:../HostCommunication/src/Protocol.c **** 
 294              	 .loc 1 359 0
 295 000e FFF7FEFF 	 bl receive_data
 296              	.LVL15:
 366:../HostCommunication/src/Protocol.c ****         {
 297              	 .loc 1 366 0
 298 0012 6379     	 ldrb r3,[r4,#5]
 299 0014 032B     	 cmp r3,#3
 300 0016 24D8     	 bhi .L27
 301 0018 DFE803F0 	 tbb [pc,r3]
 302              	.L29:
 303 001c 07       	 .byte (.L28-.L29)/2
 304 001d 02       	 .byte (.L30-.L29)/2
 305 001e 89       	 .byte (.L31-.L29)/2
 306 001f 70       	 .byte (.L32-.L29)/2
 307              	 .p2align 1
 308              	.L30:
 380:../HostCommunication/src/Protocol.c ****             {
 309              	 .loc 1 380 0
 310 0020 A389     	 ldrh r3,[r4,#12]
 311 0022 53B1     	 cbz r3,.L34
 312              	.L24:
 566:../HostCommunication/src/Protocol.c **** 
 313              	 .loc 1 566 0
 314 0024 12B0     	 add sp,sp,#72
 315              	.LCFI8:
 316              	 .cfi_remember_state
 317              	 .cfi_def_cfa_offset 24
 318              	 
 319 0026 BDE8F081 	 pop {r4,r5,r6,r7,r8,pc}
 320              	.L28:
 321              	.LCFI9:
 322              	 .cfi_restore_state
 372:../HostCommunication/src/Protocol.c ****                 instance.state = PROTOCOL_STATE_RECEIVING_HEADER;
 323              	 .loc 1 372 0
 324 002a A389     	 ldrh r3,[r4,#12]
 325 002c 974A     	 ldr r2,.L92
 326 002e 032B     	 cmp r3,#3
 327 0030 F8D8     	 bhi .L24
 373:../HostCommunication/src/Protocol.c **** 
 328              	 .loc 1 373 0
 329 0032 0121     	 movs r1,#1
 330 0034 5171     	 strb r1,[r2,#5]
 380:../HostCommunication/src/Protocol.c ****             {
 331              	 .loc 1 380 0
 332 0036 002B     	 cmp r3,#0
 333 0038 F4D1     	 bne .L24
 334              	.L34:
 335              	.LVL16:
 336              	.LBB261:
 394:../HostCommunication/src/Protocol.c ****                 {
 337              	 .loc 1 394 0
 338 003a 237D     	 ldrb r3,[r4,#20]
 339              	.LBB262:
 340              	.LBB263:
  94:C:/Users/Utente/Desktop/Tesi/Firmware_Software/DAVE project/S2GLP_Pulsed_Doppler/HostCommunication/inc\PayloadHelper.h **** }
 341              	 .loc 2 94 0
 342 003c 934E     	 ldr r6,.L92
 343 003e 607D     	 ldrb r0,[r4,#21]
 344              	.LVL17:
 345              	.LBE263:
 346              	.LBE262:
 347              	.LBB264:
 348              	.LBB265:
 242:C:/Users/Utente/Desktop/Tesi/Firmware_Software/DAVE project/S2GLP_Pulsed_Doppler/HostCommunication/inc\PayloadHelper.h ****     return sizeof(uint8_t);
 243:C:/Users/Utente/Desktop/Tesi/Firmware_Software/DAVE project/S2GLP_Pulsed_Doppler/HostCommunication/inc\PayloadHelper.h **** }
 244:C:/Users/Utente/Desktop/Tesi/Firmware_Software/DAVE project/S2GLP_Pulsed_Doppler/HostCommunication/inc\PayloadHelper.h **** 
 245:C:/Users/Utente/Desktop/Tesi/Firmware_Software/DAVE project/S2GLP_Pulsed_Doppler/HostCommunication/inc\PayloadHelper.h **** /**
 246:C:/Users/Utente/Desktop/Tesi/Firmware_Software/DAVE project/S2GLP_Pulsed_Doppler/HostCommunication/inc\PayloadHelper.h ****  * \internal
 247:C:/Users/Utente/Desktop/Tesi/Firmware_Software/DAVE project/S2GLP_Pulsed_Doppler/HostCommunication/inc\PayloadHelper.h ****  * \brief The function writes a signed 16 bit integer value to a payload
 248:C:/Users/Utente/Desktop/Tesi/Firmware_Software/DAVE project/S2GLP_Pulsed_Doppler/HostCommunication/inc\PayloadHelper.h ****  *        buffer.
 249:C:/Users/Utente/Desktop/Tesi/Firmware_Software/DAVE project/S2GLP_Pulsed_Doppler/HostCommunication/inc\PayloadHelper.h ****  *
 250:C:/Users/Utente/Desktop/Tesi/Firmware_Software/DAVE project/S2GLP_Pulsed_Doppler/HostCommunication/inc\PayloadHelper.h ****  * The function writes the given value into the given payload buffer at the
 251:C:/Users/Utente/Desktop/Tesi/Firmware_Software/DAVE project/S2GLP_Pulsed_Doppler/HostCommunication/inc\PayloadHelper.h ****  * requested position. If needed the byte order is swapped to convert from the
 252:C:/Users/Utente/Desktop/Tesi/Firmware_Software/DAVE project/S2GLP_Pulsed_Doppler/HostCommunication/inc\PayloadHelper.h ****  * payload's little endian format to the CPU's endian format.
 253:C:/Users/Utente/Desktop/Tesi/Firmware_Software/DAVE project/S2GLP_Pulsed_Doppler/HostCommunication/inc\PayloadHelper.h ****  *
 254:C:/Users/Utente/Desktop/Tesi/Firmware_Software/DAVE project/S2GLP_Pulsed_Doppler/HostCommunication/inc\PayloadHelper.h ****  * \param[in] payload  A pointer to a block of payload data.
 255:C:/Users/Utente/Desktop/Tesi/Firmware_Software/DAVE project/S2GLP_Pulsed_Doppler/HostCommunication/inc\PayloadHelper.h ****  * \param[in] offset   The byte position at which the value will be written
 256:C:/Users/Utente/Desktop/Tesi/Firmware_Software/DAVE project/S2GLP_Pulsed_Doppler/HostCommunication/inc\PayloadHelper.h ****  *                     to.
 257:C:/Users/Utente/Desktop/Tesi/Firmware_Software/DAVE project/S2GLP_Pulsed_Doppler/HostCommunication/inc\PayloadHelper.h ****  * \param[in] value    The value to be written into the payload buffer.
 258:C:/Users/Utente/Desktop/Tesi/Firmware_Software/DAVE project/S2GLP_Pulsed_Doppler/HostCommunication/inc\PayloadHelper.h ****  */
 259:C:/Users/Utente/Desktop/Tesi/Firmware_Software/DAVE project/S2GLP_Pulsed_Doppler/HostCommunication/inc\PayloadHelper.h **** static inline size_t wr_payload_i16(uint8_t* payload, size_t offset,
 260:C:/Users/Utente/Desktop/Tesi/Firmware_Software/DAVE project/S2GLP_Pulsed_Doppler/HostCommunication/inc\PayloadHelper.h ****                                   int16_t value);
 261:C:/Users/Utente/Desktop/Tesi/Firmware_Software/DAVE project/S2GLP_Pulsed_Doppler/HostCommunication/inc\PayloadHelper.h **** 
 262:C:/Users/Utente/Desktop/Tesi/Firmware_Software/DAVE project/S2GLP_Pulsed_Doppler/HostCommunication/inc\PayloadHelper.h **** /**
 263:C:/Users/Utente/Desktop/Tesi/Firmware_Software/DAVE project/S2GLP_Pulsed_Doppler/HostCommunication/inc\PayloadHelper.h ****  * \internal
 264:C:/Users/Utente/Desktop/Tesi/Firmware_Software/DAVE project/S2GLP_Pulsed_Doppler/HostCommunication/inc\PayloadHelper.h ****  * \brief The function writes an unsigned 16 bit integer value to a payload
 265:C:/Users/Utente/Desktop/Tesi/Firmware_Software/DAVE project/S2GLP_Pulsed_Doppler/HostCommunication/inc\PayloadHelper.h ****  *        buffer.
 266:C:/Users/Utente/Desktop/Tesi/Firmware_Software/DAVE project/S2GLP_Pulsed_Doppler/HostCommunication/inc\PayloadHelper.h ****  *
 267:C:/Users/Utente/Desktop/Tesi/Firmware_Software/DAVE project/S2GLP_Pulsed_Doppler/HostCommunication/inc\PayloadHelper.h ****  * The function writes the given value into the given payload buffer at the
 268:C:/Users/Utente/Desktop/Tesi/Firmware_Software/DAVE project/S2GLP_Pulsed_Doppler/HostCommunication/inc\PayloadHelper.h ****  * requested position. If needed the byte order is swapped to convert from the
 269:C:/Users/Utente/Desktop/Tesi/Firmware_Software/DAVE project/S2GLP_Pulsed_Doppler/HostCommunication/inc\PayloadHelper.h ****  * payload's little endian format to the CPU's endian format.
 270:C:/Users/Utente/Desktop/Tesi/Firmware_Software/DAVE project/S2GLP_Pulsed_Doppler/HostCommunication/inc\PayloadHelper.h ****  *
 271:C:/Users/Utente/Desktop/Tesi/Firmware_Software/DAVE project/S2GLP_Pulsed_Doppler/HostCommunication/inc\PayloadHelper.h ****  * \param[in] payload  A pointer to a block of payload data.
 272:C:/Users/Utente/Desktop/Tesi/Firmware_Software/DAVE project/S2GLP_Pulsed_Doppler/HostCommunication/inc\PayloadHelper.h ****  * \param[in] offset   The byte position at which the value will be written
 273:C:/Users/Utente/Desktop/Tesi/Firmware_Software/DAVE project/S2GLP_Pulsed_Doppler/HostCommunication/inc\PayloadHelper.h ****  *                     to.
 274:C:/Users/Utente/Desktop/Tesi/Firmware_Software/DAVE project/S2GLP_Pulsed_Doppler/HostCommunication/inc\PayloadHelper.h ****  * \param[in] value    The value to be written into the payload buffer.
 275:C:/Users/Utente/Desktop/Tesi/Firmware_Software/DAVE project/S2GLP_Pulsed_Doppler/HostCommunication/inc\PayloadHelper.h ****  */
 276:C:/Users/Utente/Desktop/Tesi/Firmware_Software/DAVE project/S2GLP_Pulsed_Doppler/HostCommunication/inc\PayloadHelper.h **** static inline size_t wr_payload_u16(uint8_t* payload, size_t offset,
 277:C:/Users/Utente/Desktop/Tesi/Firmware_Software/DAVE project/S2GLP_Pulsed_Doppler/HostCommunication/inc\PayloadHelper.h ****                                   uint16_t value);
 278:C:/Users/Utente/Desktop/Tesi/Firmware_Software/DAVE project/S2GLP_Pulsed_Doppler/HostCommunication/inc\PayloadHelper.h **** 
 279:C:/Users/Utente/Desktop/Tesi/Firmware_Software/DAVE project/S2GLP_Pulsed_Doppler/HostCommunication/inc\PayloadHelper.h **** /**
 280:C:/Users/Utente/Desktop/Tesi/Firmware_Software/DAVE project/S2GLP_Pulsed_Doppler/HostCommunication/inc\PayloadHelper.h ****  * \internal
 281:C:/Users/Utente/Desktop/Tesi/Firmware_Software/DAVE project/S2GLP_Pulsed_Doppler/HostCommunication/inc\PayloadHelper.h ****  * \brief The function writes a signed 32 bit integer value to a payload
 282:C:/Users/Utente/Desktop/Tesi/Firmware_Software/DAVE project/S2GLP_Pulsed_Doppler/HostCommunication/inc\PayloadHelper.h ****  *        buffer.
 283:C:/Users/Utente/Desktop/Tesi/Firmware_Software/DAVE project/S2GLP_Pulsed_Doppler/HostCommunication/inc\PayloadHelper.h ****  *
 284:C:/Users/Utente/Desktop/Tesi/Firmware_Software/DAVE project/S2GLP_Pulsed_Doppler/HostCommunication/inc\PayloadHelper.h ****  * The function writes the given value into the given payload buffer at the
 285:C:/Users/Utente/Desktop/Tesi/Firmware_Software/DAVE project/S2GLP_Pulsed_Doppler/HostCommunication/inc\PayloadHelper.h ****  * requested position. If needed the byte order is swapped to convert from the
 286:C:/Users/Utente/Desktop/Tesi/Firmware_Software/DAVE project/S2GLP_Pulsed_Doppler/HostCommunication/inc\PayloadHelper.h ****  * payload's little endian format to the CPU's endian format.
 287:C:/Users/Utente/Desktop/Tesi/Firmware_Software/DAVE project/S2GLP_Pulsed_Doppler/HostCommunication/inc\PayloadHelper.h ****  *
 288:C:/Users/Utente/Desktop/Tesi/Firmware_Software/DAVE project/S2GLP_Pulsed_Doppler/HostCommunication/inc\PayloadHelper.h ****  * \param[in] payload  A pointer to a block of payload data.
 289:C:/Users/Utente/Desktop/Tesi/Firmware_Software/DAVE project/S2GLP_Pulsed_Doppler/HostCommunication/inc\PayloadHelper.h ****  * \param[in] offset   The byte position at which the value will be written
 290:C:/Users/Utente/Desktop/Tesi/Firmware_Software/DAVE project/S2GLP_Pulsed_Doppler/HostCommunication/inc\PayloadHelper.h ****  *                     to.
 291:C:/Users/Utente/Desktop/Tesi/Firmware_Software/DAVE project/S2GLP_Pulsed_Doppler/HostCommunication/inc\PayloadHelper.h ****  * \param[in] value    The value to be written into the payload buffer.
 292:C:/Users/Utente/Desktop/Tesi/Firmware_Software/DAVE project/S2GLP_Pulsed_Doppler/HostCommunication/inc\PayloadHelper.h ****  */
 293:C:/Users/Utente/Desktop/Tesi/Firmware_Software/DAVE project/S2GLP_Pulsed_Doppler/HostCommunication/inc\PayloadHelper.h **** static inline size_t wr_payload_i32(uint8_t* payload, size_t offset,
 294:C:/Users/Utente/Desktop/Tesi/Firmware_Software/DAVE project/S2GLP_Pulsed_Doppler/HostCommunication/inc\PayloadHelper.h ****                                   int32_t value);
 295:C:/Users/Utente/Desktop/Tesi/Firmware_Software/DAVE project/S2GLP_Pulsed_Doppler/HostCommunication/inc\PayloadHelper.h **** 
 296:C:/Users/Utente/Desktop/Tesi/Firmware_Software/DAVE project/S2GLP_Pulsed_Doppler/HostCommunication/inc\PayloadHelper.h **** /**
 297:C:/Users/Utente/Desktop/Tesi/Firmware_Software/DAVE project/S2GLP_Pulsed_Doppler/HostCommunication/inc\PayloadHelper.h ****  * \internal
 298:C:/Users/Utente/Desktop/Tesi/Firmware_Software/DAVE project/S2GLP_Pulsed_Doppler/HostCommunication/inc\PayloadHelper.h ****  * \brief The function writes an unsigned 32 bit integer value to a payload
 299:C:/Users/Utente/Desktop/Tesi/Firmware_Software/DAVE project/S2GLP_Pulsed_Doppler/HostCommunication/inc\PayloadHelper.h ****  *        buffer.
 300:C:/Users/Utente/Desktop/Tesi/Firmware_Software/DAVE project/S2GLP_Pulsed_Doppler/HostCommunication/inc\PayloadHelper.h ****  *
 301:C:/Users/Utente/Desktop/Tesi/Firmware_Software/DAVE project/S2GLP_Pulsed_Doppler/HostCommunication/inc\PayloadHelper.h ****  * The function writes the given value into the given payload buffer at the
 302:C:/Users/Utente/Desktop/Tesi/Firmware_Software/DAVE project/S2GLP_Pulsed_Doppler/HostCommunication/inc\PayloadHelper.h ****  * requested position. If needed the byte order is swapped to convert from the
 303:C:/Users/Utente/Desktop/Tesi/Firmware_Software/DAVE project/S2GLP_Pulsed_Doppler/HostCommunication/inc\PayloadHelper.h ****  * payload's little endian format to the CPU's endian format.
 304:C:/Users/Utente/Desktop/Tesi/Firmware_Software/DAVE project/S2GLP_Pulsed_Doppler/HostCommunication/inc\PayloadHelper.h ****  *
 305:C:/Users/Utente/Desktop/Tesi/Firmware_Software/DAVE project/S2GLP_Pulsed_Doppler/HostCommunication/inc\PayloadHelper.h ****  * \param[in] payload  A pointer to a block of payload data.
 306:C:/Users/Utente/Desktop/Tesi/Firmware_Software/DAVE project/S2GLP_Pulsed_Doppler/HostCommunication/inc\PayloadHelper.h ****  * \param[in] offset   The byte position at which the value will be written
 307:C:/Users/Utente/Desktop/Tesi/Firmware_Software/DAVE project/S2GLP_Pulsed_Doppler/HostCommunication/inc\PayloadHelper.h ****  *                     to.
 308:C:/Users/Utente/Desktop/Tesi/Firmware_Software/DAVE project/S2GLP_Pulsed_Doppler/HostCommunication/inc\PayloadHelper.h ****  * \param[in] value    The value to be written into the payload buffer.
 309:C:/Users/Utente/Desktop/Tesi/Firmware_Software/DAVE project/S2GLP_Pulsed_Doppler/HostCommunication/inc\PayloadHelper.h ****  */
 310:C:/Users/Utente/Desktop/Tesi/Firmware_Software/DAVE project/S2GLP_Pulsed_Doppler/HostCommunication/inc\PayloadHelper.h **** static inline size_t wr_payload_u32(uint8_t* payload, size_t offset,
 311:C:/Users/Utente/Desktop/Tesi/Firmware_Software/DAVE project/S2GLP_Pulsed_Doppler/HostCommunication/inc\PayloadHelper.h ****                                   uint32_t value);
 312:C:/Users/Utente/Desktop/Tesi/Firmware_Software/DAVE project/S2GLP_Pulsed_Doppler/HostCommunication/inc\PayloadHelper.h **** 
 313:C:/Users/Utente/Desktop/Tesi/Firmware_Software/DAVE project/S2GLP_Pulsed_Doppler/HostCommunication/inc\PayloadHelper.h **** /**
 314:C:/Users/Utente/Desktop/Tesi/Firmware_Software/DAVE project/S2GLP_Pulsed_Doppler/HostCommunication/inc\PayloadHelper.h ****  * \internal
 315:C:/Users/Utente/Desktop/Tesi/Firmware_Software/DAVE project/S2GLP_Pulsed_Doppler/HostCommunication/inc\PayloadHelper.h ****  * \brief The function writes a signed 64 bit integer value to a payload
 316:C:/Users/Utente/Desktop/Tesi/Firmware_Software/DAVE project/S2GLP_Pulsed_Doppler/HostCommunication/inc\PayloadHelper.h ****  *        buffer.
 317:C:/Users/Utente/Desktop/Tesi/Firmware_Software/DAVE project/S2GLP_Pulsed_Doppler/HostCommunication/inc\PayloadHelper.h ****  *
 318:C:/Users/Utente/Desktop/Tesi/Firmware_Software/DAVE project/S2GLP_Pulsed_Doppler/HostCommunication/inc\PayloadHelper.h ****  * The function writes the given value into the given payload buffer at the
 319:C:/Users/Utente/Desktop/Tesi/Firmware_Software/DAVE project/S2GLP_Pulsed_Doppler/HostCommunication/inc\PayloadHelper.h ****  * requested position. If needed the byte order is swapped to convert from the
 320:C:/Users/Utente/Desktop/Tesi/Firmware_Software/DAVE project/S2GLP_Pulsed_Doppler/HostCommunication/inc\PayloadHelper.h ****  * payload's little endian format to the CPU's endian format.
 321:C:/Users/Utente/Desktop/Tesi/Firmware_Software/DAVE project/S2GLP_Pulsed_Doppler/HostCommunication/inc\PayloadHelper.h ****  *
 322:C:/Users/Utente/Desktop/Tesi/Firmware_Software/DAVE project/S2GLP_Pulsed_Doppler/HostCommunication/inc\PayloadHelper.h ****  * \param[in] payload  A pointer to a block of payload data.
 323:C:/Users/Utente/Desktop/Tesi/Firmware_Software/DAVE project/S2GLP_Pulsed_Doppler/HostCommunication/inc\PayloadHelper.h ****  * \param[in] offset   The byte position at which the value will be written
 324:C:/Users/Utente/Desktop/Tesi/Firmware_Software/DAVE project/S2GLP_Pulsed_Doppler/HostCommunication/inc\PayloadHelper.h ****  *                     to.
 325:C:/Users/Utente/Desktop/Tesi/Firmware_Software/DAVE project/S2GLP_Pulsed_Doppler/HostCommunication/inc\PayloadHelper.h ****  * \param[in] value    The value to be written into the payload buffer.
 326:C:/Users/Utente/Desktop/Tesi/Firmware_Software/DAVE project/S2GLP_Pulsed_Doppler/HostCommunication/inc\PayloadHelper.h ****  */
 327:C:/Users/Utente/Desktop/Tesi/Firmware_Software/DAVE project/S2GLP_Pulsed_Doppler/HostCommunication/inc\PayloadHelper.h **** static inline size_t wr_payload_i64(uint8_t* payload, size_t offset,
 328:C:/Users/Utente/Desktop/Tesi/Firmware_Software/DAVE project/S2GLP_Pulsed_Doppler/HostCommunication/inc\PayloadHelper.h ****                                   int64_t value);
 329:C:/Users/Utente/Desktop/Tesi/Firmware_Software/DAVE project/S2GLP_Pulsed_Doppler/HostCommunication/inc\PayloadHelper.h **** 
 330:C:/Users/Utente/Desktop/Tesi/Firmware_Software/DAVE project/S2GLP_Pulsed_Doppler/HostCommunication/inc\PayloadHelper.h **** /**
 331:C:/Users/Utente/Desktop/Tesi/Firmware_Software/DAVE project/S2GLP_Pulsed_Doppler/HostCommunication/inc\PayloadHelper.h ****  * \internal
 332:C:/Users/Utente/Desktop/Tesi/Firmware_Software/DAVE project/S2GLP_Pulsed_Doppler/HostCommunication/inc\PayloadHelper.h ****  * \brief The function writes an unsigned 64 bit integer value to a payload
 333:C:/Users/Utente/Desktop/Tesi/Firmware_Software/DAVE project/S2GLP_Pulsed_Doppler/HostCommunication/inc\PayloadHelper.h ****  *        buffer.
 334:C:/Users/Utente/Desktop/Tesi/Firmware_Software/DAVE project/S2GLP_Pulsed_Doppler/HostCommunication/inc\PayloadHelper.h ****  *
 335:C:/Users/Utente/Desktop/Tesi/Firmware_Software/DAVE project/S2GLP_Pulsed_Doppler/HostCommunication/inc\PayloadHelper.h ****  * The function writes the given value into the given payload buffer at the
 336:C:/Users/Utente/Desktop/Tesi/Firmware_Software/DAVE project/S2GLP_Pulsed_Doppler/HostCommunication/inc\PayloadHelper.h ****  * requested position. If needed the byte order is swapped to convert from the
 337:C:/Users/Utente/Desktop/Tesi/Firmware_Software/DAVE project/S2GLP_Pulsed_Doppler/HostCommunication/inc\PayloadHelper.h ****  * payload's little endian format to the CPU's endian format.
 338:C:/Users/Utente/Desktop/Tesi/Firmware_Software/DAVE project/S2GLP_Pulsed_Doppler/HostCommunication/inc\PayloadHelper.h ****  *
 339:C:/Users/Utente/Desktop/Tesi/Firmware_Software/DAVE project/S2GLP_Pulsed_Doppler/HostCommunication/inc\PayloadHelper.h ****  * \param[in] payload  A pointer to a block of payload data.
 340:C:/Users/Utente/Desktop/Tesi/Firmware_Software/DAVE project/S2GLP_Pulsed_Doppler/HostCommunication/inc\PayloadHelper.h ****  * \param[in] offset   The byte position at which the value will be written
 341:C:/Users/Utente/Desktop/Tesi/Firmware_Software/DAVE project/S2GLP_Pulsed_Doppler/HostCommunication/inc\PayloadHelper.h ****  *                     to.
 342:C:/Users/Utente/Desktop/Tesi/Firmware_Software/DAVE project/S2GLP_Pulsed_Doppler/HostCommunication/inc\PayloadHelper.h ****  * \param[in] value    The value to be written into the payload buffer.
 343:C:/Users/Utente/Desktop/Tesi/Firmware_Software/DAVE project/S2GLP_Pulsed_Doppler/HostCommunication/inc\PayloadHelper.h ****  */
 344:C:/Users/Utente/Desktop/Tesi/Firmware_Software/DAVE project/S2GLP_Pulsed_Doppler/HostCommunication/inc\PayloadHelper.h **** static inline size_t wr_payload_u64(uint8_t* payload, size_t offset,
 345:C:/Users/Utente/Desktop/Tesi/Firmware_Software/DAVE project/S2GLP_Pulsed_Doppler/HostCommunication/inc\PayloadHelper.h ****                                   uint64_t value);
 346:C:/Users/Utente/Desktop/Tesi/Firmware_Software/DAVE project/S2GLP_Pulsed_Doppler/HostCommunication/inc\PayloadHelper.h **** /*
 347:C:/Users/Utente/Desktop/Tesi/Firmware_Software/DAVE project/S2GLP_Pulsed_Doppler/HostCommunication/inc\PayloadHelper.h **** ==============================================================================
 348:C:/Users/Utente/Desktop/Tesi/Firmware_Software/DAVE project/S2GLP_Pulsed_Doppler/HostCommunication/inc\PayloadHelper.h ****    3. INLINE FUNCTIONS
 349:C:/Users/Utente/Desktop/Tesi/Firmware_Software/DAVE project/S2GLP_Pulsed_Doppler/HostCommunication/inc\PayloadHelper.h **** ==============================================================================
 350:C:/Users/Utente/Desktop/Tesi/Firmware_Software/DAVE project/S2GLP_Pulsed_Doppler/HostCommunication/inc\PayloadHelper.h ****  */
 351:C:/Users/Utente/Desktop/Tesi/Firmware_Software/DAVE project/S2GLP_Pulsed_Doppler/HostCommunication/inc\PayloadHelper.h **** #ifdef COMLIB_ALLOW_PAYLOAD_CASTS
 352:C:/Users/Utente/Desktop/Tesi/Firmware_Software/DAVE project/S2GLP_Pulsed_Doppler/HostCommunication/inc\PayloadHelper.h **** /*
 353:C:/Users/Utente/Desktop/Tesi/Firmware_Software/DAVE project/S2GLP_Pulsed_Doppler/HostCommunication/inc\PayloadHelper.h ****  * The following function implementations wan only be used on machines with
 354:C:/Users/Utente/Desktop/Tesi/Firmware_Software/DAVE project/S2GLP_Pulsed_Doppler/HostCommunication/inc\PayloadHelper.h ****  * little endian CPUs, but are faster than the generic implementations.
 355:C:/Users/Utente/Desktop/Tesi/Firmware_Software/DAVE project/S2GLP_Pulsed_Doppler/HostCommunication/inc\PayloadHelper.h ****  */
 356:C:/Users/Utente/Desktop/Tesi/Firmware_Software/DAVE project/S2GLP_Pulsed_Doppler/HostCommunication/inc\PayloadHelper.h **** 
 357:C:/Users/Utente/Desktop/Tesi/Firmware_Software/DAVE project/S2GLP_Pulsed_Doppler/HostCommunication/inc\PayloadHelper.h **** static inline int16_t rd_payload_i16(const uint8_t* payload, uint16_t offset)
 358:C:/Users/Utente/Desktop/Tesi/Firmware_Software/DAVE project/S2GLP_Pulsed_Doppler/HostCommunication/inc\PayloadHelper.h **** {
 359:C:/Users/Utente/Desktop/Tesi/Firmware_Software/DAVE project/S2GLP_Pulsed_Doppler/HostCommunication/inc\PayloadHelper.h ****     return *(int16_t*)(payload + offset);
 360:C:/Users/Utente/Desktop/Tesi/Firmware_Software/DAVE project/S2GLP_Pulsed_Doppler/HostCommunication/inc\PayloadHelper.h **** }
 361:C:/Users/Utente/Desktop/Tesi/Firmware_Software/DAVE project/S2GLP_Pulsed_Doppler/HostCommunication/inc\PayloadHelper.h **** 
 362:C:/Users/Utente/Desktop/Tesi/Firmware_Software/DAVE project/S2GLP_Pulsed_Doppler/HostCommunication/inc\PayloadHelper.h **** static inline uint16_t rd_payload_u16(const uint8_t* payload, uint16_t offset)
 363:C:/Users/Utente/Desktop/Tesi/Firmware_Software/DAVE project/S2GLP_Pulsed_Doppler/HostCommunication/inc\PayloadHelper.h **** {
 364:C:/Users/Utente/Desktop/Tesi/Firmware_Software/DAVE project/S2GLP_Pulsed_Doppler/HostCommunication/inc\PayloadHelper.h ****     return *(uint16_t*)(payload + offset);
 365:C:/Users/Utente/Desktop/Tesi/Firmware_Software/DAVE project/S2GLP_Pulsed_Doppler/HostCommunication/inc\PayloadHelper.h **** }
 366:C:/Users/Utente/Desktop/Tesi/Firmware_Software/DAVE project/S2GLP_Pulsed_Doppler/HostCommunication/inc\PayloadHelper.h **** 
 367:C:/Users/Utente/Desktop/Tesi/Firmware_Software/DAVE project/S2GLP_Pulsed_Doppler/HostCommunication/inc\PayloadHelper.h **** static inline int32_t rd_payload_i32(const uint8_t* payload, uint16_t offset)
 368:C:/Users/Utente/Desktop/Tesi/Firmware_Software/DAVE project/S2GLP_Pulsed_Doppler/HostCommunication/inc\PayloadHelper.h **** {
 369:C:/Users/Utente/Desktop/Tesi/Firmware_Software/DAVE project/S2GLP_Pulsed_Doppler/HostCommunication/inc\PayloadHelper.h ****     return *(int32_t*)(payload + offset);
 370:C:/Users/Utente/Desktop/Tesi/Firmware_Software/DAVE project/S2GLP_Pulsed_Doppler/HostCommunication/inc\PayloadHelper.h **** }
 371:C:/Users/Utente/Desktop/Tesi/Firmware_Software/DAVE project/S2GLP_Pulsed_Doppler/HostCommunication/inc\PayloadHelper.h **** 
 372:C:/Users/Utente/Desktop/Tesi/Firmware_Software/DAVE project/S2GLP_Pulsed_Doppler/HostCommunication/inc\PayloadHelper.h **** static inline uint32_t rd_payload_u32(const uint8_t* payload, uint16_t offset)
 373:C:/Users/Utente/Desktop/Tesi/Firmware_Software/DAVE project/S2GLP_Pulsed_Doppler/HostCommunication/inc\PayloadHelper.h **** {
 374:C:/Users/Utente/Desktop/Tesi/Firmware_Software/DAVE project/S2GLP_Pulsed_Doppler/HostCommunication/inc\PayloadHelper.h ****     return *(uint32_t*)(payload + offset);
 375:C:/Users/Utente/Desktop/Tesi/Firmware_Software/DAVE project/S2GLP_Pulsed_Doppler/HostCommunication/inc\PayloadHelper.h **** }
 376:C:/Users/Utente/Desktop/Tesi/Firmware_Software/DAVE project/S2GLP_Pulsed_Doppler/HostCommunication/inc\PayloadHelper.h **** 
 377:C:/Users/Utente/Desktop/Tesi/Firmware_Software/DAVE project/S2GLP_Pulsed_Doppler/HostCommunication/inc\PayloadHelper.h **** static inline int64_t rd_payload_i64(const uint8_t* payload, uint16_t offset)
 378:C:/Users/Utente/Desktop/Tesi/Firmware_Software/DAVE project/S2GLP_Pulsed_Doppler/HostCommunication/inc\PayloadHelper.h **** {
 379:C:/Users/Utente/Desktop/Tesi/Firmware_Software/DAVE project/S2GLP_Pulsed_Doppler/HostCommunication/inc\PayloadHelper.h ****     union
 380:C:/Users/Utente/Desktop/Tesi/Firmware_Software/DAVE project/S2GLP_Pulsed_Doppler/HostCommunication/inc\PayloadHelper.h ****     {
 381:C:/Users/Utente/Desktop/Tesi/Firmware_Software/DAVE project/S2GLP_Pulsed_Doppler/HostCommunication/inc\PayloadHelper.h ****         uint32_t u32[2];
 382:C:/Users/Utente/Desktop/Tesi/Firmware_Software/DAVE project/S2GLP_Pulsed_Doppler/HostCommunication/inc\PayloadHelper.h ****         int64_t i64;
 383:C:/Users/Utente/Desktop/Tesi/Firmware_Software/DAVE project/S2GLP_Pulsed_Doppler/HostCommunication/inc\PayloadHelper.h ****     } value;
 384:C:/Users/Utente/Desktop/Tesi/Firmware_Software/DAVE project/S2GLP_Pulsed_Doppler/HostCommunication/inc\PayloadHelper.h ****     value.u32[0] = *(uint32_t*)(payload + offset);
 385:C:/Users/Utente/Desktop/Tesi/Firmware_Software/DAVE project/S2GLP_Pulsed_Doppler/HostCommunication/inc\PayloadHelper.h ****     value.u32[1] = *(uint32_t*)(payload + offset + 4);
 386:C:/Users/Utente/Desktop/Tesi/Firmware_Software/DAVE project/S2GLP_Pulsed_Doppler/HostCommunication/inc\PayloadHelper.h **** 
 387:C:/Users/Utente/Desktop/Tesi/Firmware_Software/DAVE project/S2GLP_Pulsed_Doppler/HostCommunication/inc\PayloadHelper.h ****     return value.i64;
 388:C:/Users/Utente/Desktop/Tesi/Firmware_Software/DAVE project/S2GLP_Pulsed_Doppler/HostCommunication/inc\PayloadHelper.h **** }
 389:C:/Users/Utente/Desktop/Tesi/Firmware_Software/DAVE project/S2GLP_Pulsed_Doppler/HostCommunication/inc\PayloadHelper.h **** 
 390:C:/Users/Utente/Desktop/Tesi/Firmware_Software/DAVE project/S2GLP_Pulsed_Doppler/HostCommunication/inc\PayloadHelper.h **** static inline uint64_t rd_payload_u64(const uint8_t* payload, uint16_t offset)
 391:C:/Users/Utente/Desktop/Tesi/Firmware_Software/DAVE project/S2GLP_Pulsed_Doppler/HostCommunication/inc\PayloadHelper.h **** {
 392:C:/Users/Utente/Desktop/Tesi/Firmware_Software/DAVE project/S2GLP_Pulsed_Doppler/HostCommunication/inc\PayloadHelper.h ****     union
 393:C:/Users/Utente/Desktop/Tesi/Firmware_Software/DAVE project/S2GLP_Pulsed_Doppler/HostCommunication/inc\PayloadHelper.h ****     {
 394:C:/Users/Utente/Desktop/Tesi/Firmware_Software/DAVE project/S2GLP_Pulsed_Doppler/HostCommunication/inc\PayloadHelper.h ****         uint32_t u32[2];
 395:C:/Users/Utente/Desktop/Tesi/Firmware_Software/DAVE project/S2GLP_Pulsed_Doppler/HostCommunication/inc\PayloadHelper.h ****         uint64_t u64;
 396:C:/Users/Utente/Desktop/Tesi/Firmware_Software/DAVE project/S2GLP_Pulsed_Doppler/HostCommunication/inc\PayloadHelper.h ****     } value;
 397:C:/Users/Utente/Desktop/Tesi/Firmware_Software/DAVE project/S2GLP_Pulsed_Doppler/HostCommunication/inc\PayloadHelper.h ****     value.u32[0] = *(uint32_t*)(payload + offset);
 398:C:/Users/Utente/Desktop/Tesi/Firmware_Software/DAVE project/S2GLP_Pulsed_Doppler/HostCommunication/inc\PayloadHelper.h ****     value.u32[1] = *(uint32_t*)(payload + offset + 4);
 399:C:/Users/Utente/Desktop/Tesi/Firmware_Software/DAVE project/S2GLP_Pulsed_Doppler/HostCommunication/inc\PayloadHelper.h **** 
 400:C:/Users/Utente/Desktop/Tesi/Firmware_Software/DAVE project/S2GLP_Pulsed_Doppler/HostCommunication/inc\PayloadHelper.h ****     return value.u64;
 401:C:/Users/Utente/Desktop/Tesi/Firmware_Software/DAVE project/S2GLP_Pulsed_Doppler/HostCommunication/inc\PayloadHelper.h **** }
 402:C:/Users/Utente/Desktop/Tesi/Firmware_Software/DAVE project/S2GLP_Pulsed_Doppler/HostCommunication/inc\PayloadHelper.h **** 
 403:C:/Users/Utente/Desktop/Tesi/Firmware_Software/DAVE project/S2GLP_Pulsed_Doppler/HostCommunication/inc\PayloadHelper.h **** static inline void wr_payload_i16(uint8_t* payload, uint16_t offset,
 404:C:/Users/Utente/Desktop/Tesi/Firmware_Software/DAVE project/S2GLP_Pulsed_Doppler/HostCommunication/inc\PayloadHelper.h ****                                   int16_t iValue)
 405:C:/Users/Utente/Desktop/Tesi/Firmware_Software/DAVE project/S2GLP_Pulsed_Doppler/HostCommunication/inc\PayloadHelper.h **** {
 406:C:/Users/Utente/Desktop/Tesi/Firmware_Software/DAVE project/S2GLP_Pulsed_Doppler/HostCommunication/inc\PayloadHelper.h ****     *(int16_t*)(payload + offset) = iValue;
 407:C:/Users/Utente/Desktop/Tesi/Firmware_Software/DAVE project/S2GLP_Pulsed_Doppler/HostCommunication/inc\PayloadHelper.h **** }
 408:C:/Users/Utente/Desktop/Tesi/Firmware_Software/DAVE project/S2GLP_Pulsed_Doppler/HostCommunication/inc\PayloadHelper.h **** 
 409:C:/Users/Utente/Desktop/Tesi/Firmware_Software/DAVE project/S2GLP_Pulsed_Doppler/HostCommunication/inc\PayloadHelper.h **** static inline void wr_payload_u16(uint8_t* payload, uint16_t offset,
 410:C:/Users/Utente/Desktop/Tesi/Firmware_Software/DAVE project/S2GLP_Pulsed_Doppler/HostCommunication/inc\PayloadHelper.h ****                                   uint16_t value)
 411:C:/Users/Utente/Desktop/Tesi/Firmware_Software/DAVE project/S2GLP_Pulsed_Doppler/HostCommunication/inc\PayloadHelper.h **** {
 412:C:/Users/Utente/Desktop/Tesi/Firmware_Software/DAVE project/S2GLP_Pulsed_Doppler/HostCommunication/inc\PayloadHelper.h ****     *(uint16_t*)(payload + offset) = value;
 413:C:/Users/Utente/Desktop/Tesi/Firmware_Software/DAVE project/S2GLP_Pulsed_Doppler/HostCommunication/inc\PayloadHelper.h **** }
 414:C:/Users/Utente/Desktop/Tesi/Firmware_Software/DAVE project/S2GLP_Pulsed_Doppler/HostCommunication/inc\PayloadHelper.h **** 
 415:C:/Users/Utente/Desktop/Tesi/Firmware_Software/DAVE project/S2GLP_Pulsed_Doppler/HostCommunication/inc\PayloadHelper.h **** static inline void wr_payload_i32(uint8_t* payload, uint16_t offset,
 416:C:/Users/Utente/Desktop/Tesi/Firmware_Software/DAVE project/S2GLP_Pulsed_Doppler/HostCommunication/inc\PayloadHelper.h ****                                   int32_t value)
 417:C:/Users/Utente/Desktop/Tesi/Firmware_Software/DAVE project/S2GLP_Pulsed_Doppler/HostCommunication/inc\PayloadHelper.h **** {
 418:C:/Users/Utente/Desktop/Tesi/Firmware_Software/DAVE project/S2GLP_Pulsed_Doppler/HostCommunication/inc\PayloadHelper.h ****     *(int32_t*)(payload + offset) = value;
 419:C:/Users/Utente/Desktop/Tesi/Firmware_Software/DAVE project/S2GLP_Pulsed_Doppler/HostCommunication/inc\PayloadHelper.h **** }
 420:C:/Users/Utente/Desktop/Tesi/Firmware_Software/DAVE project/S2GLP_Pulsed_Doppler/HostCommunication/inc\PayloadHelper.h **** 
 421:C:/Users/Utente/Desktop/Tesi/Firmware_Software/DAVE project/S2GLP_Pulsed_Doppler/HostCommunication/inc\PayloadHelper.h **** static inline void wr_payload_u32(uint8_t* payload, uint16_t offset,
 422:C:/Users/Utente/Desktop/Tesi/Firmware_Software/DAVE project/S2GLP_Pulsed_Doppler/HostCommunication/inc\PayloadHelper.h ****                                   uint32_t value)
 423:C:/Users/Utente/Desktop/Tesi/Firmware_Software/DAVE project/S2GLP_Pulsed_Doppler/HostCommunication/inc\PayloadHelper.h **** {
 424:C:/Users/Utente/Desktop/Tesi/Firmware_Software/DAVE project/S2GLP_Pulsed_Doppler/HostCommunication/inc\PayloadHelper.h ****     *(uint32_t*)(payload + offset) = value;
 425:C:/Users/Utente/Desktop/Tesi/Firmware_Software/DAVE project/S2GLP_Pulsed_Doppler/HostCommunication/inc\PayloadHelper.h **** }
 426:C:/Users/Utente/Desktop/Tesi/Firmware_Software/DAVE project/S2GLP_Pulsed_Doppler/HostCommunication/inc\PayloadHelper.h **** 
 427:C:/Users/Utente/Desktop/Tesi/Firmware_Software/DAVE project/S2GLP_Pulsed_Doppler/HostCommunication/inc\PayloadHelper.h **** static inline void wr_payload_i64(uint8_t* payload, uint16_t offset,
 428:C:/Users/Utente/Desktop/Tesi/Firmware_Software/DAVE project/S2GLP_Pulsed_Doppler/HostCommunication/inc\PayloadHelper.h ****                                   int64_t value)
 429:C:/Users/Utente/Desktop/Tesi/Firmware_Software/DAVE project/S2GLP_Pulsed_Doppler/HostCommunication/inc\PayloadHelper.h **** {
 430:C:/Users/Utente/Desktop/Tesi/Firmware_Software/DAVE project/S2GLP_Pulsed_Doppler/HostCommunication/inc\PayloadHelper.h ****     union
 431:C:/Users/Utente/Desktop/Tesi/Firmware_Software/DAVE project/S2GLP_Pulsed_Doppler/HostCommunication/inc\PayloadHelper.h ****     {
 432:C:/Users/Utente/Desktop/Tesi/Firmware_Software/DAVE project/S2GLP_Pulsed_Doppler/HostCommunication/inc\PayloadHelper.h ****         uint32_t u32[2];
 433:C:/Users/Utente/Desktop/Tesi/Firmware_Software/DAVE project/S2GLP_Pulsed_Doppler/HostCommunication/inc\PayloadHelper.h ****         int64_t i64;
 434:C:/Users/Utente/Desktop/Tesi/Firmware_Software/DAVE project/S2GLP_Pulsed_Doppler/HostCommunication/inc\PayloadHelper.h ****     } value_;
 435:C:/Users/Utente/Desktop/Tesi/Firmware_Software/DAVE project/S2GLP_Pulsed_Doppler/HostCommunication/inc\PayloadHelper.h ****     value_.i64 = value;
 436:C:/Users/Utente/Desktop/Tesi/Firmware_Software/DAVE project/S2GLP_Pulsed_Doppler/HostCommunication/inc\PayloadHelper.h ****     *(uint32_t*)(payload + offset)     = value_.u32[0];
 437:C:/Users/Utente/Desktop/Tesi/Firmware_Software/DAVE project/S2GLP_Pulsed_Doppler/HostCommunication/inc\PayloadHelper.h ****     *(uint32_t*)(payload + offset + 4) = value_.u32[1];
 438:C:/Users/Utente/Desktop/Tesi/Firmware_Software/DAVE project/S2GLP_Pulsed_Doppler/HostCommunication/inc\PayloadHelper.h **** }
 439:C:/Users/Utente/Desktop/Tesi/Firmware_Software/DAVE project/S2GLP_Pulsed_Doppler/HostCommunication/inc\PayloadHelper.h **** 
 440:C:/Users/Utente/Desktop/Tesi/Firmware_Software/DAVE project/S2GLP_Pulsed_Doppler/HostCommunication/inc\PayloadHelper.h **** static inline void wr_payload_u64(uint8_t* payload, uint16_t offset,
 441:C:/Users/Utente/Desktop/Tesi/Firmware_Software/DAVE project/S2GLP_Pulsed_Doppler/HostCommunication/inc\PayloadHelper.h ****                                   uint64_t value)
 442:C:/Users/Utente/Desktop/Tesi/Firmware_Software/DAVE project/S2GLP_Pulsed_Doppler/HostCommunication/inc\PayloadHelper.h **** {
 443:C:/Users/Utente/Desktop/Tesi/Firmware_Software/DAVE project/S2GLP_Pulsed_Doppler/HostCommunication/inc\PayloadHelper.h ****     union
 444:C:/Users/Utente/Desktop/Tesi/Firmware_Software/DAVE project/S2GLP_Pulsed_Doppler/HostCommunication/inc\PayloadHelper.h ****     {
 445:C:/Users/Utente/Desktop/Tesi/Firmware_Software/DAVE project/S2GLP_Pulsed_Doppler/HostCommunication/inc\PayloadHelper.h ****         uint32_t u32[2];
 446:C:/Users/Utente/Desktop/Tesi/Firmware_Software/DAVE project/S2GLP_Pulsed_Doppler/HostCommunication/inc\PayloadHelper.h ****         uint64_t u64;
 447:C:/Users/Utente/Desktop/Tesi/Firmware_Software/DAVE project/S2GLP_Pulsed_Doppler/HostCommunication/inc\PayloadHelper.h ****     } value_;
 448:C:/Users/Utente/Desktop/Tesi/Firmware_Software/DAVE project/S2GLP_Pulsed_Doppler/HostCommunication/inc\PayloadHelper.h ****     value_.u64 = value;
 449:C:/Users/Utente/Desktop/Tesi/Firmware_Software/DAVE project/S2GLP_Pulsed_Doppler/HostCommunication/inc\PayloadHelper.h ****     *(uint32_t*)(payload + offset)     = value_.u32[0];
 450:C:/Users/Utente/Desktop/Tesi/Firmware_Software/DAVE project/S2GLP_Pulsed_Doppler/HostCommunication/inc\PayloadHelper.h ****     *(uint32_t*)(payload + offset + 4) = value_.u32[1];
 451:C:/Users/Utente/Desktop/Tesi/Firmware_Software/DAVE project/S2GLP_Pulsed_Doppler/HostCommunication/inc\PayloadHelper.h **** }
 452:C:/Users/Utente/Desktop/Tesi/Firmware_Software/DAVE project/S2GLP_Pulsed_Doppler/HostCommunication/inc\PayloadHelper.h **** 
 453:C:/Users/Utente/Desktop/Tesi/Firmware_Software/DAVE project/S2GLP_Pulsed_Doppler/HostCommunication/inc\PayloadHelper.h **** /*
 454:C:/Users/Utente/Desktop/Tesi/Firmware_Software/DAVE project/S2GLP_Pulsed_Doppler/HostCommunication/inc\PayloadHelper.h **** ==============================================================================
 455:C:/Users/Utente/Desktop/Tesi/Firmware_Software/DAVE project/S2GLP_Pulsed_Doppler/HostCommunication/inc\PayloadHelper.h ****    4. INLINE FUNCTIONS
 456:C:/Users/Utente/Desktop/Tesi/Firmware_Software/DAVE project/S2GLP_Pulsed_Doppler/HostCommunication/inc\PayloadHelper.h **** ==============================================================================
 457:C:/Users/Utente/Desktop/Tesi/Firmware_Software/DAVE project/S2GLP_Pulsed_Doppler/HostCommunication/inc\PayloadHelper.h ****  */
 458:C:/Users/Utente/Desktop/Tesi/Firmware_Software/DAVE project/S2GLP_Pulsed_Doppler/HostCommunication/inc\PayloadHelper.h **** #else
 459:C:/Users/Utente/Desktop/Tesi/Firmware_Software/DAVE project/S2GLP_Pulsed_Doppler/HostCommunication/inc\PayloadHelper.h **** /*
 460:C:/Users/Utente/Desktop/Tesi/Firmware_Software/DAVE project/S2GLP_Pulsed_Doppler/HostCommunication/inc\PayloadHelper.h ****  * The following function implementations are safe on any platform, but slower
 461:C:/Users/Utente/Desktop/Tesi/Firmware_Software/DAVE project/S2GLP_Pulsed_Doppler/HostCommunication/inc\PayloadHelper.h ****  * than the native little endian implementations.
 462:C:/Users/Utente/Desktop/Tesi/Firmware_Software/DAVE project/S2GLP_Pulsed_Doppler/HostCommunication/inc\PayloadHelper.h ****  */
 463:C:/Users/Utente/Desktop/Tesi/Firmware_Software/DAVE project/S2GLP_Pulsed_Doppler/HostCommunication/inc\PayloadHelper.h **** 
 464:C:/Users/Utente/Desktop/Tesi/Firmware_Software/DAVE project/S2GLP_Pulsed_Doppler/HostCommunication/inc\PayloadHelper.h **** static inline int16_t rd_payload_i16(const uint8_t* payload, size_t offset)
 465:C:/Users/Utente/Desktop/Tesi/Firmware_Software/DAVE project/S2GLP_Pulsed_Doppler/HostCommunication/inc\PayloadHelper.h **** {
 466:C:/Users/Utente/Desktop/Tesi/Firmware_Software/DAVE project/S2GLP_Pulsed_Doppler/HostCommunication/inc\PayloadHelper.h ****     return (int16_t)((((uint16_t)payload[offset + 1]) <<  8) |
 467:C:/Users/Utente/Desktop/Tesi/Firmware_Software/DAVE project/S2GLP_Pulsed_Doppler/HostCommunication/inc\PayloadHelper.h ****                       ((uint16_t)payload[offset    ]));
 468:C:/Users/Utente/Desktop/Tesi/Firmware_Software/DAVE project/S2GLP_Pulsed_Doppler/HostCommunication/inc\PayloadHelper.h **** }
 469:C:/Users/Utente/Desktop/Tesi/Firmware_Software/DAVE project/S2GLP_Pulsed_Doppler/HostCommunication/inc\PayloadHelper.h **** 
 470:C:/Users/Utente/Desktop/Tesi/Firmware_Software/DAVE project/S2GLP_Pulsed_Doppler/HostCommunication/inc\PayloadHelper.h **** static inline uint16_t rd_payload_u16(const uint8_t* payload, size_t offset)
 471:C:/Users/Utente/Desktop/Tesi/Firmware_Software/DAVE project/S2GLP_Pulsed_Doppler/HostCommunication/inc\PayloadHelper.h **** {
 472:C:/Users/Utente/Desktop/Tesi/Firmware_Software/DAVE project/S2GLP_Pulsed_Doppler/HostCommunication/inc\PayloadHelper.h ****     return (((uint16_t)payload[offset + 1]) <<  8) |
 349              	 .loc 2 472 0
 350 0040 E17D     	 ldrb r1,[r4,#23]
 473:C:/Users/Utente/Desktop/Tesi/Firmware_Software/DAVE project/S2GLP_Pulsed_Doppler/HostCommunication/inc\PayloadHelper.h ****             ((uint16_t)payload[offset    ]);
 351              	 .loc 2 473 0
 352 0042 A27D     	 ldrb r2,[r4,#22]
 353              	.LBE265:
 354              	.LBE264:
 394:../HostCommunication/src/Protocol.c ****                 {
 355              	 .loc 1 394 0
 356 0044 5A2B     	 cmp r3,#90
 357 0046 78D0     	 beq .L36
 358              	.LBB266:
 359              	.LBB267:
 360              	.LBB268:
 361              	.LBB269:
 241:C:/Users/Utente/Desktop/Tesi/Firmware_Software/DAVE project/S2GLP_Pulsed_Doppler/HostCommunication/inc\PayloadHelper.h ****     return sizeof(uint8_t);
 362              	 .loc 2 241 0
 363 0048 914B     	 ldr r3,.L92+4
 364 004a 12AD     	 add r5,sp,#72
 365              	.LVL18:
 366              	.L88:
 367              	.LBE269:
 368              	.LBE268:
 369              	.LBE267:
 370              	.LBE266:
 371              	.LBE261:
 372              	.LBB282:
 373              	.LBB283:
 374              	.LBB284:
 375              	.LBB285:
 376              	.LBB286:
 377 004c 45F8403D 	 str r3,[r5,#-64]!
 378              	.LBE286:
 379              	.LBE285:
 380              	.LBE284:
 381              	.LBE283:
 486:../HostCommunication/src/Protocol.c ****                     send_status_message(0, PROTOCOL_ERROR_BAD_PAYLOAD_END);
 382              	 .loc 1 486 0
 383 0050 0423     	 movs r3,#4
 384              	.LBB292:
 385              	.LBB289:
 631:../HostCommunication/src/Protocol.c ****     com_flush();
 386              	 .loc 1 631 0
 387 0052 2846     	 mov r0,r5
 388 0054 1946     	 mov r1,r3
 389              	.LBE289:
 390              	.LBE292:
 486:../HostCommunication/src/Protocol.c ****                     send_status_message(0, PROTOCOL_ERROR_BAD_PAYLOAD_END);
 391              	 .loc 1 486 0
 392 0056 7371     	 strb r3,[r6,#5]
 393              	.LVL19:
 394              	.LBB293:
 395              	.LBB290:
 631:../HostCommunication/src/Protocol.c ****     com_flush();
 396              	 .loc 1 631 0
 397 0058 FFF7FEFF 	 bl com_send_data
 398              	.LVL20:
 632:../HostCommunication/src/Protocol.c **** }
 399              	 .loc 1 632 0
 400 005c FFF7FEFF 	 bl com_flush
 401              	.LVL21:
 402              	.L87:
 403 0060 7379     	 ldrb r3,[r6,#5]
 404              	.L27:
 405              	.LBE290:
 406              	.LBE293:
 407              	.LBE282:
 551:../HostCommunication/src/Protocol.c ****     {
 408              	 .loc 1 551 0
 409 0062 042B     	 cmp r3,#4
 410 0064 DED1     	 bne .L24
 411              	.L53:
 412              	.LBB444:
 556:../HostCommunication/src/Protocol.c ****             instance.num_bytes_awaited = sizeof(dummy_buffer);
 413              	 .loc 1 556 0
 414 0066 894E     	 ldr r6,.L92
 415 0068 02AD     	 add r5,sp,#8
 557:../HostCommunication/src/Protocol.c ****             receive_data();
 416              	 .loc 1 557 0
 417 006a 4027     	 movs r7,#64
 418              	.L26:
 419              	.LBB445:
 420              	.LBB446:
 650:../HostCommunication/src/Protocol.c ****                                                instance.num_bytes_awaited);
 421              	 .loc 1 650 0 discriminator 1
 422 006c 4021     	 movs r1,#64
 423 006e 2846     	 mov r0,r5
 424              	.LBE446:
 425              	.LBE445:
 556:../HostCommunication/src/Protocol.c ****             instance.num_bytes_awaited = sizeof(dummy_buffer);
 426              	 .loc 1 556 0 discriminator 1
 427 0070 A560     	 str r5,[r4,#8]
 557:../HostCommunication/src/Protocol.c ****             receive_data();
 428              	 .loc 1 557 0 discriminator 1
 429 0072 A781     	 strh r7,[r4,#12]
 430              	.LBB459:
 431              	.LBB456:
 650:../HostCommunication/src/Protocol.c ****                                                instance.num_bytes_awaited);
 432              	 .loc 1 650 0 discriminator 1
 433 0074 FFF7FEFF 	 bl com_get_data
 434              	.LVL22:
 653:../HostCommunication/src/Protocol.c **** 
 435              	 .loc 1 653 0 discriminator 1
 436 0078 A389     	 ldrh r3,[r4,#12]
 652:../HostCommunication/src/Protocol.c ****     instance.num_bytes_awaited -= num_received_bytes;
 437              	 .loc 1 652 0 discriminator 1
 438 007a A268     	 ldr r2,[r4,#8]
 656:../HostCommunication/src/Protocol.c ****     {
 439              	 .loc 1 656 0 discriminator 1
 440 007c 216A     	 ldr r1,[r4,#32]
 653:../HostCommunication/src/Protocol.c **** 
 441              	 .loc 1 653 0 discriminator 1
 442 007e 1B1A     	 subs r3,r3,r0
 443 0080 9BB2     	 uxth r3,r3
 652:../HostCommunication/src/Protocol.c ****     instance.num_bytes_awaited -= num_received_bytes;
 444              	 .loc 1 652 0 discriminator 1
 445 0082 0244     	 add r2,r2,r0
 650:../HostCommunication/src/Protocol.c ****                                                instance.num_bytes_awaited);
 446              	 .loc 1 650 0 discriminator 1
 447 0084 8046     	 mov r8,r0
 448              	.LVL23:
 653:../HostCommunication/src/Protocol.c **** 
 449              	 .loc 1 653 0 discriminator 1
 450 0086 A381     	 strh r3,[r4,#12]
 652:../HostCommunication/src/Protocol.c ****     instance.num_bytes_awaited -= num_received_bytes;
 451              	 .loc 1 652 0 discriminator 1
 452 0088 A260     	 str r2,[r4,#8]
 656:../HostCommunication/src/Protocol.c ****     {
 453              	 .loc 1 656 0 discriminator 1
 454 008a 11B3     	 cbz r1,.L55
 455              	.LBB447:
 659:../HostCommunication/src/Protocol.c **** 
 456              	 .loc 1 659 0
 457 008c 8847     	 blx r1
 458              	.LVL24:
 664:../HostCommunication/src/Protocol.c ****         {
 459              	 .loc 1 664 0
 460 008e B8F1000F 	 cmp r8,#0
 461 0092 21D1     	 bne .L56
 666:../HostCommunication/src/Protocol.c ****         	{
 462              	 .loc 1 666 0
 463 0094 3369     	 ldr r3,[r6,#16]
 464 0096 9842     	 cmp r0,r3
 465 0098 19D3     	 bcc .L89
 673:../HostCommunication/src/Protocol.c **** 					(current_time >= instance.time_of_last_byte +
 466              	 .loc 1 673 0
 467 009a 7179     	 ldrb r1,[r6,#5]
 468 009c 09B3     	 cbz r1,.L59
 674:../HostCommunication/src/Protocol.c **** 									 instance.timeout_interval))
 469              	 .loc 1 674 0
 470 009e 726A     	 ldr r2,[r6,#36]
 471 00a0 1344     	 add r3,r3,r2
 673:../HostCommunication/src/Protocol.c **** 					(current_time >= instance.time_of_last_byte +
 472              	 .loc 1 673 0
 473 00a2 9842     	 cmp r0,r3
 474 00a4 1DD3     	 bcc .L59
 678:../HostCommunication/src/Protocol.c **** 						send_status_message(0, PROTOCOL_ERROR_TIMEOUT);
 475              	 .loc 1 678 0
 476 00a6 0429     	 cmp r1,#4
 477 00a8 08D0     	 beq .L60
 478              	.LVL25:
 479              	.LBB448:
 480              	.LBB449:
 481              	.LBB450:
 482              	.LBB451:
 241:C:/Users/Utente/Desktop/Tesi/Firmware_Software/DAVE project/S2GLP_Pulsed_Doppler/HostCommunication/inc\PayloadHelper.h ****     return sizeof(uint8_t);
 483              	 .loc 2 241 0
 484 00aa 12A8     	 add r0,sp,#72
 485              	.LVL26:
 486 00ac 794B     	 ldr r3,.L92+8
 487 00ae 40F8443D 	 str r3,[r0,#-68]!
 488              	.LBE451:
 489              	.LBE450:
 631:../HostCommunication/src/Protocol.c ****     com_flush();
 490              	 .loc 1 631 0
 491 00b2 0421     	 movs r1,#4
 492 00b4 FFF7FEFF 	 bl com_send_data
 493              	.LVL27:
 632:../HostCommunication/src/Protocol.c **** }
 494              	 .loc 1 632 0
 495 00b8 FFF7FEFF 	 bl com_flush
 496              	.LVL28:
 497              	.L60:
 498              	.LBE449:
 499              	.LBE448:
 500              	.LBB452:
 501              	.LBB453:
 640:../HostCommunication/src/Protocol.c ****     instance.receive_pointer   = instance.message_frame;
 502              	 .loc 1 640 0
 503 00bc 0023     	 movs r3,#0
 641:../HostCommunication/src/Protocol.c ****     instance.num_bytes_awaited = 4;
 504              	 .loc 1 641 0
 505 00be 764A     	 ldr r2,.L92+12
 640:../HostCommunication/src/Protocol.c ****     instance.receive_pointer   = instance.message_frame;
 506              	 .loc 1 640 0
 507 00c0 6371     	 strb r3,[r4,#5]
 642:../HostCommunication/src/Protocol.c **** }
 508              	 .loc 1 642 0
 509 00c2 0423     	 movs r3,#4
 641:../HostCommunication/src/Protocol.c ****     instance.num_bytes_awaited = 4;
 510              	 .loc 1 641 0
 511 00c4 A260     	 str r2,[r4,#8]
 642:../HostCommunication/src/Protocol.c **** }
 512              	 .loc 1 642 0
 513 00c6 A381     	 strh r3,[r4,#12]
 514              	.LBE453:
 515              	.LBE452:
 516              	.LBE447:
 517              	.LBE456:
 518              	.LBE459:
 519              	.LBE444:
 566:../HostCommunication/src/Protocol.c **** 
 520              	 .loc 1 566 0
 521 00c8 12B0     	 add sp,sp,#72
 522              	.LCFI10:
 523              	 .cfi_remember_state
 524              	 .cfi_def_cfa_offset 24
 525              	 
 526 00ca BDE8F081 	 pop {r4,r5,r6,r7,r8,pc}
 527              	.LVL29:
 528              	.L89:
 529              	.LCFI11:
 530              	 .cfi_restore_state
 531 00ce B389     	 ldrh r3,[r6,#12]
 532              	.LBB462:
 533              	.LBB460:
 534              	.LBB457:
 535              	.LBB454:
 669:../HostCommunication/src/Protocol.c ****         	}
 536              	 .loc 1 669 0
 537 00d0 3061     	 str r0,[r6,#16]
 538              	.LVL30:
 539              	.L55:
 540              	.LBE454:
 541              	.LBE457:
 542              	.LBE460:
 559:../HostCommunication/src/Protocol.c **** 
 543              	 .loc 1 559 0 discriminator 1
 544 00d2 002B     	 cmp r3,#0
 545 00d4 CAD0     	 beq .L26
 546 00d6 A5E7     	 b .L24
 547              	.LVL31:
 548              	.L56:
 549 00d8 B389     	 ldrh r3,[r6,#12]
 550              	.LBB461:
 551              	.LBB458:
 552              	.LBB455:
 689:../HostCommunication/src/Protocol.c ****         }
 553              	 .loc 1 689 0
 554 00da 3061     	 str r0,[r6,#16]
 555              	.LBE455:
 556              	.LBE458:
 557              	.LBE461:
 559:../HostCommunication/src/Protocol.c **** 
 558              	 .loc 1 559 0
 559 00dc 002B     	 cmp r3,#0
 560 00de C5D0     	 beq .L26
 561 00e0 A0E7     	 b .L24
 562              	.L59:
 563 00e2 A389     	 ldrh r3,[r4,#12]
 564 00e4 002B     	 cmp r3,#0
 565 00e6 C1D0     	 beq .L26
 566 00e8 9CE7     	 b .L24
 567              	.LVL32:
 568              	.L40:
 569              	.LBE462:
 452:../HostCommunication/src/Protocol.c ****                 instance.num_bytes_awaited = 2;
 570              	 .loc 1 452 0
 571 00ea 03F11800 	 add r0,r3,#24
 453:../HostCommunication/src/Protocol.c ****                 instance.state = PROTOCOL_STATE_RECEIVING_TAIL;
 572              	 .loc 1 453 0
 573 00ee 0221     	 movs r1,#2
 454:../HostCommunication/src/Protocol.c **** 
 574              	 .loc 1 454 0
 575 00f0 0322     	 movs r2,#3
 452:../HostCommunication/src/Protocol.c ****                 instance.num_bytes_awaited = 2;
 576              	 .loc 1 452 0
 577 00f2 9860     	 str r0,[r3,#8]
 453:../HostCommunication/src/Protocol.c ****                 instance.state = PROTOCOL_STATE_RECEIVING_TAIL;
 578              	 .loc 1 453 0
 579 00f4 9981     	 strh r1,[r3,#12]
 454:../HostCommunication/src/Protocol.c **** 
 580              	 .loc 1 454 0
 581 00f6 5A71     	 strb r2,[r3,#5]
 457:../HostCommunication/src/Protocol.c **** 
 582              	 .loc 1 457 0
 583 00f8 FFF7FEFF 	 bl receive_data
 584              	.LVL33:
 585              	.L32:
 472:../HostCommunication/src/Protocol.c ****             {
 586              	 .loc 1 472 0
 587 00fc A389     	 ldrh r3,[r4,#12]
 588 00fe 634E     	 ldr r6,.L92
 589 0100 002B     	 cmp r3,#0
 590 0102 ADD1     	 bne .L87
 591              	.LVL34:
 592              	.LBB463:
 593              	.LBB294:
 594              	.LBB295:
 472:C:/Users/Utente/Desktop/Tesi/Firmware_Software/DAVE project/S2GLP_Pulsed_Doppler/HostCommunication/inc\PayloadHelper.h ****             ((uint16_t)payload[offset    ]);
 595              	 .loc 2 472 0
 596 0104 717E     	 ldrb r1,[r6,#25]
 597 0106 337E     	 ldrb r3,[r6,#24]
 598              	.LBE295:
 599              	.LBE294:
 600              	.LBB297:
 601              	.LBB298:
  94:C:/Users/Utente/Desktop/Tesi/Firmware_Software/DAVE project/S2GLP_Pulsed_Doppler/HostCommunication/inc\PayloadHelper.h **** }
 602              	 .loc 2 94 0
 603 0108 777D     	 ldrb r7,[r6,#21]
 604              	.LVL35:
 605              	.LBE298:
 606              	.LBE297:
 607              	.LBB299:
 608              	.LBB300:
 472:C:/Users/Utente/Desktop/Tesi/Firmware_Software/DAVE project/S2GLP_Pulsed_Doppler/HostCommunication/inc\PayloadHelper.h ****             ((uint16_t)payload[offset    ]);
 609              	 .loc 2 472 0
 610 010a F07D     	 ldrb r0,[r6,#23]
 611              	 .loc 2 473 0
 612 010c B27D     	 ldrb r2,[r6,#22]
 613              	.LVL36:
 614              	.LBE300:
 615              	.LBE299:
 616              	.LBB302:
 617              	.LBB296:
 472:C:/Users/Utente/Desktop/Tesi/Firmware_Software/DAVE project/S2GLP_Pulsed_Doppler/HostCommunication/inc\PayloadHelper.h ****             ((uint16_t)payload[offset    ]);
 618              	 .loc 2 472 0
 619 010e 43EA0123 	 orr r3,r3,r1,lsl#8
 620              	.LBE296:
 621              	.LBE302:
 484:../HostCommunication/src/Protocol.c ****                 {
 622              	 .loc 1 484 0
 623 0112 4EF2DB01 	 movw r1,#57563
 624 0116 8B42     	 cmp r3,r1
 625 0118 1BD0     	 beq .L42
 626              	.LBB303:
 627              	.LBB291:
 628              	.LBB288:
 629              	.LBB287:
 241:C:/Users/Utente/Desktop/Tesi/Firmware_Software/DAVE project/S2GLP_Pulsed_Doppler/HostCommunication/inc\PayloadHelper.h ****     return sizeof(uint8_t);
 630              	 .loc 2 241 0
 631 011a 12AD     	 add r5,sp,#72
 632 011c 5F4B     	 ldr r3,.L92+16
 633 011e 95E7     	 b .L88
 634              	.LVL37:
 635              	.L39:
 636              	.LBE287:
 637              	.LBE288:
 638              	.LBE291:
 639              	.LBE303:
 640              	.LBE463:
 641              	.LBB464:
 422:../HostCommunication/src/Protocol.c ****                     instance.num_bytes_awaited = payload_size;
 642              	 .loc 1 422 0
 643 0120 F169     	 ldr r1,[r6,#28]
 423:../HostCommunication/src/Protocol.c ****                     instance.state = PROTOCOL_STATE_RECEIVING_PAYLOAD;
 644              	 .loc 1 423 0
 645 0122 B281     	 strh r2,[r6,#12]
 424:../HostCommunication/src/Protocol.c ****                 }
 646              	 .loc 1 424 0
 647 0124 0223     	 movs r3,#2
 422:../HostCommunication/src/Protocol.c ****                     instance.num_bytes_awaited = payload_size;
 648              	 .loc 1 422 0
 649 0126 B160     	 str r1,[r6,#8]
 424:../HostCommunication/src/Protocol.c ****                 }
 650              	 .loc 1 424 0
 651 0128 7371     	 strb r3,[r6,#5]
 434:../HostCommunication/src/Protocol.c **** 
 652              	 .loc 1 434 0
 653 012a FFF7FEFF 	 bl receive_data
 654              	.LVL38:
 655              	.L31:
 656              	.LBE464:
 449:../HostCommunication/src/Protocol.c ****             {
 657              	 .loc 1 449 0
 658 012e A289     	 ldrh r2,[r4,#12]
 659 0130 564B     	 ldr r3,.L92
 660 0132 002A     	 cmp r2,#0
 661 0134 D9D0     	 beq .L40
 662 0136 5B79     	 ldrb r3,[r3,#5]
 663 0138 93E7     	 b .L27
 664              	.LVL39:
 665              	.L36:
 666              	.LBB465:
 402:../HostCommunication/src/Protocol.c ****                 {
 667              	 .loc 1 402 0
 668 013a 3379     	 ldrb r3,[r6,#4]
 669 013c 8342     	 cmp r3,r0
 670 013e 29D3     	 bcc .L37
 407:../HostCommunication/src/Protocol.c ****                     {
 671              	 .loc 1 407 0
 672 0140 52EA0122 	 orrs r2,r2,r1,lsl#8
 673 0144 4AD0     	 beq .L90
 415:../HostCommunication/src/Protocol.c ****                     {
 674              	 .loc 1 415 0
 675 0146 F36A     	 ldr r3,[r6,#44]
 676 0148 9A42     	 cmp r2,r3
 677 014a E9D9     	 bls .L39
 678              	.LBB270:
 679              	.LBB271:
 680              	.LBB272:
 681              	.LBB273:
 241:C:/Users/Utente/Desktop/Tesi/Firmware_Software/DAVE project/S2GLP_Pulsed_Doppler/HostCommunication/inc\PayloadHelper.h ****     return sizeof(uint8_t);
 682              	 .loc 2 241 0
 683 014c 12AD     	 add r5,sp,#72
 684 014e 544B     	 ldr r3,.L92+20
 685 0150 7CE7     	 b .L88
 686              	.LVL40:
 687              	.L42:
 688              	.LBE273:
 689              	.LBE272:
 690              	.LBE271:
 691              	.LBE270:
 692              	.LBE465:
 693              	.LBB466:
 694              	.LBB304:
 695              	.LBB301:
 472:C:/Users/Utente/Desktop/Tesi/Firmware_Software/DAVE project/S2GLP_Pulsed_Doppler/HostCommunication/inc\PayloadHelper.h ****             ((uint16_t)payload[offset    ]);
 696              	 .loc 2 472 0
 697 0152 42EA0022 	 orr r2,r2,r0,lsl#8
 698              	.LBE301:
 699              	.LBE304:
 496:../HostCommunication/src/Protocol.c ****                 {
 700              	 .loc 1 496 0
 701 0156 07B3     	 cbz r7,.L43
 702              	.LBB305:
 504:../HostCommunication/src/Protocol.c ****                     status_code = current_ep->handle_message(endpoint,
 703              	 .loc 1 504 0
 704 0158 3568     	 ldr r5,[r6]
 505:../HostCommunication/src/Protocol.c ****                                                              instance.payload,
 705              	 .loc 1 505 0
 706 015a F169     	 ldr r1,[r6,#28]
 504:../HostCommunication/src/Protocol.c ****                     status_code = current_ep->handle_message(endpoint,
 707              	 .loc 1 504 0
 708 015c 1420     	 movs r0,#20
 709 015e 6FF01303 	 mvn r3,#19
 710 0162 10FB0733 	 smlabb r3,r0,r7,r3
 711 0166 2B44     	 add r3,r3,r5
 712              	.LVL41:
 505:../HostCommunication/src/Protocol.c ****                                                              instance.payload,
 713              	 .loc 1 505 0
 714 0168 3846     	 mov r0,r7
 715 016a 9D68     	 ldr r5,[r3,#8]
 716 016c DB68     	 ldr r3,[r3,#12]
 717              	.LVL42:
 718 016e A847     	 blx r5
 719              	.LVL43:
 720              	.LBB306:
 721              	.LBB307:
 722              	.LBB308:
 723              	.LBB309:
 241:C:/Users/Utente/Desktop/Tesi/Firmware_Software/DAVE project/S2GLP_Pulsed_Doppler/HostCommunication/inc\PayloadHelper.h ****     return sizeof(uint8_t);
 724              	 .loc 2 241 0
 725 0170 5B22     	 movs r2,#91
 726              	.LBE309:
 727              	.LBE308:
 728              	.LBE307:
 729              	.LBE306:
 505:../HostCommunication/src/Protocol.c ****                                                              instance.payload,
 730              	 .loc 1 505 0
 731 0172 0346     	 mov r3,r0
 732              	.LVL44:
 733              	.LBB321:
 734              	.LBB320:
 735              	.LBB311:
 736              	.LBB312:
 474:C:/Users/Utente/Desktop/Tesi/Firmware_Software/DAVE project/S2GLP_Pulsed_Doppler/HostCommunication/inc\PayloadHelper.h **** }
 475:C:/Users/Utente/Desktop/Tesi/Firmware_Software/DAVE project/S2GLP_Pulsed_Doppler/HostCommunication/inc\PayloadHelper.h **** 
 476:C:/Users/Utente/Desktop/Tesi/Firmware_Software/DAVE project/S2GLP_Pulsed_Doppler/HostCommunication/inc\PayloadHelper.h **** static inline int32_t rd_payload_i32(const uint8_t* payload, size_t offset)
 477:C:/Users/Utente/Desktop/Tesi/Firmware_Software/DAVE project/S2GLP_Pulsed_Doppler/HostCommunication/inc\PayloadHelper.h **** {
 478:C:/Users/Utente/Desktop/Tesi/Firmware_Software/DAVE project/S2GLP_Pulsed_Doppler/HostCommunication/inc\PayloadHelper.h ****     return (int32_t)((((uint32_t)payload[offset + 3]) << 24) |
 479:C:/Users/Utente/Desktop/Tesi/Firmware_Software/DAVE project/S2GLP_Pulsed_Doppler/HostCommunication/inc\PayloadHelper.h ****                      (((uint32_t)payload[offset + 2]) << 16) |
 480:C:/Users/Utente/Desktop/Tesi/Firmware_Software/DAVE project/S2GLP_Pulsed_Doppler/HostCommunication/inc\PayloadHelper.h ****                      (((uint32_t)payload[offset + 1]) <<  8) |
 481:C:/Users/Utente/Desktop/Tesi/Firmware_Software/DAVE project/S2GLP_Pulsed_Doppler/HostCommunication/inc\PayloadHelper.h ****                       ((uint32_t)payload[offset    ]));
 482:C:/Users/Utente/Desktop/Tesi/Firmware_Software/DAVE project/S2GLP_Pulsed_Doppler/HostCommunication/inc\PayloadHelper.h **** }
 483:C:/Users/Utente/Desktop/Tesi/Firmware_Software/DAVE project/S2GLP_Pulsed_Doppler/HostCommunication/inc\PayloadHelper.h **** 
 484:C:/Users/Utente/Desktop/Tesi/Firmware_Software/DAVE project/S2GLP_Pulsed_Doppler/HostCommunication/inc\PayloadHelper.h **** static inline uint32_t rd_payload_u32(const uint8_t* payload, size_t offset)
 485:C:/Users/Utente/Desktop/Tesi/Firmware_Software/DAVE project/S2GLP_Pulsed_Doppler/HostCommunication/inc\PayloadHelper.h **** {
 486:C:/Users/Utente/Desktop/Tesi/Firmware_Software/DAVE project/S2GLP_Pulsed_Doppler/HostCommunication/inc\PayloadHelper.h ****     return (((uint32_t)payload[offset + 3]) << 24) |
 487:C:/Users/Utente/Desktop/Tesi/Firmware_Software/DAVE project/S2GLP_Pulsed_Doppler/HostCommunication/inc\PayloadHelper.h ****            (((uint32_t)payload[offset + 2]) << 16) |
 488:C:/Users/Utente/Desktop/Tesi/Firmware_Software/DAVE project/S2GLP_Pulsed_Doppler/HostCommunication/inc\PayloadHelper.h ****            (((uint32_t)payload[offset + 1]) <<  8) |
 489:C:/Users/Utente/Desktop/Tesi/Firmware_Software/DAVE project/S2GLP_Pulsed_Doppler/HostCommunication/inc\PayloadHelper.h ****             ((uint32_t)payload[offset    ]);
 490:C:/Users/Utente/Desktop/Tesi/Firmware_Software/DAVE project/S2GLP_Pulsed_Doppler/HostCommunication/inc\PayloadHelper.h **** }
 491:C:/Users/Utente/Desktop/Tesi/Firmware_Software/DAVE project/S2GLP_Pulsed_Doppler/HostCommunication/inc\PayloadHelper.h **** 
 492:C:/Users/Utente/Desktop/Tesi/Firmware_Software/DAVE project/S2GLP_Pulsed_Doppler/HostCommunication/inc\PayloadHelper.h **** static inline int64_t rd_payload_i64(const uint8_t* payload, size_t offset)
 493:C:/Users/Utente/Desktop/Tesi/Firmware_Software/DAVE project/S2GLP_Pulsed_Doppler/HostCommunication/inc\PayloadHelper.h **** {
 494:C:/Users/Utente/Desktop/Tesi/Firmware_Software/DAVE project/S2GLP_Pulsed_Doppler/HostCommunication/inc\PayloadHelper.h ****     return (int64_t)((((uint64_t)payload[offset + 7]) << 56) |
 495:C:/Users/Utente/Desktop/Tesi/Firmware_Software/DAVE project/S2GLP_Pulsed_Doppler/HostCommunication/inc\PayloadHelper.h ****                      (((uint64_t)payload[offset + 6]) << 48) |
 496:C:/Users/Utente/Desktop/Tesi/Firmware_Software/DAVE project/S2GLP_Pulsed_Doppler/HostCommunication/inc\PayloadHelper.h ****                      (((uint64_t)payload[offset + 5]) << 40) |
 497:C:/Users/Utente/Desktop/Tesi/Firmware_Software/DAVE project/S2GLP_Pulsed_Doppler/HostCommunication/inc\PayloadHelper.h ****                      (((uint64_t)payload[offset + 4]) << 32) |
 498:C:/Users/Utente/Desktop/Tesi/Firmware_Software/DAVE project/S2GLP_Pulsed_Doppler/HostCommunication/inc\PayloadHelper.h ****                      (((uint64_t)payload[offset + 3]) << 24) |
 499:C:/Users/Utente/Desktop/Tesi/Firmware_Software/DAVE project/S2GLP_Pulsed_Doppler/HostCommunication/inc\PayloadHelper.h ****                      (((uint64_t)payload[offset + 2]) << 16) |
 500:C:/Users/Utente/Desktop/Tesi/Firmware_Software/DAVE project/S2GLP_Pulsed_Doppler/HostCommunication/inc\PayloadHelper.h ****                      (((uint64_t)payload[offset + 1]) <<  8) |
 501:C:/Users/Utente/Desktop/Tesi/Firmware_Software/DAVE project/S2GLP_Pulsed_Doppler/HostCommunication/inc\PayloadHelper.h ****                       ((uint64_t)payload[offset    ]));
 502:C:/Users/Utente/Desktop/Tesi/Firmware_Software/DAVE project/S2GLP_Pulsed_Doppler/HostCommunication/inc\PayloadHelper.h **** }
 503:C:/Users/Utente/Desktop/Tesi/Firmware_Software/DAVE project/S2GLP_Pulsed_Doppler/HostCommunication/inc\PayloadHelper.h **** 
 504:C:/Users/Utente/Desktop/Tesi/Firmware_Software/DAVE project/S2GLP_Pulsed_Doppler/HostCommunication/inc\PayloadHelper.h **** static inline uint64_t rd_payload_u64(const uint8_t* payload, size_t offset)
 505:C:/Users/Utente/Desktop/Tesi/Firmware_Software/DAVE project/S2GLP_Pulsed_Doppler/HostCommunication/inc\PayloadHelper.h **** {
 506:C:/Users/Utente/Desktop/Tesi/Firmware_Software/DAVE project/S2GLP_Pulsed_Doppler/HostCommunication/inc\PayloadHelper.h ****     return (((uint64_t)payload[offset + 7]) << 56) |
 507:C:/Users/Utente/Desktop/Tesi/Firmware_Software/DAVE project/S2GLP_Pulsed_Doppler/HostCommunication/inc\PayloadHelper.h ****            (((uint64_t)payload[offset + 6]) << 48) |
 508:C:/Users/Utente/Desktop/Tesi/Firmware_Software/DAVE project/S2GLP_Pulsed_Doppler/HostCommunication/inc\PayloadHelper.h ****            (((uint64_t)payload[offset + 5]) << 40) |
 509:C:/Users/Utente/Desktop/Tesi/Firmware_Software/DAVE project/S2GLP_Pulsed_Doppler/HostCommunication/inc\PayloadHelper.h ****            (((uint64_t)payload[offset + 4]) << 32) |
 510:C:/Users/Utente/Desktop/Tesi/Firmware_Software/DAVE project/S2GLP_Pulsed_Doppler/HostCommunication/inc\PayloadHelper.h ****            (((uint64_t)payload[offset + 3]) << 24) |
 511:C:/Users/Utente/Desktop/Tesi/Firmware_Software/DAVE project/S2GLP_Pulsed_Doppler/HostCommunication/inc\PayloadHelper.h ****            (((uint64_t)payload[offset + 2]) << 16) |
 512:C:/Users/Utente/Desktop/Tesi/Firmware_Software/DAVE project/S2GLP_Pulsed_Doppler/HostCommunication/inc\PayloadHelper.h ****            (((uint64_t)payload[offset + 1]) <<  8) |
 513:C:/Users/Utente/Desktop/Tesi/Firmware_Software/DAVE project/S2GLP_Pulsed_Doppler/HostCommunication/inc\PayloadHelper.h ****             ((uint64_t)payload[offset    ]);
 514:C:/Users/Utente/Desktop/Tesi/Firmware_Software/DAVE project/S2GLP_Pulsed_Doppler/HostCommunication/inc\PayloadHelper.h **** }
 515:C:/Users/Utente/Desktop/Tesi/Firmware_Software/DAVE project/S2GLP_Pulsed_Doppler/HostCommunication/inc\PayloadHelper.h **** 
 516:C:/Users/Utente/Desktop/Tesi/Firmware_Software/DAVE project/S2GLP_Pulsed_Doppler/HostCommunication/inc\PayloadHelper.h **** 
 517:C:/Users/Utente/Desktop/Tesi/Firmware_Software/DAVE project/S2GLP_Pulsed_Doppler/HostCommunication/inc\PayloadHelper.h **** static inline float rd_payload_float(const uint8_t* payload, size_t offset)
 518:C:/Users/Utente/Desktop/Tesi/Firmware_Software/DAVE project/S2GLP_Pulsed_Doppler/HostCommunication/inc\PayloadHelper.h **** {
 519:C:/Users/Utente/Desktop/Tesi/Firmware_Software/DAVE project/S2GLP_Pulsed_Doppler/HostCommunication/inc\PayloadHelper.h **** 	STATIC_ASSERT(sizeof(float) == sizeof(uint32_t));
 520:C:/Users/Utente/Desktop/Tesi/Firmware_Software/DAVE project/S2GLP_Pulsed_Doppler/HostCommunication/inc\PayloadHelper.h **** 		typedef union {
 521:C:/Users/Utente/Desktop/Tesi/Firmware_Software/DAVE project/S2GLP_Pulsed_Doppler/HostCommunication/inc\PayloadHelper.h **** 			uint32_t u32_value;
 522:C:/Users/Utente/Desktop/Tesi/Firmware_Software/DAVE project/S2GLP_Pulsed_Doppler/HostCommunication/inc\PayloadHelper.h **** 			float float_value;
 523:C:/Users/Utente/Desktop/Tesi/Firmware_Software/DAVE project/S2GLP_Pulsed_Doppler/HostCommunication/inc\PayloadHelper.h **** 		} temp_union;
 524:C:/Users/Utente/Desktop/Tesi/Firmware_Software/DAVE project/S2GLP_Pulsed_Doppler/HostCommunication/inc\PayloadHelper.h **** 
 525:C:/Users/Utente/Desktop/Tesi/Firmware_Software/DAVE project/S2GLP_Pulsed_Doppler/HostCommunication/inc\PayloadHelper.h **** 	temp_union data;
 526:C:/Users/Utente/Desktop/Tesi/Firmware_Software/DAVE project/S2GLP_Pulsed_Doppler/HostCommunication/inc\PayloadHelper.h **** 
 527:C:/Users/Utente/Desktop/Tesi/Firmware_Software/DAVE project/S2GLP_Pulsed_Doppler/HostCommunication/inc\PayloadHelper.h **** 	data.u32_value =
 528:C:/Users/Utente/Desktop/Tesi/Firmware_Software/DAVE project/S2GLP_Pulsed_Doppler/HostCommunication/inc\PayloadHelper.h ****     		(((uint32_t)payload[offset + 3]) << 24) |
 529:C:/Users/Utente/Desktop/Tesi/Firmware_Software/DAVE project/S2GLP_Pulsed_Doppler/HostCommunication/inc\PayloadHelper.h ****            (((uint32_t)payload[offset + 2]) << 16) |
 530:C:/Users/Utente/Desktop/Tesi/Firmware_Software/DAVE project/S2GLP_Pulsed_Doppler/HostCommunication/inc\PayloadHelper.h ****            (((uint32_t)payload[offset + 1]) <<  8) |
 531:C:/Users/Utente/Desktop/Tesi/Firmware_Software/DAVE project/S2GLP_Pulsed_Doppler/HostCommunication/inc\PayloadHelper.h ****             ((uint32_t)payload[offset    ]);
 532:C:/Users/Utente/Desktop/Tesi/Firmware_Software/DAVE project/S2GLP_Pulsed_Doppler/HostCommunication/inc\PayloadHelper.h **** 
 533:C:/Users/Utente/Desktop/Tesi/Firmware_Software/DAVE project/S2GLP_Pulsed_Doppler/HostCommunication/inc\PayloadHelper.h ****     return data.float_value;
 534:C:/Users/Utente/Desktop/Tesi/Firmware_Software/DAVE project/S2GLP_Pulsed_Doppler/HostCommunication/inc\PayloadHelper.h **** }
 535:C:/Users/Utente/Desktop/Tesi/Firmware_Software/DAVE project/S2GLP_Pulsed_Doppler/HostCommunication/inc\PayloadHelper.h **** 
 536:C:/Users/Utente/Desktop/Tesi/Firmware_Software/DAVE project/S2GLP_Pulsed_Doppler/HostCommunication/inc\PayloadHelper.h **** 
 537:C:/Users/Utente/Desktop/Tesi/Firmware_Software/DAVE project/S2GLP_Pulsed_Doppler/HostCommunication/inc\PayloadHelper.h **** static inline size_t wr_payload_i16(uint8_t* payload, size_t offset,
 538:C:/Users/Utente/Desktop/Tesi/Firmware_Software/DAVE project/S2GLP_Pulsed_Doppler/HostCommunication/inc\PayloadHelper.h ****                                   int16_t value)
 539:C:/Users/Utente/Desktop/Tesi/Firmware_Software/DAVE project/S2GLP_Pulsed_Doppler/HostCommunication/inc\PayloadHelper.h **** {
 540:C:/Users/Utente/Desktop/Tesi/Firmware_Software/DAVE project/S2GLP_Pulsed_Doppler/HostCommunication/inc\PayloadHelper.h ****     payload[offset + 1] = (((uint16_t)value) >>  8) & 0xFF;
 541:C:/Users/Utente/Desktop/Tesi/Firmware_Software/DAVE project/S2GLP_Pulsed_Doppler/HostCommunication/inc\PayloadHelper.h ****     payload[offset    ] =  ((uint16_t)value)        & 0xFF;
 542:C:/Users/Utente/Desktop/Tesi/Firmware_Software/DAVE project/S2GLP_Pulsed_Doppler/HostCommunication/inc\PayloadHelper.h ****     return sizeof(int16_t);
 543:C:/Users/Utente/Desktop/Tesi/Firmware_Software/DAVE project/S2GLP_Pulsed_Doppler/HostCommunication/inc\PayloadHelper.h **** }
 544:C:/Users/Utente/Desktop/Tesi/Firmware_Software/DAVE project/S2GLP_Pulsed_Doppler/HostCommunication/inc\PayloadHelper.h **** 
 545:C:/Users/Utente/Desktop/Tesi/Firmware_Software/DAVE project/S2GLP_Pulsed_Doppler/HostCommunication/inc\PayloadHelper.h **** static inline size_t wr_payload_u16(uint8_t* payload, size_t offset,
 546:C:/Users/Utente/Desktop/Tesi/Firmware_Software/DAVE project/S2GLP_Pulsed_Doppler/HostCommunication/inc\PayloadHelper.h ****                                   uint16_t value)
 547:C:/Users/Utente/Desktop/Tesi/Firmware_Software/DAVE project/S2GLP_Pulsed_Doppler/HostCommunication/inc\PayloadHelper.h **** {
 548:C:/Users/Utente/Desktop/Tesi/Firmware_Software/DAVE project/S2GLP_Pulsed_Doppler/HostCommunication/inc\PayloadHelper.h ****     payload[offset + 1] = (value >>  8) & 0xFF;
 737              	 .loc 2 548 0
 738 0174 050A     	 lsrs r5,r0,#8
 739              	.LBE312:
 740              	.LBE311:
 631:../HostCommunication/src/Protocol.c ****     com_flush();
 741              	 .loc 1 631 0
 742 0176 0421     	 movs r1,#4
 743 0178 02A8     	 add r0,sp,#8
 744              	.LVL45:
 745              	.LBB315:
 746              	.LBB313:
 549:C:/Users/Utente/Desktop/Tesi/Firmware_Software/DAVE project/S2GLP_Pulsed_Doppler/HostCommunication/inc\PayloadHelper.h ****     payload[offset    ] =  value        & 0xFF;
 747              	 .loc 2 549 0
 748 017a 8DF80A30 	 strb r3,[sp,#10]
 749              	.LBE313:
 750              	.LBE315:
 751              	.LBB316:
 752              	.LBB310:
 241:C:/Users/Utente/Desktop/Tesi/Firmware_Software/DAVE project/S2GLP_Pulsed_Doppler/HostCommunication/inc\PayloadHelper.h ****     return sizeof(uint8_t);
 753              	 .loc 2 241 0
 754 017e 8DF80820 	 strb r2,[sp,#8]
 755              	.LBE310:
 756              	.LBE316:
 757              	.LBB317:
 758              	.LBB314:
 548:C:/Users/Utente/Desktop/Tesi/Firmware_Software/DAVE project/S2GLP_Pulsed_Doppler/HostCommunication/inc\PayloadHelper.h ****     payload[offset    ] =  value        & 0xFF;
 759              	 .loc 2 548 0
 760 0182 8DF80B50 	 strb r5,[sp,#11]
 761              	.LVL46:
 762              	.LBE314:
 763              	.LBE317:
 764              	.LBB318:
 765              	.LBB319:
 241:C:/Users/Utente/Desktop/Tesi/Firmware_Software/DAVE project/S2GLP_Pulsed_Doppler/HostCommunication/inc\PayloadHelper.h ****     return sizeof(uint8_t);
 766              	 .loc 2 241 0
 767 0186 8DF80970 	 strb r7,[sp,#9]
 768              	.LBE319:
 769              	.LBE318:
 631:../HostCommunication/src/Protocol.c ****     com_flush();
 770              	 .loc 1 631 0
 771 018a FFF7FEFF 	 bl com_send_data
 772              	.LVL47:
 632:../HostCommunication/src/Protocol.c **** }
 773              	 .loc 1 632 0
 774 018e FFF7FEFF 	 bl com_flush
 775              	.LVL48:
 776 0192 93E7     	 b .L60
 777              	.LVL49:
 778              	.L37:
 779              	.LBE320:
 780              	.LBE321:
 781              	.LBE305:
 782              	.LBE466:
 783              	.LBB467:
 784              	.LBB274:
 785              	.LBB275:
 786              	.LBB276:
 787              	.LBB277:
 241:C:/Users/Utente/Desktop/Tesi/Firmware_Software/DAVE project/S2GLP_Pulsed_Doppler/HostCommunication/inc\PayloadHelper.h ****     return sizeof(uint8_t);
 788              	 .loc 2 241 0
 789 0194 12AD     	 add r5,sp,#72
 790 0196 434B     	 ldr r3,.L92+24
 791 0198 58E7     	 b .L88
 792              	.LVL50:
 793              	.L43:
 794 019a F369     	 ldr r3,[r6,#28]
 795 019c 93F80080 	 ldrb r8,[r3]
 796              	.LVL51:
 797              	.LBE277:
 798              	.LBE276:
 799              	.LBE275:
 800              	.LBE274:
 801              	.LBE467:
 802              	.LBB468:
 803              	.LBB322:
 804              	.LBB323:
 805              	.LBB324:
 693:../HostCommunication/src/Protocol.c **** 
 694:../HostCommunication/src/Protocol.c **** //============================================================================
 695:../HostCommunication/src/Protocol.c **** 
 696:../HostCommunication/src/Protocol.c **** static uint16_t handle_message(uint8_t *message_data, uint16_t num_bytes)
 697:../HostCommunication/src/Protocol.c **** {
 698:../HostCommunication/src/Protocol.c ****     /* check command byte of received message */
 699:../HostCommunication/src/Protocol.c ****     switch (message_data[0])
 806              	 .loc 1 699 0
 807 01a0 B8F1010F 	 cmp r8,#1
 808 01a4 00F08280 	 beq .L46
 809 01a8 1BD3     	 bcc .L47
 810 01aa B8F1020F 	 cmp r8,#2
 811 01ae 02D1     	 bne .L68
 700:../HostCommunication/src/Protocol.c ****     {
 701:../HostCommunication/src/Protocol.c ****     case CNST_MSG_QUERY_ENDPOINT_INFO:
 702:../HostCommunication/src/Protocol.c ****         if (num_bytes == 1)
 703:../HostCommunication/src/Protocol.c ****         {
 704:../HostCommunication/src/Protocol.c ****             send_endpoint_info();
 705:../HostCommunication/src/Protocol.c ****             {
 706:../HostCommunication/src/Protocol.c ****             	extern void app_reset_protocol(void);
 707:../HostCommunication/src/Protocol.c ****             	app_reset_protocol();
 708:../HostCommunication/src/Protocol.c ****             }
 709:../HostCommunication/src/Protocol.c **** 
 710:../HostCommunication/src/Protocol.c ****             return PROTOCOL_ERROR_OK;
 711:../HostCommunication/src/Protocol.c ****         }
 712:../HostCommunication/src/Protocol.c ****         break;
 713:../HostCommunication/src/Protocol.c **** 
 714:../HostCommunication/src/Protocol.c ****     case CNST_MSG_QUERY_FW_INFO:
 715:../HostCommunication/src/Protocol.c ****         if (num_bytes == 1)
 716:../HostCommunication/src/Protocol.c ****         {
 717:../HostCommunication/src/Protocol.c ****             send_firmware_info();
 718:../HostCommunication/src/Protocol.c ****             return PROTOCOL_ERROR_OK;
 719:../HostCommunication/src/Protocol.c ****         }
 720:../HostCommunication/src/Protocol.c ****         break;
 721:../HostCommunication/src/Protocol.c **** 
 722:../HostCommunication/src/Protocol.c ****     case CNST_MSG_FIRMWARE_RESET:
 723:../HostCommunication/src/Protocol.c ****         if (num_bytes == 1)
 812              	 .loc 1 723 0
 813 01b0 012A     	 cmp r2,#1
 814 01b2 00F0CC80 	 beq .L91
 815              	.LVL52:
 816              	.L68:
 724:../HostCommunication/src/Protocol.c ****         {
 725:../HostCommunication/src/Protocol.c ****             /* if user did not set system reset function, this feature is not
 726:../HostCommunication/src/Protocol.c ****              * supported.
 727:../HostCommunication/src/Protocol.c ****              */
 728:../HostCommunication/src/Protocol.c ****             if (instance.do_system_reset == NULL)
 817              	 .loc 1 728 0
 818 01b6 FF27     	 movs r7,#255
 819 01b8 02AD     	 add r5,sp,#8
 820              	.LVL53:
 821              	.L45:
 822              	.LBE324:
 823              	.LBE323:
 824              	.LBB430:
 825              	.LBB431:
 826              	.LBB432:
 827              	.LBB433:
 241:C:/Users/Utente/Desktop/Tesi/Firmware_Software/DAVE project/S2GLP_Pulsed_Doppler/HostCommunication/inc\PayloadHelper.h ****     return sizeof(uint8_t);
 828              	 .loc 2 241 0
 829 01ba 5B22     	 movs r2,#91
 830              	.LBE433:
 831              	.LBE432:
 832              	.LBB435:
 833              	.LBB436:
 834 01bc 0023     	 movs r3,#0
 835              	.LBE436:
 836              	.LBE435:
 631:../HostCommunication/src/Protocol.c ****     com_flush();
 837              	 .loc 1 631 0
 838 01be 2846     	 mov r0,r5
 839 01c0 0421     	 movs r1,#4
 840              	.LBB438:
 841              	.LBB434:
 241:C:/Users/Utente/Desktop/Tesi/Firmware_Software/DAVE project/S2GLP_Pulsed_Doppler/HostCommunication/inc\PayloadHelper.h ****     return sizeof(uint8_t);
 842              	 .loc 2 241 0
 843 01c2 8DF80820 	 strb r2,[sp,#8]
 844              	.LVL54:
 845              	.LBE434:
 846              	.LBE438:
 847              	.LBB439:
 848              	.LBB437:
 849 01c6 8DF80930 	 strb r3,[sp,#9]
 850              	.LVL55:
 851              	.LBE437:
 852              	.LBE439:
 853              	.LBB440:
 854              	.LBB441:
 548:C:/Users/Utente/Desktop/Tesi/Firmware_Software/DAVE project/S2GLP_Pulsed_Doppler/HostCommunication/inc\PayloadHelper.h ****     payload[offset    ] =  value        & 0xFF;
 855              	 .loc 2 548 0
 856 01ca 8DF80B70 	 strb r7,[sp,#11]
 857              	 .loc 2 549 0
 858 01ce 8DF80A70 	 strb r7,[sp,#10]
 859              	.LBE441:
 860              	.LBE440:
 631:../HostCommunication/src/Protocol.c ****     com_flush();
 861              	 .loc 1 631 0
 862 01d2 FFF7FEFF 	 bl com_send_data
 863              	.LVL56:
 632:../HostCommunication/src/Protocol.c **** }
 864              	 .loc 1 632 0
 865 01d6 FFF7FEFF 	 bl com_flush
 866              	.LVL57:
 867 01da 6FE7     	 b .L60
 868              	.LVL58:
 869              	.L90:
 870              	.LBE431:
 871              	.LBE430:
 872              	.LBE322:
 873              	.LBE468:
 874              	.LBB469:
 875              	.LBB278:
 876              	.LBB279:
 877              	.LBB280:
 878              	.LBB281:
 241:C:/Users/Utente/Desktop/Tesi/Firmware_Software/DAVE project/S2GLP_Pulsed_Doppler/HostCommunication/inc\PayloadHelper.h ****     return sizeof(uint8_t);
 879              	 .loc 2 241 0
 880 01dc 12AD     	 add r5,sp,#72
 881 01de 324B     	 ldr r3,.L92+28
 882 01e0 34E7     	 b .L88
 883              	.LVL59:
 884              	.L47:
 885              	.LBE281:
 886              	.LBE280:
 887              	.LBE279:
 888              	.LBE278:
 889              	.LBE469:
 890              	.LBB470:
 891              	.LBB443:
 892              	.LBB442:
 893              	.LBB429:
 702:../HostCommunication/src/Protocol.c ****         {
 894              	 .loc 1 702 0
 895 01e2 012A     	 cmp r2,#1
 896 01e4 E7D1     	 bne .L68
 897              	.LVL60:
 898              	.LBB325:
 899              	.LBB326:
 729:../HostCommunication/src/Protocol.c ****                 return PROTOCOL_STATUS_INVALID_PAYLOAD;
 730:../HostCommunication/src/Protocol.c **** 
 731:../HostCommunication/src/Protocol.c ****             /* send status message first, after the reset it won't be
 732:../HostCommunication/src/Protocol.c ****              * possible.
 733:../HostCommunication/src/Protocol.c ****              */
 734:../HostCommunication/src/Protocol.c ****             send_status_message(0, PROTOCOL_ERROR_OK);
 735:../HostCommunication/src/Protocol.c **** 
 736:../HostCommunication/src/Protocol.c ****             /* now do the system reset */
 737:../HostCommunication/src/Protocol.c ****             instance.do_system_reset();
 738:../HostCommunication/src/Protocol.c **** 
 739:../HostCommunication/src/Protocol.c ****             return PROTOCOL_ERROR_OK;
 740:../HostCommunication/src/Protocol.c ****         }
 741:../HostCommunication/src/Protocol.c ****         break;
 742:../HostCommunication/src/Protocol.c **** 
 743:../HostCommunication/src/Protocol.c ****     default:
 744:../HostCommunication/src/Protocol.c ****         break;
 745:../HostCommunication/src/Protocol.c ****     }
 746:../HostCommunication/src/Protocol.c **** 
 747:../HostCommunication/src/Protocol.c ****     return PROTOCOL_ERROR_BAD_COMMAND;
 748:../HostCommunication/src/Protocol.c **** }
 749:../HostCommunication/src/Protocol.c **** 
 750:../HostCommunication/src/Protocol.c **** //============================================================================
 751:../HostCommunication/src/Protocol.c **** 
 752:../HostCommunication/src/Protocol.c **** static void send_endpoint_info(void)
 753:../HostCommunication/src/Protocol.c **** {
 754:../HostCommunication/src/Protocol.c ****     uint8_t i;
 755:../HostCommunication/src/Protocol.c **** 
 756:../HostCommunication/src/Protocol.c ****     /* setup message start (type und number of endpoints */
 757:../HostCommunication/src/Protocol.c ****     uint8_t message_header[2];
 758:../HostCommunication/src/Protocol.c ****     wr_payload_u8(message_header, 0, CNST_MSG_ENDPOINT_INFO);
 759:../HostCommunication/src/Protocol.c ****     wr_payload_u8(message_header, 1, instance.num_endpoints);
 900              	 .loc 1 759 0
 901 01e6 3279     	 ldrb r2,[r6,#4]
 902              	.LVL61:
 903              	.LBB327:
 904              	.LBB328:
 241:C:/Users/Utente/Desktop/Tesi/Firmware_Software/DAVE project/S2GLP_Pulsed_Doppler/HostCommunication/inc\PayloadHelper.h ****     return sizeof(uint8_t);
 905              	 .loc 2 241 0
 906 01e8 8DF80520 	 strb r2,[sp,#5]
 907              	.LBE328:
 908              	.LBE327:
 760:../HostCommunication/src/Protocol.c **** 
 761:../HostCommunication/src/Protocol.c ****     /* calculate message size and send start of message */
 762:../HostCommunication/src/Protocol.c ****     protocol_send_header(0, 6 * instance.num_endpoints +
 909              	 .loc 1 762 0
 910 01ec 02EB4203 	 add r3,r2,r2,lsl#1
 911              	.LVL62:
 912 01f0 5B00     	 lsls r3,r3,#1
 913 01f2 0233     	 adds r3,r3,#2
 914 01f4 9BB2     	 uxth r3,r3
 915              	.LVL63:
 916              	.LBB329:
 917              	.LBB330:
 578:../HostCommunication/src/Protocol.c **** }
 918              	 .loc 1 578 0
 919 01f6 02AD     	 add r5,sp,#8
 920              	.LVL64:
 921              	.LBB331:
 922              	.LBB332:
 548:C:/Users/Utente/Desktop/Tesi/Firmware_Software/DAVE project/S2GLP_Pulsed_Doppler/HostCommunication/inc\PayloadHelper.h ****     payload[offset    ] =  value        & 0xFF;
 923              	 .loc 2 548 0
 924 01f8 4FEA132C 	 lsr ip,r3,#8
 925              	.LBE332:
 926              	.LBE331:
 927              	.LBB334:
 928              	.LBB335:
 241:C:/Users/Utente/Desktop/Tesi/Firmware_Software/DAVE project/S2GLP_Pulsed_Doppler/HostCommunication/inc\PayloadHelper.h ****     return sizeof(uint8_t);
 929              	 .loc 2 241 0
 930 01fc 4FF05A0E 	 mov lr,#90
 931              	.LBE335:
 932              	.LBE334:
 578:../HostCommunication/src/Protocol.c **** }
 933              	 .loc 1 578 0
 934 0200 2846     	 mov r0,r5
 935              	.LVL65:
 936 0202 0421     	 movs r1,#4
 937              	.LBB337:
 938              	.LBB333:
 939              	 .loc 2 549 0
 940 0204 8DF80A30 	 strb r3,[sp,#10]
 548:C:/Users/Utente/Desktop/Tesi/Firmware_Software/DAVE project/S2GLP_Pulsed_Doppler/HostCommunication/inc\PayloadHelper.h ****     payload[offset    ] =  value        & 0xFF;
 941              	 .loc 2 548 0
 942 0208 8DF80BC0 	 strb ip,[sp,#11]
 943              	.LBE333:
 944              	.LBE337:
 945              	.LBB338:
 946              	.LBB336:
 241:C:/Users/Utente/Desktop/Tesi/Firmware_Software/DAVE project/S2GLP_Pulsed_Doppler/HostCommunication/inc\PayloadHelper.h ****     return sizeof(uint8_t);
 947              	 .loc 2 241 0
 948 020c 8DF808E0 	 strb lr,[sp,#8]
 949              	.LVL66:
 950              	.LBE336:
 951              	.LBE338:
 952              	.LBE330:
 953              	.LBE329:
 954              	.LBB342:
 955              	.LBB343:
 956 0210 8DF80470 	 strb r7,[sp,#4]
 957              	.LBE343:
 958              	.LBE342:
 959              	.LBB344:
 960              	.LBB341:
 961              	.LBB339:
 962              	.LBB340:
 963 0214 8DF80970 	 strb r7,[sp,#9]
 964              	.LBE340:
 965              	.LBE339:
 578:../HostCommunication/src/Protocol.c **** }
 966              	 .loc 1 578 0
 967 0218 FFF7FEFF 	 bl com_send_data
 968              	.LVL67:
 969              	.LBE341:
 970              	.LBE344:
 971              	.LBB345:
 972              	.LBB346:
 584:../HostCommunication/src/Protocol.c **** }
 973              	 .loc 1 584 0
 974 021c 01A8     	 add r0,sp,#4
 975              	.LVL68:
 976 021e 0221     	 movs r1,#2
 977 0220 FFF7FEFF 	 bl com_send_data
 978              	.LVL69:
 979              	.LBE346:
 980              	.LBE345:
 763:../HostCommunication/src/Protocol.c ****                             sizeof(message_header));
 764:../HostCommunication/src/Protocol.c ****     protocol_send_payload(message_header, sizeof(message_header));
 765:../HostCommunication/src/Protocol.c **** 
 766:../HostCommunication/src/Protocol.c ****     /* now send type and version for each endpoint */
 767:../HostCommunication/src/Protocol.c ****     for (i = 0; i < instance.num_endpoints; ++i)
 981              	 .loc 1 767 0
 982 0224 3379     	 ldrb r3,[r6,#4]
 983 0226 0BB3     	 cbz r3,.L50
 984              	.LVL70:
 985              	.L49:
 986              	.LBB347:
 768:../HostCommunication/src/Protocol.c ****     {
 769:../HostCommunication/src/Protocol.c ****         uint8_t ep_info[6];
 770:../HostCommunication/src/Protocol.c ****         wr_payload_u32(ep_info, 0, instance.endpoints[i].endpoint_type);
 987              	 .loc 1 770 0
 988 0228 3AB2     	 sxth r2,r7
 989 022a 2168     	 ldr r1,[r4]
 990 022c 02EB8202 	 add r2,r2,r2,lsl#2
 991              	.LBE347:
 767:../HostCommunication/src/Protocol.c ****     {
 992              	 .loc 1 767 0
 993 0230 0137     	 adds r7,r7,#1
 994              	.LVL71:
 995              	.LBB364:
 996              	 .loc 1 770 0
 997 0232 51F82230 	 ldr r3,[r1,r2,lsl#2]
 998              	.LVL72:
 999              	.LBB348:
 1000              	.LBB349:
 550:C:/Users/Utente/Desktop/Tesi/Firmware_Software/DAVE project/S2GLP_Pulsed_Doppler/HostCommunication/inc\PayloadHelper.h ****     return sizeof(uint16_t);
 551:C:/Users/Utente/Desktop/Tesi/Firmware_Software/DAVE project/S2GLP_Pulsed_Doppler/HostCommunication/inc\PayloadHelper.h **** 
 552:C:/Users/Utente/Desktop/Tesi/Firmware_Software/DAVE project/S2GLP_Pulsed_Doppler/HostCommunication/inc\PayloadHelper.h **** }
 553:C:/Users/Utente/Desktop/Tesi/Firmware_Software/DAVE project/S2GLP_Pulsed_Doppler/HostCommunication/inc\PayloadHelper.h **** 
 554:C:/Users/Utente/Desktop/Tesi/Firmware_Software/DAVE project/S2GLP_Pulsed_Doppler/HostCommunication/inc\PayloadHelper.h **** static inline size_t wr_payload_i32(uint8_t* payload, size_t offset,
 555:C:/Users/Utente/Desktop/Tesi/Firmware_Software/DAVE project/S2GLP_Pulsed_Doppler/HostCommunication/inc\PayloadHelper.h ****                                   int32_t value)
 556:C:/Users/Utente/Desktop/Tesi/Firmware_Software/DAVE project/S2GLP_Pulsed_Doppler/HostCommunication/inc\PayloadHelper.h **** {
 557:C:/Users/Utente/Desktop/Tesi/Firmware_Software/DAVE project/S2GLP_Pulsed_Doppler/HostCommunication/inc\PayloadHelper.h ****     payload[offset + 3] = (((uint32_t)value) >> 24) & 0xFF;
 558:C:/Users/Utente/Desktop/Tesi/Firmware_Software/DAVE project/S2GLP_Pulsed_Doppler/HostCommunication/inc\PayloadHelper.h ****     payload[offset + 2] = (((uint32_t)value) >> 16) & 0xFF;
 559:C:/Users/Utente/Desktop/Tesi/Firmware_Software/DAVE project/S2GLP_Pulsed_Doppler/HostCommunication/inc\PayloadHelper.h ****     payload[offset + 1] = (((uint32_t)value) >>  8) & 0xFF;
 560:C:/Users/Utente/Desktop/Tesi/Firmware_Software/DAVE project/S2GLP_Pulsed_Doppler/HostCommunication/inc\PayloadHelper.h ****     payload[offset    ] =  ((uint32_t)value)        & 0xFF;
 561:C:/Users/Utente/Desktop/Tesi/Firmware_Software/DAVE project/S2GLP_Pulsed_Doppler/HostCommunication/inc\PayloadHelper.h **** 
 562:C:/Users/Utente/Desktop/Tesi/Firmware_Software/DAVE project/S2GLP_Pulsed_Doppler/HostCommunication/inc\PayloadHelper.h ****     return sizeof(int32_t);
 563:C:/Users/Utente/Desktop/Tesi/Firmware_Software/DAVE project/S2GLP_Pulsed_Doppler/HostCommunication/inc\PayloadHelper.h **** }
 564:C:/Users/Utente/Desktop/Tesi/Firmware_Software/DAVE project/S2GLP_Pulsed_Doppler/HostCommunication/inc\PayloadHelper.h **** 
 565:C:/Users/Utente/Desktop/Tesi/Firmware_Software/DAVE project/S2GLP_Pulsed_Doppler/HostCommunication/inc\PayloadHelper.h **** static inline size_t wr_payload_u32(uint8_t* payload, size_t offset,
 566:C:/Users/Utente/Desktop/Tesi/Firmware_Software/DAVE project/S2GLP_Pulsed_Doppler/HostCommunication/inc\PayloadHelper.h ****                                   uint32_t value)
 567:C:/Users/Utente/Desktop/Tesi/Firmware_Software/DAVE project/S2GLP_Pulsed_Doppler/HostCommunication/inc\PayloadHelper.h **** {
 568:C:/Users/Utente/Desktop/Tesi/Firmware_Software/DAVE project/S2GLP_Pulsed_Doppler/HostCommunication/inc\PayloadHelper.h ****     payload[offset + 3] = (value >> 24) & 0xFF;
 569:C:/Users/Utente/Desktop/Tesi/Firmware_Software/DAVE project/S2GLP_Pulsed_Doppler/HostCommunication/inc\PayloadHelper.h ****     payload[offset + 2] = (value >> 16) & 0xFF;
 570:C:/Users/Utente/Desktop/Tesi/Firmware_Software/DAVE project/S2GLP_Pulsed_Doppler/HostCommunication/inc\PayloadHelper.h ****     payload[offset + 1] = (value >>  8) & 0xFF;
 571:C:/Users/Utente/Desktop/Tesi/Firmware_Software/DAVE project/S2GLP_Pulsed_Doppler/HostCommunication/inc\PayloadHelper.h ****     payload[offset    ] =  value        & 0xFF;
 1001              	 .loc 2 571 0
 1002 0236 8DF80830 	 strb r3,[sp,#8]
 1003              	.LBE349:
 1004              	.LBE348:
 1005              	 .loc 1 770 0
 1006 023a 01EB8202 	 add r2,r1,r2,lsl#2
 1007              	.LBB351:
 1008              	.LBB350:
 568:C:/Users/Utente/Desktop/Tesi/Firmware_Software/DAVE project/S2GLP_Pulsed_Doppler/HostCommunication/inc\PayloadHelper.h ****     payload[offset + 2] = (value >> 16) & 0xFF;
 1009              	 .loc 2 568 0
 1010 023e 180E     	 lsrs r0,r3,#24
 569:C:/Users/Utente/Desktop/Tesi/Firmware_Software/DAVE project/S2GLP_Pulsed_Doppler/HostCommunication/inc\PayloadHelper.h ****     payload[offset + 1] = (value >>  8) & 0xFF;
 1011              	 .loc 2 569 0
 1012 0240 190C     	 lsrs r1,r3,#16
 570:C:/Users/Utente/Desktop/Tesi/Firmware_Software/DAVE project/S2GLP_Pulsed_Doppler/HostCommunication/inc\PayloadHelper.h ****     payload[offset    ] =  value        & 0xFF;
 1013              	 .loc 2 570 0
 1014 0242 1B0A     	 lsrs r3,r3,#8
 1015              	.LVL73:
 568:C:/Users/Utente/Desktop/Tesi/Firmware_Software/DAVE project/S2GLP_Pulsed_Doppler/HostCommunication/inc\PayloadHelper.h ****     payload[offset + 2] = (value >> 16) & 0xFF;
 1016              	 .loc 2 568 0
 1017 0244 8DF80B00 	 strb r0,[sp,#11]
 569:C:/Users/Utente/Desktop/Tesi/Firmware_Software/DAVE project/S2GLP_Pulsed_Doppler/HostCommunication/inc\PayloadHelper.h ****     payload[offset + 1] = (value >>  8) & 0xFF;
 1018              	 .loc 2 569 0
 1019 0248 8DF80A10 	 strb r1,[sp,#10]
 570:C:/Users/Utente/Desktop/Tesi/Firmware_Software/DAVE project/S2GLP_Pulsed_Doppler/HostCommunication/inc\PayloadHelper.h ****     payload[offset    ] =  value        & 0xFF;
 1020              	 .loc 2 570 0
 1021 024c 8DF80930 	 strb r3,[sp,#9]
 1022              	.LBE350:
 1023              	.LBE351:
 771:../HostCommunication/src/Protocol.c ****         wr_payload_u16(ep_info, 4, instance.endpoints[i].endpoint_version);
 1024              	 .loc 1 771 0
 1025 0250 9388     	 ldrh r3,[r2,#4]
 1026              	.LVL74:
 1027              	.LBB352:
 1028              	.LBB353:
 549:C:/Users/Utente/Desktop/Tesi/Firmware_Software/DAVE project/S2GLP_Pulsed_Doppler/HostCommunication/inc\PayloadHelper.h ****     return sizeof(uint16_t);
 1029              	 .loc 2 549 0
 1030 0252 8DF80C30 	 strb r3,[sp,#12]
 1031              	.LVL75:
 1032              	.LBE353:
 1033              	.LBE352:
 1034              	.LBB356:
 1035              	.LBB357:
 584:../HostCommunication/src/Protocol.c **** }
 1036              	 .loc 1 584 0
 1037 0256 2846     	 mov r0,r5
 1038              	.LBE357:
 1039              	.LBE356:
 1040              	.LBB360:
 1041              	.LBB354:
 548:C:/Users/Utente/Desktop/Tesi/Firmware_Software/DAVE project/S2GLP_Pulsed_Doppler/HostCommunication/inc\PayloadHelper.h ****     payload[offset    ] =  value        & 0xFF;
 1042              	 .loc 2 548 0
 1043 0258 1B0A     	 lsrs r3,r3,#8
 1044              	.LVL76:
 1045              	.LBE354:
 1046              	.LBE360:
 1047              	.LBB361:
 1048              	.LBB358:
 584:../HostCommunication/src/Protocol.c **** }
 1049              	 .loc 1 584 0
 1050 025a 0621     	 movs r1,#6
 1051              	.LBE358:
 1052              	.LBE361:
 1053              	.LBB362:
 1054              	.LBB355:
 548:C:/Users/Utente/Desktop/Tesi/Firmware_Software/DAVE project/S2GLP_Pulsed_Doppler/HostCommunication/inc\PayloadHelper.h ****     payload[offset    ] =  value        & 0xFF;
 1055              	 .loc 2 548 0
 1056 025c 8DF80D30 	 strb r3,[sp,#13]
 1057              	.LBE355:
 1058              	.LBE362:
 1059              	.LBB363:
 1060              	.LBB359:
 584:../HostCommunication/src/Protocol.c **** }
 1061              	 .loc 1 584 0
 1062 0260 FFF7FEFF 	 bl com_send_data
 1063              	.LVL77:
 1064              	.LBE359:
 1065              	.LBE363:
 1066              	.LBE364:
 767:../HostCommunication/src/Protocol.c ****     {
 1067              	 .loc 1 767 0
 1068 0264 2379     	 ldrb r3,[r4,#4]
 1069 0266 FFB2     	 uxtb r7,r7
 1070              	.LVL78:
 1071 0268 BB42     	 cmp r3,r7
 1072 026a DDD8     	 bhi .L49
 1073              	.LVL79:
 1074              	.L50:
 1075              	.LBB365:
 1076              	.LBB366:
 1077              	.LBB367:
 1078              	.LBB368:
 548:C:/Users/Utente/Desktop/Tesi/Firmware_Software/DAVE project/S2GLP_Pulsed_Doppler/HostCommunication/inc\PayloadHelper.h ****     payload[offset    ] =  value        & 0xFF;
 1079              	 .loc 2 548 0
 1080 026c E022     	 movs r2,#224
 549:C:/Users/Utente/Desktop/Tesi/Firmware_Software/DAVE project/S2GLP_Pulsed_Doppler/HostCommunication/inc\PayloadHelper.h ****     return sizeof(uint16_t);
 1081              	 .loc 2 549 0
 1082 026e DB23     	 movs r3,#219
 1083              	.LBE368:
 1084              	.LBE367:
 593:../HostCommunication/src/Protocol.c ****     com_flush();
 1085              	 .loc 1 593 0
 1086 0270 2846     	 mov r0,r5
 1087 0272 0221     	 movs r1,#2
 1088              	.LBB370:
 1089              	.LBB369:
 548:C:/Users/Utente/Desktop/Tesi/Firmware_Software/DAVE project/S2GLP_Pulsed_Doppler/HostCommunication/inc\PayloadHelper.h ****     payload[offset    ] =  value        & 0xFF;
 1090              	 .loc 2 548 0
 1091 0274 8DF80920 	 strb r2,[sp,#9]
 549:C:/Users/Utente/Desktop/Tesi/Firmware_Software/DAVE project/S2GLP_Pulsed_Doppler/HostCommunication/inc\PayloadHelper.h ****     return sizeof(uint16_t);
 1092              	 .loc 2 549 0
 1093 0278 8DF80830 	 strb r3,[sp,#8]
 1094              	.LBE369:
 1095              	.LBE370:
 1096              	.LBE366:
 1097              	.LBE365:
 1098              	.LBE326:
 1099              	.LBE325:
 1100              	.LBB374:
 707:../HostCommunication/src/Protocol.c ****             }
 1101              	 .loc 1 707 0
 1102 027c 4746     	 mov r7,r8
 1103              	.LBE374:
 1104              	.LBB375:
 1105              	.LBB373:
 1106              	.LBB372:
 1107              	.LBB371:
 593:../HostCommunication/src/Protocol.c ****     com_flush();
 1108              	 .loc 1 593 0
 1109 027e FFF7FEFF 	 bl com_send_data
 1110              	.LVL80:
 594:../HostCommunication/src/Protocol.c **** }
 1111              	 .loc 1 594 0
 1112 0282 FFF7FEFF 	 bl com_flush
 1113              	.LVL81:
 1114              	.LBE371:
 1115              	.LBE372:
 1116              	.LBE373:
 1117              	.LBE375:
 1118              	.LBB376:
 707:../HostCommunication/src/Protocol.c ****             }
 1119              	 .loc 1 707 0
 1120 0286 FFF7FEFF 	 bl app_reset_protocol
 1121              	.LVL82:
 1122 028a 96E7     	 b .L45
 1123              	.L93:
 1124              	 .align 2
 1125              	.L92:
 1126 028c 00000000 	 .word .LANCHOR0
 1127 0290 5B000200 	 .word 131163
 1128 0294 5B000100 	 .word 65627
 1129 0298 14000000 	 .word .LANCHOR0+20
 1130 029c 5B000700 	 .word 458843
 1131 02a0 5B000600 	 .word 393307
 1132 02a4 5B000300 	 .word 196699
 1133 02a8 5B000500 	 .word 327771
 1134              	.LVL83:
 1135              	.L46:
 1136              	.LBE376:
 715:../HostCommunication/src/Protocol.c ****         {
 1137              	 .loc 1 715 0
 1138 02ac 012A     	 cmp r2,#1
 1139 02ae 82D1     	 bne .L68
 1140              	.LVL84:
 1141              	.LBB377:
 1142              	.LBB378:
 772:../HostCommunication/src/Protocol.c ****         protocol_send_payload(ep_info, sizeof(ep_info));
 773:../HostCommunication/src/Protocol.c ****     }
 774:../HostCommunication/src/Protocol.c **** 
 775:../HostCommunication/src/Protocol.c ****     /* finish the message */
 776:../HostCommunication/src/Protocol.c ****     protocol_send_tail();
 777:../HostCommunication/src/Protocol.c **** }
 778:../HostCommunication/src/Protocol.c **** 
 779:../HostCommunication/src/Protocol.c **** //============================================================================
 780:../HostCommunication/src/Protocol.c **** 
 781:../HostCommunication/src/Protocol.c **** static void send_firmware_info(void)
 782:../HostCommunication/src/Protocol.c **** {
 783:../HostCommunication/src/Protocol.c ****     uint16_t string_length = 0;
 784:../HostCommunication/src/Protocol.c **** 
 785:../HostCommunication/src/Protocol.c ****     /* setup message start (type and number of endpoints */
 786:../HostCommunication/src/Protocol.c ****     uint8_t message[7];
 787:../HostCommunication/src/Protocol.c ****     wr_payload_u8 (message, 0, CNST_MSG_FW_INFO);
 788:../HostCommunication/src/Protocol.c ****     wr_payload_u16(message, 1, firmware_information.version_major);
 1143              	 .loc 1 788 0
 1144 02b0 DFF8BC80 	 ldr r8,.L94
 1145              	.LBB379:
 1146              	.LBB380:
 241:C:/Users/Utente/Desktop/Tesi/Firmware_Software/DAVE project/S2GLP_Pulsed_Doppler/HostCommunication/inc\PayloadHelper.h ****     return sizeof(uint8_t);
 1147              	 .loc 2 241 0
 1148 02b4 8DF80820 	 strb r2,[sp,#8]
 1149              	.LBE380:
 1150              	.LBE379:
 1151              	 .loc 1 788 0
 1152 02b8 B8F80430 	 ldrh r3,[r8,#4]
 1153              	.LVL85:
 789:../HostCommunication/src/Protocol.c ****     wr_payload_u16(message, 3, firmware_information.version_minor);
 1154              	 .loc 1 789 0
 1155 02bc B8F80600 	 ldrh r0,[r8,#6]
 1156              	.LVL86:
 790:../HostCommunication/src/Protocol.c ****     wr_payload_u16(message, 5, firmware_information.version_build);
 1157              	 .loc 1 790 0
 1158 02c0 B8F80810 	 ldrh r1,[r8,#8]
 1159              	.LVL87:
 1160              	.LBB381:
 1161              	.LBB382:
 549:C:/Users/Utente/Desktop/Tesi/Firmware_Software/DAVE project/S2GLP_Pulsed_Doppler/HostCommunication/inc\PayloadHelper.h ****     return sizeof(uint16_t);
 1162              	 .loc 2 549 0
 1163 02c4 8DF80930 	 strb r3,[sp,#9]
 1164              	.LBE382:
 1165              	.LBE381:
 1166              	.LBB385:
 1167              	.LBB386:
 548:C:/Users/Utente/Desktop/Tesi/Firmware_Software/DAVE project/S2GLP_Pulsed_Doppler/HostCommunication/inc\PayloadHelper.h ****     payload[offset    ] =  value        & 0xFF;
 1168              	 .loc 2 548 0
 1169 02c8 060A     	 lsrs r6,r0,#8
 1170              	.LBE386:
 1171              	.LBE385:
 1172              	.LBB389:
 1173              	.LBB383:
 1174 02ca 1B0A     	 lsrs r3,r3,#8
 1175              	.LVL88:
 1176              	.LBE383:
 1177              	.LBE389:
 791:../HostCommunication/src/Protocol.c **** 
 792:../HostCommunication/src/Protocol.c ****     /* count length of firmware description string */
 793:../HostCommunication/src/Protocol.c ****     while (firmware_information.description[string_length] != 0)
 1178              	 .loc 1 793 0
 1179 02cc D8F80020 	 ldr r2,[r8]
 1180              	.LBB390:
 1181              	.LBB387:
 548:C:/Users/Utente/Desktop/Tesi/Firmware_Software/DAVE project/S2GLP_Pulsed_Doppler/HostCommunication/inc\PayloadHelper.h ****     payload[offset    ] =  value        & 0xFF;
 1182              	 .loc 2 548 0
 1183 02d0 8DF80C60 	 strb r6,[sp,#12]
 1184              	.LBE387:
 1185              	.LBE390:
 1186              	.LBB391:
 1187              	.LBB392:
 1188 02d4 0D0A     	 lsrs r5,r1,#8
 1189              	.LBE392:
 1190              	.LBE391:
 1191              	.LBB394:
 1192              	.LBB384:
 1193 02d6 8DF80A30 	 strb r3,[sp,#10]
 1194              	.LBE384:
 1195              	.LBE394:
 1196              	.LBB395:
 1197              	.LBB388:
 549:C:/Users/Utente/Desktop/Tesi/Firmware_Software/DAVE project/S2GLP_Pulsed_Doppler/HostCommunication/inc\PayloadHelper.h ****     return sizeof(uint16_t);
 1198              	 .loc 2 549 0
 1199 02da 8DF80B00 	 strb r0,[sp,#11]
 1200              	.LBE388:
 1201              	.LBE395:
 1202              	.LBB396:
 1203              	.LBB393:
 1204 02de 8DF80D10 	 strb r1,[sp,#13]
 548:C:/Users/Utente/Desktop/Tesi/Firmware_Software/DAVE project/S2GLP_Pulsed_Doppler/HostCommunication/inc\PayloadHelper.h ****     payload[offset    ] =  value        & 0xFF;
 1205              	 .loc 2 548 0
 1206 02e2 8DF80E50 	 strb r5,[sp,#14]
 1207              	.LBE393:
 1208              	.LBE396:
 1209              	 .loc 1 793 0
 1210 02e6 1378     	 ldrb r3,[r2]
 1211 02e8 3E46     	 mov r6,r7
 1212 02ea 23B1     	 cbz r3,.L51
 1213              	.LVL89:
 1214              	.L52:
 794:../HostCommunication/src/Protocol.c ****         ++string_length;
 1215              	 .loc 1 794 0
 1216 02ec 0136     	 adds r6,r6,#1
 1217              	.LVL90:
 1218 02ee B6B2     	 uxth r6,r6
 1219              	.LVL91:
 793:../HostCommunication/src/Protocol.c ****         ++string_length;
 1220              	 .loc 1 793 0
 1221 02f0 935D     	 ldrb r3,[r2,r6]
 1222 02f2 002B     	 cmp r3,#0
 1223 02f4 FAD1     	 bne .L52
 1224              	.LVL92:
 1225              	.L51:
 795:../HostCommunication/src/Protocol.c ****     ++string_length;
 796:../HostCommunication/src/Protocol.c **** 
 797:../HostCommunication/src/Protocol.c ****     /* send message */
 798:../HostCommunication/src/Protocol.c ****     protocol_send_header(0, sizeof(message) + string_length);
 1226              	 .loc 1 798 0
 1227 02f6 06F10803 	 add r3,r6,#8
 1228 02fa 9BB2     	 uxth r3,r3
 1229              	.LVL93:
 1230              	.LBB397:
 1231              	.LBB398:
 1232              	.LBB399:
 1233              	.LBB400:
 548:C:/Users/Utente/Desktop/Tesi/Firmware_Software/DAVE project/S2GLP_Pulsed_Doppler/HostCommunication/inc\PayloadHelper.h ****     payload[offset    ] =  value        & 0xFF;
 1234              	 .loc 2 548 0
 1235 02fc 4FEA132C 	 lsr ip,r3,#8
 1236              	.LBE400:
 1237              	.LBE399:
 1238              	.LBB402:
 1239              	.LBB403:
 241:C:/Users/Utente/Desktop/Tesi/Firmware_Software/DAVE project/S2GLP_Pulsed_Doppler/HostCommunication/inc\PayloadHelper.h ****     return sizeof(uint8_t);
 1240              	 .loc 2 241 0
 1241 0300 4FF05A0E 	 mov lr,#90
 1242              	.LBE403:
 1243              	.LBE402:
 1244              	.LBB405:
 1245              	.LBB406:
 1246 0304 0022     	 movs r2,#0
 1247              	.LBE406:
 1248              	.LBE405:
 578:../HostCommunication/src/Protocol.c **** }
 1249              	 .loc 1 578 0
 1250 0306 01A8     	 add r0,sp,#4
 1251              	.LVL94:
 1252 0308 0421     	 movs r1,#4
 1253              	.LVL95:
 1254              	.LBE398:
 1255              	.LBE397:
 1256              	.LBB412:
 1257              	.LBB413:
 584:../HostCommunication/src/Protocol.c **** }
 1258              	 .loc 1 584 0
 1259 030a 02AD     	 add r5,sp,#8
 1260              	.LVL96:
 1261              	.LBE413:
 1262              	.LBE412:
 1263              	.LBB415:
 1264              	.LBB411:
 1265              	.LBB408:
 1266              	.LBB401:
 549:C:/Users/Utente/Desktop/Tesi/Firmware_Software/DAVE project/S2GLP_Pulsed_Doppler/HostCommunication/inc\PayloadHelper.h ****     return sizeof(uint16_t);
 1267              	 .loc 2 549 0
 1268 030c 8DF80630 	 strb r3,[sp,#6]
 548:C:/Users/Utente/Desktop/Tesi/Firmware_Software/DAVE project/S2GLP_Pulsed_Doppler/HostCommunication/inc\PayloadHelper.h ****     payload[offset    ] =  value        & 0xFF;
 1269              	 .loc 2 548 0
 1270 0310 8DF807C0 	 strb ip,[sp,#7]
 1271              	.LBE401:
 1272              	.LBE408:
 1273              	.LBB409:
 1274              	.LBB404:
 241:C:/Users/Utente/Desktop/Tesi/Firmware_Software/DAVE project/S2GLP_Pulsed_Doppler/HostCommunication/inc\PayloadHelper.h ****     return sizeof(uint8_t);
 1275              	 .loc 2 241 0
 1276 0314 8DF804E0 	 strb lr,[sp,#4]
 1277              	.LVL97:
 1278              	.LBE404:
 1279              	.LBE409:
 1280              	.LBB410:
 1281              	.LBB407:
 1282 0318 8DF80520 	 strb r2,[sp,#5]
 1283              	.LVL98:
 1284              	.LBE407:
 1285              	.LBE410:
 578:../HostCommunication/src/Protocol.c **** }
 1286              	 .loc 1 578 0
 1287 031c FFF7FEFF 	 bl com_send_data
 1288              	.LVL99:
 1289              	.LBE411:
 1290              	.LBE415:
 1291              	.LBB416:
 1292              	.LBB414:
 584:../HostCommunication/src/Protocol.c **** }
 1293              	 .loc 1 584 0
 1294 0320 2846     	 mov r0,r5
 1295 0322 0721     	 movs r1,#7
 1296 0324 FFF7FEFF 	 bl com_send_data
 1297              	.LVL100:
 1298              	.LBE414:
 1299              	.LBE416:
 795:../HostCommunication/src/Protocol.c **** 
 1300              	 .loc 1 795 0
 1301 0328 711C     	 adds r1,r6,#1
 1302              	.LBB417:
 1303              	.LBB418:
 584:../HostCommunication/src/Protocol.c **** }
 1304              	 .loc 1 584 0
 1305 032a D8F80000 	 ldr r0,[r8]
 1306 032e 89B2     	 uxth r1,r1
 1307 0330 FFF7FEFF 	 bl com_send_data
 1308              	.LVL101:
 1309              	.LBE418:
 1310              	.LBE417:
 1311              	.LBB419:
 1312              	.LBB420:
 1313              	.LBB421:
 1314              	.LBB422:
 548:C:/Users/Utente/Desktop/Tesi/Firmware_Software/DAVE project/S2GLP_Pulsed_Doppler/HostCommunication/inc\PayloadHelper.h ****     payload[offset    ] =  value        & 0xFF;
 1315              	 .loc 2 548 0
 1316 0334 E022     	 movs r2,#224
 549:C:/Users/Utente/Desktop/Tesi/Firmware_Software/DAVE project/S2GLP_Pulsed_Doppler/HostCommunication/inc\PayloadHelper.h ****     return sizeof(uint16_t);
 1317              	 .loc 2 549 0
 1318 0336 DB23     	 movs r3,#219
 1319              	.LBE422:
 1320              	.LBE421:
 593:../HostCommunication/src/Protocol.c ****     com_flush();
 1321              	 .loc 1 593 0
 1322 0338 01A8     	 add r0,sp,#4
 1323              	.LVL102:
 1324 033a 0221     	 movs r1,#2
 1325              	.LBB424:
 1326              	.LBB423:
 548:C:/Users/Utente/Desktop/Tesi/Firmware_Software/DAVE project/S2GLP_Pulsed_Doppler/HostCommunication/inc\PayloadHelper.h ****     payload[offset    ] =  value        & 0xFF;
 1327              	 .loc 2 548 0
 1328 033c 8DF80520 	 strb r2,[sp,#5]
 549:C:/Users/Utente/Desktop/Tesi/Firmware_Software/DAVE project/S2GLP_Pulsed_Doppler/HostCommunication/inc\PayloadHelper.h ****     return sizeof(uint16_t);
 1329              	 .loc 2 549 0
 1330 0340 8DF80430 	 strb r3,[sp,#4]
 1331              	.LBE423:
 1332              	.LBE424:
 593:../HostCommunication/src/Protocol.c ****     com_flush();
 1333              	 .loc 1 593 0
 1334 0344 FFF7FEFF 	 bl com_send_data
 1335              	.LVL103:
 594:../HostCommunication/src/Protocol.c **** }
 1336              	 .loc 1 594 0
 1337 0348 FFF7FEFF 	 bl com_flush
 1338              	.LVL104:
 1339 034c 35E7     	 b .L45
 1340              	.LVL105:
 1341              	.L91:
 1342              	.LBE420:
 1343              	.LBE419:
 1344              	.LBE378:
 1345              	.LBE377:
 728:../HostCommunication/src/Protocol.c ****                 return PROTOCOL_STATUS_INVALID_PAYLOAD;
 1346              	 .loc 1 728 0
 1347 034e B36A     	 ldr r3,[r6,#40]
 1348              	.LVL106:
 1349 0350 002B     	 cmp r3,#0
 1350 0352 3FF430AF 	 beq .L68
 1351              	.LVL107:
 1352              	.LBB425:
 1353              	.LBB426:
 1354              	.LBB427:
 1355              	.LBB428:
 241:C:/Users/Utente/Desktop/Tesi/Firmware_Software/DAVE project/S2GLP_Pulsed_Doppler/HostCommunication/inc\PayloadHelper.h ****     return sizeof(uint8_t);
 1356              	 .loc 2 241 0
 1357 0356 12AD     	 add r5,sp,#72
 1358 0358 5B23     	 movs r3,#91
 1359 035a 45F8403D 	 str r3,[r5,#-64]!
 1360              	.LBE428:
 1361              	.LBE427:
 631:../HostCommunication/src/Protocol.c ****     com_flush();
 1362              	 .loc 1 631 0
 1363 035e 0421     	 movs r1,#4
 1364 0360 2846     	 mov r0,r5
 1365              	.LVL108:
 1366 0362 FFF7FEFF 	 bl com_send_data
 1367              	.LVL109:
 632:../HostCommunication/src/Protocol.c **** }
 1368              	 .loc 1 632 0
 1369 0366 FFF7FEFF 	 bl com_flush
 1370              	.LVL110:
 1371              	.LBE426:
 1372              	.LBE425:
 737:../HostCommunication/src/Protocol.c **** 
 1373              	 .loc 1 737 0
 1374 036a B36A     	 ldr r3,[r6,#40]
 1375 036c 9847     	 blx r3
 1376              	.LVL111:
 1377 036e 24E7     	 b .L45
 1378              	.L95:
 1379              	 .align 2
 1380              	.L94:
 1381 0370 00000000 	 .word firmware_information
 1382              	.LBE429:
 1383              	.LBE442:
 1384              	.LBE443:
 1385              	.LBE470:
 1386              	 .cfi_endproc
 1387              	.LFE18:
 1389              	 .section .text.protocol_send_header,"ax",%progbits
 1390              	 .align 2
 1391              	 .global protocol_send_header
 1392              	 .thumb
 1393              	 .thumb_func
 1395              	protocol_send_header:
 1396              	.LFB19:
 571:../HostCommunication/src/Protocol.c ****     /* setup message header and send it */
 1397              	 .loc 1 571 0
 1398              	 .cfi_startproc
 1399              	 
 1400              	 
 1401              	.LVL112:
 1402 0000 10B5     	 push {r4,lr}
 1403              	.LCFI12:
 1404              	 .cfi_def_cfa_offset 8
 1405              	 .cfi_offset 4,-8
 1406              	 .cfi_offset 14,-4
 1407 0002 82B0     	 sub sp,sp,#8
 1408              	.LCFI13:
 1409              	 .cfi_def_cfa_offset 16
 1410              	.LVL113:
 571:../HostCommunication/src/Protocol.c ****     /* setup message header and send it */
 1411              	 .loc 1 571 0
 1412 0004 0B46     	 mov r3,r1
 1413              	.LBB471:
 1414              	.LBB472:
 548:C:/Users/Utente/Desktop/Tesi/Firmware_Software/DAVE project/S2GLP_Pulsed_Doppler/HostCommunication/inc\PayloadHelper.h ****     payload[offset    ] =  value        & 0xFF;
 1415              	 .loc 2 548 0
 1416 0006 0C0A     	 lsrs r4,r1,#8
 1417              	.LBE472:
 1418              	.LBE471:
 1419              	.LBB474:
 1420              	.LBB475:
 241:C:/Users/Utente/Desktop/Tesi/Firmware_Software/DAVE project/S2GLP_Pulsed_Doppler/HostCommunication/inc\PayloadHelper.h ****     return sizeof(uint8_t);
 1421              	 .loc 2 241 0
 1422 0008 8DF80500 	 strb r0,[sp,#5]
 1423              	.LBE475:
 1424              	.LBE474:
 1425              	.LBB476:
 1426              	.LBB477:
 1427 000c 5A22     	 movs r2,#90
 1428              	.LBE477:
 1429              	.LBE476:
 578:../HostCommunication/src/Protocol.c **** }
 1430              	 .loc 1 578 0
 1431 000e 01A8     	 add r0,sp,#4
 1432              	.LVL114:
 1433 0010 0421     	 movs r1,#4
 1434              	.LVL115:
 1435              	.LBB479:
 1436              	.LBB473:
 549:C:/Users/Utente/Desktop/Tesi/Firmware_Software/DAVE project/S2GLP_Pulsed_Doppler/HostCommunication/inc\PayloadHelper.h ****     return sizeof(uint16_t);
 1437              	 .loc 2 549 0
 1438 0012 8DF80630 	 strb r3,[sp,#6]
 548:C:/Users/Utente/Desktop/Tesi/Firmware_Software/DAVE project/S2GLP_Pulsed_Doppler/HostCommunication/inc\PayloadHelper.h ****     payload[offset    ] =  value        & 0xFF;
 1439              	 .loc 2 548 0
 1440 0016 8DF80740 	 strb r4,[sp,#7]
 1441              	.LBE473:
 1442              	.LBE479:
 1443              	.LBB480:
 1444              	.LBB478:
 241:C:/Users/Utente/Desktop/Tesi/Firmware_Software/DAVE project/S2GLP_Pulsed_Doppler/HostCommunication/inc\PayloadHelper.h ****     return sizeof(uint8_t);
 1445              	 .loc 2 241 0
 1446 001a 8DF80420 	 strb r2,[sp,#4]
 1447              	.LVL116:
 1448              	.LBE478:
 1449              	.LBE480:
 578:../HostCommunication/src/Protocol.c **** }
 1450              	 .loc 1 578 0
 1451 001e FFF7FEFF 	 bl com_send_data
 1452              	.LVL117:
 579:../HostCommunication/src/Protocol.c **** 
 1453              	 .loc 1 579 0
 1454 0022 02B0     	 add sp,sp,#8
 1455              	.LCFI14:
 1456              	 .cfi_def_cfa_offset 8
 1457              	 
 1458 0024 10BD     	 pop {r4,pc}
 1459              	 .cfi_endproc
 1460              	.LFE19:
 1462 0026 00BF     	 .section .text.protocol_send_payload,"ax",%progbits
 1463              	 .align 2
 1464              	 .global protocol_send_payload
 1465              	 .thumb
 1466              	 .thumb_func
 1468              	protocol_send_payload:
 1469              	.LFB20:
 582:../HostCommunication/src/Protocol.c ****     /* send the data through the communication stream interface */
 1470              	 .loc 1 582 0
 1471              	 .cfi_startproc
 1472              	 
 1473              	 
 1474              	 
 1475              	.LVL118:
 584:../HostCommunication/src/Protocol.c **** }
 1476              	 .loc 1 584 0
 1477 0000 FFF7FEBF 	 b com_send_data
 1478              	.LVL119:
 1479              	 .cfi_endproc
 1480              	.LFE20:
 1482              	 .section .text.protocol_send_tail,"ax",%progbits
 1483              	 .align 2
 1484              	 .global protocol_send_tail
 1485              	 .thumb
 1486              	 .thumb_func
 1488              	protocol_send_tail:
 1489              	.LFB21:
 588:../HostCommunication/src/Protocol.c ****     /* setup message tail and send it */
 1490              	 .loc 1 588 0
 1491              	 .cfi_startproc
 1492              	 
 1493              	 
 1494 0000 00B5     	 push {lr}
 1495              	.LCFI15:
 1496              	 .cfi_def_cfa_offset 4
 1497              	 .cfi_offset 14,-4
 1498 0002 83B0     	 sub sp,sp,#12
 1499              	.LCFI16:
 1500              	 .cfi_def_cfa_offset 16
 1501              	.LVL120:
 1502              	.LBB481:
 1503              	.LBB482:
 549:C:/Users/Utente/Desktop/Tesi/Firmware_Software/DAVE project/S2GLP_Pulsed_Doppler/HostCommunication/inc\PayloadHelper.h ****     return sizeof(uint16_t);
 1504              	 .loc 2 549 0
 1505 0004 02A8     	 add r0,sp,#8
 1506 0006 DB23     	 movs r3,#219
 1507 0008 00F8043D 	 strb r3,[r0,#-4]!
 1508              	.LBE482:
 1509              	.LBE481:
 593:../HostCommunication/src/Protocol.c ****     com_flush();
 1510              	 .loc 1 593 0
 1511 000c 0221     	 movs r1,#2
 1512              	.LBB484:
 1513              	.LBB483:
 548:C:/Users/Utente/Desktop/Tesi/Firmware_Software/DAVE project/S2GLP_Pulsed_Doppler/HostCommunication/inc\PayloadHelper.h ****     payload[offset    ] =  value        & 0xFF;
 1514              	 .loc 2 548 0
 1515 000e E023     	 movs r3,#224
 1516 0010 8DF80530 	 strb r3,[sp,#5]
 1517              	.LBE483:
 1518              	.LBE484:
 593:../HostCommunication/src/Protocol.c ****     com_flush();
 1519              	 .loc 1 593 0
 1520 0014 FFF7FEFF 	 bl com_send_data
 1521              	.LVL121:
 594:../HostCommunication/src/Protocol.c **** }
 1522              	 .loc 1 594 0
 1523 0018 FFF7FEFF 	 bl com_flush
 1524              	.LVL122:
 595:../HostCommunication/src/Protocol.c **** 
 1525              	 .loc 1 595 0
 1526 001c 03B0     	 add sp,sp,#12
 1527              	.LCFI17:
 1528              	 .cfi_def_cfa_offset 4
 1529              	 
 1530 001e 5DF804FB 	 ldr pc,[sp],#4
 1531              	 .cfi_endproc
 1532              	.LFE21:
 1534 0022 00BF     	 .section .text.protocol_broadcast_change,"ax",%progbits
 1535              	 .align 2
 1536              	 .global protocol_broadcast_change
 1537              	 .thumb
 1538              	 .thumb_func
 1540              	protocol_broadcast_change:
 1541              	.LFB22:
 600:../HostCommunication/src/Protocol.c ****     uint8_t i;
 1542              	 .loc 1 600 0
 1543              	 .cfi_startproc
 1544              	 
 1545              	 
 1546              	.LVL123:
 1547 0000 2DE9F843 	 push {r3,r4,r5,r6,r7,r8,r9,lr}
 1548              	.LCFI18:
 1549              	 .cfi_def_cfa_offset 32
 1550              	 .cfi_offset 3,-32
 1551              	 .cfi_offset 4,-28
 1552              	 .cfi_offset 5,-24
 1553              	 .cfi_offset 6,-20
 1554              	 .cfi_offset 7,-16
 1555              	 .cfi_offset 8,-12
 1556              	 .cfi_offset 9,-8
 1557              	 .cfi_offset 14,-4
 606:../HostCommunication/src/Protocol.c ****     {
 1558              	 .loc 1 606 0
 1559 0004 164D     	 ldr r5,.L112
 1560 0006 95F804E0 	 ldrb lr,[r5,#4]
 1561 000a BEF1000F 	 cmp lr,#0
 1562 000e 1CD0     	 beq .L101
 1563 0010 8946     	 mov r9,r1
 1564 0012 0646     	 mov r6,r0
 1565 0014 0124     	 movs r4,#1
 608:../HostCommunication/src/Protocol.c ****             (instance.endpoints[i].context == context))
 1566              	 .loc 1 608 0
 1567 0016 A846     	 mov r8,r5
 1568 0018 06E0     	 b .L104
 1569              	.LVL124:
 1570              	.L111:
 608:../HostCommunication/src/Protocol.c ****             (instance.endpoints[i].context == context))
 1571              	 .loc 1 608 0 is_stmt 0 discriminator 1
 1572 001a DB68     	 ldr r3,[r3,#12]
 1573 001c B342     	 cmp r3,r6
 1574 001e 16D0     	 beq .L110
 1575              	.L103:
 1576              	.LVL125:
 1577 0020 0134     	 adds r4,r4,#1
 1578              	.LVL126:
 606:../HostCommunication/src/Protocol.c ****     {
 1579              	 .loc 1 606 0 is_stmt 1 discriminator 2
 1580 0022 7245     	 cmp r2,lr
 1581 0024 E4B2     	 uxtb r4,r4
 1582 0026 10D2     	 bcs .L101
 1583              	.L104:
 1584 0028 631E     	 subs r3,r4,#1
 1585              	.LVL127:
 608:../HostCommunication/src/Protocol.c ****             (instance.endpoints[i].context == context))
 1586              	 .loc 1 608 0
 1587 002a 2A68     	 ldr r2,[r5]
 1588 002c DBB2     	 uxtb r3,r3
 1589 002e 03EB8303 	 add r3,r3,r3,lsl#2
 1590              	.LVL128:
 1591 0032 02EB8303 	 add r3,r2,r3,lsl#2
 1592 0036 2246     	 mov r2,r4
 1593 0038 1F69     	 ldr r7,[r3,#16]
 1594 003a 002F     	 cmp r7,#0
 1595 003c EDD1     	 bne .L111
 1596 003e 2246     	 mov r2,r4
 1597              	.LVL129:
 606:../HostCommunication/src/Protocol.c ****     {
 1598              	 .loc 1 606 0
 1599 0040 7245     	 cmp r2,lr
 1600 0042 04F10104 	 add r4,r4,#1
 1601              	.LVL130:
 1602 0046 E4B2     	 uxtb r4,r4
 1603 0048 EED3     	 bcc .L104
 1604              	.LVL131:
 1605              	.L101:
 1606 004a BDE8F883 	 pop {r3,r4,r5,r6,r7,r8,r9,pc}
 1607              	.LVL132:
 1608              	.L110:
 611:../HostCommunication/src/Protocol.c ****         }
 1609              	 .loc 1 611 0
 1610 004e 4A46     	 mov r2,r9
 1611              	.LVL133:
 1612 0050 2046     	 mov r0,r4
 1613 0052 3146     	 mov r1,r6
 1614 0054 B847     	 blx r7
 1615              	.LVL134:
 1616 0056 98F804E0 	 ldrb lr,[r8,#4]
 1617 005a 2246     	 mov r2,r4
 1618 005c E0E7     	 b .L103
 1619              	.L113:
 1620 005e 00BF     	 .align 2
 1621              	.L112:
 1622 0060 00000000 	 .word .LANCHOR0
 1623              	 .cfi_endproc
 1624              	.LFE22:
 1626              	 .section .bss.instance,"aw",%nobits
 1627              	 .align 2
 1628              	 .set .LANCHOR0,.+0
 1631              	instance:
 1632 0000 00000000 	 .space 48
 1632      00000000 
 1632      00000000 
 1632      00000000 
 1632      00000000 
 1633              	 .section .bss.data_payload,"aw",%nobits
 1634              	 .align 2
 1635              	 .set .LANCHOR1,.+0
 1638              	data_payload:
 1639 0000 00000000 	 .space 512
 1639      00000000 
 1639      00000000 
 1639      00000000 
 1639      00000000 
 1640              	 .text
 1641              	.Letext0:
 1642              	 .file 3 "c:\\infineon\\tools\\dave ide\\4.5.0.202105191637\\eclipse\\arm-gcc-49\\arm-none-eabi\\include\\machine\\_default_types.h"
 1643              	 .file 4 "c:\\infineon\\tools\\dave ide\\4.5.0.202105191637\\eclipse\\arm-gcc-49\\arm-none-eabi\\include\\stdint.h"
 1644              	 .file 5 "C:/Users/Utente/Desktop/Tesi/Firmware_Software/DAVE project/S2GLP_Pulsed_Doppler/HostCommunication/inc/Protocol.h"
 1645              	 .file 6 "c:\\infineon\\tools\\dave ide\\4.5.0.202105191637\\eclipse\\arm-gcc-49\\lib\\gcc\\arm-none-eabi\\4.9.3\\include\\stddef.h"
 1646              	 .file 7 "C:/Users/Utente/Desktop/Tesi/Firmware_Software/DAVE project/S2GLP_Pulsed_Doppler/HostCommunication/inc/StreamInterface.h"