   1              	 .syntax unified
   2              	 .cpu cortex-m4
   3              	 .eabi_attribute 27,3
   4              	 .fpu fpv4-sp-d16
   5              	 .eabi_attribute 20,1
   6              	 .eabi_attribute 21,1
   7              	 .eabi_attribute 23,3
   8              	 .eabi_attribute 24,1
   9              	 .eabi_attribute 25,1
  10              	 .eabi_attribute 26,1
  11              	 .eabi_attribute 30,2
  12              	 .eabi_attribute 34,1
  13              	 .eabi_attribute 18,4
  14              	 .thumb
  15              	 .file "DAVE.c"
  16              	 .text
  17              	.Ltext0:
  18              	 .cfi_sections .debug_frame
  19              	 .section .text.DAVE_Init,"ax",%progbits
  20              	 .align 2
  21              	 .global DAVE_Init
  22              	 .thumb
  23              	 .thumb_func
  25              	DAVE_Init:
  26              	.LFB529:
  27              	 .file 1 "../Dave/Generated/DAVE.c"
   1:../Dave/Generated/DAVE.c **** 
   2:../Dave/Generated/DAVE.c **** /**
   3:../Dave/Generated/DAVE.c ****  * @cond
   4:../Dave/Generated/DAVE.c ****  **************************************************************************************************
   5:../Dave/Generated/DAVE.c ****  *
   6:../Dave/Generated/DAVE.c ****  * Copyright (c) 2015, Infineon Technologies AG
   7:../Dave/Generated/DAVE.c ****  * All rights reserved.
   8:../Dave/Generated/DAVE.c ****  *
   9:../Dave/Generated/DAVE.c ****  * Redistribution and use in source and binary forms, with or without modification,are permitted pr
  10:../Dave/Generated/DAVE.c ****  * following conditions are met:
  11:../Dave/Generated/DAVE.c ****  *
  12:../Dave/Generated/DAVE.c ****  *   Redistributions of source code must retain the above copyright notice, this list of conditions
  13:../Dave/Generated/DAVE.c ****  *   disclaimer.
  14:../Dave/Generated/DAVE.c ****  *
  15:../Dave/Generated/DAVE.c ****  *   Redistributions in binary form must reproduce the above copyright notice, this list of conditi
  16:../Dave/Generated/DAVE.c ****  *   following disclaimer in the documentation and/or other materials provided with the distributio
  17:../Dave/Generated/DAVE.c ****  *
  18:../Dave/Generated/DAVE.c ****  *   Neither the name of the copyright holders nor the names of its contributors may be used to end
  19:../Dave/Generated/DAVE.c ****  *   products derived from this software without specific prior written permission.
  20:../Dave/Generated/DAVE.c ****  *
  21:../Dave/Generated/DAVE.c ****  * THIS SOFTWARE IS PROVIDED BY THE COPYRIGHT HOLDERS AND CONTRIBUTORS "AS IS" AND ANY EXPRESS OR I
  22:../Dave/Generated/DAVE.c ****  * INCLUDING, BUT NOT LIMITED TO, THE IMPLIED WARRANTIES OF MERCHANTABILITY AND FITNESS FOR A PARTI
  23:../Dave/Generated/DAVE.c ****  * DISCLAIMED. IN NO EVENT SHALL THE COPYRIGHT HOLDER OR CONTRIBUTORS BE LIABLE  FOR ANY DIRECT, IN
  24:../Dave/Generated/DAVE.c ****  * SPECIAL, EXEMPLARY, OR CONSEQUENTIAL DAMAGES (INCLUDING, BUT NOT LIMITED TO, PROCUREMENT OF SUBS
  25:../Dave/Generated/DAVE.c ****  * SERVICES; LOSS OF USE, DATA, OR PROFITS; OR BUSINESS INTERRUPTION) HOWEVER CAUSED AND ON ANY THE
  26:../Dave/Generated/DAVE.c ****  * WHETHER IN CONTRACT, STRICT LIABILITY,OR TORT (INCLUDING NEGLIGENCE OR OTHERWISE) ARISING IN ANY
  27:../Dave/Generated/DAVE.c ****  * USE OF THIS SOFTWARE, EVEN IF ADVISED OF THE POSSIBILITY OF SUCH DAMAGE.
  28:../Dave/Generated/DAVE.c ****  *
  29:../Dave/Generated/DAVE.c ****  * To improve the quality of the software, users are encouraged to share modifications, enhancement
  30:../Dave/Generated/DAVE.c ****  * with Infineon Technologies AG (dave@infineon.com).
  31:../Dave/Generated/DAVE.c ****  **************************************************************************************************
  32:../Dave/Generated/DAVE.c ****  *
  33:../Dave/Generated/DAVE.c ****  * Change History
  34:../Dave/Generated/DAVE.c ****  * --------------
  35:../Dave/Generated/DAVE.c ****  *
  36:../Dave/Generated/DAVE.c ****  * 2014-06-16:
  37:../Dave/Generated/DAVE.c ****  *     - Initial version<br>
  38:../Dave/Generated/DAVE.c ****  * 2015-08-28:
  39:../Dave/Generated/DAVE.c ****  *     - Added CLOCK_XMC1_Init conditionally
  40:../Dave/Generated/DAVE.c ****  *
  41:../Dave/Generated/DAVE.c ****  * @endcond
  42:../Dave/Generated/DAVE.c ****  *
  43:../Dave/Generated/DAVE.c ****  */
  44:../Dave/Generated/DAVE.c **** 
  45:../Dave/Generated/DAVE.c **** /**************************************************************************************************
  46:../Dave/Generated/DAVE.c ****  * HEADER FILES
  47:../Dave/Generated/DAVE.c ****  **************************************************************************************************
  48:../Dave/Generated/DAVE.c **** #include "DAVE.h"
  49:../Dave/Generated/DAVE.c **** 
  50:../Dave/Generated/DAVE.c **** /**************************************************************************************************
  51:../Dave/Generated/DAVE.c ****  * API IMPLEMENTATION
  52:../Dave/Generated/DAVE.c ****  **************************************************************************************************
  53:../Dave/Generated/DAVE.c **** 
  54:../Dave/Generated/DAVE.c **** /*******************************************************************************
  55:../Dave/Generated/DAVE.c ****  * @brief This function initializes the APPs Init Functions.
  56:../Dave/Generated/DAVE.c ****  *
  57:../Dave/Generated/DAVE.c ****  * @param[in]  None
  58:../Dave/Generated/DAVE.c ****  *
  59:../Dave/Generated/DAVE.c ****  * @return  DAVE_STATUS_t <BR>
  60:../Dave/Generated/DAVE.c ****  ******************************************************************************/
  61:../Dave/Generated/DAVE.c **** DAVE_STATUS_t DAVE_Init(void)
  62:../Dave/Generated/DAVE.c **** {
  28              	 .loc 1 62 0
  29              	 .cfi_startproc
  30              	 
  31              	 
  32              	.LVL0:
  33 0000 08B5     	 push {r3,lr}
  34              	.LCFI0:
  35              	 .cfi_def_cfa_offset 8
  36              	 .cfi_offset 3,-8
  37              	 .cfi_offset 14,-4
  63:../Dave/Generated/DAVE.c ****   DAVE_STATUS_t init_status;
  64:../Dave/Generated/DAVE.c ****   
  65:../Dave/Generated/DAVE.c ****   init_status = DAVE_STATUS_SUCCESS;
  66:../Dave/Generated/DAVE.c ****      /** @Initialization of APPs Init Functions */
  67:../Dave/Generated/DAVE.c ****      init_status = (DAVE_STATUS_t)CLOCK_XMC4_Init(&CLOCK_XMC4_0);
  38              	 .loc 1 67 0
  39 0002 6A48     	 ldr r0,.L43
  40 0004 FFF7FEFF 	 bl CLOCK_XMC4_Init
  41              	.LVL1:
  68:../Dave/Generated/DAVE.c **** 
  69:../Dave/Generated/DAVE.c ****   if (init_status == DAVE_STATUS_SUCCESS)
  42              	 .loc 1 69 0
  43 0008 00B1     	 cbz r0,.L42
  44              	.L39:
  70:../Dave/Generated/DAVE.c ****   {
  71:../Dave/Generated/DAVE.c **** 	 /**  Initialization of ADC_MEASUREMENT_ADV APP instance ADC_MEASUREMENT_ADV_G0 */
  72:../Dave/Generated/DAVE.c **** 	 init_status = (DAVE_STATUS_t)ADC_MEASUREMENT_ADV_Init(&ADC_MEASUREMENT_ADV_G0); 
  73:../Dave/Generated/DAVE.c ****    } 
  74:../Dave/Generated/DAVE.c ****   if (init_status == DAVE_STATUS_SUCCESS)
  75:../Dave/Generated/DAVE.c ****   {
  76:../Dave/Generated/DAVE.c **** 	 /**  Initialization of INTERRUPT APP instance INTERRUPT_FRAME */
  77:../Dave/Generated/DAVE.c **** 	 init_status = (DAVE_STATUS_t)INTERRUPT_Init(&INTERRUPT_FRAME); 
  78:../Dave/Generated/DAVE.c ****    } 
  79:../Dave/Generated/DAVE.c ****   if (init_status == DAVE_STATUS_SUCCESS)
  80:../Dave/Generated/DAVE.c ****   {
  81:../Dave/Generated/DAVE.c **** 	 /**  Initialization of TIMER APP instance TIMER_FRAME_TRIG */
  82:../Dave/Generated/DAVE.c **** 	 init_status = (DAVE_STATUS_t)TIMER_Init(&TIMER_FRAME_TRIG); 
  83:../Dave/Generated/DAVE.c ****    } 
  84:../Dave/Generated/DAVE.c ****   if (init_status == DAVE_STATUS_SUCCESS)
  85:../Dave/Generated/DAVE.c ****   {
  86:../Dave/Generated/DAVE.c **** 	 /**  Initialization of USBD_VCOM APP instance USBD_VCOM_0 */
  87:../Dave/Generated/DAVE.c **** 	 init_status = (DAVE_STATUS_t)USBD_VCOM_Init(&USBD_VCOM_0); 
  88:../Dave/Generated/DAVE.c ****    } 
  89:../Dave/Generated/DAVE.c ****   if (init_status == DAVE_STATUS_SUCCESS)
  90:../Dave/Generated/DAVE.c ****   {
  91:../Dave/Generated/DAVE.c **** 	 /**  Initialization of GLOBAL_CCU8 APP instance GLOBAL_CCU8_0 */
  92:../Dave/Generated/DAVE.c **** 	 init_status = (DAVE_STATUS_t)GLOBAL_CCU8_Init(&GLOBAL_CCU8_0); 
  93:../Dave/Generated/DAVE.c ****    } 
  94:../Dave/Generated/DAVE.c ****   if (init_status == DAVE_STATUS_SUCCESS)
  95:../Dave/Generated/DAVE.c ****   {
  96:../Dave/Generated/DAVE.c **** 	 /**  Initialization of ADC_MEASUREMENT_ADV APP instance ADC_MEASUREMENT_ADV_G1 */
  97:../Dave/Generated/DAVE.c **** 	 init_status = (DAVE_STATUS_t)ADC_MEASUREMENT_ADV_Init(&ADC_MEASUREMENT_ADV_G1); 
  98:../Dave/Generated/DAVE.c ****    } 
  99:../Dave/Generated/DAVE.c ****   if (init_status == DAVE_STATUS_SUCCESS)
 100:../Dave/Generated/DAVE.c ****   {
 101:../Dave/Generated/DAVE.c **** 	 /**  Initialization of DMA_CH APP instance DMA_CH_G0 */
 102:../Dave/Generated/DAVE.c **** 	 init_status = (DAVE_STATUS_t)DMA_CH_Init(&DMA_CH_G0); 
 103:../Dave/Generated/DAVE.c ****    } 
 104:../Dave/Generated/DAVE.c ****   if (init_status == DAVE_STATUS_SUCCESS)
 105:../Dave/Generated/DAVE.c ****   {
 106:../Dave/Generated/DAVE.c **** 	 /**  Initialization of DMA_CH APP instance DMA_CH_G1 */
 107:../Dave/Generated/DAVE.c **** 	 init_status = (DAVE_STATUS_t)DMA_CH_Init(&DMA_CH_G1); 
 108:../Dave/Generated/DAVE.c ****    } 
 109:../Dave/Generated/DAVE.c ****   if (init_status == DAVE_STATUS_SUCCESS)
 110:../Dave/Generated/DAVE.c ****   {
 111:../Dave/Generated/DAVE.c **** 	 /**  Initialization of ADC_MEASUREMENT_ADV APP instance ADC_MEASUREMENT_SCAN */
 112:../Dave/Generated/DAVE.c **** 	 init_status = (DAVE_STATUS_t)ADC_MEASUREMENT_ADV_Init(&ADC_MEASUREMENT_SCAN); 
 113:../Dave/Generated/DAVE.c ****    } 
 114:../Dave/Generated/DAVE.c ****   if (init_status == DAVE_STATUS_SUCCESS)
 115:../Dave/Generated/DAVE.c ****   {
 116:../Dave/Generated/DAVE.c **** 	 /**  Initialization of DIGITAL_IO APP instance DIGITAL_IO_BGT_VCC_PTAT */
 117:../Dave/Generated/DAVE.c **** 	 init_status = (DAVE_STATUS_t)DIGITAL_IO_Init(&DIGITAL_IO_BGT_VCC_PTAT); 
 118:../Dave/Generated/DAVE.c ****    } 
 119:../Dave/Generated/DAVE.c ****   if (init_status == DAVE_STATUS_SUCCESS)
 120:../Dave/Generated/DAVE.c ****   {
 121:../Dave/Generated/DAVE.c **** 	 /**  Initialization of PWM_CCU8 APP instance PWM_CCU8_BGT_VCC */
 122:../Dave/Generated/DAVE.c **** 	 init_status = (DAVE_STATUS_t)PWM_CCU8_Init(&PWM_CCU8_BGT_VCC); 
 123:../Dave/Generated/DAVE.c ****    } 
 124:../Dave/Generated/DAVE.c ****   if (init_status == DAVE_STATUS_SUCCESS)
 125:../Dave/Generated/DAVE.c ****   {
 126:../Dave/Generated/DAVE.c **** 	 /**  Initialization of PWM_CCU8 APP instance PWM_CCU8_BGT_TX_ON */
 127:../Dave/Generated/DAVE.c **** 	 init_status = (DAVE_STATUS_t)PWM_CCU8_Init(&PWM_CCU8_BGT_TX_ON); 
 128:../Dave/Generated/DAVE.c ****    } 
 129:../Dave/Generated/DAVE.c ****   if (init_status == DAVE_STATUS_SUCCESS)
 130:../Dave/Generated/DAVE.c ****   {
 131:../Dave/Generated/DAVE.c **** 	 /**  Initialization of PWM_CCU8 APP instance PWM_CCU8_SAMPLE_HOLD */
 132:../Dave/Generated/DAVE.c **** 	 init_status = (DAVE_STATUS_t)PWM_CCU8_Init(&PWM_CCU8_SAMPLE_HOLD); 
 133:../Dave/Generated/DAVE.c ****    } 
 134:../Dave/Generated/DAVE.c ****   if (init_status == DAVE_STATUS_SUCCESS)
 135:../Dave/Generated/DAVE.c ****   {
 136:../Dave/Generated/DAVE.c **** 	 /**  Initialization of PWM_CCU8 APP instance PWM_CCU8_ADC_SAMPLE */
 137:../Dave/Generated/DAVE.c **** 	 init_status = (DAVE_STATUS_t)PWM_CCU8_Init(&PWM_CCU8_ADC_SAMPLE); 
 138:../Dave/Generated/DAVE.c ****    } 
 139:../Dave/Generated/DAVE.c ****   if (init_status == DAVE_STATUS_SUCCESS)
 140:../Dave/Generated/DAVE.c ****   {
 141:../Dave/Generated/DAVE.c **** 	 /**  Initialization of DIGITAL_IO APP instance DIGITAL_IO_RED_LED */
 142:../Dave/Generated/DAVE.c **** 	 init_status = (DAVE_STATUS_t)DIGITAL_IO_Init(&DIGITAL_IO_RED_LED); 
 143:../Dave/Generated/DAVE.c ****    } 
 144:../Dave/Generated/DAVE.c ****   if (init_status == DAVE_STATUS_SUCCESS)
 145:../Dave/Generated/DAVE.c ****   {
 146:../Dave/Generated/DAVE.c **** 	 /**  Initialization of DIGITAL_IO APP instance DIGITAL_IO_BLUE_LED */
 147:../Dave/Generated/DAVE.c **** 	 init_status = (DAVE_STATUS_t)DIGITAL_IO_Init(&DIGITAL_IO_BLUE_LED); 
 148:../Dave/Generated/DAVE.c ****    } 
 149:../Dave/Generated/DAVE.c ****   if (init_status == DAVE_STATUS_SUCCESS)
 150:../Dave/Generated/DAVE.c ****   {
 151:../Dave/Generated/DAVE.c **** 	 /**  Initialization of DIGITAL_IO APP instance DIGITAL_IO_GREEN_LED */
 152:../Dave/Generated/DAVE.c **** 	 init_status = (DAVE_STATUS_t)DIGITAL_IO_Init(&DIGITAL_IO_GREEN_LED); 
 153:../Dave/Generated/DAVE.c ****    } 
 154:../Dave/Generated/DAVE.c ****   if (init_status == DAVE_STATUS_SUCCESS)
 155:../Dave/Generated/DAVE.c ****   {
 156:../Dave/Generated/DAVE.c **** 	 /**  Initialization of TIMER APP instance TIMER_PTAT_DELAY */
 157:../Dave/Generated/DAVE.c **** 	 init_status = (DAVE_STATUS_t)TIMER_Init(&TIMER_PTAT_DELAY); 
 158:../Dave/Generated/DAVE.c ****    } 
 159:../Dave/Generated/DAVE.c ****   if (init_status == DAVE_STATUS_SUCCESS)
 160:../Dave/Generated/DAVE.c ****   {
 161:../Dave/Generated/DAVE.c **** 	 /**  Initialization of INTERRUPT APP instance INTERRUPT_PTAT_TIMER */
 162:../Dave/Generated/DAVE.c **** 	 init_status = (DAVE_STATUS_t)INTERRUPT_Init(&INTERRUPT_PTAT_TIMER); 
 163:../Dave/Generated/DAVE.c ****    } 
 164:../Dave/Generated/DAVE.c ****   if (init_status == DAVE_STATUS_SUCCESS)
 165:../Dave/Generated/DAVE.c ****   {
 166:../Dave/Generated/DAVE.c **** 	 /**  Initialization of ADC_MEASUREMENT_ADV APP instance ADC_MEASUREMENT_ADV_G2 */
 167:../Dave/Generated/DAVE.c **** 	 init_status = (DAVE_STATUS_t)ADC_MEASUREMENT_ADV_Init(&ADC_MEASUREMENT_ADV_G2); 
 168:../Dave/Generated/DAVE.c ****    } 
 169:../Dave/Generated/DAVE.c ****   if (init_status == DAVE_STATUS_SUCCESS)
 170:../Dave/Generated/DAVE.c ****   {
 171:../Dave/Generated/DAVE.c **** 	 /**  Initialization of ADC_MEASUREMENT_ADV APP instance ADC_MEASUREMENT_ADV_G3 */
 172:../Dave/Generated/DAVE.c **** 	 init_status = (DAVE_STATUS_t)ADC_MEASUREMENT_ADV_Init(&ADC_MEASUREMENT_ADV_G3); 
 173:../Dave/Generated/DAVE.c ****    } 
 174:../Dave/Generated/DAVE.c ****   if (init_status == DAVE_STATUS_SUCCESS)
 175:../Dave/Generated/DAVE.c ****   {
 176:../Dave/Generated/DAVE.c **** 	 /**  Initialization of DMA_CH APP instance DMA_CH_G3 */
 177:../Dave/Generated/DAVE.c **** 	 init_status = (DAVE_STATUS_t)DMA_CH_Init(&DMA_CH_G3); 
 178:../Dave/Generated/DAVE.c ****    } 
 179:../Dave/Generated/DAVE.c ****   if (init_status == DAVE_STATUS_SUCCESS)
 180:../Dave/Generated/DAVE.c ****   {
 181:../Dave/Generated/DAVE.c **** 	 /**  Initialization of DMA_CH APP instance DMA_CH_G2 */
 182:../Dave/Generated/DAVE.c **** 	 init_status = (DAVE_STATUS_t)DMA_CH_Init(&DMA_CH_G2); 
 183:../Dave/Generated/DAVE.c ****    } 
 184:../Dave/Generated/DAVE.c ****   if (init_status == DAVE_STATUS_SUCCESS)
 185:../Dave/Generated/DAVE.c ****   {
 186:../Dave/Generated/DAVE.c **** 	 /**  Initialization of I2C_MASTER APP instance I2C_MASTER_EEPROM */
 187:../Dave/Generated/DAVE.c **** 	 init_status = (DAVE_STATUS_t)I2C_MASTER_Init(&I2C_MASTER_EEPROM); 
 188:../Dave/Generated/DAVE.c ****    } 
 189:../Dave/Generated/DAVE.c ****   if (init_status == DAVE_STATUS_SUCCESS)
 190:../Dave/Generated/DAVE.c ****   {
 191:../Dave/Generated/DAVE.c **** 	 /**  Initialization of TIMER APP instance EEPROM_TIMER_DELAY */
 192:../Dave/Generated/DAVE.c **** 	 init_status = (DAVE_STATUS_t)TIMER_Init(&EEPROM_TIMER_DELAY); 
 193:../Dave/Generated/DAVE.c ****    } 
 194:../Dave/Generated/DAVE.c ****   if (init_status == DAVE_STATUS_SUCCESS)
 195:../Dave/Generated/DAVE.c ****   {
 196:../Dave/Generated/DAVE.c **** 	 /**  Initialization of DIGITAL_IO APP instance DIGITAL_IO_ARD_D4 */
 197:../Dave/Generated/DAVE.c **** 	 init_status = (DAVE_STATUS_t)DIGITAL_IO_Init(&DIGITAL_IO_ARD_D4); 
 198:../Dave/Generated/DAVE.c ****    } 
 199:../Dave/Generated/DAVE.c ****   if (init_status == DAVE_STATUS_SUCCESS)
 200:../Dave/Generated/DAVE.c ****   {
 201:../Dave/Generated/DAVE.c **** 	 /**  Initialization of DIGITAL_IO APP instance DIGITAL_IO_ARD_D7 */
 202:../Dave/Generated/DAVE.c **** 	 init_status = (DAVE_STATUS_t)DIGITAL_IO_Init(&DIGITAL_IO_ARD_D7); 
 203:../Dave/Generated/DAVE.c ****    } 
 204:../Dave/Generated/DAVE.c ****   if (init_status == DAVE_STATUS_SUCCESS)
 205:../Dave/Generated/DAVE.c ****   {
 206:../Dave/Generated/DAVE.c **** 	 /**  Initialization of DIGITAL_IO APP instance DIGITAL_IO_ARD_D6 */
 207:../Dave/Generated/DAVE.c **** 	 init_status = (DAVE_STATUS_t)DIGITAL_IO_Init(&DIGITAL_IO_ARD_D6); 
 208:../Dave/Generated/DAVE.c ****    } 
 209:../Dave/Generated/DAVE.c ****   if (init_status == DAVE_STATUS_SUCCESS)
 210:../Dave/Generated/DAVE.c ****   {
 211:../Dave/Generated/DAVE.c **** 	 /**  Initialization of CRC_SW APP instance CRC_SW_EEPROM */
 212:../Dave/Generated/DAVE.c **** 	 init_status = (DAVE_STATUS_t)CRC_SW_Init(&CRC_SW_EEPROM); 
 213:../Dave/Generated/DAVE.c ****    } 
 214:../Dave/Generated/DAVE.c ****   if (init_status == DAVE_STATUS_SUCCESS)
 215:../Dave/Generated/DAVE.c ****   {
 216:../Dave/Generated/DAVE.c **** 	 /**  Initialization of DIGITAL_IO APP instance DIGITAL_IO_V_PTAT_SH_EN */
 217:../Dave/Generated/DAVE.c **** 	 init_status = (DAVE_STATUS_t)DIGITAL_IO_Init(&DIGITAL_IO_V_PTAT_SH_EN); 
 218:../Dave/Generated/DAVE.c ****    } 
 219:../Dave/Generated/DAVE.c ****   if (init_status == DAVE_STATUS_SUCCESS)
 220:../Dave/Generated/DAVE.c ****   {
 221:../Dave/Generated/DAVE.c **** 	 /**  Initialization of TIMER APP instance TIMER_PTAT_S_H_DELAY */
 222:../Dave/Generated/DAVE.c **** 	 init_status = (DAVE_STATUS_t)TIMER_Init(&TIMER_PTAT_S_H_DELAY); 
 223:../Dave/Generated/DAVE.c ****    } 
 224:../Dave/Generated/DAVE.c ****   if (init_status == DAVE_STATUS_SUCCESS)
 225:../Dave/Generated/DAVE.c ****   {
 226:../Dave/Generated/DAVE.c **** 	 /**  Initialization of INTERRUPT APP instance INTERRUPT_PTAT_S_H_DELAY */
 227:../Dave/Generated/DAVE.c **** 	 init_status = (DAVE_STATUS_t)INTERRUPT_Init(&INTERRUPT_PTAT_S_H_DELAY); 
 228:../Dave/Generated/DAVE.c ****    } 
 229:../Dave/Generated/DAVE.c ****   if (init_status == DAVE_STATUS_SUCCESS)
 230:../Dave/Generated/DAVE.c ****   {
 231:../Dave/Generated/DAVE.c **** 	 /**  Initialization of INTERRUPT APP instance INTERRUPT_BGT_VCC_ON */
 232:../Dave/Generated/DAVE.c **** 	 init_status = (DAVE_STATUS_t)INTERRUPT_Init(&INTERRUPT_BGT_VCC_ON); 
 233:../Dave/Generated/DAVE.c ****    } 
 234:../Dave/Generated/DAVE.c ****   if (init_status == DAVE_STATUS_SUCCESS)
 235:../Dave/Generated/DAVE.c ****   {
 236:../Dave/Generated/DAVE.c **** 	 /**  Initialization of DIGITAL_IO APP instance DIGITAL_IO_BB1_EN */
 237:../Dave/Generated/DAVE.c **** 	 init_status = (DAVE_STATUS_t)DIGITAL_IO_Init(&DIGITAL_IO_BB1_EN); 
 238:../Dave/Generated/DAVE.c ****    } 
 239:../Dave/Generated/DAVE.c ****   if (init_status == DAVE_STATUS_SUCCESS)
 240:../Dave/Generated/DAVE.c ****   {
 241:../Dave/Generated/DAVE.c **** 	 /**  Initialization of DIGITAL_IO APP instance DIGITAL_IO_BB2_EN */
 242:../Dave/Generated/DAVE.c **** 	 init_status = (DAVE_STATUS_t)DIGITAL_IO_Init(&DIGITAL_IO_BB2_EN); 
 243:../Dave/Generated/DAVE.c ****    } 
 244:../Dave/Generated/DAVE.c ****   if (init_status == DAVE_STATUS_SUCCESS)
 245:../Dave/Generated/DAVE.c ****   {
 246:../Dave/Generated/DAVE.c **** 	 /**  Initialization of INTERRUPT APP instance INTERRUPT_BB_PRE_TRIGGER */
 247:../Dave/Generated/DAVE.c **** 	 init_status = (DAVE_STATUS_t)INTERRUPT_Init(&INTERRUPT_BB_PRE_TRIGGER); 
 248:../Dave/Generated/DAVE.c ****    } 
 249:../Dave/Generated/DAVE.c ****   if (init_status == DAVE_STATUS_SUCCESS)
 250:../Dave/Generated/DAVE.c ****   {
 251:../Dave/Generated/DAVE.c **** 	 /**  Initialization of TIMER APP instance TIMER_BB_PRE_TRIGGER */
 252:../Dave/Generated/DAVE.c **** 	 init_status = (DAVE_STATUS_t)TIMER_Init(&TIMER_BB_PRE_TRIGGER); 
 253:../Dave/Generated/DAVE.c ****    } 
 254:../Dave/Generated/DAVE.c ****   if (init_status == DAVE_STATUS_SUCCESS)
 255:../Dave/Generated/DAVE.c ****   {
 256:../Dave/Generated/DAVE.c **** 	 /**  Initialization of INTERRUPT APP instance INTERRUPT_ERROR_TOGGLE */
 257:../Dave/Generated/DAVE.c **** 	 init_status = (DAVE_STATUS_t)INTERRUPT_Init(&INTERRUPT_ERROR_TOGGLE); 
 258:../Dave/Generated/DAVE.c ****    } 
 259:../Dave/Generated/DAVE.c ****   if (init_status == DAVE_STATUS_SUCCESS)
 260:../Dave/Generated/DAVE.c ****   {
 261:../Dave/Generated/DAVE.c **** 	 /**  Initialization of TIMER APP instance TIMER_ERROR_TOGGLE */
 262:../Dave/Generated/DAVE.c **** 	 init_status = (DAVE_STATUS_t)TIMER_Init(&TIMER_ERROR_TOGGLE); 
 263:../Dave/Generated/DAVE.c ****    }  
 264:../Dave/Generated/DAVE.c ****   return init_status;
 265:../Dave/Generated/DAVE.c **** } /**  End of function DAVE_Init */
  45              	 .loc 1 265 0
  46 000a 08BD     	 pop {r3,pc}
  47              	.L42:
  72:../Dave/Generated/DAVE.c ****    } 
  48              	 .loc 1 72 0
  49 000c 6848     	 ldr r0,.L43+4
  50              	.LVL2:
  51 000e FFF7FEFF 	 bl ADC_MEASUREMENT_ADV_Init
  52              	.LVL3:
  74:../Dave/Generated/DAVE.c ****   {
  53              	 .loc 1 74 0
  54 0012 0028     	 cmp r0,#0
  55 0014 F9D1     	 bne .L39
  77:../Dave/Generated/DAVE.c ****    } 
  56              	 .loc 1 77 0
  57 0016 6748     	 ldr r0,.L43+8
  58              	.LVL4:
  59 0018 FFF7FEFF 	 bl INTERRUPT_Init
  60              	.LVL5:
  79:../Dave/Generated/DAVE.c ****   {
  61              	 .loc 1 79 0
  62 001c 0028     	 cmp r0,#0
  63 001e F4D1     	 bne .L39
  82:../Dave/Generated/DAVE.c ****    } 
  64              	 .loc 1 82 0
  65 0020 6548     	 ldr r0,.L43+12
  66              	.LVL6:
  67 0022 FFF7FEFF 	 bl TIMER_Init
  68              	.LVL7:
  84:../Dave/Generated/DAVE.c ****   {
  69              	 .loc 1 84 0
  70 0026 0028     	 cmp r0,#0
  71 0028 EFD1     	 bne .L39
  87:../Dave/Generated/DAVE.c ****    } 
  72              	 .loc 1 87 0
  73 002a 6448     	 ldr r0,.L43+16
  74              	.LVL8:
  75 002c FFF7FEFF 	 bl USBD_VCOM_Init
  76              	.LVL9:
  89:../Dave/Generated/DAVE.c ****   {
  77              	 .loc 1 89 0
  78 0030 0028     	 cmp r0,#0
  79 0032 EAD1     	 bne .L39
  92:../Dave/Generated/DAVE.c ****    } 
  80              	 .loc 1 92 0
  81 0034 6248     	 ldr r0,.L43+20
  82              	.LVL10:
  83 0036 FFF7FEFF 	 bl GLOBAL_CCU8_Init
  84              	.LVL11:
  94:../Dave/Generated/DAVE.c ****   {
  85              	 .loc 1 94 0
  86 003a 0028     	 cmp r0,#0
  87 003c E5D1     	 bne .L39
  97:../Dave/Generated/DAVE.c ****    } 
  88              	 .loc 1 97 0
  89 003e 6148     	 ldr r0,.L43+24
  90              	.LVL12:
  91 0040 FFF7FEFF 	 bl ADC_MEASUREMENT_ADV_Init
  92              	.LVL13:
  99:../Dave/Generated/DAVE.c ****   {
  93              	 .loc 1 99 0
  94 0044 0028     	 cmp r0,#0
  95 0046 E0D1     	 bne .L39
 102:../Dave/Generated/DAVE.c ****    } 
  96              	 .loc 1 102 0
  97 0048 5F48     	 ldr r0,.L43+28
  98              	.LVL14:
  99 004a FFF7FEFF 	 bl DMA_CH_Init
 100              	.LVL15:
 104:../Dave/Generated/DAVE.c ****   {
 101              	 .loc 1 104 0
 102 004e 0028     	 cmp r0,#0
 103 0050 DBD1     	 bne .L39
 107:../Dave/Generated/DAVE.c ****    } 
 104              	 .loc 1 107 0
 105 0052 5E48     	 ldr r0,.L43+32
 106              	.LVL16:
 107 0054 FFF7FEFF 	 bl DMA_CH_Init
 108              	.LVL17:
 109:../Dave/Generated/DAVE.c ****   {
 109              	 .loc 1 109 0
 110 0058 0028     	 cmp r0,#0
 111 005a D6D1     	 bne .L39
 112:../Dave/Generated/DAVE.c ****    } 
 112              	 .loc 1 112 0
 113 005c 5C48     	 ldr r0,.L43+36
 114              	.LVL18:
 115 005e FFF7FEFF 	 bl ADC_MEASUREMENT_ADV_Init
 116              	.LVL19:
 114:../Dave/Generated/DAVE.c ****   {
 117              	 .loc 1 114 0
 118 0062 0028     	 cmp r0,#0
 119 0064 D1D1     	 bne .L39
 117:../Dave/Generated/DAVE.c ****    } 
 120              	 .loc 1 117 0
 121 0066 5B48     	 ldr r0,.L43+40
 122              	.LVL20:
 123 0068 FFF7FEFF 	 bl DIGITAL_IO_Init
 124              	.LVL21:
 119:../Dave/Generated/DAVE.c ****   {
 125              	 .loc 1 119 0
 126 006c 0028     	 cmp r0,#0
 127 006e CCD1     	 bne .L39
 122:../Dave/Generated/DAVE.c ****    } 
 128              	 .loc 1 122 0
 129 0070 5948     	 ldr r0,.L43+44
 130              	.LVL22:
 131 0072 FFF7FEFF 	 bl PWM_CCU8_Init
 132              	.LVL23:
 124:../Dave/Generated/DAVE.c ****   {
 133              	 .loc 1 124 0
 134 0076 0028     	 cmp r0,#0
 135 0078 C7D1     	 bne .L39
 127:../Dave/Generated/DAVE.c ****    } 
 136              	 .loc 1 127 0
 137 007a 5848     	 ldr r0,.L43+48
 138              	.LVL24:
 139 007c FFF7FEFF 	 bl PWM_CCU8_Init
 140              	.LVL25:
 129:../Dave/Generated/DAVE.c ****   {
 141              	 .loc 1 129 0
 142 0080 0028     	 cmp r0,#0
 143 0082 C2D1     	 bne .L39
 132:../Dave/Generated/DAVE.c ****    } 
 144              	 .loc 1 132 0
 145 0084 5648     	 ldr r0,.L43+52
 146              	.LVL26:
 147 0086 FFF7FEFF 	 bl PWM_CCU8_Init
 148              	.LVL27:
 134:../Dave/Generated/DAVE.c ****   {
 149              	 .loc 1 134 0
 150 008a 0028     	 cmp r0,#0
 151 008c BDD1     	 bne .L39
 137:../Dave/Generated/DAVE.c ****    } 
 152              	 .loc 1 137 0
 153 008e 5548     	 ldr r0,.L43+56
 154              	.LVL28:
 155 0090 FFF7FEFF 	 bl PWM_CCU8_Init
 156              	.LVL29:
 139:../Dave/Generated/DAVE.c ****   {
 157              	 .loc 1 139 0
 158 0094 0028     	 cmp r0,#0
 159 0096 B8D1     	 bne .L39
 142:../Dave/Generated/DAVE.c ****    } 
 160              	 .loc 1 142 0
 161 0098 5348     	 ldr r0,.L43+60
 162              	.LVL30:
 163 009a FFF7FEFF 	 bl DIGITAL_IO_Init
 164              	.LVL31:
 144:../Dave/Generated/DAVE.c ****   {
 165              	 .loc 1 144 0
 166 009e 0028     	 cmp r0,#0
 167 00a0 B3D1     	 bne .L39
 147:../Dave/Generated/DAVE.c ****    } 
 168              	 .loc 1 147 0
 169 00a2 5248     	 ldr r0,.L43+64
 170              	.LVL32:
 171 00a4 FFF7FEFF 	 bl DIGITAL_IO_Init
 172              	.LVL33:
 149:../Dave/Generated/DAVE.c ****   {
 173              	 .loc 1 149 0
 174 00a8 0028     	 cmp r0,#0
 175 00aa AED1     	 bne .L39
 152:../Dave/Generated/DAVE.c ****    } 
 176              	 .loc 1 152 0
 177 00ac 5048     	 ldr r0,.L43+68
 178              	.LVL34:
 179 00ae FFF7FEFF 	 bl DIGITAL_IO_Init
 180              	.LVL35:
 154:../Dave/Generated/DAVE.c ****   {
 181              	 .loc 1 154 0
 182 00b2 0028     	 cmp r0,#0
 183 00b4 A9D1     	 bne .L39
 157:../Dave/Generated/DAVE.c ****    } 
 184              	 .loc 1 157 0
 185 00b6 4F48     	 ldr r0,.L43+72
 186              	.LVL36:
 187 00b8 FFF7FEFF 	 bl TIMER_Init
 188              	.LVL37:
 159:../Dave/Generated/DAVE.c ****   {
 189              	 .loc 1 159 0
 190 00bc 0028     	 cmp r0,#0
 191 00be A4D1     	 bne .L39
 162:../Dave/Generated/DAVE.c ****    } 
 192              	 .loc 1 162 0
 193 00c0 4D48     	 ldr r0,.L43+76
 194              	.LVL38:
 195 00c2 FFF7FEFF 	 bl INTERRUPT_Init
 196              	.LVL39:
 164:../Dave/Generated/DAVE.c ****   {
 197              	 .loc 1 164 0
 198 00c6 0028     	 cmp r0,#0
 199 00c8 9FD1     	 bne .L39
 167:../Dave/Generated/DAVE.c ****    } 
 200              	 .loc 1 167 0
 201 00ca 4C48     	 ldr r0,.L43+80
 202              	.LVL40:
 203 00cc FFF7FEFF 	 bl ADC_MEASUREMENT_ADV_Init
 204              	.LVL41:
 169:../Dave/Generated/DAVE.c ****   {
 205              	 .loc 1 169 0
 206 00d0 0028     	 cmp r0,#0
 207 00d2 9AD1     	 bne .L39
 172:../Dave/Generated/DAVE.c ****    } 
 208              	 .loc 1 172 0
 209 00d4 4A48     	 ldr r0,.L43+84
 210              	.LVL42:
 211 00d6 FFF7FEFF 	 bl ADC_MEASUREMENT_ADV_Init
 212              	.LVL43:
 174:../Dave/Generated/DAVE.c ****   {
 213              	 .loc 1 174 0
 214 00da 0028     	 cmp r0,#0
 215 00dc 95D1     	 bne .L39
 177:../Dave/Generated/DAVE.c ****    } 
 216              	 .loc 1 177 0
 217 00de 4948     	 ldr r0,.L43+88
 218              	.LVL44:
 219 00e0 FFF7FEFF 	 bl DMA_CH_Init
 220              	.LVL45:
 179:../Dave/Generated/DAVE.c ****   {
 221              	 .loc 1 179 0
 222 00e4 0028     	 cmp r0,#0
 223 00e6 90D1     	 bne .L39
 182:../Dave/Generated/DAVE.c ****    } 
 224              	 .loc 1 182 0
 225 00e8 4748     	 ldr r0,.L43+92
 226              	.LVL46:
 227 00ea FFF7FEFF 	 bl DMA_CH_Init
 228              	.LVL47:
 184:../Dave/Generated/DAVE.c ****   {
 229              	 .loc 1 184 0
 230 00ee 0028     	 cmp r0,#0
 231 00f0 8BD1     	 bne .L39
 187:../Dave/Generated/DAVE.c ****    } 
 232              	 .loc 1 187 0
 233 00f2 4648     	 ldr r0,.L43+96
 234              	.LVL48:
 235 00f4 FFF7FEFF 	 bl I2C_MASTER_Init
 236              	.LVL49:
 189:../Dave/Generated/DAVE.c ****   {
 237              	 .loc 1 189 0
 238 00f8 0028     	 cmp r0,#0
 239 00fa 86D1     	 bne .L39
 192:../Dave/Generated/DAVE.c ****    } 
 240              	 .loc 1 192 0
 241 00fc 4448     	 ldr r0,.L43+100
 242              	.LVL50:
 243 00fe FFF7FEFF 	 bl TIMER_Init
 244              	.LVL51:
 194:../Dave/Generated/DAVE.c ****   {
 245              	 .loc 1 194 0
 246 0102 0028     	 cmp r0,#0
 247 0104 81D1     	 bne .L39
 197:../Dave/Generated/DAVE.c ****    } 
 248              	 .loc 1 197 0
 249 0106 4348     	 ldr r0,.L43+104
 250              	.LVL52:
 251 0108 FFF7FEFF 	 bl DIGITAL_IO_Init
 252              	.LVL53:
 199:../Dave/Generated/DAVE.c ****   {
 253              	 .loc 1 199 0
 254 010c 0028     	 cmp r0,#0
 255 010e 7FF47CAF 	 bne .L39
 202:../Dave/Generated/DAVE.c ****    } 
 256              	 .loc 1 202 0
 257 0112 4148     	 ldr r0,.L43+108
 258              	.LVL54:
 259 0114 FFF7FEFF 	 bl DIGITAL_IO_Init
 260              	.LVL55:
 204:../Dave/Generated/DAVE.c ****   {
 261              	 .loc 1 204 0
 262 0118 0028     	 cmp r0,#0
 263 011a 7FF476AF 	 bne .L39
 207:../Dave/Generated/DAVE.c ****    } 
 264              	 .loc 1 207 0
 265 011e 3F48     	 ldr r0,.L43+112
 266              	.LVL56:
 267 0120 FFF7FEFF 	 bl DIGITAL_IO_Init
 268              	.LVL57:
 209:../Dave/Generated/DAVE.c ****   {
 269              	 .loc 1 209 0
 270 0124 0028     	 cmp r0,#0
 271 0126 7FF470AF 	 bne .L39
 212:../Dave/Generated/DAVE.c ****    } 
 272              	 .loc 1 212 0
 273 012a 3D48     	 ldr r0,.L43+116
 274              	.LVL58:
 275 012c FFF7FEFF 	 bl CRC_SW_Init
 276              	.LVL59:
 214:../Dave/Generated/DAVE.c ****   {
 277              	 .loc 1 214 0
 278 0130 0028     	 cmp r0,#0
 279 0132 7FF46AAF 	 bne .L39
 217:../Dave/Generated/DAVE.c ****    } 
 280              	 .loc 1 217 0
 281 0136 3B48     	 ldr r0,.L43+120
 282              	.LVL60:
 283 0138 FFF7FEFF 	 bl DIGITAL_IO_Init
 284              	.LVL61:
 219:../Dave/Generated/DAVE.c ****   {
 285              	 .loc 1 219 0
 286 013c 0028     	 cmp r0,#0
 287 013e 7FF464AF 	 bne .L39
 222:../Dave/Generated/DAVE.c ****    } 
 288              	 .loc 1 222 0
 289 0142 3948     	 ldr r0,.L43+124
 290              	.LVL62:
 291 0144 FFF7FEFF 	 bl TIMER_Init
 292              	.LVL63:
 224:../Dave/Generated/DAVE.c ****   {
 293              	 .loc 1 224 0
 294 0148 0028     	 cmp r0,#0
 295 014a 7FF45EAF 	 bne .L39
 227:../Dave/Generated/DAVE.c ****    } 
 296              	 .loc 1 227 0
 297 014e 3748     	 ldr r0,.L43+128
 298              	.LVL64:
 299 0150 FFF7FEFF 	 bl INTERRUPT_Init
 300              	.LVL65:
 229:../Dave/Generated/DAVE.c ****   {
 301              	 .loc 1 229 0
 302 0154 0028     	 cmp r0,#0
 303 0156 7FF458AF 	 bne .L39
 232:../Dave/Generated/DAVE.c ****    } 
 304              	 .loc 1 232 0
 305 015a 3548     	 ldr r0,.L43+132
 306              	.LVL66:
 307 015c FFF7FEFF 	 bl INTERRUPT_Init
 308              	.LVL67:
 234:../Dave/Generated/DAVE.c ****   {
 309              	 .loc 1 234 0
 310 0160 0028     	 cmp r0,#0
 311 0162 7FF452AF 	 bne .L39
 237:../Dave/Generated/DAVE.c ****    } 
 312              	 .loc 1 237 0
 313 0166 3348     	 ldr r0,.L43+136
 314              	.LVL68:
 315 0168 FFF7FEFF 	 bl DIGITAL_IO_Init
 316              	.LVL69:
 239:../Dave/Generated/DAVE.c ****   {
 317              	 .loc 1 239 0
 318 016c 0028     	 cmp r0,#0
 319 016e 7FF44CAF 	 bne .L39
 242:../Dave/Generated/DAVE.c ****    } 
 320              	 .loc 1 242 0
 321 0172 3148     	 ldr r0,.L43+140
 322              	.LVL70:
 323 0174 FFF7FEFF 	 bl DIGITAL_IO_Init
 324              	.LVL71:
 244:../Dave/Generated/DAVE.c ****   {
 325              	 .loc 1 244 0
 326 0178 0028     	 cmp r0,#0
 327 017a 7FF446AF 	 bne .L39
 247:../Dave/Generated/DAVE.c ****    } 
 328              	 .loc 1 247 0
 329 017e 2F48     	 ldr r0,.L43+144
 330              	.LVL72:
 331 0180 FFF7FEFF 	 bl INTERRUPT_Init
 332              	.LVL73:
 249:../Dave/Generated/DAVE.c ****   {
 333              	 .loc 1 249 0
 334 0184 0028     	 cmp r0,#0
 335 0186 7FF440AF 	 bne .L39
 252:../Dave/Generated/DAVE.c ****    } 
 336              	 .loc 1 252 0
 337 018a 2D48     	 ldr r0,.L43+148
 338              	.LVL74:
 339 018c FFF7FEFF 	 bl TIMER_Init
 340              	.LVL75:
 254:../Dave/Generated/DAVE.c ****   {
 341              	 .loc 1 254 0
 342 0190 0028     	 cmp r0,#0
 343 0192 7FF43AAF 	 bne .L39
 257:../Dave/Generated/DAVE.c ****    } 
 344              	 .loc 1 257 0
 345 0196 2B48     	 ldr r0,.L43+152
 346              	.LVL76:
 347 0198 FFF7FEFF 	 bl INTERRUPT_Init
 348              	.LVL77:
 259:../Dave/Generated/DAVE.c ****   {
 349              	 .loc 1 259 0
 350 019c 0028     	 cmp r0,#0
 351 019e 7FF434AF 	 bne .L39
 262:../Dave/Generated/DAVE.c ****    }  
 352              	 .loc 1 262 0
 353 01a2 2948     	 ldr r0,.L43+156
 354              	.LVL78:
 355              	 .loc 1 265 0
 356 01a4 BDE80840 	 pop {r3,lr}
 357              	.LCFI1:
 358              	 .cfi_restore 14
 359              	 .cfi_restore 3
 360              	 .cfi_def_cfa_offset 0
 262:../Dave/Generated/DAVE.c ****    }  
 361              	 .loc 1 262 0
 362 01a8 FFF7FEBF 	 b TIMER_Init
 363              	.LVL79:
 364              	.L44:
 365              	 .align 2
 366              	.L43:
 367 01ac 00000000 	 .word CLOCK_XMC4_0
 368 01b0 00000000 	 .word ADC_MEASUREMENT_ADV_G0
 369 01b4 00000000 	 .word INTERRUPT_FRAME
 370 01b8 00000000 	 .word TIMER_FRAME_TRIG
 371 01bc 00000000 	 .word USBD_VCOM_0
 372 01c0 00000000 	 .word GLOBAL_CCU8_0
 373 01c4 00000000 	 .word ADC_MEASUREMENT_ADV_G1
 374 01c8 00000000 	 .word DMA_CH_G0
 375 01cc 00000000 	 .word DMA_CH_G1
 376 01d0 00000000 	 .word ADC_MEASUREMENT_SCAN
 377 01d4 00000000 	 .word DIGITAL_IO_BGT_VCC_PTAT
 378 01d8 00000000 	 .word PWM_CCU8_BGT_VCC
 379 01dc 00000000 	 .word PWM_CCU8_BGT_TX_ON
 380 01e0 00000000 	 .word PWM_CCU8_SAMPLE_HOLD
 381 01e4 00000000 	 .word PWM_CCU8_ADC_SAMPLE
 382 01e8 00000000 	 .word DIGITAL_IO_RED_LED
 383 01ec 00000000 	 .word DIGITAL_IO_BLUE_LED
 384 01f0 00000000 	 .word DIGITAL_IO_GREEN_LED
 385 01f4 00000000 	 .word TIMER_PTAT_DELAY
 386 01f8 00000000 	 .word INTERRUPT_PTAT_TIMER
 387 01fc 00000000 	 .word ADC_MEASUREMENT_ADV_G2
 388 0200 00000000 	 .word ADC_MEASUREMENT_ADV_G3
 389 0204 00000000 	 .word DMA_CH_G3
 390 0208 00000000 	 .word DMA_CH_G2
 391 020c 00000000 	 .word I2C_MASTER_EEPROM
 392 0210 00000000 	 .word EEPROM_TIMER_DELAY
 393 0214 00000000 	 .word DIGITAL_IO_ARD_D4
 394 0218 00000000 	 .word DIGITAL_IO_ARD_D7
 395 021c 00000000 	 .word DIGITAL_IO_ARD_D6
 396 0220 00000000 	 .word CRC_SW_EEPROM
 397 0224 00000000 	 .word DIGITAL_IO_V_PTAT_SH_EN
 398 0228 00000000 	 .word TIMER_PTAT_S_H_DELAY
 399 022c 00000000 	 .word INTERRUPT_PTAT_S_H_DELAY
 400 0230 00000000 	 .word INTERRUPT_BGT_VCC_ON
 401 0234 00000000 	 .word DIGITAL_IO_BB1_EN
 402 0238 00000000 	 .word DIGITAL_IO_BB2_EN
 403 023c 00000000 	 .word INTERRUPT_BB_PRE_TRIGGER
 404 0240 00000000 	 .word TIMER_BB_PRE_TRIGGER
 405 0244 00000000 	 .word INTERRUPT_ERROR_TOGGLE
 406 0248 00000000 	 .word TIMER_ERROR_TOGGLE
 407              	 .cfi_endproc
 408              	.LFE529:
 410              	 .text
 411              	.Letext0:
 412              	 .file 2 "c:\\infineon\\tools\\dave ide\\4.5.0.202105191637\\eclipse\\arm-gcc-49\\arm-none-eabi\\include\\machine\\_default_types.h"
 413              	 .file 3 "c:\\infineon\\tools\\dave ide\\4.5.0.202105191637\\eclipse\\arm-gcc-49\\arm-none-eabi\\include\\stdint.h"
 414              	 .file 4 "C:/Users/Utente/Desktop/Tesi/Firmware_Software/DAVE project/S2GLP_Pulsed_Doppler/Libraries/CMSIS/Infineon/XMC4700_series/Include/XMC4700.h"
 415              	 .file 5 "C:/Users/Utente/Desktop/Tesi/Firmware_Software/DAVE project/S2GLP_Pulsed_Doppler/Libraries/XMCLib/inc/xmc4_scu.h"
 416              	 .file 6 "C:/Users/Utente/Desktop/Tesi/Firmware_Software/DAVE project/S2GLP_Pulsed_Doppler/Libraries/XMCLib/inc/xmc_gpio.h"
 417              	 .file 7 "C:/Users/Utente/Desktop/Tesi/Firmware_Software/DAVE project/S2GLP_Pulsed_Doppler/Libraries/XMCLib/inc/xmc4_gpio.h"
 418              	 .file 8 "../Dave/Generated/CLOCK_XMC4/clock_xmc4.h"
 419              	 .file 9 "C:/Users/Utente/Desktop/Tesi/Firmware_Software/DAVE project/S2GLP_Pulsed_Doppler/Libraries/XMCLib/inc/xmc_vadc.h"
 420              	 .file 10 "../Dave/Generated/ADC_MEASUREMENT_ADV/adc_measurement_adv.h"
 421              	 .file 11 "../Dave/Generated/INTERRUPT/interrupt.h"
 422              	 .file 12 "C:/Users/Utente/Desktop/Tesi/Firmware_Software/DAVE project/S2GLP_Pulsed_Doppler/Libraries/XMCLib/inc/xmc_ccu4.h"
 423              	 .file 13 "../Dave/Generated/GLOBAL_CCU4/global_ccu4.h"
 424              	 .file 14 "../Dave/Generated/TIMER/timer.h"
 425              	 .file 15 "C:/Users/Utente/Desktop/Tesi/Firmware_Software/DAVE project/S2GLP_Pulsed_Doppler/Libraries/XMCLib/inc/xmc_usbd_regs.h"
 426              	 .file 16 "C:/Users/Utente/Desktop/Tesi/Firmware_Software/DAVE project/S2GLP_Pulsed_Doppler/Libraries/XMCLib/inc/xmc_usbd.h"
 427              	 .file 17 "../Dave/Generated/USBD/usbd.h"
 428              	 .file 18 "../Dave/Generated/USBD_VCOM/usbd_vcom.h"
 429              	 .file 19 "C:/Users/Utente/Desktop/Tesi/Firmware_Software/DAVE project/S2GLP_Pulsed_Doppler/Libraries/XMCLib/inc/xmc_ccu8.h"
 430              	 .file 20 "../Dave/Generated/GLOBAL_CCU8/global_ccu8.h"
 431              	 .file 21 "C:/Users/Utente/Desktop/Tesi/Firmware_Software/DAVE project/S2GLP_Pulsed_Doppler/Libraries/XMCLib/inc/xmc_dma.h"
 432              	 .file 22 "../Dave/Generated/GLOBAL_DMA/global_dma.h"
 433              	 .file 23 "../Dave/Generated/DMA_CH/dma_ch.h"
 434              	 .file 24 "../Dave/Generated/DIGITAL_IO/digital_io.h"
 435              	 .file 25 "../Dave/Generated/PWM_CCU8/pwm_ccu8.h"
 436              	 .file 26 "C:/Users/Utente/Desktop/Tesi/Firmware_Software/DAVE project/S2GLP_Pulsed_Doppler/Libraries/XMCLib/inc/xmc_usic.h"
 437              	 .file 27 "C:/Users/Utente/Desktop/Tesi/Firmware_Software/DAVE project/S2GLP_Pulsed_Doppler/Libraries/XMCLib/inc/xmc_i2c.h"
 438              	 .file 28 "../Dave/Generated/I2C_MASTER/i2c_master.h"
 439              	 .file 29 "../Dave/Generated/CRC_SW/crc_sw.h"
 440              	 .file 30 "../Dave/Generated/DAVE.h"
 441              	 .file 31 "C:/Users/Utente/Desktop/Tesi/Firmware_Software/DAVE project/S2GLP_Pulsed_Doppler/Libraries/CMSIS/Include/core_cm4.h"
 442              	 .file 32 "C:/Users/Utente/Desktop/Tesi/Firmware_Software/DAVE project/S2GLP_Pulsed_Doppler/Libraries/CMSIS/Infineon/XMC4700_series/Include/system_XMC4700.h"
 443              	 .file 33 "../Dave/Generated/CLOCK_XMC4/clock_xmc4_extern.h"
 444              	 .file 34 "../Dave/Generated/ADC_MEASUREMENT_ADV/adc_measurement_adv_extern.h"
 445              	 .file 35 "../Dave/Generated/INTERRUPT/interrupt_extern.h"
 446              	 .file 36 "../Dave/Generated/TIMER/timer_extern.h"
 447              	 .file 37 "../Dave/Generated/USBD/usbd_extern.h"
 448              	 .file 38 "../Dave/Generated/USBD_VCOM/usbd_vcom_extern.h"
 449              	 .file 39 "../Dave/Generated/GLOBAL_CCU8/global_ccu8_extern.h"
 450              	 .file 40 "../Dave/Generated/DMA_CH/dma_ch_extern.h"
 451              	 .file 41 "../Dave/Generated/DIGITAL_IO/digital_io_extern.h"
 452              	 .file 42 "../Dave/Generated/PWM_CCU8/pwm_ccu8_extern.h"
 453              	 .file 43 "../Dave/Generated/I2C_MASTER/i2c_master_extern.h"
 454              	 .file 44 "../Dave/Generated/CRC_SW/crc_sw_extern.h"