   1              	 .syntax unified
   2              	 .cpu cortex-m4
   3              	 .eabi_attribute 27,3
   4              	 .fpu vfp
   5              	 .eabi_attribute 20,1
   6              	 .eabi_attribute 21,1
   7              	 .eabi_attribute 23,3
   8              	 .eabi_attribute 24,1
   9              	 .eabi_attribute 25,1
  10              	 .eabi_attribute 26,1
  11              	 .eabi_attribute 30,2
  12              	 .eabi_attribute 34,1
  13              	 .eabi_attribute 18,4
  14              	 .thumb
  15              	 .file "i2c_master.c"
  16              	 .text
  17              	.Ltext0:
  18              	 .cfi_sections .debug_frame
  19              	 .section .text.I2C_MASTER_GetAppVersion,"ax",%progbits
  20              	 .align 2
  21              	 .global I2C_MASTER_GetAppVersion
  22              	 .thumb
  23              	 .thumb_func
  25              	I2C_MASTER_GetAppVersion:
  26              	.LFB235:
  27              	 .file 1 "../BSP/dave_fixes/I2C_MASTER/i2c_master.c"
   1:../BSP/dave_fixes/I2C_MASTER/i2c_master.c **** /**
   2:../BSP/dave_fixes/I2C_MASTER/i2c_master.c ****  * @file i2c_master.c
   3:../BSP/dave_fixes/I2C_MASTER/i2c_master.c ****  * @date 2017-12-20
   4:../BSP/dave_fixes/I2C_MASTER/i2c_master.c ****  *
   5:../BSP/dave_fixes/I2C_MASTER/i2c_master.c ****  * NOTE:
   6:../BSP/dave_fixes/I2C_MASTER/i2c_master.c ****  * This file is generated by DAVE. Any manual modification done to this file will be lost when the 
   7:../BSP/dave_fixes/I2C_MASTER/i2c_master.c ****  */
   8:../BSP/dave_fixes/I2C_MASTER/i2c_master.c **** /**
   9:../BSP/dave_fixes/I2C_MASTER/i2c_master.c ****  * @cond
  10:../BSP/dave_fixes/I2C_MASTER/i2c_master.c ****  **************************************************************************************************
  11:../BSP/dave_fixes/I2C_MASTER/i2c_master.c ****  * I2C_MASTER v4.1.28 Configures USIC channel to transmit & receive data using I2C protocol.
  12:../BSP/dave_fixes/I2C_MASTER/i2c_master.c ****  *
  13:../BSP/dave_fixes/I2C_MASTER/i2c_master.c ****  * Copyright (c) 2015-2018, Infineon Technologies AG
  14:../BSP/dave_fixes/I2C_MASTER/i2c_master.c ****  * All rights reserved.
  15:../BSP/dave_fixes/I2C_MASTER/i2c_master.c ****  *
  16:../BSP/dave_fixes/I2C_MASTER/i2c_master.c ****  * Redistribution and use in source and binary forms, with or without modification,are permitted pr
  17:../BSP/dave_fixes/I2C_MASTER/i2c_master.c ****  * following conditions are met:
  18:../BSP/dave_fixes/I2C_MASTER/i2c_master.c ****  *
  19:../BSP/dave_fixes/I2C_MASTER/i2c_master.c ****  *   Redistributions of source code must retain the above copyright notice, this list of conditions
  20:../BSP/dave_fixes/I2C_MASTER/i2c_master.c ****  *   disclaimer.
  21:../BSP/dave_fixes/I2C_MASTER/i2c_master.c ****  *
  22:../BSP/dave_fixes/I2C_MASTER/i2c_master.c ****  *   Redistributions in binary form must reproduce the above copyright notice, this list of conditi
  23:../BSP/dave_fixes/I2C_MASTER/i2c_master.c ****  *   following disclaimer in the documentation and/or other materials provided with the distributio
  24:../BSP/dave_fixes/I2C_MASTER/i2c_master.c ****  *
  25:../BSP/dave_fixes/I2C_MASTER/i2c_master.c ****  *   Neither the name of the copyright holders nor the names of its contributors may be used to end
  26:../BSP/dave_fixes/I2C_MASTER/i2c_master.c ****  *   products derived from this software without specific prior written permission.
  27:../BSP/dave_fixes/I2C_MASTER/i2c_master.c ****  *
  28:../BSP/dave_fixes/I2C_MASTER/i2c_master.c ****  * THIS SOFTWARE IS PROVIDED BY THE COPYRIGHT HOLDERS AND CONTRIBUTORS "AS IS" AND ANY EXPRESS OR I
  29:../BSP/dave_fixes/I2C_MASTER/i2c_master.c ****  * INCLUDING, BUT NOT LIMITED TO, THE IMPLIED WARRANTIES OF MERCHANTABILITY AND FITNESS FOR A PARTI
  30:../BSP/dave_fixes/I2C_MASTER/i2c_master.c ****  * DISCLAIMED. IN NO EVENT SHALL THE COPYRIGHT HOLDER OR CONTRIBUTORS BE LIABLE  FOR ANY DIRECT, IN
  31:../BSP/dave_fixes/I2C_MASTER/i2c_master.c ****  * SPECIAL, EXEMPLARY, OR CONSEQUENTIAL DAMAGES (INCLUDING, BUT NOT LIMITED TO, PROCUREMENT OF SUBS
  32:../BSP/dave_fixes/I2C_MASTER/i2c_master.c ****  * SERVICES; LOSS OF USE, DATA, OR PROFITS; OR BUSINESS INTERRUPTION) HOWEVER CAUSED AND ON ANY THE
  33:../BSP/dave_fixes/I2C_MASTER/i2c_master.c ****  * WHETHER IN CONTRACT, STRICT LIABILITY,OR TORT (INCLUDING NEGLIGENCE OR OTHERWISE) ARISING IN ANY
  34:../BSP/dave_fixes/I2C_MASTER/i2c_master.c ****  * USE OF THIS SOFTWARE, EVEN IF ADVISED OF THE POSSIBILITY OF SUCH DAMAGE.
  35:../BSP/dave_fixes/I2C_MASTER/i2c_master.c ****  *
  36:../BSP/dave_fixes/I2C_MASTER/i2c_master.c ****  * To improve the quality of the software, users are encouraged to share modifications, enhancement
  37:../BSP/dave_fixes/I2C_MASTER/i2c_master.c ****  * with Infineon Technologies AG (dave@infineon.com).
  38:../BSP/dave_fixes/I2C_MASTER/i2c_master.c ****  **************************************************************************************************
  39:../BSP/dave_fixes/I2C_MASTER/i2c_master.c ****  *
  40:../BSP/dave_fixes/I2C_MASTER/i2c_master.c ****  * Change History
  41:../BSP/dave_fixes/I2C_MASTER/i2c_master.c ****  * --------------
  42:../BSP/dave_fixes/I2C_MASTER/i2c_master.c ****  *
  43:../BSP/dave_fixes/I2C_MASTER/i2c_master.c ****  * 2015-02-16:
  44:../BSP/dave_fixes/I2C_MASTER/i2c_master.c ****  *     - Initial version<br>
  45:../BSP/dave_fixes/I2C_MASTER/i2c_master.c ****  *
  46:../BSP/dave_fixes/I2C_MASTER/i2c_master.c ****  * 2015-06-10:
  47:../BSP/dave_fixes/I2C_MASTER/i2c_master.c ****  *     - AbortTransmit and AbortReceive API return type modified. <br>
  48:../BSP/dave_fixes/I2C_MASTER/i2c_master.c ****  *
  49:../BSP/dave_fixes/I2C_MASTER/i2c_master.c ****  * 2015-07-31:
  50:../BSP/dave_fixes/I2C_MASTER/i2c_master.c ****  *     - DMA support APIs added
  51:../BSP/dave_fixes/I2C_MASTER/i2c_master.c ****  *
  52:../BSP/dave_fixes/I2C_MASTER/i2c_master.c ****  * 2017-01-19:
  53:../BSP/dave_fixes/I2C_MASTER/i2c_master.c ****  *     - Avoid unintended interrupts when filling FIFO
  54:../BSP/dave_fixes/I2C_MASTER/i2c_master.c ****  *
  55:../BSP/dave_fixes/I2C_MASTER/i2c_master.c ****  * 2017-11-17:
  56:../BSP/dave_fixes/I2C_MASTER/i2c_master.c ****  *     - Use tx_irqn of channel config structure in the call of NVIC_ClearPendingIRQ()
  57:../BSP/dave_fixes/I2C_MASTER/i2c_master.c ****  *
  58:../BSP/dave_fixes/I2C_MASTER/i2c_master.c ****  * 2017-12-20:
  59:../BSP/dave_fixes/I2C_MASTER/i2c_master.c ****  *     - Fix TX DMA issues
  60:../BSP/dave_fixes/I2C_MASTER/i2c_master.c ****  *
  61:../BSP/dave_fixes/I2C_MASTER/i2c_master.c ****  * @endcond
  62:../BSP/dave_fixes/I2C_MASTER/i2c_master.c ****  *
  63:../BSP/dave_fixes/I2C_MASTER/i2c_master.c ****  */
  64:../BSP/dave_fixes/I2C_MASTER/i2c_master.c **** /**************************************************************************************************
  65:../BSP/dave_fixes/I2C_MASTER/i2c_master.c ****  * HEADER FILES
  66:../BSP/dave_fixes/I2C_MASTER/i2c_master.c ****  **************************************************************************************************
  67:../BSP/dave_fixes/I2C_MASTER/i2c_master.c **** #include "i2c_master.h"
  68:../BSP/dave_fixes/I2C_MASTER/i2c_master.c **** 
  69:../BSP/dave_fixes/I2C_MASTER/i2c_master.c **** /**************************************************************************************************
  70:../BSP/dave_fixes/I2C_MASTER/i2c_master.c ****  * MACROS
  71:../BSP/dave_fixes/I2C_MASTER/i2c_master.c ****  **************************************************************************************************
  72:../BSP/dave_fixes/I2C_MASTER/i2c_master.c **** #define I2C_MASTER_TDF_RECEIVE_ACK             (0x0200U)
  73:../BSP/dave_fixes/I2C_MASTER/i2c_master.c **** #define I2C_MASTER_TDF_RECEIVE_NACK       (3U << 8U)
  74:../BSP/dave_fixes/I2C_MASTER/i2c_master.c **** #define I2C_MASTER_DMA_SRC_DST_TR_WIDTH_MASK   (0x7EU)
  75:../BSP/dave_fixes/I2C_MASTER/i2c_master.c **** #define I2C_MASTER_DMA_SRC_ADDR_INC_MASK       (0x600U)
  76:../BSP/dave_fixes/I2C_MASTER/i2c_master.c **** #define I2C_MASTER_DMA_SRC_ADDR_INC_POS        (9U)
  77:../BSP/dave_fixes/I2C_MASTER/i2c_master.c **** #define I2C_MASTER_DMA_SRC_TRANSFER_WIDTH_POS  (4U)
  78:../BSP/dave_fixes/I2C_MASTER/i2c_master.c **** #define I2C_MASTER_DMA_DST_TRANSFER_WIDTH_POS  (1U)
  79:../BSP/dave_fixes/I2C_MASTER/i2c_master.c **** 
  80:../BSP/dave_fixes/I2C_MASTER/i2c_master.c **** #define I2C_DMA_MAX_BLOCK_SIZE (4095U)
  81:../BSP/dave_fixes/I2C_MASTER/i2c_master.c **** 
  82:../BSP/dave_fixes/I2C_MASTER/i2c_master.c **** /**************************************************************************************************
  83:../BSP/dave_fixes/I2C_MASTER/i2c_master.c ****  * LOCAL DATA
  84:../BSP/dave_fixes/I2C_MASTER/i2c_master.c ****  **************************************************************************************************
  85:../BSP/dave_fixes/I2C_MASTER/i2c_master.c **** 
  86:../BSP/dave_fixes/I2C_MASTER/i2c_master.c **** /**************************************************************************************************
  87:../BSP/dave_fixes/I2C_MASTER/i2c_master.c ****  * LOCAL ROUTINES
  88:../BSP/dave_fixes/I2C_MASTER/i2c_master.c ****  **************************************************************************************************
  89:../BSP/dave_fixes/I2C_MASTER/i2c_master.c ****  /*
  90:../BSP/dave_fixes/I2C_MASTER/i2c_master.c ****  * Function monitors the configured protocol interrupt flags. It is called from the protocol interr
  91:../BSP/dave_fixes/I2C_MASTER/i2c_master.c ****  * service handler.
  92:../BSP/dave_fixes/I2C_MASTER/i2c_master.c ****  * Function reads the status of the USIC channel and checks for configured flags in the app UI.
  93:../BSP/dave_fixes/I2C_MASTER/i2c_master.c ****  * If any callback function is provided in the app UI, it will be called when the selected flag is 
  94:../BSP/dave_fixes/I2C_MASTER/i2c_master.c ****  *
  95:../BSP/dave_fixes/I2C_MASTER/i2c_master.c ****  * I2C_MASTER_t * pointer to the I2C_MASTER APP instance handle
  96:../BSP/dave_fixes/I2C_MASTER/i2c_master.c ****  *
  97:../BSP/dave_fixes/I2C_MASTER/i2c_master.c ****  */
  98:../BSP/dave_fixes/I2C_MASTER/i2c_master.c **** void I2C_MASTER_ProtocolHandler(I2C_MASTER_t * const handle);
  99:../BSP/dave_fixes/I2C_MASTER/i2c_master.c **** 
 100:../BSP/dave_fixes/I2C_MASTER/i2c_master.c **** #if ((I2C_MASTER_INTERRUPT_TX_ENABLED == 1) || (I2C_MASTER_INTERRUPT_RX_ENABLED == 1))
 101:../BSP/dave_fixes/I2C_MASTER/i2c_master.c **** static uint32_t calculate_minfifosize(uint32_t a, uint32_t b)
 102:../BSP/dave_fixes/I2C_MASTER/i2c_master.c **** {
 103:../BSP/dave_fixes/I2C_MASTER/i2c_master.c ****   uint32_t result;
 104:../BSP/dave_fixes/I2C_MASTER/i2c_master.c **** 
 105:../BSP/dave_fixes/I2C_MASTER/i2c_master.c ****   if (a < b)
 106:../BSP/dave_fixes/I2C_MASTER/i2c_master.c ****   {
 107:../BSP/dave_fixes/I2C_MASTER/i2c_master.c ****     result = a;
 108:../BSP/dave_fixes/I2C_MASTER/i2c_master.c ****   }
 109:../BSP/dave_fixes/I2C_MASTER/i2c_master.c ****   else
 110:../BSP/dave_fixes/I2C_MASTER/i2c_master.c ****   {
 111:../BSP/dave_fixes/I2C_MASTER/i2c_master.c ****     result = b;
 112:../BSP/dave_fixes/I2C_MASTER/i2c_master.c ****   }
 113:../BSP/dave_fixes/I2C_MASTER/i2c_master.c ****   return (result);
 114:../BSP/dave_fixes/I2C_MASTER/i2c_master.c **** }
 115:../BSP/dave_fixes/I2C_MASTER/i2c_master.c **** #endif
 116:../BSP/dave_fixes/I2C_MASTER/i2c_master.c **** 
 117:../BSP/dave_fixes/I2C_MASTER/i2c_master.c **** #if ((I2C_MASTER_INTERRUPT_TX_ENABLED == 1) || (I2C_MASTER_INTERRUPT_RX_ENABLED == 1) || \
 118:../BSP/dave_fixes/I2C_MASTER/i2c_master.c ****     (I2C_MASTER_DIRECT_TX_ENABLED == 1) || (I2C_MASTER_DIRECT_RX_ENABLED == 1))
 119:../BSP/dave_fixes/I2C_MASTER/i2c_master.c **** static void I2C_MASTER_lSendStart_Or_RepeatedStart(I2C_MASTER_t * handle, const uint32_t address,
 120:../BSP/dave_fixes/I2C_MASTER/i2c_master.c ****                                                const XMC_I2C_CH_CMD_t cmd);
 121:../BSP/dave_fixes/I2C_MASTER/i2c_master.c **** #endif
 122:../BSP/dave_fixes/I2C_MASTER/i2c_master.c **** 
 123:../BSP/dave_fixes/I2C_MASTER/i2c_master.c **** #if ((I2C_MASTER_INTERRUPT_TX_ENABLED == 1) || (I2C_MASTER_INTERRUPT_RX_ENABLED == 1))
 124:../BSP/dave_fixes/I2C_MASTER/i2c_master.c **** static void I2C_MASTER_lSendStop_JumpTo_TxCallback(I2C_MASTER_t *const handle);
 125:../BSP/dave_fixes/I2C_MASTER/i2c_master.c **** #endif
 126:../BSP/dave_fixes/I2C_MASTER/i2c_master.c **** 
 127:../BSP/dave_fixes/I2C_MASTER/i2c_master.c **** #if (I2C_MASTER_INTERRUPT_TX_ENABLED == 1)
 128:../BSP/dave_fixes/I2C_MASTER/i2c_master.c **** static void I2C_MASTER_AbortTransmitIRQ(const I2C_MASTER_t *const handle);
 129:../BSP/dave_fixes/I2C_MASTER/i2c_master.c **** #endif
 130:../BSP/dave_fixes/I2C_MASTER/i2c_master.c **** 
 131:../BSP/dave_fixes/I2C_MASTER/i2c_master.c **** #if (I2C_MASTER_INTERRUPT_RX_ENABLED == 1)
 132:../BSP/dave_fixes/I2C_MASTER/i2c_master.c **** static void I2C_MASTER_lSendStop_JumpTo_RxCallback(I2C_MASTER_t *const handle);
 133:../BSP/dave_fixes/I2C_MASTER/i2c_master.c **** static void I2C_MASTER_lReconfigureRxFIFO(const I2C_MASTER_t * const handle, uint32_t data_size);
 134:../BSP/dave_fixes/I2C_MASTER/i2c_master.c **** 
 135:../BSP/dave_fixes/I2C_MASTER/i2c_master.c **** static void I2C_MASTER_lReceive_FIFOData(I2C_MASTER_t * const handle, bool send_start, const uint32
 136:../BSP/dave_fixes/I2C_MASTER/i2c_master.c ****                                          const uint32_t count);
 137:../BSP/dave_fixes/I2C_MASTER/i2c_master.c **** 
 138:../BSP/dave_fixes/I2C_MASTER/i2c_master.c **** static void I2C_MASTER_lReceive_StdData(I2C_MASTER_t * const handle, bool send_start, const uint32_
 139:../BSP/dave_fixes/I2C_MASTER/i2c_master.c **** static void I2C_MASTER_lAbortReceiveIRQ(const I2C_MASTER_t *const handle);
 140:../BSP/dave_fixes/I2C_MASTER/i2c_master.c **** #endif
 141:../BSP/dave_fixes/I2C_MASTER/i2c_master.c **** 
 142:../BSP/dave_fixes/I2C_MASTER/i2c_master.c **** 
 143:../BSP/dave_fixes/I2C_MASTER/i2c_master.c **** #if (I2C_MASTER_DIRECT_TX_ENABLED == 1)
 144:../BSP/dave_fixes/I2C_MASTER/i2c_master.c **** static I2C_MASTER_STATUS_t I2C_MASTER_lStartTransmitPolling(I2C_MASTER_t *const handle, bool send_s
 145:../BSP/dave_fixes/I2C_MASTER/i2c_master.c ****                                                         const uint32_t slave_address, uint8_t *data
 146:../BSP/dave_fixes/I2C_MASTER/i2c_master.c ****                               bool send_stop);
 147:../BSP/dave_fixes/I2C_MASTER/i2c_master.c **** #endif
 148:../BSP/dave_fixes/I2C_MASTER/i2c_master.c **** #if I2C_MASTER_DIRECT_RX_ENABLED
 149:../BSP/dave_fixes/I2C_MASTER/i2c_master.c **** static I2C_MASTER_STATUS_t I2C_MASTER_lStartReceivePolling(I2C_MASTER_t *const handle, bool send_st
 150:../BSP/dave_fixes/I2C_MASTER/i2c_master.c ****                                                        uint8_t *data, uint32_t count, bool send_sto
 151:../BSP/dave_fixes/I2C_MASTER/i2c_master.c ****                                bool send_nack);
 152:../BSP/dave_fixes/I2C_MASTER/i2c_master.c **** #endif
 153:../BSP/dave_fixes/I2C_MASTER/i2c_master.c **** #if (I2C_MASTER_DMA_TX_ENABLED == 1)
 154:../BSP/dave_fixes/I2C_MASTER/i2c_master.c **** static void I2C_MASTER_lAbortTransmitDMA(const I2C_MASTER_t *const handle);
 155:../BSP/dave_fixes/I2C_MASTER/i2c_master.c **** #endif
 156:../BSP/dave_fixes/I2C_MASTER/i2c_master.c **** #if (I2C_MASTER_DMA_RX_ENABLED == 1)
 157:../BSP/dave_fixes/I2C_MASTER/i2c_master.c **** static void I2C_MASTER_lAbortReceiveDMA(const I2C_MASTER_t *const handle);
 158:../BSP/dave_fixes/I2C_MASTER/i2c_master.c **** #endif
 159:../BSP/dave_fixes/I2C_MASTER/i2c_master.c **** 
 160:../BSP/dave_fixes/I2C_MASTER/i2c_master.c **** #if (I2C_MASTER_DMA_TX_ENABLED == 1) && (I2C_MASTER_DMA_RX_ENABLED == 1)
 161:../BSP/dave_fixes/I2C_MASTER/i2c_master.c **** /* DMA buffer to send the ACK */
 162:../BSP/dave_fixes/I2C_MASTER/i2c_master.c **** static uint16_t ack_buf[1];
 163:../BSP/dave_fixes/I2C_MASTER/i2c_master.c **** static uint16_t nack_buf[1];
 164:../BSP/dave_fixes/I2C_MASTER/i2c_master.c **** #endif
 165:../BSP/dave_fixes/I2C_MASTER/i2c_master.c **** 
 166:../BSP/dave_fixes/I2C_MASTER/i2c_master.c **** /**************************************************************************************************
 167:../BSP/dave_fixes/I2C_MASTER/i2c_master.c **** * API IMPLEMENTATION
 168:../BSP/dave_fixes/I2C_MASTER/i2c_master.c **** ***************************************************************************************************
 169:../BSP/dave_fixes/I2C_MASTER/i2c_master.c **** 
 170:../BSP/dave_fixes/I2C_MASTER/i2c_master.c **** /*
 171:../BSP/dave_fixes/I2C_MASTER/i2c_master.c ****  * @brief API to retrieve the version of the I2C_MASTER APP.
 172:../BSP/dave_fixes/I2C_MASTER/i2c_master.c ****  *
 173:../BSP/dave_fixes/I2C_MASTER/i2c_master.c ****  * @return DAVE_APP_VERSION_t Structure containing major version, minor version
 174:../BSP/dave_fixes/I2C_MASTER/i2c_master.c ****  *         and patch version.
 175:../BSP/dave_fixes/I2C_MASTER/i2c_master.c ****  */
 176:../BSP/dave_fixes/I2C_MASTER/i2c_master.c **** DAVE_APP_VERSION_t I2C_MASTER_GetAppVersion(void)
 177:../BSP/dave_fixes/I2C_MASTER/i2c_master.c **** {
  28              	 .loc 1 177 0
  29              	 .cfi_startproc
  30              	 
  31              	 
  32              	 
  33              	.LVL0:
 178:../BSP/dave_fixes/I2C_MASTER/i2c_master.c ****   DAVE_APP_VERSION_t version;
 179:../BSP/dave_fixes/I2C_MASTER/i2c_master.c **** 
 180:../BSP/dave_fixes/I2C_MASTER/i2c_master.c ****   version.major = I2C_MASTER_MAJOR_VERSION;
 181:../BSP/dave_fixes/I2C_MASTER/i2c_master.c ****   version.minor = I2C_MASTER_MINOR_VERSION;
 182:../BSP/dave_fixes/I2C_MASTER/i2c_master.c ****   version.patch = I2C_MASTER_PATCH_VERSION;
 183:../BSP/dave_fixes/I2C_MASTER/i2c_master.c **** 
 184:../BSP/dave_fixes/I2C_MASTER/i2c_master.c ****   return (version);
  34              	 .loc 1 184 0
  35 0000 0423     	 movs r3,#4
  36 0002 0020     	 movs r0,#0
  37 0004 63F30700 	 bfi r0,r3,#0,#8
  38 0008 0123     	 movs r3,#1
  39 000a 63F30F20 	 bfi r0,r3,#8,#8
  40 000e 1C23     	 movs r3,#28
  41 0010 63F31740 	 bfi r0,r3,#16,#8
 177:../BSP/dave_fixes/I2C_MASTER/i2c_master.c ****   DAVE_APP_VERSION_t version;
  42              	 .loc 1 177 0
  43 0014 82B0     	 sub sp,sp,#8
  44              	.LCFI0:
  45              	 .cfi_def_cfa_offset 8
 185:../BSP/dave_fixes/I2C_MASTER/i2c_master.c **** }
  46              	 .loc 1 185 0
  47 0016 02B0     	 add sp,sp,#8
  48              	.LCFI1:
  49              	 .cfi_def_cfa_offset 0
  50              	 
  51 0018 7047     	 bx lr
  52              	 .cfi_endproc
  53              	.LFE235:
  55 001a 00BF     	 .section .text.I2C_MASTER_Init,"ax",%progbits
  56              	 .align 2
  57              	 .global I2C_MASTER_Init
  58              	 .thumb
  59              	 .thumb_func
  61              	I2C_MASTER_Init:
  62              	.LFB236:
 186:../BSP/dave_fixes/I2C_MASTER/i2c_master.c **** 
 187:../BSP/dave_fixes/I2C_MASTER/i2c_master.c **** /* Function to initialize the USIC Channel with GUI configured values.*/
 188:../BSP/dave_fixes/I2C_MASTER/i2c_master.c **** I2C_MASTER_STATUS_t I2C_MASTER_Init(const I2C_MASTER_t *const handle)
 189:../BSP/dave_fixes/I2C_MASTER/i2c_master.c **** {
  63              	 .loc 1 189 0
  64              	 .cfi_startproc
  65              	 
  66              	 
  67              	.LVL1:
 190:../BSP/dave_fixes/I2C_MASTER/i2c_master.c ****   I2C_MASTER_STATUS_t status;
 191:../BSP/dave_fixes/I2C_MASTER/i2c_master.c **** 
 192:../BSP/dave_fixes/I2C_MASTER/i2c_master.c ****   if (handle != NULL)
  68              	 .loc 1 192 0
  69 0000 28B1     	 cbz r0,.L5
 189:../BSP/dave_fixes/I2C_MASTER/i2c_master.c ****   I2C_MASTER_STATUS_t status;
  70              	 .loc 1 189 0
  71 0002 08B5     	 push {r3,lr}
  72              	.LCFI2:
  73              	 .cfi_def_cfa_offset 8
  74              	 .cfi_offset 3,-8
  75              	 .cfi_offset 14,-4
 193:../BSP/dave_fixes/I2C_MASTER/i2c_master.c ****   {
 194:../BSP/dave_fixes/I2C_MASTER/i2c_master.c ****     /*Initialize the multiplexers required for I2C_MASTER configuration*/
 195:../BSP/dave_fixes/I2C_MASTER/i2c_master.c ****     handle->config->fptr_i2c_config();
  76              	 .loc 1 195 0
  77 0004 4368     	 ldr r3,[r0,#4]
  78 0006 5B68     	 ldr r3,[r3,#4]
  79 0008 9847     	 blx r3
  80              	.LVL2:
 196:../BSP/dave_fixes/I2C_MASTER/i2c_master.c **** 
 197:../BSP/dave_fixes/I2C_MASTER/i2c_master.c ****     status = I2C_MASTER_STATUS_SUCCESS;
  81              	 .loc 1 197 0
  82 000a 0020     	 movs r0,#0
  83 000c 08BD     	 pop {r3,pc}
  84              	.LVL3:
  85              	.L5:
  86              	.LCFI3:
  87              	 .cfi_def_cfa_offset 0
  88              	 .cfi_restore 3
  89              	 .cfi_restore 14
 198:../BSP/dave_fixes/I2C_MASTER/i2c_master.c ****   }
 199:../BSP/dave_fixes/I2C_MASTER/i2c_master.c ****   else
 200:../BSP/dave_fixes/I2C_MASTER/i2c_master.c ****   {
 201:../BSP/dave_fixes/I2C_MASTER/i2c_master.c ****     status = I2C_MASTER_STATUS_FAILURE;
  90              	 .loc 1 201 0
  91 000e 0120     	 movs r0,#1
  92              	.LVL4:
  93 0010 7047     	 bx lr
  94              	 .cfi_endproc
  95              	.LFE236:
  97 0012 00BF     	 .section .text.I2C_MASTER_GetFlagStatus,"ax",%progbits
  98              	 .align 2
  99              	 .global I2C_MASTER_GetFlagStatus
 100              	 .thumb
 101              	 .thumb_func
 103              	I2C_MASTER_GetFlagStatus:
 104              	.LFB237:
 202:../BSP/dave_fixes/I2C_MASTER/i2c_master.c ****   }
 203:../BSP/dave_fixes/I2C_MASTER/i2c_master.c ****   return (status);
 204:../BSP/dave_fixes/I2C_MASTER/i2c_master.c **** }
 205:../BSP/dave_fixes/I2C_MASTER/i2c_master.c **** 
 206:../BSP/dave_fixes/I2C_MASTER/i2c_master.c **** /* Function to get flag status of the requested parameter */
 207:../BSP/dave_fixes/I2C_MASTER/i2c_master.c **** uint32_t I2C_MASTER_GetFlagStatus(const I2C_MASTER_t *handle, uint32_t flagtype)
 208:../BSP/dave_fixes/I2C_MASTER/i2c_master.c **** {
 105              	 .loc 1 208 0
 106              	 .cfi_startproc
 107              	 
 108              	 
 109              	 
 110              	.LVL5:
 209:../BSP/dave_fixes/I2C_MASTER/i2c_master.c ****   uint32_t status;
 210:../BSP/dave_fixes/I2C_MASTER/i2c_master.c **** 
 211:../BSP/dave_fixes/I2C_MASTER/i2c_master.c ****   status = XMC_I2C_CH_GetStatusFlag(handle->channel);
 111              	 .loc 1 211 0
 112 0000 0368     	 ldr r3,[r0]
 113              	.LVL6:
 114              	.LBB162:
 115              	.LBB163:
 116              	 .file 2 "C:/Users/Utente/Desktop/Tesi/Firmware_Software/DAVE project/S2GLP_Pulsed_Doppler/Libraries/XMCLib/inc/xmc_i2c.h"
   1:C:/Users/Utente/Desktop/Tesi/Firmware_Software/DAVE project/S2GLP_Pulsed_Doppler/Libraries/XMCLib/inc\xmc_i2c.h **** /**
   2:C:/Users/Utente/Desktop/Tesi/Firmware_Software/DAVE project/S2GLP_Pulsed_Doppler/Libraries/XMCLib/inc\xmc_i2c.h ****  * @file xmc_i2c.h
   3:C:/Users/Utente/Desktop/Tesi/Firmware_Software/DAVE project/S2GLP_Pulsed_Doppler/Libraries/XMCLib/inc\xmc_i2c.h ****  * @date 2016-05-20
   4:C:/Users/Utente/Desktop/Tesi/Firmware_Software/DAVE project/S2GLP_Pulsed_Doppler/Libraries/XMCLib/inc\xmc_i2c.h ****  *
   5:C:/Users/Utente/Desktop/Tesi/Firmware_Software/DAVE project/S2GLP_Pulsed_Doppler/Libraries/XMCLib/inc\xmc_i2c.h ****  * @cond
   6:C:/Users/Utente/Desktop/Tesi/Firmware_Software/DAVE project/S2GLP_Pulsed_Doppler/Libraries/XMCLib/inc\xmc_i2c.h ****  **************************************************************************************************
   7:C:/Users/Utente/Desktop/Tesi/Firmware_Software/DAVE project/S2GLP_Pulsed_Doppler/Libraries/XMCLib/inc\xmc_i2c.h ****  * XMClib v2.1.16 - XMC Peripheral Driver Library 
   8:C:/Users/Utente/Desktop/Tesi/Firmware_Software/DAVE project/S2GLP_Pulsed_Doppler/Libraries/XMCLib/inc\xmc_i2c.h ****  *
   9:C:/Users/Utente/Desktop/Tesi/Firmware_Software/DAVE project/S2GLP_Pulsed_Doppler/Libraries/XMCLib/inc\xmc_i2c.h ****  * Copyright (c) 2015-2017, Infineon Technologies AG
  10:C:/Users/Utente/Desktop/Tesi/Firmware_Software/DAVE project/S2GLP_Pulsed_Doppler/Libraries/XMCLib/inc\xmc_i2c.h ****  * All rights reserved.                        
  11:C:/Users/Utente/Desktop/Tesi/Firmware_Software/DAVE project/S2GLP_Pulsed_Doppler/Libraries/XMCLib/inc\xmc_i2c.h ****  *                                             
  12:C:/Users/Utente/Desktop/Tesi/Firmware_Software/DAVE project/S2GLP_Pulsed_Doppler/Libraries/XMCLib/inc\xmc_i2c.h ****  * Redistribution and use in source and binary forms, with or without modification,are permitted pr
  13:C:/Users/Utente/Desktop/Tesi/Firmware_Software/DAVE project/S2GLP_Pulsed_Doppler/Libraries/XMCLib/inc\xmc_i2c.h ****  * following conditions are met:   
  14:C:/Users/Utente/Desktop/Tesi/Firmware_Software/DAVE project/S2GLP_Pulsed_Doppler/Libraries/XMCLib/inc\xmc_i2c.h ****  *                                                                              
  15:C:/Users/Utente/Desktop/Tesi/Firmware_Software/DAVE project/S2GLP_Pulsed_Doppler/Libraries/XMCLib/inc\xmc_i2c.h ****  * Redistributions of source code must retain the above copyright notice, this list of conditions a
  16:C:/Users/Utente/Desktop/Tesi/Firmware_Software/DAVE project/S2GLP_Pulsed_Doppler/Libraries/XMCLib/inc\xmc_i2c.h ****  * disclaimer.                        
  17:C:/Users/Utente/Desktop/Tesi/Firmware_Software/DAVE project/S2GLP_Pulsed_Doppler/Libraries/XMCLib/inc\xmc_i2c.h ****  * 
  18:C:/Users/Utente/Desktop/Tesi/Firmware_Software/DAVE project/S2GLP_Pulsed_Doppler/Libraries/XMCLib/inc\xmc_i2c.h ****  * Redistributions in binary form must reproduce the above copyright notice, this list of condition
  19:C:/Users/Utente/Desktop/Tesi/Firmware_Software/DAVE project/S2GLP_Pulsed_Doppler/Libraries/XMCLib/inc\xmc_i2c.h ****  * disclaimer in the documentation and/or other materials provided with the distribution.          
  20:C:/Users/Utente/Desktop/Tesi/Firmware_Software/DAVE project/S2GLP_Pulsed_Doppler/Libraries/XMCLib/inc\xmc_i2c.h ****  * 
  21:C:/Users/Utente/Desktop/Tesi/Firmware_Software/DAVE project/S2GLP_Pulsed_Doppler/Libraries/XMCLib/inc\xmc_i2c.h ****  * Neither the name of the copyright holders nor the names of its contributors may be used to endor
  22:C:/Users/Utente/Desktop/Tesi/Firmware_Software/DAVE project/S2GLP_Pulsed_Doppler/Libraries/XMCLib/inc\xmc_i2c.h ****  * products derived from this software without specific prior written permission.                  
  23:C:/Users/Utente/Desktop/Tesi/Firmware_Software/DAVE project/S2GLP_Pulsed_Doppler/Libraries/XMCLib/inc\xmc_i2c.h ****  *                                                                              
  24:C:/Users/Utente/Desktop/Tesi/Firmware_Software/DAVE project/S2GLP_Pulsed_Doppler/Libraries/XMCLib/inc\xmc_i2c.h ****  * THIS SOFTWARE IS PROVIDED BY THE COPYRIGHT HOLDERS AND CONTRIBUTORS "AS IS" AND ANY EXPRESS OR I
  25:C:/Users/Utente/Desktop/Tesi/Firmware_Software/DAVE project/S2GLP_Pulsed_Doppler/Libraries/XMCLib/inc\xmc_i2c.h ****  * INCLUDING, BUT NOT LIMITED TO, THE IMPLIED WARRANTIES OF MERCHANTABILITY AND FITNESS FOR A PARTI
  26:C:/Users/Utente/Desktop/Tesi/Firmware_Software/DAVE project/S2GLP_Pulsed_Doppler/Libraries/XMCLib/inc\xmc_i2c.h ****  * DISCLAIMED. IN NO EVENT SHALL THE COPYRIGHT HOLDER OR CONTRIBUTORS BE LIABLE  FOR ANY DIRECT, IN
  27:C:/Users/Utente/Desktop/Tesi/Firmware_Software/DAVE project/S2GLP_Pulsed_Doppler/Libraries/XMCLib/inc\xmc_i2c.h ****  * SPECIAL, EXEMPLARY, OR CONSEQUENTIAL DAMAGES (INCLUDING, BUT NOT LIMITED TO, PROCUREMENT OF SUBS
  28:C:/Users/Utente/Desktop/Tesi/Firmware_Software/DAVE project/S2GLP_Pulsed_Doppler/Libraries/XMCLib/inc\xmc_i2c.h ****  * SERVICES; LOSS OF USE, DATA, OR PROFITS; OR BUSINESS INTERRUPTION) HOWEVER CAUSED AND ON ANY THE
  29:C:/Users/Utente/Desktop/Tesi/Firmware_Software/DAVE project/S2GLP_Pulsed_Doppler/Libraries/XMCLib/inc\xmc_i2c.h ****  * WHETHER IN CONTRACT, STRICT LIABILITY,OR TORT (INCLUDING NEGLIGENCE OR OTHERWISE) ARISING IN ANY
  30:C:/Users/Utente/Desktop/Tesi/Firmware_Software/DAVE project/S2GLP_Pulsed_Doppler/Libraries/XMCLib/inc\xmc_i2c.h ****  * OF THIS SOFTWARE, EVEN IF ADVISED OF THE POSSIBILITY OF SUCH DAMAGE.                            
  31:C:/Users/Utente/Desktop/Tesi/Firmware_Software/DAVE project/S2GLP_Pulsed_Doppler/Libraries/XMCLib/inc\xmc_i2c.h ****  *                                                                              
  32:C:/Users/Utente/Desktop/Tesi/Firmware_Software/DAVE project/S2GLP_Pulsed_Doppler/Libraries/XMCLib/inc\xmc_i2c.h ****  * To improve the quality of the software, users are encouraged to share modifications, enhancement
  33:C:/Users/Utente/Desktop/Tesi/Firmware_Software/DAVE project/S2GLP_Pulsed_Doppler/Libraries/XMCLib/inc\xmc_i2c.h ****  * Infineon Technologies AG dave@infineon.com).                                                    
  34:C:/Users/Utente/Desktop/Tesi/Firmware_Software/DAVE project/S2GLP_Pulsed_Doppler/Libraries/XMCLib/inc\xmc_i2c.h ****  **************************************************************************************************
  35:C:/Users/Utente/Desktop/Tesi/Firmware_Software/DAVE project/S2GLP_Pulsed_Doppler/Libraries/XMCLib/inc\xmc_i2c.h ****  *
  36:C:/Users/Utente/Desktop/Tesi/Firmware_Software/DAVE project/S2GLP_Pulsed_Doppler/Libraries/XMCLib/inc\xmc_i2c.h ****  * Change History
  37:C:/Users/Utente/Desktop/Tesi/Firmware_Software/DAVE project/S2GLP_Pulsed_Doppler/Libraries/XMCLib/inc\xmc_i2c.h ****  * --------------
  38:C:/Users/Utente/Desktop/Tesi/Firmware_Software/DAVE project/S2GLP_Pulsed_Doppler/Libraries/XMCLib/inc\xmc_i2c.h ****  *
  39:C:/Users/Utente/Desktop/Tesi/Firmware_Software/DAVE project/S2GLP_Pulsed_Doppler/Libraries/XMCLib/inc\xmc_i2c.h ****  * 2015-02-20:
  40:C:/Users/Utente/Desktop/Tesi/Firmware_Software/DAVE project/S2GLP_Pulsed_Doppler/Libraries/XMCLib/inc\xmc_i2c.h ****  *     - Initial <br>
  41:C:/Users/Utente/Desktop/Tesi/Firmware_Software/DAVE project/S2GLP_Pulsed_Doppler/Libraries/XMCLib/inc\xmc_i2c.h ****  *      
  42:C:/Users/Utente/Desktop/Tesi/Firmware_Software/DAVE project/S2GLP_Pulsed_Doppler/Libraries/XMCLib/inc\xmc_i2c.h ****  * 2015-05-20:
  43:C:/Users/Utente/Desktop/Tesi/Firmware_Software/DAVE project/S2GLP_Pulsed_Doppler/Libraries/XMCLib/inc\xmc_i2c.h ****  *     - Description updated <br>
  44:C:/Users/Utente/Desktop/Tesi/Firmware_Software/DAVE project/S2GLP_Pulsed_Doppler/Libraries/XMCLib/inc\xmc_i2c.h ****  *     - Added XMC_I2C_CH_TriggerServiceRequest() and XMC_I2C_CH_SelectInterruptNodePointer() <br>
  45:C:/Users/Utente/Desktop/Tesi/Firmware_Software/DAVE project/S2GLP_Pulsed_Doppler/Libraries/XMCLib/inc\xmc_i2c.h ****  *
  46:C:/Users/Utente/Desktop/Tesi/Firmware_Software/DAVE project/S2GLP_Pulsed_Doppler/Libraries/XMCLib/inc\xmc_i2c.h ****  * 2015-06-20:
  47:C:/Users/Utente/Desktop/Tesi/Firmware_Software/DAVE project/S2GLP_Pulsed_Doppler/Libraries/XMCLib/inc\xmc_i2c.h ****  *     - Removed version macros and declaration of GetDriverVersion API <br>
  48:C:/Users/Utente/Desktop/Tesi/Firmware_Software/DAVE project/S2GLP_Pulsed_Doppler/Libraries/XMCLib/inc\xmc_i2c.h ****  *
  49:C:/Users/Utente/Desktop/Tesi/Firmware_Software/DAVE project/S2GLP_Pulsed_Doppler/Libraries/XMCLib/inc\xmc_i2c.h ****  * 2015-08-27:
  50:C:/Users/Utente/Desktop/Tesi/Firmware_Software/DAVE project/S2GLP_Pulsed_Doppler/Libraries/XMCLib/inc\xmc_i2c.h ****  *     - Added APIs for external input for BRG configuration:XMC_I2C_CH_ConfigExternalInputSignalTo
  51:C:/Users/Utente/Desktop/Tesi/Firmware_Software/DAVE project/S2GLP_Pulsed_Doppler/Libraries/XMCLib/inc\xmc_i2c.h ****  *
  52:C:/Users/Utente/Desktop/Tesi/Firmware_Software/DAVE project/S2GLP_Pulsed_Doppler/Libraries/XMCLib/inc\xmc_i2c.h ****  * 2015-09-01:
  53:C:/Users/Utente/Desktop/Tesi/Firmware_Software/DAVE project/S2GLP_Pulsed_Doppler/Libraries/XMCLib/inc\xmc_i2c.h ****  *     - Added APIs for enabling or disabling the ACK response to a 0x00 slave address: XMC_I2C_CH_
  54:C:/Users/Utente/Desktop/Tesi/Firmware_Software/DAVE project/S2GLP_Pulsed_Doppler/Libraries/XMCLib/inc\xmc_i2c.h ****  *       XMC_I2C_CH_DisableSlaveAcknowledgeTo00(). <br>
  55:C:/Users/Utente/Desktop/Tesi/Firmware_Software/DAVE project/S2GLP_Pulsed_Doppler/Libraries/XMCLib/inc\xmc_i2c.h ****  *     - Modified XMC_I2C_CH_SetInputSource() API for avoiding complete DXCR register overwriting. 
  56:C:/Users/Utente/Desktop/Tesi/Firmware_Software/DAVE project/S2GLP_Pulsed_Doppler/Libraries/XMCLib/inc\xmc_i2c.h ****  *     - Modified XMC_I2C_CH_EVENT_t enum for supporting XMC_I2C_CH_EnableEvent() and XMC_I2C_CH_Di
  57:C:/Users/Utente/Desktop/Tesi/Firmware_Software/DAVE project/S2GLP_Pulsed_Doppler/Libraries/XMCLib/inc\xmc_i2c.h ****  *       for supporting multiple events configuration <br>
  58:C:/Users/Utente/Desktop/Tesi/Firmware_Software/DAVE project/S2GLP_Pulsed_Doppler/Libraries/XMCLib/inc\xmc_i2c.h ****  *
  59:C:/Users/Utente/Desktop/Tesi/Firmware_Software/DAVE project/S2GLP_Pulsed_Doppler/Libraries/XMCLib/inc\xmc_i2c.h ****  * 2015-10-02:
  60:C:/Users/Utente/Desktop/Tesi/Firmware_Software/DAVE project/S2GLP_Pulsed_Doppler/Libraries/XMCLib/inc\xmc_i2c.h ****  *     - Fix 10bit addressing
  61:C:/Users/Utente/Desktop/Tesi/Firmware_Software/DAVE project/S2GLP_Pulsed_Doppler/Libraries/XMCLib/inc\xmc_i2c.h ****  *
  62:C:/Users/Utente/Desktop/Tesi/Firmware_Software/DAVE project/S2GLP_Pulsed_Doppler/Libraries/XMCLib/inc\xmc_i2c.h ****  * 2015-10-07:
  63:C:/Users/Utente/Desktop/Tesi/Firmware_Software/DAVE project/S2GLP_Pulsed_Doppler/Libraries/XMCLib/inc\xmc_i2c.h ****  *     - Fix register access in XMC_I2C_CH_EnableSlaveAcknowledgeTo00() and XMC_I2C_CH_DisableSlave
  64:C:/Users/Utente/Desktop/Tesi/Firmware_Software/DAVE project/S2GLP_Pulsed_Doppler/Libraries/XMCLib/inc\xmc_i2c.h ****  *     - Naming of APIs modified: from XMC_I2C_CH_EnableSlaveAcknowledgeTo00() to  XMC_I2C_CH_Enabl
  65:C:/Users/Utente/Desktop/Tesi/Firmware_Software/DAVE project/S2GLP_Pulsed_Doppler/Libraries/XMCLib/inc\xmc_i2c.h ****  *       and from XMC_I2C_CH_DisableSlaveAcknowledgeTo00() to XMC_I2C_CH_DisableAcknowledgeAddress0
  66:C:/Users/Utente/Desktop/Tesi/Firmware_Software/DAVE project/S2GLP_Pulsed_Doppler/Libraries/XMCLib/inc\xmc_i2c.h ****  *
  67:C:/Users/Utente/Desktop/Tesi/Firmware_Software/DAVE project/S2GLP_Pulsed_Doppler/Libraries/XMCLib/inc\xmc_i2c.h ****  * 2016-05-20:
  68:C:/Users/Utente/Desktop/Tesi/Firmware_Software/DAVE project/S2GLP_Pulsed_Doppler/Libraries/XMCLib/inc\xmc_i2c.h ****  *     - Added XMC_I2C_CH_EnableDataTransmission() and XMC_I2C_CH_DisableDataTransmission()
  69:C:/Users/Utente/Desktop/Tesi/Firmware_Software/DAVE project/S2GLP_Pulsed_Doppler/Libraries/XMCLib/inc\xmc_i2c.h ****  *
  70:C:/Users/Utente/Desktop/Tesi/Firmware_Software/DAVE project/S2GLP_Pulsed_Doppler/Libraries/XMCLib/inc\xmc_i2c.h ****  * 2016-08-17:
  71:C:/Users/Utente/Desktop/Tesi/Firmware_Software/DAVE project/S2GLP_Pulsed_Doppler/Libraries/XMCLib/inc\xmc_i2c.h ****  *     - Improved documentation of slave address passing
  72:C:/Users/Utente/Desktop/Tesi/Firmware_Software/DAVE project/S2GLP_Pulsed_Doppler/Libraries/XMCLib/inc\xmc_i2c.h ****  *
  73:C:/Users/Utente/Desktop/Tesi/Firmware_Software/DAVE project/S2GLP_Pulsed_Doppler/Libraries/XMCLib/inc\xmc_i2c.h ****  * @endcond 
  74:C:/Users/Utente/Desktop/Tesi/Firmware_Software/DAVE project/S2GLP_Pulsed_Doppler/Libraries/XMCLib/inc\xmc_i2c.h ****  *
  75:C:/Users/Utente/Desktop/Tesi/Firmware_Software/DAVE project/S2GLP_Pulsed_Doppler/Libraries/XMCLib/inc\xmc_i2c.h ****  */
  76:C:/Users/Utente/Desktop/Tesi/Firmware_Software/DAVE project/S2GLP_Pulsed_Doppler/Libraries/XMCLib/inc\xmc_i2c.h **** 
  77:C:/Users/Utente/Desktop/Tesi/Firmware_Software/DAVE project/S2GLP_Pulsed_Doppler/Libraries/XMCLib/inc\xmc_i2c.h **** #ifndef XMC_I2C_H
  78:C:/Users/Utente/Desktop/Tesi/Firmware_Software/DAVE project/S2GLP_Pulsed_Doppler/Libraries/XMCLib/inc\xmc_i2c.h **** #define XMC_I2C_H
  79:C:/Users/Utente/Desktop/Tesi/Firmware_Software/DAVE project/S2GLP_Pulsed_Doppler/Libraries/XMCLib/inc\xmc_i2c.h **** 
  80:C:/Users/Utente/Desktop/Tesi/Firmware_Software/DAVE project/S2GLP_Pulsed_Doppler/Libraries/XMCLib/inc\xmc_i2c.h **** /*******************************************************************************
  81:C:/Users/Utente/Desktop/Tesi/Firmware_Software/DAVE project/S2GLP_Pulsed_Doppler/Libraries/XMCLib/inc\xmc_i2c.h ****  * HEADER FILES
  82:C:/Users/Utente/Desktop/Tesi/Firmware_Software/DAVE project/S2GLP_Pulsed_Doppler/Libraries/XMCLib/inc\xmc_i2c.h ****  *******************************************************************************/
  83:C:/Users/Utente/Desktop/Tesi/Firmware_Software/DAVE project/S2GLP_Pulsed_Doppler/Libraries/XMCLib/inc\xmc_i2c.h **** 
  84:C:/Users/Utente/Desktop/Tesi/Firmware_Software/DAVE project/S2GLP_Pulsed_Doppler/Libraries/XMCLib/inc\xmc_i2c.h **** #include "xmc_usic.h"
  85:C:/Users/Utente/Desktop/Tesi/Firmware_Software/DAVE project/S2GLP_Pulsed_Doppler/Libraries/XMCLib/inc\xmc_i2c.h **** 
  86:C:/Users/Utente/Desktop/Tesi/Firmware_Software/DAVE project/S2GLP_Pulsed_Doppler/Libraries/XMCLib/inc\xmc_i2c.h **** /**
  87:C:/Users/Utente/Desktop/Tesi/Firmware_Software/DAVE project/S2GLP_Pulsed_Doppler/Libraries/XMCLib/inc\xmc_i2c.h ****  * @addtogroup XMClib XMC Peripheral Library
  88:C:/Users/Utente/Desktop/Tesi/Firmware_Software/DAVE project/S2GLP_Pulsed_Doppler/Libraries/XMCLib/inc\xmc_i2c.h ****  * @{
  89:C:/Users/Utente/Desktop/Tesi/Firmware_Software/DAVE project/S2GLP_Pulsed_Doppler/Libraries/XMCLib/inc\xmc_i2c.h ****  */
  90:C:/Users/Utente/Desktop/Tesi/Firmware_Software/DAVE project/S2GLP_Pulsed_Doppler/Libraries/XMCLib/inc\xmc_i2c.h **** 
  91:C:/Users/Utente/Desktop/Tesi/Firmware_Software/DAVE project/S2GLP_Pulsed_Doppler/Libraries/XMCLib/inc\xmc_i2c.h **** /**
  92:C:/Users/Utente/Desktop/Tesi/Firmware_Software/DAVE project/S2GLP_Pulsed_Doppler/Libraries/XMCLib/inc\xmc_i2c.h ****  * @addtogroup I2C
  93:C:/Users/Utente/Desktop/Tesi/Firmware_Software/DAVE project/S2GLP_Pulsed_Doppler/Libraries/XMCLib/inc\xmc_i2c.h ****  * @brief Inter Integrated Circuit(IIC) driver for the XMC microcontroller family. 
  94:C:/Users/Utente/Desktop/Tesi/Firmware_Software/DAVE project/S2GLP_Pulsed_Doppler/Libraries/XMCLib/inc\xmc_i2c.h ****  *
  95:C:/Users/Utente/Desktop/Tesi/Firmware_Software/DAVE project/S2GLP_Pulsed_Doppler/Libraries/XMCLib/inc\xmc_i2c.h ****  * USIC IIC Features: <br>
  96:C:/Users/Utente/Desktop/Tesi/Firmware_Software/DAVE project/S2GLP_Pulsed_Doppler/Libraries/XMCLib/inc\xmc_i2c.h ****  *  * Two-wire interface, with one line for shift clock transfer and synchronization (shift clock S
  97:C:/Users/Utente/Desktop/Tesi/Firmware_Software/DAVE project/S2GLP_Pulsed_Doppler/Libraries/XMCLib/inc\xmc_i2c.h ****  *	* Communication in standard mode (100 kBit/s) or in fast mode (up to 400 kBit/s) <br>
  98:C:/Users/Utente/Desktop/Tesi/Firmware_Software/DAVE project/S2GLP_Pulsed_Doppler/Libraries/XMCLib/inc\xmc_i2c.h ****  *	* Support of 7-bit addressing, as well as 10-bit addressing <br>
  99:C:/Users/Utente/Desktop/Tesi/Firmware_Software/DAVE project/S2GLP_Pulsed_Doppler/Libraries/XMCLib/inc\xmc_i2c.h ****  *	* Master mode operation, where the IIC controls the bus transactions and provides the clock sign
 100:C:/Users/Utente/Desktop/Tesi/Firmware_Software/DAVE project/S2GLP_Pulsed_Doppler/Libraries/XMCLib/inc\xmc_i2c.h ****  *	* Slave mode operation, where an external master controls the bus transactions and provides the 
 101:C:/Users/Utente/Desktop/Tesi/Firmware_Software/DAVE project/S2GLP_Pulsed_Doppler/Libraries/XMCLib/inc\xmc_i2c.h ****  *	* Multi-master mode operation, where several masters can be connected to the bus and bus arbitra
 102:C:/Users/Utente/Desktop/Tesi/Firmware_Software/DAVE project/S2GLP_Pulsed_Doppler/Libraries/XMCLib/inc\xmc_i2c.h **** 	  The master/slave operation of an IIC bus participant can change from frame to frame. <br>
 103:C:/Users/Utente/Desktop/Tesi/Firmware_Software/DAVE project/S2GLP_Pulsed_Doppler/Libraries/XMCLib/inc\xmc_i2c.h ****  *	* Efficient frame handling (low software effort), also allowing DMA transfers <br>
 104:C:/Users/Utente/Desktop/Tesi/Firmware_Software/DAVE project/S2GLP_Pulsed_Doppler/Libraries/XMCLib/inc\xmc_i2c.h ****  *	* Powerful interrupt handling due to multitude of indication flags <br>
 105:C:/Users/Utente/Desktop/Tesi/Firmware_Software/DAVE project/S2GLP_Pulsed_Doppler/Libraries/XMCLib/inc\xmc_i2c.h ****  * @{
 106:C:/Users/Utente/Desktop/Tesi/Firmware_Software/DAVE project/S2GLP_Pulsed_Doppler/Libraries/XMCLib/inc\xmc_i2c.h ****  */
 107:C:/Users/Utente/Desktop/Tesi/Firmware_Software/DAVE project/S2GLP_Pulsed_Doppler/Libraries/XMCLib/inc\xmc_i2c.h **** 
 108:C:/Users/Utente/Desktop/Tesi/Firmware_Software/DAVE project/S2GLP_Pulsed_Doppler/Libraries/XMCLib/inc\xmc_i2c.h **** /*******************************************************************************
 109:C:/Users/Utente/Desktop/Tesi/Firmware_Software/DAVE project/S2GLP_Pulsed_Doppler/Libraries/XMCLib/inc\xmc_i2c.h ****  * MACROS
 110:C:/Users/Utente/Desktop/Tesi/Firmware_Software/DAVE project/S2GLP_Pulsed_Doppler/Libraries/XMCLib/inc\xmc_i2c.h ****  *******************************************************************************/
 111:C:/Users/Utente/Desktop/Tesi/Firmware_Software/DAVE project/S2GLP_Pulsed_Doppler/Libraries/XMCLib/inc\xmc_i2c.h **** 
 112:C:/Users/Utente/Desktop/Tesi/Firmware_Software/DAVE project/S2GLP_Pulsed_Doppler/Libraries/XMCLib/inc\xmc_i2c.h **** #if defined(USIC0)
 113:C:/Users/Utente/Desktop/Tesi/Firmware_Software/DAVE project/S2GLP_Pulsed_Doppler/Libraries/XMCLib/inc\xmc_i2c.h **** #define XMC_I2C0_CH0 XMC_USIC0_CH0                   /**< USIC0 channel 0 base address */
 114:C:/Users/Utente/Desktop/Tesi/Firmware_Software/DAVE project/S2GLP_Pulsed_Doppler/Libraries/XMCLib/inc\xmc_i2c.h **** #define XMC_I2C0_CH1 XMC_USIC0_CH1                   /**< USIC0 channel 1 base address */
 115:C:/Users/Utente/Desktop/Tesi/Firmware_Software/DAVE project/S2GLP_Pulsed_Doppler/Libraries/XMCLib/inc\xmc_i2c.h **** #endif
 116:C:/Users/Utente/Desktop/Tesi/Firmware_Software/DAVE project/S2GLP_Pulsed_Doppler/Libraries/XMCLib/inc\xmc_i2c.h **** 
 117:C:/Users/Utente/Desktop/Tesi/Firmware_Software/DAVE project/S2GLP_Pulsed_Doppler/Libraries/XMCLib/inc\xmc_i2c.h **** #if defined(USIC1)
 118:C:/Users/Utente/Desktop/Tesi/Firmware_Software/DAVE project/S2GLP_Pulsed_Doppler/Libraries/XMCLib/inc\xmc_i2c.h **** #define XMC_I2C1_CH0 XMC_USIC1_CH0                   /**< USIC1 channel 0 base address */
 119:C:/Users/Utente/Desktop/Tesi/Firmware_Software/DAVE project/S2GLP_Pulsed_Doppler/Libraries/XMCLib/inc\xmc_i2c.h **** #define XMC_I2C1_CH1 XMC_USIC1_CH1                   /**< USIC1 channel 1 base address */
 120:C:/Users/Utente/Desktop/Tesi/Firmware_Software/DAVE project/S2GLP_Pulsed_Doppler/Libraries/XMCLib/inc\xmc_i2c.h **** #endif
 121:C:/Users/Utente/Desktop/Tesi/Firmware_Software/DAVE project/S2GLP_Pulsed_Doppler/Libraries/XMCLib/inc\xmc_i2c.h **** 
 122:C:/Users/Utente/Desktop/Tesi/Firmware_Software/DAVE project/S2GLP_Pulsed_Doppler/Libraries/XMCLib/inc\xmc_i2c.h **** #if defined(USIC2)
 123:C:/Users/Utente/Desktop/Tesi/Firmware_Software/DAVE project/S2GLP_Pulsed_Doppler/Libraries/XMCLib/inc\xmc_i2c.h **** #define XMC_I2C2_CH0 XMC_USIC2_CH0                   /**< USIC2 channel 0 base address */
 124:C:/Users/Utente/Desktop/Tesi/Firmware_Software/DAVE project/S2GLP_Pulsed_Doppler/Libraries/XMCLib/inc\xmc_i2c.h **** #define XMC_I2C2_CH1 XMC_USIC2_CH1                   /**< USIC2 channel 1 base address */
 125:C:/Users/Utente/Desktop/Tesi/Firmware_Software/DAVE project/S2GLP_Pulsed_Doppler/Libraries/XMCLib/inc\xmc_i2c.h **** #endif
 126:C:/Users/Utente/Desktop/Tesi/Firmware_Software/DAVE project/S2GLP_Pulsed_Doppler/Libraries/XMCLib/inc\xmc_i2c.h **** 
 127:C:/Users/Utente/Desktop/Tesi/Firmware_Software/DAVE project/S2GLP_Pulsed_Doppler/Libraries/XMCLib/inc\xmc_i2c.h **** #define XMC_I2C_10BIT_ADDR_GROUP       (0x7800U)	 /**< Value to verify the address is 10-bit or not
 128:C:/Users/Utente/Desktop/Tesi/Firmware_Software/DAVE project/S2GLP_Pulsed_Doppler/Libraries/XMCLib/inc\xmc_i2c.h **** 
 129:C:/Users/Utente/Desktop/Tesi/Firmware_Software/DAVE project/S2GLP_Pulsed_Doppler/Libraries/XMCLib/inc\xmc_i2c.h **** /*******************************************************************************
 130:C:/Users/Utente/Desktop/Tesi/Firmware_Software/DAVE project/S2GLP_Pulsed_Doppler/Libraries/XMCLib/inc\xmc_i2c.h ****  * ENUMS
 131:C:/Users/Utente/Desktop/Tesi/Firmware_Software/DAVE project/S2GLP_Pulsed_Doppler/Libraries/XMCLib/inc\xmc_i2c.h ****  *******************************************************************************/
 132:C:/Users/Utente/Desktop/Tesi/Firmware_Software/DAVE project/S2GLP_Pulsed_Doppler/Libraries/XMCLib/inc\xmc_i2c.h **** 
 133:C:/Users/Utente/Desktop/Tesi/Firmware_Software/DAVE project/S2GLP_Pulsed_Doppler/Libraries/XMCLib/inc\xmc_i2c.h **** /**
 134:C:/Users/Utente/Desktop/Tesi/Firmware_Software/DAVE project/S2GLP_Pulsed_Doppler/Libraries/XMCLib/inc\xmc_i2c.h ****  * @brief I2C Status
 135:C:/Users/Utente/Desktop/Tesi/Firmware_Software/DAVE project/S2GLP_Pulsed_Doppler/Libraries/XMCLib/inc\xmc_i2c.h ****  */
 136:C:/Users/Utente/Desktop/Tesi/Firmware_Software/DAVE project/S2GLP_Pulsed_Doppler/Libraries/XMCLib/inc\xmc_i2c.h **** typedef enum XMC_I2C_CH_STATUS
 137:C:/Users/Utente/Desktop/Tesi/Firmware_Software/DAVE project/S2GLP_Pulsed_Doppler/Libraries/XMCLib/inc\xmc_i2c.h **** {
 138:C:/Users/Utente/Desktop/Tesi/Firmware_Software/DAVE project/S2GLP_Pulsed_Doppler/Libraries/XMCLib/inc\xmc_i2c.h ****   XMC_I2C_CH_STATUS_OK,      /**< Status OK */
 139:C:/Users/Utente/Desktop/Tesi/Firmware_Software/DAVE project/S2GLP_Pulsed_Doppler/Libraries/XMCLib/inc\xmc_i2c.h ****   XMC_I2C_CH_STATUS_ERROR,   /**< Status ERROR */
 140:C:/Users/Utente/Desktop/Tesi/Firmware_Software/DAVE project/S2GLP_Pulsed_Doppler/Libraries/XMCLib/inc\xmc_i2c.h ****   XMC_I2C_CH_STATUS_BUSY     /**< Status BUSY */
 141:C:/Users/Utente/Desktop/Tesi/Firmware_Software/DAVE project/S2GLP_Pulsed_Doppler/Libraries/XMCLib/inc\xmc_i2c.h **** } XMC_I2C_CH_STATUS_t;
 142:C:/Users/Utente/Desktop/Tesi/Firmware_Software/DAVE project/S2GLP_Pulsed_Doppler/Libraries/XMCLib/inc\xmc_i2c.h **** 
 143:C:/Users/Utente/Desktop/Tesi/Firmware_Software/DAVE project/S2GLP_Pulsed_Doppler/Libraries/XMCLib/inc\xmc_i2c.h **** /**
 144:C:/Users/Utente/Desktop/Tesi/Firmware_Software/DAVE project/S2GLP_Pulsed_Doppler/Libraries/XMCLib/inc\xmc_i2c.h ****  * @brief I2C status
 145:C:/Users/Utente/Desktop/Tesi/Firmware_Software/DAVE project/S2GLP_Pulsed_Doppler/Libraries/XMCLib/inc\xmc_i2c.h ****  */
 146:C:/Users/Utente/Desktop/Tesi/Firmware_Software/DAVE project/S2GLP_Pulsed_Doppler/Libraries/XMCLib/inc\xmc_i2c.h **** typedef enum XMC_I2C_CH_STATUS_FLAG
 147:C:/Users/Utente/Desktop/Tesi/Firmware_Software/DAVE project/S2GLP_Pulsed_Doppler/Libraries/XMCLib/inc\xmc_i2c.h **** {
 148:C:/Users/Utente/Desktop/Tesi/Firmware_Software/DAVE project/S2GLP_Pulsed_Doppler/Libraries/XMCLib/inc\xmc_i2c.h ****   XMC_I2C_CH_STATUS_FLAG_SLAVE_SELECT = USIC_CH_PSR_IICMode_SLSEL_Msk,                     /**< Sla
 149:C:/Users/Utente/Desktop/Tesi/Firmware_Software/DAVE project/S2GLP_Pulsed_Doppler/Libraries/XMCLib/inc\xmc_i2c.h ****   XMC_I2C_CH_STATUS_FLAG_WRONG_TDF_CODE_FOUND = USIC_CH_PSR_IICMode_WTDF_Msk,              /**< Wro
 150:C:/Users/Utente/Desktop/Tesi/Firmware_Software/DAVE project/S2GLP_Pulsed_Doppler/Libraries/XMCLib/inc\xmc_i2c.h ****   XMC_I2C_CH_STATUS_FLAG_START_CONDITION_RECEIVED = USIC_CH_PSR_IICMode_SCR_Msk,           /**< Sta
 151:C:/Users/Utente/Desktop/Tesi/Firmware_Software/DAVE project/S2GLP_Pulsed_Doppler/Libraries/XMCLib/inc\xmc_i2c.h ****   XMC_I2C_CH_STATUS_FLAG_REPEATED_START_CONDITION_RECEIVED = USIC_CH_PSR_IICMode_RSCR_Msk, /**< Rep
 152:C:/Users/Utente/Desktop/Tesi/Firmware_Software/DAVE project/S2GLP_Pulsed_Doppler/Libraries/XMCLib/inc\xmc_i2c.h ****   XMC_I2C_CH_STATUS_FLAG_STOP_CONDITION_RECEIVED = USIC_CH_PSR_IICMode_PCR_Msk,            /**< Sto
 153:C:/Users/Utente/Desktop/Tesi/Firmware_Software/DAVE project/S2GLP_Pulsed_Doppler/Libraries/XMCLib/inc\xmc_i2c.h ****   XMC_I2C_CH_STATUS_FLAG_NACK_RECEIVED = USIC_CH_PSR_IICMode_NACK_Msk,                     /**< NAC
 154:C:/Users/Utente/Desktop/Tesi/Firmware_Software/DAVE project/S2GLP_Pulsed_Doppler/Libraries/XMCLib/inc\xmc_i2c.h ****   XMC_I2C_CH_STATUS_FLAG_ARBITRATION_LOST = USIC_CH_PSR_IICMode_ARL_Msk,                   /**< Arb
 155:C:/Users/Utente/Desktop/Tesi/Firmware_Software/DAVE project/S2GLP_Pulsed_Doppler/Libraries/XMCLib/inc\xmc_i2c.h ****   XMC_I2C_CH_STATUS_FLAG_SLAVE_READ_REQUESTED = USIC_CH_PSR_IICMode_SRR_Msk,               /**< Sla
 156:C:/Users/Utente/Desktop/Tesi/Firmware_Software/DAVE project/S2GLP_Pulsed_Doppler/Libraries/XMCLib/inc\xmc_i2c.h ****   XMC_I2C_CH_STATUS_FLAG_ERROR = USIC_CH_PSR_IICMode_ERR_Msk,                              /**< Err
 157:C:/Users/Utente/Desktop/Tesi/Firmware_Software/DAVE project/S2GLP_Pulsed_Doppler/Libraries/XMCLib/inc\xmc_i2c.h ****   XMC_I2C_CH_STATUS_FLAG_ACK_RECEIVED = USIC_CH_PSR_IICMode_ACK_Msk,                       /**< ACK
 158:C:/Users/Utente/Desktop/Tesi/Firmware_Software/DAVE project/S2GLP_Pulsed_Doppler/Libraries/XMCLib/inc\xmc_i2c.h ****   XMC_I2C_CH_STATUS_FLAG_RECEIVER_START_INDICATION = USIC_CH_PSR_IICMode_RSIF_Msk,         /**< Rec
 159:C:/Users/Utente/Desktop/Tesi/Firmware_Software/DAVE project/S2GLP_Pulsed_Doppler/Libraries/XMCLib/inc\xmc_i2c.h ****   XMC_I2C_CH_STATUS_FLAG_DATA_LOST_INDICATION = USIC_CH_PSR_IICMode_DLIF_Msk,              /**< Dat
 160:C:/Users/Utente/Desktop/Tesi/Firmware_Software/DAVE project/S2GLP_Pulsed_Doppler/Libraries/XMCLib/inc\xmc_i2c.h ****   XMC_I2C_CH_STATUS_FLAG_TRANSMIT_SHIFT_INDICATION = USIC_CH_PSR_IICMode_TSIF_Msk,         /**< Tra
 161:C:/Users/Utente/Desktop/Tesi/Firmware_Software/DAVE project/S2GLP_Pulsed_Doppler/Libraries/XMCLib/inc\xmc_i2c.h ****   XMC_I2C_CH_STATUS_FLAG_TRANSMIT_BUFFER_INDICATION = USIC_CH_PSR_IICMode_TBIF_Msk,        /**< Tra
 162:C:/Users/Utente/Desktop/Tesi/Firmware_Software/DAVE project/S2GLP_Pulsed_Doppler/Libraries/XMCLib/inc\xmc_i2c.h ****   XMC_I2C_CH_STATUS_FLAG_RECEIVE_INDICATION = USIC_CH_PSR_IICMode_RIF_Msk,                 /**< Rec
 163:C:/Users/Utente/Desktop/Tesi/Firmware_Software/DAVE project/S2GLP_Pulsed_Doppler/Libraries/XMCLib/inc\xmc_i2c.h ****   XMC_I2C_CH_STATUS_FLAG_ALTERNATIVE_RECEIVE_INDICATION = USIC_CH_PSR_IICMode_AIF_Msk,     /**< Alt
 164:C:/Users/Utente/Desktop/Tesi/Firmware_Software/DAVE project/S2GLP_Pulsed_Doppler/Libraries/XMCLib/inc\xmc_i2c.h ****   XMC_I2C_CH_STATUS_FLAG_BAUD_RATE_GENERATOR_INDICATION = USIC_CH_PSR_IICMode_BRGIF_Msk    /**< Bau
 165:C:/Users/Utente/Desktop/Tesi/Firmware_Software/DAVE project/S2GLP_Pulsed_Doppler/Libraries/XMCLib/inc\xmc_i2c.h **** } XMC_I2C_CH_STATUS_FLAG_t;
 166:C:/Users/Utente/Desktop/Tesi/Firmware_Software/DAVE project/S2GLP_Pulsed_Doppler/Libraries/XMCLib/inc\xmc_i2c.h **** 
 167:C:/Users/Utente/Desktop/Tesi/Firmware_Software/DAVE project/S2GLP_Pulsed_Doppler/Libraries/XMCLib/inc\xmc_i2c.h **** /**
 168:C:/Users/Utente/Desktop/Tesi/Firmware_Software/DAVE project/S2GLP_Pulsed_Doppler/Libraries/XMCLib/inc\xmc_i2c.h ****  * @brief I2C receiver status. The received data byte is available at the bit
 169:C:/Users/Utente/Desktop/Tesi/Firmware_Software/DAVE project/S2GLP_Pulsed_Doppler/Libraries/XMCLib/inc\xmc_i2c.h ****  * positions RBUF[7:0], whereas the additional information is monitored at the bit positions
 170:C:/Users/Utente/Desktop/Tesi/Firmware_Software/DAVE project/S2GLP_Pulsed_Doppler/Libraries/XMCLib/inc\xmc_i2c.h **** *  RBUF[12:8].
 171:C:/Users/Utente/Desktop/Tesi/Firmware_Software/DAVE project/S2GLP_Pulsed_Doppler/Libraries/XMCLib/inc\xmc_i2c.h ****  */
 172:C:/Users/Utente/Desktop/Tesi/Firmware_Software/DAVE project/S2GLP_Pulsed_Doppler/Libraries/XMCLib/inc\xmc_i2c.h **** typedef enum XMC_I2C_CH_RECEIVER_STATUS_FLAG
 173:C:/Users/Utente/Desktop/Tesi/Firmware_Software/DAVE project/S2GLP_Pulsed_Doppler/Libraries/XMCLib/inc\xmc_i2c.h **** {
 174:C:/Users/Utente/Desktop/Tesi/Firmware_Software/DAVE project/S2GLP_Pulsed_Doppler/Libraries/XMCLib/inc\xmc_i2c.h ****   XMC_I2C_CH_RECEIVER_STATUS_FLAG_ACK = 0x1U,      /**< Bit 8:  Value of Received Acknowledgement b
 175:C:/Users/Utente/Desktop/Tesi/Firmware_Software/DAVE project/S2GLP_Pulsed_Doppler/Libraries/XMCLib/inc\xmc_i2c.h ****   XMC_I2C_CH_RECEIVER_STATUS_FLAG_FIN = 0x2U,      /**< Bit 9:  A 1 at this bit position indicates 
 176:C:/Users/Utente/Desktop/Tesi/Firmware_Software/DAVE project/S2GLP_Pulsed_Doppler/Libraries/XMCLib/inc\xmc_i2c.h ****                                                                 followed by the address reception t
 177:C:/Users/Utente/Desktop/Tesi/Firmware_Software/DAVE project/S2GLP_Pulsed_Doppler/Libraries/XMCLib/inc\xmc_i2c.h ****                                                                 been received. A 0 at this bit posi
 178:C:/Users/Utente/Desktop/Tesi/Firmware_Software/DAVE project/S2GLP_Pulsed_Doppler/Libraries/XMCLib/inc\xmc_i2c.h ****   XMC_I2C_CH_RECEIVER_STATUS_FLAG_MODE = 0x4U,     /**< Bit 10: A 0 at this bit position indicates 
 179:C:/Users/Utente/Desktop/Tesi/Firmware_Software/DAVE project/S2GLP_Pulsed_Doppler/Libraries/XMCLib/inc\xmc_i2c.h ****                                                                 when the device has been in slave m
 180:C:/Users/Utente/Desktop/Tesi/Firmware_Software/DAVE project/S2GLP_Pulsed_Doppler/Libraries/XMCLib/inc\xmc_i2c.h ****   XMC_I2C_CH_RECEIVER_STATUS_FLAG_ERR = 0x8U,      /**< Bit 11: A 1 at this bit position indicates 
 181:C:/Users/Utente/Desktop/Tesi/Firmware_Software/DAVE project/S2GLP_Pulsed_Doppler/Libraries/XMCLib/inc\xmc_i2c.h ****                                                                 data byte in the receive buffer */
 182:C:/Users/Utente/Desktop/Tesi/Firmware_Software/DAVE project/S2GLP_Pulsed_Doppler/Libraries/XMCLib/inc\xmc_i2c.h ****   XMC_I2C_CH_RECEIVER_STATUS_FLAG_ADR = 0x10       /**< Bit 12: A 0 at this bit position indicates 
 183:C:/Users/Utente/Desktop/Tesi/Firmware_Software/DAVE project/S2GLP_Pulsed_Doppler/Libraries/XMCLib/inc\xmc_i2c.h ****                                                                 has been received. A 1 indicates a 
 184:C:/Users/Utente/Desktop/Tesi/Firmware_Software/DAVE project/S2GLP_Pulsed_Doppler/Libraries/XMCLib/inc\xmc_i2c.h **** } XMC_I2C_CH_RECEIVER_STATUS_FLAG_t;
 185:C:/Users/Utente/Desktop/Tesi/Firmware_Software/DAVE project/S2GLP_Pulsed_Doppler/Libraries/XMCLib/inc\xmc_i2c.h **** 
 186:C:/Users/Utente/Desktop/Tesi/Firmware_Software/DAVE project/S2GLP_Pulsed_Doppler/Libraries/XMCLib/inc\xmc_i2c.h **** /**
 187:C:/Users/Utente/Desktop/Tesi/Firmware_Software/DAVE project/S2GLP_Pulsed_Doppler/Libraries/XMCLib/inc\xmc_i2c.h ****  * @brief I2C commands
 188:C:/Users/Utente/Desktop/Tesi/Firmware_Software/DAVE project/S2GLP_Pulsed_Doppler/Libraries/XMCLib/inc\xmc_i2c.h ****  */
 189:C:/Users/Utente/Desktop/Tesi/Firmware_Software/DAVE project/S2GLP_Pulsed_Doppler/Libraries/XMCLib/inc\xmc_i2c.h **** typedef enum XMC_I2C_CH_CMD
 190:C:/Users/Utente/Desktop/Tesi/Firmware_Software/DAVE project/S2GLP_Pulsed_Doppler/Libraries/XMCLib/inc\xmc_i2c.h **** {
 191:C:/Users/Utente/Desktop/Tesi/Firmware_Software/DAVE project/S2GLP_Pulsed_Doppler/Libraries/XMCLib/inc\xmc_i2c.h ****   XMC_I2C_CH_CMD_WRITE,                            /**< I2C Command Write */
 192:C:/Users/Utente/Desktop/Tesi/Firmware_Software/DAVE project/S2GLP_Pulsed_Doppler/Libraries/XMCLib/inc\xmc_i2c.h ****   XMC_I2C_CH_CMD_READ                              /**< I2C Command Read */
 193:C:/Users/Utente/Desktop/Tesi/Firmware_Software/DAVE project/S2GLP_Pulsed_Doppler/Libraries/XMCLib/inc\xmc_i2c.h **** } XMC_I2C_CH_CMD_t;
 194:C:/Users/Utente/Desktop/Tesi/Firmware_Software/DAVE project/S2GLP_Pulsed_Doppler/Libraries/XMCLib/inc\xmc_i2c.h **** 
 195:C:/Users/Utente/Desktop/Tesi/Firmware_Software/DAVE project/S2GLP_Pulsed_Doppler/Libraries/XMCLib/inc\xmc_i2c.h **** /**
 196:C:/Users/Utente/Desktop/Tesi/Firmware_Software/DAVE project/S2GLP_Pulsed_Doppler/Libraries/XMCLib/inc\xmc_i2c.h ****  * @brief I2C events
 197:C:/Users/Utente/Desktop/Tesi/Firmware_Software/DAVE project/S2GLP_Pulsed_Doppler/Libraries/XMCLib/inc\xmc_i2c.h ****  */
 198:C:/Users/Utente/Desktop/Tesi/Firmware_Software/DAVE project/S2GLP_Pulsed_Doppler/Libraries/XMCLib/inc\xmc_i2c.h **** typedef enum XMC_I2C_CH_EVENT
 199:C:/Users/Utente/Desktop/Tesi/Firmware_Software/DAVE project/S2GLP_Pulsed_Doppler/Libraries/XMCLib/inc\xmc_i2c.h **** {
 200:C:/Users/Utente/Desktop/Tesi/Firmware_Software/DAVE project/S2GLP_Pulsed_Doppler/Libraries/XMCLib/inc\xmc_i2c.h ****   XMC_I2C_CH_EVENT_RECEIVE_START       = USIC_CH_CCR_RSIEN_Msk,  /**< Receive start event */
 201:C:/Users/Utente/Desktop/Tesi/Firmware_Software/DAVE project/S2GLP_Pulsed_Doppler/Libraries/XMCLib/inc\xmc_i2c.h ****   XMC_I2C_CH_EVENT_DATA_LOST           = USIC_CH_CCR_DLIEN_Msk,  /**< Data lost event */
 202:C:/Users/Utente/Desktop/Tesi/Firmware_Software/DAVE project/S2GLP_Pulsed_Doppler/Libraries/XMCLib/inc\xmc_i2c.h ****   XMC_I2C_CH_EVENT_TRANSMIT_SHIFT      = USIC_CH_CCR_TSIEN_Msk,  /**< Transmit shift event */
 203:C:/Users/Utente/Desktop/Tesi/Firmware_Software/DAVE project/S2GLP_Pulsed_Doppler/Libraries/XMCLib/inc\xmc_i2c.h ****   XMC_I2C_CH_EVENT_TRANSMIT_BUFFER     = USIC_CH_CCR_TBIEN_Msk,  /**< Transmit buffer event */
 204:C:/Users/Utente/Desktop/Tesi/Firmware_Software/DAVE project/S2GLP_Pulsed_Doppler/Libraries/XMCLib/inc\xmc_i2c.h ****   XMC_I2C_CH_EVENT_STANDARD_RECEIVE    = USIC_CH_CCR_RIEN_Msk,   /**< Receive event */
 205:C:/Users/Utente/Desktop/Tesi/Firmware_Software/DAVE project/S2GLP_Pulsed_Doppler/Libraries/XMCLib/inc\xmc_i2c.h ****   XMC_I2C_CH_EVENT_ALTERNATIVE_RECEIVE = USIC_CH_CCR_AIEN_Msk,   /**< Alternate receive event */
 206:C:/Users/Utente/Desktop/Tesi/Firmware_Software/DAVE project/S2GLP_Pulsed_Doppler/Libraries/XMCLib/inc\xmc_i2c.h ****   XMC_I2C_CH_EVENT_BAUD_RATE_GENERATOR = USIC_CH_CCR_BRGIEN_Msk, /**< Baudrate generator event */
 207:C:/Users/Utente/Desktop/Tesi/Firmware_Software/DAVE project/S2GLP_Pulsed_Doppler/Libraries/XMCLib/inc\xmc_i2c.h **** 
 208:C:/Users/Utente/Desktop/Tesi/Firmware_Software/DAVE project/S2GLP_Pulsed_Doppler/Libraries/XMCLib/inc\xmc_i2c.h ****   XMC_I2C_CH_EVENT_START_CONDITION_RECEIVED = USIC_CH_PCR_IICMode_SCRIEN_Msk,             /**< Star
 209:C:/Users/Utente/Desktop/Tesi/Firmware_Software/DAVE project/S2GLP_Pulsed_Doppler/Libraries/XMCLib/inc\xmc_i2c.h ****   XMC_I2C_CH_EVENT_REPEATED_START_CONDITION_RECEIVED = USIC_CH_PCR_IICMode_RSCRIEN_Msk,   /**< Repe
 210:C:/Users/Utente/Desktop/Tesi/Firmware_Software/DAVE project/S2GLP_Pulsed_Doppler/Libraries/XMCLib/inc\xmc_i2c.h ****   XMC_I2C_CH_EVENT_STOP_CONDITION_RECEIVED = USIC_CH_PCR_IICMode_PCRIEN_Msk,              /**< Stop
 211:C:/Users/Utente/Desktop/Tesi/Firmware_Software/DAVE project/S2GLP_Pulsed_Doppler/Libraries/XMCLib/inc\xmc_i2c.h ****   XMC_I2C_CH_EVENT_NACK = USIC_CH_PCR_IICMode_NACKIEN_Msk,                                /**< NACK
 212:C:/Users/Utente/Desktop/Tesi/Firmware_Software/DAVE project/S2GLP_Pulsed_Doppler/Libraries/XMCLib/inc\xmc_i2c.h ****   XMC_I2C_CH_EVENT_ARBITRATION_LOST = USIC_CH_PCR_IICMode_ARLIEN_Msk,                     /**< Arbi
 213:C:/Users/Utente/Desktop/Tesi/Firmware_Software/DAVE project/S2GLP_Pulsed_Doppler/Libraries/XMCLib/inc\xmc_i2c.h ****   XMC_I2C_CH_EVENT_SLAVE_READ_REQUEST = USIC_CH_PCR_IICMode_SRRIEN_Msk,                   /**< Slav
 214:C:/Users/Utente/Desktop/Tesi/Firmware_Software/DAVE project/S2GLP_Pulsed_Doppler/Libraries/XMCLib/inc\xmc_i2c.h ****   XMC_I2C_CH_EVENT_ERROR = USIC_CH_PCR_IICMode_ERRIEN_Msk,	                              /**< Error
 215:C:/Users/Utente/Desktop/Tesi/Firmware_Software/DAVE project/S2GLP_Pulsed_Doppler/Libraries/XMCLib/inc\xmc_i2c.h ****   XMC_I2C_CH_EVENT_ACK = USIC_CH_PCR_IICMode_ACKIEN_Msk                                   /**< ACK 
 216:C:/Users/Utente/Desktop/Tesi/Firmware_Software/DAVE project/S2GLP_Pulsed_Doppler/Libraries/XMCLib/inc\xmc_i2c.h **** } XMC_I2C_CH_EVENT_t;
 217:C:/Users/Utente/Desktop/Tesi/Firmware_Software/DAVE project/S2GLP_Pulsed_Doppler/Libraries/XMCLib/inc\xmc_i2c.h **** 
 218:C:/Users/Utente/Desktop/Tesi/Firmware_Software/DAVE project/S2GLP_Pulsed_Doppler/Libraries/XMCLib/inc\xmc_i2c.h **** /**
 219:C:/Users/Utente/Desktop/Tesi/Firmware_Software/DAVE project/S2GLP_Pulsed_Doppler/Libraries/XMCLib/inc\xmc_i2c.h ****  * @brief I2C input stage selection
 220:C:/Users/Utente/Desktop/Tesi/Firmware_Software/DAVE project/S2GLP_Pulsed_Doppler/Libraries/XMCLib/inc\xmc_i2c.h ****  */
 221:C:/Users/Utente/Desktop/Tesi/Firmware_Software/DAVE project/S2GLP_Pulsed_Doppler/Libraries/XMCLib/inc\xmc_i2c.h **** typedef enum XMC_I2C_CH_INPUT
 222:C:/Users/Utente/Desktop/Tesi/Firmware_Software/DAVE project/S2GLP_Pulsed_Doppler/Libraries/XMCLib/inc\xmc_i2c.h **** {
 223:C:/Users/Utente/Desktop/Tesi/Firmware_Software/DAVE project/S2GLP_Pulsed_Doppler/Libraries/XMCLib/inc\xmc_i2c.h ****   XMC_I2C_CH_INPUT_SDA = 0U,   /**< selection of sda input stage */
 224:C:/Users/Utente/Desktop/Tesi/Firmware_Software/DAVE project/S2GLP_Pulsed_Doppler/Libraries/XMCLib/inc\xmc_i2c.h **** #if UC_FAMILY == XMC1
 225:C:/Users/Utente/Desktop/Tesi/Firmware_Software/DAVE project/S2GLP_Pulsed_Doppler/Libraries/XMCLib/inc\xmc_i2c.h ****   XMC_I2C_CH_INPUT_SDA1 = 3U,
 226:C:/Users/Utente/Desktop/Tesi/Firmware_Software/DAVE project/S2GLP_Pulsed_Doppler/Libraries/XMCLib/inc\xmc_i2c.h ****   XMC_I2C_CH_INPUT_SDA2 = 5U,
 227:C:/Users/Utente/Desktop/Tesi/Firmware_Software/DAVE project/S2GLP_Pulsed_Doppler/Libraries/XMCLib/inc\xmc_i2c.h **** #endif  
 228:C:/Users/Utente/Desktop/Tesi/Firmware_Software/DAVE project/S2GLP_Pulsed_Doppler/Libraries/XMCLib/inc\xmc_i2c.h ****   XMC_I2C_CH_INPUT_SCL = 1U,  /**< selection of scl input stage */
 229:C:/Users/Utente/Desktop/Tesi/Firmware_Software/DAVE project/S2GLP_Pulsed_Doppler/Libraries/XMCLib/inc\xmc_i2c.h **** #if UC_FAMILY == XMC1
 230:C:/Users/Utente/Desktop/Tesi/Firmware_Software/DAVE project/S2GLP_Pulsed_Doppler/Libraries/XMCLib/inc\xmc_i2c.h ****   XMC_I2C_CH_INPUT_SCL1 = 4U
 231:C:/Users/Utente/Desktop/Tesi/Firmware_Software/DAVE project/S2GLP_Pulsed_Doppler/Libraries/XMCLib/inc\xmc_i2c.h **** #endif  
 232:C:/Users/Utente/Desktop/Tesi/Firmware_Software/DAVE project/S2GLP_Pulsed_Doppler/Libraries/XMCLib/inc\xmc_i2c.h **** } XMC_I2C_CH_INPUT_t;
 233:C:/Users/Utente/Desktop/Tesi/Firmware_Software/DAVE project/S2GLP_Pulsed_Doppler/Libraries/XMCLib/inc\xmc_i2c.h **** 
 234:C:/Users/Utente/Desktop/Tesi/Firmware_Software/DAVE project/S2GLP_Pulsed_Doppler/Libraries/XMCLib/inc\xmc_i2c.h **** /**
 235:C:/Users/Utente/Desktop/Tesi/Firmware_Software/DAVE project/S2GLP_Pulsed_Doppler/Libraries/XMCLib/inc\xmc_i2c.h ****  * I2C channel interrupt node pointers
 236:C:/Users/Utente/Desktop/Tesi/Firmware_Software/DAVE project/S2GLP_Pulsed_Doppler/Libraries/XMCLib/inc\xmc_i2c.h ****  */
 237:C:/Users/Utente/Desktop/Tesi/Firmware_Software/DAVE project/S2GLP_Pulsed_Doppler/Libraries/XMCLib/inc\xmc_i2c.h **** typedef enum XMC_I2C_CH_INTERRUPT_NODE_POINTER
 238:C:/Users/Utente/Desktop/Tesi/Firmware_Software/DAVE project/S2GLP_Pulsed_Doppler/Libraries/XMCLib/inc\xmc_i2c.h **** {
 239:C:/Users/Utente/Desktop/Tesi/Firmware_Software/DAVE project/S2GLP_Pulsed_Doppler/Libraries/XMCLib/inc\xmc_i2c.h ****   XMC_I2C_CH_INTERRUPT_NODE_POINTER_TRANSMIT_SHIFT      = XMC_USIC_CH_INTERRUPT_NODE_POINTER_TRANSM
 240:C:/Users/Utente/Desktop/Tesi/Firmware_Software/DAVE project/S2GLP_Pulsed_Doppler/Libraries/XMCLib/inc\xmc_i2c.h ****   XMC_I2C_CH_INTERRUPT_NODE_POINTER_TRANSMIT_BUFFER     = XMC_USIC_CH_INTERRUPT_NODE_POINTER_TRANSM
 241:C:/Users/Utente/Desktop/Tesi/Firmware_Software/DAVE project/S2GLP_Pulsed_Doppler/Libraries/XMCLib/inc\xmc_i2c.h ****   XMC_I2C_CH_INTERRUPT_NODE_POINTER_RECEIVE             = XMC_USIC_CH_INTERRUPT_NODE_POINTER_RECEIV
 242:C:/Users/Utente/Desktop/Tesi/Firmware_Software/DAVE project/S2GLP_Pulsed_Doppler/Libraries/XMCLib/inc\xmc_i2c.h ****   XMC_I2C_CH_INTERRUPT_NODE_POINTER_ALTERNATE_RECEIVE   = XMC_USIC_CH_INTERRUPT_NODE_POINTER_ALTERN
 243:C:/Users/Utente/Desktop/Tesi/Firmware_Software/DAVE project/S2GLP_Pulsed_Doppler/Libraries/XMCLib/inc\xmc_i2c.h ****   XMC_I2C_CH_INTERRUPT_NODE_POINTER_PROTOCOL            = XMC_USIC_CH_INTERRUPT_NODE_POINTER_PROTOC
 244:C:/Users/Utente/Desktop/Tesi/Firmware_Software/DAVE project/S2GLP_Pulsed_Doppler/Libraries/XMCLib/inc\xmc_i2c.h **** } XMC_I2C_CH_INTERRUPT_NODE_POINTER_t;
 245:C:/Users/Utente/Desktop/Tesi/Firmware_Software/DAVE project/S2GLP_Pulsed_Doppler/Libraries/XMCLib/inc\xmc_i2c.h **** 
 246:C:/Users/Utente/Desktop/Tesi/Firmware_Software/DAVE project/S2GLP_Pulsed_Doppler/Libraries/XMCLib/inc\xmc_i2c.h **** /*******************************************************************************
 247:C:/Users/Utente/Desktop/Tesi/Firmware_Software/DAVE project/S2GLP_Pulsed_Doppler/Libraries/XMCLib/inc\xmc_i2c.h ****  * DATA STRUCTURES
 248:C:/Users/Utente/Desktop/Tesi/Firmware_Software/DAVE project/S2GLP_Pulsed_Doppler/Libraries/XMCLib/inc\xmc_i2c.h ****  *******************************************************************************/
 249:C:/Users/Utente/Desktop/Tesi/Firmware_Software/DAVE project/S2GLP_Pulsed_Doppler/Libraries/XMCLib/inc\xmc_i2c.h **** /**
 250:C:/Users/Utente/Desktop/Tesi/Firmware_Software/DAVE project/S2GLP_Pulsed_Doppler/Libraries/XMCLib/inc\xmc_i2c.h ****  * @brief I2C_CH configuration structure
 251:C:/Users/Utente/Desktop/Tesi/Firmware_Software/DAVE project/S2GLP_Pulsed_Doppler/Libraries/XMCLib/inc\xmc_i2c.h ****  */
 252:C:/Users/Utente/Desktop/Tesi/Firmware_Software/DAVE project/S2GLP_Pulsed_Doppler/Libraries/XMCLib/inc\xmc_i2c.h **** typedef struct XMC_I2C_CH_CONFIG
 253:C:/Users/Utente/Desktop/Tesi/Firmware_Software/DAVE project/S2GLP_Pulsed_Doppler/Libraries/XMCLib/inc\xmc_i2c.h **** {
 254:C:/Users/Utente/Desktop/Tesi/Firmware_Software/DAVE project/S2GLP_Pulsed_Doppler/Libraries/XMCLib/inc\xmc_i2c.h ****   uint32_t baudrate;   /**< baud rate configuration upto max of 400KHz */
 255:C:/Users/Utente/Desktop/Tesi/Firmware_Software/DAVE project/S2GLP_Pulsed_Doppler/Libraries/XMCLib/inc\xmc_i2c.h ****   uint16_t address;    /**< slave address 
 256:C:/Users/Utente/Desktop/Tesi/Firmware_Software/DAVE project/S2GLP_Pulsed_Doppler/Libraries/XMCLib/inc\xmc_i2c.h ****                             A 7-bit address needs to be left shifted it by 1.
 257:C:/Users/Utente/Desktop/Tesi/Firmware_Software/DAVE project/S2GLP_Pulsed_Doppler/Libraries/XMCLib/inc\xmc_i2c.h ****                             A 10-bit address needs to be ORed with XMC_I2C_10BIT_ADDR_GROUP. */
 258:C:/Users/Utente/Desktop/Tesi/Firmware_Software/DAVE project/S2GLP_Pulsed_Doppler/Libraries/XMCLib/inc\xmc_i2c.h **** } XMC_I2C_CH_CONFIG_t;
 259:C:/Users/Utente/Desktop/Tesi/Firmware_Software/DAVE project/S2GLP_Pulsed_Doppler/Libraries/XMCLib/inc\xmc_i2c.h **** 
 260:C:/Users/Utente/Desktop/Tesi/Firmware_Software/DAVE project/S2GLP_Pulsed_Doppler/Libraries/XMCLib/inc\xmc_i2c.h **** /*******************************************************************************
 261:C:/Users/Utente/Desktop/Tesi/Firmware_Software/DAVE project/S2GLP_Pulsed_Doppler/Libraries/XMCLib/inc\xmc_i2c.h ****  * API PROTOTYPES
 262:C:/Users/Utente/Desktop/Tesi/Firmware_Software/DAVE project/S2GLP_Pulsed_Doppler/Libraries/XMCLib/inc\xmc_i2c.h ****  *******************************************************************************/
 263:C:/Users/Utente/Desktop/Tesi/Firmware_Software/DAVE project/S2GLP_Pulsed_Doppler/Libraries/XMCLib/inc\xmc_i2c.h **** 
 264:C:/Users/Utente/Desktop/Tesi/Firmware_Software/DAVE project/S2GLP_Pulsed_Doppler/Libraries/XMCLib/inc\xmc_i2c.h **** #ifdef __cplusplus
 265:C:/Users/Utente/Desktop/Tesi/Firmware_Software/DAVE project/S2GLP_Pulsed_Doppler/Libraries/XMCLib/inc\xmc_i2c.h **** extern "C" {
 266:C:/Users/Utente/Desktop/Tesi/Firmware_Software/DAVE project/S2GLP_Pulsed_Doppler/Libraries/XMCLib/inc\xmc_i2c.h **** #endif
 267:C:/Users/Utente/Desktop/Tesi/Firmware_Software/DAVE project/S2GLP_Pulsed_Doppler/Libraries/XMCLib/inc\xmc_i2c.h **** 
 268:C:/Users/Utente/Desktop/Tesi/Firmware_Software/DAVE project/S2GLP_Pulsed_Doppler/Libraries/XMCLib/inc\xmc_i2c.h **** /**
 269:C:/Users/Utente/Desktop/Tesi/Firmware_Software/DAVE project/S2GLP_Pulsed_Doppler/Libraries/XMCLib/inc\xmc_i2c.h ****  * @param channel Constant pointer to USIC channel structure of type @ref XMC_USIC_CH_t
 270:C:/Users/Utente/Desktop/Tesi/Firmware_Software/DAVE project/S2GLP_Pulsed_Doppler/Libraries/XMCLib/inc\xmc_i2c.h ****  * @param config  Constant pointer to I2C channel config structure of type @ref XMC_I2C_CH_CONFIG_t
 271:C:/Users/Utente/Desktop/Tesi/Firmware_Software/DAVE project/S2GLP_Pulsed_Doppler/Libraries/XMCLib/inc\xmc_i2c.h ****  *
 272:C:/Users/Utente/Desktop/Tesi/Firmware_Software/DAVE project/S2GLP_Pulsed_Doppler/Libraries/XMCLib/inc\xmc_i2c.h ****  * @return None<br>
 273:C:/Users/Utente/Desktop/Tesi/Firmware_Software/DAVE project/S2GLP_Pulsed_Doppler/Libraries/XMCLib/inc\xmc_i2c.h ****  *
 274:C:/Users/Utente/Desktop/Tesi/Firmware_Software/DAVE project/S2GLP_Pulsed_Doppler/Libraries/XMCLib/inc\xmc_i2c.h ****  * \par<b>Description:</b><br>
 275:C:/Users/Utente/Desktop/Tesi/Firmware_Software/DAVE project/S2GLP_Pulsed_Doppler/Libraries/XMCLib/inc\xmc_i2c.h ****  * Initializes the I2C \a channel.<br>
 276:C:/Users/Utente/Desktop/Tesi/Firmware_Software/DAVE project/S2GLP_Pulsed_Doppler/Libraries/XMCLib/inc\xmc_i2c.h ****  *
 277:C:/Users/Utente/Desktop/Tesi/Firmware_Software/DAVE project/S2GLP_Pulsed_Doppler/Libraries/XMCLib/inc\xmc_i2c.h ****  * \par
 278:C:/Users/Utente/Desktop/Tesi/Firmware_Software/DAVE project/S2GLP_Pulsed_Doppler/Libraries/XMCLib/inc\xmc_i2c.h ****  * Configures the data format in SCTR register. Sets the slave address, baud rate. Enables transmit
 279:C:/Users/Utente/Desktop/Tesi/Firmware_Software/DAVE project/S2GLP_Pulsed_Doppler/Libraries/XMCLib/inc\xmc_i2c.h ****  * and disables parity generation.<br>
 280:C:/Users/Utente/Desktop/Tesi/Firmware_Software/DAVE project/S2GLP_Pulsed_Doppler/Libraries/XMCLib/inc\xmc_i2c.h ****  *
 281:C:/Users/Utente/Desktop/Tesi/Firmware_Software/DAVE project/S2GLP_Pulsed_Doppler/Libraries/XMCLib/inc\xmc_i2c.h ****  * \par<b>Related APIs:</b><br>
 282:C:/Users/Utente/Desktop/Tesi/Firmware_Software/DAVE project/S2GLP_Pulsed_Doppler/Libraries/XMCLib/inc\xmc_i2c.h ****  * XMC_USIC_CH_Enable()\n\n
 283:C:/Users/Utente/Desktop/Tesi/Firmware_Software/DAVE project/S2GLP_Pulsed_Doppler/Libraries/XMCLib/inc\xmc_i2c.h ****  */
 284:C:/Users/Utente/Desktop/Tesi/Firmware_Software/DAVE project/S2GLP_Pulsed_Doppler/Libraries/XMCLib/inc\xmc_i2c.h **** 
 285:C:/Users/Utente/Desktop/Tesi/Firmware_Software/DAVE project/S2GLP_Pulsed_Doppler/Libraries/XMCLib/inc\xmc_i2c.h **** void XMC_I2C_CH_Init(XMC_USIC_CH_t *const channel, const XMC_I2C_CH_CONFIG_t *const config);
 286:C:/Users/Utente/Desktop/Tesi/Firmware_Software/DAVE project/S2GLP_Pulsed_Doppler/Libraries/XMCLib/inc\xmc_i2c.h **** 
 287:C:/Users/Utente/Desktop/Tesi/Firmware_Software/DAVE project/S2GLP_Pulsed_Doppler/Libraries/XMCLib/inc\xmc_i2c.h **** /**
 288:C:/Users/Utente/Desktop/Tesi/Firmware_Software/DAVE project/S2GLP_Pulsed_Doppler/Libraries/XMCLib/inc\xmc_i2c.h ****  * @param channel Constant pointer to USIC channel structure of type @ref XMC_USIC_CH_t
 289:C:/Users/Utente/Desktop/Tesi/Firmware_Software/DAVE project/S2GLP_Pulsed_Doppler/Libraries/XMCLib/inc\xmc_i2c.h ****  * @param rate  baud rate of I2C channel
 290:C:/Users/Utente/Desktop/Tesi/Firmware_Software/DAVE project/S2GLP_Pulsed_Doppler/Libraries/XMCLib/inc\xmc_i2c.h ****  *
 291:C:/Users/Utente/Desktop/Tesi/Firmware_Software/DAVE project/S2GLP_Pulsed_Doppler/Libraries/XMCLib/inc\xmc_i2c.h ****  * @return None<br>
 292:C:/Users/Utente/Desktop/Tesi/Firmware_Software/DAVE project/S2GLP_Pulsed_Doppler/Libraries/XMCLib/inc\xmc_i2c.h ****  *
 293:C:/Users/Utente/Desktop/Tesi/Firmware_Software/DAVE project/S2GLP_Pulsed_Doppler/Libraries/XMCLib/inc\xmc_i2c.h ****  * \par<b>Description:</b><br>
 294:C:/Users/Utente/Desktop/Tesi/Firmware_Software/DAVE project/S2GLP_Pulsed_Doppler/Libraries/XMCLib/inc\xmc_i2c.h ****  * Sets the rate of I2C \a channel.
 295:C:/Users/Utente/Desktop/Tesi/Firmware_Software/DAVE project/S2GLP_Pulsed_Doppler/Libraries/XMCLib/inc\xmc_i2c.h ****  *
 296:C:/Users/Utente/Desktop/Tesi/Firmware_Software/DAVE project/S2GLP_Pulsed_Doppler/Libraries/XMCLib/inc\xmc_i2c.h ****  * \par<b>Note:</b><br>
 297:C:/Users/Utente/Desktop/Tesi/Firmware_Software/DAVE project/S2GLP_Pulsed_Doppler/Libraries/XMCLib/inc\xmc_i2c.h ****  * Standard over sampling is considered if rate <= 100KHz and fast over sampling is considered if r
 298:C:/Users/Utente/Desktop/Tesi/Firmware_Software/DAVE project/S2GLP_Pulsed_Doppler/Libraries/XMCLib/inc\xmc_i2c.h ****  *
 299:C:/Users/Utente/Desktop/Tesi/Firmware_Software/DAVE project/S2GLP_Pulsed_Doppler/Libraries/XMCLib/inc\xmc_i2c.h ****  * \par<b>Related APIs:</b><br>
 300:C:/Users/Utente/Desktop/Tesi/Firmware_Software/DAVE project/S2GLP_Pulsed_Doppler/Libraries/XMCLib/inc\xmc_i2c.h ****  * XMC_USIC_CH_SetBaudrate()\n\n
 301:C:/Users/Utente/Desktop/Tesi/Firmware_Software/DAVE project/S2GLP_Pulsed_Doppler/Libraries/XMCLib/inc\xmc_i2c.h ****  */
 302:C:/Users/Utente/Desktop/Tesi/Firmware_Software/DAVE project/S2GLP_Pulsed_Doppler/Libraries/XMCLib/inc\xmc_i2c.h **** XMC_I2C_CH_STATUS_t XMC_I2C_CH_SetBaudrate(XMC_USIC_CH_t *const channel, const uint32_t rate);
 303:C:/Users/Utente/Desktop/Tesi/Firmware_Software/DAVE project/S2GLP_Pulsed_Doppler/Libraries/XMCLib/inc\xmc_i2c.h **** 
 304:C:/Users/Utente/Desktop/Tesi/Firmware_Software/DAVE project/S2GLP_Pulsed_Doppler/Libraries/XMCLib/inc\xmc_i2c.h **** /**
 305:C:/Users/Utente/Desktop/Tesi/Firmware_Software/DAVE project/S2GLP_Pulsed_Doppler/Libraries/XMCLib/inc\xmc_i2c.h ****  * @param channel Constant pointer to USIC channel structure of type @ref XMC_USIC_CH_t
 306:C:/Users/Utente/Desktop/Tesi/Firmware_Software/DAVE project/S2GLP_Pulsed_Doppler/Libraries/XMCLib/inc\xmc_i2c.h ****  *
 307:C:/Users/Utente/Desktop/Tesi/Firmware_Software/DAVE project/S2GLP_Pulsed_Doppler/Libraries/XMCLib/inc\xmc_i2c.h ****  * @return None<br>
 308:C:/Users/Utente/Desktop/Tesi/Firmware_Software/DAVE project/S2GLP_Pulsed_Doppler/Libraries/XMCLib/inc\xmc_i2c.h ****  *
 309:C:/Users/Utente/Desktop/Tesi/Firmware_Software/DAVE project/S2GLP_Pulsed_Doppler/Libraries/XMCLib/inc\xmc_i2c.h ****  * \par<b>Description:</b><br>
 310:C:/Users/Utente/Desktop/Tesi/Firmware_Software/DAVE project/S2GLP_Pulsed_Doppler/Libraries/XMCLib/inc\xmc_i2c.h ****  * Starts the I2C \a channel.
 311:C:/Users/Utente/Desktop/Tesi/Firmware_Software/DAVE project/S2GLP_Pulsed_Doppler/Libraries/XMCLib/inc\xmc_i2c.h ****  *
 312:C:/Users/Utente/Desktop/Tesi/Firmware_Software/DAVE project/S2GLP_Pulsed_Doppler/Libraries/XMCLib/inc\xmc_i2c.h ****  * \par
 313:C:/Users/Utente/Desktop/Tesi/Firmware_Software/DAVE project/S2GLP_Pulsed_Doppler/Libraries/XMCLib/inc\xmc_i2c.h ****  * Sets the USIC input operation mode to I2C mode using CCR register.
 314:C:/Users/Utente/Desktop/Tesi/Firmware_Software/DAVE project/S2GLP_Pulsed_Doppler/Libraries/XMCLib/inc\xmc_i2c.h ****  *
 315:C:/Users/Utente/Desktop/Tesi/Firmware_Software/DAVE project/S2GLP_Pulsed_Doppler/Libraries/XMCLib/inc\xmc_i2c.h ****  * \par<b>Related APIs:</b><br>
 316:C:/Users/Utente/Desktop/Tesi/Firmware_Software/DAVE project/S2GLP_Pulsed_Doppler/Libraries/XMCLib/inc\xmc_i2c.h ****  * XMC_USIC_CH_SetMode()\n\n
 317:C:/Users/Utente/Desktop/Tesi/Firmware_Software/DAVE project/S2GLP_Pulsed_Doppler/Libraries/XMCLib/inc\xmc_i2c.h ****  */
 318:C:/Users/Utente/Desktop/Tesi/Firmware_Software/DAVE project/S2GLP_Pulsed_Doppler/Libraries/XMCLib/inc\xmc_i2c.h **** __STATIC_INLINE void XMC_I2C_CH_Start(XMC_USIC_CH_t *const channel)
 319:C:/Users/Utente/Desktop/Tesi/Firmware_Software/DAVE project/S2GLP_Pulsed_Doppler/Libraries/XMCLib/inc\xmc_i2c.h **** {
 320:C:/Users/Utente/Desktop/Tesi/Firmware_Software/DAVE project/S2GLP_Pulsed_Doppler/Libraries/XMCLib/inc\xmc_i2c.h ****   XMC_USIC_CH_SetMode(channel, XMC_USIC_CH_OPERATING_MODE_I2C);
 321:C:/Users/Utente/Desktop/Tesi/Firmware_Software/DAVE project/S2GLP_Pulsed_Doppler/Libraries/XMCLib/inc\xmc_i2c.h **** }
 322:C:/Users/Utente/Desktop/Tesi/Firmware_Software/DAVE project/S2GLP_Pulsed_Doppler/Libraries/XMCLib/inc\xmc_i2c.h **** 
 323:C:/Users/Utente/Desktop/Tesi/Firmware_Software/DAVE project/S2GLP_Pulsed_Doppler/Libraries/XMCLib/inc\xmc_i2c.h **** /**
 324:C:/Users/Utente/Desktop/Tesi/Firmware_Software/DAVE project/S2GLP_Pulsed_Doppler/Libraries/XMCLib/inc\xmc_i2c.h ****  * @param channel Constant pointer to USIC channel structure of type @ref XMC_USIC_CH_t
 325:C:/Users/Utente/Desktop/Tesi/Firmware_Software/DAVE project/S2GLP_Pulsed_Doppler/Libraries/XMCLib/inc\xmc_i2c.h ****  *
 326:C:/Users/Utente/Desktop/Tesi/Firmware_Software/DAVE project/S2GLP_Pulsed_Doppler/Libraries/XMCLib/inc\xmc_i2c.h ****  * @return @ref XMC_I2C_CH_STATUS_t<br>
 327:C:/Users/Utente/Desktop/Tesi/Firmware_Software/DAVE project/S2GLP_Pulsed_Doppler/Libraries/XMCLib/inc\xmc_i2c.h ****  *
 328:C:/Users/Utente/Desktop/Tesi/Firmware_Software/DAVE project/S2GLP_Pulsed_Doppler/Libraries/XMCLib/inc\xmc_i2c.h ****  * \par<b>Description:</b><br>
 329:C:/Users/Utente/Desktop/Tesi/Firmware_Software/DAVE project/S2GLP_Pulsed_Doppler/Libraries/XMCLib/inc\xmc_i2c.h ****  * Stops the I2C \a channel.<br>
 330:C:/Users/Utente/Desktop/Tesi/Firmware_Software/DAVE project/S2GLP_Pulsed_Doppler/Libraries/XMCLib/inc\xmc_i2c.h ****  *
 331:C:/Users/Utente/Desktop/Tesi/Firmware_Software/DAVE project/S2GLP_Pulsed_Doppler/Libraries/XMCLib/inc\xmc_i2c.h ****  * \par
 332:C:/Users/Utente/Desktop/Tesi/Firmware_Software/DAVE project/S2GLP_Pulsed_Doppler/Libraries/XMCLib/inc\xmc_i2c.h ****  * Sets the USIC input operation to IDLE mode using CCR register.
 333:C:/Users/Utente/Desktop/Tesi/Firmware_Software/DAVE project/S2GLP_Pulsed_Doppler/Libraries/XMCLib/inc\xmc_i2c.h ****  *
 334:C:/Users/Utente/Desktop/Tesi/Firmware_Software/DAVE project/S2GLP_Pulsed_Doppler/Libraries/XMCLib/inc\xmc_i2c.h ****  * \par<b>Related APIs:</b><br>
 335:C:/Users/Utente/Desktop/Tesi/Firmware_Software/DAVE project/S2GLP_Pulsed_Doppler/Libraries/XMCLib/inc\xmc_i2c.h ****  * XMC_USIC_CH_SetMode()\n\n
 336:C:/Users/Utente/Desktop/Tesi/Firmware_Software/DAVE project/S2GLP_Pulsed_Doppler/Libraries/XMCLib/inc\xmc_i2c.h ****  */
 337:C:/Users/Utente/Desktop/Tesi/Firmware_Software/DAVE project/S2GLP_Pulsed_Doppler/Libraries/XMCLib/inc\xmc_i2c.h **** XMC_I2C_CH_STATUS_t XMC_I2C_CH_Stop(XMC_USIC_CH_t *const channel);
 338:C:/Users/Utente/Desktop/Tesi/Firmware_Software/DAVE project/S2GLP_Pulsed_Doppler/Libraries/XMCLib/inc\xmc_i2c.h **** 
 339:C:/Users/Utente/Desktop/Tesi/Firmware_Software/DAVE project/S2GLP_Pulsed_Doppler/Libraries/XMCLib/inc\xmc_i2c.h **** /**
 340:C:/Users/Utente/Desktop/Tesi/Firmware_Software/DAVE project/S2GLP_Pulsed_Doppler/Libraries/XMCLib/inc\xmc_i2c.h ****  * @param channel Constant pointer to USIC channel structure of type @ref XMC_USIC_CH_t
 341:C:/Users/Utente/Desktop/Tesi/Firmware_Software/DAVE project/S2GLP_Pulsed_Doppler/Libraries/XMCLib/inc\xmc_i2c.h ****  * @param service_request Service request number in the range of 0-5
 342:C:/Users/Utente/Desktop/Tesi/Firmware_Software/DAVE project/S2GLP_Pulsed_Doppler/Libraries/XMCLib/inc\xmc_i2c.h ****  * @return None<br>
 343:C:/Users/Utente/Desktop/Tesi/Firmware_Software/DAVE project/S2GLP_Pulsed_Doppler/Libraries/XMCLib/inc\xmc_i2c.h ****  *
 344:C:/Users/Utente/Desktop/Tesi/Firmware_Software/DAVE project/S2GLP_Pulsed_Doppler/Libraries/XMCLib/inc\xmc_i2c.h ****  * \par<b>Description:</b><br>
 345:C:/Users/Utente/Desktop/Tesi/Firmware_Software/DAVE project/S2GLP_Pulsed_Doppler/Libraries/XMCLib/inc\xmc_i2c.h ****  * Sets the interrupt node for protocol interrupt.<br>
 346:C:/Users/Utente/Desktop/Tesi/Firmware_Software/DAVE project/S2GLP_Pulsed_Doppler/Libraries/XMCLib/inc\xmc_i2c.h ****  *
 347:C:/Users/Utente/Desktop/Tesi/Firmware_Software/DAVE project/S2GLP_Pulsed_Doppler/Libraries/XMCLib/inc\xmc_i2c.h ****  * \par
 348:C:/Users/Utente/Desktop/Tesi/Firmware_Software/DAVE project/S2GLP_Pulsed_Doppler/Libraries/XMCLib/inc\xmc_i2c.h ****  * To generate interrupt for an event, node pointer should be configured with service request numbe
 349:C:/Users/Utente/Desktop/Tesi/Firmware_Software/DAVE project/S2GLP_Pulsed_Doppler/Libraries/XMCLib/inc\xmc_i2c.h ****  * The NVIC node gets linked to the interrupt event by doing so.<br>
 350:C:/Users/Utente/Desktop/Tesi/Firmware_Software/DAVE project/S2GLP_Pulsed_Doppler/Libraries/XMCLib/inc\xmc_i2c.h ****  *
 351:C:/Users/Utente/Desktop/Tesi/Firmware_Software/DAVE project/S2GLP_Pulsed_Doppler/Libraries/XMCLib/inc\xmc_i2c.h ****  * \par<b>Note:</b><br>
 352:C:/Users/Utente/Desktop/Tesi/Firmware_Software/DAVE project/S2GLP_Pulsed_Doppler/Libraries/XMCLib/inc\xmc_i2c.h ****  * NVIC node should be separately enabled to generate the interrupt. After setting the node pointer
 353:C:/Users/Utente/Desktop/Tesi/Firmware_Software/DAVE project/S2GLP_Pulsed_Doppler/Libraries/XMCLib/inc\xmc_i2c.h ****  *
 354:C:/Users/Utente/Desktop/Tesi/Firmware_Software/DAVE project/S2GLP_Pulsed_Doppler/Libraries/XMCLib/inc\xmc_i2c.h ****  * \par<b>Related APIs:</b><br>
 355:C:/Users/Utente/Desktop/Tesi/Firmware_Software/DAVE project/S2GLP_Pulsed_Doppler/Libraries/XMCLib/inc\xmc_i2c.h ****  * XMC_I2C_CH_EnableEvent(), NVIC_SetPriority(), NVIC_EnableIRQ(), XMC_I2C_CH_SetInputSource()<br>
 356:C:/Users/Utente/Desktop/Tesi/Firmware_Software/DAVE project/S2GLP_Pulsed_Doppler/Libraries/XMCLib/inc\xmc_i2c.h ****  */
 357:C:/Users/Utente/Desktop/Tesi/Firmware_Software/DAVE project/S2GLP_Pulsed_Doppler/Libraries/XMCLib/inc\xmc_i2c.h **** __STATIC_INLINE void XMC_I2C_CH_SetInterruptNodePointer(XMC_USIC_CH_t *const channel,
 358:C:/Users/Utente/Desktop/Tesi/Firmware_Software/DAVE project/S2GLP_Pulsed_Doppler/Libraries/XMCLib/inc\xmc_i2c.h ****                                                         const uint8_t service_request)
 359:C:/Users/Utente/Desktop/Tesi/Firmware_Software/DAVE project/S2GLP_Pulsed_Doppler/Libraries/XMCLib/inc\xmc_i2c.h **** {
 360:C:/Users/Utente/Desktop/Tesi/Firmware_Software/DAVE project/S2GLP_Pulsed_Doppler/Libraries/XMCLib/inc\xmc_i2c.h ****   XMC_USIC_CH_SetInterruptNodePointer(channel, XMC_USIC_CH_INTERRUPT_NODE_POINTER_PROTOCOL, service
 361:C:/Users/Utente/Desktop/Tesi/Firmware_Software/DAVE project/S2GLP_Pulsed_Doppler/Libraries/XMCLib/inc\xmc_i2c.h **** }
 362:C:/Users/Utente/Desktop/Tesi/Firmware_Software/DAVE project/S2GLP_Pulsed_Doppler/Libraries/XMCLib/inc\xmc_i2c.h **** 
 363:C:/Users/Utente/Desktop/Tesi/Firmware_Software/DAVE project/S2GLP_Pulsed_Doppler/Libraries/XMCLib/inc\xmc_i2c.h **** 
 364:C:/Users/Utente/Desktop/Tesi/Firmware_Software/DAVE project/S2GLP_Pulsed_Doppler/Libraries/XMCLib/inc\xmc_i2c.h **** /**
 365:C:/Users/Utente/Desktop/Tesi/Firmware_Software/DAVE project/S2GLP_Pulsed_Doppler/Libraries/XMCLib/inc\xmc_i2c.h ****  * @param channel Pointer to USIC channel handler of type @ref XMC_USIC_CH_t \n
 366:C:/Users/Utente/Desktop/Tesi/Firmware_Software/DAVE project/S2GLP_Pulsed_Doppler/Libraries/XMCLib/inc\xmc_i2c.h ****  * 				  \b Range: @ref XMC_I2C0_CH0, @ref XMC_I2C0_CH1,@ref XMC_I2C1_CH0,@ref XMC_I2C1_CH1,@ref XM
 367:C:/Users/Utente/Desktop/Tesi/Firmware_Software/DAVE project/S2GLP_Pulsed_Doppler/Libraries/XMCLib/inc\xmc_i2c.h ****  * @param  interrupt_node Interrupt node pointer to be configured. \n
 368:C:/Users/Utente/Desktop/Tesi/Firmware_Software/DAVE project/S2GLP_Pulsed_Doppler/Libraries/XMCLib/inc\xmc_i2c.h ****  * 						  \b Range: @ref XMC_I2C_CH_INTERRUPT_NODE_POINTER_TRANSMIT_SHIFT,
 369:C:/Users/Utente/Desktop/Tesi/Firmware_Software/DAVE project/S2GLP_Pulsed_Doppler/Libraries/XMCLib/inc\xmc_i2c.h ****  * 						  			@ref XMC_I2C_CH_INTERRUPT_NODE_POINTER_TRANSMIT_BUFFER etc.
 370:C:/Users/Utente/Desktop/Tesi/Firmware_Software/DAVE project/S2GLP_Pulsed_Doppler/Libraries/XMCLib/inc\xmc_i2c.h ****  * @param service_request Service request number.\n
 371:C:/Users/Utente/Desktop/Tesi/Firmware_Software/DAVE project/S2GLP_Pulsed_Doppler/Libraries/XMCLib/inc\xmc_i2c.h ****  * 						  \b Range: 0 to 5.
 372:C:/Users/Utente/Desktop/Tesi/Firmware_Software/DAVE project/S2GLP_Pulsed_Doppler/Libraries/XMCLib/inc\xmc_i2c.h ****  * @return None
 373:C:/Users/Utente/Desktop/Tesi/Firmware_Software/DAVE project/S2GLP_Pulsed_Doppler/Libraries/XMCLib/inc\xmc_i2c.h ****  *
 374:C:/Users/Utente/Desktop/Tesi/Firmware_Software/DAVE project/S2GLP_Pulsed_Doppler/Libraries/XMCLib/inc\xmc_i2c.h ****  * \par<b>Description</b><br>
 375:C:/Users/Utente/Desktop/Tesi/Firmware_Software/DAVE project/S2GLP_Pulsed_Doppler/Libraries/XMCLib/inc\xmc_i2c.h ****  * Sets the interrupt node for USIC channel events. \n\n
 376:C:/Users/Utente/Desktop/Tesi/Firmware_Software/DAVE project/S2GLP_Pulsed_Doppler/Libraries/XMCLib/inc\xmc_i2c.h ****  * For an event to generate interrupt, node pointer should be configured with service request(SR0, 
 377:C:/Users/Utente/Desktop/Tesi/Firmware_Software/DAVE project/S2GLP_Pulsed_Doppler/Libraries/XMCLib/inc\xmc_i2c.h ****  * The NVIC node gets linked to the interrupt event by doing so.<br>
 378:C:/Users/Utente/Desktop/Tesi/Firmware_Software/DAVE project/S2GLP_Pulsed_Doppler/Libraries/XMCLib/inc\xmc_i2c.h ****  * Note: NVIC node should be separately enabled to generate the interrupt.
 379:C:/Users/Utente/Desktop/Tesi/Firmware_Software/DAVE project/S2GLP_Pulsed_Doppler/Libraries/XMCLib/inc\xmc_i2c.h ****  *
 380:C:/Users/Utente/Desktop/Tesi/Firmware_Software/DAVE project/S2GLP_Pulsed_Doppler/Libraries/XMCLib/inc\xmc_i2c.h ****  * \par<b>Related APIs:</b><BR>
 381:C:/Users/Utente/Desktop/Tesi/Firmware_Software/DAVE project/S2GLP_Pulsed_Doppler/Libraries/XMCLib/inc\xmc_i2c.h ****  * XMC_I2C_CH_EnableEvent() \n\n\n
 382:C:/Users/Utente/Desktop/Tesi/Firmware_Software/DAVE project/S2GLP_Pulsed_Doppler/Libraries/XMCLib/inc\xmc_i2c.h ****  */
 383:C:/Users/Utente/Desktop/Tesi/Firmware_Software/DAVE project/S2GLP_Pulsed_Doppler/Libraries/XMCLib/inc\xmc_i2c.h **** __STATIC_INLINE void XMC_I2C_CH_SelectInterruptNodePointer(XMC_USIC_CH_t *const channel,
 384:C:/Users/Utente/Desktop/Tesi/Firmware_Software/DAVE project/S2GLP_Pulsed_Doppler/Libraries/XMCLib/inc\xmc_i2c.h ****                                                            const XMC_I2C_CH_INTERRUPT_NODE_POINTER_
 385:C:/Users/Utente/Desktop/Tesi/Firmware_Software/DAVE project/S2GLP_Pulsed_Doppler/Libraries/XMCLib/inc\xmc_i2c.h ****                                                            const uint32_t service_request)
 386:C:/Users/Utente/Desktop/Tesi/Firmware_Software/DAVE project/S2GLP_Pulsed_Doppler/Libraries/XMCLib/inc\xmc_i2c.h **** {
 387:C:/Users/Utente/Desktop/Tesi/Firmware_Software/DAVE project/S2GLP_Pulsed_Doppler/Libraries/XMCLib/inc\xmc_i2c.h ****   XMC_USIC_CH_SetInterruptNodePointer(channel, (XMC_USIC_CH_INTERRUPT_NODE_POINTER_t)interrupt_node
 388:C:/Users/Utente/Desktop/Tesi/Firmware_Software/DAVE project/S2GLP_Pulsed_Doppler/Libraries/XMCLib/inc\xmc_i2c.h **** 		                                       (uint32_t)service_request);
 389:C:/Users/Utente/Desktop/Tesi/Firmware_Software/DAVE project/S2GLP_Pulsed_Doppler/Libraries/XMCLib/inc\xmc_i2c.h **** }
 390:C:/Users/Utente/Desktop/Tesi/Firmware_Software/DAVE project/S2GLP_Pulsed_Doppler/Libraries/XMCLib/inc\xmc_i2c.h **** 
 391:C:/Users/Utente/Desktop/Tesi/Firmware_Software/DAVE project/S2GLP_Pulsed_Doppler/Libraries/XMCLib/inc\xmc_i2c.h **** /**
 392:C:/Users/Utente/Desktop/Tesi/Firmware_Software/DAVE project/S2GLP_Pulsed_Doppler/Libraries/XMCLib/inc\xmc_i2c.h ****  * @param  channel Pointer to USIC channel handler of type @ref XMC_USIC_CH_t \n
 393:C:/Users/Utente/Desktop/Tesi/Firmware_Software/DAVE project/S2GLP_Pulsed_Doppler/Libraries/XMCLib/inc\xmc_i2c.h ****  * 				   \b Range: @ref XMC_I2C0_CH0, @ref XMC_I2C0_CH1,@ref XMC_I2C1_CH0,@ref XMC_I2C1_CH1,@ref X
 394:C:/Users/Utente/Desktop/Tesi/Firmware_Software/DAVE project/S2GLP_Pulsed_Doppler/Libraries/XMCLib/inc\xmc_i2c.h ****  * @param  service_request_line service request number of the event to be triggered. \n
 395:C:/Users/Utente/Desktop/Tesi/Firmware_Software/DAVE project/S2GLP_Pulsed_Doppler/Libraries/XMCLib/inc\xmc_i2c.h ****  * 			\b Range: 0 to 5.
 396:C:/Users/Utente/Desktop/Tesi/Firmware_Software/DAVE project/S2GLP_Pulsed_Doppler/Libraries/XMCLib/inc\xmc_i2c.h ****  * @return None
 397:C:/Users/Utente/Desktop/Tesi/Firmware_Software/DAVE project/S2GLP_Pulsed_Doppler/Libraries/XMCLib/inc\xmc_i2c.h ****  *
 398:C:/Users/Utente/Desktop/Tesi/Firmware_Software/DAVE project/S2GLP_Pulsed_Doppler/Libraries/XMCLib/inc\xmc_i2c.h ****  * \par<b>Description</b><br>
 399:C:/Users/Utente/Desktop/Tesi/Firmware_Software/DAVE project/S2GLP_Pulsed_Doppler/Libraries/XMCLib/inc\xmc_i2c.h ****  * Trigger a I2C interrupt service request.\n\n
 400:C:/Users/Utente/Desktop/Tesi/Firmware_Software/DAVE project/S2GLP_Pulsed_Doppler/Libraries/XMCLib/inc\xmc_i2c.h ****  * When the I2C service request is triggered, the NVIC interrupt associated with it will be
 401:C:/Users/Utente/Desktop/Tesi/Firmware_Software/DAVE project/S2GLP_Pulsed_Doppler/Libraries/XMCLib/inc\xmc_i2c.h ****  * generated if enabled.
 402:C:/Users/Utente/Desktop/Tesi/Firmware_Software/DAVE project/S2GLP_Pulsed_Doppler/Libraries/XMCLib/inc\xmc_i2c.h ****  *
 403:C:/Users/Utente/Desktop/Tesi/Firmware_Software/DAVE project/S2GLP_Pulsed_Doppler/Libraries/XMCLib/inc\xmc_i2c.h ****  * \par<b>Related APIs:</b><BR>
 404:C:/Users/Utente/Desktop/Tesi/Firmware_Software/DAVE project/S2GLP_Pulsed_Doppler/Libraries/XMCLib/inc\xmc_i2c.h ****  * XMC_I2C_CH_SelectInterruptNodePointer() \n\n\n
 405:C:/Users/Utente/Desktop/Tesi/Firmware_Software/DAVE project/S2GLP_Pulsed_Doppler/Libraries/XMCLib/inc\xmc_i2c.h ****  */
 406:C:/Users/Utente/Desktop/Tesi/Firmware_Software/DAVE project/S2GLP_Pulsed_Doppler/Libraries/XMCLib/inc\xmc_i2c.h **** __STATIC_INLINE void XMC_I2C_CH_TriggerServiceRequest(XMC_USIC_CH_t *const channel, const uint32_t 
 407:C:/Users/Utente/Desktop/Tesi/Firmware_Software/DAVE project/S2GLP_Pulsed_Doppler/Libraries/XMCLib/inc\xmc_i2c.h **** {
 408:C:/Users/Utente/Desktop/Tesi/Firmware_Software/DAVE project/S2GLP_Pulsed_Doppler/Libraries/XMCLib/inc\xmc_i2c.h ****   XMC_USIC_CH_TriggerServiceRequest(channel, (uint32_t)service_request_line);
 409:C:/Users/Utente/Desktop/Tesi/Firmware_Software/DAVE project/S2GLP_Pulsed_Doppler/Libraries/XMCLib/inc\xmc_i2c.h **** }
 410:C:/Users/Utente/Desktop/Tesi/Firmware_Software/DAVE project/S2GLP_Pulsed_Doppler/Libraries/XMCLib/inc\xmc_i2c.h **** 
 411:C:/Users/Utente/Desktop/Tesi/Firmware_Software/DAVE project/S2GLP_Pulsed_Doppler/Libraries/XMCLib/inc\xmc_i2c.h **** /**
 412:C:/Users/Utente/Desktop/Tesi/Firmware_Software/DAVE project/S2GLP_Pulsed_Doppler/Libraries/XMCLib/inc\xmc_i2c.h ****  * @param channel Constant pointer to USIC channel structure of type @ref XMC_USIC_CH_t
 413:C:/Users/Utente/Desktop/Tesi/Firmware_Software/DAVE project/S2GLP_Pulsed_Doppler/Libraries/XMCLib/inc\xmc_i2c.h ****  * @param input I2C channel input stage of type @ref XMC_I2C_CH_INPUT_t
 414:C:/Users/Utente/Desktop/Tesi/Firmware_Software/DAVE project/S2GLP_Pulsed_Doppler/Libraries/XMCLib/inc\xmc_i2c.h ****  * @param source Input source select for the input stage(0->DX0A, 1->DX1A, .. 7->DX7G)
 415:C:/Users/Utente/Desktop/Tesi/Firmware_Software/DAVE project/S2GLP_Pulsed_Doppler/Libraries/XMCLib/inc\xmc_i2c.h ****  * @return None<br>
 416:C:/Users/Utente/Desktop/Tesi/Firmware_Software/DAVE project/S2GLP_Pulsed_Doppler/Libraries/XMCLib/inc\xmc_i2c.h ****  *
 417:C:/Users/Utente/Desktop/Tesi/Firmware_Software/DAVE project/S2GLP_Pulsed_Doppler/Libraries/XMCLib/inc\xmc_i2c.h ****  * \par<b>Description:</b><br>
 418:C:/Users/Utente/Desktop/Tesi/Firmware_Software/DAVE project/S2GLP_Pulsed_Doppler/Libraries/XMCLib/inc\xmc_i2c.h ****  * Sets the input source for I2C \a channel.<br>
 419:C:/Users/Utente/Desktop/Tesi/Firmware_Software/DAVE project/S2GLP_Pulsed_Doppler/Libraries/XMCLib/inc\xmc_i2c.h ****  * Defines the input stage for the corresponding input line.
 420:C:/Users/Utente/Desktop/Tesi/Firmware_Software/DAVE project/S2GLP_Pulsed_Doppler/Libraries/XMCLib/inc\xmc_i2c.h ****  *
 421:C:/Users/Utente/Desktop/Tesi/Firmware_Software/DAVE project/S2GLP_Pulsed_Doppler/Libraries/XMCLib/inc\xmc_i2c.h ****  * @note After configuring the input source for corresponding channel, interrupt node pointer is se
 422:C:/Users/Utente/Desktop/Tesi/Firmware_Software/DAVE project/S2GLP_Pulsed_Doppler/Libraries/XMCLib/inc\xmc_i2c.h ****  *
 423:C:/Users/Utente/Desktop/Tesi/Firmware_Software/DAVE project/S2GLP_Pulsed_Doppler/Libraries/XMCLib/inc\xmc_i2c.h ****  * \par<b>Related APIs:</b><br>
 424:C:/Users/Utente/Desktop/Tesi/Firmware_Software/DAVE project/S2GLP_Pulsed_Doppler/Libraries/XMCLib/inc\xmc_i2c.h ****  * XMC_USIC_CH_SetInptSource(), XMC_USIC_CH_SetInterruptNodePointer()
 425:C:/Users/Utente/Desktop/Tesi/Firmware_Software/DAVE project/S2GLP_Pulsed_Doppler/Libraries/XMCLib/inc\xmc_i2c.h ****  *
 426:C:/Users/Utente/Desktop/Tesi/Firmware_Software/DAVE project/S2GLP_Pulsed_Doppler/Libraries/XMCLib/inc\xmc_i2c.h ****  */
 427:C:/Users/Utente/Desktop/Tesi/Firmware_Software/DAVE project/S2GLP_Pulsed_Doppler/Libraries/XMCLib/inc\xmc_i2c.h **** __STATIC_INLINE void XMC_I2C_CH_SetInputSource(XMC_USIC_CH_t *const channel, const XMC_I2C_CH_INPUT
 428:C:/Users/Utente/Desktop/Tesi/Firmware_Software/DAVE project/S2GLP_Pulsed_Doppler/Libraries/XMCLib/inc\xmc_i2c.h **** {
 429:C:/Users/Utente/Desktop/Tesi/Firmware_Software/DAVE project/S2GLP_Pulsed_Doppler/Libraries/XMCLib/inc\xmc_i2c.h ****   channel->DXCR[input] =  (uint32_t)(channel->DXCR[input] & (~USIC_CH_DX0CR_INSW_Msk)) | USIC_CH_DX
 430:C:/Users/Utente/Desktop/Tesi/Firmware_Software/DAVE project/S2GLP_Pulsed_Doppler/Libraries/XMCLib/inc\xmc_i2c.h ****   XMC_USIC_CH_SetInputSource(channel, (XMC_USIC_CH_INPUT_t)input, source);
 431:C:/Users/Utente/Desktop/Tesi/Firmware_Software/DAVE project/S2GLP_Pulsed_Doppler/Libraries/XMCLib/inc\xmc_i2c.h **** }
 432:C:/Users/Utente/Desktop/Tesi/Firmware_Software/DAVE project/S2GLP_Pulsed_Doppler/Libraries/XMCLib/inc\xmc_i2c.h **** 
 433:C:/Users/Utente/Desktop/Tesi/Firmware_Software/DAVE project/S2GLP_Pulsed_Doppler/Libraries/XMCLib/inc\xmc_i2c.h **** /**
 434:C:/Users/Utente/Desktop/Tesi/Firmware_Software/DAVE project/S2GLP_Pulsed_Doppler/Libraries/XMCLib/inc\xmc_i2c.h ****  * @param channel Constant pointer to USIC channel structure of type @ref XMC_USIC_CH_t
 435:C:/Users/Utente/Desktop/Tesi/Firmware_Software/DAVE project/S2GLP_Pulsed_Doppler/Libraries/XMCLib/inc\xmc_i2c.h ****  * @param address I2C slave address
 436:C:/Users/Utente/Desktop/Tesi/Firmware_Software/DAVE project/S2GLP_Pulsed_Doppler/Libraries/XMCLib/inc\xmc_i2c.h ****  * @return None<br>
 437:C:/Users/Utente/Desktop/Tesi/Firmware_Software/DAVE project/S2GLP_Pulsed_Doppler/Libraries/XMCLib/inc\xmc_i2c.h ****  *
 438:C:/Users/Utente/Desktop/Tesi/Firmware_Software/DAVE project/S2GLP_Pulsed_Doppler/Libraries/XMCLib/inc\xmc_i2c.h ****  * \par<b>Description:</b><br>
 439:C:/Users/Utente/Desktop/Tesi/Firmware_Software/DAVE project/S2GLP_Pulsed_Doppler/Libraries/XMCLib/inc\xmc_i2c.h ****  * Sets the I2C \a channel slave address.<br>
 440:C:/Users/Utente/Desktop/Tesi/Firmware_Software/DAVE project/S2GLP_Pulsed_Doppler/Libraries/XMCLib/inc\xmc_i2c.h ****  *
 441:C:/Users/Utente/Desktop/Tesi/Firmware_Software/DAVE project/S2GLP_Pulsed_Doppler/Libraries/XMCLib/inc\xmc_i2c.h ****  * \par
 442:C:/Users/Utente/Desktop/Tesi/Firmware_Software/DAVE project/S2GLP_Pulsed_Doppler/Libraries/XMCLib/inc\xmc_i2c.h ****  * Address is set in PCR_IICMode register by checking if it is in 10-bit address group or 7-bit add
 443:C:/Users/Utente/Desktop/Tesi/Firmware_Software/DAVE project/S2GLP_Pulsed_Doppler/Libraries/XMCLib/inc\xmc_i2c.h ****  * (If first five bits of address are assigned with 0xF0, then address mode is 10-bit mode otherwis
 444:C:/Users/Utente/Desktop/Tesi/Firmware_Software/DAVE project/S2GLP_Pulsed_Doppler/Libraries/XMCLib/inc\xmc_i2c.h ****  * @note A 7-bit address should include an additional bit at the LSB for read/write indication. For
 445:C:/Users/Utente/Desktop/Tesi/Firmware_Software/DAVE project/S2GLP_Pulsed_Doppler/Libraries/XMCLib/inc\xmc_i2c.h ****  * be provided as 0x0a. A 10-bit address should be provided with the identifier 0b11110xx at the mo
 446:C:/Users/Utente/Desktop/Tesi/Firmware_Software/DAVE project/S2GLP_Pulsed_Doppler/Libraries/XMCLib/inc\xmc_i2c.h ****  * address 0x305 should be provided as 0x7b05(bitwise OR with 0x7800).
 447:C:/Users/Utente/Desktop/Tesi/Firmware_Software/DAVE project/S2GLP_Pulsed_Doppler/Libraries/XMCLib/inc\xmc_i2c.h ****  *
 448:C:/Users/Utente/Desktop/Tesi/Firmware_Software/DAVE project/S2GLP_Pulsed_Doppler/Libraries/XMCLib/inc\xmc_i2c.h ****  * \par<b>Related APIs:</b><br>
 449:C:/Users/Utente/Desktop/Tesi/Firmware_Software/DAVE project/S2GLP_Pulsed_Doppler/Libraries/XMCLib/inc\xmc_i2c.h ****  * XMC_I2C_CH_GetSlaveAddress()\n\n
 450:C:/Users/Utente/Desktop/Tesi/Firmware_Software/DAVE project/S2GLP_Pulsed_Doppler/Libraries/XMCLib/inc\xmc_i2c.h ****  */
 451:C:/Users/Utente/Desktop/Tesi/Firmware_Software/DAVE project/S2GLP_Pulsed_Doppler/Libraries/XMCLib/inc\xmc_i2c.h **** void XMC_I2C_CH_SetSlaveAddress(XMC_USIC_CH_t *const channel, const uint16_t address);
 452:C:/Users/Utente/Desktop/Tesi/Firmware_Software/DAVE project/S2GLP_Pulsed_Doppler/Libraries/XMCLib/inc\xmc_i2c.h **** 
 453:C:/Users/Utente/Desktop/Tesi/Firmware_Software/DAVE project/S2GLP_Pulsed_Doppler/Libraries/XMCLib/inc\xmc_i2c.h **** /**
 454:C:/Users/Utente/Desktop/Tesi/Firmware_Software/DAVE project/S2GLP_Pulsed_Doppler/Libraries/XMCLib/inc\xmc_i2c.h ****  * @param channel Constant pointer to USIC channel handler of type @ref XMC_USIC_CH_t
 455:C:/Users/Utente/Desktop/Tesi/Firmware_Software/DAVE project/S2GLP_Pulsed_Doppler/Libraries/XMCLib/inc\xmc_i2c.h ****  * @return uint16_t Slave address<br>
 456:C:/Users/Utente/Desktop/Tesi/Firmware_Software/DAVE project/S2GLP_Pulsed_Doppler/Libraries/XMCLib/inc\xmc_i2c.h ****  *
 457:C:/Users/Utente/Desktop/Tesi/Firmware_Software/DAVE project/S2GLP_Pulsed_Doppler/Libraries/XMCLib/inc\xmc_i2c.h ****  * \par<b>Description:</b><br>
 458:C:/Users/Utente/Desktop/Tesi/Firmware_Software/DAVE project/S2GLP_Pulsed_Doppler/Libraries/XMCLib/inc\xmc_i2c.h ****  * Gets the I2C \a channel slave address.<br>
 459:C:/Users/Utente/Desktop/Tesi/Firmware_Software/DAVE project/S2GLP_Pulsed_Doppler/Libraries/XMCLib/inc\xmc_i2c.h ****  *
 460:C:/Users/Utente/Desktop/Tesi/Firmware_Software/DAVE project/S2GLP_Pulsed_Doppler/Libraries/XMCLib/inc\xmc_i2c.h ****  * \par
 461:C:/Users/Utente/Desktop/Tesi/Firmware_Software/DAVE project/S2GLP_Pulsed_Doppler/Libraries/XMCLib/inc\xmc_i2c.h ****  * Returns the address using PCR_IICMode register by checking if it is in 10-bit address group or 7
 462:C:/Users/Utente/Desktop/Tesi/Firmware_Software/DAVE project/S2GLP_Pulsed_Doppler/Libraries/XMCLib/inc\xmc_i2c.h ****  * (If first five bits of address are assigned with 0xF0, then address mode is considered as 10-bit
 463:C:/Users/Utente/Desktop/Tesi/Firmware_Software/DAVE project/S2GLP_Pulsed_Doppler/Libraries/XMCLib/inc\xmc_i2c.h ****  * @note A 7-bit address will include an additional bit at the LSB. For example, address 0x05 will 
 464:C:/Users/Utente/Desktop/Tesi/Firmware_Software/DAVE project/S2GLP_Pulsed_Doppler/Libraries/XMCLib/inc\xmc_i2c.h ****  * 10-bit address will not include the 10-bit address identifier 0b11110xx at the most signifcant b
 465:C:/Users/Utente/Desktop/Tesi/Firmware_Software/DAVE project/S2GLP_Pulsed_Doppler/Libraries/XMCLib/inc\xmc_i2c.h ****  *
 466:C:/Users/Utente/Desktop/Tesi/Firmware_Software/DAVE project/S2GLP_Pulsed_Doppler/Libraries/XMCLib/inc\xmc_i2c.h ****  * \par<b>Related APIs:</b><br>
 467:C:/Users/Utente/Desktop/Tesi/Firmware_Software/DAVE project/S2GLP_Pulsed_Doppler/Libraries/XMCLib/inc\xmc_i2c.h ****  * XMC_I2C_CH_SetSlaveAddress()\n\n
 468:C:/Users/Utente/Desktop/Tesi/Firmware_Software/DAVE project/S2GLP_Pulsed_Doppler/Libraries/XMCLib/inc\xmc_i2c.h ****  */
 469:C:/Users/Utente/Desktop/Tesi/Firmware_Software/DAVE project/S2GLP_Pulsed_Doppler/Libraries/XMCLib/inc\xmc_i2c.h **** uint16_t XMC_I2C_CH_GetSlaveAddress(const XMC_USIC_CH_t *const channel);
 470:C:/Users/Utente/Desktop/Tesi/Firmware_Software/DAVE project/S2GLP_Pulsed_Doppler/Libraries/XMCLib/inc\xmc_i2c.h **** 
 471:C:/Users/Utente/Desktop/Tesi/Firmware_Software/DAVE project/S2GLP_Pulsed_Doppler/Libraries/XMCLib/inc\xmc_i2c.h **** /**
 472:C:/Users/Utente/Desktop/Tesi/Firmware_Software/DAVE project/S2GLP_Pulsed_Doppler/Libraries/XMCLib/inc\xmc_i2c.h ****  * @param channel Constant pointer to USIC channel structure of type @ref XMC_USIC_CH_t
 473:C:/Users/Utente/Desktop/Tesi/Firmware_Software/DAVE project/S2GLP_Pulsed_Doppler/Libraries/XMCLib/inc\xmc_i2c.h ****  * @param addr I2C master address
 474:C:/Users/Utente/Desktop/Tesi/Firmware_Software/DAVE project/S2GLP_Pulsed_Doppler/Libraries/XMCLib/inc\xmc_i2c.h ****  * @param command read/write command
 475:C:/Users/Utente/Desktop/Tesi/Firmware_Software/DAVE project/S2GLP_Pulsed_Doppler/Libraries/XMCLib/inc\xmc_i2c.h ****  * @return None<br>
 476:C:/Users/Utente/Desktop/Tesi/Firmware_Software/DAVE project/S2GLP_Pulsed_Doppler/Libraries/XMCLib/inc\xmc_i2c.h ****  *
 477:C:/Users/Utente/Desktop/Tesi/Firmware_Software/DAVE project/S2GLP_Pulsed_Doppler/Libraries/XMCLib/inc\xmc_i2c.h ****  * \par<b>Description:</b><br>
 478:C:/Users/Utente/Desktop/Tesi/Firmware_Software/DAVE project/S2GLP_Pulsed_Doppler/Libraries/XMCLib/inc\xmc_i2c.h ****  * Starts the I2C master \a channel.<br>
 479:C:/Users/Utente/Desktop/Tesi/Firmware_Software/DAVE project/S2GLP_Pulsed_Doppler/Libraries/XMCLib/inc\xmc_i2c.h ****  *
 480:C:/Users/Utente/Desktop/Tesi/Firmware_Software/DAVE project/S2GLP_Pulsed_Doppler/Libraries/XMCLib/inc\xmc_i2c.h ****  * \par
 481:C:/Users/Utente/Desktop/Tesi/Firmware_Software/DAVE project/S2GLP_Pulsed_Doppler/Libraries/XMCLib/inc\xmc_i2c.h ****  * Sends the Start condition with read/write command by updating IN/TBUF register based on FIFO/non
 482:C:/Users/Utente/Desktop/Tesi/Firmware_Software/DAVE project/S2GLP_Pulsed_Doppler/Libraries/XMCLib/inc\xmc_i2c.h ****  * @note Address(addr) should reserve an additional bit at the LSB for read/write indication. For e
 483:C:/Users/Utente/Desktop/Tesi/Firmware_Software/DAVE project/S2GLP_Pulsed_Doppler/Libraries/XMCLib/inc\xmc_i2c.h ****  * be provided as 0x0a. If the address is 10-bit, only most significant bits with the 10-bit identi
 484:C:/Users/Utente/Desktop/Tesi/Firmware_Software/DAVE project/S2GLP_Pulsed_Doppler/Libraries/XMCLib/inc\xmc_i2c.h ****  * For example, if the 10-bit address is 0x305, the address should be provided as 0xf6(prepend with
 485:C:/Users/Utente/Desktop/Tesi/Firmware_Software/DAVE project/S2GLP_Pulsed_Doppler/Libraries/XMCLib/inc\xmc_i2c.h ****  * followed by 1-bit field for read/write).
 486:C:/Users/Utente/Desktop/Tesi/Firmware_Software/DAVE project/S2GLP_Pulsed_Doppler/Libraries/XMCLib/inc\xmc_i2c.h ****  *
 487:C:/Users/Utente/Desktop/Tesi/Firmware_Software/DAVE project/S2GLP_Pulsed_Doppler/Libraries/XMCLib/inc\xmc_i2c.h ****  * \par<b>Related APIs:</b><br>
 488:C:/Users/Utente/Desktop/Tesi/Firmware_Software/DAVE project/S2GLP_Pulsed_Doppler/Libraries/XMCLib/inc\xmc_i2c.h ****  * XMC_I2C_CH_MasterTransmit(), XMC_USIC_CH_GetTransmitBufferStatus()\n\n
 489:C:/Users/Utente/Desktop/Tesi/Firmware_Software/DAVE project/S2GLP_Pulsed_Doppler/Libraries/XMCLib/inc\xmc_i2c.h ****  */
 490:C:/Users/Utente/Desktop/Tesi/Firmware_Software/DAVE project/S2GLP_Pulsed_Doppler/Libraries/XMCLib/inc\xmc_i2c.h **** void XMC_I2C_CH_MasterStart(XMC_USIC_CH_t *const channel, const uint16_t addr, const XMC_I2C_CH_CMD
 491:C:/Users/Utente/Desktop/Tesi/Firmware_Software/DAVE project/S2GLP_Pulsed_Doppler/Libraries/XMCLib/inc\xmc_i2c.h **** 
 492:C:/Users/Utente/Desktop/Tesi/Firmware_Software/DAVE project/S2GLP_Pulsed_Doppler/Libraries/XMCLib/inc\xmc_i2c.h **** /**
 493:C:/Users/Utente/Desktop/Tesi/Firmware_Software/DAVE project/S2GLP_Pulsed_Doppler/Libraries/XMCLib/inc\xmc_i2c.h ****  * @param channel Constant pointer to USIC channel structure of type @ref XMC_USIC_CH_t
 494:C:/Users/Utente/Desktop/Tesi/Firmware_Software/DAVE project/S2GLP_Pulsed_Doppler/Libraries/XMCLib/inc\xmc_i2c.h ****  * @param addr I2C master address
 495:C:/Users/Utente/Desktop/Tesi/Firmware_Software/DAVE project/S2GLP_Pulsed_Doppler/Libraries/XMCLib/inc\xmc_i2c.h ****  * @param command read/write command
 496:C:/Users/Utente/Desktop/Tesi/Firmware_Software/DAVE project/S2GLP_Pulsed_Doppler/Libraries/XMCLib/inc\xmc_i2c.h ****  * @return None<br>
 497:C:/Users/Utente/Desktop/Tesi/Firmware_Software/DAVE project/S2GLP_Pulsed_Doppler/Libraries/XMCLib/inc\xmc_i2c.h ****  *
 498:C:/Users/Utente/Desktop/Tesi/Firmware_Software/DAVE project/S2GLP_Pulsed_Doppler/Libraries/XMCLib/inc\xmc_i2c.h ****  * \par<b>Description:</b><br>
 499:C:/Users/Utente/Desktop/Tesi/Firmware_Software/DAVE project/S2GLP_Pulsed_Doppler/Libraries/XMCLib/inc\xmc_i2c.h ****  * Sends the repeated start condition from I2C master \a channel.<br>
 500:C:/Users/Utente/Desktop/Tesi/Firmware_Software/DAVE project/S2GLP_Pulsed_Doppler/Libraries/XMCLib/inc\xmc_i2c.h ****  *
 501:C:/Users/Utente/Desktop/Tesi/Firmware_Software/DAVE project/S2GLP_Pulsed_Doppler/Libraries/XMCLib/inc\xmc_i2c.h ****  * \par
 502:C:/Users/Utente/Desktop/Tesi/Firmware_Software/DAVE project/S2GLP_Pulsed_Doppler/Libraries/XMCLib/inc\xmc_i2c.h ****  * Sends the repeated start condition with read/write command by updating IN/TBUF register based on
 503:C:/Users/Utente/Desktop/Tesi/Firmware_Software/DAVE project/S2GLP_Pulsed_Doppler/Libraries/XMCLib/inc\xmc_i2c.h ****  * @note Address(addr) should reserve an additional bit at the LSB for read/write indication. For e
 504:C:/Users/Utente/Desktop/Tesi/Firmware_Software/DAVE project/S2GLP_Pulsed_Doppler/Libraries/XMCLib/inc\xmc_i2c.h ****  * be provided as 0x0a. If the address is 10-bit, only most significant bits with the 10-bit identi
 505:C:/Users/Utente/Desktop/Tesi/Firmware_Software/DAVE project/S2GLP_Pulsed_Doppler/Libraries/XMCLib/inc\xmc_i2c.h ****  * For example, if the 10-bit address is 0x305, the address should be provided as 0xf6(prepend with
 506:C:/Users/Utente/Desktop/Tesi/Firmware_Software/DAVE project/S2GLP_Pulsed_Doppler/Libraries/XMCLib/inc\xmc_i2c.h ****  * followed by 1-bit field for read/write).
 507:C:/Users/Utente/Desktop/Tesi/Firmware_Software/DAVE project/S2GLP_Pulsed_Doppler/Libraries/XMCLib/inc\xmc_i2c.h ****  *
 508:C:/Users/Utente/Desktop/Tesi/Firmware_Software/DAVE project/S2GLP_Pulsed_Doppler/Libraries/XMCLib/inc\xmc_i2c.h ****  * \par<b>Related APIs:</b><br>
 509:C:/Users/Utente/Desktop/Tesi/Firmware_Software/DAVE project/S2GLP_Pulsed_Doppler/Libraries/XMCLib/inc\xmc_i2c.h ****  * XMC_I2C_CH_MasterTransmit(), XMC_USIC_CH_GetTransmitBufferStatus()\n\n
 510:C:/Users/Utente/Desktop/Tesi/Firmware_Software/DAVE project/S2GLP_Pulsed_Doppler/Libraries/XMCLib/inc\xmc_i2c.h ****  */
 511:C:/Users/Utente/Desktop/Tesi/Firmware_Software/DAVE project/S2GLP_Pulsed_Doppler/Libraries/XMCLib/inc\xmc_i2c.h **** void XMC_I2C_CH_MasterRepeatedStart(XMC_USIC_CH_t *const channel, const uint16_t addr, const XMC_I2
 512:C:/Users/Utente/Desktop/Tesi/Firmware_Software/DAVE project/S2GLP_Pulsed_Doppler/Libraries/XMCLib/inc\xmc_i2c.h **** 
 513:C:/Users/Utente/Desktop/Tesi/Firmware_Software/DAVE project/S2GLP_Pulsed_Doppler/Libraries/XMCLib/inc\xmc_i2c.h **** /**
 514:C:/Users/Utente/Desktop/Tesi/Firmware_Software/DAVE project/S2GLP_Pulsed_Doppler/Libraries/XMCLib/inc\xmc_i2c.h ****  * @param channel Constant pointer to USIC channel structure of type @ref XMC_USIC_CH_t
 515:C:/Users/Utente/Desktop/Tesi/Firmware_Software/DAVE project/S2GLP_Pulsed_Doppler/Libraries/XMCLib/inc\xmc_i2c.h ****  * @return None<br>
 516:C:/Users/Utente/Desktop/Tesi/Firmware_Software/DAVE project/S2GLP_Pulsed_Doppler/Libraries/XMCLib/inc\xmc_i2c.h ****  *
 517:C:/Users/Utente/Desktop/Tesi/Firmware_Software/DAVE project/S2GLP_Pulsed_Doppler/Libraries/XMCLib/inc\xmc_i2c.h ****  * \par<b>Description:</b><br>
 518:C:/Users/Utente/Desktop/Tesi/Firmware_Software/DAVE project/S2GLP_Pulsed_Doppler/Libraries/XMCLib/inc\xmc_i2c.h ****  * Stops the I2C master \a channel.<br>
 519:C:/Users/Utente/Desktop/Tesi/Firmware_Software/DAVE project/S2GLP_Pulsed_Doppler/Libraries/XMCLib/inc\xmc_i2c.h ****  *
 520:C:/Users/Utente/Desktop/Tesi/Firmware_Software/DAVE project/S2GLP_Pulsed_Doppler/Libraries/XMCLib/inc\xmc_i2c.h ****  * \par
 521:C:/Users/Utente/Desktop/Tesi/Firmware_Software/DAVE project/S2GLP_Pulsed_Doppler/Libraries/XMCLib/inc\xmc_i2c.h ****   * Reads the transmit buffer status is busy or not and thereby updates IN/TBUF register based on F
 522:C:/Users/Utente/Desktop/Tesi/Firmware_Software/DAVE project/S2GLP_Pulsed_Doppler/Libraries/XMCLib/inc\xmc_i2c.h ****  *
 523:C:/Users/Utente/Desktop/Tesi/Firmware_Software/DAVE project/S2GLP_Pulsed_Doppler/Libraries/XMCLib/inc\xmc_i2c.h ****  * \par<b>Related APIs:</b><br>
 524:C:/Users/Utente/Desktop/Tesi/Firmware_Software/DAVE project/S2GLP_Pulsed_Doppler/Libraries/XMCLib/inc\xmc_i2c.h ****  * XMC_I2C_CH_MasterTransmit(), XMC_USIC_CH_GetTransmitBufferStatus()\n\n
 525:C:/Users/Utente/Desktop/Tesi/Firmware_Software/DAVE project/S2GLP_Pulsed_Doppler/Libraries/XMCLib/inc\xmc_i2c.h ****  */
 526:C:/Users/Utente/Desktop/Tesi/Firmware_Software/DAVE project/S2GLP_Pulsed_Doppler/Libraries/XMCLib/inc\xmc_i2c.h **** void XMC_I2C_CH_MasterStop(XMC_USIC_CH_t *const channel);
 527:C:/Users/Utente/Desktop/Tesi/Firmware_Software/DAVE project/S2GLP_Pulsed_Doppler/Libraries/XMCLib/inc\xmc_i2c.h **** 
 528:C:/Users/Utente/Desktop/Tesi/Firmware_Software/DAVE project/S2GLP_Pulsed_Doppler/Libraries/XMCLib/inc\xmc_i2c.h **** /**
 529:C:/Users/Utente/Desktop/Tesi/Firmware_Software/DAVE project/S2GLP_Pulsed_Doppler/Libraries/XMCLib/inc\xmc_i2c.h ****  * @param channel Constant pointer to USIC channel structure of type @ref XMC_USIC_CH_t
 530:C:/Users/Utente/Desktop/Tesi/Firmware_Software/DAVE project/S2GLP_Pulsed_Doppler/Libraries/XMCLib/inc\xmc_i2c.h ****  * @param data data to transmit from I2C \a channel
 531:C:/Users/Utente/Desktop/Tesi/Firmware_Software/DAVE project/S2GLP_Pulsed_Doppler/Libraries/XMCLib/inc\xmc_i2c.h ****  * @return None<br>
 532:C:/Users/Utente/Desktop/Tesi/Firmware_Software/DAVE project/S2GLP_Pulsed_Doppler/Libraries/XMCLib/inc\xmc_i2c.h ****  *
 533:C:/Users/Utente/Desktop/Tesi/Firmware_Software/DAVE project/S2GLP_Pulsed_Doppler/Libraries/XMCLib/inc\xmc_i2c.h ****  * \par<b>Description:</b><br>
 534:C:/Users/Utente/Desktop/Tesi/Firmware_Software/DAVE project/S2GLP_Pulsed_Doppler/Libraries/XMCLib/inc\xmc_i2c.h ****  * Transmit the data from the I2C master \a channel.<br>
 535:C:/Users/Utente/Desktop/Tesi/Firmware_Software/DAVE project/S2GLP_Pulsed_Doppler/Libraries/XMCLib/inc\xmc_i2c.h ****  *
 536:C:/Users/Utente/Desktop/Tesi/Firmware_Software/DAVE project/S2GLP_Pulsed_Doppler/Libraries/XMCLib/inc\xmc_i2c.h ****  * \par
 537:C:/Users/Utente/Desktop/Tesi/Firmware_Software/DAVE project/S2GLP_Pulsed_Doppler/Libraries/XMCLib/inc\xmc_i2c.h ****  * Reads the transmit buffer status is busy or not and thereby updates IN/TBUF register based on FI
 538:C:/Users/Utente/Desktop/Tesi/Firmware_Software/DAVE project/S2GLP_Pulsed_Doppler/Libraries/XMCLib/inc\xmc_i2c.h ****  *
 539:C:/Users/Utente/Desktop/Tesi/Firmware_Software/DAVE project/S2GLP_Pulsed_Doppler/Libraries/XMCLib/inc\xmc_i2c.h ****  * \par<b>Related APIs:</b><br>
 540:C:/Users/Utente/Desktop/Tesi/Firmware_Software/DAVE project/S2GLP_Pulsed_Doppler/Libraries/XMCLib/inc\xmc_i2c.h ****  * XMC_USIC_CH_GetTransmitBufferStatus()\n\n
 541:C:/Users/Utente/Desktop/Tesi/Firmware_Software/DAVE project/S2GLP_Pulsed_Doppler/Libraries/XMCLib/inc\xmc_i2c.h ****  */
 542:C:/Users/Utente/Desktop/Tesi/Firmware_Software/DAVE project/S2GLP_Pulsed_Doppler/Libraries/XMCLib/inc\xmc_i2c.h **** void XMC_I2C_CH_MasterTransmit(XMC_USIC_CH_t *const channel, const uint8_t data);
 543:C:/Users/Utente/Desktop/Tesi/Firmware_Software/DAVE project/S2GLP_Pulsed_Doppler/Libraries/XMCLib/inc\xmc_i2c.h **** 
 544:C:/Users/Utente/Desktop/Tesi/Firmware_Software/DAVE project/S2GLP_Pulsed_Doppler/Libraries/XMCLib/inc\xmc_i2c.h **** /**
 545:C:/Users/Utente/Desktop/Tesi/Firmware_Software/DAVE project/S2GLP_Pulsed_Doppler/Libraries/XMCLib/inc\xmc_i2c.h ****  * @param channel Constant pointer to USIC channel structure of type @ref XMC_USIC_CH_t
 546:C:/Users/Utente/Desktop/Tesi/Firmware_Software/DAVE project/S2GLP_Pulsed_Doppler/Libraries/XMCLib/inc\xmc_i2c.h ****  * @param data data to transmit from I2C \a channel
 547:C:/Users/Utente/Desktop/Tesi/Firmware_Software/DAVE project/S2GLP_Pulsed_Doppler/Libraries/XMCLib/inc\xmc_i2c.h ****  * @return None<br>
 548:C:/Users/Utente/Desktop/Tesi/Firmware_Software/DAVE project/S2GLP_Pulsed_Doppler/Libraries/XMCLib/inc\xmc_i2c.h ****  *
 549:C:/Users/Utente/Desktop/Tesi/Firmware_Software/DAVE project/S2GLP_Pulsed_Doppler/Libraries/XMCLib/inc\xmc_i2c.h ****  * \par<b>Description:</b><br>
 550:C:/Users/Utente/Desktop/Tesi/Firmware_Software/DAVE project/S2GLP_Pulsed_Doppler/Libraries/XMCLib/inc\xmc_i2c.h ****  * Transmit the data from the I2C slave \a channel.<br>
 551:C:/Users/Utente/Desktop/Tesi/Firmware_Software/DAVE project/S2GLP_Pulsed_Doppler/Libraries/XMCLib/inc\xmc_i2c.h ****  *
 552:C:/Users/Utente/Desktop/Tesi/Firmware_Software/DAVE project/S2GLP_Pulsed_Doppler/Libraries/XMCLib/inc\xmc_i2c.h ****  * \par
 553:C:/Users/Utente/Desktop/Tesi/Firmware_Software/DAVE project/S2GLP_Pulsed_Doppler/Libraries/XMCLib/inc\xmc_i2c.h ****  * Reads the transmit buffer status is busy or not and thereby updates IN/TBUF register based on FI
 554:C:/Users/Utente/Desktop/Tesi/Firmware_Software/DAVE project/S2GLP_Pulsed_Doppler/Libraries/XMCLib/inc\xmc_i2c.h ****  *
 555:C:/Users/Utente/Desktop/Tesi/Firmware_Software/DAVE project/S2GLP_Pulsed_Doppler/Libraries/XMCLib/inc\xmc_i2c.h ****  * \par<b>Related APIs:</b><br>
 556:C:/Users/Utente/Desktop/Tesi/Firmware_Software/DAVE project/S2GLP_Pulsed_Doppler/Libraries/XMCLib/inc\xmc_i2c.h ****  * XMC_USIC_CH_GetTransmitBufferStatus(),XMC_I2C_CH_ClearStatusFlag()\n\n
 557:C:/Users/Utente/Desktop/Tesi/Firmware_Software/DAVE project/S2GLP_Pulsed_Doppler/Libraries/XMCLib/inc\xmc_i2c.h ****  */
 558:C:/Users/Utente/Desktop/Tesi/Firmware_Software/DAVE project/S2GLP_Pulsed_Doppler/Libraries/XMCLib/inc\xmc_i2c.h **** void XMC_I2C_CH_SlaveTransmit(XMC_USIC_CH_t *const channel, const uint8_t data);
 559:C:/Users/Utente/Desktop/Tesi/Firmware_Software/DAVE project/S2GLP_Pulsed_Doppler/Libraries/XMCLib/inc\xmc_i2c.h **** 
 560:C:/Users/Utente/Desktop/Tesi/Firmware_Software/DAVE project/S2GLP_Pulsed_Doppler/Libraries/XMCLib/inc\xmc_i2c.h **** /**
 561:C:/Users/Utente/Desktop/Tesi/Firmware_Software/DAVE project/S2GLP_Pulsed_Doppler/Libraries/XMCLib/inc\xmc_i2c.h ****  * @param channel Constant pointer to USIC channel structure of type @ref XMC_USIC_CH_t
 562:C:/Users/Utente/Desktop/Tesi/Firmware_Software/DAVE project/S2GLP_Pulsed_Doppler/Libraries/XMCLib/inc\xmc_i2c.h ****  * @return None<br>
 563:C:/Users/Utente/Desktop/Tesi/Firmware_Software/DAVE project/S2GLP_Pulsed_Doppler/Libraries/XMCLib/inc\xmc_i2c.h ****  *
 564:C:/Users/Utente/Desktop/Tesi/Firmware_Software/DAVE project/S2GLP_Pulsed_Doppler/Libraries/XMCLib/inc\xmc_i2c.h ****  * \par<b>Description:</b><br>
 565:C:/Users/Utente/Desktop/Tesi/Firmware_Software/DAVE project/S2GLP_Pulsed_Doppler/Libraries/XMCLib/inc\xmc_i2c.h ****  * Sends the Ack request from I2C master \a channel.<br>
 566:C:/Users/Utente/Desktop/Tesi/Firmware_Software/DAVE project/S2GLP_Pulsed_Doppler/Libraries/XMCLib/inc\xmc_i2c.h ****  *
 567:C:/Users/Utente/Desktop/Tesi/Firmware_Software/DAVE project/S2GLP_Pulsed_Doppler/Libraries/XMCLib/inc\xmc_i2c.h ****  * \par
 568:C:/Users/Utente/Desktop/Tesi/Firmware_Software/DAVE project/S2GLP_Pulsed_Doppler/Libraries/XMCLib/inc\xmc_i2c.h **** * Reads the transmit buffer status is busy or not and thereby updates IN/TBUF register based on FIF
 569:C:/Users/Utente/Desktop/Tesi/Firmware_Software/DAVE project/S2GLP_Pulsed_Doppler/Libraries/XMCLib/inc\xmc_i2c.h ****  *
 570:C:/Users/Utente/Desktop/Tesi/Firmware_Software/DAVE project/S2GLP_Pulsed_Doppler/Libraries/XMCLib/inc\xmc_i2c.h ****  * \par<b>Related APIs:</b><br>
 571:C:/Users/Utente/Desktop/Tesi/Firmware_Software/DAVE project/S2GLP_Pulsed_Doppler/Libraries/XMCLib/inc\xmc_i2c.h ****  * XMC_I2C_CH_MasterTransmit()\n\n
 572:C:/Users/Utente/Desktop/Tesi/Firmware_Software/DAVE project/S2GLP_Pulsed_Doppler/Libraries/XMCLib/inc\xmc_i2c.h ****  */
 573:C:/Users/Utente/Desktop/Tesi/Firmware_Software/DAVE project/S2GLP_Pulsed_Doppler/Libraries/XMCLib/inc\xmc_i2c.h **** void XMC_I2C_CH_MasterReceiveAck(XMC_USIC_CH_t *const channel);
 574:C:/Users/Utente/Desktop/Tesi/Firmware_Software/DAVE project/S2GLP_Pulsed_Doppler/Libraries/XMCLib/inc\xmc_i2c.h **** 
 575:C:/Users/Utente/Desktop/Tesi/Firmware_Software/DAVE project/S2GLP_Pulsed_Doppler/Libraries/XMCLib/inc\xmc_i2c.h **** /**
 576:C:/Users/Utente/Desktop/Tesi/Firmware_Software/DAVE project/S2GLP_Pulsed_Doppler/Libraries/XMCLib/inc\xmc_i2c.h ****  * @param channel Constant pointer to USIC channel structure of type @ref XMC_USIC_CH_t
 577:C:/Users/Utente/Desktop/Tesi/Firmware_Software/DAVE project/S2GLP_Pulsed_Doppler/Libraries/XMCLib/inc\xmc_i2c.h ****  * @return None<br>
 578:C:/Users/Utente/Desktop/Tesi/Firmware_Software/DAVE project/S2GLP_Pulsed_Doppler/Libraries/XMCLib/inc\xmc_i2c.h ****  *
 579:C:/Users/Utente/Desktop/Tesi/Firmware_Software/DAVE project/S2GLP_Pulsed_Doppler/Libraries/XMCLib/inc\xmc_i2c.h ****  * \par<b>Description:</b><br>
 580:C:/Users/Utente/Desktop/Tesi/Firmware_Software/DAVE project/S2GLP_Pulsed_Doppler/Libraries/XMCLib/inc\xmc_i2c.h ****  * Sends the Nack request from I2C master \a channel.<br>
 581:C:/Users/Utente/Desktop/Tesi/Firmware_Software/DAVE project/S2GLP_Pulsed_Doppler/Libraries/XMCLib/inc\xmc_i2c.h ****  *
 582:C:/Users/Utente/Desktop/Tesi/Firmware_Software/DAVE project/S2GLP_Pulsed_Doppler/Libraries/XMCLib/inc\xmc_i2c.h ****  * \par
 583:C:/Users/Utente/Desktop/Tesi/Firmware_Software/DAVE project/S2GLP_Pulsed_Doppler/Libraries/XMCLib/inc\xmc_i2c.h ****  * Reads the transmit buffer status is busy or not and thereby updates IN/TBUF register based on FI
 584:C:/Users/Utente/Desktop/Tesi/Firmware_Software/DAVE project/S2GLP_Pulsed_Doppler/Libraries/XMCLib/inc\xmc_i2c.h ****  *
 585:C:/Users/Utente/Desktop/Tesi/Firmware_Software/DAVE project/S2GLP_Pulsed_Doppler/Libraries/XMCLib/inc\xmc_i2c.h ****  * \par<b>Related APIs:</b><br>
 586:C:/Users/Utente/Desktop/Tesi/Firmware_Software/DAVE project/S2GLP_Pulsed_Doppler/Libraries/XMCLib/inc\xmc_i2c.h ****  * XMC_I2C_CH_MasterTransmit()\n\n
 587:C:/Users/Utente/Desktop/Tesi/Firmware_Software/DAVE project/S2GLP_Pulsed_Doppler/Libraries/XMCLib/inc\xmc_i2c.h ****  */
 588:C:/Users/Utente/Desktop/Tesi/Firmware_Software/DAVE project/S2GLP_Pulsed_Doppler/Libraries/XMCLib/inc\xmc_i2c.h **** void XMC_I2C_CH_MasterReceiveNack(XMC_USIC_CH_t *const channel);
 589:C:/Users/Utente/Desktop/Tesi/Firmware_Software/DAVE project/S2GLP_Pulsed_Doppler/Libraries/XMCLib/inc\xmc_i2c.h **** 
 590:C:/Users/Utente/Desktop/Tesi/Firmware_Software/DAVE project/S2GLP_Pulsed_Doppler/Libraries/XMCLib/inc\xmc_i2c.h **** /**
 591:C:/Users/Utente/Desktop/Tesi/Firmware_Software/DAVE project/S2GLP_Pulsed_Doppler/Libraries/XMCLib/inc\xmc_i2c.h ****  * @param channel Constant pointer to USIC channel structure of type @ref XMC_USIC_CH_t
 592:C:/Users/Utente/Desktop/Tesi/Firmware_Software/DAVE project/S2GLP_Pulsed_Doppler/Libraries/XMCLib/inc\xmc_i2c.h ****  * @return uint8_t OUTR/RBUF register data<br>
 593:C:/Users/Utente/Desktop/Tesi/Firmware_Software/DAVE project/S2GLP_Pulsed_Doppler/Libraries/XMCLib/inc\xmc_i2c.h ****  *
 594:C:/Users/Utente/Desktop/Tesi/Firmware_Software/DAVE project/S2GLP_Pulsed_Doppler/Libraries/XMCLib/inc\xmc_i2c.h ****  * \par<b>Description:</b><br>
 595:C:/Users/Utente/Desktop/Tesi/Firmware_Software/DAVE project/S2GLP_Pulsed_Doppler/Libraries/XMCLib/inc\xmc_i2c.h ****  * Reads the data from I2C \a channel.<br>
 596:C:/Users/Utente/Desktop/Tesi/Firmware_Software/DAVE project/S2GLP_Pulsed_Doppler/Libraries/XMCLib/inc\xmc_i2c.h ****  *
 597:C:/Users/Utente/Desktop/Tesi/Firmware_Software/DAVE project/S2GLP_Pulsed_Doppler/Libraries/XMCLib/inc\xmc_i2c.h ****  * \par
 598:C:/Users/Utente/Desktop/Tesi/Firmware_Software/DAVE project/S2GLP_Pulsed_Doppler/Libraries/XMCLib/inc\xmc_i2c.h ****  * Data is read by using OUTR/RBUF register based on FIFO/non-FIFO modes.
 599:C:/Users/Utente/Desktop/Tesi/Firmware_Software/DAVE project/S2GLP_Pulsed_Doppler/Libraries/XMCLib/inc\xmc_i2c.h ****  *
 600:C:/Users/Utente/Desktop/Tesi/Firmware_Software/DAVE project/S2GLP_Pulsed_Doppler/Libraries/XMCLib/inc\xmc_i2c.h ****  * \par<b>Related APIs:</b><br>
 601:C:/Users/Utente/Desktop/Tesi/Firmware_Software/DAVE project/S2GLP_Pulsed_Doppler/Libraries/XMCLib/inc\xmc_i2c.h ****  * XMC_I2C_CH_MasterTransmit()\n\n
 602:C:/Users/Utente/Desktop/Tesi/Firmware_Software/DAVE project/S2GLP_Pulsed_Doppler/Libraries/XMCLib/inc\xmc_i2c.h ****  */
 603:C:/Users/Utente/Desktop/Tesi/Firmware_Software/DAVE project/S2GLP_Pulsed_Doppler/Libraries/XMCLib/inc\xmc_i2c.h **** uint8_t XMC_I2C_CH_GetReceivedData(const XMC_USIC_CH_t *const channel);
 604:C:/Users/Utente/Desktop/Tesi/Firmware_Software/DAVE project/S2GLP_Pulsed_Doppler/Libraries/XMCLib/inc\xmc_i2c.h **** 
 605:C:/Users/Utente/Desktop/Tesi/Firmware_Software/DAVE project/S2GLP_Pulsed_Doppler/Libraries/XMCLib/inc\xmc_i2c.h **** /**
 606:C:/Users/Utente/Desktop/Tesi/Firmware_Software/DAVE project/S2GLP_Pulsed_Doppler/Libraries/XMCLib/inc\xmc_i2c.h ****  * @param channel Constant pointer to USIC channel structure of type @ref XMC_USIC_CH_t
 607:C:/Users/Utente/Desktop/Tesi/Firmware_Software/DAVE project/S2GLP_Pulsed_Doppler/Libraries/XMCLib/inc\xmc_i2c.h ****  * @return uint8_t Receiver status flag<br>
 608:C:/Users/Utente/Desktop/Tesi/Firmware_Software/DAVE project/S2GLP_Pulsed_Doppler/Libraries/XMCLib/inc\xmc_i2c.h ****  *
 609:C:/Users/Utente/Desktop/Tesi/Firmware_Software/DAVE project/S2GLP_Pulsed_Doppler/Libraries/XMCLib/inc\xmc_i2c.h ****  * \par<b>Description:</b><br>
 610:C:/Users/Utente/Desktop/Tesi/Firmware_Software/DAVE project/S2GLP_Pulsed_Doppler/Libraries/XMCLib/inc\xmc_i2c.h ****  * Gets the receiver status of I2C \a channel using RBUF register of bits 8-12 which gives informat
 611:C:/Users/Utente/Desktop/Tesi/Firmware_Software/DAVE project/S2GLP_Pulsed_Doppler/Libraries/XMCLib/inc\xmc_i2c.h ****  *
 612:C:/Users/Utente/Desktop/Tesi/Firmware_Software/DAVE project/S2GLP_Pulsed_Doppler/Libraries/XMCLib/inc\xmc_i2c.h ****  * \par<b>Related APIs:</b><br>
 613:C:/Users/Utente/Desktop/Tesi/Firmware_Software/DAVE project/S2GLP_Pulsed_Doppler/Libraries/XMCLib/inc\xmc_i2c.h ****  * XMC_I2C_CH_MasterTransmit()\n\n
 614:C:/Users/Utente/Desktop/Tesi/Firmware_Software/DAVE project/S2GLP_Pulsed_Doppler/Libraries/XMCLib/inc\xmc_i2c.h ****  */
 615:C:/Users/Utente/Desktop/Tesi/Firmware_Software/DAVE project/S2GLP_Pulsed_Doppler/Libraries/XMCLib/inc\xmc_i2c.h **** __STATIC_INLINE uint8_t XMC_I2C_CH_GetReceiverStatusFlag(XMC_USIC_CH_t *const channel)
 616:C:/Users/Utente/Desktop/Tesi/Firmware_Software/DAVE project/S2GLP_Pulsed_Doppler/Libraries/XMCLib/inc\xmc_i2c.h **** {
 617:C:/Users/Utente/Desktop/Tesi/Firmware_Software/DAVE project/S2GLP_Pulsed_Doppler/Libraries/XMCLib/inc\xmc_i2c.h ****   return((uint8_t)((channel->RBUF) >> 8U));
 618:C:/Users/Utente/Desktop/Tesi/Firmware_Software/DAVE project/S2GLP_Pulsed_Doppler/Libraries/XMCLib/inc\xmc_i2c.h **** }
 619:C:/Users/Utente/Desktop/Tesi/Firmware_Software/DAVE project/S2GLP_Pulsed_Doppler/Libraries/XMCLib/inc\xmc_i2c.h **** 
 620:C:/Users/Utente/Desktop/Tesi/Firmware_Software/DAVE project/S2GLP_Pulsed_Doppler/Libraries/XMCLib/inc\xmc_i2c.h **** /**
 621:C:/Users/Utente/Desktop/Tesi/Firmware_Software/DAVE project/S2GLP_Pulsed_Doppler/Libraries/XMCLib/inc\xmc_i2c.h ****  * @param channel Constant pointer to USIC channel structure of type @ref XMC_USIC_CH_t
 622:C:/Users/Utente/Desktop/Tesi/Firmware_Software/DAVE project/S2GLP_Pulsed_Doppler/Libraries/XMCLib/inc\xmc_i2c.h ****  * @param event ORed values of @ref XMC_I2C_CH_EVENT_t enum
 623:C:/Users/Utente/Desktop/Tesi/Firmware_Software/DAVE project/S2GLP_Pulsed_Doppler/Libraries/XMCLib/inc\xmc_i2c.h ****  * @return None<br>
 624:C:/Users/Utente/Desktop/Tesi/Firmware_Software/DAVE project/S2GLP_Pulsed_Doppler/Libraries/XMCLib/inc\xmc_i2c.h ****  *
 625:C:/Users/Utente/Desktop/Tesi/Firmware_Software/DAVE project/S2GLP_Pulsed_Doppler/Libraries/XMCLib/inc\xmc_i2c.h ****  * \par<b>Description:</b><br>
 626:C:/Users/Utente/Desktop/Tesi/Firmware_Software/DAVE project/S2GLP_Pulsed_Doppler/Libraries/XMCLib/inc\xmc_i2c.h ****  * Enables the input parameter @ref XMC_I2C_CH_EVENT_t event using PCR_IICMode register.
 627:C:/Users/Utente/Desktop/Tesi/Firmware_Software/DAVE project/S2GLP_Pulsed_Doppler/Libraries/XMCLib/inc\xmc_i2c.h ****  *
 628:C:/Users/Utente/Desktop/Tesi/Firmware_Software/DAVE project/S2GLP_Pulsed_Doppler/Libraries/XMCLib/inc\xmc_i2c.h ****  * \par<b>Related APIs:</b><br>
 629:C:/Users/Utente/Desktop/Tesi/Firmware_Software/DAVE project/S2GLP_Pulsed_Doppler/Libraries/XMCLib/inc\xmc_i2c.h ****  * XMC_I2C_CH_DisableEvent()\n\n
 630:C:/Users/Utente/Desktop/Tesi/Firmware_Software/DAVE project/S2GLP_Pulsed_Doppler/Libraries/XMCLib/inc\xmc_i2c.h ****  */
 631:C:/Users/Utente/Desktop/Tesi/Firmware_Software/DAVE project/S2GLP_Pulsed_Doppler/Libraries/XMCLib/inc\xmc_i2c.h **** void XMC_I2C_CH_EnableEvent(XMC_USIC_CH_t *const channel, uint32_t event);
 632:C:/Users/Utente/Desktop/Tesi/Firmware_Software/DAVE project/S2GLP_Pulsed_Doppler/Libraries/XMCLib/inc\xmc_i2c.h **** 
 633:C:/Users/Utente/Desktop/Tesi/Firmware_Software/DAVE project/S2GLP_Pulsed_Doppler/Libraries/XMCLib/inc\xmc_i2c.h **** /**
 634:C:/Users/Utente/Desktop/Tesi/Firmware_Software/DAVE project/S2GLP_Pulsed_Doppler/Libraries/XMCLib/inc\xmc_i2c.h ****  * @param channel Constant pointer to USIC channel structure of type @ref XMC_USIC_CH_t
 635:C:/Users/Utente/Desktop/Tesi/Firmware_Software/DAVE project/S2GLP_Pulsed_Doppler/Libraries/XMCLib/inc\xmc_i2c.h ****  * @param event ORed values of @ref XMC_I2C_CH_EVENT_t enum
 636:C:/Users/Utente/Desktop/Tesi/Firmware_Software/DAVE project/S2GLP_Pulsed_Doppler/Libraries/XMCLib/inc\xmc_i2c.h ****  * @return None<br>
 637:C:/Users/Utente/Desktop/Tesi/Firmware_Software/DAVE project/S2GLP_Pulsed_Doppler/Libraries/XMCLib/inc\xmc_i2c.h ****  *
 638:C:/Users/Utente/Desktop/Tesi/Firmware_Software/DAVE project/S2GLP_Pulsed_Doppler/Libraries/XMCLib/inc\xmc_i2c.h ****  * \par<b>Description:</b><br>
 639:C:/Users/Utente/Desktop/Tesi/Firmware_Software/DAVE project/S2GLP_Pulsed_Doppler/Libraries/XMCLib/inc\xmc_i2c.h ****  * Disables the input parameter @ref XMC_I2C_CH_EVENT_t event using PCR_IICMode register.
 640:C:/Users/Utente/Desktop/Tesi/Firmware_Software/DAVE project/S2GLP_Pulsed_Doppler/Libraries/XMCLib/inc\xmc_i2c.h ****  *
 641:C:/Users/Utente/Desktop/Tesi/Firmware_Software/DAVE project/S2GLP_Pulsed_Doppler/Libraries/XMCLib/inc\xmc_i2c.h ****  * \par<b>Related APIs:</b><br>
 642:C:/Users/Utente/Desktop/Tesi/Firmware_Software/DAVE project/S2GLP_Pulsed_Doppler/Libraries/XMCLib/inc\xmc_i2c.h ****  * XMC_I2C_CH_EnableEvent()\n\n
 643:C:/Users/Utente/Desktop/Tesi/Firmware_Software/DAVE project/S2GLP_Pulsed_Doppler/Libraries/XMCLib/inc\xmc_i2c.h ****  */
 644:C:/Users/Utente/Desktop/Tesi/Firmware_Software/DAVE project/S2GLP_Pulsed_Doppler/Libraries/XMCLib/inc\xmc_i2c.h **** void XMC_I2C_CH_DisableEvent(XMC_USIC_CH_t *const channel, uint32_t event);
 645:C:/Users/Utente/Desktop/Tesi/Firmware_Software/DAVE project/S2GLP_Pulsed_Doppler/Libraries/XMCLib/inc\xmc_i2c.h **** 
 646:C:/Users/Utente/Desktop/Tesi/Firmware_Software/DAVE project/S2GLP_Pulsed_Doppler/Libraries/XMCLib/inc\xmc_i2c.h **** /**
 647:C:/Users/Utente/Desktop/Tesi/Firmware_Software/DAVE project/S2GLP_Pulsed_Doppler/Libraries/XMCLib/inc\xmc_i2c.h ****  * @param channel Constant pointer to USIC channel structure of type @ref XMC_USIC_CH_t
 648:C:/Users/Utente/Desktop/Tesi/Firmware_Software/DAVE project/S2GLP_Pulsed_Doppler/Libraries/XMCLib/inc\xmc_i2c.h ****  * @return uint32_t Status byte<br>
 649:C:/Users/Utente/Desktop/Tesi/Firmware_Software/DAVE project/S2GLP_Pulsed_Doppler/Libraries/XMCLib/inc\xmc_i2c.h ****  *
 650:C:/Users/Utente/Desktop/Tesi/Firmware_Software/DAVE project/S2GLP_Pulsed_Doppler/Libraries/XMCLib/inc\xmc_i2c.h ****  * \par<b>Description:</b><br>
 651:C:/Users/Utente/Desktop/Tesi/Firmware_Software/DAVE project/S2GLP_Pulsed_Doppler/Libraries/XMCLib/inc\xmc_i2c.h ****  * Retrieves the status byte of I2C \a channel using PSR_IICMode register.\n
 652:C:/Users/Utente/Desktop/Tesi/Firmware_Software/DAVE project/S2GLP_Pulsed_Doppler/Libraries/XMCLib/inc\xmc_i2c.h ****  *
 653:C:/Users/Utente/Desktop/Tesi/Firmware_Software/DAVE project/S2GLP_Pulsed_Doppler/Libraries/XMCLib/inc\xmc_i2c.h ****  * \par<b>Related APIs:</b><br>
 654:C:/Users/Utente/Desktop/Tesi/Firmware_Software/DAVE project/S2GLP_Pulsed_Doppler/Libraries/XMCLib/inc\xmc_i2c.h ****  * XMC_I2C_CH_ClearStatusFlag()\n\n
 655:C:/Users/Utente/Desktop/Tesi/Firmware_Software/DAVE project/S2GLP_Pulsed_Doppler/Libraries/XMCLib/inc\xmc_i2c.h ****  */
 656:C:/Users/Utente/Desktop/Tesi/Firmware_Software/DAVE project/S2GLP_Pulsed_Doppler/Libraries/XMCLib/inc\xmc_i2c.h **** __STATIC_INLINE uint32_t XMC_I2C_CH_GetStatusFlag(XMC_USIC_CH_t *const channel)
 657:C:/Users/Utente/Desktop/Tesi/Firmware_Software/DAVE project/S2GLP_Pulsed_Doppler/Libraries/XMCLib/inc\xmc_i2c.h **** {
 658:C:/Users/Utente/Desktop/Tesi/Firmware_Software/DAVE project/S2GLP_Pulsed_Doppler/Libraries/XMCLib/inc\xmc_i2c.h ****   return (channel->PSR_IICMode);
 117              	 .loc 2 658 0
 118 0002 986C     	 ldr r0,[r3,#72]
 119              	.LVL7:
 120              	.LBE163:
 121              	.LBE162:
 212:../BSP/dave_fixes/I2C_MASTER/i2c_master.c **** 
 213:../BSP/dave_fixes/I2C_MASTER/i2c_master.c ****   return (status & flagtype);
 214:../BSP/dave_fixes/I2C_MASTER/i2c_master.c **** }
 122              	 .loc 1 214 0
 123 0004 0840     	 ands r0,r0,r1
 124 0006 7047     	 bx lr
 125              	 .cfi_endproc
 126              	.LFE237:
 128              	 .section .text.I2C_MASTER_ClearFlag,"ax",%progbits
 129              	 .align 2
 130              	 .global I2C_MASTER_ClearFlag
 131              	 .thumb
 132              	 .thumb_func
 134              	I2C_MASTER_ClearFlag:
 135              	.LFB238:
 215:../BSP/dave_fixes/I2C_MASTER/i2c_master.c **** 
 216:../BSP/dave_fixes/I2C_MASTER/i2c_master.c **** /* Function to clear flag status of the requested parameter */
 217:../BSP/dave_fixes/I2C_MASTER/i2c_master.c **** void I2C_MASTER_ClearFlag(const I2C_MASTER_t *handle, uint32_t flagtype)
 218:../BSP/dave_fixes/I2C_MASTER/i2c_master.c **** {
 136              	 .loc 1 218 0
 137              	 .cfi_startproc
 138              	 
 139              	 
 140              	 
 141              	.LVL8:
 219:../BSP/dave_fixes/I2C_MASTER/i2c_master.c ****   XMC_I2C_CH_ClearStatusFlag(handle->channel,flagtype);
 142              	 .loc 1 219 0
 143 0000 0268     	 ldr r2,[r0]
 144              	.LVL9:
 145              	.LBB164:
 146              	.LBB165:
 659:C:/Users/Utente/Desktop/Tesi/Firmware_Software/DAVE project/S2GLP_Pulsed_Doppler/Libraries/XMCLib/inc\xmc_i2c.h **** }
 660:C:/Users/Utente/Desktop/Tesi/Firmware_Software/DAVE project/S2GLP_Pulsed_Doppler/Libraries/XMCLib/inc\xmc_i2c.h **** 
 661:C:/Users/Utente/Desktop/Tesi/Firmware_Software/DAVE project/S2GLP_Pulsed_Doppler/Libraries/XMCLib/inc\xmc_i2c.h **** /**
 662:C:/Users/Utente/Desktop/Tesi/Firmware_Software/DAVE project/S2GLP_Pulsed_Doppler/Libraries/XMCLib/inc\xmc_i2c.h ****  * @param channel Constant pointer to USIC channel structure of type @ref XMC_USIC_CH_t
 663:C:/Users/Utente/Desktop/Tesi/Firmware_Software/DAVE project/S2GLP_Pulsed_Doppler/Libraries/XMCLib/inc\xmc_i2c.h ****  * @param flag Status flag
 664:C:/Users/Utente/Desktop/Tesi/Firmware_Software/DAVE project/S2GLP_Pulsed_Doppler/Libraries/XMCLib/inc\xmc_i2c.h ****  * @return None<br>
 665:C:/Users/Utente/Desktop/Tesi/Firmware_Software/DAVE project/S2GLP_Pulsed_Doppler/Libraries/XMCLib/inc\xmc_i2c.h ****  *
 666:C:/Users/Utente/Desktop/Tesi/Firmware_Software/DAVE project/S2GLP_Pulsed_Doppler/Libraries/XMCLib/inc\xmc_i2c.h ****  * \par<b>Description:</b><br>
 667:C:/Users/Utente/Desktop/Tesi/Firmware_Software/DAVE project/S2GLP_Pulsed_Doppler/Libraries/XMCLib/inc\xmc_i2c.h ****  * Clears the status flag of I2C \a channel by setting the input parameter \a flag in PSCR register
 668:C:/Users/Utente/Desktop/Tesi/Firmware_Software/DAVE project/S2GLP_Pulsed_Doppler/Libraries/XMCLib/inc\xmc_i2c.h ****  *
 669:C:/Users/Utente/Desktop/Tesi/Firmware_Software/DAVE project/S2GLP_Pulsed_Doppler/Libraries/XMCLib/inc\xmc_i2c.h ****  * \par<b>Related APIs:</b><br>
 670:C:/Users/Utente/Desktop/Tesi/Firmware_Software/DAVE project/S2GLP_Pulsed_Doppler/Libraries/XMCLib/inc\xmc_i2c.h ****  * XMC_I2C_CH_GetStatusFlag()\n\n
 671:C:/Users/Utente/Desktop/Tesi/Firmware_Software/DAVE project/S2GLP_Pulsed_Doppler/Libraries/XMCLib/inc\xmc_i2c.h ****  */
 672:C:/Users/Utente/Desktop/Tesi/Firmware_Software/DAVE project/S2GLP_Pulsed_Doppler/Libraries/XMCLib/inc\xmc_i2c.h **** __STATIC_INLINE void XMC_I2C_CH_ClearStatusFlag(XMC_USIC_CH_t *const channel, uint32_t flag)
 673:C:/Users/Utente/Desktop/Tesi/Firmware_Software/DAVE project/S2GLP_Pulsed_Doppler/Libraries/XMCLib/inc\xmc_i2c.h **** {
 674:C:/Users/Utente/Desktop/Tesi/Firmware_Software/DAVE project/S2GLP_Pulsed_Doppler/Libraries/XMCLib/inc\xmc_i2c.h ****   channel->PSCR |= flag;
 147              	 .loc 2 674 0
 148 0002 D36C     	 ldr r3,[r2,#76]
 149 0004 1943     	 orrs r1,r1,r3
 150              	.LVL10:
 151 0006 D164     	 str r1,[r2,#76]
 152 0008 7047     	 bx lr
 153              	.LBE165:
 154              	.LBE164:
 155              	 .cfi_endproc
 156              	.LFE238:
 158 000a 00BF     	 .section .text.I2C_MASTER_Transmit,"ax",%progbits
 159              	 .align 2
 160              	 .global I2C_MASTER_Transmit
 161              	 .thumb
 162              	 .thumb_func
 164              	I2C_MASTER_Transmit:
 165              	.LFB239:
 220:../BSP/dave_fixes/I2C_MASTER/i2c_master.c **** }
 221:../BSP/dave_fixes/I2C_MASTER/i2c_master.c **** 
 222:../BSP/dave_fixes/I2C_MASTER/i2c_master.c **** /* Function to transmit the data to slave device */
 223:../BSP/dave_fixes/I2C_MASTER/i2c_master.c **** I2C_MASTER_STATUS_t I2C_MASTER_Transmit(I2C_MASTER_t *handle, bool send_start, const uint32_t addre
 224:../BSP/dave_fixes/I2C_MASTER/i2c_master.c ****                                         uint8_t *data, const uint32_t size, bool send_stop)
 225:../BSP/dave_fixes/I2C_MASTER/i2c_master.c **** {
 166              	 .loc 1 225 0
 167              	 .cfi_startproc
 168              	 
 169              	 
 170              	.LVL11:
 171 0000 2DE9F047 	 push {r4,r5,r6,r7,r8,r9,r10,lr}
 172              	.LCFI4:
 173              	 .cfi_def_cfa_offset 32
 174              	 .cfi_offset 4,-32
 175              	 .cfi_offset 5,-28
 176              	 .cfi_offset 6,-24
 177              	 .cfi_offset 7,-20
 178              	 .cfi_offset 8,-16
 179              	 .cfi_offset 9,-12
 180              	 .cfi_offset 10,-8
 181              	 .cfi_offset 14,-4
 182              	 .loc 1 225 0
 183 0004 0546     	 mov r5,r0
 226:../BSP/dave_fixes/I2C_MASTER/i2c_master.c ****   I2C_MASTER_STATUS_t status;
 227:../BSP/dave_fixes/I2C_MASTER/i2c_master.c **** 
 228:../BSP/dave_fixes/I2C_MASTER/i2c_master.c ****   status = I2C_MASTER_STATUS_BUSY;
 229:../BSP/dave_fixes/I2C_MASTER/i2c_master.c **** 
 230:../BSP/dave_fixes/I2C_MASTER/i2c_master.c ****   if (handle->config->transmit_mode == I2C_MASTER_TRANSFER_MODE_INTERRUPT)
 184              	 .loc 1 230 0
 185 0006 4068     	 ldr r0,[r0,#4]
 186              	.LVL12:
 225:../BSP/dave_fixes/I2C_MASTER/i2c_master.c ****   I2C_MASTER_STATUS_t status;
 187              	 .loc 1 225 0
 188 0008 089F     	 ldr r7,[sp,#32]
 189              	 .loc 1 230 0
 190 000a 90F82440 	 ldrb r4,[r0,#36]
 225:../BSP/dave_fixes/I2C_MASTER/i2c_master.c ****   I2C_MASTER_STATUS_t status;
 191              	 .loc 1 225 0
 192 000e 9DF82480 	 ldrb r8,[sp,#36]
 193              	.LVL13:
 194              	 .loc 1 230 0
 195 0012 012C     	 cmp r4,#1
 196 0014 02D8     	 bhi .L105
 228:../BSP/dave_fixes/I2C_MASTER/i2c_master.c **** 
 197              	 .loc 1 228 0
 198 0016 0220     	 movs r0,#2
 199 0018 BDE8F087 	 pop {r4,r5,r6,r7,r8,r9,r10,pc}
 200              	.LVL14:
 201              	.L105:
 202 001c 9946     	 mov r9,r3
 203              	.LBB241:
 204              	.LBB242:
 231:../BSP/dave_fixes/I2C_MASTER/i2c_master.c ****   {
 232:../BSP/dave_fixes/I2C_MASTER/i2c_master.c **** #if (I2C_MASTER_INTERRUPT_TX_ENABLED == 1)
 233:../BSP/dave_fixes/I2C_MASTER/i2c_master.c ****     status = I2C_MASTER_StartTransmitIRQ(handle, send_start, address, data, size, send_stop);
 234:../BSP/dave_fixes/I2C_MASTER/i2c_master.c **** #endif
 235:../BSP/dave_fixes/I2C_MASTER/i2c_master.c ****   }
 236:../BSP/dave_fixes/I2C_MASTER/i2c_master.c ****   else if (handle->config->transmit_mode == I2C_MASTER_TRANSFER_MODE_DMA)
 237:../BSP/dave_fixes/I2C_MASTER/i2c_master.c ****   {
 238:../BSP/dave_fixes/I2C_MASTER/i2c_master.c **** #if (I2C_MASTER_DMA_TX_ENABLED == 1)
 239:../BSP/dave_fixes/I2C_MASTER/i2c_master.c ****     status = I2C_MASTER_STATUS_UNSUPPORTED_MODE;
 240:../BSP/dave_fixes/I2C_MASTER/i2c_master.c **** #endif
 241:../BSP/dave_fixes/I2C_MASTER/i2c_master.c ****   }
 242:../BSP/dave_fixes/I2C_MASTER/i2c_master.c ****   else
 243:../BSP/dave_fixes/I2C_MASTER/i2c_master.c ****   {
 244:../BSP/dave_fixes/I2C_MASTER/i2c_master.c **** #if (I2C_MASTER_DIRECT_TX_ENABLED == 1)
 245:../BSP/dave_fixes/I2C_MASTER/i2c_master.c ****     status = I2C_MASTER_lStartTransmitPolling(handle, send_start, address, data, size, send_stop);
 246:../BSP/dave_fixes/I2C_MASTER/i2c_master.c **** #endif
 247:../BSP/dave_fixes/I2C_MASTER/i2c_master.c ****   }
 248:../BSP/dave_fixes/I2C_MASTER/i2c_master.c **** 
 249:../BSP/dave_fixes/I2C_MASTER/i2c_master.c ****   return (status);
 250:../BSP/dave_fixes/I2C_MASTER/i2c_master.c **** } /* end of function */
 251:../BSP/dave_fixes/I2C_MASTER/i2c_master.c **** 
 252:../BSP/dave_fixes/I2C_MASTER/i2c_master.c **** #if ((I2C_MASTER_INTERRUPT_TX_ENABLED == 1) || (I2C_MASTER_INTERRUPT_RX_ENABLED == 1))
 253:../BSP/dave_fixes/I2C_MASTER/i2c_master.c **** /*
 254:../BSP/dave_fixes/I2C_MASTER/i2c_master.c ****  * Transmit interrupt handler for the APP.
 255:../BSP/dave_fixes/I2C_MASTER/i2c_master.c ****  * This is a common interrupt handling function called for different instances of the APP.
 256:../BSP/dave_fixes/I2C_MASTER/i2c_master.c ****  *
 257:../BSP/dave_fixes/I2C_MASTER/i2c_master.c ****  *  @param  handle I2C_MASTER APP handle pointer of type I2C_MASTER_t*
 258:../BSP/dave_fixes/I2C_MASTER/i2c_master.c ****  *
 259:../BSP/dave_fixes/I2C_MASTER/i2c_master.c ****  *  @return void
 260:../BSP/dave_fixes/I2C_MASTER/i2c_master.c ****  */
 261:../BSP/dave_fixes/I2C_MASTER/i2c_master.c **** void I2C_MASTER_TransmitHandler(I2C_MASTER_t * const handle)
 262:../BSP/dave_fixes/I2C_MASTER/i2c_master.c **** {
 263:../BSP/dave_fixes/I2C_MASTER/i2c_master.c ****   I2C_MASTER_RUNTIME_t * ptr_runtime;
 264:../BSP/dave_fixes/I2C_MASTER/i2c_master.c ****   uint8_t fifo_min;
 265:../BSP/dave_fixes/I2C_MASTER/i2c_master.c **** 
 266:../BSP/dave_fixes/I2C_MASTER/i2c_master.c ****   ptr_runtime = handle->runtime;
 267:../BSP/dave_fixes/I2C_MASTER/i2c_master.c ****   fifo_min = 0U;
 268:../BSP/dave_fixes/I2C_MASTER/i2c_master.c **** 
 269:../BSP/dave_fixes/I2C_MASTER/i2c_master.c ****   /* check if any error flag is set */
 270:../BSP/dave_fixes/I2C_MASTER/i2c_master.c ****   if (I2C_MASTER_GetFlagStatus(handle, ((uint32_t)XMC_I2C_CH_STATUS_FLAG_NACK_RECEIVED |
 271:../BSP/dave_fixes/I2C_MASTER/i2c_master.c ****                                         (uint32_t)XMC_I2C_CH_STATUS_FLAG_ARBITRATION_LOST |
 272:../BSP/dave_fixes/I2C_MASTER/i2c_master.c ****                                         (uint32_t)XMC_I2C_CH_STATUS_FLAG_ERROR |
 273:../BSP/dave_fixes/I2C_MASTER/i2c_master.c ****                     (uint32_t)XMC_I2C_CH_STATUS_FLAG_WRONG_TDF_CODE_FOUND)))
 274:../BSP/dave_fixes/I2C_MASTER/i2c_master.c ****   {
 275:../BSP/dave_fixes/I2C_MASTER/i2c_master.c ****     /* Disable the transmit events */
 276:../BSP/dave_fixes/I2C_MASTER/i2c_master.c ****     XMC_USIC_CH_TXFIFO_DisableEvent(handle->channel,(uint32_t)XMC_USIC_CH_TXFIFO_EVENT_CONF_STANDAR
 277:../BSP/dave_fixes/I2C_MASTER/i2c_master.c ****     XMC_USIC_CH_DisableEvent(handle->channel, (uint32_t)XMC_USIC_CH_EVENT_TRANSMIT_BUFFER);
 278:../BSP/dave_fixes/I2C_MASTER/i2c_master.c **** 
 279:../BSP/dave_fixes/I2C_MASTER/i2c_master.c ****     I2C_MASTER_ProtocolHandler(handle);
 280:../BSP/dave_fixes/I2C_MASTER/i2c_master.c ****   }
 281:../BSP/dave_fixes/I2C_MASTER/i2c_master.c ****   else
 282:../BSP/dave_fixes/I2C_MASTER/i2c_master.c ****   {
 283:../BSP/dave_fixes/I2C_MASTER/i2c_master.c **** /**************************************************************************************************
 284:../BSP/dave_fixes/I2C_MASTER/i2c_master.c ****   Direction = Transmit, Tx FIFO enabled
 285:../BSP/dave_fixes/I2C_MASTER/i2c_master.c **** ***************************************************************************************************
 286:../BSP/dave_fixes/I2C_MASTER/i2c_master.c ****   if (ptr_runtime->direction == (uint32_t)I2C_MASTER_DIRECTION_TRANSMIT)
 287:../BSP/dave_fixes/I2C_MASTER/i2c_master.c ****   {
 288:../BSP/dave_fixes/I2C_MASTER/i2c_master.c ****     if (handle->config->txFIFO_size > 0)
 289:../BSP/dave_fixes/I2C_MASTER/i2c_master.c ****     {
 290:../BSP/dave_fixes/I2C_MASTER/i2c_master.c ****       if (ptr_runtime->tx_data_index < ptr_runtime->tx_data_count)
 291:../BSP/dave_fixes/I2C_MASTER/i2c_master.c ****       {
 292:../BSP/dave_fixes/I2C_MASTER/i2c_master.c ****       I2C_MASTER_DisableEvent(handle,(uint32_t)XMC_I2C_CH_EVENT_ACK);
 293:../BSP/dave_fixes/I2C_MASTER/i2c_master.c ****       XMC_USIC_CH_TXFIFO_EnableEvent(handle->channel, (uint32_t)XMC_USIC_CH_TXFIFO_EVENT_CONF_STAND
 294:../BSP/dave_fixes/I2C_MASTER/i2c_master.c ****         /*Fill the transmit FIFO */
 295:../BSP/dave_fixes/I2C_MASTER/i2c_master.c ****         while (I2C_MASTER_IsTXFIFOFull(handle) == false)
 296:../BSP/dave_fixes/I2C_MASTER/i2c_master.c ****         {
 297:../BSP/dave_fixes/I2C_MASTER/i2c_master.c ****           /* transmit each byte till index reaches to the last byte */
 298:../BSP/dave_fixes/I2C_MASTER/i2c_master.c ****           if (ptr_runtime->tx_data_index < ptr_runtime->tx_data_count)
 299:../BSP/dave_fixes/I2C_MASTER/i2c_master.c ****           {
 300:../BSP/dave_fixes/I2C_MASTER/i2c_master.c ****             /* load the FIFO, byte by byte till either FIFO is full or all data is loaded*/
 301:../BSP/dave_fixes/I2C_MASTER/i2c_master.c ****             I2C_MASTER_TransmitByte(handle, (uint8_t)ptr_runtime->tx_data[ptr_runtime->tx_data_inde
 302:../BSP/dave_fixes/I2C_MASTER/i2c_master.c ****             ptr_runtime->tx_data_index++;
 303:../BSP/dave_fixes/I2C_MASTER/i2c_master.c ****           }
 304:../BSP/dave_fixes/I2C_MASTER/i2c_master.c ****           else
 305:../BSP/dave_fixes/I2C_MASTER/i2c_master.c ****           {
 306:../BSP/dave_fixes/I2C_MASTER/i2c_master.c ****             break;
 307:../BSP/dave_fixes/I2C_MASTER/i2c_master.c ****           }
 308:../BSP/dave_fixes/I2C_MASTER/i2c_master.c ****         } /* end of while */
 309:../BSP/dave_fixes/I2C_MASTER/i2c_master.c ****       }
 310:../BSP/dave_fixes/I2C_MASTER/i2c_master.c ****       else
 311:../BSP/dave_fixes/I2C_MASTER/i2c_master.c ****       {
 312:../BSP/dave_fixes/I2C_MASTER/i2c_master.c ****         /* if index is reached to last byte and "bus acquired" flag is set to true, then issue Send
 313:../BSP/dave_fixes/I2C_MASTER/i2c_master.c ****       XMC_USIC_CH_TXFIFO_DisableEvent(handle->channel, (uint32_t)XMC_USIC_CH_TXFIFO_EVENT_CONF_STAN
 314:../BSP/dave_fixes/I2C_MASTER/i2c_master.c ****       NVIC_ClearPendingIRQ(handle->config->tx_irqn);
 315:../BSP/dave_fixes/I2C_MASTER/i2c_master.c **** 
 316:../BSP/dave_fixes/I2C_MASTER/i2c_master.c ****       /*make sure data is transmitted in FIFO*/
 317:../BSP/dave_fixes/I2C_MASTER/i2c_master.c ****         while (!XMC_USIC_CH_TXFIFO_IsEmpty(handle->channel)){}
 318:../BSP/dave_fixes/I2C_MASTER/i2c_master.c **** 
 319:../BSP/dave_fixes/I2C_MASTER/i2c_master.c ****           if (ptr_runtime->bus_acquired == true)
 320:../BSP/dave_fixes/I2C_MASTER/i2c_master.c ****           {
 321:../BSP/dave_fixes/I2C_MASTER/i2c_master.c ****             I2C_MASTER_lSendStop_JumpTo_TxCallback(handle);
 322:../BSP/dave_fixes/I2C_MASTER/i2c_master.c ****           }
 323:../BSP/dave_fixes/I2C_MASTER/i2c_master.c ****       }
 324:../BSP/dave_fixes/I2C_MASTER/i2c_master.c ****     } /* end of  if (handle->config->txFIFO_size > 0) */
 325:../BSP/dave_fixes/I2C_MASTER/i2c_master.c **** /**************************************************************************************************
 326:../BSP/dave_fixes/I2C_MASTER/i2c_master.c ****     Direction = transmit and Tx FIFO disabled
 327:../BSP/dave_fixes/I2C_MASTER/i2c_master.c **** ***************************************************************************************************
 328:../BSP/dave_fixes/I2C_MASTER/i2c_master.c ****     else
 329:../BSP/dave_fixes/I2C_MASTER/i2c_master.c ****     {
 330:../BSP/dave_fixes/I2C_MASTER/i2c_master.c ****       /* transmit each byte till the last byte */
 331:../BSP/dave_fixes/I2C_MASTER/i2c_master.c ****       if (ptr_runtime->tx_data_index < ptr_runtime->tx_data_count)
 332:../BSP/dave_fixes/I2C_MASTER/i2c_master.c ****       {
 333:../BSP/dave_fixes/I2C_MASTER/i2c_master.c ****         I2C_MASTER_TransmitByte(handle, ptr_runtime->tx_data[ptr_runtime->tx_data_index]);
 334:../BSP/dave_fixes/I2C_MASTER/i2c_master.c ****         ptr_runtime->tx_data_index++;
 335:../BSP/dave_fixes/I2C_MASTER/i2c_master.c ****       }
 336:../BSP/dave_fixes/I2C_MASTER/i2c_master.c ****       else
 337:../BSP/dave_fixes/I2C_MASTER/i2c_master.c ****       {
 338:../BSP/dave_fixes/I2C_MASTER/i2c_master.c ****         /* if index reaches last byte and bus_acquired flag is set to true, issue send stop */
 339:../BSP/dave_fixes/I2C_MASTER/i2c_master.c ****         if (ptr_runtime->bus_acquired == true)
 340:../BSP/dave_fixes/I2C_MASTER/i2c_master.c ****         {
 341:../BSP/dave_fixes/I2C_MASTER/i2c_master.c ****           I2C_MASTER_lSendStop_JumpTo_TxCallback(handle);
 342:../BSP/dave_fixes/I2C_MASTER/i2c_master.c ****         }
 343:../BSP/dave_fixes/I2C_MASTER/i2c_master.c ****       }
 344:../BSP/dave_fixes/I2C_MASTER/i2c_master.c ****     }
 345:../BSP/dave_fixes/I2C_MASTER/i2c_master.c ****   } /* end of if (ptr_runtime->direction == (uint32_t)I2C_MASTER_DIRECTION_TRANSMIT) */
 346:../BSP/dave_fixes/I2C_MASTER/i2c_master.c ****   else
 347:../BSP/dave_fixes/I2C_MASTER/i2c_master.c ****   {
 348:../BSP/dave_fixes/I2C_MASTER/i2c_master.c **** /**************************************************************************************************
 349:../BSP/dave_fixes/I2C_MASTER/i2c_master.c ****   Direction = Receive, Tx, Rx FIFO enabled.
 350:../BSP/dave_fixes/I2C_MASTER/i2c_master.c ****   Minimum FIFO value is calculated by comparing Tx FIFO and Rx FIFO size.
 351:../BSP/dave_fixes/I2C_MASTER/i2c_master.c ****   If Rx FIFO is not enabled, default size of 2 is considered.
 352:../BSP/dave_fixes/I2C_MASTER/i2c_master.c **** ***************************************************************************************************
 353:../BSP/dave_fixes/I2C_MASTER/i2c_master.c ****     if (handle->config->txFIFO_size > 0)
 354:../BSP/dave_fixes/I2C_MASTER/i2c_master.c ****     {
 355:../BSP/dave_fixes/I2C_MASTER/i2c_master.c ****       if ((handle->config->rxFIFO_size > 0))
 356:../BSP/dave_fixes/I2C_MASTER/i2c_master.c ****       {
 357:../BSP/dave_fixes/I2C_MASTER/i2c_master.c ****         fifo_min = (uint8_t)calculate_minfifosize(((uint32_t)1 << (uint32_t)handle->config->txFIFO_
 358:../BSP/dave_fixes/I2C_MASTER/i2c_master.c ****                                               ((uint32_t)1 << (uint32_t)handle->config->rxFIFO_size
 359:../BSP/dave_fixes/I2C_MASTER/i2c_master.c ****       }
 360:../BSP/dave_fixes/I2C_MASTER/i2c_master.c ****       else
 361:../BSP/dave_fixes/I2C_MASTER/i2c_master.c ****       {
 362:../BSP/dave_fixes/I2C_MASTER/i2c_master.c ****         /* if Rx FIFO is disabled, set minimum FIFO size as 2 */
 363:../BSP/dave_fixes/I2C_MASTER/i2c_master.c ****         fifo_min = 2U;
 364:../BSP/dave_fixes/I2C_MASTER/i2c_master.c ****       }
 365:../BSP/dave_fixes/I2C_MASTER/i2c_master.c **** 
 366:../BSP/dave_fixes/I2C_MASTER/i2c_master.c ****       XMC_USIC_CH_TXFIFO_DisableEvent(handle->channel, (uint32_t)XMC_USIC_CH_TXFIFO_EVENT_CONF_STAN
 367:../BSP/dave_fixes/I2C_MASTER/i2c_master.c **** 
 368:../BSP/dave_fixes/I2C_MASTER/i2c_master.c ****       /* fill the FIFO */
 369:../BSP/dave_fixes/I2C_MASTER/i2c_master.c ****       while (I2C_MASTER_IsTXFIFOFull(handle) == false)
 370:../BSP/dave_fixes/I2C_MASTER/i2c_master.c ****       {
 371:../BSP/dave_fixes/I2C_MASTER/i2c_master.c ****         if (ptr_runtime->tx_data_index < ptr_runtime->tx_data_count)
 372:../BSP/dave_fixes/I2C_MASTER/i2c_master.c ****         {
 373:../BSP/dave_fixes/I2C_MASTER/i2c_master.c ****           /* check for last byte and send_nack is set to true */
 374:../BSP/dave_fixes/I2C_MASTER/i2c_master.c ****           if (((ptr_runtime->tx_data_index + 1U) == ptr_runtime->tx_data_count) && (ptr_runtime->se
 375:../BSP/dave_fixes/I2C_MASTER/i2c_master.c ****           {
 376:../BSP/dave_fixes/I2C_MASTER/i2c_master.c ****             I2C_MASTER_ReceiveNACK(handle);
 377:../BSP/dave_fixes/I2C_MASTER/i2c_master.c ****           }
 378:../BSP/dave_fixes/I2C_MASTER/i2c_master.c ****           else
 379:../BSP/dave_fixes/I2C_MASTER/i2c_master.c ****           {
 380:../BSP/dave_fixes/I2C_MASTER/i2c_master.c ****             I2C_MASTER_ReceiveACK(handle);
 381:../BSP/dave_fixes/I2C_MASTER/i2c_master.c ****           }
 382:../BSP/dave_fixes/I2C_MASTER/i2c_master.c ****           ptr_runtime->tx_data_index++;
 383:../BSP/dave_fixes/I2C_MASTER/i2c_master.c **** 
 384:../BSP/dave_fixes/I2C_MASTER/i2c_master.c ****           /*if index reaches fifo size - break*/
 385:../BSP/dave_fixes/I2C_MASTER/i2c_master.c ****           if ((ptr_runtime->tx_data_index) >= fifo_min)
 386:../BSP/dave_fixes/I2C_MASTER/i2c_master.c ****           {
 387:../BSP/dave_fixes/I2C_MASTER/i2c_master.c ****             break;
 388:../BSP/dave_fixes/I2C_MASTER/i2c_master.c ****           }
 389:../BSP/dave_fixes/I2C_MASTER/i2c_master.c ****         }
 390:../BSP/dave_fixes/I2C_MASTER/i2c_master.c ****         else
 391:../BSP/dave_fixes/I2C_MASTER/i2c_master.c ****         {
 392:../BSP/dave_fixes/I2C_MASTER/i2c_master.c ****           break;
 393:../BSP/dave_fixes/I2C_MASTER/i2c_master.c ****         }
 394:../BSP/dave_fixes/I2C_MASTER/i2c_master.c ****       } /* end of while */
 395:../BSP/dave_fixes/I2C_MASTER/i2c_master.c ****     } /* end of if (handle->config->txFIFO_size > 0) */
 396:../BSP/dave_fixes/I2C_MASTER/i2c_master.c **** /**************************************************************************************************
 397:../BSP/dave_fixes/I2C_MASTER/i2c_master.c ****    Direction = Receive, Tx FIFO disabled
 398:../BSP/dave_fixes/I2C_MASTER/i2c_master.c ****  **************************************************************************************************
 399:../BSP/dave_fixes/I2C_MASTER/i2c_master.c ****     else
 400:../BSP/dave_fixes/I2C_MASTER/i2c_master.c ****     {
 401:../BSP/dave_fixes/I2C_MASTER/i2c_master.c ****       /* check for last byte and send_nack is set to true */
 402:../BSP/dave_fixes/I2C_MASTER/i2c_master.c ****       if (((ptr_runtime->tx_data_index + 1U) == ptr_runtime->tx_data_count) && (ptr_runtime->send_n
 403:../BSP/dave_fixes/I2C_MASTER/i2c_master.c ****       {
 404:../BSP/dave_fixes/I2C_MASTER/i2c_master.c ****         I2C_MASTER_ReceiveNACK(handle);
 405:../BSP/dave_fixes/I2C_MASTER/i2c_master.c ****       }
 406:../BSP/dave_fixes/I2C_MASTER/i2c_master.c ****       else
 407:../BSP/dave_fixes/I2C_MASTER/i2c_master.c ****       {
 408:../BSP/dave_fixes/I2C_MASTER/i2c_master.c ****         I2C_MASTER_ReceiveACK(handle);
 409:../BSP/dave_fixes/I2C_MASTER/i2c_master.c ****       }
 410:../BSP/dave_fixes/I2C_MASTER/i2c_master.c ****       ptr_runtime->tx_data_index++;
 411:../BSP/dave_fixes/I2C_MASTER/i2c_master.c ****     }
 412:../BSP/dave_fixes/I2C_MASTER/i2c_master.c **** 
 413:../BSP/dave_fixes/I2C_MASTER/i2c_master.c **** /**************************************************************************************************
 414:../BSP/dave_fixes/I2C_MASTER/i2c_master.c ****    If last byte, then disable ACK event
 415:../BSP/dave_fixes/I2C_MASTER/i2c_master.c ****  **************************************************************************************************
 416:../BSP/dave_fixes/I2C_MASTER/i2c_master.c ****      if (handle->runtime->tx_data_index == handle->runtime->tx_data_count)
 417:../BSP/dave_fixes/I2C_MASTER/i2c_master.c ****      {
 418:../BSP/dave_fixes/I2C_MASTER/i2c_master.c ****        I2C_MASTER_DisableEvent(handle,(uint32_t)XMC_I2C_CH_EVENT_ACK);
 419:../BSP/dave_fixes/I2C_MASTER/i2c_master.c ****      }
 420:../BSP/dave_fixes/I2C_MASTER/i2c_master.c ****   } /* end of else */
 421:../BSP/dave_fixes/I2C_MASTER/i2c_master.c ****  } /* end of else */
 422:../BSP/dave_fixes/I2C_MASTER/i2c_master.c **** }
 423:../BSP/dave_fixes/I2C_MASTER/i2c_master.c **** 
 424:../BSP/dave_fixes/I2C_MASTER/i2c_master.c **** /* Function to issue Send Stop command and jump to callback routine */
 425:../BSP/dave_fixes/I2C_MASTER/i2c_master.c **** static void I2C_MASTER_lSendStop_JumpTo_TxCallback(I2C_MASTER_t *const handle)
 426:../BSP/dave_fixes/I2C_MASTER/i2c_master.c **** {
 427:../BSP/dave_fixes/I2C_MASTER/i2c_master.c ****   I2C_MASTER_RUNTIME_t * ptr_runtime;
 428:../BSP/dave_fixes/I2C_MASTER/i2c_master.c **** 
 429:../BSP/dave_fixes/I2C_MASTER/i2c_master.c ****   ptr_runtime = handle->runtime;
 430:../BSP/dave_fixes/I2C_MASTER/i2c_master.c **** 
 431:../BSP/dave_fixes/I2C_MASTER/i2c_master.c ****   I2C_MASTER_DisableEvent(handle,((uint32_t)XMC_I2C_CH_EVENT_ACK ));
 432:../BSP/dave_fixes/I2C_MASTER/i2c_master.c **** 
 433:../BSP/dave_fixes/I2C_MASTER/i2c_master.c ****   if (ptr_runtime->send_stop == true)
 434:../BSP/dave_fixes/I2C_MASTER/i2c_master.c ****   {
 435:../BSP/dave_fixes/I2C_MASTER/i2c_master.c ****     ptr_runtime->bus_acquired = false;
 436:../BSP/dave_fixes/I2C_MASTER/i2c_master.c ****     I2C_MASTER_SendStop(handle);
 437:../BSP/dave_fixes/I2C_MASTER/i2c_master.c ****   }
 438:../BSP/dave_fixes/I2C_MASTER/i2c_master.c **** 
 439:../BSP/dave_fixes/I2C_MASTER/i2c_master.c ****   while (XMC_USIC_CH_GetTransmitBufferStatus(handle->channel) == XMC_USIC_CH_TBUF_STATUS_BUSY){}
 440:../BSP/dave_fixes/I2C_MASTER/i2c_master.c **** 
 441:../BSP/dave_fixes/I2C_MASTER/i2c_master.c ****   /*All data is transmitted*/
 442:../BSP/dave_fixes/I2C_MASTER/i2c_master.c ****   ptr_runtime->tx_busy = false;
 443:../BSP/dave_fixes/I2C_MASTER/i2c_master.c **** 
 444:../BSP/dave_fixes/I2C_MASTER/i2c_master.c ****   if (handle->config->tx_cbhandler != NULL)
 445:../BSP/dave_fixes/I2C_MASTER/i2c_master.c ****   {
 446:../BSP/dave_fixes/I2C_MASTER/i2c_master.c ****     /*Execute the 'End of transmission' callback function*/
 447:../BSP/dave_fixes/I2C_MASTER/i2c_master.c ****     handle->config->tx_cbhandler();
 448:../BSP/dave_fixes/I2C_MASTER/i2c_master.c ****   }
 449:../BSP/dave_fixes/I2C_MASTER/i2c_master.c **** }
 450:../BSP/dave_fixes/I2C_MASTER/i2c_master.c **** #endif
 451:../BSP/dave_fixes/I2C_MASTER/i2c_master.c **** 
 452:../BSP/dave_fixes/I2C_MASTER/i2c_master.c **** /**************************************************************************************************
 453:../BSP/dave_fixes/I2C_MASTER/i2c_master.c ****  * @brief This function registers the receive request by configuring the I2C_MASTER
 454:../BSP/dave_fixes/I2C_MASTER/i2c_master.c ****  * receive FIFO/Standard buffer (depending on the user configuration). The data
 455:../BSP/dave_fixes/I2C_MASTER/i2c_master.c ****  * is received asynchronously. When the requested number of data bytes are received,
 456:../BSP/dave_fixes/I2C_MASTER/i2c_master.c ****  * optionally, the user configured callback function will be executed. If a callback
 457:../BSP/dave_fixes/I2C_MASTER/i2c_master.c ****  * function is not configured on the APP UI, the user has to poll for the status of
 458:../BSP/dave_fixes/I2C_MASTER/i2c_master.c ****  * rx_busy variable of the APP handle structure.
 459:../BSP/dave_fixes/I2C_MASTER/i2c_master.c ****  *
 460:../BSP/dave_fixes/I2C_MASTER/i2c_master.c ****  * Note: In FIFO mode, FIFO trigger limit should be adjusted manually to
 461:../BSP/dave_fixes/I2C_MASTER/i2c_master.c ****  * read required amount of data from FIFO buffer.
 462:../BSP/dave_fixes/I2C_MASTER/i2c_master.c ****  *
 463:../BSP/dave_fixes/I2C_MASTER/i2c_master.c ****  *
 464:../BSP/dave_fixes/I2C_MASTER/i2c_master.c ****  * @param  I2C_MASTER_t* I2C_MASTER APP handle pointer of type I2C_MASTER_t
 465:../BSP/dave_fixes/I2C_MASTER/i2c_master.c ****  * @param  bool      flag for send_start
 466:../BSP/dave_fixes/I2C_MASTER/i2c_master.c ****  * @param  uint32_t  slave address
 467:../BSP/dave_fixes/I2C_MASTER/i2c_master.c ****  * @param  uint8_t*  Pointer to data array
 468:../BSP/dave_fixes/I2C_MASTER/i2c_master.c ****  * @param  uint32_t  Total no of bytes to be read.
 469:../BSP/dave_fixes/I2C_MASTER/i2c_master.c ****  * @param  bool      flag for send_stop
 470:../BSP/dave_fixes/I2C_MASTER/i2c_master.c ****  * @param  bool      flag for send_nack
 471:../BSP/dave_fixes/I2C_MASTER/i2c_master.c ****  *
 472:../BSP/dave_fixes/I2C_MASTER/i2c_master.c ****  * @return  I2C_MASTER_STATUS_t I2C_MASTER_STATUS_SUCCESS if the request is accepted.
 473:../BSP/dave_fixes/I2C_MASTER/i2c_master.c ****  *                              I2C_MASTER_STATUS_BUSY if a reception is in progress.
 474:../BSP/dave_fixes/I2C_MASTER/i2c_master.c ****  *
 475:../BSP/dave_fixes/I2C_MASTER/i2c_master.c ****  * <i>Imp Note:</i> Return value should be validated by user to ensure that the
 476:../BSP/dave_fixes/I2C_MASTER/i2c_master.c ****  * request is registered.
 477:../BSP/dave_fixes/I2C_MASTER/i2c_master.c ****  *
 478:../BSP/dave_fixes/I2C_MASTER/i2c_master.c ****  *
 479:../BSP/dave_fixes/I2C_MASTER/i2c_master.c ****  **************************************************************************************************
 480:../BSP/dave_fixes/I2C_MASTER/i2c_master.c **** I2C_MASTER_STATUS_t I2C_MASTER_Receive(I2C_MASTER_t *handle, bool send_start, const uint32_t addres
 481:../BSP/dave_fixes/I2C_MASTER/i2c_master.c ****                                    const uint32_t count, bool send_stop, bool send_nack)
 482:../BSP/dave_fixes/I2C_MASTER/i2c_master.c **** {
 483:../BSP/dave_fixes/I2C_MASTER/i2c_master.c ****   I2C_MASTER_STATUS_t status;
 484:../BSP/dave_fixes/I2C_MASTER/i2c_master.c **** 
 485:../BSP/dave_fixes/I2C_MASTER/i2c_master.c ****   status = I2C_MASTER_STATUS_BUSY;
 486:../BSP/dave_fixes/I2C_MASTER/i2c_master.c **** 
 487:../BSP/dave_fixes/I2C_MASTER/i2c_master.c ****   if (handle->config->receive_mode == I2C_MASTER_TRANSFER_MODE_INTERRUPT)
 488:../BSP/dave_fixes/I2C_MASTER/i2c_master.c ****   {
 489:../BSP/dave_fixes/I2C_MASTER/i2c_master.c **** #if (I2C_MASTER_INTERRUPT_RX_ENABLED == 1)
 490:../BSP/dave_fixes/I2C_MASTER/i2c_master.c ****   status = I2C_MASTER_StartReceiveIRQ(handle, send_start, address, data, count, send_stop, send_nac
 491:../BSP/dave_fixes/I2C_MASTER/i2c_master.c **** #endif
 492:../BSP/dave_fixes/I2C_MASTER/i2c_master.c ****   }
 493:../BSP/dave_fixes/I2C_MASTER/i2c_master.c ****   else if (handle->config->receive_mode == I2C_MASTER_TRANSFER_MODE_DMA)
 494:../BSP/dave_fixes/I2C_MASTER/i2c_master.c ****   {
 495:../BSP/dave_fixes/I2C_MASTER/i2c_master.c **** #if (I2C_MASTER_DMA_RX_ENABLED == 1)
 496:../BSP/dave_fixes/I2C_MASTER/i2c_master.c ****   status = I2C_MASTER_STATUS_UNSUPPORTED_MODE;
 497:../BSP/dave_fixes/I2C_MASTER/i2c_master.c **** #endif
 498:../BSP/dave_fixes/I2C_MASTER/i2c_master.c ****   }
 499:../BSP/dave_fixes/I2C_MASTER/i2c_master.c ****   else
 500:../BSP/dave_fixes/I2C_MASTER/i2c_master.c ****   {
 501:../BSP/dave_fixes/I2C_MASTER/i2c_master.c **** #if (I2C_MASTER_DIRECT_RX_ENABLED == 1)
 502:../BSP/dave_fixes/I2C_MASTER/i2c_master.c ****     status = I2C_MASTER_lStartReceivePolling(handle, send_start, address, data, count, send_stop, s
 503:../BSP/dave_fixes/I2C_MASTER/i2c_master.c **** #endif
 504:../BSP/dave_fixes/I2C_MASTER/i2c_master.c ****   }
 505:../BSP/dave_fixes/I2C_MASTER/i2c_master.c **** 
 506:../BSP/dave_fixes/I2C_MASTER/i2c_master.c ****   return (status);
 507:../BSP/dave_fixes/I2C_MASTER/i2c_master.c **** }
 508:../BSP/dave_fixes/I2C_MASTER/i2c_master.c **** 
 509:../BSP/dave_fixes/I2C_MASTER/i2c_master.c **** #if (I2C_MASTER_INTERRUPT_RX_ENABLED == 1)
 510:../BSP/dave_fixes/I2C_MASTER/i2c_master.c **** /**************************************************************************************************
 511:../BSP/dave_fixes/I2C_MASTER/i2c_master.c ****      Rx FIFO data
 512:../BSP/dave_fixes/I2C_MASTER/i2c_master.c **** ***************************************************************************************************
 513:../BSP/dave_fixes/I2C_MASTER/i2c_master.c **** static void I2C_MASTER_lReceive_FIFOData(I2C_MASTER_t * const handle, bool send_start, const uint32
 514:../BSP/dave_fixes/I2C_MASTER/i2c_master.c ****                                      const uint32_t count)
 515:../BSP/dave_fixes/I2C_MASTER/i2c_master.c **** {
 516:../BSP/dave_fixes/I2C_MASTER/i2c_master.c ****   I2C_MASTER_RUNTIME_t * ptr_runtime;
 517:../BSP/dave_fixes/I2C_MASTER/i2c_master.c **** 
 518:../BSP/dave_fixes/I2C_MASTER/i2c_master.c ****   ptr_runtime = handle->runtime;
 519:../BSP/dave_fixes/I2C_MASTER/i2c_master.c **** 
 520:../BSP/dave_fixes/I2C_MASTER/i2c_master.c ****   /*Clear the receive FIFO, configure the trigger lime
 521:../BSP/dave_fixes/I2C_MASTER/i2c_master.c ****    * and enable the receive events*/
 522:../BSP/dave_fixes/I2C_MASTER/i2c_master.c ****   XMC_USIC_CH_RXFIFO_Flush(handle->channel);
 523:../BSP/dave_fixes/I2C_MASTER/i2c_master.c **** 
 524:../BSP/dave_fixes/I2C_MASTER/i2c_master.c ****   /*Configure the FIFO trigger limit based on the required data size*/
 525:../BSP/dave_fixes/I2C_MASTER/i2c_master.c ****   I2C_MASTER_lReconfigureRxFIFO(handle, count);
 526:../BSP/dave_fixes/I2C_MASTER/i2c_master.c **** 
 527:../BSP/dave_fixes/I2C_MASTER/i2c_master.c ****   XMC_USIC_CH_RXFIFO_EnableEvent(handle->channel,
 528:../BSP/dave_fixes/I2C_MASTER/i2c_master.c ****                                 (uint32_t)((uint32_t)XMC_USIC_CH_RXFIFO_EVENT_CONF_STANDARD |
 529:../BSP/dave_fixes/I2C_MASTER/i2c_master.c ****                                            (uint32_t)XMC_USIC_CH_RXFIFO_EVENT_CONF_ALTERNATE));
 530:../BSP/dave_fixes/I2C_MASTER/i2c_master.c ****   if (send_start == true)
 531:../BSP/dave_fixes/I2C_MASTER/i2c_master.c ****   {
 532:../BSP/dave_fixes/I2C_MASTER/i2c_master.c ****   if (!((handle->config->transmit_mode == I2C_MASTER_TRANSFER_MODE_DMA) ||
 533:../BSP/dave_fixes/I2C_MASTER/i2c_master.c ****      (handle->config->transmit_mode == I2C_MASTER_TRANSFER_MODE_DIRECT)))
 534:../BSP/dave_fixes/I2C_MASTER/i2c_master.c ****   {
 535:../BSP/dave_fixes/I2C_MASTER/i2c_master.c ****     I2C_MASTER_EnableEvent(handle, (uint32_t)XMC_I2C_CH_EVENT_ACK);
 536:../BSP/dave_fixes/I2C_MASTER/i2c_master.c ****     XMC_I2C_CH_SetInterruptNodePointer(handle->channel,ptr_runtime->tx_ack_sr);
 537:../BSP/dave_fixes/I2C_MASTER/i2c_master.c ****   }
 538:../BSP/dave_fixes/I2C_MASTER/i2c_master.c ****     I2C_MASTER_lSendStart_Or_RepeatedStart(handle,address, (XMC_I2C_CH_CMD_t)XMC_I2C_CH_CMD_READ);
 539:../BSP/dave_fixes/I2C_MASTER/i2c_master.c **** 
 540:../BSP/dave_fixes/I2C_MASTER/i2c_master.c **** #if (I2C_MASTER_DMA_TX_ENABLED)
 541:../BSP/dave_fixes/I2C_MASTER/i2c_master.c ****     if (handle->config->transmit_mode == I2C_MASTER_TRANSFER_MODE_DMA)
 542:../BSP/dave_fixes/I2C_MASTER/i2c_master.c ****     {
 543:../BSP/dave_fixes/I2C_MASTER/i2c_master.c ****     if (((ptr_runtime->tx_data_index + 1U) == ptr_runtime->tx_data_count) && (ptr_runtime->send_nac
 544:../BSP/dave_fixes/I2C_MASTER/i2c_master.c ****     {
 545:../BSP/dave_fixes/I2C_MASTER/i2c_master.c ****     I2C_MASTER_ReceiveNACK(handle);
 546:../BSP/dave_fixes/I2C_MASTER/i2c_master.c ****     }
 547:../BSP/dave_fixes/I2C_MASTER/i2c_master.c ****     else
 548:../BSP/dave_fixes/I2C_MASTER/i2c_master.c ****     {
 549:../BSP/dave_fixes/I2C_MASTER/i2c_master.c ****     I2C_MASTER_ReceiveACK(handle);
 550:../BSP/dave_fixes/I2C_MASTER/i2c_master.c ****     }
 551:../BSP/dave_fixes/I2C_MASTER/i2c_master.c ****     ptr_runtime->tx_data_index++;
 552:../BSP/dave_fixes/I2C_MASTER/i2c_master.c ****     }
 553:../BSP/dave_fixes/I2C_MASTER/i2c_master.c **** #endif
 554:../BSP/dave_fixes/I2C_MASTER/i2c_master.c ****     if (handle->config->transmit_mode == I2C_MASTER_TRANSFER_MODE_DIRECT)
 555:../BSP/dave_fixes/I2C_MASTER/i2c_master.c ****     {
 556:../BSP/dave_fixes/I2C_MASTER/i2c_master.c ****       if (handle->config->txFIFO_size != XMC_USIC_CH_FIFO_DISABLED)
 557:../BSP/dave_fixes/I2C_MASTER/i2c_master.c ****       {
 558:../BSP/dave_fixes/I2C_MASTER/i2c_master.c ****     /*Fill the transmit FIFO */
 559:../BSP/dave_fixes/I2C_MASTER/i2c_master.c ****       while (I2C_MASTER_IsTXFIFOFull(handle) == false)
 560:../BSP/dave_fixes/I2C_MASTER/i2c_master.c ****       {
 561:../BSP/dave_fixes/I2C_MASTER/i2c_master.c ****         if (ptr_runtime->tx_data_index < ptr_runtime->tx_data_count)
 562:../BSP/dave_fixes/I2C_MASTER/i2c_master.c ****       {
 563:../BSP/dave_fixes/I2C_MASTER/i2c_master.c ****         if (((ptr_runtime->tx_data_index + 1U) == ptr_runtime->tx_data_count) && (ptr_runtime->send
 564:../BSP/dave_fixes/I2C_MASTER/i2c_master.c ****       {
 565:../BSP/dave_fixes/I2C_MASTER/i2c_master.c ****           I2C_MASTER_ReceiveNACK(handle);
 566:../BSP/dave_fixes/I2C_MASTER/i2c_master.c ****       }
 567:../BSP/dave_fixes/I2C_MASTER/i2c_master.c ****       else
 568:../BSP/dave_fixes/I2C_MASTER/i2c_master.c ****         {
 569:../BSP/dave_fixes/I2C_MASTER/i2c_master.c ****           I2C_MASTER_ReceiveACK(handle);
 570:../BSP/dave_fixes/I2C_MASTER/i2c_master.c ****         }
 571:../BSP/dave_fixes/I2C_MASTER/i2c_master.c ****       ptr_runtime->tx_data_index++;
 572:../BSP/dave_fixes/I2C_MASTER/i2c_master.c ****       }
 573:../BSP/dave_fixes/I2C_MASTER/i2c_master.c ****       else
 574:../BSP/dave_fixes/I2C_MASTER/i2c_master.c ****       {
 575:../BSP/dave_fixes/I2C_MASTER/i2c_master.c ****         break;
 576:../BSP/dave_fixes/I2C_MASTER/i2c_master.c ****       }
 577:../BSP/dave_fixes/I2C_MASTER/i2c_master.c ****     } /* end of while */
 578:../BSP/dave_fixes/I2C_MASTER/i2c_master.c ****       }
 579:../BSP/dave_fixes/I2C_MASTER/i2c_master.c ****       else
 580:../BSP/dave_fixes/I2C_MASTER/i2c_master.c ****       {
 581:../BSP/dave_fixes/I2C_MASTER/i2c_master.c ****         /* if it is last byte and send_nack true */
 582:../BSP/dave_fixes/I2C_MASTER/i2c_master.c ****       if (((ptr_runtime->tx_data_index + 1U) == ptr_runtime->tx_data_count) && (ptr_runtime->send_n
 583:../BSP/dave_fixes/I2C_MASTER/i2c_master.c ****     {
 584:../BSP/dave_fixes/I2C_MASTER/i2c_master.c ****       I2C_MASTER_ReceiveNACK(handle);
 585:../BSP/dave_fixes/I2C_MASTER/i2c_master.c ****     }
 586:../BSP/dave_fixes/I2C_MASTER/i2c_master.c ****     else
 587:../BSP/dave_fixes/I2C_MASTER/i2c_master.c ****     {
 588:../BSP/dave_fixes/I2C_MASTER/i2c_master.c ****       I2C_MASTER_ReceiveACK(handle);
 589:../BSP/dave_fixes/I2C_MASTER/i2c_master.c ****     }
 590:../BSP/dave_fixes/I2C_MASTER/i2c_master.c ****     ptr_runtime->tx_data_index++;
 591:../BSP/dave_fixes/I2C_MASTER/i2c_master.c ****       }
 592:../BSP/dave_fixes/I2C_MASTER/i2c_master.c ****     } /* end of if (handle->config->transmit_mode == I2C_MASTER_TRANSFER_MODE_DIRECT) */
 593:../BSP/dave_fixes/I2C_MASTER/i2c_master.c ****   } /* end of if (send_start == true) */
 594:../BSP/dave_fixes/I2C_MASTER/i2c_master.c ****   else
 595:../BSP/dave_fixes/I2C_MASTER/i2c_master.c ****   {
 596:../BSP/dave_fixes/I2C_MASTER/i2c_master.c ****     /* if Tx FIFO enabled */
 597:../BSP/dave_fixes/I2C_MASTER/i2c_master.c ****     if (handle->config->txFIFO_size > 0)
 598:../BSP/dave_fixes/I2C_MASTER/i2c_master.c ****     {
 599:../BSP/dave_fixes/I2C_MASTER/i2c_master.c ****       XMC_USIC_CH_TXFIFO_DisableEvent(handle->channel,
 600:../BSP/dave_fixes/I2C_MASTER/i2c_master.c ****                                      (uint32_t)XMC_USIC_CH_TXFIFO_EVENT_CONF_STANDARD);
 601:../BSP/dave_fixes/I2C_MASTER/i2c_master.c ****       /*Fill the transmit FIFO */
 602:../BSP/dave_fixes/I2C_MASTER/i2c_master.c ****       while (I2C_MASTER_IsTXFIFOFull(handle) == false)
 603:../BSP/dave_fixes/I2C_MASTER/i2c_master.c ****       {
 604:../BSP/dave_fixes/I2C_MASTER/i2c_master.c ****         if (ptr_runtime->tx_data_index < ptr_runtime->tx_data_count)
 605:../BSP/dave_fixes/I2C_MASTER/i2c_master.c ****         {
 606:../BSP/dave_fixes/I2C_MASTER/i2c_master.c ****           if (((ptr_runtime->tx_data_index + 1U) == ptr_runtime->tx_data_count) &&
 607:../BSP/dave_fixes/I2C_MASTER/i2c_master.c ****                (ptr_runtime->send_nack == true))
 608:../BSP/dave_fixes/I2C_MASTER/i2c_master.c ****           {
 609:../BSP/dave_fixes/I2C_MASTER/i2c_master.c ****             I2C_MASTER_ReceiveNACK(handle);
 610:../BSP/dave_fixes/I2C_MASTER/i2c_master.c ****           }
 611:../BSP/dave_fixes/I2C_MASTER/i2c_master.c ****           else
 612:../BSP/dave_fixes/I2C_MASTER/i2c_master.c ****           {
 613:../BSP/dave_fixes/I2C_MASTER/i2c_master.c ****             I2C_MASTER_ReceiveACK(handle);
 614:../BSP/dave_fixes/I2C_MASTER/i2c_master.c ****           }
 615:../BSP/dave_fixes/I2C_MASTER/i2c_master.c ****           ptr_runtime->tx_data_index++;
 616:../BSP/dave_fixes/I2C_MASTER/i2c_master.c ****         }
 617:../BSP/dave_fixes/I2C_MASTER/i2c_master.c ****         else
 618:../BSP/dave_fixes/I2C_MASTER/i2c_master.c ****         {
 619:../BSP/dave_fixes/I2C_MASTER/i2c_master.c ****           break;
 620:../BSP/dave_fixes/I2C_MASTER/i2c_master.c ****         }
 621:../BSP/dave_fixes/I2C_MASTER/i2c_master.c ****       } /* end of while */
 622:../BSP/dave_fixes/I2C_MASTER/i2c_master.c ****     }
 623:../BSP/dave_fixes/I2C_MASTER/i2c_master.c ****     else  /* Tx FIFO disabled and Rx FIFO enabled */
 624:../BSP/dave_fixes/I2C_MASTER/i2c_master.c ****     {
 625:../BSP/dave_fixes/I2C_MASTER/i2c_master.c ****       if (ptr_runtime->tx_data_index < ptr_runtime->tx_data_count)
 626:../BSP/dave_fixes/I2C_MASTER/i2c_master.c ****       {
 627:../BSP/dave_fixes/I2C_MASTER/i2c_master.c ****         if (((ptr_runtime->tx_data_index + 1U) == ptr_runtime->tx_data_count) &&
 628:../BSP/dave_fixes/I2C_MASTER/i2c_master.c ****              (ptr_runtime->send_nack == true))
 629:../BSP/dave_fixes/I2C_MASTER/i2c_master.c ****         {
 630:../BSP/dave_fixes/I2C_MASTER/i2c_master.c ****           I2C_MASTER_ReceiveNACK(handle);
 631:../BSP/dave_fixes/I2C_MASTER/i2c_master.c ****         }
 632:../BSP/dave_fixes/I2C_MASTER/i2c_master.c ****         else
 633:../BSP/dave_fixes/I2C_MASTER/i2c_master.c ****         {
 634:../BSP/dave_fixes/I2C_MASTER/i2c_master.c ****           XMC_I2C_CH_ClearStatusFlag(handle->channel, ((uint32_t)XMC_I2C_CH_STATUS_FLAG_ACK_RECEIVE
 635:../BSP/dave_fixes/I2C_MASTER/i2c_master.c ****                                               (uint32_t)XMC_I2C_CH_STATUS_FLAG_TRANSMIT_BUFFER_INDI
 636:../BSP/dave_fixes/I2C_MASTER/i2c_master.c ****                           (uint32_t)XMC_I2C_CH_STATUS_FLAG_TRANSMIT_SHIFT_INDICATION|
 637:../BSP/dave_fixes/I2C_MASTER/i2c_master.c ****                                               (uint32_t)XMC_I2C_CH_STATUS_FLAG_RECEIVE_INDICATION |
 638:../BSP/dave_fixes/I2C_MASTER/i2c_master.c ****                           (uint32_t)XMC_I2C_CH_STATUS_FLAG_ALTERNATIVE_RECEIVE_INDICATION));
 639:../BSP/dave_fixes/I2C_MASTER/i2c_master.c ****           I2C_MASTER_ReceiveACK(handle);
 640:../BSP/dave_fixes/I2C_MASTER/i2c_master.c ****         }
 641:../BSP/dave_fixes/I2C_MASTER/i2c_master.c ****         ptr_runtime->tx_data_index++;
 642:../BSP/dave_fixes/I2C_MASTER/i2c_master.c ****       }
 643:../BSP/dave_fixes/I2C_MASTER/i2c_master.c ****     } /* end of else */
 644:../BSP/dave_fixes/I2C_MASTER/i2c_master.c ****    } /* end of  if (send_start == false) */
 645:../BSP/dave_fixes/I2C_MASTER/i2c_master.c **** }
 646:../BSP/dave_fixes/I2C_MASTER/i2c_master.c **** /**************************************************************************************************
 647:../BSP/dave_fixes/I2C_MASTER/i2c_master.c ****     Standard receive mode
 648:../BSP/dave_fixes/I2C_MASTER/i2c_master.c **** ***************************************************************************************************
 649:../BSP/dave_fixes/I2C_MASTER/i2c_master.c **** static void I2C_MASTER_lReceive_StdData(I2C_MASTER_t * const handle, bool send_start, const uint32_
 650:../BSP/dave_fixes/I2C_MASTER/i2c_master.c **** {
 651:../BSP/dave_fixes/I2C_MASTER/i2c_master.c ****   I2C_MASTER_RUNTIME_t * ptr_runtime;
 652:../BSP/dave_fixes/I2C_MASTER/i2c_master.c **** 
 653:../BSP/dave_fixes/I2C_MASTER/i2c_master.c ****   ptr_runtime = handle->runtime;
 654:../BSP/dave_fixes/I2C_MASTER/i2c_master.c **** 
 655:../BSP/dave_fixes/I2C_MASTER/i2c_master.c ****   XMC_USIC_CH_EnableEvent(handle->channel, (uint32_t)((uint32_t)XMC_USIC_CH_EVENT_STANDARD_RECEIVE 
 656:../BSP/dave_fixes/I2C_MASTER/i2c_master.c ****                                                       (uint32_t)XMC_USIC_CH_EVENT_ALTERNATIVE_RECEI
 657:../BSP/dave_fixes/I2C_MASTER/i2c_master.c **** 
 658:../BSP/dave_fixes/I2C_MASTER/i2c_master.c ****   if (send_start == true)
 659:../BSP/dave_fixes/I2C_MASTER/i2c_master.c ****   {
 660:../BSP/dave_fixes/I2C_MASTER/i2c_master.c ****   if (!((handle->config->transmit_mode == I2C_MASTER_TRANSFER_MODE_DMA) ||
 661:../BSP/dave_fixes/I2C_MASTER/i2c_master.c ****      (handle->config->transmit_mode == I2C_MASTER_TRANSFER_MODE_DIRECT)))
 662:../BSP/dave_fixes/I2C_MASTER/i2c_master.c ****   {
 663:../BSP/dave_fixes/I2C_MASTER/i2c_master.c ****     I2C_MASTER_EnableEvent(handle, (uint32_t)XMC_I2C_CH_EVENT_ACK);
 664:../BSP/dave_fixes/I2C_MASTER/i2c_master.c ****     XMC_I2C_CH_SetInterruptNodePointer(handle->channel,ptr_runtime->tx_ack_sr);
 665:../BSP/dave_fixes/I2C_MASTER/i2c_master.c ****   }
 666:../BSP/dave_fixes/I2C_MASTER/i2c_master.c ****     I2C_MASTER_lSendStart_Or_RepeatedStart(handle, address, (XMC_I2C_CH_CMD_t)XMC_I2C_CH_CMD_READ);
 667:../BSP/dave_fixes/I2C_MASTER/i2c_master.c **** 
 668:../BSP/dave_fixes/I2C_MASTER/i2c_master.c ****     if ((handle->config->transmit_mode == I2C_MASTER_TRANSFER_MODE_DMA) ||
 669:../BSP/dave_fixes/I2C_MASTER/i2c_master.c ****         (handle->config->transmit_mode == I2C_MASTER_TRANSFER_MODE_DIRECT))
 670:../BSP/dave_fixes/I2C_MASTER/i2c_master.c ****   {
 671:../BSP/dave_fixes/I2C_MASTER/i2c_master.c ****     if (((ptr_runtime->tx_data_index + 1U) == ptr_runtime->tx_data_count) && (ptr_runtime->send_nac
 672:../BSP/dave_fixes/I2C_MASTER/i2c_master.c ****     {
 673:../BSP/dave_fixes/I2C_MASTER/i2c_master.c ****         I2C_MASTER_ReceiveNACK(handle);
 674:../BSP/dave_fixes/I2C_MASTER/i2c_master.c ****     }
 675:../BSP/dave_fixes/I2C_MASTER/i2c_master.c ****     else
 676:../BSP/dave_fixes/I2C_MASTER/i2c_master.c ****     {
 677:../BSP/dave_fixes/I2C_MASTER/i2c_master.c ****     I2C_MASTER_ReceiveACK(handle);
 678:../BSP/dave_fixes/I2C_MASTER/i2c_master.c ****       }
 679:../BSP/dave_fixes/I2C_MASTER/i2c_master.c ****     ptr_runtime->tx_data_index++;
 680:../BSP/dave_fixes/I2C_MASTER/i2c_master.c ****   }
 681:../BSP/dave_fixes/I2C_MASTER/i2c_master.c ****   }
 682:../BSP/dave_fixes/I2C_MASTER/i2c_master.c ****   else
 683:../BSP/dave_fixes/I2C_MASTER/i2c_master.c ****   {
 684:../BSP/dave_fixes/I2C_MASTER/i2c_master.c **** /**************************************************************************************************
 685:../BSP/dave_fixes/I2C_MASTER/i2c_master.c ****      send_start flag is set to false and Tx FIFO is disabled
 686:../BSP/dave_fixes/I2C_MASTER/i2c_master.c **** ***************************************************************************************************
 687:../BSP/dave_fixes/I2C_MASTER/i2c_master.c ****     if (handle->config->txFIFO_size == 0)
 688:../BSP/dave_fixes/I2C_MASTER/i2c_master.c ****     {
 689:../BSP/dave_fixes/I2C_MASTER/i2c_master.c ****       if (((ptr_runtime->tx_data_index + 1U) == ptr_runtime->tx_data_count) && (ptr_runtime->send_n
 690:../BSP/dave_fixes/I2C_MASTER/i2c_master.c ****       {
 691:../BSP/dave_fixes/I2C_MASTER/i2c_master.c ****         I2C_MASTER_ReceiveNACK(handle);
 692:../BSP/dave_fixes/I2C_MASTER/i2c_master.c ****       }
 693:../BSP/dave_fixes/I2C_MASTER/i2c_master.c ****       else
 694:../BSP/dave_fixes/I2C_MASTER/i2c_master.c ****       {
 695:../BSP/dave_fixes/I2C_MASTER/i2c_master.c ****         I2C_MASTER_ReceiveACK(handle);
 696:../BSP/dave_fixes/I2C_MASTER/i2c_master.c ****       }
 697:../BSP/dave_fixes/I2C_MASTER/i2c_master.c **** 
 698:../BSP/dave_fixes/I2C_MASTER/i2c_master.c ****       ptr_runtime->tx_data_index++;
 699:../BSP/dave_fixes/I2C_MASTER/i2c_master.c ****     }
 700:../BSP/dave_fixes/I2C_MASTER/i2c_master.c **** /**************************************************************************************************
 701:../BSP/dave_fixes/I2C_MASTER/i2c_master.c ****      send_start flag is set to false and Tx FIFO is enabled
 702:../BSP/dave_fixes/I2C_MASTER/i2c_master.c **** ***************************************************************************************************
 703:../BSP/dave_fixes/I2C_MASTER/i2c_master.c ****     else
 704:../BSP/dave_fixes/I2C_MASTER/i2c_master.c ****     {
 705:../BSP/dave_fixes/I2C_MASTER/i2c_master.c ****       XMC_USIC_CH_TXFIFO_DisableEvent(handle->channel,(uint32_t)XMC_USIC_CH_TXFIFO_EVENT_CONF_STAND
 706:../BSP/dave_fixes/I2C_MASTER/i2c_master.c **** 
 707:../BSP/dave_fixes/I2C_MASTER/i2c_master.c ****       /*Fill the transmit FIFO */
 708:../BSP/dave_fixes/I2C_MASTER/i2c_master.c ****       while (I2C_MASTER_IsTXFIFOFull(handle) == false)
 709:../BSP/dave_fixes/I2C_MASTER/i2c_master.c ****       {
 710:../BSP/dave_fixes/I2C_MASTER/i2c_master.c ****         if (ptr_runtime->tx_data_index < ptr_runtime->tx_data_count)
 711:../BSP/dave_fixes/I2C_MASTER/i2c_master.c ****         {
 712:../BSP/dave_fixes/I2C_MASTER/i2c_master.c ****           if (((ptr_runtime->tx_data_index + 1U) == ptr_runtime->tx_data_count) && (ptr_runtime->se
 713:../BSP/dave_fixes/I2C_MASTER/i2c_master.c ****           {
 714:../BSP/dave_fixes/I2C_MASTER/i2c_master.c ****             I2C_MASTER_ReceiveNACK(handle);
 715:../BSP/dave_fixes/I2C_MASTER/i2c_master.c ****           }
 716:../BSP/dave_fixes/I2C_MASTER/i2c_master.c ****           else
 717:../BSP/dave_fixes/I2C_MASTER/i2c_master.c ****           {
 718:../BSP/dave_fixes/I2C_MASTER/i2c_master.c ****             I2C_MASTER_ReceiveACK(handle);
 719:../BSP/dave_fixes/I2C_MASTER/i2c_master.c ****           }
 720:../BSP/dave_fixes/I2C_MASTER/i2c_master.c ****           ptr_runtime->tx_data_index++;
 721:../BSP/dave_fixes/I2C_MASTER/i2c_master.c ****         }
 722:../BSP/dave_fixes/I2C_MASTER/i2c_master.c ****         else
 723:../BSP/dave_fixes/I2C_MASTER/i2c_master.c ****         {
 724:../BSP/dave_fixes/I2C_MASTER/i2c_master.c ****           break;
 725:../BSP/dave_fixes/I2C_MASTER/i2c_master.c ****         }
 726:../BSP/dave_fixes/I2C_MASTER/i2c_master.c ****       } /* end of while */
 727:../BSP/dave_fixes/I2C_MASTER/i2c_master.c ****     } /* end of else */
 728:../BSP/dave_fixes/I2C_MASTER/i2c_master.c ****   } /* end of else */
 729:../BSP/dave_fixes/I2C_MASTER/i2c_master.c **** } /* end of function */
 730:../BSP/dave_fixes/I2C_MASTER/i2c_master.c **** #endif
 731:../BSP/dave_fixes/I2C_MASTER/i2c_master.c **** 
 732:../BSP/dave_fixes/I2C_MASTER/i2c_master.c **** #if ((I2C_MASTER_INTERRUPT_TX_ENABLED == 1) || (I2C_MASTER_INTERRUPT_RX_ENABLED == 1) || \
 733:../BSP/dave_fixes/I2C_MASTER/i2c_master.c ****     (I2C_MASTER_DIRECT_TX_ENABLED == 1) || (I2C_MASTER_DIRECT_RX_ENABLED == 1))
 734:../BSP/dave_fixes/I2C_MASTER/i2c_master.c **** /* Function to issue Send Start/Repeated Start command */
 735:../BSP/dave_fixes/I2C_MASTER/i2c_master.c **** static void I2C_MASTER_lSendStart_Or_RepeatedStart(I2C_MASTER_t * handle,const uint32_t address,
 736:../BSP/dave_fixes/I2C_MASTER/i2c_master.c ****                                                const XMC_I2C_CH_CMD_t cmd)
 737:../BSP/dave_fixes/I2C_MASTER/i2c_master.c **** {
 738:../BSP/dave_fixes/I2C_MASTER/i2c_master.c ****   if (handle->runtime->bus_acquired == true)
 739:../BSP/dave_fixes/I2C_MASTER/i2c_master.c ****   {
 740:../BSP/dave_fixes/I2C_MASTER/i2c_master.c ****   I2C_MASTER_SendRepeatedStart(handle, (uint16_t)address, cmd);
 741:../BSP/dave_fixes/I2C_MASTER/i2c_master.c ****   }
 742:../BSP/dave_fixes/I2C_MASTER/i2c_master.c ****   else
 743:../BSP/dave_fixes/I2C_MASTER/i2c_master.c ****   {
 744:../BSP/dave_fixes/I2C_MASTER/i2c_master.c ****     handle->runtime->bus_acquired = true;
 745:../BSP/dave_fixes/I2C_MASTER/i2c_master.c ****     I2C_MASTER_SendStart(handle, (uint16_t)address, cmd);
 746:../BSP/dave_fixes/I2C_MASTER/i2c_master.c ****   }
 747:../BSP/dave_fixes/I2C_MASTER/i2c_master.c **** }
 748:../BSP/dave_fixes/I2C_MASTER/i2c_master.c **** #endif
 749:../BSP/dave_fixes/I2C_MASTER/i2c_master.c **** 
 750:../BSP/dave_fixes/I2C_MASTER/i2c_master.c **** #if (I2C_MASTER_INTERRUPT_TX_ENABLED == 1)
 751:../BSP/dave_fixes/I2C_MASTER/i2c_master.c **** I2C_MASTER_STATUS_t I2C_MASTER_StartTransmitIRQ(I2C_MASTER_t *handle, bool send_start, const uint32
 752:../BSP/dave_fixes/I2C_MASTER/i2c_master.c ****                                                 uint8_t *data, const uint32_t size, bool send_stop)
 753:../BSP/dave_fixes/I2C_MASTER/i2c_master.c **** {
 754:../BSP/dave_fixes/I2C_MASTER/i2c_master.c ****   I2C_MASTER_STATUS_t status;
 755:../BSP/dave_fixes/I2C_MASTER/i2c_master.c ****   I2C_MASTER_RUNTIME_t * ptr_runtime;
 756:../BSP/dave_fixes/I2C_MASTER/i2c_master.c **** 
 757:../BSP/dave_fixes/I2C_MASTER/i2c_master.c ****   status = I2C_MASTER_STATUS_BUSY;
 758:../BSP/dave_fixes/I2C_MASTER/i2c_master.c ****   ptr_runtime = handle->runtime;
 759:../BSP/dave_fixes/I2C_MASTER/i2c_master.c **** 
 760:../BSP/dave_fixes/I2C_MASTER/i2c_master.c ****   /* If send_stop is set to TRUE, bus_acquired flag is set to FALSE.
 761:../BSP/dave_fixes/I2C_MASTER/i2c_master.c ****    If send_start is set to FALSE and bus_acquired is set to FALSE then API will return an error. */
 762:../BSP/dave_fixes/I2C_MASTER/i2c_master.c ****   if (((send_start == false) && (handle->runtime->bus_acquired == false)) || (data == NULL) || (siz
 763:../BSP/dave_fixes/I2C_MASTER/i2c_master.c ****   {
 764:../BSP/dave_fixes/I2C_MASTER/i2c_master.c ****   status = I2C_MASTER_STATUS_FAILURE;
 765:../BSP/dave_fixes/I2C_MASTER/i2c_master.c ****   }
 766:../BSP/dave_fixes/I2C_MASTER/i2c_master.c ****   else
 767:../BSP/dave_fixes/I2C_MASTER/i2c_master.c ****   {
 768:../BSP/dave_fixes/I2C_MASTER/i2c_master.c ****     ptr_runtime->direction = (uint32_t)I2C_MASTER_DIRECTION_TRANSMIT;
 769:../BSP/dave_fixes/I2C_MASTER/i2c_master.c **** 
 770:../BSP/dave_fixes/I2C_MASTER/i2c_master.c ****     if (ptr_runtime->tx_busy == false)
 771:../BSP/dave_fixes/I2C_MASTER/i2c_master.c ****     {
 772:../BSP/dave_fixes/I2C_MASTER/i2c_master.c ****     /*If there is no transmission in progress, obtain the address of data, size of data*/
 773:../BSP/dave_fixes/I2C_MASTER/i2c_master.c ****     ptr_runtime->tx_data = data;
 774:../BSP/dave_fixes/I2C_MASTER/i2c_master.c ****     ptr_runtime->tx_data_count = size;
 775:../BSP/dave_fixes/I2C_MASTER/i2c_master.c **** 
 776:../BSP/dave_fixes/I2C_MASTER/i2c_master.c ****     /*Initialize to first index and set the busy flag*/
 777:../BSP/dave_fixes/I2C_MASTER/i2c_master.c ****     ptr_runtime->tx_data_index = 0U;
 778:../BSP/dave_fixes/I2C_MASTER/i2c_master.c ****     ptr_runtime->tx_busy = true;
 779:../BSP/dave_fixes/I2C_MASTER/i2c_master.c ****     ptr_runtime->send_stop = send_stop;
 780:../BSP/dave_fixes/I2C_MASTER/i2c_master.c **** 
 781:../BSP/dave_fixes/I2C_MASTER/i2c_master.c ****     /* Enable ACK event */
 782:../BSP/dave_fixes/I2C_MASTER/i2c_master.c ****     I2C_MASTER_EnableEvent(handle, (uint32_t)XMC_I2C_CH_EVENT_ACK);
 783:../BSP/dave_fixes/I2C_MASTER/i2c_master.c ****     XMC_I2C_CH_SetInterruptNodePointer(handle->channel,ptr_runtime->tx_ack_sr);
 784:../BSP/dave_fixes/I2C_MASTER/i2c_master.c **** 
 785:../BSP/dave_fixes/I2C_MASTER/i2c_master.c ****     if (send_start == true)
 786:../BSP/dave_fixes/I2C_MASTER/i2c_master.c ****     {
 787:../BSP/dave_fixes/I2C_MASTER/i2c_master.c ****       I2C_MASTER_lSendStart_Or_RepeatedStart(handle, address, (XMC_I2C_CH_CMD_t)XMC_I2C_CH_CMD_WRIT
 788:../BSP/dave_fixes/I2C_MASTER/i2c_master.c ****     }
 789:../BSP/dave_fixes/I2C_MASTER/i2c_master.c ****     else
 790:../BSP/dave_fixes/I2C_MASTER/i2c_master.c ****     {
 791:../BSP/dave_fixes/I2C_MASTER/i2c_master.c ****       /*Trigger the Ack interrupt*/
 792:../BSP/dave_fixes/I2C_MASTER/i2c_master.c ****       XMC_USIC_CH_TriggerServiceRequest(handle->channel, (uint32_t)ptr_runtime->tx_ack_sr);
 793:../BSP/dave_fixes/I2C_MASTER/i2c_master.c ****     }
 794:../BSP/dave_fixes/I2C_MASTER/i2c_master.c **** 
 795:../BSP/dave_fixes/I2C_MASTER/i2c_master.c ****     status = I2C_MASTER_STATUS_SUCCESS;
 796:../BSP/dave_fixes/I2C_MASTER/i2c_master.c ****   }
 797:../BSP/dave_fixes/I2C_MASTER/i2c_master.c ****   }
 798:../BSP/dave_fixes/I2C_MASTER/i2c_master.c ****   return (status);
 799:../BSP/dave_fixes/I2C_MASTER/i2c_master.c **** }
 800:../BSP/dave_fixes/I2C_MASTER/i2c_master.c **** 
 801:../BSP/dave_fixes/I2C_MASTER/i2c_master.c **** static void I2C_MASTER_AbortTransmitIRQ(const I2C_MASTER_t *const handle)
 802:../BSP/dave_fixes/I2C_MASTER/i2c_master.c **** {
 803:../BSP/dave_fixes/I2C_MASTER/i2c_master.c ****   handle->runtime->tx_busy = false;
 804:../BSP/dave_fixes/I2C_MASTER/i2c_master.c ****   handle->runtime->tx_data = NULL;
 805:../BSP/dave_fixes/I2C_MASTER/i2c_master.c ****   handle->runtime->bus_acquired = false;
 806:../BSP/dave_fixes/I2C_MASTER/i2c_master.c **** 
 807:../BSP/dave_fixes/I2C_MASTER/i2c_master.c ****   /*Disable the transmit interrupts*/
 808:../BSP/dave_fixes/I2C_MASTER/i2c_master.c ****   if (handle->config->txFIFO_size != XMC_USIC_CH_FIFO_DISABLED)
 809:../BSP/dave_fixes/I2C_MASTER/i2c_master.c ****   {
 810:../BSP/dave_fixes/I2C_MASTER/i2c_master.c ****     /*Disable the transmit FIFO event*/
 811:../BSP/dave_fixes/I2C_MASTER/i2c_master.c ****     XMC_USIC_CH_TXFIFO_DisableEvent(handle->channel,(uint32_t)XMC_USIC_CH_TXFIFO_EVENT_CONF_STANDAR
 812:../BSP/dave_fixes/I2C_MASTER/i2c_master.c ****     XMC_USIC_CH_TXFIFO_Flush(handle->channel);
 813:../BSP/dave_fixes/I2C_MASTER/i2c_master.c ****   }
 814:../BSP/dave_fixes/I2C_MASTER/i2c_master.c ****   I2C_MASTER_DisableEvent((I2C_MASTER_t *)handle,((uint32_t)XMC_I2C_CH_EVENT_ACK ));
 815:../BSP/dave_fixes/I2C_MASTER/i2c_master.c **** }
 816:../BSP/dave_fixes/I2C_MASTER/i2c_master.c **** #endif
 817:../BSP/dave_fixes/I2C_MASTER/i2c_master.c **** 
 818:../BSP/dave_fixes/I2C_MASTER/i2c_master.c **** #if (I2C_MASTER_INTERRUPT_RX_ENABLED == 1)
 819:../BSP/dave_fixes/I2C_MASTER/i2c_master.c **** I2C_MASTER_STATUS_t I2C_MASTER_StartReceiveIRQ(I2C_MASTER_t *handle, bool send_start, const uint32_
 820:../BSP/dave_fixes/I2C_MASTER/i2c_master.c ****                                                uint8_t * data, const uint32_t count, bool send_stop
 821:../BSP/dave_fixes/I2C_MASTER/i2c_master.c **** {
 822:../BSP/dave_fixes/I2C_MASTER/i2c_master.c ****   I2C_MASTER_STATUS_t status;
 823:../BSP/dave_fixes/I2C_MASTER/i2c_master.c ****   I2C_MASTER_RUNTIME_t * ptr_runtime;
 824:../BSP/dave_fixes/I2C_MASTER/i2c_master.c **** 
 825:../BSP/dave_fixes/I2C_MASTER/i2c_master.c ****   status = I2C_MASTER_STATUS_BUSY;
 826:../BSP/dave_fixes/I2C_MASTER/i2c_master.c ****   ptr_runtime = handle->runtime;
 827:../BSP/dave_fixes/I2C_MASTER/i2c_master.c **** 
 828:../BSP/dave_fixes/I2C_MASTER/i2c_master.c ****   if (((handle == NULL) || ((send_start == false) && (handle->runtime->bus_acquired == false)) || (
 829:../BSP/dave_fixes/I2C_MASTER/i2c_master.c ****      (count == 0U)))
 830:../BSP/dave_fixes/I2C_MASTER/i2c_master.c ****   {
 831:../BSP/dave_fixes/I2C_MASTER/i2c_master.c ****     status = I2C_MASTER_STATUS_FAILURE;
 832:../BSP/dave_fixes/I2C_MASTER/i2c_master.c ****   }
 833:../BSP/dave_fixes/I2C_MASTER/i2c_master.c ****   else
 834:../BSP/dave_fixes/I2C_MASTER/i2c_master.c ****   {
 835:../BSP/dave_fixes/I2C_MASTER/i2c_master.c ****     if (ptr_runtime->rx_busy == false)
 836:../BSP/dave_fixes/I2C_MASTER/i2c_master.c ****     {
 837:../BSP/dave_fixes/I2C_MASTER/i2c_master.c ****     ptr_runtime->direction = (uint32_t)I2C_MASTER_DIRECTION_RECEIVE;
 838:../BSP/dave_fixes/I2C_MASTER/i2c_master.c **** 
 839:../BSP/dave_fixes/I2C_MASTER/i2c_master.c ****       /* If no active reception in progress, obtain the address of data buffer and number of data b
 840:../BSP/dave_fixes/I2C_MASTER/i2c_master.c ****     ptr_runtime->rx_data = data;
 841:../BSP/dave_fixes/I2C_MASTER/i2c_master.c ****     ptr_runtime->rx_data_count = count;
 842:../BSP/dave_fixes/I2C_MASTER/i2c_master.c ****     ptr_runtime->tx_data = data;
 843:../BSP/dave_fixes/I2C_MASTER/i2c_master.c ****     ptr_runtime->tx_data_count = count;
 844:../BSP/dave_fixes/I2C_MASTER/i2c_master.c ****     ptr_runtime->tx_busy = true;
 845:../BSP/dave_fixes/I2C_MASTER/i2c_master.c ****     ptr_runtime->rx_busy = true;
 846:../BSP/dave_fixes/I2C_MASTER/i2c_master.c ****     ptr_runtime->send_stop = send_stop;
 847:../BSP/dave_fixes/I2C_MASTER/i2c_master.c ****     ptr_runtime->send_nack = send_nack;
 848:../BSP/dave_fixes/I2C_MASTER/i2c_master.c ****     ptr_runtime->rx_data_index = 0U;
 849:../BSP/dave_fixes/I2C_MASTER/i2c_master.c ****     ptr_runtime->tx_data_index = 0U;
 850:../BSP/dave_fixes/I2C_MASTER/i2c_master.c **** 
 851:../BSP/dave_fixes/I2C_MASTER/i2c_master.c ****     if (handle->config->rxFIFO_size > 0)
 852:../BSP/dave_fixes/I2C_MASTER/i2c_master.c ****     {
 853:../BSP/dave_fixes/I2C_MASTER/i2c_master.c ****       I2C_MASTER_lReceive_FIFOData(handle, send_start, address, count);
 854:../BSP/dave_fixes/I2C_MASTER/i2c_master.c ****     }
 855:../BSP/dave_fixes/I2C_MASTER/i2c_master.c ****     else
 856:../BSP/dave_fixes/I2C_MASTER/i2c_master.c ****     {
 857:../BSP/dave_fixes/I2C_MASTER/i2c_master.c ****       I2C_MASTER_lReceive_StdData(handle, send_start, address);
 858:../BSP/dave_fixes/I2C_MASTER/i2c_master.c ****     }
 859:../BSP/dave_fixes/I2C_MASTER/i2c_master.c ****     status = I2C_MASTER_STATUS_SUCCESS;
 860:../BSP/dave_fixes/I2C_MASTER/i2c_master.c ****   }
 861:../BSP/dave_fixes/I2C_MASTER/i2c_master.c ****   }
 862:../BSP/dave_fixes/I2C_MASTER/i2c_master.c ****   return (status);
 863:../BSP/dave_fixes/I2C_MASTER/i2c_master.c **** }
 864:../BSP/dave_fixes/I2C_MASTER/i2c_master.c **** 
 865:../BSP/dave_fixes/I2C_MASTER/i2c_master.c **** /*
 866:../BSP/dave_fixes/I2C_MASTER/i2c_master.c ****  * Receive interrupt handler for the APP.
 867:../BSP/dave_fixes/I2C_MASTER/i2c_master.c ****  * This is a common interrupt handling function for different instances of the I2C_MASTER APP.
 868:../BSP/dave_fixes/I2C_MASTER/i2c_master.c ****  *
 869:../BSP/dave_fixes/I2C_MASTER/i2c_master.c ****  * @param  handle I2C_MASTER APP handle pointer of type I2C_MASTER_t*
 870:../BSP/dave_fixes/I2C_MASTER/i2c_master.c ****  *
 871:../BSP/dave_fixes/I2C_MASTER/i2c_master.c ****  * @return void
 872:../BSP/dave_fixes/I2C_MASTER/i2c_master.c ****  */
 873:../BSP/dave_fixes/I2C_MASTER/i2c_master.c **** void I2C_MASTER_ReceiveHandler(I2C_MASTER_t * const handle)
 874:../BSP/dave_fixes/I2C_MASTER/i2c_master.c **** {
 875:../BSP/dave_fixes/I2C_MASTER/i2c_master.c ****   I2C_MASTER_RUNTIME_t * ptr_runtime;
 876:../BSP/dave_fixes/I2C_MASTER/i2c_master.c ****   uint8_t fifo_lindex;
 877:../BSP/dave_fixes/I2C_MASTER/i2c_master.c ****   uint8_t fifo_min;
 878:../BSP/dave_fixes/I2C_MASTER/i2c_master.c **** 
 879:../BSP/dave_fixes/I2C_MASTER/i2c_master.c ****   ptr_runtime = handle->runtime;
 880:../BSP/dave_fixes/I2C_MASTER/i2c_master.c ****   fifo_lindex = 0U;
 881:../BSP/dave_fixes/I2C_MASTER/i2c_master.c **** 
 882:../BSP/dave_fixes/I2C_MASTER/i2c_master.c ****   if (ptr_runtime->rx_busy == true)
 883:../BSP/dave_fixes/I2C_MASTER/i2c_master.c ****   {
 884:../BSP/dave_fixes/I2C_MASTER/i2c_master.c ****     if (handle->config->rxFIFO_size > 0)
 885:../BSP/dave_fixes/I2C_MASTER/i2c_master.c ****     {
 886:../BSP/dave_fixes/I2C_MASTER/i2c_master.c ****       /********************************************************************************************
 887:../BSP/dave_fixes/I2C_MASTER/i2c_master.c ****        Rx FIFO enabled
 888:../BSP/dave_fixes/I2C_MASTER/i2c_master.c ****       *********************************************************************************************
 889:../BSP/dave_fixes/I2C_MASTER/i2c_master.c ****       while (I2C_MASTER_IsRXFIFOEmpty(handle) == false)
 890:../BSP/dave_fixes/I2C_MASTER/i2c_master.c ****       {
 891:../BSP/dave_fixes/I2C_MASTER/i2c_master.c ****         /*Read all the content of Receive FIFO */
 892:../BSP/dave_fixes/I2C_MASTER/i2c_master.c ****         ptr_runtime->rx_data[ptr_runtime->rx_data_index] = (uint8_t)I2C_MASTER_GetReceivedByte(hand
 893:../BSP/dave_fixes/I2C_MASTER/i2c_master.c ****         ptr_runtime->rx_data_index++;
 894:../BSP/dave_fixes/I2C_MASTER/i2c_master.c **** 
 895:../BSP/dave_fixes/I2C_MASTER/i2c_master.c ****         if (ptr_runtime->rx_data_index == ptr_runtime->rx_data_count)
 896:../BSP/dave_fixes/I2C_MASTER/i2c_master.c ****         {
 897:../BSP/dave_fixes/I2C_MASTER/i2c_master.c ****           /*Reception complete*/
 898:../BSP/dave_fixes/I2C_MASTER/i2c_master.c ****           ptr_runtime->rx_busy = false;
 899:../BSP/dave_fixes/I2C_MASTER/i2c_master.c **** 
 900:../BSP/dave_fixes/I2C_MASTER/i2c_master.c ****             /*Disable both standard receive and alternative receive FIFO events*/
 901:../BSP/dave_fixes/I2C_MASTER/i2c_master.c ****             XMC_USIC_CH_RXFIFO_DisableEvent(handle->channel,
 902:../BSP/dave_fixes/I2C_MASTER/i2c_master.c ****                                           (uint32_t)((uint32_t)XMC_USIC_CH_RXFIFO_EVENT_CONF_STANDA
 903:../BSP/dave_fixes/I2C_MASTER/i2c_master.c ****                                                      (uint32_t)XMC_USIC_CH_RXFIFO_EVENT_CONF_ALTERN
 904:../BSP/dave_fixes/I2C_MASTER/i2c_master.c **** 
 905:../BSP/dave_fixes/I2C_MASTER/i2c_master.c ****           break;
 906:../BSP/dave_fixes/I2C_MASTER/i2c_master.c ****         }
 907:../BSP/dave_fixes/I2C_MASTER/i2c_master.c ****       } /* end of while(I2C_MASTER_IsRXFIFOEmpty(handle) == false)*/
 908:../BSP/dave_fixes/I2C_MASTER/i2c_master.c **** 
 909:../BSP/dave_fixes/I2C_MASTER/i2c_master.c ****       /*Set the trigger limit if data still to be received*/
 910:../BSP/dave_fixes/I2C_MASTER/i2c_master.c ****       if (ptr_runtime->rx_data_index < ptr_runtime->rx_data_count)
 911:../BSP/dave_fixes/I2C_MASTER/i2c_master.c ****       {
 912:../BSP/dave_fixes/I2C_MASTER/i2c_master.c ****         I2C_MASTER_lReconfigureRxFIFO(handle,(uint32_t)(ptr_runtime->rx_data_count - ptr_runtime->r
 913:../BSP/dave_fixes/I2C_MASTER/i2c_master.c **** 
 914:../BSP/dave_fixes/I2C_MASTER/i2c_master.c ****         if ((handle->config->txFIFO_size > 0))
 915:../BSP/dave_fixes/I2C_MASTER/i2c_master.c ****         {
 916:../BSP/dave_fixes/I2C_MASTER/i2c_master.c ****           fifo_min = (uint8_t)calculate_minfifosize(((uint32_t)1 << (uint32_t)handle->config->txFIF
 917:../BSP/dave_fixes/I2C_MASTER/i2c_master.c ****                                                     ((uint32_t)1 << (uint32_t)handle->config->rxFIF
 918:../BSP/dave_fixes/I2C_MASTER/i2c_master.c ****        }
 919:../BSP/dave_fixes/I2C_MASTER/i2c_master.c ****        else
 920:../BSP/dave_fixes/I2C_MASTER/i2c_master.c ****        {
 921:../BSP/dave_fixes/I2C_MASTER/i2c_master.c ****           fifo_min = 2U;
 922:../BSP/dave_fixes/I2C_MASTER/i2c_master.c ****        }
 923:../BSP/dave_fixes/I2C_MASTER/i2c_master.c ****        /*******************************************************************************************
 924:../BSP/dave_fixes/I2C_MASTER/i2c_master.c ****          Rx and Tx FIFO enabled
 925:../BSP/dave_fixes/I2C_MASTER/i2c_master.c ****         *******************************************************************************************
 926:../BSP/dave_fixes/I2C_MASTER/i2c_master.c ****         if (handle->config->txFIFO_size > 0)
 927:../BSP/dave_fixes/I2C_MASTER/i2c_master.c ****         {
 928:../BSP/dave_fixes/I2C_MASTER/i2c_master.c ****           /*Fill the transmit FIFO */
 929:../BSP/dave_fixes/I2C_MASTER/i2c_master.c ****           while (I2C_MASTER_IsTXFIFOFull(handle) == false)
 930:../BSP/dave_fixes/I2C_MASTER/i2c_master.c ****           {
 931:../BSP/dave_fixes/I2C_MASTER/i2c_master.c ****             if (ptr_runtime->tx_data_index < ptr_runtime->tx_data_count)
 932:../BSP/dave_fixes/I2C_MASTER/i2c_master.c ****             {
 933:../BSP/dave_fixes/I2C_MASTER/i2c_master.c ****               if (((ptr_runtime->tx_data_index + 1U) == ptr_runtime->tx_data_count) && (ptr_runtime
 934:../BSP/dave_fixes/I2C_MASTER/i2c_master.c ****               {
 935:../BSP/dave_fixes/I2C_MASTER/i2c_master.c ****                 I2C_MASTER_ReceiveNACK(handle);
 936:../BSP/dave_fixes/I2C_MASTER/i2c_master.c ****               }
 937:../BSP/dave_fixes/I2C_MASTER/i2c_master.c ****               else
 938:../BSP/dave_fixes/I2C_MASTER/i2c_master.c ****               {
 939:../BSP/dave_fixes/I2C_MASTER/i2c_master.c ****                 I2C_MASTER_ReceiveACK(handle);
 940:../BSP/dave_fixes/I2C_MASTER/i2c_master.c ****               }
 941:../BSP/dave_fixes/I2C_MASTER/i2c_master.c ****               ptr_runtime->tx_data_index++;
 942:../BSP/dave_fixes/I2C_MASTER/i2c_master.c **** 
 943:../BSP/dave_fixes/I2C_MASTER/i2c_master.c ****               /* if fifo size- break */
 944:../BSP/dave_fixes/I2C_MASTER/i2c_master.c ****               if ((++fifo_lindex) >= fifo_min)
 945:../BSP/dave_fixes/I2C_MASTER/i2c_master.c ****               {
 946:../BSP/dave_fixes/I2C_MASTER/i2c_master.c ****                 fifo_lindex = 0U;
 947:../BSP/dave_fixes/I2C_MASTER/i2c_master.c ****                 break;
 948:../BSP/dave_fixes/I2C_MASTER/i2c_master.c ****               }
 949:../BSP/dave_fixes/I2C_MASTER/i2c_master.c ****             }/* end of if (handle->runtime->tx_data_index < handle->runtime->tx_data_count) */
 950:../BSP/dave_fixes/I2C_MASTER/i2c_master.c ****             else
 951:../BSP/dave_fixes/I2C_MASTER/i2c_master.c ****             {
 952:../BSP/dave_fixes/I2C_MASTER/i2c_master.c ****               break;
 953:../BSP/dave_fixes/I2C_MASTER/i2c_master.c ****             }
 954:../BSP/dave_fixes/I2C_MASTER/i2c_master.c ****          }
 955:../BSP/dave_fixes/I2C_MASTER/i2c_master.c ****        } /* end of  if ((handle->config->txFIFO_size > 0)) */
 956:../BSP/dave_fixes/I2C_MASTER/i2c_master.c ****        /*******************************************************************************************
 957:../BSP/dave_fixes/I2C_MASTER/i2c_master.c ****           Rx FIFO is enabled, Tx FIFO disabled
 958:../BSP/dave_fixes/I2C_MASTER/i2c_master.c ****        ********************************************************************************************
 959:../BSP/dave_fixes/I2C_MASTER/i2c_master.c ****        else
 960:../BSP/dave_fixes/I2C_MASTER/i2c_master.c ****        {
 961:../BSP/dave_fixes/I2C_MASTER/i2c_master.c ****          if (((ptr_runtime->tx_data_index + 1U) == ptr_runtime->tx_data_count) && (ptr_runtime->sen
 962:../BSP/dave_fixes/I2C_MASTER/i2c_master.c ****          {
 963:../BSP/dave_fixes/I2C_MASTER/i2c_master.c ****            I2C_MASTER_ReceiveNACK(handle);
 964:../BSP/dave_fixes/I2C_MASTER/i2c_master.c ****          }
 965:../BSP/dave_fixes/I2C_MASTER/i2c_master.c ****          else
 966:../BSP/dave_fixes/I2C_MASTER/i2c_master.c ****          {
 967:../BSP/dave_fixes/I2C_MASTER/i2c_master.c ****            I2C_MASTER_ReceiveACK(handle);
 968:../BSP/dave_fixes/I2C_MASTER/i2c_master.c ****          }
 969:../BSP/dave_fixes/I2C_MASTER/i2c_master.c **** 
 970:../BSP/dave_fixes/I2C_MASTER/i2c_master.c ****          ptr_runtime->tx_data_index++;
 971:../BSP/dave_fixes/I2C_MASTER/i2c_master.c ****        }
 972:../BSP/dave_fixes/I2C_MASTER/i2c_master.c ****      } /* end of if (ptr_runtime->rx_data_index < ptr_runtime->rx_data_count) */
 973:../BSP/dave_fixes/I2C_MASTER/i2c_master.c **** /**************************************************************************************************
 974:../BSP/dave_fixes/I2C_MASTER/i2c_master.c ****      if last byte to receive then disable receive events and jump to callback routine
 975:../BSP/dave_fixes/I2C_MASTER/i2c_master.c **** ***************************************************************************************************
 976:../BSP/dave_fixes/I2C_MASTER/i2c_master.c ****      if (ptr_runtime->rx_data_index == ptr_runtime->rx_data_count)
 977:../BSP/dave_fixes/I2C_MASTER/i2c_master.c ****      {
 978:../BSP/dave_fixes/I2C_MASTER/i2c_master.c ****        /*Clear both standard receive and alternative receive FIFO events*/
 979:../BSP/dave_fixes/I2C_MASTER/i2c_master.c ****        XMC_USIC_CH_RXFIFO_DisableEvent(handle->channel, (uint32_t)((uint32_t)XMC_USIC_CH_RXFIFO_EVE
 980:../BSP/dave_fixes/I2C_MASTER/i2c_master.c ****                                                                    (uint32_t)XMC_USIC_CH_RXFIFO_EVE
 981:../BSP/dave_fixes/I2C_MASTER/i2c_master.c **** 
 982:../BSP/dave_fixes/I2C_MASTER/i2c_master.c ****        /*Disable both standard receive and alternative receive events*/
 983:../BSP/dave_fixes/I2C_MASTER/i2c_master.c ****        XMC_USIC_CH_DisableEvent(handle->channel, (uint32_t)((uint32_t)XMC_USIC_CH_EVENT_ALTERNATIVE
 984:../BSP/dave_fixes/I2C_MASTER/i2c_master.c ****                                                             (uint32_t)XMC_USIC_CH_EVENT_STANDARD_RE
 985:../BSP/dave_fixes/I2C_MASTER/i2c_master.c **** 
 986:../BSP/dave_fixes/I2C_MASTER/i2c_master.c ****        if (ptr_runtime->bus_acquired == true)
 987:../BSP/dave_fixes/I2C_MASTER/i2c_master.c ****        {
 988:../BSP/dave_fixes/I2C_MASTER/i2c_master.c ****          I2C_MASTER_lSendStop_JumpTo_RxCallback(handle);
 989:../BSP/dave_fixes/I2C_MASTER/i2c_master.c ****        }
 990:../BSP/dave_fixes/I2C_MASTER/i2c_master.c ****      }
 991:../BSP/dave_fixes/I2C_MASTER/i2c_master.c ****     } /*  end of if (handle->config->rxFIFO_size > 0) */
 992:../BSP/dave_fixes/I2C_MASTER/i2c_master.c **** /**************************************************************************************************
 993:../BSP/dave_fixes/I2C_MASTER/i2c_master.c ****      Rx FIFO disabled
 994:../BSP/dave_fixes/I2C_MASTER/i2c_master.c **** ***************************************************************************************************
 995:../BSP/dave_fixes/I2C_MASTER/i2c_master.c ****     else
 996:../BSP/dave_fixes/I2C_MASTER/i2c_master.c ****     {
 997:../BSP/dave_fixes/I2C_MASTER/i2c_master.c ****       ptr_runtime->rx_data[ptr_runtime->rx_data_index] = (uint8_t)I2C_MASTER_GetReceivedByte(handle
 998:../BSP/dave_fixes/I2C_MASTER/i2c_master.c ****       ptr_runtime->rx_data_index++;
 999:../BSP/dave_fixes/I2C_MASTER/i2c_master.c **** 
1000:../BSP/dave_fixes/I2C_MASTER/i2c_master.c ****       if (ptr_runtime->rx_data_index < ptr_runtime->rx_data_count)
1001:../BSP/dave_fixes/I2C_MASTER/i2c_master.c ****       {
1002:../BSP/dave_fixes/I2C_MASTER/i2c_master.c ****         if (ptr_runtime->tx_data_index < ptr_runtime->tx_data_count)
1003:../BSP/dave_fixes/I2C_MASTER/i2c_master.c ****         {
1004:../BSP/dave_fixes/I2C_MASTER/i2c_master.c ****           /* if receive byte is end of byte and send_nack is true, send to receive Nack otherwise A
1005:../BSP/dave_fixes/I2C_MASTER/i2c_master.c ****           if (((ptr_runtime->tx_data_index) == (ptr_runtime->tx_data_count - 1U)) && (ptr_runtime->
1006:../BSP/dave_fixes/I2C_MASTER/i2c_master.c ****           {
1007:../BSP/dave_fixes/I2C_MASTER/i2c_master.c ****             I2C_MASTER_ReceiveNACK(handle);
1008:../BSP/dave_fixes/I2C_MASTER/i2c_master.c ****           }
1009:../BSP/dave_fixes/I2C_MASTER/i2c_master.c ****           else
1010:../BSP/dave_fixes/I2C_MASTER/i2c_master.c ****           {
1011:../BSP/dave_fixes/I2C_MASTER/i2c_master.c ****             I2C_MASTER_ReceiveACK(handle);
1012:../BSP/dave_fixes/I2C_MASTER/i2c_master.c ****           }
1013:../BSP/dave_fixes/I2C_MASTER/i2c_master.c ****           ptr_runtime->tx_data_index++;
1014:../BSP/dave_fixes/I2C_MASTER/i2c_master.c ****         }
1015:../BSP/dave_fixes/I2C_MASTER/i2c_master.c ****       }
1016:../BSP/dave_fixes/I2C_MASTER/i2c_master.c ****       else
1017:../BSP/dave_fixes/I2C_MASTER/i2c_master.c ****       {
1018:../BSP/dave_fixes/I2C_MASTER/i2c_master.c ****         /*Disable both standard receive and alternative receive events*/
1019:../BSP/dave_fixes/I2C_MASTER/i2c_master.c ****         XMC_USIC_CH_DisableEvent(handle->channel, (uint32_t)((uint32_t)XMC_USIC_CH_EVENT_ALTERNATIV
1020:../BSP/dave_fixes/I2C_MASTER/i2c_master.c ****                                                              (uint32_t)XMC_USIC_CH_EVENT_STANDARD_R
1021:../BSP/dave_fixes/I2C_MASTER/i2c_master.c ****         if (ptr_runtime->bus_acquired == true)
1022:../BSP/dave_fixes/I2C_MASTER/i2c_master.c ****         {
1023:../BSP/dave_fixes/I2C_MASTER/i2c_master.c ****           I2C_MASTER_lSendStop_JumpTo_RxCallback(handle);
1024:../BSP/dave_fixes/I2C_MASTER/i2c_master.c ****         }
1025:../BSP/dave_fixes/I2C_MASTER/i2c_master.c ****       }
1026:../BSP/dave_fixes/I2C_MASTER/i2c_master.c ****     }
1027:../BSP/dave_fixes/I2C_MASTER/i2c_master.c ****   } /* end of  if (ptr_runtime->rx_busy == true)*/
1028:../BSP/dave_fixes/I2C_MASTER/i2c_master.c **** }
1029:../BSP/dave_fixes/I2C_MASTER/i2c_master.c **** 
1030:../BSP/dave_fixes/I2C_MASTER/i2c_master.c **** /* Function to issue Send Stop command and jump to receive callback routine */
1031:../BSP/dave_fixes/I2C_MASTER/i2c_master.c **** static void I2C_MASTER_lSendStop_JumpTo_RxCallback(I2C_MASTER_t *const handle)
1032:../BSP/dave_fixes/I2C_MASTER/i2c_master.c **** {
1033:../BSP/dave_fixes/I2C_MASTER/i2c_master.c ****   I2C_MASTER_RUNTIME_t * ptr_runtime;
1034:../BSP/dave_fixes/I2C_MASTER/i2c_master.c **** 
1035:../BSP/dave_fixes/I2C_MASTER/i2c_master.c ****   ptr_runtime = handle->runtime;
1036:../BSP/dave_fixes/I2C_MASTER/i2c_master.c **** 
1037:../BSP/dave_fixes/I2C_MASTER/i2c_master.c ****   if (ptr_runtime->send_stop == true)
1038:../BSP/dave_fixes/I2C_MASTER/i2c_master.c ****   {
1039:../BSP/dave_fixes/I2C_MASTER/i2c_master.c ****     while (XMC_USIC_CH_GetTransmitBufferStatus(handle->channel) == XMC_USIC_CH_TBUF_STATUS_BUSY){}
1040:../BSP/dave_fixes/I2C_MASTER/i2c_master.c **** 
1041:../BSP/dave_fixes/I2C_MASTER/i2c_master.c ****     ptr_runtime->bus_acquired = false;
1042:../BSP/dave_fixes/I2C_MASTER/i2c_master.c **** 
1043:../BSP/dave_fixes/I2C_MASTER/i2c_master.c ****     I2C_MASTER_SendStop(handle);
1044:../BSP/dave_fixes/I2C_MASTER/i2c_master.c ****   }
1045:../BSP/dave_fixes/I2C_MASTER/i2c_master.c **** 
1046:../BSP/dave_fixes/I2C_MASTER/i2c_master.c ****   while (XMC_USIC_CH_GetTransmitBufferStatus(handle->channel) == XMC_USIC_CH_TBUF_STATUS_BUSY){}
1047:../BSP/dave_fixes/I2C_MASTER/i2c_master.c **** 
1048:../BSP/dave_fixes/I2C_MASTER/i2c_master.c ****   /* Reception complete */
1049:../BSP/dave_fixes/I2C_MASTER/i2c_master.c ****   ptr_runtime->rx_busy = false;
1050:../BSP/dave_fixes/I2C_MASTER/i2c_master.c ****   ptr_runtime->tx_busy = false;
1051:../BSP/dave_fixes/I2C_MASTER/i2c_master.c **** 
1052:../BSP/dave_fixes/I2C_MASTER/i2c_master.c ****   if (handle->config->rx_cbhandler != NULL)
1053:../BSP/dave_fixes/I2C_MASTER/i2c_master.c ****   {
1054:../BSP/dave_fixes/I2C_MASTER/i2c_master.c ****     /*Execute the 'End of reception' callback function*/
1055:../BSP/dave_fixes/I2C_MASTER/i2c_master.c ****     handle->config->rx_cbhandler();
1056:../BSP/dave_fixes/I2C_MASTER/i2c_master.c ****   }
1057:../BSP/dave_fixes/I2C_MASTER/i2c_master.c **** }
1058:../BSP/dave_fixes/I2C_MASTER/i2c_master.c **** 
1059:../BSP/dave_fixes/I2C_MASTER/i2c_master.c **** 
1060:../BSP/dave_fixes/I2C_MASTER/i2c_master.c **** static void I2C_MASTER_lAbortReceiveIRQ(const I2C_MASTER_t *const handle)
1061:../BSP/dave_fixes/I2C_MASTER/i2c_master.c **** {
1062:../BSP/dave_fixes/I2C_MASTER/i2c_master.c ****   /* Reset the user buffer pointer to null */
1063:../BSP/dave_fixes/I2C_MASTER/i2c_master.c ****   handle->runtime->rx_busy = false;
1064:../BSP/dave_fixes/I2C_MASTER/i2c_master.c ****   handle->runtime->tx_busy = false;
1065:../BSP/dave_fixes/I2C_MASTER/i2c_master.c ****   handle->runtime->rx_data = NULL;
1066:../BSP/dave_fixes/I2C_MASTER/i2c_master.c **** 
1067:../BSP/dave_fixes/I2C_MASTER/i2c_master.c ****   handle->runtime->bus_acquired = false;
1068:../BSP/dave_fixes/I2C_MASTER/i2c_master.c **** 
1069:../BSP/dave_fixes/I2C_MASTER/i2c_master.c ****   /* Disable the receive interrupts */
1070:../BSP/dave_fixes/I2C_MASTER/i2c_master.c ****   if (handle->config->rxFIFO_size != XMC_USIC_CH_FIFO_DISABLED)
1071:../BSP/dave_fixes/I2C_MASTER/i2c_master.c ****   {
1072:../BSP/dave_fixes/I2C_MASTER/i2c_master.c ****     XMC_USIC_CH_RXFIFO_DisableEvent(handle->channel, (uint32_t)((uint32_t)XMC_USIC_CH_RXFIFO_EVENT_
1073:../BSP/dave_fixes/I2C_MASTER/i2c_master.c ****                                                     (uint32_t)XMC_USIC_CH_RXFIFO_EVENT_CONF_ALTERNA
1074:../BSP/dave_fixes/I2C_MASTER/i2c_master.c ****   }
1075:../BSP/dave_fixes/I2C_MASTER/i2c_master.c ****   else
1076:../BSP/dave_fixes/I2C_MASTER/i2c_master.c ****   {
1077:../BSP/dave_fixes/I2C_MASTER/i2c_master.c ****     XMC_USIC_CH_DisableEvent(handle->channel, (uint32_t)((uint32_t)XMC_USIC_CH_EVENT_STANDARD_RECEI
1078:../BSP/dave_fixes/I2C_MASTER/i2c_master.c ****                                                  (uint32_t)XMC_USIC_CH_EVENT_ALTERNATIVE_RECEIVE));
1079:../BSP/dave_fixes/I2C_MASTER/i2c_master.c ****   }
1080:../BSP/dave_fixes/I2C_MASTER/i2c_master.c ****   I2C_MASTER_DisableEvent((I2C_MASTER_t *)handle,((uint32_t)XMC_I2C_CH_EVENT_ACK ));
1081:../BSP/dave_fixes/I2C_MASTER/i2c_master.c **** }
1082:../BSP/dave_fixes/I2C_MASTER/i2c_master.c **** #endif
1083:../BSP/dave_fixes/I2C_MASTER/i2c_master.c **** 
1084:../BSP/dave_fixes/I2C_MASTER/i2c_master.c **** /*
1085:../BSP/dave_fixes/I2C_MASTER/i2c_master.c ****  * Protocol interrupt handling function.
1086:../BSP/dave_fixes/I2C_MASTER/i2c_master.c ****  * The function is common for different instances of the I2C_MASTER APP.
1087:../BSP/dave_fixes/I2C_MASTER/i2c_master.c ****  *
1088:../BSP/dave_fixes/I2C_MASTER/i2c_master.c ****  * @param  handle I2C_MASTER APP handle pointer of type I2C_MASTER_t*
1089:../BSP/dave_fixes/I2C_MASTER/i2c_master.c ****  *
1090:../BSP/dave_fixes/I2C_MASTER/i2c_master.c ****  * @return void
1091:../BSP/dave_fixes/I2C_MASTER/i2c_master.c ****  */
1092:../BSP/dave_fixes/I2C_MASTER/i2c_master.c **** void I2C_MASTER_ProtocolHandler(I2C_MASTER_t * const handle)
1093:../BSP/dave_fixes/I2C_MASTER/i2c_master.c **** {
1094:../BSP/dave_fixes/I2C_MASTER/i2c_master.c ****   uint32_t psr_status;
1095:../BSP/dave_fixes/I2C_MASTER/i2c_master.c **** 
1096:../BSP/dave_fixes/I2C_MASTER/i2c_master.c ****   psr_status = XMC_I2C_CH_GetStatusFlag(handle->channel);
1097:../BSP/dave_fixes/I2C_MASTER/i2c_master.c **** 
1098:../BSP/dave_fixes/I2C_MASTER/i2c_master.c ****   /* Check for nack event */
1099:../BSP/dave_fixes/I2C_MASTER/i2c_master.c ****   if ((handle->config->nack_cbhandler != NULL) && (psr_status & (uint32_t)XMC_I2C_CH_STATUS_FLAG_NA
1100:../BSP/dave_fixes/I2C_MASTER/i2c_master.c ****   {
1101:../BSP/dave_fixes/I2C_MASTER/i2c_master.c ****     I2C_MASTER_ClearFlag(handle,(uint32_t)XMC_I2C_CH_STATUS_FLAG_NACK_RECEIVED);
1102:../BSP/dave_fixes/I2C_MASTER/i2c_master.c ****     handle->config->nack_cbhandler();
1103:../BSP/dave_fixes/I2C_MASTER/i2c_master.c ****   }
1104:../BSP/dave_fixes/I2C_MASTER/i2c_master.c **** 
1105:../BSP/dave_fixes/I2C_MASTER/i2c_master.c ****   /* Check for arbitration lost */
1106:../BSP/dave_fixes/I2C_MASTER/i2c_master.c ****   if ((handle->config->arbitration_cbhandler != NULL) && (psr_status & (uint32_t)XMC_I2C_CH_STATUS_
1107:../BSP/dave_fixes/I2C_MASTER/i2c_master.c ****   {
1108:../BSP/dave_fixes/I2C_MASTER/i2c_master.c ****     I2C_MASTER_ClearFlag(handle,(uint32_t)XMC_I2C_CH_STATUS_FLAG_ARBITRATION_LOST);
1109:../BSP/dave_fixes/I2C_MASTER/i2c_master.c ****     handle->config->arbitration_cbhandler();
1110:../BSP/dave_fixes/I2C_MASTER/i2c_master.c ****   }
1111:../BSP/dave_fixes/I2C_MASTER/i2c_master.c **** 
1112:../BSP/dave_fixes/I2C_MASTER/i2c_master.c ****   /* Check for error detected */
1113:../BSP/dave_fixes/I2C_MASTER/i2c_master.c ****   if ((handle->config->error_cbhandler != NULL) && (psr_status & ((uint32_t)XMC_I2C_CH_STATUS_FLAG_
1114:../BSP/dave_fixes/I2C_MASTER/i2c_master.c ****   {
1115:../BSP/dave_fixes/I2C_MASTER/i2c_master.c ****     I2C_MASTER_ClearFlag(handle,(uint32_t)XMC_I2C_CH_STATUS_FLAG_ERROR);
1116:../BSP/dave_fixes/I2C_MASTER/i2c_master.c ****     handle->config->error_cbhandler();
1117:../BSP/dave_fixes/I2C_MASTER/i2c_master.c ****   }
1118:../BSP/dave_fixes/I2C_MASTER/i2c_master.c **** }
1119:../BSP/dave_fixes/I2C_MASTER/i2c_master.c **** 
1120:../BSP/dave_fixes/I2C_MASTER/i2c_master.c **** #if (I2C_MASTER_INTERRUPT_RX_ENABLED == 1)
1121:../BSP/dave_fixes/I2C_MASTER/i2c_master.c **** /*
1122:../BSP/dave_fixes/I2C_MASTER/i2c_master.c ****  * @brief A local function to reconfigure Receive FIFO with the given size and trigger limit.
1123:../BSP/dave_fixes/I2C_MASTER/i2c_master.c ****  * Size is needed because the FIFO should be disabled before changing the trigger limit by
1124:../BSP/dave_fixes/I2C_MASTER/i2c_master.c ****  * clearing the FIFO size.
1125:../BSP/dave_fixes/I2C_MASTER/i2c_master.c ****  *
1126:../BSP/dave_fixes/I2C_MASTER/i2c_master.c ****  * @param I2C_MASTER_t * pointer to the I2C_MASTER APP handle
1127:../BSP/dave_fixes/I2C_MASTER/i2c_master.c ****  * @param uint32_t  number of bytes to be received.
1128:../BSP/dave_fixes/I2C_MASTER/i2c_master.c ****  *
1129:../BSP/dave_fixes/I2C_MASTER/i2c_master.c ****  * @return void.
1130:../BSP/dave_fixes/I2C_MASTER/i2c_master.c ****  */
1131:../BSP/dave_fixes/I2C_MASTER/i2c_master.c **** 
1132:../BSP/dave_fixes/I2C_MASTER/i2c_master.c **** static void I2C_MASTER_lReconfigureRxFIFO(const I2C_MASTER_t * const handle, uint32_t data_size)
1133:../BSP/dave_fixes/I2C_MASTER/i2c_master.c **** {
1134:../BSP/dave_fixes/I2C_MASTER/i2c_master.c ****   uint32_t minfifo_value;
1135:../BSP/dave_fixes/I2C_MASTER/i2c_master.c ****   uint8_t tx_fifo_size;
1136:../BSP/dave_fixes/I2C_MASTER/i2c_master.c ****   uint8_t rx_fifo_size;
1137:../BSP/dave_fixes/I2C_MASTER/i2c_master.c ****   uint8_t fifo_limit;
1138:../BSP/dave_fixes/I2C_MASTER/i2c_master.c **** 
1139:../BSP/dave_fixes/I2C_MASTER/i2c_master.c ****   rx_fifo_size = (uint8_t)((uint8_t)1 << handle->config->rxFIFO_size);
1140:../BSP/dave_fixes/I2C_MASTER/i2c_master.c **** 
1141:../BSP/dave_fixes/I2C_MASTER/i2c_master.c ****   if ((handle->config->txFIFO_size > 0))
1142:../BSP/dave_fixes/I2C_MASTER/i2c_master.c ****   {
1143:../BSP/dave_fixes/I2C_MASTER/i2c_master.c ****     tx_fifo_size = (uint8_t)((uint8_t)1 << handle->config->txFIFO_size);
1144:../BSP/dave_fixes/I2C_MASTER/i2c_master.c ****   }
1145:../BSP/dave_fixes/I2C_MASTER/i2c_master.c ****   else
1146:../BSP/dave_fixes/I2C_MASTER/i2c_master.c ****   {
1147:../BSP/dave_fixes/I2C_MASTER/i2c_master.c ****     tx_fifo_size = 1U;
1148:../BSP/dave_fixes/I2C_MASTER/i2c_master.c ****   }
1149:../BSP/dave_fixes/I2C_MASTER/i2c_master.c **** 
1150:../BSP/dave_fixes/I2C_MASTER/i2c_master.c ****   minfifo_value = (uint32_t)(calculate_minfifosize((uint32_t)tx_fifo_size, (uint32_t)rx_fifo_size))
1151:../BSP/dave_fixes/I2C_MASTER/i2c_master.c **** 
1152:../BSP/dave_fixes/I2C_MASTER/i2c_master.c ****   fifo_limit = (uint8_t)(calculate_minfifosize(data_size, minfifo_value));
1153:../BSP/dave_fixes/I2C_MASTER/i2c_master.c **** 
1154:../BSP/dave_fixes/I2C_MASTER/i2c_master.c ****   /* Set the limit value */
1155:../BSP/dave_fixes/I2C_MASTER/i2c_master.c ****   I2C_MASTER_SetRXFIFOTriggerLimit((I2C_MASTER_t *)handle, handle->config->rxFIFO_size, ((uint32_t)
1156:../BSP/dave_fixes/I2C_MASTER/i2c_master.c **** }
1157:../BSP/dave_fixes/I2C_MASTER/i2c_master.c **** #endif
1158:../BSP/dave_fixes/I2C_MASTER/i2c_master.c **** 
1159:../BSP/dave_fixes/I2C_MASTER/i2c_master.c **** /**************************************************************************************************
1160:../BSP/dave_fixes/I2C_MASTER/i2c_master.c ****  * @brief Aborts the ongoing data transmission.
1161:../BSP/dave_fixes/I2C_MASTER/i2c_master.c ****  * @param I2C_MASTER_t*  I2C_MASTER APP handle pointer of type I2C_MASTER_t
1162:../BSP/dave_fixes/I2C_MASTER/i2c_master.c ****  * @return I2C_MASTER_STATUS_t
1163:../BSP/dave_fixes/I2C_MASTER/i2c_master.c ****  *
1164:../BSP/dave_fixes/I2C_MASTER/i2c_master.c ****  * Details of function:
1165:../BSP/dave_fixes/I2C_MASTER/i2c_master.c ****  * If there is a transmission in progress, it will be stopped. If transmit FIFO is used,
1166:../BSP/dave_fixes/I2C_MASTER/i2c_master.c ****  * the existing data will be flushed. After the transmission is stopped, user can start
1167:../BSP/dave_fixes/I2C_MASTER/i2c_master.c ****  * a new transmission without delay.
1168:../BSP/dave_fixes/I2C_MASTER/i2c_master.c ****  **************************************************************************************************
1169:../BSP/dave_fixes/I2C_MASTER/i2c_master.c **** I2C_MASTER_STATUS_t I2C_MASTER_AbortTransmit(const I2C_MASTER_t *const handle)
1170:../BSP/dave_fixes/I2C_MASTER/i2c_master.c **** {
1171:../BSP/dave_fixes/I2C_MASTER/i2c_master.c ****   I2C_MASTER_STATUS_t status;
1172:../BSP/dave_fixes/I2C_MASTER/i2c_master.c **** 
1173:../BSP/dave_fixes/I2C_MASTER/i2c_master.c ****   status = I2C_MASTER_STATUS_SUCCESS;
1174:../BSP/dave_fixes/I2C_MASTER/i2c_master.c **** 
1175:../BSP/dave_fixes/I2C_MASTER/i2c_master.c ****   if (handle->config->transmit_mode == I2C_MASTER_TRANSFER_MODE_INTERRUPT)
1176:../BSP/dave_fixes/I2C_MASTER/i2c_master.c ****   {
1177:../BSP/dave_fixes/I2C_MASTER/i2c_master.c **** #if (I2C_MASTER_INTERRUPT_TX_ENABLED == 1)
1178:../BSP/dave_fixes/I2C_MASTER/i2c_master.c ****     I2C_MASTER_AbortTransmitIRQ(handle);
1179:../BSP/dave_fixes/I2C_MASTER/i2c_master.c **** #endif
1180:../BSP/dave_fixes/I2C_MASTER/i2c_master.c ****   }
1181:../BSP/dave_fixes/I2C_MASTER/i2c_master.c ****   else if (handle->config->transmit_mode == I2C_MASTER_TRANSFER_MODE_DMA)
1182:../BSP/dave_fixes/I2C_MASTER/i2c_master.c ****   {
1183:../BSP/dave_fixes/I2C_MASTER/i2c_master.c **** #if (I2C_MASTER_DMA_TX_ENABLED == 1)
1184:../BSP/dave_fixes/I2C_MASTER/i2c_master.c ****     I2C_MASTER_lAbortTransmitDMA(handle);
1185:../BSP/dave_fixes/I2C_MASTER/i2c_master.c **** #endif
1186:../BSP/dave_fixes/I2C_MASTER/i2c_master.c ****   }
1187:../BSP/dave_fixes/I2C_MASTER/i2c_master.c ****   else
1188:../BSP/dave_fixes/I2C_MASTER/i2c_master.c ****   {
1189:../BSP/dave_fixes/I2C_MASTER/i2c_master.c ****     status = I2C_MASTER_STATUS_FAILURE;
1190:../BSP/dave_fixes/I2C_MASTER/i2c_master.c ****   }
1191:../BSP/dave_fixes/I2C_MASTER/i2c_master.c ****   handle->channel->PSCR |= USIC_CH_PSR_IICMode_WTDF_Msk; /*clear WDTF*/
1192:../BSP/dave_fixes/I2C_MASTER/i2c_master.c ****   handle->channel->FMR = 0x00000002U;/*clear TDV*/
1193:../BSP/dave_fixes/I2C_MASTER/i2c_master.c **** 
1194:../BSP/dave_fixes/I2C_MASTER/i2c_master.c ****   return (status);
1195:../BSP/dave_fixes/I2C_MASTER/i2c_master.c **** }
1196:../BSP/dave_fixes/I2C_MASTER/i2c_master.c **** 
1197:../BSP/dave_fixes/I2C_MASTER/i2c_master.c **** /**************************************************************************************************
1198:../BSP/dave_fixes/I2C_MASTER/i2c_master.c ****  * @brief Aborts the ongoing data reception.
1199:../BSP/dave_fixes/I2C_MASTER/i2c_master.c ****  * @param I2C_MASTER_t* I2C_MASTER APP handle pointer of type I2C_MASTER_t
1200:../BSP/dave_fixes/I2C_MASTER/i2c_master.c ****  * @return I2C_MASTER_STATUS_t
1201:../BSP/dave_fixes/I2C_MASTER/i2c_master.c ****  *
1202:../BSP/dave_fixes/I2C_MASTER/i2c_master.c ****  * Details of function:
1203:../BSP/dave_fixes/I2C_MASTER/i2c_master.c ****  * If a reception is in progress, it will be stopped. When a reception request
1204:../BSP/dave_fixes/I2C_MASTER/i2c_master.c ****  * is active, user will not be able to place a new receive request till the active
1205:../BSP/dave_fixes/I2C_MASTER/i2c_master.c ****  * reception is complete. This API can stop the progressing reception to make
1206:../BSP/dave_fixes/I2C_MASTER/i2c_master.c ****  * a new receive request.
1207:../BSP/dave_fixes/I2C_MASTER/i2c_master.c ****  **************************************************************************************************
1208:../BSP/dave_fixes/I2C_MASTER/i2c_master.c **** I2C_MASTER_STATUS_t I2C_MASTER_AbortReceive(const I2C_MASTER_t *const handle)
1209:../BSP/dave_fixes/I2C_MASTER/i2c_master.c **** {
1210:../BSP/dave_fixes/I2C_MASTER/i2c_master.c ****   I2C_MASTER_STATUS_t status;
1211:../BSP/dave_fixes/I2C_MASTER/i2c_master.c **** 
1212:../BSP/dave_fixes/I2C_MASTER/i2c_master.c ****   status = I2C_MASTER_STATUS_SUCCESS;
1213:../BSP/dave_fixes/I2C_MASTER/i2c_master.c **** 
1214:../BSP/dave_fixes/I2C_MASTER/i2c_master.c ****   if (handle->config->receive_mode == I2C_MASTER_TRANSFER_MODE_INTERRUPT)
1215:../BSP/dave_fixes/I2C_MASTER/i2c_master.c ****   {
1216:../BSP/dave_fixes/I2C_MASTER/i2c_master.c **** #if (I2C_MASTER_INTERRUPT_RX_ENABLED == 1)
1217:../BSP/dave_fixes/I2C_MASTER/i2c_master.c ****     I2C_MASTER_lAbortReceiveIRQ(handle);
1218:../BSP/dave_fixes/I2C_MASTER/i2c_master.c **** #endif
1219:../BSP/dave_fixes/I2C_MASTER/i2c_master.c ****   }
1220:../BSP/dave_fixes/I2C_MASTER/i2c_master.c ****   else if (handle->config->receive_mode == I2C_MASTER_TRANSFER_MODE_DMA)
1221:../BSP/dave_fixes/I2C_MASTER/i2c_master.c ****   {
1222:../BSP/dave_fixes/I2C_MASTER/i2c_master.c **** #if (I2C_MASTER_DMA_RX_ENABLED == 1)
1223:../BSP/dave_fixes/I2C_MASTER/i2c_master.c ****     I2C_MASTER_lAbortReceiveDMA(handle);
1224:../BSP/dave_fixes/I2C_MASTER/i2c_master.c **** #endif
1225:../BSP/dave_fixes/I2C_MASTER/i2c_master.c ****   }
1226:../BSP/dave_fixes/I2C_MASTER/i2c_master.c ****   else
1227:../BSP/dave_fixes/I2C_MASTER/i2c_master.c ****   {
1228:../BSP/dave_fixes/I2C_MASTER/i2c_master.c ****     status = I2C_MASTER_STATUS_FAILURE;
1229:../BSP/dave_fixes/I2C_MASTER/i2c_master.c ****   }
1230:../BSP/dave_fixes/I2C_MASTER/i2c_master.c **** 
1231:../BSP/dave_fixes/I2C_MASTER/i2c_master.c ****   return (status);
1232:../BSP/dave_fixes/I2C_MASTER/i2c_master.c **** }
1233:../BSP/dave_fixes/I2C_MASTER/i2c_master.c **** 
1234:../BSP/dave_fixes/I2C_MASTER/i2c_master.c **** #if (I2C_MASTER_DMA_RX_ENABLED == 1)
1235:../BSP/dave_fixes/I2C_MASTER/i2c_master.c **** I2C_MASTER_STATUS_t I2C_MASTER_StartReceiveDMA(const I2C_MASTER_t *const handle, uint32_t data_coun
1236:../BSP/dave_fixes/I2C_MASTER/i2c_master.c **** {
1237:../BSP/dave_fixes/I2C_MASTER/i2c_master.c ****   I2C_MASTER_STATUS_t status;
1238:../BSP/dave_fixes/I2C_MASTER/i2c_master.c ****   const I2C_MASTER_DMA_CONFIG_t *rx_dma_config;
1239:../BSP/dave_fixes/I2C_MASTER/i2c_master.c ****   const GLOBAL_DMA_t *rx_dma_config_global;
1240:../BSP/dave_fixes/I2C_MASTER/i2c_master.c **** 
1241:../BSP/dave_fixes/I2C_MASTER/i2c_master.c **** #if (I2C_MASTER_DMA_TX_ENABLED == 1)
1242:../BSP/dave_fixes/I2C_MASTER/i2c_master.c ****   const I2C_MASTER_DMA_CONFIG_t *tx_dma_config;
1243:../BSP/dave_fixes/I2C_MASTER/i2c_master.c ****   const GLOBAL_DMA_t *tx_dma_config_global;
1244:../BSP/dave_fixes/I2C_MASTER/i2c_master.c ****   uint8_t tx_ch_num;
1245:../BSP/dave_fixes/I2C_MASTER/i2c_master.c ****   tx_ch_num = 0U;
1246:../BSP/dave_fixes/I2C_MASTER/i2c_master.c ****   tx_dma_config = handle->config->transmit_dma_config;
1247:../BSP/dave_fixes/I2C_MASTER/i2c_master.c ****   tx_dma_config_global = handle->config->transmit_dma_config->global_dma;
1248:../BSP/dave_fixes/I2C_MASTER/i2c_master.c **** #endif
1249:../BSP/dave_fixes/I2C_MASTER/i2c_master.c **** 
1250:../BSP/dave_fixes/I2C_MASTER/i2c_master.c ****   status = I2C_MASTER_STATUS_BUSY;
1251:../BSP/dave_fixes/I2C_MASTER/i2c_master.c ****   rx_dma_config = handle->config->receive_dma_config;
1252:../BSP/dave_fixes/I2C_MASTER/i2c_master.c ****   rx_dma_config_global = handle->config->receive_dma_config->global_dma;
1253:../BSP/dave_fixes/I2C_MASTER/i2c_master.c ****   
1254:../BSP/dave_fixes/I2C_MASTER/i2c_master.c ****   if ((addr == NULL) || (data_count > I2C_DMA_MAX_BLOCK_SIZE) || (data_count == 0U))
1255:../BSP/dave_fixes/I2C_MASTER/i2c_master.c ****   {
1256:../BSP/dave_fixes/I2C_MASTER/i2c_master.c ****     status = I2C_MASTER_STATUS_FAILURE;
1257:../BSP/dave_fixes/I2C_MASTER/i2c_master.c ****   }
1258:../BSP/dave_fixes/I2C_MASTER/i2c_master.c ****   else
1259:../BSP/dave_fixes/I2C_MASTER/i2c_master.c ****   {
1260:../BSP/dave_fixes/I2C_MASTER/i2c_master.c ****     if (handle->runtime->rx_busy == false)
1261:../BSP/dave_fixes/I2C_MASTER/i2c_master.c ****     {
1262:../BSP/dave_fixes/I2C_MASTER/i2c_master.c ****       handle->runtime->rx_busy = true;
1263:../BSP/dave_fixes/I2C_MASTER/i2c_master.c ****     I2C_MASTER_DisableEvent((I2C_MASTER_t *)handle, (uint32_t)XMC_I2C_CH_EVENT_ACK);
1264:../BSP/dave_fixes/I2C_MASTER/i2c_master.c ****     handle->runtime->rx_dma_data_count = data_count;
1265:../BSP/dave_fixes/I2C_MASTER/i2c_master.c **** 
1266:../BSP/dave_fixes/I2C_MASTER/i2c_master.c ****     XMC_USIC_CH_EnableEvent(handle->channel, ((uint32_t)XMC_USIC_CH_EVENT_STANDARD_RECEIVE |
1267:../BSP/dave_fixes/I2C_MASTER/i2c_master.c ****                                               (uint32_t)XMC_USIC_CH_EVENT_ALTERNATIVE_RECEIVE));
1268:../BSP/dave_fixes/I2C_MASTER/i2c_master.c **** #if (I2C_MASTER_DMA_TX_ENABLED == 1)
1269:../BSP/dave_fixes/I2C_MASTER/i2c_master.c ****     XMC_DMA_CH_SetBlockSize(rx_dma_config_global->dma, rx_dma_config->dma_channel, data_count);
1270:../BSP/dave_fixes/I2C_MASTER/i2c_master.c **** #else
1271:../BSP/dave_fixes/I2C_MASTER/i2c_master.c ****     XMC_DMA_CH_SetBlockSize(rx_dma_config_global->dma, rx_dma_config->dma_channel, 1);
1272:../BSP/dave_fixes/I2C_MASTER/i2c_master.c **** #endif
1273:../BSP/dave_fixes/I2C_MASTER/i2c_master.c ****     XMC_DMA_CH_SetSourceAddress(rx_dma_config_global->dma, rx_dma_config->dma_channel, (uint32_t)&h
1274:../BSP/dave_fixes/I2C_MASTER/i2c_master.c ****     XMC_DMA_CH_SetDestinationAddress(rx_dma_config_global->dma, rx_dma_config->dma_channel, (uint32
1275:../BSP/dave_fixes/I2C_MASTER/i2c_master.c **** 
1276:../BSP/dave_fixes/I2C_MASTER/i2c_master.c ****     if (handle->config->transmit_mode == I2C_MASTER_TRANSFER_MODE_DMA)
1277:../BSP/dave_fixes/I2C_MASTER/i2c_master.c ****     {
1278:../BSP/dave_fixes/I2C_MASTER/i2c_master.c **** #if (I2C_MASTER_DMA_TX_ENABLED == 1)
1279:../BSP/dave_fixes/I2C_MASTER/i2c_master.c ****     /* ACK TDF value */
1280:../BSP/dave_fixes/I2C_MASTER/i2c_master.c ****       ack_buf[0] = (uint16_t)I2C_MASTER_TDF_RECEIVE_ACK;
1281:../BSP/dave_fixes/I2C_MASTER/i2c_master.c ****       nack_buf[0] = (uint16_t)I2C_MASTER_TDF_RECEIVE_NACK;
1282:../BSP/dave_fixes/I2C_MASTER/i2c_master.c ****     handle->runtime->direction = (uint32_t)I2C_MASTER_DIRECTION_RECEIVE;
1283:../BSP/dave_fixes/I2C_MASTER/i2c_master.c ****     /* need to make source reload for tx, transfer width for tx= 2 bytes */
1284:../BSP/dave_fixes/I2C_MASTER/i2c_master.c ****     tx_ch_num = handle->config->transmit_dma_config->dma_channel;
1285:../BSP/dave_fixes/I2C_MASTER/i2c_master.c ****     /* clear the bits */
1286:../BSP/dave_fixes/I2C_MASTER/i2c_master.c ****     tx_dma_config_global->dma->CH[tx_ch_num].CTLL &= ~((uint32_t)I2C_MASTER_DMA_SRC_DST_TR_WIDTH_MA
1287:../BSP/dave_fixes/I2C_MASTER/i2c_master.c ****                                                         (uint32_t)I2C_MASTER_DMA_SRC_ADDR_INC_MASK)
1288:../BSP/dave_fixes/I2C_MASTER/i2c_master.c **** 
1289:../BSP/dave_fixes/I2C_MASTER/i2c_master.c ****     /* set the src and dest transf width as XMC_DMA_CH_TRANSFER_WIDTH_16 */
1290:../BSP/dave_fixes/I2C_MASTER/i2c_master.c ****     tx_dma_config_global->dma->CH[tx_ch_num].CTLL |= (((uint32_t)XMC_DMA_CH_TRANSFER_WIDTH_16 <<
1291:../BSP/dave_fixes/I2C_MASTER/i2c_master.c ****                                                         (uint32_t)I2C_MASTER_DMA_DST_TRANSFER_WIDTH
1292:../BSP/dave_fixes/I2C_MASTER/i2c_master.c ****                                                        ((uint32_t)XMC_DMA_CH_TRANSFER_WIDTH_16 <<
1293:../BSP/dave_fixes/I2C_MASTER/i2c_master.c ****                                                       (uint32_t)I2C_MASTER_DMA_SRC_TRANSFER_WIDTH_P
1294:../BSP/dave_fixes/I2C_MASTER/i2c_master.c **** 
1295:../BSP/dave_fixes/I2C_MASTER/i2c_master.c ****       /* set the tx channel src address inc mode to XMC_DMA_CH_ADDRESS_COUNT_MODE_NO_CHANGE */
1296:../BSP/dave_fixes/I2C_MASTER/i2c_master.c ****     tx_dma_config_global->dma->CH[tx_ch_num].CTLL |= ((uint32_t)XMC_DMA_CH_ADDRESS_COUNT_MODE_NO_CH
1297:../BSP/dave_fixes/I2C_MASTER/i2c_master.c ****                                                        (uint32_t)I2C_MASTER_DMA_SRC_ADDR_INC_POS);
1298:../BSP/dave_fixes/I2C_MASTER/i2c_master.c **** 
1299:../BSP/dave_fixes/I2C_MASTER/i2c_master.c **** 
1300:../BSP/dave_fixes/I2C_MASTER/i2c_master.c **** 
1301:../BSP/dave_fixes/I2C_MASTER/i2c_master.c ****       XMC_USIC_CH_EnableEvent(handle->channel, (uint32_t)XMC_USIC_CH_EVENT_RECEIVE_START);
1302:../BSP/dave_fixes/I2C_MASTER/i2c_master.c **** 
1303:../BSP/dave_fixes/I2C_MASTER/i2c_master.c **** 
1304:../BSP/dave_fixes/I2C_MASTER/i2c_master.c **** 
1305:../BSP/dave_fixes/I2C_MASTER/i2c_master.c ****         if (data_count == 1U)
1306:../BSP/dave_fixes/I2C_MASTER/i2c_master.c ****     {
1307:../BSP/dave_fixes/I2C_MASTER/i2c_master.c ****           XMC_DMA_CH_SetSourceAddress(tx_dma_config_global->dma, tx_dma_config->dma_channel, (uint3
1308:../BSP/dave_fixes/I2C_MASTER/i2c_master.c ****           XMC_DMA_CH_SetBlockSize(tx_dma_config_global->dma, tx_dma_config->dma_channel, 1);
1309:../BSP/dave_fixes/I2C_MASTER/i2c_master.c ****     }
1310:../BSP/dave_fixes/I2C_MASTER/i2c_master.c ****         else
1311:../BSP/dave_fixes/I2C_MASTER/i2c_master.c ****         {
1312:../BSP/dave_fixes/I2C_MASTER/i2c_master.c ****           XMC_DMA_CH_SetSourceAddress(tx_dma_config_global->dma, tx_dma_config->dma_channel, (uint3
1313:../BSP/dave_fixes/I2C_MASTER/i2c_master.c ****           XMC_DMA_CH_SetBlockSize(tx_dma_config_global->dma, tx_dma_config->dma_channel, data_count
1314:../BSP/dave_fixes/I2C_MASTER/i2c_master.c ****         }
1315:../BSP/dave_fixes/I2C_MASTER/i2c_master.c ****         XMC_DMA_CH_SetDestinationAddress(tx_dma_config_global->dma, tx_dma_config->dma_channel,
1316:../BSP/dave_fixes/I2C_MASTER/i2c_master.c ****                                      (uint32_t)&handle->channel->TBUF[0]);
1317:../BSP/dave_fixes/I2C_MASTER/i2c_master.c **** 
1318:../BSP/dave_fixes/I2C_MASTER/i2c_master.c **** 
1319:../BSP/dave_fixes/I2C_MASTER/i2c_master.c **** 
1320:../BSP/dave_fixes/I2C_MASTER/i2c_master.c **** 
1321:../BSP/dave_fixes/I2C_MASTER/i2c_master.c ****         XMC_DMA_CH_Enable(tx_dma_config_global->dma, tx_dma_config->dma_channel);
1322:../BSP/dave_fixes/I2C_MASTER/i2c_master.c **** #endif
1323:../BSP/dave_fixes/I2C_MASTER/i2c_master.c ****     }
1324:../BSP/dave_fixes/I2C_MASTER/i2c_master.c ****       else
1325:../BSP/dave_fixes/I2C_MASTER/i2c_master.c ****       {
1326:../BSP/dave_fixes/I2C_MASTER/i2c_master.c ****         if (data_count > 1U)
1327:../BSP/dave_fixes/I2C_MASTER/i2c_master.c ****         {
1328:../BSP/dave_fixes/I2C_MASTER/i2c_master.c ****           I2C_MASTER_ReceiveACK((I2C_MASTER_t * const)handle);
1329:../BSP/dave_fixes/I2C_MASTER/i2c_master.c ****         }
1330:../BSP/dave_fixes/I2C_MASTER/i2c_master.c ****         else
1331:../BSP/dave_fixes/I2C_MASTER/i2c_master.c ****         {
1332:../BSP/dave_fixes/I2C_MASTER/i2c_master.c ****       I2C_MASTER_ReceiveNACK((I2C_MASTER_t * const)handle);
1333:../BSP/dave_fixes/I2C_MASTER/i2c_master.c ****     }
1334:../BSP/dave_fixes/I2C_MASTER/i2c_master.c **** 
1335:../BSP/dave_fixes/I2C_MASTER/i2c_master.c ****     }
1336:../BSP/dave_fixes/I2C_MASTER/i2c_master.c ****     XMC_DMA_CH_Enable(rx_dma_config_global->dma, rx_dma_config->dma_channel);
1337:../BSP/dave_fixes/I2C_MASTER/i2c_master.c **** 
1338:../BSP/dave_fixes/I2C_MASTER/i2c_master.c ****     status = I2C_MASTER_STATUS_SUCCESS;
1339:../BSP/dave_fixes/I2C_MASTER/i2c_master.c **** 
1340:../BSP/dave_fixes/I2C_MASTER/i2c_master.c ****     } /* end of if (handle->runtime->rx_busy == false) */
1341:../BSP/dave_fixes/I2C_MASTER/i2c_master.c ****   } /* end of else */
1342:../BSP/dave_fixes/I2C_MASTER/i2c_master.c **** 
1343:../BSP/dave_fixes/I2C_MASTER/i2c_master.c ****   return (status);
1344:../BSP/dave_fixes/I2C_MASTER/i2c_master.c **** }
1345:../BSP/dave_fixes/I2C_MASTER/i2c_master.c **** /**************************************************************************************************
1346:../BSP/dave_fixes/I2C_MASTER/i2c_master.c ****  * @brief Aborts the ongoing data reception.
1347:../BSP/dave_fixes/I2C_MASTER/i2c_master.c ****  * @param I2C_MASTER_t* I2C_MASTER APP handle pointer of type I2C_MASTER_t
1348:../BSP/dave_fixes/I2C_MASTER/i2c_master.c ****  * @return None
1349:../BSP/dave_fixes/I2C_MASTER/i2c_master.c ****  *
1350:../BSP/dave_fixes/I2C_MASTER/i2c_master.c ****  * Details of function:
1351:../BSP/dave_fixes/I2C_MASTER/i2c_master.c ****  * If a reception is in progress, it will be stopped. When a reception request
1352:../BSP/dave_fixes/I2C_MASTER/i2c_master.c ****  * is active, user will not be able to place a new receive request till the active
1353:../BSP/dave_fixes/I2C_MASTER/i2c_master.c ****  * reception is complete. This API can stop the progressing reception to make
1354:../BSP/dave_fixes/I2C_MASTER/i2c_master.c ****  * a new receive request.
1355:../BSP/dave_fixes/I2C_MASTER/i2c_master.c ****  **************************************************************************************************
1356:../BSP/dave_fixes/I2C_MASTER/i2c_master.c **** static void I2C_MASTER_lAbortReceiveDMA(const I2C_MASTER_t *const handle)
1357:../BSP/dave_fixes/I2C_MASTER/i2c_master.c **** {
1358:../BSP/dave_fixes/I2C_MASTER/i2c_master.c ****   const I2C_MASTER_DMA_CONFIG_t *rx_dma_config;
1359:../BSP/dave_fixes/I2C_MASTER/i2c_master.c ****   const GLOBAL_DMA_t *rx_dma_config_global;
1360:../BSP/dave_fixes/I2C_MASTER/i2c_master.c **** #if (I2C_MASTER_DMA_TX_ENABLED == 1)
1361:../BSP/dave_fixes/I2C_MASTER/i2c_master.c ****   const I2C_MASTER_DMA_CONFIG_t *tx_dma_config;
1362:../BSP/dave_fixes/I2C_MASTER/i2c_master.c ****   const GLOBAL_DMA_t *tx_dma_config_global;
1363:../BSP/dave_fixes/I2C_MASTER/i2c_master.c **** #endif
1364:../BSP/dave_fixes/I2C_MASTER/i2c_master.c **** 
1365:../BSP/dave_fixes/I2C_MASTER/i2c_master.c ****   rx_dma_config = handle->config->receive_dma_config;
1366:../BSP/dave_fixes/I2C_MASTER/i2c_master.c ****   rx_dma_config_global = handle->config->receive_dma_config->global_dma;
1367:../BSP/dave_fixes/I2C_MASTER/i2c_master.c **** #if (I2C_MASTER_DMA_TX_ENABLED == 1)
1368:../BSP/dave_fixes/I2C_MASTER/i2c_master.c ****   tx_dma_config = handle->config->transmit_dma_config;
1369:../BSP/dave_fixes/I2C_MASTER/i2c_master.c ****   tx_dma_config_global = handle->config->transmit_dma_config->global_dma;
1370:../BSP/dave_fixes/I2C_MASTER/i2c_master.c **** #endif
1371:../BSP/dave_fixes/I2C_MASTER/i2c_master.c **** 
1372:../BSP/dave_fixes/I2C_MASTER/i2c_master.c ****   /* Reset the user buffer pointer to null */
1373:../BSP/dave_fixes/I2C_MASTER/i2c_master.c ****   handle->runtime->rx_busy = false;
1374:../BSP/dave_fixes/I2C_MASTER/i2c_master.c ****   handle->runtime->rx_dma_data_index = 0U;
1375:../BSP/dave_fixes/I2C_MASTER/i2c_master.c **** 
1376:../BSP/dave_fixes/I2C_MASTER/i2c_master.c ****   if (XMC_DMA_CH_IsEnabled(rx_dma_config_global->dma, rx_dma_config->dma_channel))
1377:../BSP/dave_fixes/I2C_MASTER/i2c_master.c ****   {
1378:../BSP/dave_fixes/I2C_MASTER/i2c_master.c ****     XMC_DMA_CH_Disable(rx_dma_config_global->dma, rx_dma_config->dma_channel);
1379:../BSP/dave_fixes/I2C_MASTER/i2c_master.c ****   }
1380:../BSP/dave_fixes/I2C_MASTER/i2c_master.c **** #if (I2C_MASTER_DMA_TX_ENABLED == 1)
1381:../BSP/dave_fixes/I2C_MASTER/i2c_master.c ****   if (handle->config->transmit_mode == I2C_MASTER_TRANSFER_MODE_DMA)
1382:../BSP/dave_fixes/I2C_MASTER/i2c_master.c ****   {
1383:../BSP/dave_fixes/I2C_MASTER/i2c_master.c ****     if (XMC_DMA_CH_IsEnabled(tx_dma_config_global->dma, tx_dma_config->dma_channel))
1384:../BSP/dave_fixes/I2C_MASTER/i2c_master.c ****     {
1385:../BSP/dave_fixes/I2C_MASTER/i2c_master.c ****       XMC_DMA_CH_Disable(tx_dma_config_global->dma, tx_dma_config->dma_channel);
1386:../BSP/dave_fixes/I2C_MASTER/i2c_master.c ****     }
1387:../BSP/dave_fixes/I2C_MASTER/i2c_master.c ****     while (XMC_DMA_CH_IsEnabled(tx_dma_config_global->dma, tx_dma_config->dma_channel) == 1U){}
1388:../BSP/dave_fixes/I2C_MASTER/i2c_master.c ****   }
1389:../BSP/dave_fixes/I2C_MASTER/i2c_master.c **** #endif
1390:../BSP/dave_fixes/I2C_MASTER/i2c_master.c **** 
1391:../BSP/dave_fixes/I2C_MASTER/i2c_master.c ****   while (XMC_DMA_CH_IsEnabled(rx_dma_config_global->dma, rx_dma_config->dma_channel) == 1U){}
1392:../BSP/dave_fixes/I2C_MASTER/i2c_master.c **** 
1393:../BSP/dave_fixes/I2C_MASTER/i2c_master.c **** 
1394:../BSP/dave_fixes/I2C_MASTER/i2c_master.c ****   XMC_USIC_CH_DisableEvent(handle->channel, ((uint32_t)XMC_USIC_CH_EVENT_STANDARD_RECEIVE |
1395:../BSP/dave_fixes/I2C_MASTER/i2c_master.c ****                                              (uint32_t)XMC_USIC_CH_EVENT_ALTERNATIVE_RECEIVE));
1396:../BSP/dave_fixes/I2C_MASTER/i2c_master.c **** }
1397:../BSP/dave_fixes/I2C_MASTER/i2c_master.c **** #endif
1398:../BSP/dave_fixes/I2C_MASTER/i2c_master.c **** 
1399:../BSP/dave_fixes/I2C_MASTER/i2c_master.c **** #if (I2C_MASTER_DMA_TX_ENABLED == 1)
1400:../BSP/dave_fixes/I2C_MASTER/i2c_master.c **** I2C_MASTER_STATUS_t I2C_MASTER_StartTransmitDMA(const I2C_MASTER_t *const handle, uint32_t block_si
1401:../BSP/dave_fixes/I2C_MASTER/i2c_master.c **** {
1402:../BSP/dave_fixes/I2C_MASTER/i2c_master.c ****   I2C_MASTER_STATUS_t status;
1403:../BSP/dave_fixes/I2C_MASTER/i2c_master.c ****   const I2C_MASTER_DMA_CONFIG_t *tx_dma_config;
1404:../BSP/dave_fixes/I2C_MASTER/i2c_master.c ****   const GLOBAL_DMA_t *tx_dma_config_global;
1405:../BSP/dave_fixes/I2C_MASTER/i2c_master.c ****   uint8_t tx_ch_num;
1406:../BSP/dave_fixes/I2C_MASTER/i2c_master.c ****  
1407:../BSP/dave_fixes/I2C_MASTER/i2c_master.c ****   status = I2C_MASTER_STATUS_BUSY;
1408:../BSP/dave_fixes/I2C_MASTER/i2c_master.c ****  
1409:../BSP/dave_fixes/I2C_MASTER/i2c_master.c ****   tx_dma_config = handle->config->transmit_dma_config;
1410:../BSP/dave_fixes/I2C_MASTER/i2c_master.c ****   tx_dma_config_global = handle->config->transmit_dma_config->global_dma;
1411:../BSP/dave_fixes/I2C_MASTER/i2c_master.c ****   
1412:../BSP/dave_fixes/I2C_MASTER/i2c_master.c ****   tx_ch_num = 0U;
1413:../BSP/dave_fixes/I2C_MASTER/i2c_master.c ****  
1414:../BSP/dave_fixes/I2C_MASTER/i2c_master.c ****   if ((addr == NULL) || (block_size > I2C_DMA_MAX_BLOCK_SIZE) || (!block_size))
1415:../BSP/dave_fixes/I2C_MASTER/i2c_master.c ****   {
1416:../BSP/dave_fixes/I2C_MASTER/i2c_master.c ****     status = I2C_MASTER_STATUS_FAILURE;
1417:../BSP/dave_fixes/I2C_MASTER/i2c_master.c ****   }
1418:../BSP/dave_fixes/I2C_MASTER/i2c_master.c ****   else
1419:../BSP/dave_fixes/I2C_MASTER/i2c_master.c ****   {
1420:../BSP/dave_fixes/I2C_MASTER/i2c_master.c ****     if (handle->runtime->tx_busy == false)
1421:../BSP/dave_fixes/I2C_MASTER/i2c_master.c ****     {
1422:../BSP/dave_fixes/I2C_MASTER/i2c_master.c ****       tx_ch_num = handle->config->transmit_dma_config->dma_channel;
1423:../BSP/dave_fixes/I2C_MASTER/i2c_master.c ****       /* clear the bits */
1424:../BSP/dave_fixes/I2C_MASTER/i2c_master.c ****       tx_dma_config_global->dma->CH[tx_ch_num].CTLL &= ~((uint32_t)I2C_MASTER_DMA_SRC_DST_TR_WIDTH_
1425:../BSP/dave_fixes/I2C_MASTER/i2c_master.c ****       /* set the src and dest transf width as XMC_DMA_CH_TRANSFER_WIDTH_8 */
1426:../BSP/dave_fixes/I2C_MASTER/i2c_master.c ****       tx_dma_config_global->dma->CH[tx_ch_num].CTLL |= (((uint32_t)XMC_DMA_CH_TRANSFER_WIDTH_8 << (
1427:../BSP/dave_fixes/I2C_MASTER/i2c_master.c ****                                                         ((uint32_t)XMC_DMA_CH_TRANSFER_WIDTH_8 << (
1428:../BSP/dave_fixes/I2C_MASTER/i2c_master.c ****       /* set the tx channel src address inc mode to XMC_DMA_CH_ADDRESS_COUNT_MODE_INCREMENT */
1429:../BSP/dave_fixes/I2C_MASTER/i2c_master.c ****       tx_dma_config_global->dma->CH[tx_ch_num].CTLL |= ((uint32_t)XMC_DMA_CH_ADDRESS_COUNT_MODE_INC
1430:../BSP/dave_fixes/I2C_MASTER/i2c_master.c ****  
1431:../BSP/dave_fixes/I2C_MASTER/i2c_master.c ****       XMC_DMA_ClearRequestLine(tx_dma_config_global->dma, handle->config->transmit_dma_config->dma_
1432:../BSP/dave_fixes/I2C_MASTER/i2c_master.c ****       I2C_MASTER_EnableEvent((I2C_MASTER_t * const)handle, (uint32_t)XMC_I2C_CH_EVENT_ACK);
1433:../BSP/dave_fixes/I2C_MASTER/i2c_master.c ****  
1434:../BSP/dave_fixes/I2C_MASTER/i2c_master.c ****       handle->runtime->direction = (uint32_t)I2C_MASTER_DIRECTION_TRANSMIT;
1435:../BSP/dave_fixes/I2C_MASTER/i2c_master.c ****       handle->runtime->tx_busy = true;
1436:../BSP/dave_fixes/I2C_MASTER/i2c_master.c **** 
1437:../BSP/dave_fixes/I2C_MASTER/i2c_master.c ****       XMC_I2C_CH_MasterTransmit(handle->channel,*addr);
1438:../BSP/dave_fixes/I2C_MASTER/i2c_master.c ****       block_size--;
1439:../BSP/dave_fixes/I2C_MASTER/i2c_master.c ****  
1440:../BSP/dave_fixes/I2C_MASTER/i2c_master.c ****       if (block_size)
1441:../BSP/dave_fixes/I2C_MASTER/i2c_master.c ****       {
1442:../BSP/dave_fixes/I2C_MASTER/i2c_master.c ****         XMC_DMA_CH_SetBlockSize(tx_dma_config_global->dma, tx_dma_config->dma_channel, block_size);
1443:../BSP/dave_fixes/I2C_MASTER/i2c_master.c ****         XMC_DMA_CH_SetSourceAddress(tx_dma_config_global->dma, tx_dma_config->dma_channel, (uint32_
1444:../BSP/dave_fixes/I2C_MASTER/i2c_master.c ****         XMC_DMA_CH_SetDestinationAddress(tx_dma_config_global->dma, tx_dma_config->dma_channel, (ui
1445:../BSP/dave_fixes/I2C_MASTER/i2c_master.c ****  
1446:../BSP/dave_fixes/I2C_MASTER/i2c_master.c ****         XMC_DMA_CH_Enable(tx_dma_config_global->dma, tx_dma_config->dma_channel);
1447:../BSP/dave_fixes/I2C_MASTER/i2c_master.c ****       }
1448:../BSP/dave_fixes/I2C_MASTER/i2c_master.c ****       else
1449:../BSP/dave_fixes/I2C_MASTER/i2c_master.c ****       {
1450:../BSP/dave_fixes/I2C_MASTER/i2c_master.c ****         handle->runtime->tx_busy = false;
1451:../BSP/dave_fixes/I2C_MASTER/i2c_master.c ****         if (handle->config->tx_cbhandler)
1452:../BSP/dave_fixes/I2C_MASTER/i2c_master.c ****         {
1453:../BSP/dave_fixes/I2C_MASTER/i2c_master.c ****           handle->config->tx_cbhandler();
1454:../BSP/dave_fixes/I2C_MASTER/i2c_master.c ****         }
1455:../BSP/dave_fixes/I2C_MASTER/i2c_master.c ****       }
1456:../BSP/dave_fixes/I2C_MASTER/i2c_master.c **** 
1457:../BSP/dave_fixes/I2C_MASTER/i2c_master.c ****       status = I2C_MASTER_STATUS_SUCCESS;
1458:../BSP/dave_fixes/I2C_MASTER/i2c_master.c ****     }
1459:../BSP/dave_fixes/I2C_MASTER/i2c_master.c ****   }
1460:../BSP/dave_fixes/I2C_MASTER/i2c_master.c **** 
1461:../BSP/dave_fixes/I2C_MASTER/i2c_master.c ****   return (status);
1462:../BSP/dave_fixes/I2C_MASTER/i2c_master.c **** }
1463:../BSP/dave_fixes/I2C_MASTER/i2c_master.c **** 
1464:../BSP/dave_fixes/I2C_MASTER/i2c_master.c **** /**************************************************************************************************
1465:../BSP/dave_fixes/I2C_MASTER/i2c_master.c ****  * @brief Aborts the ongoing data transmission.
1466:../BSP/dave_fixes/I2C_MASTER/i2c_master.c ****  * @param I2C_MASTER_t*  I2C_MASTER APP handle pointer of type I2C_MASTER_t
1467:../BSP/dave_fixes/I2C_MASTER/i2c_master.c ****  * @return None
1468:../BSP/dave_fixes/I2C_MASTER/i2c_master.c ****  *
1469:../BSP/dave_fixes/I2C_MASTER/i2c_master.c ****  * Details of function:
1470:../BSP/dave_fixes/I2C_MASTER/i2c_master.c ****  * If there is a transmission in progress, it will be stopped. If transmit FIFO is used,
1471:../BSP/dave_fixes/I2C_MASTER/i2c_master.c ****  * the existing data will be flushed. After the transmission is stopped, user can start
1472:../BSP/dave_fixes/I2C_MASTER/i2c_master.c ****  * a new transmission without delay.
1473:../BSP/dave_fixes/I2C_MASTER/i2c_master.c ****  **************************************************************************************************
1474:../BSP/dave_fixes/I2C_MASTER/i2c_master.c **** static void I2C_MASTER_lAbortTransmitDMA(const I2C_MASTER_t *const handle)
1475:../BSP/dave_fixes/I2C_MASTER/i2c_master.c **** {
1476:../BSP/dave_fixes/I2C_MASTER/i2c_master.c ****   const I2C_MASTER_DMA_CONFIG_t *tx_dma_config;
1477:../BSP/dave_fixes/I2C_MASTER/i2c_master.c ****   const GLOBAL_DMA_t *tx_dma_config_global;
1478:../BSP/dave_fixes/I2C_MASTER/i2c_master.c ****   
1479:../BSP/dave_fixes/I2C_MASTER/i2c_master.c ****   tx_dma_config = handle->config->transmit_dma_config;
1480:../BSP/dave_fixes/I2C_MASTER/i2c_master.c ****   tx_dma_config_global = handle->config->transmit_dma_config->global_dma;
1481:../BSP/dave_fixes/I2C_MASTER/i2c_master.c **** 
1482:../BSP/dave_fixes/I2C_MASTER/i2c_master.c ****   handle->runtime->tx_busy = false;
1483:../BSP/dave_fixes/I2C_MASTER/i2c_master.c **** 
1484:../BSP/dave_fixes/I2C_MASTER/i2c_master.c ****   if (XMC_DMA_CH_IsEnabled(tx_dma_config_global->dma, tx_dma_config->dma_channel))
1485:../BSP/dave_fixes/I2C_MASTER/i2c_master.c ****   {
1486:../BSP/dave_fixes/I2C_MASTER/i2c_master.c ****     XMC_DMA_CH_Disable(tx_dma_config_global->dma, tx_dma_config->dma_channel);
1487:../BSP/dave_fixes/I2C_MASTER/i2c_master.c ****   }
1488:../BSP/dave_fixes/I2C_MASTER/i2c_master.c **** 
1489:../BSP/dave_fixes/I2C_MASTER/i2c_master.c ****   while (XMC_DMA_CH_IsEnabled(tx_dma_config_global->dma, tx_dma_config->dma_channel) == 1U){}
1490:../BSP/dave_fixes/I2C_MASTER/i2c_master.c **** 
1491:../BSP/dave_fixes/I2C_MASTER/i2c_master.c ****   I2C_MASTER_DisableEvent((I2C_MASTER_t *)handle, (uint32_t)XMC_I2C_CH_EVENT_ACK);
1492:../BSP/dave_fixes/I2C_MASTER/i2c_master.c **** }
1493:../BSP/dave_fixes/I2C_MASTER/i2c_master.c **** 
1494:../BSP/dave_fixes/I2C_MASTER/i2c_master.c **** #endif
1495:../BSP/dave_fixes/I2C_MASTER/i2c_master.c **** 
1496:../BSP/dave_fixes/I2C_MASTER/i2c_master.c **** #if (I2C_MASTER_DIRECT_TX_ENABLED == 1)
1497:../BSP/dave_fixes/I2C_MASTER/i2c_master.c **** volatile uint32_t I2C_Timeout = 0;
1498:../BSP/dave_fixes/I2C_MASTER/i2c_master.c **** static I2C_MASTER_STATUS_t I2C_MASTER_lStartTransmitPolling(I2C_MASTER_t *const handle, bool send_s
1499:../BSP/dave_fixes/I2C_MASTER/i2c_master.c ****                                                         const uint32_t slave_address, uint8_t *data
1500:../BSP/dave_fixes/I2C_MASTER/i2c_master.c ****                               bool send_stop)
1501:../BSP/dave_fixes/I2C_MASTER/i2c_master.c **** {
1502:../BSP/dave_fixes/I2C_MASTER/i2c_master.c ****   uint32_t buffer_index;
1503:../BSP/dave_fixes/I2C_MASTER/i2c_master.c ****   I2C_MASTER_STATUS_t status;
1504:../BSP/dave_fixes/I2C_MASTER/i2c_master.c ****   uint32_t psr_status;
1505:../BSP/dave_fixes/I2C_MASTER/i2c_master.c **** 
