   1              	 .syntax unified
   2              	 .cpu cortex-m4
   3              	 .eabi_attribute 27,3
   4              	 .fpu fpv4-sp-d16
   5              	 .eabi_attribute 20,1
   6              	 .eabi_attribute 21,1
   7              	 .eabi_attribute 23,3
   8              	 .eabi_attribute 24,1
   9              	 .eabi_attribute 25,1
  10              	 .eabi_attribute 26,1
  11              	 .eabi_attribute 30,2
  12              	 .eabi_attribute 34,1
  13              	 .eabi_attribute 18,4
  14              	 .thumb
  15              	 .file "usbd_endpoint_stream_xmc4000.c"
  16              	 .text
  17              	.Ltext0:
  18              	 .cfi_sections .debug_frame
  19              	 .section .text.Endpoint_Write_Stream_LE,"ax",%progbits
  20              	 .align 2
  21              	 .global Endpoint_Write_Stream_LE
  22              	 .thumb
  23              	 .thumb_func
  25              	Endpoint_Write_Stream_LE:
  26              	.LFB179:
  27              	 .file 1 "../Dave/Generated/USBD/usb/core/xmc4000/usbd_endpoint_stream_xmc4000.c"
   1:../Dave/Generated/USBD/usb/core/xmc4000/usbd_endpoint_stream_xmc4000.c **** /**
   2:../Dave/Generated/USBD/usb/core/xmc4000/usbd_endpoint_stream_xmc4000.c ****  * @file usbd_endpoint_stream_xmc4000.c
   3:../Dave/Generated/USBD/usb/core/xmc4000/usbd_endpoint_stream_xmc4000.c ****  * @date 2015-06-20 
   4:../Dave/Generated/USBD/usb/core/xmc4000/usbd_endpoint_stream_xmc4000.c ****  * NOTE:
   5:../Dave/Generated/USBD/usb/core/xmc4000/usbd_endpoint_stream_xmc4000.c ****  * This file is generated by DAVE. Any manual modification done to this file will be lost when the 
   6:../Dave/Generated/USBD/usb/core/xmc4000/usbd_endpoint_stream_xmc4000.c ****  *
   7:../Dave/Generated/USBD/usb/core/xmc4000/usbd_endpoint_stream_xmc4000.c ****  * @cond
   8:../Dave/Generated/USBD/usb/core/xmc4000/usbd_endpoint_stream_xmc4000.c ****  **************************************************************************************************
   9:../Dave/Generated/USBD/usb/core/xmc4000/usbd_endpoint_stream_xmc4000.c ****  * The USB core driver for XMC4000 family of controllers. It does the USB protocol handling.
  10:../Dave/Generated/USBD/usb/core/xmc4000/usbd_endpoint_stream_xmc4000.c ****  *
  11:../Dave/Generated/USBD/usb/core/xmc4000/usbd_endpoint_stream_xmc4000.c ****  * Copyright (c) 2015, Infineon Technologies AG
  12:../Dave/Generated/USBD/usb/core/xmc4000/usbd_endpoint_stream_xmc4000.c ****  * All rights reserved.                        
  13:../Dave/Generated/USBD/usb/core/xmc4000/usbd_endpoint_stream_xmc4000.c ****  *                                             
  14:../Dave/Generated/USBD/usb/core/xmc4000/usbd_endpoint_stream_xmc4000.c ****  * Redistribution and use in source and binary forms, with or without modification,are permitted pr
  15:../Dave/Generated/USBD/usb/core/xmc4000/usbd_endpoint_stream_xmc4000.c ****  * following conditions are met:   
  16:../Dave/Generated/USBD/usb/core/xmc4000/usbd_endpoint_stream_xmc4000.c ****  *                                                                              
  17:../Dave/Generated/USBD/usb/core/xmc4000/usbd_endpoint_stream_xmc4000.c ****  *   Redistributions of source code must retain the above copyright notice, this list of conditions
  18:../Dave/Generated/USBD/usb/core/xmc4000/usbd_endpoint_stream_xmc4000.c ****  *   disclaimer.                        
  19:../Dave/Generated/USBD/usb/core/xmc4000/usbd_endpoint_stream_xmc4000.c ****  * 
  20:../Dave/Generated/USBD/usb/core/xmc4000/usbd_endpoint_stream_xmc4000.c ****  *   Redistributions in binary form must reproduce the above copyright notice, this list of conditi
  21:../Dave/Generated/USBD/usb/core/xmc4000/usbd_endpoint_stream_xmc4000.c ****  *   following disclaimer in the documentation and/or other materials provided with the distributio
  22:../Dave/Generated/USBD/usb/core/xmc4000/usbd_endpoint_stream_xmc4000.c ****  *                         
  23:../Dave/Generated/USBD/usb/core/xmc4000/usbd_endpoint_stream_xmc4000.c ****  *   Neither the name of the copyright holders nor the names of its contributors may be used to end
  24:../Dave/Generated/USBD/usb/core/xmc4000/usbd_endpoint_stream_xmc4000.c ****  *   products derived from this software without specific prior written permission. 
  25:../Dave/Generated/USBD/usb/core/xmc4000/usbd_endpoint_stream_xmc4000.c ****  *                                             
  26:../Dave/Generated/USBD/usb/core/xmc4000/usbd_endpoint_stream_xmc4000.c ****  * THIS SOFTWARE IS PROVIDED BY THE COPYRIGHT HOLDERS AND CONTRIBUTORS "AS IS" AND ANY EXPRESS OR I
  27:../Dave/Generated/USBD/usb/core/xmc4000/usbd_endpoint_stream_xmc4000.c ****  * INCLUDING, BUT NOT LIMITED TO, THE IMPLIED WARRANTIES OF MERCHANTABILITY AND FITNESS FOR A PARTI
  28:../Dave/Generated/USBD/usb/core/xmc4000/usbd_endpoint_stream_xmc4000.c ****  * DISCLAIMED. IN NO EVENT SHALL THE COPYRIGHT HOLDER OR CONTRIBUTORS BE LIABLE  FOR ANY DIRECT, IN
  29:../Dave/Generated/USBD/usb/core/xmc4000/usbd_endpoint_stream_xmc4000.c ****  * SPECIAL, EXEMPLARY, OR CONSEQUENTIAL DAMAGES (INCLUDING, BUT NOT LIMITED TO, PROCUREMENT OF SUBS
  30:../Dave/Generated/USBD/usb/core/xmc4000/usbd_endpoint_stream_xmc4000.c ****  * SERVICES; LOSS OF USE, DATA, OR PROFITS; OR BUSINESS INTERRUPTION) HOWEVER CAUSED AND ON ANY THE
  31:../Dave/Generated/USBD/usb/core/xmc4000/usbd_endpoint_stream_xmc4000.c ****  * WHETHER IN CONTRACT, STRICT LIABILITY,OR TORT (INCLUDING NEGLIGENCE OR OTHERWISE) ARISING IN ANY
  32:../Dave/Generated/USBD/usb/core/xmc4000/usbd_endpoint_stream_xmc4000.c ****  * USE OF THIS SOFTWARE, EVEN IF ADVISED OF THE POSSIBILITY OF SUCH DAMAGE.    
  33:../Dave/Generated/USBD/usb/core/xmc4000/usbd_endpoint_stream_xmc4000.c ****  *                                                                              
  34:../Dave/Generated/USBD/usb/core/xmc4000/usbd_endpoint_stream_xmc4000.c ****  * To improve the quality of the software, users are encouraged to share modifications, enhancement
  35:../Dave/Generated/USBD/usb/core/xmc4000/usbd_endpoint_stream_xmc4000.c ****  * with Infineon Technologies AG (dave@infineon.com).        
  36:../Dave/Generated/USBD/usb/core/xmc4000/usbd_endpoint_stream_xmc4000.c ****  **************************************************************************************************
  37:../Dave/Generated/USBD/usb/core/xmc4000/usbd_endpoint_stream_xmc4000.c ****  *
  38:../Dave/Generated/USBD/usb/core/xmc4000/usbd_endpoint_stream_xmc4000.c ****  * Change History
  39:../Dave/Generated/USBD/usb/core/xmc4000/usbd_endpoint_stream_xmc4000.c ****  * --------------
  40:../Dave/Generated/USBD/usb/core/xmc4000/usbd_endpoint_stream_xmc4000.c ****  *
  41:../Dave/Generated/USBD/usb/core/xmc4000/usbd_endpoint_stream_xmc4000.c ****  * 2015-02-16:
  42:../Dave/Generated/USBD/usb/core/xmc4000/usbd_endpoint_stream_xmc4000.c ****  *     - Initial version.      
  43:../Dave/Generated/USBD/usb/core/xmc4000/usbd_endpoint_stream_xmc4000.c ****  * 2015-06-20:
  44:../Dave/Generated/USBD/usb/core/xmc4000/usbd_endpoint_stream_xmc4000.c ****  *     - Updated the file header.
  45:../Dave/Generated/USBD/usb/core/xmc4000/usbd_endpoint_stream_xmc4000.c ****  *     
  46:../Dave/Generated/USBD/usb/core/xmc4000/usbd_endpoint_stream_xmc4000.c ****  * @endcond 
  47:../Dave/Generated/USBD/usb/core/xmc4000/usbd_endpoint_stream_xmc4000.c ****  *
  48:../Dave/Generated/USBD/usb/core/xmc4000/usbd_endpoint_stream_xmc4000.c ****  */
  49:../Dave/Generated/USBD/usb/core/xmc4000/usbd_endpoint_stream_xmc4000.c **** /*
  50:../Dave/Generated/USBD/usb/core/xmc4000/usbd_endpoint_stream_xmc4000.c ****   Copyright 2014  Dean Camera (dean [at] fourwalledcubicle [dot] com)
  51:../Dave/Generated/USBD/usb/core/xmc4000/usbd_endpoint_stream_xmc4000.c **** 
  52:../Dave/Generated/USBD/usb/core/xmc4000/usbd_endpoint_stream_xmc4000.c ****   Permission to use, copy, modify, distribute, and sell this
  53:../Dave/Generated/USBD/usb/core/xmc4000/usbd_endpoint_stream_xmc4000.c ****   software and its documentation for any purpose is hereby granted
  54:../Dave/Generated/USBD/usb/core/xmc4000/usbd_endpoint_stream_xmc4000.c ****   without fee, provided that the above copyright notice appear in
  55:../Dave/Generated/USBD/usb/core/xmc4000/usbd_endpoint_stream_xmc4000.c ****   all copies and that both that the copyright notice and this
  56:../Dave/Generated/USBD/usb/core/xmc4000/usbd_endpoint_stream_xmc4000.c ****   permission notice and warranty disclaimer appear in supporting
  57:../Dave/Generated/USBD/usb/core/xmc4000/usbd_endpoint_stream_xmc4000.c ****   documentation, and that the name of the author not be used in
  58:../Dave/Generated/USBD/usb/core/xmc4000/usbd_endpoint_stream_xmc4000.c ****   advertising or publicity pertaining to distribution of the
  59:../Dave/Generated/USBD/usb/core/xmc4000/usbd_endpoint_stream_xmc4000.c ****   software without specific, written prior permission.
  60:../Dave/Generated/USBD/usb/core/xmc4000/usbd_endpoint_stream_xmc4000.c **** 
  61:../Dave/Generated/USBD/usb/core/xmc4000/usbd_endpoint_stream_xmc4000.c ****   The author disclaims all warranties with regard to this
  62:../Dave/Generated/USBD/usb/core/xmc4000/usbd_endpoint_stream_xmc4000.c ****   software, including all implied warranties of merchantability
  63:../Dave/Generated/USBD/usb/core/xmc4000/usbd_endpoint_stream_xmc4000.c ****   and fitness.  In no event shall the author be liable for any
  64:../Dave/Generated/USBD/usb/core/xmc4000/usbd_endpoint_stream_xmc4000.c ****   special, indirect or consequential damages or any damages
  65:../Dave/Generated/USBD/usb/core/xmc4000/usbd_endpoint_stream_xmc4000.c ****   whatsoever resulting from loss of use, data or profits, whether
  66:../Dave/Generated/USBD/usb/core/xmc4000/usbd_endpoint_stream_xmc4000.c ****   in an action of contract, negligence or other tortious action,
  67:../Dave/Generated/USBD/usb/core/xmc4000/usbd_endpoint_stream_xmc4000.c ****   arising out of or in connection with the use or performance of
  68:../Dave/Generated/USBD/usb/core/xmc4000/usbd_endpoint_stream_xmc4000.c ****   this software.
  69:../Dave/Generated/USBD/usb/core/xmc4000/usbd_endpoint_stream_xmc4000.c **** */
  70:../Dave/Generated/USBD/usb/core/xmc4000/usbd_endpoint_stream_xmc4000.c **** 
  71:../Dave/Generated/USBD/usb/core/xmc4000/usbd_endpoint_stream_xmc4000.c **** #include "../../../usbd.h"
  72:../Dave/Generated/USBD/usb/core/xmc4000/usbd_endpoint_stream_xmc4000.c **** #include "usbd_endpoint_stream_xmc4000.h"
  73:../Dave/Generated/USBD/usb/core/xmc4000/usbd_endpoint_stream_xmc4000.c **** #include "../endpoint_stream.h"
  74:../Dave/Generated/USBD/usb/core/xmc4000/usbd_endpoint_stream_xmc4000.c **** #include "../endpoint.h"
  75:../Dave/Generated/USBD/usb/core/xmc4000/usbd_endpoint_stream_xmc4000.c **** 
  76:../Dave/Generated/USBD/usb/core/xmc4000/usbd_endpoint_stream_xmc4000.c **** /*Flag to indicate the zlp to be sent or not*/
  77:../Dave/Generated/USBD/usb/core/xmc4000/usbd_endpoint_stream_xmc4000.c **** volatile uint8_t zlp_flag = 0;
  78:../Dave/Generated/USBD/usb/core/xmc4000/usbd_endpoint_stream_xmc4000.c **** 
  79:../Dave/Generated/USBD/usb/core/xmc4000/usbd_endpoint_stream_xmc4000.c **** uint8_t Endpoint_Write_Stream_LE (const void *const Buffer, uint16_t Length,
  80:../Dave/Generated/USBD/usb/core/xmc4000/usbd_endpoint_stream_xmc4000.c **** 											uint16_t *const BytesProcessed)
  81:../Dave/Generated/USBD/usb/core/xmc4000/usbd_endpoint_stream_xmc4000.c **** {
  28              	 .loc 1 81 0
  29              	 .cfi_startproc
  30              	 
  31              	 
  32              	.LVL0:
  33 0000 2DE9F84F 	 push {r3,r4,r5,r6,r7,r8,r9,r10,fp,lr}
  34              	.LCFI0:
  35              	 .cfi_def_cfa_offset 40
  36              	 .cfi_offset 3,-40
  37              	 .cfi_offset 4,-36
  38              	 .cfi_offset 5,-32
  39              	 .cfi_offset 6,-28
  40              	 .cfi_offset 7,-24
  41              	 .cfi_offset 8,-20
  42              	 .cfi_offset 9,-16
  43              	 .cfi_offset 10,-12
  44              	 .cfi_offset 11,-8
  45              	 .cfi_offset 14,-4
  82:../Dave/Generated/USBD/usb/core/xmc4000/usbd_endpoint_stream_xmc4000.c **** 	USBD_Endpoint_t* ep = &device.Endpoints[device.CurrentEndpoint];
  46              	 .loc 1 82 0
  47 0004 254B     	 ldr r3,.L25
  81:../Dave/Generated/USBD/usb/core/xmc4000/usbd_endpoint_stream_xmc4000.c **** 	USBD_Endpoint_t* ep = &device.Endpoints[device.CurrentEndpoint];
  48              	 .loc 1 81 0
  49 0006 0C46     	 mov r4,r1
  50 0008 8046     	 mov r8,r0
  51              	 .loc 1 82 0
  52 000a 93F83C11 	 ldrb r1,[r3,#316]
  53              	.LVL1:
  83:../Dave/Generated/USBD/usb/core/xmc4000/usbd_endpoint_stream_xmc4000.c **** 	uint16_t Bytes = 0;
  84:../Dave/Generated/USBD/usb/core/xmc4000/usbd_endpoint_stream_xmc4000.c **** 	uint16_t BytesTransfered = 0;
  85:../Dave/Generated/USBD/usb/core/xmc4000/usbd_endpoint_stream_xmc4000.c **** 	uint8_t ErrorCode;
  86:../Dave/Generated/USBD/usb/core/xmc4000/usbd_endpoint_stream_xmc4000.c **** 
  87:../Dave/Generated/USBD/usb/core/xmc4000/usbd_endpoint_stream_xmc4000.c **** 	if (BytesProcessed!=NULL) 
  54              	 .loc 1 87 0
  55 000e 9146     	 mov r9,r2
  56 0010 002A     	 cmp r2,#0
  57 0012 3BD0     	 beq .L11
  88:../Dave/Generated/USBD/usb/core/xmc4000/usbd_endpoint_stream_xmc4000.c **** 	{
  89:../Dave/Generated/USBD/usb/core/xmc4000/usbd_endpoint_stream_xmc4000.c **** 		Length -= *BytesProcessed;
  58              	 .loc 1 89 0
  59 0014 1788     	 ldrh r7,[r2]
  60 0016 E41B     	 subs r4,r4,r7
  61 0018 A4B2     	 uxth r4,r4
  62              	.LVL2:
  63              	.L2:
  90:../Dave/Generated/USBD/usb/core/xmc4000/usbd_endpoint_stream_xmc4000.c **** 		BytesTransfered = *BytesProcessed;
  91:../Dave/Generated/USBD/usb/core/xmc4000/usbd_endpoint_stream_xmc4000.c **** 	}
  92:../Dave/Generated/USBD/usb/core/xmc4000/usbd_endpoint_stream_xmc4000.c **** 
  93:../Dave/Generated/USBD/usb/core/xmc4000/usbd_endpoint_stream_xmc4000.c **** 	while (Length) 
  94:../Dave/Generated/USBD/usb/core/xmc4000/usbd_endpoint_stream_xmc4000.c **** 	{
  95:../Dave/Generated/USBD/usb/core/xmc4000/usbd_endpoint_stream_xmc4000.c **** 		if (ep->InInUse)
  64              	 .loc 1 95 0
  65 001a 2C26     	 movs r6,#44
  66 001c 06FB0136 	 mla r6,r6,r1,r3
  67              	.LVL3:
  68              	.L3:
  93:../Dave/Generated/USBD/usb/core/xmc4000/usbd_endpoint_stream_xmc4000.c **** 	{
  69              	 .loc 1 93 0
  70 0020 F4B1     	 cbz r4,.L14
  71              	.L21:
  72              	 .loc 1 95 0
  73 0022 B368     	 ldr r3,[r6,#8]
  74 0024 DB06     	 lsls r3,r3,#27
  75 0026 FCD4     	 bmi .L21
  96:../Dave/Generated/USBD/usb/core/xmc4000/usbd_endpoint_stream_xmc4000.c **** 		{
  97:../Dave/Generated/USBD/usb/core/xmc4000/usbd_endpoint_stream_xmc4000.c **** 			continue;
  98:../Dave/Generated/USBD/usb/core/xmc4000/usbd_endpoint_stream_xmc4000.c **** 		}
  99:../Dave/Generated/USBD/usb/core/xmc4000/usbd_endpoint_stream_xmc4000.c **** 		if (Endpoint_IsReadWriteAllowed()) 
  76              	 .loc 1 99 0
  77 0028 FFF7FEFF 	 bl Endpoint_IsReadWriteAllowed
  78              	.LVL4:
  79 002c F8B1     	 cbz r0,.L5
 100:../Dave/Generated/USBD/usb/core/xmc4000/usbd_endpoint_stream_xmc4000.c **** 		{
 101:../Dave/Generated/USBD/usb/core/xmc4000/usbd_endpoint_stream_xmc4000.c **** 			if((ep->InBufferLength - ep->InBytesAvailable)  > Length)
  80              	 .loc 1 101 0
  81 002e 756A     	 ldr r5,[r6,#36]
  82 0030 F069     	 ldr r0,[r6,#28]
  83 0032 2D1A     	 subs r5,r5,r0
  84 0034 A542     	 cmp r5,r4
  85 0036 16D8     	 bhi .L12
 102:../Dave/Generated/USBD/usb/core/xmc4000/usbd_endpoint_stream_xmc4000.c **** 			{
 103:../Dave/Generated/USBD/usb/core/xmc4000/usbd_endpoint_stream_xmc4000.c **** 				Bytes = Length;
 104:../Dave/Generated/USBD/usb/core/xmc4000/usbd_endpoint_stream_xmc4000.c **** 			}
 105:../Dave/Generated/USBD/usb/core/xmc4000/usbd_endpoint_stream_xmc4000.c **** 			else
 106:../Dave/Generated/USBD/usb/core/xmc4000/usbd_endpoint_stream_xmc4000.c **** 			{
 107:../Dave/Generated/USBD/usb/core/xmc4000/usbd_endpoint_stream_xmc4000.c **** 				Bytes = (ep->InBufferLength - ep->InBytesAvailable);
  86              	 .loc 1 107 0
  87 0038 ADB2     	 uxth r5,r5
  88 003a 641B     	 subs r4,r4,r5
  89              	.LVL5:
  90 003c 1FFA84FB 	 uxth fp,r4
  91 0040 2C46     	 mov r4,r5
  92              	.L6:
  93              	.LVL6:
 108:../Dave/Generated/USBD/usb/core/xmc4000/usbd_endpoint_stream_xmc4000.c **** 			}
 109:../Dave/Generated/USBD/usb/core/xmc4000/usbd_endpoint_stream_xmc4000.c **** 			memcpy(ep->InBuffer + ep->InBytesAvailable,(uint8_t*)Buffer + BytesTransfered,Bytes);
  94              	 .loc 1 109 0
  95 0042 336A     	 ldr r3,[r6,#32]
  96 0044 08EB0701 	 add r1,r8,r7
  97 0048 2A46     	 mov r2,r5
  98 004a 1844     	 add r0,r0,r3
  99 004c FFF7FEFF 	 bl memcpy
 100              	.LVL7:
 110:../Dave/Generated/USBD/usb/core/xmc4000/usbd_endpoint_stream_xmc4000.c **** 			ep->InBytesAvailable += Bytes;
 101              	 .loc 1 110 0
 102 0050 F369     	 ldr r3,[r6,#28]
 111:../Dave/Generated/USBD/usb/core/xmc4000/usbd_endpoint_stream_xmc4000.c **** 			BytesTransfered += Bytes;
 103              	 .loc 1 111 0
 104 0052 2744     	 add r7,r7,r4
 105              	.LVL8:
 110:../Dave/Generated/USBD/usb/core/xmc4000/usbd_endpoint_stream_xmc4000.c **** 			ep->InBytesAvailable += Bytes;
 106              	 .loc 1 110 0
 107 0054 1D44     	 add r5,r5,r3
 112:../Dave/Generated/USBD/usb/core/xmc4000/usbd_endpoint_stream_xmc4000.c **** 			Length -= Bytes;
 108              	 .loc 1 112 0
 109 0056 5C46     	 mov r4,fp
 110              	.LVL9:
 111:../Dave/Generated/USBD/usb/core/xmc4000/usbd_endpoint_stream_xmc4000.c **** 			BytesTransfered += Bytes;
 111              	 .loc 1 111 0
 112 0058 BFB2     	 uxth r7,r7
 113              	.LVL10:
 110:../Dave/Generated/USBD/usb/core/xmc4000/usbd_endpoint_stream_xmc4000.c **** 			ep->InBytesAvailable += Bytes;
 114              	 .loc 1 110 0
 115 005a F561     	 str r5,[r6,#28]
 116              	.LVL11:
  93:../Dave/Generated/USBD/usb/core/xmc4000/usbd_endpoint_stream_xmc4000.c **** 	{
 117              	 .loc 1 93 0
 118 005c 002C     	 cmp r4,#0
 119 005e E0D1     	 bne .L21
 120              	.L14:
 113:../Dave/Generated/USBD/usb/core/xmc4000/usbd_endpoint_stream_xmc4000.c **** 		}
 114:../Dave/Generated/USBD/usb/core/xmc4000/usbd_endpoint_stream_xmc4000.c **** 		else 
 115:../Dave/Generated/USBD/usb/core/xmc4000/usbd_endpoint_stream_xmc4000.c **** 		{
 116:../Dave/Generated/USBD/usb/core/xmc4000/usbd_endpoint_stream_xmc4000.c **** 			Endpoint_ClearIN();
 117:../Dave/Generated/USBD/usb/core/xmc4000/usbd_endpoint_stream_xmc4000.c **** 			if(Length < ep->MaxPacketSize)
 118:../Dave/Generated/USBD/usb/core/xmc4000/usbd_endpoint_stream_xmc4000.c **** 			{
 119:../Dave/Generated/USBD/usb/core/xmc4000/usbd_endpoint_stream_xmc4000.c **** 				if (BytesProcessed!=NULL) 
 120:../Dave/Generated/USBD/usb/core/xmc4000/usbd_endpoint_stream_xmc4000.c **** 				{
 121:../Dave/Generated/USBD/usb/core/xmc4000/usbd_endpoint_stream_xmc4000.c **** 					*BytesProcessed = BytesTransfered;
 122:../Dave/Generated/USBD/usb/core/xmc4000/usbd_endpoint_stream_xmc4000.c **** 					return ENDPOINT_RWSTREAM_IncompleteTransfer;
 123:../Dave/Generated/USBD/usb/core/xmc4000/usbd_endpoint_stream_xmc4000.c **** 				}
 124:../Dave/Generated/USBD/usb/core/xmc4000/usbd_endpoint_stream_xmc4000.c **** 			}
 125:../Dave/Generated/USBD/usb/core/xmc4000/usbd_endpoint_stream_xmc4000.c **** 
 126:../Dave/Generated/USBD/usb/core/xmc4000/usbd_endpoint_stream_xmc4000.c **** 			ErrorCode = Endpoint_WaitUntilReady();
 127:../Dave/Generated/USBD/usb/core/xmc4000/usbd_endpoint_stream_xmc4000.c **** 			if (ErrorCode) 
 128:../Dave/Generated/USBD/usb/core/xmc4000/usbd_endpoint_stream_xmc4000.c **** 			{
 129:../Dave/Generated/USBD/usb/core/xmc4000/usbd_endpoint_stream_xmc4000.c **** 				return ErrorCode;
 130:../Dave/Generated/USBD/usb/core/xmc4000/usbd_endpoint_stream_xmc4000.c **** 			}
 131:../Dave/Generated/USBD/usb/core/xmc4000/usbd_endpoint_stream_xmc4000.c **** 		}
 132:../Dave/Generated/USBD/usb/core/xmc4000/usbd_endpoint_stream_xmc4000.c **** 	}
 133:../Dave/Generated/USBD/usb/core/xmc4000/usbd_endpoint_stream_xmc4000.c **** 	
 134:../Dave/Generated/USBD/usb/core/xmc4000/usbd_endpoint_stream_xmc4000.c **** 	return ENDPOINT_RWSTREAM_NoError;
 121              	 .loc 1 134 0
 122 0060 2046     	 mov r0,r4
 123              	.L9:
 135:../Dave/Generated/USBD/usb/core/xmc4000/usbd_endpoint_stream_xmc4000.c **** }
 124              	 .loc 1 135 0
 125 0062 BDE8F88F 	 pop {r3,r4,r5,r6,r7,r8,r9,r10,fp,pc}
 126              	.LVL12:
 127              	.L12:
 128 0066 2546     	 mov r5,r4
 129 0068 4FF0000B 	 mov fp,#0
 130 006c E9E7     	 b .L6
 131              	.L5:
 116:../Dave/Generated/USBD/usb/core/xmc4000/usbd_endpoint_stream_xmc4000.c **** 			if(Length < ep->MaxPacketSize)
 132              	 .loc 1 116 0
 133 006e FFF7FEFF 	 bl Endpoint_ClearIN
 134              	.LVL13:
 117:../Dave/Generated/USBD/usb/core/xmc4000/usbd_endpoint_stream_xmc4000.c **** 			{
 135              	 .loc 1 117 0
 136 0072 3389     	 ldrh r3,[r6,#8]
 137 0074 C3F38613 	 ubfx r3,r3,#6,#7
 138 0078 9C42     	 cmp r4,r3
 139 007a 02DA     	 bge .L8
 119:../Dave/Generated/USBD/usb/core/xmc4000/usbd_endpoint_stream_xmc4000.c **** 				{
 140              	 .loc 1 119 0
 141 007c B9F1000F 	 cmp r9,#0
 142 0080 06D1     	 bne .L24
 143              	.L8:
 126:../Dave/Generated/USBD/usb/core/xmc4000/usbd_endpoint_stream_xmc4000.c **** 			if (ErrorCode) 
 144              	 .loc 1 126 0
 145 0082 FFF7FEFF 	 bl Endpoint_WaitUntilReady
 146              	.LVL14:
 127:../Dave/Generated/USBD/usb/core/xmc4000/usbd_endpoint_stream_xmc4000.c **** 			{
 147              	 .loc 1 127 0
 148 0086 0028     	 cmp r0,#0
 149 0088 CAD0     	 beq .L3
 150 008a EAE7     	 b .L9
 151              	.LVL15:
 152              	.L11:
  84:../Dave/Generated/USBD/usb/core/xmc4000/usbd_endpoint_stream_xmc4000.c **** 	uint8_t ErrorCode;
 153              	 .loc 1 84 0
 154 008c 1746     	 mov r7,r2
 155 008e C4E7     	 b .L2
 156              	.LVL16:
 157              	.L24:
 121:../Dave/Generated/USBD/usb/core/xmc4000/usbd_endpoint_stream_xmc4000.c **** 					return ENDPOINT_RWSTREAM_IncompleteTransfer;
 158              	 .loc 1 121 0
 159 0090 A9F80070 	 strh r7,[r9]
 122:../Dave/Generated/USBD/usb/core/xmc4000/usbd_endpoint_stream_xmc4000.c **** 				}
 160              	 .loc 1 122 0
 161 0094 0520     	 movs r0,#5
 162 0096 BDE8F88F 	 pop {r3,r4,r5,r6,r7,r8,r9,r10,fp,pc}
 163              	.LVL17:
 164              	.L26:
 165 009a 00BF     	 .align 2
 166              	.L25:
 167 009c 00000000 	 .word device
 168              	 .cfi_endproc
 169              	.LFE179:
 171              	 .section .text.SwapCopy,"ax",%progbits
 172              	 .align 2
 173              	 .global SwapCopy
 174              	 .thumb
 175              	 .thumb_func
 177              	SwapCopy:
 178              	.LFB180:
 136:../Dave/Generated/USBD/usb/core/xmc4000/usbd_endpoint_stream_xmc4000.c **** 
 137:../Dave/Generated/USBD/usb/core/xmc4000/usbd_endpoint_stream_xmc4000.c **** void SwapCopy(void *const Dest, const void *const Src,uint32_t Length) 
 138:../Dave/Generated/USBD/usb/core/xmc4000/usbd_endpoint_stream_xmc4000.c **** {
 179              	 .loc 1 138 0
 180              	 .cfi_startproc
 181              	 
 182              	 
 183              	 
 184              	.LVL18:
 139:../Dave/Generated/USBD/usb/core/xmc4000/usbd_endpoint_stream_xmc4000.c **** 	uint32_t i = 0;
 140:../Dave/Generated/USBD/usb/core/xmc4000/usbd_endpoint_stream_xmc4000.c **** 	while(i<Length) {
 185              	 .loc 1 140 0
 186 0000 3AB1     	 cbz r2,.L27
 187 0002 0139     	 subs r1,r1,#1
 188              	.LVL19:
 189 0004 0244     	 add r2,r2,r0
 190              	.LVL20:
 191              	.L29:
 141:../Dave/Generated/USBD/usb/core/xmc4000/usbd_endpoint_stream_xmc4000.c **** 		*(uint8_t*)((uint8_t*)Dest + (Length - 1 - i)) =
 142:../Dave/Generated/USBD/usb/core/xmc4000/usbd_endpoint_stream_xmc4000.c **** 											*(uint8_t*)((uint8_t*)Src + i);
 192              	 .loc 1 142 0
 193 0006 11F8013F 	 ldrb r3,[r1,#1]!
 194              	.LVL21:
 141:../Dave/Generated/USBD/usb/core/xmc4000/usbd_endpoint_stream_xmc4000.c **** 		*(uint8_t*)((uint8_t*)Dest + (Length - 1 - i)) =
 195              	 .loc 1 141 0
 196 000a 02F8013D 	 strb r3,[r2,#-1]!
 197              	.LVL22:
 140:../Dave/Generated/USBD/usb/core/xmc4000/usbd_endpoint_stream_xmc4000.c **** 		*(uint8_t*)((uint8_t*)Dest + (Length - 1 - i)) =
 198              	 .loc 1 140 0
 199 000e 8242     	 cmp r2,r0
 200 0010 F9D1     	 bne .L29
 201              	.LVL23:
 202              	.L27:
 203 0012 7047     	 bx lr
 204              	 .cfi_endproc
 205              	.LFE180:
 207              	 .section .text.Endpoint_Write_Stream_BE,"ax",%progbits
 208              	 .align 2
 209              	 .global Endpoint_Write_Stream_BE
 210              	 .thumb
 211              	 .thumb_func
 213              	Endpoint_Write_Stream_BE:
 214              	.LFB181:
 143:../Dave/Generated/USBD/usb/core/xmc4000/usbd_endpoint_stream_xmc4000.c **** 		i++;
 144:../Dave/Generated/USBD/usb/core/xmc4000/usbd_endpoint_stream_xmc4000.c **** 	}
 145:../Dave/Generated/USBD/usb/core/xmc4000/usbd_endpoint_stream_xmc4000.c **** }
 146:../Dave/Generated/USBD/usb/core/xmc4000/usbd_endpoint_stream_xmc4000.c **** uint8_t	Endpoint_Write_Stream_BE (const void *const Buffer, uint16_t Length,
 147:../Dave/Generated/USBD/usb/core/xmc4000/usbd_endpoint_stream_xmc4000.c **** 											uint16_t *const BytesProcessed)
 148:../Dave/Generated/USBD/usb/core/xmc4000/usbd_endpoint_stream_xmc4000.c **** {
 215              	 .loc 1 148 0
 216              	 .cfi_startproc
 217              	 
 218              	 
 219              	.LVL24:
 220 0000 2DE9F041 	 push {r4,r5,r6,r7,r8,lr}
 221              	.LCFI1:
 222              	 .cfi_def_cfa_offset 24
 223              	 .cfi_offset 4,-24
 224              	 .cfi_offset 5,-20
 225              	 .cfi_offset 6,-16
 226              	 .cfi_offset 7,-12
 227              	 .cfi_offset 8,-8
 228              	 .cfi_offset 14,-4
 149:../Dave/Generated/USBD/usb/core/xmc4000/usbd_endpoint_stream_xmc4000.c **** 	USBD_Endpoint_t* ep = &device.Endpoints[device.CurrentEndpoint];
 229              	 .loc 1 149 0
 230 0004 294B     	 ldr r3,.L57
 148:../Dave/Generated/USBD/usb/core/xmc4000/usbd_endpoint_stream_xmc4000.c **** 	USBD_Endpoint_t* ep = &device.Endpoints[device.CurrentEndpoint];
 231              	 .loc 1 148 0
 232 0006 0646     	 mov r6,r0
 233 0008 0C46     	 mov r4,r1
 234              	 .loc 1 149 0
 235 000a 93F83CE1 	 ldrb lr,[r3,#316]
 236              	.LVL25:
 150:../Dave/Generated/USBD/usb/core/xmc4000/usbd_endpoint_stream_xmc4000.c **** 	uint16_t Bytes = 0;
 151:../Dave/Generated/USBD/usb/core/xmc4000/usbd_endpoint_stream_xmc4000.c **** 	uint16_t BytesTransfered = 0;
 152:../Dave/Generated/USBD/usb/core/xmc4000/usbd_endpoint_stream_xmc4000.c **** 	uint8_t ErrorCode;
 153:../Dave/Generated/USBD/usb/core/xmc4000/usbd_endpoint_stream_xmc4000.c **** 
 154:../Dave/Generated/USBD/usb/core/xmc4000/usbd_endpoint_stream_xmc4000.c **** 	if (BytesProcessed!=NULL) 
 237              	 .loc 1 154 0
 238 000e 1746     	 mov r7,r2
 239 0010 002A     	 cmp r2,#0
 240 0012 45D0     	 beq .L45
 155:../Dave/Generated/USBD/usb/core/xmc4000/usbd_endpoint_stream_xmc4000.c **** 	{
 156:../Dave/Generated/USBD/usb/core/xmc4000/usbd_endpoint_stream_xmc4000.c **** 		Length -= *BytesProcessed;
 241              	 .loc 1 156 0
 242 0014 1588     	 ldrh r5,[r2]
 243 0016 4C1B     	 subs r4,r1,r5
 244 0018 A4B2     	 uxth r4,r4
 245              	.LVL26:
 246              	.L33:
 157:../Dave/Generated/USBD/usb/core/xmc4000/usbd_endpoint_stream_xmc4000.c **** 		BytesTransfered = *BytesProcessed;
 158:../Dave/Generated/USBD/usb/core/xmc4000/usbd_endpoint_stream_xmc4000.c **** 	}
 159:../Dave/Generated/USBD/usb/core/xmc4000/usbd_endpoint_stream_xmc4000.c **** 
 160:../Dave/Generated/USBD/usb/core/xmc4000/usbd_endpoint_stream_xmc4000.c **** 	while (Length) 
 161:../Dave/Generated/USBD/usb/core/xmc4000/usbd_endpoint_stream_xmc4000.c **** 	{
 162:../Dave/Generated/USBD/usb/core/xmc4000/usbd_endpoint_stream_xmc4000.c **** 		if (ep->InInUse)
 247              	 .loc 1 162 0
 248 001a 4FF02C08 	 mov r8,#44
 249 001e 08FB0E38 	 mla r8,r8,lr,r3
 250              	.LVL27:
 251              	.L34:
 160:../Dave/Generated/USBD/usb/core/xmc4000/usbd_endpoint_stream_xmc4000.c **** 	{
 252              	 .loc 1 160 0
 253 0022 5CB3     	 cbz r4,.L48
 254              	.L54:
 255              	 .loc 1 162 0
 256 0024 D8F80830 	 ldr r3,[r8,#8]
 257 0028 DB06     	 lsls r3,r3,#27
 258 002a FBD4     	 bmi .L54
 163:../Dave/Generated/USBD/usb/core/xmc4000/usbd_endpoint_stream_xmc4000.c **** 		{
 164:../Dave/Generated/USBD/usb/core/xmc4000/usbd_endpoint_stream_xmc4000.c **** 			continue;
 165:../Dave/Generated/USBD/usb/core/xmc4000/usbd_endpoint_stream_xmc4000.c **** 		}
 166:../Dave/Generated/USBD/usb/core/xmc4000/usbd_endpoint_stream_xmc4000.c **** 		if (Endpoint_IsReadWriteAllowed()) 
 259              	 .loc 1 166 0
 260 002c FFF7FEFF 	 bl Endpoint_IsReadWriteAllowed
 261              	.LVL28:
 262 0030 58B3     	 cbz r0,.L36
 167:../Dave/Generated/USBD/usb/core/xmc4000/usbd_endpoint_stream_xmc4000.c **** 		{
 168:../Dave/Generated/USBD/usb/core/xmc4000/usbd_endpoint_stream_xmc4000.c **** 			if((ep->InBufferLength - ep->InBytesAvailable)  > Length)
 263              	 .loc 1 168 0
 264 0032 08F11802 	 add r2,r8,#24
 265 0036 D8F82400 	 ldr r0,[r8,#36]
 266 003a 5368     	 ldr r3,[r2,#4]
 267 003c C01A     	 subs r0,r0,r3
 268 003e A042     	 cmp r0,r4
 269 0040 A446     	 mov ip,r4
 270 0042 1ED8     	 bhi .L37
 169:../Dave/Generated/USBD/usb/core/xmc4000/usbd_endpoint_stream_xmc4000.c **** 			{
 170:../Dave/Generated/USBD/usb/core/xmc4000/usbd_endpoint_stream_xmc4000.c **** 				Bytes = Length;
 171:../Dave/Generated/USBD/usb/core/xmc4000/usbd_endpoint_stream_xmc4000.c **** 			}
 172:../Dave/Generated/USBD/usb/core/xmc4000/usbd_endpoint_stream_xmc4000.c **** 			else
 173:../Dave/Generated/USBD/usb/core/xmc4000/usbd_endpoint_stream_xmc4000.c **** 			{
 174:../Dave/Generated/USBD/usb/core/xmc4000/usbd_endpoint_stream_xmc4000.c **** 				Bytes = (ep->InBufferLength - ep->InBytesAvailable);
 271              	 .loc 1 174 0
 272 0044 80B2     	 uxth r0,r0
 273              	.LVL29:
 274 0046 241A     	 subs r4,r4,r0
 275              	.LVL30:
 276 0048 A1B2     	 uxth r1,r4
 175:../Dave/Generated/USBD/usb/core/xmc4000/usbd_endpoint_stream_xmc4000.c **** 			}
 176:../Dave/Generated/USBD/usb/core/xmc4000/usbd_endpoint_stream_xmc4000.c **** 
 177:../Dave/Generated/USBD/usb/core/xmc4000/usbd_endpoint_stream_xmc4000.c **** 			SwapCopy(ep->InBuffer + ep->InBytesAvailable,
 277              	 .loc 1 177 0
 278 004a 9268     	 ldr r2,[r2,#8]
 279              	.LVL31:
 280 004c 8446     	 mov ip,r0
 281              	.LBB6:
 282              	.LBB7:
 140:../Dave/Generated/USBD/usb/core/xmc4000/usbd_endpoint_stream_xmc4000.c **** 		*(uint8_t*)((uint8_t*)Dest + (Length - 1 - i)) =
 283              	 .loc 1 140 0
 284 004e 28B3     	 cbz r0,.L46
 285              	.LVL32:
 286              	.L44:
 287 0050 5C1E     	 subs r4,r3,#1
 288 0052 04EB0C03 	 add r3,r4,ip
 289              	.LVL33:
 290 0056 1344     	 add r3,r3,r2
 291 0058 1444     	 add r4,r4,r2
 292 005a 7219     	 adds r2,r6,r5
 293              	.LVL34:
 294              	.L39:
 142:../Dave/Generated/USBD/usb/core/xmc4000/usbd_endpoint_stream_xmc4000.c **** 		i++;
 295              	 .loc 1 142 0
 296 005c 12F801EB 	 ldrb lr,[r2],#1
 141:../Dave/Generated/USBD/usb/core/xmc4000/usbd_endpoint_stream_xmc4000.c **** 											*(uint8_t*)((uint8_t*)Src + i);
 297              	 .loc 1 141 0
 298 0060 03F801E9 	 strb lr,[r3],#-1
 140:../Dave/Generated/USBD/usb/core/xmc4000/usbd_endpoint_stream_xmc4000.c **** 		*(uint8_t*)((uint8_t*)Dest + (Length - 1 - i)) =
 299              	 .loc 1 140 0
 300 0064 A342     	 cmp r3,r4
 301 0066 F9D1     	 bne .L39
 302 0068 D8F81C30 	 ldr r3,[r8,#28]
 303 006c 0C46     	 mov r4,r1
 304              	.LVL35:
 305              	.L38:
 306              	.LBE7:
 307              	.LBE6:
 178:../Dave/Generated/USBD/usb/core/xmc4000/usbd_endpoint_stream_xmc4000.c **** 								(uint8_t*)Buffer + BytesTransfered,Bytes);
 179:../Dave/Generated/USBD/usb/core/xmc4000/usbd_endpoint_stream_xmc4000.c **** 			ep->InBytesAvailable += Bytes;
 308              	 .loc 1 179 0
 309 006e 6344     	 add r3,r3,ip
 180:../Dave/Generated/USBD/usb/core/xmc4000/usbd_endpoint_stream_xmc4000.c **** 			BytesTransfered += Bytes;
 310              	 .loc 1 180 0
 311 0070 0544     	 add r5,r5,r0
 312              	.LVL36:
 179:../Dave/Generated/USBD/usb/core/xmc4000/usbd_endpoint_stream_xmc4000.c **** 			BytesTransfered += Bytes;
 313              	 .loc 1 179 0
 314 0072 C8F81C30 	 str r3,[r8,#28]
 315              	 .loc 1 180 0
 316 0076 ADB2     	 uxth r5,r5
 317              	.LVL37:
 160:../Dave/Generated/USBD/usb/core/xmc4000/usbd_endpoint_stream_xmc4000.c **** 	{
 318              	 .loc 1 160 0
 319 0078 002C     	 cmp r4,#0
 320 007a D3D1     	 bne .L54
 321              	.LVL38:
 322              	.L48:
 181:../Dave/Generated/USBD/usb/core/xmc4000/usbd_endpoint_stream_xmc4000.c **** 			Length -= Bytes;
 182:../Dave/Generated/USBD/usb/core/xmc4000/usbd_endpoint_stream_xmc4000.c **** 		}
 183:../Dave/Generated/USBD/usb/core/xmc4000/usbd_endpoint_stream_xmc4000.c **** 		else 
 184:../Dave/Generated/USBD/usb/core/xmc4000/usbd_endpoint_stream_xmc4000.c **** 		{
 185:../Dave/Generated/USBD/usb/core/xmc4000/usbd_endpoint_stream_xmc4000.c **** 			Endpoint_ClearIN();
 186:../Dave/Generated/USBD/usb/core/xmc4000/usbd_endpoint_stream_xmc4000.c **** 			if (BytesProcessed!=NULL) 
 187:../Dave/Generated/USBD/usb/core/xmc4000/usbd_endpoint_stream_xmc4000.c **** 			{
 188:../Dave/Generated/USBD/usb/core/xmc4000/usbd_endpoint_stream_xmc4000.c **** 				*BytesProcessed = BytesTransfered;
 189:../Dave/Generated/USBD/usb/core/xmc4000/usbd_endpoint_stream_xmc4000.c **** 				return ENDPOINT_RWSTREAM_IncompleteTransfer;
 190:../Dave/Generated/USBD/usb/core/xmc4000/usbd_endpoint_stream_xmc4000.c **** 			}
 191:../Dave/Generated/USBD/usb/core/xmc4000/usbd_endpoint_stream_xmc4000.c **** 
 192:../Dave/Generated/USBD/usb/core/xmc4000/usbd_endpoint_stream_xmc4000.c **** 			ErrorCode = Endpoint_WaitUntilReady();
 193:../Dave/Generated/USBD/usb/core/xmc4000/usbd_endpoint_stream_xmc4000.c **** 			if (ErrorCode) 
 194:../Dave/Generated/USBD/usb/core/xmc4000/usbd_endpoint_stream_xmc4000.c **** 			{
 195:../Dave/Generated/USBD/usb/core/xmc4000/usbd_endpoint_stream_xmc4000.c **** 				return ErrorCode;
 196:../Dave/Generated/USBD/usb/core/xmc4000/usbd_endpoint_stream_xmc4000.c **** 			}
 197:../Dave/Generated/USBD/usb/core/xmc4000/usbd_endpoint_stream_xmc4000.c **** 		}
 198:../Dave/Generated/USBD/usb/core/xmc4000/usbd_endpoint_stream_xmc4000.c **** 	}
 199:../Dave/Generated/USBD/usb/core/xmc4000/usbd_endpoint_stream_xmc4000.c **** 	return ENDPOINT_RWSTREAM_NoError;
 323              	 .loc 1 199 0
 324 007c 2046     	 mov r0,r4
 325 007e BDE8F081 	 pop {r4,r5,r6,r7,r8,pc}
 326              	.LVL39:
 327              	.L37:
 177:../Dave/Generated/USBD/usb/core/xmc4000/usbd_endpoint_stream_xmc4000.c **** 								(uint8_t*)Buffer + BytesTransfered,Bytes);
 328              	 .loc 1 177 0
 329 0082 9268     	 ldr r2,[r2,#8]
 330 0084 0021     	 movs r1,#0
 331              	.LVL40:
 332 0086 2046     	 mov r0,r4
 333 0088 E2E7     	 b .L44
 334              	.LVL41:
 335              	.L36:
 185:../Dave/Generated/USBD/usb/core/xmc4000/usbd_endpoint_stream_xmc4000.c **** 			if (BytesProcessed!=NULL) 
 336              	 .loc 1 185 0
 337 008a FFF7FEFF 	 bl Endpoint_ClearIN
 338              	.LVL42:
 186:../Dave/Generated/USBD/usb/core/xmc4000/usbd_endpoint_stream_xmc4000.c **** 			{
 339              	 .loc 1 186 0
 340 008e 4FB9     	 cbnz r7,.L56
 192:../Dave/Generated/USBD/usb/core/xmc4000/usbd_endpoint_stream_xmc4000.c **** 			if (ErrorCode) 
 341              	 .loc 1 192 0
 342 0090 FFF7FEFF 	 bl Endpoint_WaitUntilReady
 343              	.LVL43:
 193:../Dave/Generated/USBD/usb/core/xmc4000/usbd_endpoint_stream_xmc4000.c **** 			{
 344              	 .loc 1 193 0
 345 0094 0028     	 cmp r0,#0
 346 0096 C4D0     	 beq .L34
 200:../Dave/Generated/USBD/usb/core/xmc4000/usbd_endpoint_stream_xmc4000.c **** }
 347              	 .loc 1 200 0
 348 0098 BDE8F081 	 pop {r4,r5,r6,r7,r8,pc}
 349              	.LVL44:
 350              	.L46:
 351              	.LBB9:
 352              	.LBB8:
 140:../Dave/Generated/USBD/usb/core/xmc4000/usbd_endpoint_stream_xmc4000.c **** 		*(uint8_t*)((uint8_t*)Dest + (Length - 1 - i)) =
 353              	 .loc 1 140 0
 354 009c 0C46     	 mov r4,r1
 355 009e E6E7     	 b .L38
 356              	.LVL45:
 357              	.L45:
 358              	.LBE8:
 359              	.LBE9:
 151:../Dave/Generated/USBD/usb/core/xmc4000/usbd_endpoint_stream_xmc4000.c **** 	uint8_t ErrorCode;
 360              	 .loc 1 151 0
 361 00a0 1546     	 mov r5,r2
 362 00a2 BAE7     	 b .L33
 363              	.LVL46:
 364              	.L56:
 188:../Dave/Generated/USBD/usb/core/xmc4000/usbd_endpoint_stream_xmc4000.c **** 				return ENDPOINT_RWSTREAM_IncompleteTransfer;
 365              	 .loc 1 188 0
 366 00a4 3D80     	 strh r5,[r7]
 189:../Dave/Generated/USBD/usb/core/xmc4000/usbd_endpoint_stream_xmc4000.c **** 			}
 367              	 .loc 1 189 0
 368 00a6 0520     	 movs r0,#5
 369 00a8 BDE8F081 	 pop {r4,r5,r6,r7,r8,pc}
 370              	.LVL47:
 371              	.L58:
 372              	 .align 2
 373              	.L57:
 374 00ac 00000000 	 .word device
 375              	 .cfi_endproc
 376              	.LFE181:
 378              	 .section .text.Endpoint_Read_Stream_LE,"ax",%progbits
 379              	 .align 2
 380              	 .global Endpoint_Read_Stream_LE
 381              	 .thumb
 382              	 .thumb_func
 384              	Endpoint_Read_Stream_LE:
 385              	.LFB182:
 201:../Dave/Generated/USBD/usb/core/xmc4000/usbd_endpoint_stream_xmc4000.c **** 
 202:../Dave/Generated/USBD/usb/core/xmc4000/usbd_endpoint_stream_xmc4000.c **** uint8_t	Endpoint_Read_Stream_LE (void *const Buffer, uint16_t Length,
 203:../Dave/Generated/USBD/usb/core/xmc4000/usbd_endpoint_stream_xmc4000.c **** 									uint16_t *const BytesProcessed)
 204:../Dave/Generated/USBD/usb/core/xmc4000/usbd_endpoint_stream_xmc4000.c **** {
 386              	 .loc 1 204 0
 387              	 .cfi_startproc
 388              	 
 389              	 
 390              	.LVL48:
 391 0000 2DE9F84F 	 push {r3,r4,r5,r6,r7,r8,r9,r10,fp,lr}
 392              	.LCFI2:
 393              	 .cfi_def_cfa_offset 40
 394              	 .cfi_offset 3,-40
 395              	 .cfi_offset 4,-36
 396              	 .cfi_offset 5,-32
 397              	 .cfi_offset 6,-28
 398              	 .cfi_offset 7,-24
 399              	 .cfi_offset 8,-20
 400              	 .cfi_offset 9,-16
 401              	 .cfi_offset 10,-12
 402              	 .cfi_offset 11,-8
 403              	 .cfi_offset 14,-4
 205:../Dave/Generated/USBD/usb/core/xmc4000/usbd_endpoint_stream_xmc4000.c **** 	USBD_Endpoint_t* ep = &device.Endpoints[device.CurrentEndpoint];
 404              	 .loc 1 205 0
 405 0004 254B     	 ldr r3,.L79
 204:../Dave/Generated/USBD/usb/core/xmc4000/usbd_endpoint_stream_xmc4000.c **** 	USBD_Endpoint_t* ep = &device.Endpoints[device.CurrentEndpoint];
 406              	 .loc 1 204 0
 407 0006 0C46     	 mov r4,r1
 408 0008 8146     	 mov r9,r0
 409              	 .loc 1 205 0
 410 000a 93F83C11 	 ldrb r1,[r3,#316]
 411              	.LVL49:
 206:../Dave/Generated/USBD/usb/core/xmc4000/usbd_endpoint_stream_xmc4000.c **** 	uint16_t Bytes = 0;
 207:../Dave/Generated/USBD/usb/core/xmc4000/usbd_endpoint_stream_xmc4000.c **** 	uint16_t BytesTransfered = 0;
 208:../Dave/Generated/USBD/usb/core/xmc4000/usbd_endpoint_stream_xmc4000.c **** 	uint8_t ErrorCode;
 209:../Dave/Generated/USBD/usb/core/xmc4000/usbd_endpoint_stream_xmc4000.c **** 
 210:../Dave/Generated/USBD/usb/core/xmc4000/usbd_endpoint_stream_xmc4000.c **** 	if (BytesProcessed!=NULL) 
 412              	 .loc 1 210 0
 413 000e 9246     	 mov r10,r2
 414 0010 002A     	 cmp r2,#0
 415 0012 3BD0     	 beq .L69
 211:../Dave/Generated/USBD/usb/core/xmc4000/usbd_endpoint_stream_xmc4000.c **** 	{
 212:../Dave/Generated/USBD/usb/core/xmc4000/usbd_endpoint_stream_xmc4000.c **** 		Length -= *BytesProcessed;
 416              	 .loc 1 212 0
 417 0014 B2F80080 	 ldrh r8,[r2]
 418 0018 C8EB0404 	 rsb r4,r8,r4
 419 001c A4B2     	 uxth r4,r4
 420              	.LVL50:
 421              	.L60:
 213:../Dave/Generated/USBD/usb/core/xmc4000/usbd_endpoint_stream_xmc4000.c **** 		BytesTransfered = *BytesProcessed;
 214:../Dave/Generated/USBD/usb/core/xmc4000/usbd_endpoint_stream_xmc4000.c **** 	}
 215:../Dave/Generated/USBD/usb/core/xmc4000/usbd_endpoint_stream_xmc4000.c **** 
 216:../Dave/Generated/USBD/usb/core/xmc4000/usbd_endpoint_stream_xmc4000.c **** 	while (Length) 
 217:../Dave/Generated/USBD/usb/core/xmc4000/usbd_endpoint_stream_xmc4000.c **** 	{
 218:../Dave/Generated/USBD/usb/core/xmc4000/usbd_endpoint_stream_xmc4000.c **** 		if (ep->OutInUse)
 422              	 .loc 1 218 0
 423 001e 2C25     	 movs r5,#44
 424 0020 05FB0135 	 mla r5,r5,r1,r3
 425              	.LVL51:
 426              	.L61:
 216:../Dave/Generated/USBD/usb/core/xmc4000/usbd_endpoint_stream_xmc4000.c **** 	{
 427              	 .loc 1 216 0
 428 0024 0CB3     	 cbz r4,.L72
 429              	.L76:
 430              	 .loc 1 218 0
 431 0026 AB68     	 ldr r3,[r5,#8]
 432 0028 1B07     	 lsls r3,r3,#28
 433 002a FCD4     	 bmi .L76
 219:../Dave/Generated/USBD/usb/core/xmc4000/usbd_endpoint_stream_xmc4000.c **** 		{
 220:../Dave/Generated/USBD/usb/core/xmc4000/usbd_endpoint_stream_xmc4000.c **** 			continue;
 221:../Dave/Generated/USBD/usb/core/xmc4000/usbd_endpoint_stream_xmc4000.c **** 		}
 222:../Dave/Generated/USBD/usb/core/xmc4000/usbd_endpoint_stream_xmc4000.c **** 		if (Endpoint_IsReadWriteAllowed()) 
 434              	 .loc 1 222 0
 435 002c FFF7FEFF 	 bl Endpoint_IsReadWriteAllowed
 436              	.LVL52:
 437 0030 10B3     	 cbz r0,.L63
 223:../Dave/Generated/USBD/usb/core/xmc4000/usbd_endpoint_stream_xmc4000.c **** 		{
 224:../Dave/Generated/USBD/usb/core/xmc4000/usbd_endpoint_stream_xmc4000.c **** 			if(ep->OutBytesAvailable  > Length)
 438              	 .loc 1 224 0
 439 0032 EE68     	 ldr r6,[r5,#12]
 440 0034 A642     	 cmp r6,r4
 441 0036 1BD8     	 bhi .L70
 225:../Dave/Generated/USBD/usb/core/xmc4000/usbd_endpoint_stream_xmc4000.c **** 			{
 226:../Dave/Generated/USBD/usb/core/xmc4000/usbd_endpoint_stream_xmc4000.c **** 				Bytes = Length;
 227:../Dave/Generated/USBD/usb/core/xmc4000/usbd_endpoint_stream_xmc4000.c **** 			}
 228:../Dave/Generated/USBD/usb/core/xmc4000/usbd_endpoint_stream_xmc4000.c **** 			else
 229:../Dave/Generated/USBD/usb/core/xmc4000/usbd_endpoint_stream_xmc4000.c **** 			{
 230:../Dave/Generated/USBD/usb/core/xmc4000/usbd_endpoint_stream_xmc4000.c **** 				Bytes = (uint16_t)ep->OutBytesAvailable;
 442              	 .loc 1 230 0
 443 0038 B3B2     	 uxth r3,r6
 444              	.LVL53:
 445 003a E41A     	 subs r4,r4,r3
 446              	.LVL54:
 447 003c 1FFA84FB 	 uxth fp,r4
 448 0040 1C46     	 mov r4,r3
 449              	.LVL55:
 450              	.L64:
 231:../Dave/Generated/USBD/usb/core/xmc4000/usbd_endpoint_stream_xmc4000.c **** 			}
 232:../Dave/Generated/USBD/usb/core/xmc4000/usbd_endpoint_stream_xmc4000.c **** 
 233:../Dave/Generated/USBD/usb/core/xmc4000/usbd_endpoint_stream_xmc4000.c **** 			memcpy((uint8_t*)Buffer + BytesTransfered,
 234:../Dave/Generated/USBD/usb/core/xmc4000/usbd_endpoint_stream_xmc4000.c **** 									ep->OutBuffer + ep->OutOffset,Bytes);
 451              	 .loc 1 234 0
 452 0042 2B69     	 ldr r3,[r5,#16]
 453 0044 6969     	 ldr r1,[r5,#20]
 233:../Dave/Generated/USBD/usb/core/xmc4000/usbd_endpoint_stream_xmc4000.c **** 									ep->OutBuffer + ep->OutOffset,Bytes);
 454              	 .loc 1 233 0
 455 0046 3246     	 mov r2,r6
 456 0048 09EB0800 	 add r0,r9,r8
 457 004c 1944     	 add r1,r1,r3
 458 004e FFF7FEFF 	 bl memcpy
 459              	.LVL56:
 235:../Dave/Generated/USBD/usb/core/xmc4000/usbd_endpoint_stream_xmc4000.c **** 			ep->OutBytesAvailable -= Bytes;
 460              	 .loc 1 235 0
 461 0052 EA68     	 ldr r2,[r5,#12]
 236:../Dave/Generated/USBD/usb/core/xmc4000/usbd_endpoint_stream_xmc4000.c **** 			ep->OutOffset += Bytes;
 462              	 .loc 1 236 0
 463 0054 2B69     	 ldr r3,[r5,#16]
 237:../Dave/Generated/USBD/usb/core/xmc4000/usbd_endpoint_stream_xmc4000.c **** 			BytesTransfered += Bytes;
 464              	 .loc 1 237 0
 465 0056 A044     	 add r8,r8,r4
 466              	.LVL57:
 235:../Dave/Generated/USBD/usb/core/xmc4000/usbd_endpoint_stream_xmc4000.c **** 			ep->OutBytesAvailable -= Bytes;
 467              	 .loc 1 235 0
 468 0058 921B     	 subs r2,r2,r6
 238:../Dave/Generated/USBD/usb/core/xmc4000/usbd_endpoint_stream_xmc4000.c **** 			Length -= Bytes;
 469              	 .loc 1 238 0
 470 005a 5C46     	 mov r4,fp
 471              	.LVL58:
 236:../Dave/Generated/USBD/usb/core/xmc4000/usbd_endpoint_stream_xmc4000.c **** 			ep->OutOffset += Bytes;
 472              	 .loc 1 236 0
 473 005c 1E44     	 add r6,r6,r3
 237:../Dave/Generated/USBD/usb/core/xmc4000/usbd_endpoint_stream_xmc4000.c **** 			BytesTransfered += Bytes;
 474              	 .loc 1 237 0
 475 005e 1FFA88F8 	 uxth r8,r8
 476              	.LVL59:
 235:../Dave/Generated/USBD/usb/core/xmc4000/usbd_endpoint_stream_xmc4000.c **** 			ep->OutOffset += Bytes;
 477              	 .loc 1 235 0
 478 0062 EA60     	 str r2,[r5,#12]
 236:../Dave/Generated/USBD/usb/core/xmc4000/usbd_endpoint_stream_xmc4000.c **** 			BytesTransfered += Bytes;
 479              	 .loc 1 236 0
 480 0064 2E61     	 str r6,[r5,#16]
 481              	.LVL60:
 216:../Dave/Generated/USBD/usb/core/xmc4000/usbd_endpoint_stream_xmc4000.c **** 	{
 482              	 .loc 1 216 0
 483 0066 002C     	 cmp r4,#0
 484 0068 DDD1     	 bne .L76
 485              	.L72:
 239:../Dave/Generated/USBD/usb/core/xmc4000/usbd_endpoint_stream_xmc4000.c **** 		}
 240:../Dave/Generated/USBD/usb/core/xmc4000/usbd_endpoint_stream_xmc4000.c **** 		else 
 241:../Dave/Generated/USBD/usb/core/xmc4000/usbd_endpoint_stream_xmc4000.c **** 		{
 242:../Dave/Generated/USBD/usb/core/xmc4000/usbd_endpoint_stream_xmc4000.c **** 			Endpoint_ClearOUT();
 243:../Dave/Generated/USBD/usb/core/xmc4000/usbd_endpoint_stream_xmc4000.c **** 			if (BytesProcessed != NULL) 
 244:../Dave/Generated/USBD/usb/core/xmc4000/usbd_endpoint_stream_xmc4000.c **** 			{
 245:../Dave/Generated/USBD/usb/core/xmc4000/usbd_endpoint_stream_xmc4000.c **** 				*BytesProcessed = BytesTransfered;
 246:../Dave/Generated/USBD/usb/core/xmc4000/usbd_endpoint_stream_xmc4000.c **** 				return ENDPOINT_RWSTREAM_IncompleteTransfer;
 247:../Dave/Generated/USBD/usb/core/xmc4000/usbd_endpoint_stream_xmc4000.c **** 			}
 248:../Dave/Generated/USBD/usb/core/xmc4000/usbd_endpoint_stream_xmc4000.c **** 
 249:../Dave/Generated/USBD/usb/core/xmc4000/usbd_endpoint_stream_xmc4000.c **** 			ErrorCode = Endpoint_WaitUntilReady();
 250:../Dave/Generated/USBD/usb/core/xmc4000/usbd_endpoint_stream_xmc4000.c **** 			if (ErrorCode) 
 251:../Dave/Generated/USBD/usb/core/xmc4000/usbd_endpoint_stream_xmc4000.c **** 			{
 252:../Dave/Generated/USBD/usb/core/xmc4000/usbd_endpoint_stream_xmc4000.c **** 				return ErrorCode;
 253:../Dave/Generated/USBD/usb/core/xmc4000/usbd_endpoint_stream_xmc4000.c **** 			}
 254:../Dave/Generated/USBD/usb/core/xmc4000/usbd_endpoint_stream_xmc4000.c **** 		}
 255:../Dave/Generated/USBD/usb/core/xmc4000/usbd_endpoint_stream_xmc4000.c **** 	}
 256:../Dave/Generated/USBD/usb/core/xmc4000/usbd_endpoint_stream_xmc4000.c **** 	return ENDPOINT_RWSTREAM_NoError;
 486              	 .loc 1 256 0
 487 006a 2046     	 mov r0,r4
 488              	.L67:
 257:../Dave/Generated/USBD/usb/core/xmc4000/usbd_endpoint_stream_xmc4000.c **** }
 489              	 .loc 1 257 0
 490 006c BDE8F88F 	 pop {r3,r4,r5,r6,r7,r8,r9,r10,fp,pc}
 491              	.LVL61:
 492              	.L70:
 493 0070 2646     	 mov r6,r4
 494 0072 4FF0000B 	 mov fp,#0
 495 0076 E4E7     	 b .L64
 496              	.L63:
 242:../Dave/Generated/USBD/usb/core/xmc4000/usbd_endpoint_stream_xmc4000.c **** 			if (BytesProcessed != NULL) 
 497              	 .loc 1 242 0
 498 0078 FFF7FEFF 	 bl Endpoint_ClearOUT
 499              	.LVL62:
 243:../Dave/Generated/USBD/usb/core/xmc4000/usbd_endpoint_stream_xmc4000.c **** 			{
 500              	 .loc 1 243 0
 501 007c BAF1000F 	 cmp r10,#0
 502 0080 06D1     	 bne .L78
 249:../Dave/Generated/USBD/usb/core/xmc4000/usbd_endpoint_stream_xmc4000.c **** 			if (ErrorCode) 
 503              	 .loc 1 249 0
 504 0082 FFF7FEFF 	 bl Endpoint_WaitUntilReady
 505              	.LVL63:
 250:../Dave/Generated/USBD/usb/core/xmc4000/usbd_endpoint_stream_xmc4000.c **** 			{
 506              	 .loc 1 250 0
 507 0086 0028     	 cmp r0,#0
 508 0088 CCD0     	 beq .L61
 509 008a EFE7     	 b .L67
 510              	.LVL64:
 511              	.L69:
 207:../Dave/Generated/USBD/usb/core/xmc4000/usbd_endpoint_stream_xmc4000.c **** 	uint8_t ErrorCode;
 512              	 .loc 1 207 0
 513 008c 9046     	 mov r8,r2
 514 008e C6E7     	 b .L60
 515              	.LVL65:
 516              	.L78:
 245:../Dave/Generated/USBD/usb/core/xmc4000/usbd_endpoint_stream_xmc4000.c **** 				return ENDPOINT_RWSTREAM_IncompleteTransfer;
 517              	 .loc 1 245 0
 518 0090 AAF80080 	 strh r8,[r10]
 246:../Dave/Generated/USBD/usb/core/xmc4000/usbd_endpoint_stream_xmc4000.c **** 			}
 519              	 .loc 1 246 0
 520 0094 0520     	 movs r0,#5
 521 0096 BDE8F88F 	 pop {r3,r4,r5,r6,r7,r8,r9,r10,fp,pc}
 522              	.LVL66:
 523              	.L80:
 524 009a 00BF     	 .align 2
 525              	.L79:
 526 009c 00000000 	 .word device
 527              	 .cfi_endproc
 528              	.LFE182:
 530              	 .section .text.Endpoint_Read_Stream_BE,"ax",%progbits
 531              	 .align 2
 532              	 .global Endpoint_Read_Stream_BE
 533              	 .thumb
 534              	 .thumb_func
 536              	Endpoint_Read_Stream_BE:
 537              	.LFB183:
 258:../Dave/Generated/USBD/usb/core/xmc4000/usbd_endpoint_stream_xmc4000.c **** 
 259:../Dave/Generated/USBD/usb/core/xmc4000/usbd_endpoint_stream_xmc4000.c **** uint8_t	Endpoint_Read_Stream_BE (void *const Buffer, uint16_t Length,
 260:../Dave/Generated/USBD/usb/core/xmc4000/usbd_endpoint_stream_xmc4000.c **** 									uint16_t *const BytesProcessed)
 261:../Dave/Generated/USBD/usb/core/xmc4000/usbd_endpoint_stream_xmc4000.c **** {
 538              	 .loc 1 261 0
 539              	 .cfi_startproc
 540              	 
 541              	 
 542              	.LVL67:
 543 0000 2DE9F041 	 push {r4,r5,r6,r7,r8,lr}
 544              	.LCFI3:
 545              	 .cfi_def_cfa_offset 24
 546              	 .cfi_offset 4,-24
 547              	 .cfi_offset 5,-20
 548              	 .cfi_offset 6,-16
 549              	 .cfi_offset 7,-12
 550              	 .cfi_offset 8,-8
 551              	 .cfi_offset 14,-4
 262:../Dave/Generated/USBD/usb/core/xmc4000/usbd_endpoint_stream_xmc4000.c **** 	USBD_Endpoint_t* ep = &device.Endpoints[device.CurrentEndpoint];
 552              	 .loc 1 262 0
 553 0004 2F4B     	 ldr r3,.L106
 261:../Dave/Generated/USBD/usb/core/xmc4000/usbd_endpoint_stream_xmc4000.c **** 	USBD_Endpoint_t* ep = &device.Endpoints[device.CurrentEndpoint];
 554              	 .loc 1 261 0
 555 0006 0646     	 mov r6,r0
 556 0008 0C46     	 mov r4,r1
 557              	 .loc 1 262 0
 558 000a 93F83CE1 	 ldrb lr,[r3,#316]
 559              	.LVL68:
 263:../Dave/Generated/USBD/usb/core/xmc4000/usbd_endpoint_stream_xmc4000.c **** 	uint16_t Bytes = 0;
 264:../Dave/Generated/USBD/usb/core/xmc4000/usbd_endpoint_stream_xmc4000.c **** 	uint16_t BytesTransfered = 0;
 265:../Dave/Generated/USBD/usb/core/xmc4000/usbd_endpoint_stream_xmc4000.c **** 	uint8_t ErrorCode;
 266:../Dave/Generated/USBD/usb/core/xmc4000/usbd_endpoint_stream_xmc4000.c **** 
 267:../Dave/Generated/USBD/usb/core/xmc4000/usbd_endpoint_stream_xmc4000.c **** 	if (BytesProcessed!=NULL) 
 560              	 .loc 1 267 0
 561 000e 1746     	 mov r7,r2
 562 0010 002A     	 cmp r2,#0
 563 0012 50D0     	 beq .L94
 268:../Dave/Generated/USBD/usb/core/xmc4000/usbd_endpoint_stream_xmc4000.c **** 	{
 269:../Dave/Generated/USBD/usb/core/xmc4000/usbd_endpoint_stream_xmc4000.c **** 		Length -= *BytesProcessed;
 564              	 .loc 1 269 0
 565 0014 1588     	 ldrh r5,[r2]
 566 0016 4C1B     	 subs r4,r1,r5
 567 0018 A4B2     	 uxth r4,r4
 568              	.LVL69:
 569              	.L82:
 270:../Dave/Generated/USBD/usb/core/xmc4000/usbd_endpoint_stream_xmc4000.c **** 		BytesTransfered = *BytesProcessed;
 271:../Dave/Generated/USBD/usb/core/xmc4000/usbd_endpoint_stream_xmc4000.c **** 	}
 272:../Dave/Generated/USBD/usb/core/xmc4000/usbd_endpoint_stream_xmc4000.c **** 
 273:../Dave/Generated/USBD/usb/core/xmc4000/usbd_endpoint_stream_xmc4000.c **** 	while (Length) 
 274:../Dave/Generated/USBD/usb/core/xmc4000/usbd_endpoint_stream_xmc4000.c **** 	{
 275:../Dave/Generated/USBD/usb/core/xmc4000/usbd_endpoint_stream_xmc4000.c **** 		if (ep->InInUse)
 570              	 .loc 1 275 0
 571 001a 4FF02C08 	 mov r8,#44
 572 001e 08FB0E38 	 mla r8,r8,lr,r3
 573              	.LVL70:
 574              	.L83:
 273:../Dave/Generated/USBD/usb/core/xmc4000/usbd_endpoint_stream_xmc4000.c **** 	{
 575              	 .loc 1 273 0
 576 0022 94B3     	 cbz r4,.L97
 577              	.L103:
 578              	 .loc 1 275 0
 579 0024 D8F80830 	 ldr r3,[r8,#8]
 580 0028 DB06     	 lsls r3,r3,#27
 581 002a FBD4     	 bmi .L103
 276:../Dave/Generated/USBD/usb/core/xmc4000/usbd_endpoint_stream_xmc4000.c **** 		{
 277:../Dave/Generated/USBD/usb/core/xmc4000/usbd_endpoint_stream_xmc4000.c **** 			continue;
 278:../Dave/Generated/USBD/usb/core/xmc4000/usbd_endpoint_stream_xmc4000.c **** 		}
 279:../Dave/Generated/USBD/usb/core/xmc4000/usbd_endpoint_stream_xmc4000.c **** 		if (Endpoint_IsReadWriteAllowed()) 
 582              	 .loc 1 279 0
 583 002c FFF7FEFF 	 bl Endpoint_IsReadWriteAllowed
 584              	.LVL71:
 585 0030 A8B3     	 cbz r0,.L85
 280:../Dave/Generated/USBD/usb/core/xmc4000/usbd_endpoint_stream_xmc4000.c **** 		{
 281:../Dave/Generated/USBD/usb/core/xmc4000/usbd_endpoint_stream_xmc4000.c **** 			if(ep->OutBytesAvailable  > Length)
 586              	 .loc 1 281 0
 587 0032 08F10803 	 add r3,r8,#8
 588 0036 5968     	 ldr r1,[r3,#4]
 589 0038 A142     	 cmp r1,r4
 590 003a 29D8     	 bhi .L86
 282:../Dave/Generated/USBD/usb/core/xmc4000/usbd_endpoint_stream_xmc4000.c **** 			{
 283:../Dave/Generated/USBD/usb/core/xmc4000/usbd_endpoint_stream_xmc4000.c **** 				Bytes = Length;
 284:../Dave/Generated/USBD/usb/core/xmc4000/usbd_endpoint_stream_xmc4000.c **** 			}
 285:../Dave/Generated/USBD/usb/core/xmc4000/usbd_endpoint_stream_xmc4000.c **** 			else
 286:../Dave/Generated/USBD/usb/core/xmc4000/usbd_endpoint_stream_xmc4000.c **** 			{
 287:../Dave/Generated/USBD/usb/core/xmc4000/usbd_endpoint_stream_xmc4000.c **** 				Bytes = (uint16_t)ep->OutBytesAvailable;
 591              	 .loc 1 287 0
 592 003c 1FFA81FC 	 uxth ip,r1
 593              	.LVL72:
 594 0040 CCEB0400 	 rsb r0,ip,r4
 288:../Dave/Generated/USBD/usb/core/xmc4000/usbd_endpoint_stream_xmc4000.c **** 			}
 289:../Dave/Generated/USBD/usb/core/xmc4000/usbd_endpoint_stream_xmc4000.c **** 
 290:../Dave/Generated/USBD/usb/core/xmc4000/usbd_endpoint_stream_xmc4000.c **** 			SwapCopy((uint8_t*)Buffer + BytesTransfered,
 291:../Dave/Generated/USBD/usb/core/xmc4000/usbd_endpoint_stream_xmc4000.c **** 									ep->OutBuffer + ep->OutOffset,Bytes);
 595              	 .loc 1 291 0
 596 0044 9A68     	 ldr r2,[r3,#8]
 597 0046 D8F81440 	 ldr r4,[r8,#20]
 598              	.LVL73:
 599 004a 80B2     	 uxth r0,r0
 600              	.LVL74:
 601              	.LBB10:
 602              	.LBB11:
 140:../Dave/Generated/USBD/usb/core/xmc4000/usbd_endpoint_stream_xmc4000.c **** 		*(uint8_t*)((uint8_t*)Dest + (Length - 1 - i)) =
 603              	 .loc 1 140 0
 604 004c 81B3     	 cbz r1,.L95
 605              	.LVL75:
 606              	.L93:
 607 004e 05F1FF3E 	 add lr,r5,#-1
 608 0052 0EEB0103 	 add r3,lr,r1
 609 0056 2244     	 add r2,r2,r4
 610 0058 3344     	 add r3,r3,r6
 611 005a B644     	 add lr,lr,r6
 612              	.LVL76:
 613              	.L88:
 142:../Dave/Generated/USBD/usb/core/xmc4000/usbd_endpoint_stream_xmc4000.c **** 		i++;
 614              	 .loc 1 142 0
 615 005c 12F8014B 	 ldrb r4,[r2],#1
 141:../Dave/Generated/USBD/usb/core/xmc4000/usbd_endpoint_stream_xmc4000.c **** 											*(uint8_t*)((uint8_t*)Src + i);
 616              	 .loc 1 141 0
 617 0060 03F80149 	 strb r4,[r3],#-1
 140:../Dave/Generated/USBD/usb/core/xmc4000/usbd_endpoint_stream_xmc4000.c **** 		*(uint8_t*)((uint8_t*)Dest + (Length - 1 - i)) =
 618              	 .loc 1 140 0
 619 0064 7345     	 cmp r3,lr
 620 0066 F9D1     	 bne .L88
 621 0068 0446     	 mov r4,r0
 622 006a D8F81020 	 ldr r2,[r8,#16]
 623 006e D8F80C00 	 ldr r0,[r8,#12]
 624              	.LVL77:
 625              	.L87:
 626              	.LBE11:
 627              	.LBE10:
 292:../Dave/Generated/USBD/usb/core/xmc4000/usbd_endpoint_stream_xmc4000.c **** 			ep->OutBytesAvailable -= Bytes;
 628              	 .loc 1 292 0
 629 0072 431A     	 subs r3,r0,r1
 293:../Dave/Generated/USBD/usb/core/xmc4000/usbd_endpoint_stream_xmc4000.c **** 			ep->OutOffset += Bytes;
 630              	 .loc 1 293 0
 631 0074 0A44     	 add r2,r2,r1
 294:../Dave/Generated/USBD/usb/core/xmc4000/usbd_endpoint_stream_xmc4000.c **** 			BytesTransfered += Bytes;
 632              	 .loc 1 294 0
 633 0076 6544     	 add r5,r5,ip
 634              	.LVL78:
 292:../Dave/Generated/USBD/usb/core/xmc4000/usbd_endpoint_stream_xmc4000.c **** 			ep->OutBytesAvailable -= Bytes;
 635              	 .loc 1 292 0
 636 0078 08F1080E 	 add lr,r8,#8
 637              	 .loc 1 294 0
 638 007c ADB2     	 uxth r5,r5
 639              	.LVL79:
 292:../Dave/Generated/USBD/usb/core/xmc4000/usbd_endpoint_stream_xmc4000.c **** 			ep->OutBytesAvailable -= Bytes;
 640              	 .loc 1 292 0
 641 007e C8F80C30 	 str r3,[r8,#12]
 293:../Dave/Generated/USBD/usb/core/xmc4000/usbd_endpoint_stream_xmc4000.c **** 			ep->OutOffset += Bytes;
 642              	 .loc 1 293 0
 643 0082 C8F81020 	 str r2,[r8,#16]
 644              	.LVL80:
 273:../Dave/Generated/USBD/usb/core/xmc4000/usbd_endpoint_stream_xmc4000.c **** 	{
 645              	 .loc 1 273 0
 646 0086 002C     	 cmp r4,#0
 647 0088 CCD1     	 bne .L103
 648              	.LVL81:
 649              	.L97:
 295:../Dave/Generated/USBD/usb/core/xmc4000/usbd_endpoint_stream_xmc4000.c **** 			Length -= Bytes;
 296:../Dave/Generated/USBD/usb/core/xmc4000/usbd_endpoint_stream_xmc4000.c **** 		}
 297:../Dave/Generated/USBD/usb/core/xmc4000/usbd_endpoint_stream_xmc4000.c **** 		else 
 298:../Dave/Generated/USBD/usb/core/xmc4000/usbd_endpoint_stream_xmc4000.c **** 		{
 299:../Dave/Generated/USBD/usb/core/xmc4000/usbd_endpoint_stream_xmc4000.c **** 			Endpoint_ClearOUT();
 300:../Dave/Generated/USBD/usb/core/xmc4000/usbd_endpoint_stream_xmc4000.c **** 			if (BytesProcessed!=NULL) 
 301:../Dave/Generated/USBD/usb/core/xmc4000/usbd_endpoint_stream_xmc4000.c **** 			{
 302:../Dave/Generated/USBD/usb/core/xmc4000/usbd_endpoint_stream_xmc4000.c **** 				*BytesProcessed = BytesTransfered;
 303:../Dave/Generated/USBD/usb/core/xmc4000/usbd_endpoint_stream_xmc4000.c **** 				return ENDPOINT_RWSTREAM_IncompleteTransfer;
 304:../Dave/Generated/USBD/usb/core/xmc4000/usbd_endpoint_stream_xmc4000.c **** 			}
 305:../Dave/Generated/USBD/usb/core/xmc4000/usbd_endpoint_stream_xmc4000.c **** 			ErrorCode = Endpoint_WaitUntilReady();
 306:../Dave/Generated/USBD/usb/core/xmc4000/usbd_endpoint_stream_xmc4000.c **** 			if (ErrorCode) 
 307:../Dave/Generated/USBD/usb/core/xmc4000/usbd_endpoint_stream_xmc4000.c **** 			{
 308:../Dave/Generated/USBD/usb/core/xmc4000/usbd_endpoint_stream_xmc4000.c **** 				return ErrorCode;
 309:../Dave/Generated/USBD/usb/core/xmc4000/usbd_endpoint_stream_xmc4000.c **** 			}
 310:../Dave/Generated/USBD/usb/core/xmc4000/usbd_endpoint_stream_xmc4000.c **** 		}
 311:../Dave/Generated/USBD/usb/core/xmc4000/usbd_endpoint_stream_xmc4000.c **** 	}
 312:../Dave/Generated/USBD/usb/core/xmc4000/usbd_endpoint_stream_xmc4000.c **** 	return ENDPOINT_RWSTREAM_NoError;
 650              	 .loc 1 312 0
 651 008a 2046     	 mov r0,r4
 652 008c BDE8F081 	 pop {r4,r5,r6,r7,r8,pc}
 653              	.LVL82:
 654              	.L86:
 291:../Dave/Generated/USBD/usb/core/xmc4000/usbd_endpoint_stream_xmc4000.c **** 			ep->OutBytesAvailable -= Bytes;
 655              	 .loc 1 291 0
 656 0090 A446     	 mov ip,r4
 657 0092 9A68     	 ldr r2,[r3,#8]
 658 0094 D8F81440 	 ldr r4,[r8,#20]
 659              	.LVL83:
 660 0098 6146     	 mov r1,ip
 661 009a 0020     	 movs r0,#0
 662              	.LVL84:
 663 009c D7E7     	 b .L93
 664              	.LVL85:
 665              	.L85:
 299:../Dave/Generated/USBD/usb/core/xmc4000/usbd_endpoint_stream_xmc4000.c **** 			if (BytesProcessed!=NULL) 
 666              	 .loc 1 299 0
 667 009e FFF7FEFF 	 bl Endpoint_ClearOUT
 668              	.LVL86:
 300:../Dave/Generated/USBD/usb/core/xmc4000/usbd_endpoint_stream_xmc4000.c **** 			{
 669              	 .loc 1 300 0
 670 00a2 57B9     	 cbnz r7,.L105
 305:../Dave/Generated/USBD/usb/core/xmc4000/usbd_endpoint_stream_xmc4000.c **** 			if (ErrorCode) 
 671              	 .loc 1 305 0
 672 00a4 FFF7FEFF 	 bl Endpoint_WaitUntilReady
 673              	.LVL87:
 306:../Dave/Generated/USBD/usb/core/xmc4000/usbd_endpoint_stream_xmc4000.c **** 			{
 674              	 .loc 1 306 0
 675 00a8 0028     	 cmp r0,#0
 676 00aa BAD0     	 beq .L83
 313:../Dave/Generated/USBD/usb/core/xmc4000/usbd_endpoint_stream_xmc4000.c **** }
 677              	 .loc 1 313 0
 678 00ac BDE8F081 	 pop {r4,r5,r6,r7,r8,pc}
 679              	.LVL88:
 680              	.L95:
 681              	.LBB13:
 682              	.LBB12:
 140:../Dave/Generated/USBD/usb/core/xmc4000/usbd_endpoint_stream_xmc4000.c **** 		*(uint8_t*)((uint8_t*)Dest + (Length - 1 - i)) =
 683              	 .loc 1 140 0
 684 00b0 0446     	 mov r4,r0
 685              	.LVL89:
 686              	.LBE12:
 687              	.LBE13:
 281:../Dave/Generated/USBD/usb/core/xmc4000/usbd_endpoint_stream_xmc4000.c **** 			{
 688              	 .loc 1 281 0
 689 00b2 0846     	 mov r0,r1
 690 00b4 DDE7     	 b .L87
 691              	.LVL90:
 692              	.L94:
 264:../Dave/Generated/USBD/usb/core/xmc4000/usbd_endpoint_stream_xmc4000.c **** 	uint8_t ErrorCode;
 693              	 .loc 1 264 0
 694 00b6 1546     	 mov r5,r2
 695 00b8 AFE7     	 b .L82
 696              	.LVL91:
 697              	.L105:
 302:../Dave/Generated/USBD/usb/core/xmc4000/usbd_endpoint_stream_xmc4000.c **** 				return ENDPOINT_RWSTREAM_IncompleteTransfer;
 698              	 .loc 1 302 0
 699 00ba 3D80     	 strh r5,[r7]
 303:../Dave/Generated/USBD/usb/core/xmc4000/usbd_endpoint_stream_xmc4000.c **** 			}
 700              	 .loc 1 303 0
 701 00bc 0520     	 movs r0,#5
 702 00be BDE8F081 	 pop {r4,r5,r6,r7,r8,pc}
 703              	.LVL92:
 704              	.L107:
 705 00c2 00BF     	 .align 2
 706              	.L106:
 707 00c4 00000000 	 .word device
 708              	 .cfi_endproc
 709              	.LFE183:
 711              	 .section .text.Endpoint_Write_Control_Stream_LE,"ax",%progbits
 712              	 .align 2
 713              	 .global Endpoint_Write_Control_Stream_LE
 714              	 .thumb
 715              	 .thumb_func
 717              	Endpoint_Write_Control_Stream_LE:
 718              	.LFB184:
 314:../Dave/Generated/USBD/usb/core/xmc4000/usbd_endpoint_stream_xmc4000.c **** 
 315:../Dave/Generated/USBD/usb/core/xmc4000/usbd_endpoint_stream_xmc4000.c **** uint8_t	Endpoint_Write_Control_Stream_LE (const void *const Buffer,
 316:../Dave/Generated/USBD/usb/core/xmc4000/usbd_endpoint_stream_xmc4000.c **** 													uint16_t Length)
 317:../Dave/Generated/USBD/usb/core/xmc4000/usbd_endpoint_stream_xmc4000.c **** {
 719              	 .loc 1 317 0
 720              	 .cfi_startproc
 721              	 
 722              	 
 723              	.LVL93:
 724 0000 F8B5     	 push {r3,r4,r5,r6,r7,lr}
 725              	.LCFI4:
 726              	 .cfi_def_cfa_offset 24
 727              	 .cfi_offset 3,-24
 728              	 .cfi_offset 4,-20
 729              	 .cfi_offset 5,-16
 730              	 .cfi_offset 6,-12
 731              	 .cfi_offset 7,-8
 732              	 .cfi_offset 14,-4
 318:../Dave/Generated/USBD/usb/core/xmc4000/usbd_endpoint_stream_xmc4000.c **** 	USBD_Endpoint_t *EndPoint = &device.Endpoints[0];
 319:../Dave/Generated/USBD/usb/core/xmc4000/usbd_endpoint_stream_xmc4000.c **** 	uint16_t Bytes;
 320:../Dave/Generated/USBD/usb/core/xmc4000/usbd_endpoint_stream_xmc4000.c **** 
 321:../Dave/Generated/USBD/usb/core/xmc4000/usbd_endpoint_stream_xmc4000.c **** 	while (Length) 
 322:../Dave/Generated/USBD/usb/core/xmc4000/usbd_endpoint_stream_xmc4000.c **** 	{
 323:../Dave/Generated/USBD/usb/core/xmc4000/usbd_endpoint_stream_xmc4000.c **** 		if (!EndPoint->InInUse) 
 733              	 .loc 1 323 0
 734 0002 0E4C     	 ldr r4,.L120
 317:../Dave/Generated/USBD/usb/core/xmc4000/usbd_endpoint_stream_xmc4000.c **** 	USBD_Endpoint_t *EndPoint = &device.Endpoints[0];
 735              	 .loc 1 317 0
 736 0004 0746     	 mov r7,r0
 737 0006 0D46     	 mov r5,r1
 738              	.LVL94:
 739              	.L109:
 321:../Dave/Generated/USBD/usb/core/xmc4000/usbd_endpoint_stream_xmc4000.c **** 	{
 740              	 .loc 1 321 0
 741 0008 ADB1     	 cbz r5,.L119
 742              	.LVL95:
 743              	.L115:
 744              	 .loc 1 323 0
 745 000a A368     	 ldr r3,[r4,#8]
 746 000c DB06     	 lsls r3,r3,#27
 747 000e FCD4     	 bmi .L115
 324:../Dave/Generated/USBD/usb/core/xmc4000/usbd_endpoint_stream_xmc4000.c **** 		{
 325:../Dave/Generated/USBD/usb/core/xmc4000/usbd_endpoint_stream_xmc4000.c **** 			if (EndPoint->InBufferLength > Length) 
 748              	 .loc 1 325 0
 749 0010 666A     	 ldr r6,[r4,#36]
 326:../Dave/Generated/USBD/usb/core/xmc4000/usbd_endpoint_stream_xmc4000.c **** 			{
 327:../Dave/Generated/USBD/usb/core/xmc4000/usbd_endpoint_stream_xmc4000.c **** 				Bytes = Length;
 328:../Dave/Generated/USBD/usb/core/xmc4000/usbd_endpoint_stream_xmc4000.c **** 			} 
 329:../Dave/Generated/USBD/usb/core/xmc4000/usbd_endpoint_stream_xmc4000.c **** 			else 
 330:../Dave/Generated/USBD/usb/core/xmc4000/usbd_endpoint_stream_xmc4000.c **** 			{
 331:../Dave/Generated/USBD/usb/core/xmc4000/usbd_endpoint_stream_xmc4000.c **** 				Bytes = (uint16_t)EndPoint->InBufferLength;
 332:../Dave/Generated/USBD/usb/core/xmc4000/usbd_endpoint_stream_xmc4000.c **** 			}
 333:../Dave/Generated/USBD/usb/core/xmc4000/usbd_endpoint_stream_xmc4000.c **** 			memcpy(EndPoint->InBuffer,Buffer,Bytes);
 750              	 .loc 1 333 0
 751 0012 206A     	 ldr r0,[r4,#32]
 325:../Dave/Generated/USBD/usb/core/xmc4000/usbd_endpoint_stream_xmc4000.c **** 			{
 752              	 .loc 1 325 0
 753 0014 AE42     	 cmp r6,r5
 754              	.LVL96:
 755 0016 8CBF     	 ite hi
 756 0018 2E46     	 movhi r6,r5
 757 001a AD1B     	 subls r5,r5,r6
 758              	 .loc 1 333 0
 759 001c 3246     	 mov r2,r6
 760 001e 3946     	 mov r1,r7
 761 0020 94BF     	 ite ls
 762 0022 ADB2     	 uxthls r5,r5
 763 0024 0025     	 movhi r5,#0
 764 0026 FFF7FEFF 	 bl memcpy
 765              	.LVL97:
 334:../Dave/Generated/USBD/usb/core/xmc4000/usbd_endpoint_stream_xmc4000.c **** 			EndPoint->InBytesAvailable += Bytes;
 766              	 .loc 1 334 0
 767 002a E369     	 ldr r3,[r4,#28]
 768 002c 1E44     	 add r6,r6,r3
 769 002e E661     	 str r6,[r4,#28]
 770              	.LVL98:
 335:../Dave/Generated/USBD/usb/core/xmc4000/usbd_endpoint_stream_xmc4000.c **** 			Length -= Bytes;
 336:../Dave/Generated/USBD/usb/core/xmc4000/usbd_endpoint_stream_xmc4000.c **** 
 337:../Dave/Generated/USBD/usb/core/xmc4000/usbd_endpoint_stream_xmc4000.c **** 			Endpoint_ClearIN();
 771              	 .loc 1 337 0
 772 0030 FFF7FEFF 	 bl Endpoint_ClearIN
 773              	.LVL99:
 774 0034 E8E7     	 b .L109
 775              	.L119:
 338:../Dave/Generated/USBD/usb/core/xmc4000/usbd_endpoint_stream_xmc4000.c **** 		}
 339:../Dave/Generated/USBD/usb/core/xmc4000/usbd_endpoint_stream_xmc4000.c **** 	}
 340:../Dave/Generated/USBD/usb/core/xmc4000/usbd_endpoint_stream_xmc4000.c **** 	return ENDPOINT_RWCSTREAM_NoError;
 341:../Dave/Generated/USBD/usb/core/xmc4000/usbd_endpoint_stream_xmc4000.c **** }
 776              	 .loc 1 341 0
 777 0036 2846     	 mov r0,r5
 778 0038 F8BD     	 pop {r3,r4,r5,r6,r7,pc}
 779              	.LVL100:
 780              	.L121:
 781 003a 00BF     	 .align 2
 782              	.L120:
 783 003c 00000000 	 .word device
 784              	 .cfi_endproc
 785              	.LFE184:
 787              	 .section .text.Endpoint_Write_Control_Stream_BE,"ax",%progbits
 788              	 .align 2
 789              	 .global Endpoint_Write_Control_Stream_BE
 790              	 .thumb
 791              	 .thumb_func
 793              	Endpoint_Write_Control_Stream_BE:
 794              	.LFB185:
 342:../Dave/Generated/USBD/usb/core/xmc4000/usbd_endpoint_stream_xmc4000.c **** 
 343:../Dave/Generated/USBD/usb/core/xmc4000/usbd_endpoint_stream_xmc4000.c **** uint8_t	Endpoint_Write_Control_Stream_BE (const void *const Buffer,
 344:../Dave/Generated/USBD/usb/core/xmc4000/usbd_endpoint_stream_xmc4000.c **** 													uint16_t Length)
 345:../Dave/Generated/USBD/usb/core/xmc4000/usbd_endpoint_stream_xmc4000.c **** {
 795              	 .loc 1 345 0
 796              	 .cfi_startproc
 797              	 
 798              	 
 799              	.LVL101:
 800 0000 F8B5     	 push {r3,r4,r5,r6,r7,lr}
 801              	.LCFI5:
 802              	 .cfi_def_cfa_offset 24
 803              	 .cfi_offset 3,-24
 804              	 .cfi_offset 4,-20
 805              	 .cfi_offset 5,-16
 806              	 .cfi_offset 6,-12
 807              	 .cfi_offset 7,-8
 808              	 .cfi_offset 14,-4
 809              	.LBB16:
 810              	.LBB17:
 323:../Dave/Generated/USBD/usb/core/xmc4000/usbd_endpoint_stream_xmc4000.c **** 		{
 811              	 .loc 1 323 0
 812 0002 0E4C     	 ldr r4,.L134
 813              	.LBE17:
 814              	.LBE16:
 815              	 .loc 1 345 0
 816 0004 0746     	 mov r7,r0
 817              	.LVL102:
 818 0006 0D46     	 mov r5,r1
 819              	.LVL103:
 820              	.L123:
 821              	.LBB19:
 822              	.LBB18:
 321:../Dave/Generated/USBD/usb/core/xmc4000/usbd_endpoint_stream_xmc4000.c **** 	{
 823              	 .loc 1 321 0
 824 0008 ADB1     	 cbz r5,.L133
 825              	.LVL104:
 826              	.L129:
 323:../Dave/Generated/USBD/usb/core/xmc4000/usbd_endpoint_stream_xmc4000.c **** 		{
 827              	 .loc 1 323 0
 828 000a A368     	 ldr r3,[r4,#8]
 829 000c DB06     	 lsls r3,r3,#27
 830 000e FCD4     	 bmi .L129
 325:../Dave/Generated/USBD/usb/core/xmc4000/usbd_endpoint_stream_xmc4000.c **** 			{
 831              	 .loc 1 325 0
 832 0010 666A     	 ldr r6,[r4,#36]
 333:../Dave/Generated/USBD/usb/core/xmc4000/usbd_endpoint_stream_xmc4000.c **** 			EndPoint->InBytesAvailable += Bytes;
 833              	 .loc 1 333 0
 834 0012 206A     	 ldr r0,[r4,#32]
 325:../Dave/Generated/USBD/usb/core/xmc4000/usbd_endpoint_stream_xmc4000.c **** 			{
 835              	 .loc 1 325 0
 836 0014 AE42     	 cmp r6,r5
 837              	.LVL105:
 838 0016 8CBF     	 ite hi
 839 0018 2E46     	 movhi r6,r5
 840 001a AD1B     	 subls r5,r5,r6
 333:../Dave/Generated/USBD/usb/core/xmc4000/usbd_endpoint_stream_xmc4000.c **** 			EndPoint->InBytesAvailable += Bytes;
 841              	 .loc 1 333 0
 842 001c 3246     	 mov r2,r6
 843 001e 3946     	 mov r1,r7
 844 0020 94BF     	 ite ls
 845 0022 ADB2     	 uxthls r5,r5
 325:../Dave/Generated/USBD/usb/core/xmc4000/usbd_endpoint_stream_xmc4000.c **** 			{
 846              	 .loc 1 325 0
 847 0024 0025     	 movhi r5,#0
 333:../Dave/Generated/USBD/usb/core/xmc4000/usbd_endpoint_stream_xmc4000.c **** 			EndPoint->InBytesAvailable += Bytes;
 848              	 .loc 1 333 0
 849 0026 FFF7FEFF 	 bl memcpy
 850              	.LVL106:
 334:../Dave/Generated/USBD/usb/core/xmc4000/usbd_endpoint_stream_xmc4000.c **** 			Length -= Bytes;
 851              	 .loc 1 334 0
 852 002a E369     	 ldr r3,[r4,#28]
 853 002c 1E44     	 add r6,r6,r3
 854 002e E661     	 str r6,[r4,#28]
 855              	.LVL107:
 337:../Dave/Generated/USBD/usb/core/xmc4000/usbd_endpoint_stream_xmc4000.c **** 		}
 856              	 .loc 1 337 0
 857 0030 FFF7FEFF 	 bl Endpoint_ClearIN
 858              	.LVL108:
 859 0034 E8E7     	 b .L123
 860              	.L133:
 861              	.LBE18:
 862              	.LBE19:
 346:../Dave/Generated/USBD/usb/core/xmc4000/usbd_endpoint_stream_xmc4000.c **** 	return Endpoint_Write_Control_Stream_LE(Buffer,Length);
 347:../Dave/Generated/USBD/usb/core/xmc4000/usbd_endpoint_stream_xmc4000.c **** }
 863              	 .loc 1 347 0
 864 0036 2846     	 mov r0,r5
 865 0038 F8BD     	 pop {r3,r4,r5,r6,r7,pc}
 866              	.LVL109:
 867              	.L135:
 868 003a 00BF     	 .align 2
 869              	.L134:
 870 003c 00000000 	 .word device
 871              	 .cfi_endproc
 872              	.LFE185:
 874              	 .section .text.Endpoint_Read_Control_Stream_LE,"ax",%progbits
 875              	 .align 2
 876              	 .global Endpoint_Read_Control_Stream_LE
 877              	 .thumb
 878              	 .thumb_func
 880              	Endpoint_Read_Control_Stream_LE:
 881              	.LFB186:
 348:../Dave/Generated/USBD/usb/core/xmc4000/usbd_endpoint_stream_xmc4000.c **** 
 349:../Dave/Generated/USBD/usb/core/xmc4000/usbd_endpoint_stream_xmc4000.c **** uint8_t	Endpoint_Read_Control_Stream_LE (void *const Buffer, uint16_t Length) {
 882              	 .loc 1 349 0
 883              	 .cfi_startproc
 884              	 
 885              	 
 886              	.LVL110:
 887 0000 F8B5     	 push {r3,r4,r5,r6,r7,lr}
 888              	.LCFI6:
 889              	 .cfi_def_cfa_offset 24
 890              	 .cfi_offset 3,-24
 891              	 .cfi_offset 4,-20
 892              	 .cfi_offset 5,-16
 893              	 .cfi_offset 6,-12
 894              	 .cfi_offset 7,-8
 895              	 .cfi_offset 14,-4
 350:../Dave/Generated/USBD/usb/core/xmc4000/usbd_endpoint_stream_xmc4000.c **** 	USBD_Endpoint_t *EndPoint = &device.Endpoints[0];
 351:../Dave/Generated/USBD/usb/core/xmc4000/usbd_endpoint_stream_xmc4000.c **** 	uint16_t Bytes;
 352:../Dave/Generated/USBD/usb/core/xmc4000/usbd_endpoint_stream_xmc4000.c **** 
 353:../Dave/Generated/USBD/usb/core/xmc4000/usbd_endpoint_stream_xmc4000.c **** 	while (Length) 
 354:../Dave/Generated/USBD/usb/core/xmc4000/usbd_endpoint_stream_xmc4000.c **** 	{
 355:../Dave/Generated/USBD/usb/core/xmc4000/usbd_endpoint_stream_xmc4000.c **** 		if (EndPoint->IsOutRecieved) 
 896              	 .loc 1 355 0
 897 0002 0E4C     	 ldr r4,.L148
 349:../Dave/Generated/USBD/usb/core/xmc4000/usbd_endpoint_stream_xmc4000.c **** 	USBD_Endpoint_t *EndPoint = &device.Endpoints[0];
 898              	 .loc 1 349 0
 899 0004 0746     	 mov r7,r0
 900 0006 0D46     	 mov r5,r1
 901              	.LVL111:
 902              	.L137:
 353:../Dave/Generated/USBD/usb/core/xmc4000/usbd_endpoint_stream_xmc4000.c **** 	{
 903              	 .loc 1 353 0
 904 0008 ADB1     	 cbz r5,.L147
 905              	.LVL112:
 906              	.L138:
 907              	 .loc 1 355 0
 908 000a A368     	 ldr r3,[r4,#8]
 909 000c 9B06     	 lsls r3,r3,#26
 910 000e FCD5     	 bpl .L138
 356:../Dave/Generated/USBD/usb/core/xmc4000/usbd_endpoint_stream_xmc4000.c **** 		{
 357:../Dave/Generated/USBD/usb/core/xmc4000/usbd_endpoint_stream_xmc4000.c **** 			if(EndPoint->OutBytesAvailable > Length)
 911              	 .loc 1 357 0
 912 0010 E668     	 ldr r6,[r4,#12]
 358:../Dave/Generated/USBD/usb/core/xmc4000/usbd_endpoint_stream_xmc4000.c **** 			{
 359:../Dave/Generated/USBD/usb/core/xmc4000/usbd_endpoint_stream_xmc4000.c **** 				Bytes = Length;
 360:../Dave/Generated/USBD/usb/core/xmc4000/usbd_endpoint_stream_xmc4000.c **** 			}
 361:../Dave/Generated/USBD/usb/core/xmc4000/usbd_endpoint_stream_xmc4000.c **** 			else
 362:../Dave/Generated/USBD/usb/core/xmc4000/usbd_endpoint_stream_xmc4000.c **** 			{
 363:../Dave/Generated/USBD/usb/core/xmc4000/usbd_endpoint_stream_xmc4000.c **** 				Bytes = (uint16_t)EndPoint->OutBytesAvailable;
 364:../Dave/Generated/USBD/usb/core/xmc4000/usbd_endpoint_stream_xmc4000.c **** 			}
 365:../Dave/Generated/USBD/usb/core/xmc4000/usbd_endpoint_stream_xmc4000.c **** 
 366:../Dave/Generated/USBD/usb/core/xmc4000/usbd_endpoint_stream_xmc4000.c **** 			memcpy(Buffer,EndPoint->OutBuffer,Bytes);
 913              	 .loc 1 366 0
 914 0012 6169     	 ldr r1,[r4,#20]
 357:../Dave/Generated/USBD/usb/core/xmc4000/usbd_endpoint_stream_xmc4000.c **** 			{
 915              	 .loc 1 357 0
 916 0014 AE42     	 cmp r6,r5
 917              	.LVL113:
 918 0016 8CBF     	 ite hi
 919 0018 2E46     	 movhi r6,r5
 920 001a AD1B     	 subls r5,r5,r6
 921              	 .loc 1 366 0
 922 001c 3246     	 mov r2,r6
 923 001e 3846     	 mov r0,r7
 924 0020 94BF     	 ite ls
 925 0022 ADB2     	 uxthls r5,r5
 926 0024 0025     	 movhi r5,#0
 927 0026 FFF7FEFF 	 bl memcpy
 928              	.LVL114:
 367:../Dave/Generated/USBD/usb/core/xmc4000/usbd_endpoint_stream_xmc4000.c **** 			EndPoint->OutBytesAvailable -= Bytes;
 929              	 .loc 1 367 0
 930 002a E368     	 ldr r3,[r4,#12]
 931 002c 9E1B     	 subs r6,r3,r6
 932 002e E660     	 str r6,[r4,#12]
 933              	.LVL115:
 368:../Dave/Generated/USBD/usb/core/xmc4000/usbd_endpoint_stream_xmc4000.c **** 			Length -= Bytes;
 369:../Dave/Generated/USBD/usb/core/xmc4000/usbd_endpoint_stream_xmc4000.c **** 
 370:../Dave/Generated/USBD/usb/core/xmc4000/usbd_endpoint_stream_xmc4000.c **** 			Endpoint_ClearOUT();
 934              	 .loc 1 370 0
 935 0030 FFF7FEFF 	 bl Endpoint_ClearOUT
 936              	.LVL116:
 937 0034 E8E7     	 b .L137
 938              	.L147:
 371:../Dave/Generated/USBD/usb/core/xmc4000/usbd_endpoint_stream_xmc4000.c **** 		}
 372:../Dave/Generated/USBD/usb/core/xmc4000/usbd_endpoint_stream_xmc4000.c **** 	}
 373:../Dave/Generated/USBD/usb/core/xmc4000/usbd_endpoint_stream_xmc4000.c **** 	return ENDPOINT_RWCSTREAM_NoError;
 374:../Dave/Generated/USBD/usb/core/xmc4000/usbd_endpoint_stream_xmc4000.c **** }
 939              	 .loc 1 374 0
 940 0036 2846     	 mov r0,r5
 941 0038 F8BD     	 pop {r3,r4,r5,r6,r7,pc}
 942              	.LVL117:
 943              	.L149:
 944 003a 00BF     	 .align 2
 945              	.L148:
 946 003c 00000000 	 .word device
 947              	 .cfi_endproc
 948              	.LFE186:
 950              	 .section .text.Endpoint_Read_Control_Stream_BE,"ax",%progbits
 951              	 .align 2
 952              	 .global Endpoint_Read_Control_Stream_BE
 953              	 .thumb
 954              	 .thumb_func
 956              	Endpoint_Read_Control_Stream_BE:
 957              	.LFB187:
 375:../Dave/Generated/USBD/usb/core/xmc4000/usbd_endpoint_stream_xmc4000.c **** 
 376:../Dave/Generated/USBD/usb/core/xmc4000/usbd_endpoint_stream_xmc4000.c **** uint8_t	Endpoint_Read_Control_Stream_BE (void *const Buffer, uint16_t Length) 
 377:../Dave/Generated/USBD/usb/core/xmc4000/usbd_endpoint_stream_xmc4000.c **** {
 958              	 .loc 1 377 0
 959              	 .cfi_startproc
 960              	 
 961              	 
 962              	.LVL118:
 963 0000 F8B5     	 push {r3,r4,r5,r6,r7,lr}
 964              	.LCFI7:
 965              	 .cfi_def_cfa_offset 24
 966              	 .cfi_offset 3,-24
 967              	 .cfi_offset 4,-20
 968              	 .cfi_offset 5,-16
 969              	 .cfi_offset 6,-12
 970              	 .cfi_offset 7,-8
 971              	 .cfi_offset 14,-4
 972              	.LBB22:
 973              	.LBB23:
 355:../Dave/Generated/USBD/usb/core/xmc4000/usbd_endpoint_stream_xmc4000.c **** 		{
 974              	 .loc 1 355 0
 975 0002 0E4C     	 ldr r4,.L162
 976              	.LBE23:
 977              	.LBE22:
 978              	 .loc 1 377 0
 979 0004 0746     	 mov r7,r0
 980              	.LVL119:
 981 0006 0D46     	 mov r5,r1
 982              	.LVL120:
 983              	.L151:
 984              	.LBB25:
 985              	.LBB24:
 353:../Dave/Generated/USBD/usb/core/xmc4000/usbd_endpoint_stream_xmc4000.c **** 	{
 986              	 .loc 1 353 0
 987 0008 ADB1     	 cbz r5,.L161
 988              	.LVL121:
 989              	.L152:
 355:../Dave/Generated/USBD/usb/core/xmc4000/usbd_endpoint_stream_xmc4000.c **** 		{
 990              	 .loc 1 355 0
 991 000a A368     	 ldr r3,[r4,#8]
 992 000c 9B06     	 lsls r3,r3,#26
 993 000e FCD5     	 bpl .L152
 357:../Dave/Generated/USBD/usb/core/xmc4000/usbd_endpoint_stream_xmc4000.c **** 			{
 994              	 .loc 1 357 0
 995 0010 E668     	 ldr r6,[r4,#12]
 366:../Dave/Generated/USBD/usb/core/xmc4000/usbd_endpoint_stream_xmc4000.c **** 			EndPoint->OutBytesAvailable -= Bytes;
 996              	 .loc 1 366 0
 997 0012 6169     	 ldr r1,[r4,#20]
 357:../Dave/Generated/USBD/usb/core/xmc4000/usbd_endpoint_stream_xmc4000.c **** 			{
 998              	 .loc 1 357 0
 999 0014 AE42     	 cmp r6,r5
 1000              	.LVL122:
 1001 0016 8CBF     	 ite hi
 1002 0018 2E46     	 movhi r6,r5
 1003 001a AD1B     	 subls r5,r5,r6
 366:../Dave/Generated/USBD/usb/core/xmc4000/usbd_endpoint_stream_xmc4000.c **** 			EndPoint->OutBytesAvailable -= Bytes;
 1004              	 .loc 1 366 0
 1005 001c 3246     	 mov r2,r6
 1006 001e 3846     	 mov r0,r7
 1007 0020 94BF     	 ite ls
 1008 0022 ADB2     	 uxthls r5,r5
 357:../Dave/Generated/USBD/usb/core/xmc4000/usbd_endpoint_stream_xmc4000.c **** 			{
 1009              	 .loc 1 357 0
 1010 0024 0025     	 movhi r5,#0
 366:../Dave/Generated/USBD/usb/core/xmc4000/usbd_endpoint_stream_xmc4000.c **** 			EndPoint->OutBytesAvailable -= Bytes;
 1011              	 .loc 1 366 0
 1012 0026 FFF7FEFF 	 bl memcpy
 1013              	.LVL123:
 367:../Dave/Generated/USBD/usb/core/xmc4000/usbd_endpoint_stream_xmc4000.c **** 			Length -= Bytes;
 1014              	 .loc 1 367 0
 1015 002a E368     	 ldr r3,[r4,#12]
 1016 002c 9E1B     	 subs r6,r3,r6
 1017 002e E660     	 str r6,[r4,#12]
 1018              	.LVL124:
 370:../Dave/Generated/USBD/usb/core/xmc4000/usbd_endpoint_stream_xmc4000.c **** 		}
 1019              	 .loc 1 370 0
 1020 0030 FFF7FEFF 	 bl Endpoint_ClearOUT
 1021              	.LVL125:
 1022 0034 E8E7     	 b .L151
 1023              	.L161:
 1024              	.LBE24:
 1025              	.LBE25:
 378:../Dave/Generated/USBD/usb/core/xmc4000/usbd_endpoint_stream_xmc4000.c **** 	return Endpoint_Read_Control_Stream_LE(Buffer,Length);
 379:../Dave/Generated/USBD/usb/core/xmc4000/usbd_endpoint_stream_xmc4000.c **** }
 1026              	 .loc 1 379 0
 1027 0036 2846     	 mov r0,r5
 1028 0038 F8BD     	 pop {r3,r4,r5,r6,r7,pc}
 1029              	.LVL126:
 1030              	.L163:
 1031 003a 00BF     	 .align 2
 1032              	.L162:
 1033 003c 00000000 	 .word device
 1034              	 .cfi_endproc
 1035              	.LFE187:
 1037              	 .section .text.Endpoint_Null_Stream,"ax",%progbits
 1038              	 .align 2
 1039              	 .global Endpoint_Null_Stream
 1040              	 .thumb
 1041              	 .thumb_func
 1043              	Endpoint_Null_Stream:
 1044              	.LFB188:
 380:../Dave/Generated/USBD/usb/core/xmc4000/usbd_endpoint_stream_xmc4000.c **** 
 381:../Dave/Generated/USBD/usb/core/xmc4000/usbd_endpoint_stream_xmc4000.c **** uint8_t Endpoint_Null_Stream(uint16_t Length,uint16_t* const BytesProcessed)
 382:../Dave/Generated/USBD/usb/core/xmc4000/usbd_endpoint_stream_xmc4000.c **** {
 1045              	 .loc 1 382 0
 1046              	 .cfi_startproc
 1047              	 
 1048              	 
 1049              	.LVL127:
 1050 0000 2DE9F047 	 push {r4,r5,r6,r7,r8,r9,r10,lr}
 1051              	.LCFI8:
 1052              	 .cfi_def_cfa_offset 32
 1053              	 .cfi_offset 4,-32
 1054              	 .cfi_offset 5,-28
 1055              	 .cfi_offset 6,-24
 1056              	 .cfi_offset 7,-20
 1057              	 .cfi_offset 8,-16
 1058              	 .cfi_offset 9,-12
 1059              	 .cfi_offset 10,-8
 1060              	 .cfi_offset 14,-4
 383:../Dave/Generated/USBD/usb/core/xmc4000/usbd_endpoint_stream_xmc4000.c **** 	USBD_Endpoint_t* ep = &device.Endpoints[device.CurrentEndpoint];
 1061              	 .loc 1 383 0
 1062 0004 214B     	 ldr r3,.L184
 382:../Dave/Generated/USBD/usb/core/xmc4000/usbd_endpoint_stream_xmc4000.c **** 	USBD_Endpoint_t* ep = &device.Endpoints[device.CurrentEndpoint];
 1063              	 .loc 1 382 0
 1064 0006 0446     	 mov r4,r0
 1065              	 .loc 1 383 0
 1066 0008 93F83C21 	 ldrb r2,[r3,#316]
 1067              	.LVL128:
 384:../Dave/Generated/USBD/usb/core/xmc4000/usbd_endpoint_stream_xmc4000.c **** 	uint16_t Bytes = 0;
 385:../Dave/Generated/USBD/usb/core/xmc4000/usbd_endpoint_stream_xmc4000.c **** 	uint16_t BytesTransfered = 0;
 386:../Dave/Generated/USBD/usb/core/xmc4000/usbd_endpoint_stream_xmc4000.c **** 	uint8_t ErrorCode;
 387:../Dave/Generated/USBD/usb/core/xmc4000/usbd_endpoint_stream_xmc4000.c **** 
 388:../Dave/Generated/USBD/usb/core/xmc4000/usbd_endpoint_stream_xmc4000.c **** 	if (BytesProcessed!=NULL) 
 1068              	 .loc 1 388 0
 1069 000c 8846     	 mov r8,r1
 1070 000e 0029     	 cmp r1,#0
 1071 0010 35D0     	 beq .L174
 389:../Dave/Generated/USBD/usb/core/xmc4000/usbd_endpoint_stream_xmc4000.c **** 	{
 390:../Dave/Generated/USBD/usb/core/xmc4000/usbd_endpoint_stream_xmc4000.c **** 		Length -= *BytesProcessed;
 1072              	 .loc 1 390 0
 1073 0012 0F88     	 ldrh r7,[r1]
 1074 0014 C41B     	 subs r4,r0,r7
 1075 0016 A4B2     	 uxth r4,r4
 1076              	.LVL129:
 1077              	.L165:
 391:../Dave/Generated/USBD/usb/core/xmc4000/usbd_endpoint_stream_xmc4000.c **** 		BytesTransfered = *BytesProcessed;
 392:../Dave/Generated/USBD/usb/core/xmc4000/usbd_endpoint_stream_xmc4000.c **** 	}
 393:../Dave/Generated/USBD/usb/core/xmc4000/usbd_endpoint_stream_xmc4000.c **** 
 394:../Dave/Generated/USBD/usb/core/xmc4000/usbd_endpoint_stream_xmc4000.c **** 	while (Length) 
 395:../Dave/Generated/USBD/usb/core/xmc4000/usbd_endpoint_stream_xmc4000.c **** 	{
 396:../Dave/Generated/USBD/usb/core/xmc4000/usbd_endpoint_stream_xmc4000.c **** 		if (ep->InInUse)
 1078              	 .loc 1 396 0
 1079 0018 2C26     	 movs r6,#44
 1080 001a 06FB0236 	 mla r6,r6,r2,r3
 1081              	.LVL130:
 1082              	.L166:
 394:../Dave/Generated/USBD/usb/core/xmc4000/usbd_endpoint_stream_xmc4000.c **** 	{
 1083              	 .loc 1 394 0
 1084 001e ECB1     	 cbz r4,.L177
 1085              	.L181:
 1086              	 .loc 1 396 0
 1087 0020 B368     	 ldr r3,[r6,#8]
 1088 0022 DB06     	 lsls r3,r3,#27
 1089 0024 FCD4     	 bmi .L181
 397:../Dave/Generated/USBD/usb/core/xmc4000/usbd_endpoint_stream_xmc4000.c **** 		{
 398:../Dave/Generated/USBD/usb/core/xmc4000/usbd_endpoint_stream_xmc4000.c **** 			continue;
 399:../Dave/Generated/USBD/usb/core/xmc4000/usbd_endpoint_stream_xmc4000.c **** 		}
 400:../Dave/Generated/USBD/usb/core/xmc4000/usbd_endpoint_stream_xmc4000.c **** 		if (Endpoint_IsReadWriteAllowed()) 
 1090              	 .loc 1 400 0
 1091 0026 FFF7FEFF 	 bl Endpoint_IsReadWriteAllowed
 1092              	.LVL131:
 1093 002a F0B1     	 cbz r0,.L168
 401:../Dave/Generated/USBD/usb/core/xmc4000/usbd_endpoint_stream_xmc4000.c **** 		{
 402:../Dave/Generated/USBD/usb/core/xmc4000/usbd_endpoint_stream_xmc4000.c **** 			if((ep->InBufferLength - ep->InBytesAvailable)  > Length)
 1094              	 .loc 1 402 0
 1095 002c 756A     	 ldr r5,[r6,#36]
 1096 002e F069     	 ldr r0,[r6,#28]
 1097 0030 2D1A     	 subs r5,r5,r0
 1098 0032 A542     	 cmp r5,r4
 1099 0034 15D8     	 bhi .L175
 403:../Dave/Generated/USBD/usb/core/xmc4000/usbd_endpoint_stream_xmc4000.c **** 			{
 404:../Dave/Generated/USBD/usb/core/xmc4000/usbd_endpoint_stream_xmc4000.c **** 				Bytes = Length;
 405:../Dave/Generated/USBD/usb/core/xmc4000/usbd_endpoint_stream_xmc4000.c **** 			}
 406:../Dave/Generated/USBD/usb/core/xmc4000/usbd_endpoint_stream_xmc4000.c **** 			else
 407:../Dave/Generated/USBD/usb/core/xmc4000/usbd_endpoint_stream_xmc4000.c **** 			{
 408:../Dave/Generated/USBD/usb/core/xmc4000/usbd_endpoint_stream_xmc4000.c **** 				Bytes = (ep->InBufferLength - ep->InBytesAvailable);
 1100              	 .loc 1 408 0
 1101 0036 ADB2     	 uxth r5,r5
 1102 0038 641B     	 subs r4,r4,r5
 1103              	.LVL132:
 1104 003a 1FFA84FA 	 uxth r10,r4
 1105 003e 2C46     	 mov r4,r5
 1106              	.L169:
 1107              	.LVL133:
 409:../Dave/Generated/USBD/usb/core/xmc4000/usbd_endpoint_stream_xmc4000.c **** 			}
 410:../Dave/Generated/USBD/usb/core/xmc4000/usbd_endpoint_stream_xmc4000.c **** 
 411:../Dave/Generated/USBD/usb/core/xmc4000/usbd_endpoint_stream_xmc4000.c **** 			memset(ep->InBuffer + ep->InBytesAvailable,0x0,Bytes);
 1108              	 .loc 1 411 0
 1109 0040 336A     	 ldr r3,[r6,#32]
 1110 0042 2A46     	 mov r2,r5
 1111 0044 1844     	 add r0,r0,r3
 1112 0046 0021     	 movs r1,#0
 1113 0048 FFF7FEFF 	 bl memset
 1114              	.LVL134:
 412:../Dave/Generated/USBD/usb/core/xmc4000/usbd_endpoint_stream_xmc4000.c **** 			ep->InBytesAvailable += Bytes;
 1115              	 .loc 1 412 0
 1116 004c F369     	 ldr r3,[r6,#28]
 413:../Dave/Generated/USBD/usb/core/xmc4000/usbd_endpoint_stream_xmc4000.c **** 			BytesTransfered += Bytes;
 1117              	 .loc 1 413 0
 1118 004e 2744     	 add r7,r7,r4
 1119              	.LVL135:
 412:../Dave/Generated/USBD/usb/core/xmc4000/usbd_endpoint_stream_xmc4000.c **** 			ep->InBytesAvailable += Bytes;
 1120              	 .loc 1 412 0
 1121 0050 1D44     	 add r5,r5,r3
 414:../Dave/Generated/USBD/usb/core/xmc4000/usbd_endpoint_stream_xmc4000.c **** 			Length -= Bytes;
 1122              	 .loc 1 414 0
 1123 0052 5446     	 mov r4,r10
 1124              	.LVL136:
 413:../Dave/Generated/USBD/usb/core/xmc4000/usbd_endpoint_stream_xmc4000.c **** 			BytesTransfered += Bytes;
 1125              	 .loc 1 413 0
 1126 0054 BFB2     	 uxth r7,r7
 1127              	.LVL137:
 412:../Dave/Generated/USBD/usb/core/xmc4000/usbd_endpoint_stream_xmc4000.c **** 			ep->InBytesAvailable += Bytes;
 1128              	 .loc 1 412 0
 1129 0056 F561     	 str r5,[r6,#28]
 1130              	.LVL138:
 394:../Dave/Generated/USBD/usb/core/xmc4000/usbd_endpoint_stream_xmc4000.c **** 	{
 1131              	 .loc 1 394 0
 1132 0058 002C     	 cmp r4,#0
 1133 005a E1D1     	 bne .L181
 1134              	.L177:
 415:../Dave/Generated/USBD/usb/core/xmc4000/usbd_endpoint_stream_xmc4000.c **** 		}
 416:../Dave/Generated/USBD/usb/core/xmc4000/usbd_endpoint_stream_xmc4000.c **** 		else 
 417:../Dave/Generated/USBD/usb/core/xmc4000/usbd_endpoint_stream_xmc4000.c **** 		{
 418:../Dave/Generated/USBD/usb/core/xmc4000/usbd_endpoint_stream_xmc4000.c **** 			Endpoint_ClearIN();
 419:../Dave/Generated/USBD/usb/core/xmc4000/usbd_endpoint_stream_xmc4000.c **** 			if (BytesProcessed!=NULL) 
 420:../Dave/Generated/USBD/usb/core/xmc4000/usbd_endpoint_stream_xmc4000.c **** 			{
 421:../Dave/Generated/USBD/usb/core/xmc4000/usbd_endpoint_stream_xmc4000.c **** 				*BytesProcessed = BytesTransfered;
 422:../Dave/Generated/USBD/usb/core/xmc4000/usbd_endpoint_stream_xmc4000.c **** 				return ENDPOINT_RWSTREAM_IncompleteTransfer;
 423:../Dave/Generated/USBD/usb/core/xmc4000/usbd_endpoint_stream_xmc4000.c **** 			}
 424:../Dave/Generated/USBD/usb/core/xmc4000/usbd_endpoint_stream_xmc4000.c **** 
 425:../Dave/Generated/USBD/usb/core/xmc4000/usbd_endpoint_stream_xmc4000.c **** 			ErrorCode = Endpoint_WaitUntilReady();
 426:../Dave/Generated/USBD/usb/core/xmc4000/usbd_endpoint_stream_xmc4000.c **** 			if (ErrorCode) 
 427:../Dave/Generated/USBD/usb/core/xmc4000/usbd_endpoint_stream_xmc4000.c **** 			{
 428:../Dave/Generated/USBD/usb/core/xmc4000/usbd_endpoint_stream_xmc4000.c **** 				return ErrorCode;
 429:../Dave/Generated/USBD/usb/core/xmc4000/usbd_endpoint_stream_xmc4000.c **** 			}
 430:../Dave/Generated/USBD/usb/core/xmc4000/usbd_endpoint_stream_xmc4000.c **** 		}
 431:../Dave/Generated/USBD/usb/core/xmc4000/usbd_endpoint_stream_xmc4000.c **** 	}
 432:../Dave/Generated/USBD/usb/core/xmc4000/usbd_endpoint_stream_xmc4000.c **** 	return ENDPOINT_RWSTREAM_NoError;
 1135              	 .loc 1 432 0
 1136 005c 2046     	 mov r0,r4
 1137              	.L172:
 433:../Dave/Generated/USBD/usb/core/xmc4000/usbd_endpoint_stream_xmc4000.c **** }
 1138              	 .loc 1 433 0
 1139 005e BDE8F087 	 pop {r4,r5,r6,r7,r8,r9,r10,pc}
 1140              	.LVL139:
 1141              	.L175:
 1142 0062 2546     	 mov r5,r4
 1143 0064 4FF0000A 	 mov r10,#0
 1144 0068 EAE7     	 b .L169
 1145              	.L168:
 418:../Dave/Generated/USBD/usb/core/xmc4000/usbd_endpoint_stream_xmc4000.c **** 			if (BytesProcessed!=NULL) 
 1146              	 .loc 1 418 0
 1147 006a FFF7FEFF 	 bl Endpoint_ClearIN
 1148              	.LVL140:
 419:../Dave/Generated/USBD/usb/core/xmc4000/usbd_endpoint_stream_xmc4000.c **** 			{
 1149              	 .loc 1 419 0
 1150 006e B8F1000F 	 cmp r8,#0
 1151 0072 06D1     	 bne .L183
 425:../Dave/Generated/USBD/usb/core/xmc4000/usbd_endpoint_stream_xmc4000.c **** 			if (ErrorCode) 
 1152              	 .loc 1 425 0
 1153 0074 FFF7FEFF 	 bl Endpoint_WaitUntilReady
 1154              	.LVL141:
 426:../Dave/Generated/USBD/usb/core/xmc4000/usbd_endpoint_stream_xmc4000.c **** 			{
 1155              	 .loc 1 426 0
 1156 0078 0028     	 cmp r0,#0
 1157 007a D0D0     	 beq .L166
 1158 007c EFE7     	 b .L172
 1159              	.LVL142:
 1160              	.L174:
 385:../Dave/Generated/USBD/usb/core/xmc4000/usbd_endpoint_stream_xmc4000.c **** 	uint8_t ErrorCode;
 1161              	 .loc 1 385 0
 1162 007e 0F46     	 mov r7,r1
 1163 0080 CAE7     	 b .L165
 1164              	.LVL143:
 1165              	.L183:
 421:../Dave/Generated/USBD/usb/core/xmc4000/usbd_endpoint_stream_xmc4000.c **** 				return ENDPOINT_RWSTREAM_IncompleteTransfer;
 1166              	 .loc 1 421 0
 1167 0082 A8F80070 	 strh r7,[r8]
 422:../Dave/Generated/USBD/usb/core/xmc4000/usbd_endpoint_stream_xmc4000.c **** 			}
 1168              	 .loc 1 422 0
 1169 0086 0520     	 movs r0,#5
 1170 0088 BDE8F087 	 pop {r4,r5,r6,r7,r8,r9,r10,pc}
 1171              	.LVL144:
 1172              	.L185:
 1173              	 .align 2
 1174              	.L184:
 1175 008c 00000000 	 .word device
 1176              	 .cfi_endproc
 1177              	.LFE188:
 1179              	 .global zlp_flag
 1180              	 .section .bss.zlp_flag,"aw",%nobits
 1183              	zlp_flag:
 1184 0000 00       	 .space 1
 1185              	 .text
 1186              	.Letext0:
 1187              	 .file 2 "c:\\infineon\\tools\\dave ide\\4.5.0.202105191637\\eclipse\\arm-gcc-49\\arm-none-eabi\\include\\machine\\_default_types.h"
 1188              	 .file 3 "c:\\infineon\\tools\\dave ide\\4.5.0.202105191637\\eclipse\\arm-gcc-49\\arm-none-eabi\\include\\stdint.h"
 1189              	 .file 4 "C:/Users/Utente/Desktop/Tesi/Firmware_Software/DAVE project/S2GLP_Pulsed_Doppler/Libraries/CMSIS/Infineon/XMC4700_series/Include/XMC4700.h"
 1190              	 .file 5 "C:/Users/Utente/Desktop/Tesi/Firmware_Software/DAVE project/S2GLP_Pulsed_Doppler/Libraries/XMCLib/inc/xmc_usbd_regs.h"
 1191              	 .file 6 "C:/Users/Utente/Desktop/Tesi/Firmware_Software/DAVE project/S2GLP_Pulsed_Doppler/Libraries/XMCLib/inc/xmc_usbd.h"
 1192              	 .file 7 "../Dave/Generated/USBD/usb/core/xmc4000/../../../usbd.h"
 1193              	 .file 8 "../Dave/Generated/USBD/usb/core/xmc4000/../endpoint_stream.h"
 1194              	 .file 9 "C:/Users/Utente/Desktop/Tesi/Firmware_Software/DAVE project/S2GLP_Pulsed_Doppler/Libraries/CMSIS/Include/core_cm4.h"
 1195              	 .file 10 "C:/Users/Utente/Desktop/Tesi/Firmware_Software/DAVE project/S2GLP_Pulsed_Doppler/Libraries/CMSIS/Infineon/XMC4700_series/Include/system_XMC4700.h"
 1196              	 .file 11 "../Dave/Generated/USBD/usb/core/xmc4000/../../../usbd_extern.h"
 1197              	 .file 12 "../Dave/Generated/USBD/usb/core/xmc4000/.././xmc4000/usbd_endpoint_xmc4000.h"