   1              	 .syntax unified
   2              	 .cpu cortex-m4
   3              	 .eabi_attribute 27,3
   4              	 .fpu fpv4-sp-d16
   5              	 .eabi_attribute 20,1
   6              	 .eabi_attribute 21,1
   7              	 .eabi_attribute 23,3
   8              	 .eabi_attribute 24,1
   9              	 .eabi_attribute 25,1
  10              	 .eabi_attribute 26,1
  11              	 .eabi_attribute 30,2
  12              	 .eabi_attribute 34,1
  13              	 .eabi_attribute 18,4
  14              	 .thumb
  15              	 .file "arm_biquad_cascade_df1_q31.c"
  16              	 .text
  17              	.Ltext0:
  18              	 .cfi_sections .debug_frame
  19              	 .section .text.arm_biquad_cascade_df1_q31,"ax",%progbits
  20              	 .align 2
  21              	 .global arm_biquad_cascade_df1_q31
  22              	 .thumb
  23              	 .thumb_func
  25              	arm_biquad_cascade_df1_q31:
  26              	.LFB135:
  27              	 .file 1 "../Dave/Generated/CMSIS_DSP/FilteringFunctions/arm_biquad_cascade_df1_q31.c"
   1:../Dave/Generated/CMSIS_DSP/FilteringFunctions/arm_biquad_cascade_df1_q31.c **** /* ----------------------------------------------------------------------
   2:../Dave/Generated/CMSIS_DSP/FilteringFunctions/arm_biquad_cascade_df1_q31.c ****  * Project:      CMSIS DSP Library
   3:../Dave/Generated/CMSIS_DSP/FilteringFunctions/arm_biquad_cascade_df1_q31.c ****  * Title:        arm_biquad_cascade_df1_q31.c
   4:../Dave/Generated/CMSIS_DSP/FilteringFunctions/arm_biquad_cascade_df1_q31.c ****  * Description:  Processing function for the Q31 Biquad cascade filter
   5:../Dave/Generated/CMSIS_DSP/FilteringFunctions/arm_biquad_cascade_df1_q31.c ****  *
   6:../Dave/Generated/CMSIS_DSP/FilteringFunctions/arm_biquad_cascade_df1_q31.c ****  * $Date:        27. January 2017
   7:../Dave/Generated/CMSIS_DSP/FilteringFunctions/arm_biquad_cascade_df1_q31.c ****  * $Revision:    V.1.5.1
   8:../Dave/Generated/CMSIS_DSP/FilteringFunctions/arm_biquad_cascade_df1_q31.c ****  *
   9:../Dave/Generated/CMSIS_DSP/FilteringFunctions/arm_biquad_cascade_df1_q31.c ****  * Target Processor: Cortex-M cores
  10:../Dave/Generated/CMSIS_DSP/FilteringFunctions/arm_biquad_cascade_df1_q31.c ****  * -------------------------------------------------------------------- */
  11:../Dave/Generated/CMSIS_DSP/FilteringFunctions/arm_biquad_cascade_df1_q31.c **** /*
  12:../Dave/Generated/CMSIS_DSP/FilteringFunctions/arm_biquad_cascade_df1_q31.c ****  * Copyright (C) 2010-2017 ARM Limited or its affiliates. All rights reserved.
  13:../Dave/Generated/CMSIS_DSP/FilteringFunctions/arm_biquad_cascade_df1_q31.c ****  *
  14:../Dave/Generated/CMSIS_DSP/FilteringFunctions/arm_biquad_cascade_df1_q31.c ****  * SPDX-License-Identifier: Apache-2.0
  15:../Dave/Generated/CMSIS_DSP/FilteringFunctions/arm_biquad_cascade_df1_q31.c ****  *
  16:../Dave/Generated/CMSIS_DSP/FilteringFunctions/arm_biquad_cascade_df1_q31.c ****  * Licensed under the Apache License, Version 2.0 (the License); you may
  17:../Dave/Generated/CMSIS_DSP/FilteringFunctions/arm_biquad_cascade_df1_q31.c ****  * not use this file except in compliance with the License.
  18:../Dave/Generated/CMSIS_DSP/FilteringFunctions/arm_biquad_cascade_df1_q31.c ****  * You may obtain a copy of the License at
  19:../Dave/Generated/CMSIS_DSP/FilteringFunctions/arm_biquad_cascade_df1_q31.c ****  *
  20:../Dave/Generated/CMSIS_DSP/FilteringFunctions/arm_biquad_cascade_df1_q31.c ****  * www.apache.org/licenses/LICENSE-2.0
  21:../Dave/Generated/CMSIS_DSP/FilteringFunctions/arm_biquad_cascade_df1_q31.c ****  *
  22:../Dave/Generated/CMSIS_DSP/FilteringFunctions/arm_biquad_cascade_df1_q31.c ****  * Unless required by applicable law or agreed to in writing, software
  23:../Dave/Generated/CMSIS_DSP/FilteringFunctions/arm_biquad_cascade_df1_q31.c ****  * distributed under the License is distributed on an AS IS BASIS, WITHOUT
  24:../Dave/Generated/CMSIS_DSP/FilteringFunctions/arm_biquad_cascade_df1_q31.c ****  * WARRANTIES OR CONDITIONS OF ANY KIND, either express or implied.
  25:../Dave/Generated/CMSIS_DSP/FilteringFunctions/arm_biquad_cascade_df1_q31.c ****  * See the License for the specific language governing permissions and
  26:../Dave/Generated/CMSIS_DSP/FilteringFunctions/arm_biquad_cascade_df1_q31.c ****  * limitations under the License.
  27:../Dave/Generated/CMSIS_DSP/FilteringFunctions/arm_biquad_cascade_df1_q31.c ****  */
  28:../Dave/Generated/CMSIS_DSP/FilteringFunctions/arm_biquad_cascade_df1_q31.c **** 
  29:../Dave/Generated/CMSIS_DSP/FilteringFunctions/arm_biquad_cascade_df1_q31.c **** #include "CMSIS_DSP/cmsis_dsp.h"
  30:../Dave/Generated/CMSIS_DSP/FilteringFunctions/arm_biquad_cascade_df1_q31.c **** 
  31:../Dave/Generated/CMSIS_DSP/FilteringFunctions/arm_biquad_cascade_df1_q31.c **** /**
  32:../Dave/Generated/CMSIS_DSP/FilteringFunctions/arm_biquad_cascade_df1_q31.c ****  * @ingroup groupFilters
  33:../Dave/Generated/CMSIS_DSP/FilteringFunctions/arm_biquad_cascade_df1_q31.c ****  */
  34:../Dave/Generated/CMSIS_DSP/FilteringFunctions/arm_biquad_cascade_df1_q31.c **** 
  35:../Dave/Generated/CMSIS_DSP/FilteringFunctions/arm_biquad_cascade_df1_q31.c **** /**
  36:../Dave/Generated/CMSIS_DSP/FilteringFunctions/arm_biquad_cascade_df1_q31.c ****  * @addtogroup BiquadCascadeDF1
  37:../Dave/Generated/CMSIS_DSP/FilteringFunctions/arm_biquad_cascade_df1_q31.c ****  * @{
  38:../Dave/Generated/CMSIS_DSP/FilteringFunctions/arm_biquad_cascade_df1_q31.c ****  */
  39:../Dave/Generated/CMSIS_DSP/FilteringFunctions/arm_biquad_cascade_df1_q31.c **** 
  40:../Dave/Generated/CMSIS_DSP/FilteringFunctions/arm_biquad_cascade_df1_q31.c **** /**
  41:../Dave/Generated/CMSIS_DSP/FilteringFunctions/arm_biquad_cascade_df1_q31.c ****  * @brief Processing function for the Q31 Biquad cascade filter.
  42:../Dave/Generated/CMSIS_DSP/FilteringFunctions/arm_biquad_cascade_df1_q31.c ****  * @param[in]  *S         points to an instance of the Q31 Biquad cascade structure.
  43:../Dave/Generated/CMSIS_DSP/FilteringFunctions/arm_biquad_cascade_df1_q31.c ****  * @param[in]  *pSrc      points to the block of input data.
  44:../Dave/Generated/CMSIS_DSP/FilteringFunctions/arm_biquad_cascade_df1_q31.c ****  * @param[out] *pDst      points to the block of output data.
  45:../Dave/Generated/CMSIS_DSP/FilteringFunctions/arm_biquad_cascade_df1_q31.c ****  * @param[in]  blockSize  number of samples to process per call.
  46:../Dave/Generated/CMSIS_DSP/FilteringFunctions/arm_biquad_cascade_df1_q31.c ****  * @return none.
  47:../Dave/Generated/CMSIS_DSP/FilteringFunctions/arm_biquad_cascade_df1_q31.c ****  *
  48:../Dave/Generated/CMSIS_DSP/FilteringFunctions/arm_biquad_cascade_df1_q31.c ****  * <b>Scaling and Overflow Behavior:</b>
  49:../Dave/Generated/CMSIS_DSP/FilteringFunctions/arm_biquad_cascade_df1_q31.c ****  * \par
  50:../Dave/Generated/CMSIS_DSP/FilteringFunctions/arm_biquad_cascade_df1_q31.c ****  * The function is implemented using an internal 64-bit accumulator.
  51:../Dave/Generated/CMSIS_DSP/FilteringFunctions/arm_biquad_cascade_df1_q31.c ****  * The accumulator has a 2.62 format and maintains full precision of the intermediate multiplicatio
  52:../Dave/Generated/CMSIS_DSP/FilteringFunctions/arm_biquad_cascade_df1_q31.c ****  * Thus, if the accumulator result overflows it wraps around rather than clip.
  53:../Dave/Generated/CMSIS_DSP/FilteringFunctions/arm_biquad_cascade_df1_q31.c ****  * In order to avoid overflows completely the input signal must be scaled down by 2 bits and lie in
  54:../Dave/Generated/CMSIS_DSP/FilteringFunctions/arm_biquad_cascade_df1_q31.c ****  * After all 5 multiply-accumulates are performed, the 2.62 accumulator is shifted by <code>postShi
  55:../Dave/Generated/CMSIS_DSP/FilteringFunctions/arm_biquad_cascade_df1_q31.c ****  * 1.31 format by discarding the low 32 bits.
  56:../Dave/Generated/CMSIS_DSP/FilteringFunctions/arm_biquad_cascade_df1_q31.c ****  *
  57:../Dave/Generated/CMSIS_DSP/FilteringFunctions/arm_biquad_cascade_df1_q31.c ****  * \par
  58:../Dave/Generated/CMSIS_DSP/FilteringFunctions/arm_biquad_cascade_df1_q31.c ****  * Refer to the function <code>arm_biquad_cascade_df1_fast_q31()</code> for a faster but less preci
  59:../Dave/Generated/CMSIS_DSP/FilteringFunctions/arm_biquad_cascade_df1_q31.c ****  */
  60:../Dave/Generated/CMSIS_DSP/FilteringFunctions/arm_biquad_cascade_df1_q31.c **** 
  61:../Dave/Generated/CMSIS_DSP/FilteringFunctions/arm_biquad_cascade_df1_q31.c **** void arm_biquad_cascade_df1_q31(
  62:../Dave/Generated/CMSIS_DSP/FilteringFunctions/arm_biquad_cascade_df1_q31.c ****   const arm_biquad_casd_df1_inst_q31 * S,
  63:../Dave/Generated/CMSIS_DSP/FilteringFunctions/arm_biquad_cascade_df1_q31.c ****   q31_t * pSrc,
  64:../Dave/Generated/CMSIS_DSP/FilteringFunctions/arm_biquad_cascade_df1_q31.c ****   q31_t * pDst,
  65:../Dave/Generated/CMSIS_DSP/FilteringFunctions/arm_biquad_cascade_df1_q31.c ****   uint32_t blockSize)
  66:../Dave/Generated/CMSIS_DSP/FilteringFunctions/arm_biquad_cascade_df1_q31.c **** {
  28              	 .loc 1 66 0
  29              	 .cfi_startproc
  30              	 
  31              	 
  32              	.LVL0:
  33 0000 2DE9F04F 	 push {r4,r5,r6,r7,r8,r9,r10,fp,lr}
  34              	.LCFI0:
  35              	 .cfi_def_cfa_offset 36
  36              	 .cfi_offset 4,-36
  37              	 .cfi_offset 5,-32
  38              	 .cfi_offset 6,-28
  39              	 .cfi_offset 7,-24
  40              	 .cfi_offset 8,-20
  41              	 .cfi_offset 9,-16
  42              	 .cfi_offset 10,-12
  43              	 .cfi_offset 11,-8
  44              	 .cfi_offset 14,-4
  67:../Dave/Generated/CMSIS_DSP/FilteringFunctions/arm_biquad_cascade_df1_q31.c ****   q63_t acc;                                     /*  accumulator                   */
  68:../Dave/Generated/CMSIS_DSP/FilteringFunctions/arm_biquad_cascade_df1_q31.c ****   uint32_t uShift = ((uint32_t) S->postShift + 1u);
  45              	 .loc 1 68 0
  46 0004 067B     	 ldrb r6,[r0,#12]
  69:../Dave/Generated/CMSIS_DSP/FilteringFunctions/arm_biquad_cascade_df1_q31.c ****   uint32_t lShift = 32u - uShift;                /*  Shift to be applied to the output */
  70:../Dave/Generated/CMSIS_DSP/FilteringFunctions/arm_biquad_cascade_df1_q31.c ****   q31_t *pIn = pSrc;                             /*  input pointer initialization  */
  71:../Dave/Generated/CMSIS_DSP/FilteringFunctions/arm_biquad_cascade_df1_q31.c ****   q31_t *pOut = pDst;                            /*  output pointer initialization */
  72:../Dave/Generated/CMSIS_DSP/FilteringFunctions/arm_biquad_cascade_df1_q31.c ****   q31_t *pState = S->pState;                     /*  pState pointer initialization */
  73:../Dave/Generated/CMSIS_DSP/FilteringFunctions/arm_biquad_cascade_df1_q31.c ****   q31_t *pCoeffs = S->pCoeffs;                   /*  coeff pointer initialization  */
  74:../Dave/Generated/CMSIS_DSP/FilteringFunctions/arm_biquad_cascade_df1_q31.c ****   q31_t Xn1, Xn2, Yn1, Yn2;                      /*  Filter state variables        */
  75:../Dave/Generated/CMSIS_DSP/FilteringFunctions/arm_biquad_cascade_df1_q31.c ****   q31_t b0, b1, b2, a1, a2;                      /*  Filter coefficients           */
  76:../Dave/Generated/CMSIS_DSP/FilteringFunctions/arm_biquad_cascade_df1_q31.c ****   q31_t Xn;                                      /*  temporary input               */
  77:../Dave/Generated/CMSIS_DSP/FilteringFunctions/arm_biquad_cascade_df1_q31.c ****   uint32_t sample, stage = S->numStages;         /*  loop counters                     */
  47              	 .loc 1 77 0
  48 0006 31C8     	 ldmia r0,{r0,r4,r5}
  49              	.LVL1:
  66:../Dave/Generated/CMSIS_DSP/FilteringFunctions/arm_biquad_cascade_df1_q31.c ****   q63_t acc;                                     /*  accumulator                   */
  50              	 .loc 1 66 0
  51 0008 95B0     	 sub sp,sp,#84
  52              	.LCFI1:
  53              	 .cfi_def_cfa_offset 120
  69:../Dave/Generated/CMSIS_DSP/FilteringFunctions/arm_biquad_cascade_df1_q31.c ****   uint32_t lShift = 32u - uShift;                /*  Shift to be applied to the output */
  54              	 .loc 1 69 0
  55 000a C6F11F0E 	 rsb lr,r6,#31
  56              	 .loc 1 77 0
  57 000e 0D90     	 str r0,[sp,#52]
  58 0010 9808     	 lsrs r0,r3,#2
  59 0012 03F00303 	 and r3,r3,#3
  60              	.LVL2:
  61 0016 0F90     	 str r0,[sp,#60]
  62 0018 1093     	 str r3,[sp,#64]
  63 001a 0001     	 lsls r0,r0,#4
  64 001c 1346     	 mov r3,r2
  65 001e 0344     	 add r3,r3,r0
  66:../Dave/Generated/CMSIS_DSP/FilteringFunctions/arm_biquad_cascade_df1_q31.c ****   q63_t acc;                                     /*  accumulator                   */
  66              	 .loc 1 66 0
  67 0020 0A91     	 str r1,[sp,#40]
  68 0022 1393     	 str r3,[sp,#76]
  68:../Dave/Generated/CMSIS_DSP/FilteringFunctions/arm_biquad_cascade_df1_q31.c ****   uint32_t lShift = 32u - uShift;                /*  Shift to be applied to the output */
  69              	 .loc 1 68 0
  70 0024 711C     	 adds r1,r6,#1
  71              	.LVL3:
  72 0026 05F11403 	 add r3,r5,#20
  73 002a 1191     	 str r1,[sp,#68]
  74              	.LVL4:
  75 002c 0B93     	 str r3,[sp,#44]
  76 002e CEF12001 	 rsb r1,lr,#32
  77              	.LVL5:
  78 0032 04F11003 	 add r3,r4,#16
  66:../Dave/Generated/CMSIS_DSP/FilteringFunctions/arm_biquad_cascade_df1_q31.c ****   q63_t acc;                                     /*  accumulator                   */
  79              	 .loc 1 66 0
  80 0036 0E92     	 str r2,[sp,#56]
  81 0038 1290     	 str r0,[sp,#72]
  82 003a 0991     	 str r1,[sp,#36]
  83 003c 0C93     	 str r3,[sp,#48]
  84 003e F346     	 mov fp,lr
  85              	.LVL6:
  86              	.L7:
  78:../Dave/Generated/CMSIS_DSP/FilteringFunctions/arm_biquad_cascade_df1_q31.c **** 
  79:../Dave/Generated/CMSIS_DSP/FilteringFunctions/arm_biquad_cascade_df1_q31.c **** 
  80:../Dave/Generated/CMSIS_DSP/FilteringFunctions/arm_biquad_cascade_df1_q31.c **** #if defined (ARM_MATH_DSP)
  81:../Dave/Generated/CMSIS_DSP/FilteringFunctions/arm_biquad_cascade_df1_q31.c **** 
  82:../Dave/Generated/CMSIS_DSP/FilteringFunctions/arm_biquad_cascade_df1_q31.c ****   q31_t acc_l, acc_h;                            /*  temporary output variables    */
  83:../Dave/Generated/CMSIS_DSP/FilteringFunctions/arm_biquad_cascade_df1_q31.c **** 
  84:../Dave/Generated/CMSIS_DSP/FilteringFunctions/arm_biquad_cascade_df1_q31.c ****   /* Run the below code for Cortex-M4 and Cortex-M3 */
  85:../Dave/Generated/CMSIS_DSP/FilteringFunctions/arm_biquad_cascade_df1_q31.c **** 
  86:../Dave/Generated/CMSIS_DSP/FilteringFunctions/arm_biquad_cascade_df1_q31.c ****   do
  87:../Dave/Generated/CMSIS_DSP/FilteringFunctions/arm_biquad_cascade_df1_q31.c ****   {
  88:../Dave/Generated/CMSIS_DSP/FilteringFunctions/arm_biquad_cascade_df1_q31.c ****     /* Reading the coefficients */
  89:../Dave/Generated/CMSIS_DSP/FilteringFunctions/arm_biquad_cascade_df1_q31.c ****     b0 = *pCoeffs++;
  87              	 .loc 1 89 0
  88 0040 0B9A     	 ldr r2,[sp,#44]
  89 0042 52F8143C 	 ldr r3,[r2,#-20]
  90 0046 0493     	 str r3,[sp,#16]
  91              	.LVL7:
  90:../Dave/Generated/CMSIS_DSP/FilteringFunctions/arm_biquad_cascade_df1_q31.c ****     b1 = *pCoeffs++;
  92              	 .loc 1 90 0
  93 0048 1346     	 mov r3,r2
  94              	.LVL8:
  95 004a 52F8102C 	 ldr r2,[r2,#-16]
  96 004e 0192     	 str r2,[sp,#4]
  97              	.LVL9:
  91:../Dave/Generated/CMSIS_DSP/FilteringFunctions/arm_biquad_cascade_df1_q31.c ****     b2 = *pCoeffs++;
  98              	 .loc 1 91 0
  99 0050 1A46     	 mov r2,r3
 100              	.LVL10:
 101 0052 53F80C3C 	 ldr r3,[r3,#-12]
 102 0056 0293     	 str r3,[sp,#8]
 103              	.LVL11:
  92:../Dave/Generated/CMSIS_DSP/FilteringFunctions/arm_biquad_cascade_df1_q31.c ****     a1 = *pCoeffs++;
 104              	 .loc 1 92 0
 105 0058 52F8083C 	 ldr r3,[r2,#-8]
 106              	.LVL12:
 107 005c 0793     	 str r3,[sp,#28]
 108 005e 1F46     	 mov r7,r3
 109              	.LVL13:
  93:../Dave/Generated/CMSIS_DSP/FilteringFunctions/arm_biquad_cascade_df1_q31.c ****     a2 = *pCoeffs++;
 110              	 .loc 1 93 0
 111 0060 52F8043C 	 ldr r3,[r2,#-4]
 112              	.LVL14:
  94:../Dave/Generated/CMSIS_DSP/FilteringFunctions/arm_biquad_cascade_df1_q31.c **** 
  95:../Dave/Generated/CMSIS_DSP/FilteringFunctions/arm_biquad_cascade_df1_q31.c ****     /* Reading the state values */
  96:../Dave/Generated/CMSIS_DSP/FilteringFunctions/arm_biquad_cascade_df1_q31.c ****     Xn1 = pState[0];
 113              	 .loc 1 96 0
 114 0064 0C9A     	 ldr r2,[sp,#48]
  93:../Dave/Generated/CMSIS_DSP/FilteringFunctions/arm_biquad_cascade_df1_q31.c ****     a2 = *pCoeffs++;
 115              	 .loc 1 93 0
 116 0066 0893     	 str r3,[sp,#32]
 117 0068 1C46     	 mov r4,r3
 118              	.LVL15:
 119              	 .loc 1 96 0
 120 006a 52F810EC 	 ldr lr,[r2,#-16]
 121              	.LVL16:
  97:../Dave/Generated/CMSIS_DSP/FilteringFunctions/arm_biquad_cascade_df1_q31.c ****     Xn2 = pState[1];
 122              	 .loc 1 97 0
 123 006e 52F80CAC 	 ldr r10,[r2,#-12]
 124              	.LVL17:
  98:../Dave/Generated/CMSIS_DSP/FilteringFunctions/arm_biquad_cascade_df1_q31.c ****     Yn1 = pState[2];
  99:../Dave/Generated/CMSIS_DSP/FilteringFunctions/arm_biquad_cascade_df1_q31.c ****     Yn2 = pState[3];
 125              	 .loc 1 99 0
 126 0072 12E92800 	 ldmdb r2,{r3,r5}
 127              	.LVL18:
 100:../Dave/Generated/CMSIS_DSP/FilteringFunctions/arm_biquad_cascade_df1_q31.c **** 
 101:../Dave/Generated/CMSIS_DSP/FilteringFunctions/arm_biquad_cascade_df1_q31.c ****     /* Apply loop unrolling and compute 4 output values simultaneously. */
 102:../Dave/Generated/CMSIS_DSP/FilteringFunctions/arm_biquad_cascade_df1_q31.c ****     /*      The variable acc hold output values that are being computed:
 103:../Dave/Generated/CMSIS_DSP/FilteringFunctions/arm_biquad_cascade_df1_q31.c ****      *
 104:../Dave/Generated/CMSIS_DSP/FilteringFunctions/arm_biquad_cascade_df1_q31.c ****      *    acc =  b0 * x[n] + b1 * x[n-1] + b2 * x[n-2] + a1 * y[n-1] + a2 * y[n-2]
 105:../Dave/Generated/CMSIS_DSP/FilteringFunctions/arm_biquad_cascade_df1_q31.c ****      */
 106:../Dave/Generated/CMSIS_DSP/FilteringFunctions/arm_biquad_cascade_df1_q31.c **** 
 107:../Dave/Generated/CMSIS_DSP/FilteringFunctions/arm_biquad_cascade_df1_q31.c ****     sample = blockSize >> 2u;
 108:../Dave/Generated/CMSIS_DSP/FilteringFunctions/arm_biquad_cascade_df1_q31.c **** 
 109:../Dave/Generated/CMSIS_DSP/FilteringFunctions/arm_biquad_cascade_df1_q31.c ****     /* First part of the processing with loop unrolling.  Compute 4 outputs at a time.
 110:../Dave/Generated/CMSIS_DSP/FilteringFunctions/arm_biquad_cascade_df1_q31.c ****      ** a second loop below computes the remaining 1 to 3 samples. */
 111:../Dave/Generated/CMSIS_DSP/FilteringFunctions/arm_biquad_cascade_df1_q31.c ****     while (sample > 0u)
 128              	 .loc 1 111 0
 129 0076 0F9A     	 ldr r2,[sp,#60]
 130 0078 002A     	 cmp r2,#0
 131 007a 00F0CD80 	 beq .L8
 132 007e 0A99     	 ldr r1,[sp,#40]
 133 0080 DDF844C0 	 ldr ip,[sp,#68]
 134 0084 0592     	 str r2,[sp,#20]
 135 0086 01F11006 	 add r6,r1,#16
 136 008a 0E99     	 ldr r1,[sp,#56]
 137 008c 01F11000 	 add r0,r1,#16
 138 0090 A146     	 mov r9,r4
 139 0092 B046     	 mov r8,r6
 140 0094 5446     	 mov r4,r10
 141              	.LVL19:
 142 0096 0390     	 str r0,[sp,#12]
 143 0098 BA46     	 mov r10,r7
 144              	.LVL20:
 145              	.L3:
 112:../Dave/Generated/CMSIS_DSP/FilteringFunctions/arm_biquad_cascade_df1_q31.c ****     {
 113:../Dave/Generated/CMSIS_DSP/FilteringFunctions/arm_biquad_cascade_df1_q31.c ****       /* Read the input */
 114:../Dave/Generated/CMSIS_DSP/FilteringFunctions/arm_biquad_cascade_df1_q31.c ****       Xn = *pIn++;
 146              	 .loc 1 114 0
 147 009a 58F8102C 	 ldr r2,[r8,#-16]
 148              	.LVL21:
 115:../Dave/Generated/CMSIS_DSP/FilteringFunctions/arm_biquad_cascade_df1_q31.c **** 
 116:../Dave/Generated/CMSIS_DSP/FilteringFunctions/arm_biquad_cascade_df1_q31.c ****       /* acc =  b0 * x[n] + b1 * x[n-1] + b2 * x[n-2] + a1 * y[n-1] + a2 * y[n-2] */
 117:../Dave/Generated/CMSIS_DSP/FilteringFunctions/arm_biquad_cascade_df1_q31.c **** 
 118:../Dave/Generated/CMSIS_DSP/FilteringFunctions/arm_biquad_cascade_df1_q31.c ****       /* acc =  b0 * x[n] */
 119:../Dave/Generated/CMSIS_DSP/FilteringFunctions/arm_biquad_cascade_df1_q31.c ****       acc = (q63_t) b0 *Xn;
 149              	 .loc 1 119 0
 150 009e 0499     	 ldr r1,[sp,#16]
 114:../Dave/Generated/CMSIS_DSP/FilteringFunctions/arm_biquad_cascade_df1_q31.c **** 
 151              	 .loc 1 114 0
 152 00a0 1046     	 mov r0,r2
 120:../Dave/Generated/CMSIS_DSP/FilteringFunctions/arm_biquad_cascade_df1_q31.c ****       /* acc +=  b1 * x[n-1] */
 121:../Dave/Generated/CMSIS_DSP/FilteringFunctions/arm_biquad_cascade_df1_q31.c ****       acc += (q63_t) b1 *Xn1;
 153              	 .loc 1 121 0
 154 00a2 019A     	 ldr r2,[sp,#4]
 155              	.LVL22:
 122:../Dave/Generated/CMSIS_DSP/FilteringFunctions/arm_biquad_cascade_df1_q31.c ****       /* acc +=  b[2] * x[n-2] */
 123:../Dave/Generated/CMSIS_DSP/FilteringFunctions/arm_biquad_cascade_df1_q31.c ****       acc += (q63_t) b2 *Xn2;
 124:../Dave/Generated/CMSIS_DSP/FilteringFunctions/arm_biquad_cascade_df1_q31.c ****       /* acc +=  a1 * y[n-1] */
 125:../Dave/Generated/CMSIS_DSP/FilteringFunctions/arm_biquad_cascade_df1_q31.c ****       acc += (q63_t) a1 *Yn1;
 126:../Dave/Generated/CMSIS_DSP/FilteringFunctions/arm_biquad_cascade_df1_q31.c ****       /* acc +=  a2 * y[n-2] */
 127:../Dave/Generated/CMSIS_DSP/FilteringFunctions/arm_biquad_cascade_df1_q31.c ****       acc += (q63_t) a2 *Yn2;
 128:../Dave/Generated/CMSIS_DSP/FilteringFunctions/arm_biquad_cascade_df1_q31.c **** 
 129:../Dave/Generated/CMSIS_DSP/FilteringFunctions/arm_biquad_cascade_df1_q31.c ****       /* The result is converted to 1.31 , Yn2 variable is reused */
 130:../Dave/Generated/CMSIS_DSP/FilteringFunctions/arm_biquad_cascade_df1_q31.c **** 
 131:../Dave/Generated/CMSIS_DSP/FilteringFunctions/arm_biquad_cascade_df1_q31.c ****       /* Calc lower part of acc */
 132:../Dave/Generated/CMSIS_DSP/FilteringFunctions/arm_biquad_cascade_df1_q31.c ****       acc_l = acc & 0xffffffff;
 133:../Dave/Generated/CMSIS_DSP/FilteringFunctions/arm_biquad_cascade_df1_q31.c **** 
 134:../Dave/Generated/CMSIS_DSP/FilteringFunctions/arm_biquad_cascade_df1_q31.c ****       /* Calc upper part of acc */
 135:../Dave/Generated/CMSIS_DSP/FilteringFunctions/arm_biquad_cascade_df1_q31.c ****       acc_h = (acc >> 32) & 0xffffffff;
 136:../Dave/Generated/CMSIS_DSP/FilteringFunctions/arm_biquad_cascade_df1_q31.c **** 
 137:../Dave/Generated/CMSIS_DSP/FilteringFunctions/arm_biquad_cascade_df1_q31.c ****       /* Apply shift for lower part of acc and upper part of acc */
 138:../Dave/Generated/CMSIS_DSP/FilteringFunctions/arm_biquad_cascade_df1_q31.c ****       Yn2 = (uint32_t) acc_l >> lShift | acc_h << uShift;
 139:../Dave/Generated/CMSIS_DSP/FilteringFunctions/arm_biquad_cascade_df1_q31.c **** 
 140:../Dave/Generated/CMSIS_DSP/FilteringFunctions/arm_biquad_cascade_df1_q31.c ****       /* Store the output in the destination buffer. */
 141:../Dave/Generated/CMSIS_DSP/FilteringFunctions/arm_biquad_cascade_df1_q31.c ****       *pOut++ = Yn2;
 142:../Dave/Generated/CMSIS_DSP/FilteringFunctions/arm_biquad_cascade_df1_q31.c **** 
 143:../Dave/Generated/CMSIS_DSP/FilteringFunctions/arm_biquad_cascade_df1_q31.c ****       /* Read the second input */
 144:../Dave/Generated/CMSIS_DSP/FilteringFunctions/arm_biquad_cascade_df1_q31.c ****       Xn2 = *pIn++;
 145:../Dave/Generated/CMSIS_DSP/FilteringFunctions/arm_biquad_cascade_df1_q31.c **** 
 146:../Dave/Generated/CMSIS_DSP/FilteringFunctions/arm_biquad_cascade_df1_q31.c ****       /* acc =  b0 * x[n] + b1 * x[n-1] + b2 * x[n-2] + a1 * y[n-1] + a2 * y[n-2] */
 147:../Dave/Generated/CMSIS_DSP/FilteringFunctions/arm_biquad_cascade_df1_q31.c **** 
 148:../Dave/Generated/CMSIS_DSP/FilteringFunctions/arm_biquad_cascade_df1_q31.c ****       /* acc =  b0 * x[n] */
 149:../Dave/Generated/CMSIS_DSP/FilteringFunctions/arm_biquad_cascade_df1_q31.c ****       acc = (q63_t) b0 *Xn2;
 150:../Dave/Generated/CMSIS_DSP/FilteringFunctions/arm_biquad_cascade_df1_q31.c ****       /* acc +=  b1 * x[n-1] */
 151:../Dave/Generated/CMSIS_DSP/FilteringFunctions/arm_biquad_cascade_df1_q31.c ****       acc += (q63_t) b1 *Xn;
 156              	 .loc 1 151 0
 157 00a4 0690     	 str r0,[sp,#24]
 119:../Dave/Generated/CMSIS_DSP/FilteringFunctions/arm_biquad_cascade_df1_q31.c ****       /* acc +=  b1 * x[n-1] */
 158              	 .loc 1 119 0
 159 00a6 80FB0167 	 smull r6,r7,r0,r1
 160              	.LVL23:
 121:../Dave/Generated/CMSIS_DSP/FilteringFunctions/arm_biquad_cascade_df1_q31.c ****       /* acc +=  b[2] * x[n-2] */
 161              	 .loc 1 121 0
 162 00aa C2FB0E67 	 smlal r6,r7,r2,lr
 163              	.LVL24:
 123:../Dave/Generated/CMSIS_DSP/FilteringFunctions/arm_biquad_cascade_df1_q31.c ****       /* acc +=  a1 * y[n-1] */
 164              	 .loc 1 123 0
 165 00ae 029A     	 ldr r2,[sp,#8]
 166 00b0 C2FB0467 	 smlal r6,r7,r2,r4
 167              	.LVL25:
 125:../Dave/Generated/CMSIS_DSP/FilteringFunctions/arm_biquad_cascade_df1_q31.c ****       /* acc +=  a2 * y[n-2] */
 168              	 .loc 1 125 0
 169 00b4 CAFB0367 	 smlal r6,r7,r10,r3
 170              	.LVL26:
 127:../Dave/Generated/CMSIS_DSP/FilteringFunctions/arm_biquad_cascade_df1_q31.c **** 
 171              	 .loc 1 127 0
 172 00b8 C9FB0567 	 smlal r6,r7,r9,r5
 173              	.LVL27:
 138:../Dave/Generated/CMSIS_DSP/FilteringFunctions/arm_biquad_cascade_df1_q31.c **** 
 174              	 .loc 1 138 0
 175 00bc 07FA0CF2 	 lsl r2,r7,ip
 176 00c0 26FA0BF6 	 lsr r6,r6,fp
 177              	.LVL28:
 178 00c4 42EA0607 	 orr r7,r2,r6
 179              	.LVL29:
 141:../Dave/Generated/CMSIS_DSP/FilteringFunctions/arm_biquad_cascade_df1_q31.c **** 
 180              	 .loc 1 141 0
 181 00c8 039A     	 ldr r2,[sp,#12]
 182 00ca 42F8107C 	 str r7,[r2,#-16]
 183              	.LVL30:
 144:../Dave/Generated/CMSIS_DSP/FilteringFunctions/arm_biquad_cascade_df1_q31.c **** 
 184              	 .loc 1 144 0
 185 00ce 58F80C6C 	 ldr r6,[r8,#-12]
 186              	.LVL31:
 149:../Dave/Generated/CMSIS_DSP/FilteringFunctions/arm_biquad_cascade_df1_q31.c ****       /* acc +=  b1 * x[n-1] */
 187              	 .loc 1 149 0
 188 00d2 0A46     	 mov r2,r1
 189 00d4 86FB0145 	 smull r4,r5,r6,r1
 190              	.LVL32:
 191              	 .loc 1 151 0
 192 00d8 0199     	 ldr r1,[sp,#4]
 193 00da C1FB0045 	 smlal r4,r5,r1,r0
 194              	.LVL33:
 152:../Dave/Generated/CMSIS_DSP/FilteringFunctions/arm_biquad_cascade_df1_q31.c ****       /* acc +=  b[2] * x[n-2] */
 153:../Dave/Generated/CMSIS_DSP/FilteringFunctions/arm_biquad_cascade_df1_q31.c ****       acc += (q63_t) b2 *Xn1;
 195              	 .loc 1 153 0
 196 00de 0299     	 ldr r1,[sp,#8]
 154:../Dave/Generated/CMSIS_DSP/FilteringFunctions/arm_biquad_cascade_df1_q31.c ****       /* acc +=  a1 * y[n-1] */
 155:../Dave/Generated/CMSIS_DSP/FilteringFunctions/arm_biquad_cascade_df1_q31.c ****       acc += (q63_t) a1 *Yn2;
 156:../Dave/Generated/CMSIS_DSP/FilteringFunctions/arm_biquad_cascade_df1_q31.c ****       /* acc +=  a2 * y[n-2] */
 157:../Dave/Generated/CMSIS_DSP/FilteringFunctions/arm_biquad_cascade_df1_q31.c ****       acc += (q63_t) a2 *Yn1;
 158:../Dave/Generated/CMSIS_DSP/FilteringFunctions/arm_biquad_cascade_df1_q31.c **** 
 159:../Dave/Generated/CMSIS_DSP/FilteringFunctions/arm_biquad_cascade_df1_q31.c **** 
 160:../Dave/Generated/CMSIS_DSP/FilteringFunctions/arm_biquad_cascade_df1_q31.c ****       /* The result is converted to 1.31, Yn1 variable is reused  */
 161:../Dave/Generated/CMSIS_DSP/FilteringFunctions/arm_biquad_cascade_df1_q31.c **** 
 162:../Dave/Generated/CMSIS_DSP/FilteringFunctions/arm_biquad_cascade_df1_q31.c ****       /* Calc lower part of acc */
 163:../Dave/Generated/CMSIS_DSP/FilteringFunctions/arm_biquad_cascade_df1_q31.c ****       acc_l = acc & 0xffffffff;
 164:../Dave/Generated/CMSIS_DSP/FilteringFunctions/arm_biquad_cascade_df1_q31.c **** 
 165:../Dave/Generated/CMSIS_DSP/FilteringFunctions/arm_biquad_cascade_df1_q31.c ****       /* Calc upper part of acc */
 166:../Dave/Generated/CMSIS_DSP/FilteringFunctions/arm_biquad_cascade_df1_q31.c ****       acc_h = (acc >> 32) & 0xffffffff;
 167:../Dave/Generated/CMSIS_DSP/FilteringFunctions/arm_biquad_cascade_df1_q31.c **** 
 168:../Dave/Generated/CMSIS_DSP/FilteringFunctions/arm_biquad_cascade_df1_q31.c **** 
 169:../Dave/Generated/CMSIS_DSP/FilteringFunctions/arm_biquad_cascade_df1_q31.c ****       /* Apply shift for lower part of acc and upper part of acc */
 170:../Dave/Generated/CMSIS_DSP/FilteringFunctions/arm_biquad_cascade_df1_q31.c ****       Yn1 = (uint32_t) acc_l >> lShift | acc_h << uShift;
 171:../Dave/Generated/CMSIS_DSP/FilteringFunctions/arm_biquad_cascade_df1_q31.c **** 
 172:../Dave/Generated/CMSIS_DSP/FilteringFunctions/arm_biquad_cascade_df1_q31.c ****       /* Store the output in the destination buffer. */
 173:../Dave/Generated/CMSIS_DSP/FilteringFunctions/arm_biquad_cascade_df1_q31.c ****       *pOut++ = Yn1;
 197              	 .loc 1 173 0
 198 00e0 0398     	 ldr r0,[sp,#12]
 199              	.LVL34:
 153:../Dave/Generated/CMSIS_DSP/FilteringFunctions/arm_biquad_cascade_df1_q31.c ****       /* acc +=  a1 * y[n-1] */
 200              	 .loc 1 153 0
 201 00e2 C1FB0E45 	 smlal r4,r5,r1,lr
 202              	.LVL35:
 155:../Dave/Generated/CMSIS_DSP/FilteringFunctions/arm_biquad_cascade_df1_q31.c ****       /* acc +=  a2 * y[n-2] */
 203              	 .loc 1 155 0
 204 00e6 CAFB0745 	 smlal r4,r5,r10,r7
 205              	.LVL36:
 157:../Dave/Generated/CMSIS_DSP/FilteringFunctions/arm_biquad_cascade_df1_q31.c **** 
 206              	 .loc 1 157 0
 207 00ea C9FB0345 	 smlal r4,r5,r9,r3
 208              	.LVL37:
 170:../Dave/Generated/CMSIS_DSP/FilteringFunctions/arm_biquad_cascade_df1_q31.c **** 
 209              	 .loc 1 170 0
 210 00ee 05FA0CF3 	 lsl r3,r5,ip
 211              	.LVL38:
 212 00f2 24FA0BF4 	 lsr r4,r4,fp
 213              	.LVL39:
 214 00f6 43EA0401 	 orr r1,r3,r4
 215              	.LVL40:
 216              	 .loc 1 173 0
 217 00fa 40F80C1C 	 str r1,[r0,#-12]
 218              	.LVL41:
 174:../Dave/Generated/CMSIS_DSP/FilteringFunctions/arm_biquad_cascade_df1_q31.c **** 
 175:../Dave/Generated/CMSIS_DSP/FilteringFunctions/arm_biquad_cascade_df1_q31.c ****       /* Read the third input  */
 176:../Dave/Generated/CMSIS_DSP/FilteringFunctions/arm_biquad_cascade_df1_q31.c ****       Xn1 = *pIn++;
 219              	 .loc 1 176 0
 220 00fe 58F8084C 	 ldr r4,[r8,#-8]
 221              	.LVL42:
 177:../Dave/Generated/CMSIS_DSP/FilteringFunctions/arm_biquad_cascade_df1_q31.c **** 
 178:../Dave/Generated/CMSIS_DSP/FilteringFunctions/arm_biquad_cascade_df1_q31.c ****       /* acc =  b0 * x[n] + b1 * x[n-1] + b2 * x[n-2] + a1 * y[n-1] + a2 * y[n-2] */
 179:../Dave/Generated/CMSIS_DSP/FilteringFunctions/arm_biquad_cascade_df1_q31.c **** 
 180:../Dave/Generated/CMSIS_DSP/FilteringFunctions/arm_biquad_cascade_df1_q31.c ****       /* acc =  b0 * x[n] */
 181:../Dave/Generated/CMSIS_DSP/FilteringFunctions/arm_biquad_cascade_df1_q31.c ****       acc = (q63_t) b0 *Xn1;
 182:../Dave/Generated/CMSIS_DSP/FilteringFunctions/arm_biquad_cascade_df1_q31.c ****       /* acc +=  b1 * x[n-1] */
 183:../Dave/Generated/CMSIS_DSP/FilteringFunctions/arm_biquad_cascade_df1_q31.c ****       acc += (q63_t) b1 *Xn2;
 222              	 .loc 1 183 0
 223 0102 019D     	 ldr r5,[sp,#4]
 224              	.LVL43:
 181:../Dave/Generated/CMSIS_DSP/FilteringFunctions/arm_biquad_cascade_df1_q31.c ****       /* acc +=  b1 * x[n-1] */
 225              	 .loc 1 181 0
 226 0104 84FB0223 	 smull r2,r3,r4,r2
 227              	.LVL44:
 228              	 .loc 1 183 0
 229 0108 C5FB0623 	 smlal r2,r3,r5,r6
 230              	.LVL45:
 184:../Dave/Generated/CMSIS_DSP/FilteringFunctions/arm_biquad_cascade_df1_q31.c ****       /* acc +=  b[2] * x[n-2] */
 185:../Dave/Generated/CMSIS_DSP/FilteringFunctions/arm_biquad_cascade_df1_q31.c ****       acc += (q63_t) b2 *Xn;
 231              	 .loc 1 185 0
 232 010c 069D     	 ldr r5,[sp,#24]
 233 010e 2846     	 mov r0,r5
 234 0110 029D     	 ldr r5,[sp,#8]
 235 0112 C5FB0023 	 smlal r2,r3,r5,r0
 236              	.LVL46:
 186:../Dave/Generated/CMSIS_DSP/FilteringFunctions/arm_biquad_cascade_df1_q31.c ****       /* acc +=  a1 * y[n-1] */
 187:../Dave/Generated/CMSIS_DSP/FilteringFunctions/arm_biquad_cascade_df1_q31.c ****       acc += (q63_t) a1 *Yn1;
 237              	 .loc 1 187 0
 238 0116 CAFB0123 	 smlal r2,r3,r10,r1
 239              	.LVL47:
 188:../Dave/Generated/CMSIS_DSP/FilteringFunctions/arm_biquad_cascade_df1_q31.c ****       /* acc +=  a2 * y[n-2] */
 189:../Dave/Generated/CMSIS_DSP/FilteringFunctions/arm_biquad_cascade_df1_q31.c ****       acc += (q63_t) a2 *Yn2;
 240              	 .loc 1 189 0
 241 011a C9FB0723 	 smlal r2,r3,r9,r7
 242              	.LVL48:
 190:../Dave/Generated/CMSIS_DSP/FilteringFunctions/arm_biquad_cascade_df1_q31.c **** 
 191:../Dave/Generated/CMSIS_DSP/FilteringFunctions/arm_biquad_cascade_df1_q31.c ****       /* The result is converted to 1.31, Yn2 variable is reused  */
 192:../Dave/Generated/CMSIS_DSP/FilteringFunctions/arm_biquad_cascade_df1_q31.c ****       /* Calc lower part of acc */
 193:../Dave/Generated/CMSIS_DSP/FilteringFunctions/arm_biquad_cascade_df1_q31.c ****       acc_l = acc & 0xffffffff;
 194:../Dave/Generated/CMSIS_DSP/FilteringFunctions/arm_biquad_cascade_df1_q31.c **** 
 195:../Dave/Generated/CMSIS_DSP/FilteringFunctions/arm_biquad_cascade_df1_q31.c ****       /* Calc upper part of acc */
 196:../Dave/Generated/CMSIS_DSP/FilteringFunctions/arm_biquad_cascade_df1_q31.c ****       acc_h = (acc >> 32) & 0xffffffff;
 197:../Dave/Generated/CMSIS_DSP/FilteringFunctions/arm_biquad_cascade_df1_q31.c **** 
 198:../Dave/Generated/CMSIS_DSP/FilteringFunctions/arm_biquad_cascade_df1_q31.c **** 
 199:../Dave/Generated/CMSIS_DSP/FilteringFunctions/arm_biquad_cascade_df1_q31.c ****       /* Apply shift for lower part of acc and upper part of acc */
 200:../Dave/Generated/CMSIS_DSP/FilteringFunctions/arm_biquad_cascade_df1_q31.c ****       Yn2 = (uint32_t) acc_l >> lShift | acc_h << uShift;
 243              	 .loc 1 200 0
 244 011e 03FA0CF3 	 lsl r3,r3,ip
 245              	.LVL49:
 246 0122 22FA0BF2 	 lsr r2,r2,fp
 247              	.LVL50:
 248 0126 43EA0205 	 orr r5,r3,r2
 249              	.LVL51:
 201:../Dave/Generated/CMSIS_DSP/FilteringFunctions/arm_biquad_cascade_df1_q31.c **** 
 202:../Dave/Generated/CMSIS_DSP/FilteringFunctions/arm_biquad_cascade_df1_q31.c ****       /* Store the output in the destination buffer. */
 203:../Dave/Generated/CMSIS_DSP/FilteringFunctions/arm_biquad_cascade_df1_q31.c ****       *pOut++ = Yn2;
 250              	 .loc 1 203 0
 251 012a 039B     	 ldr r3,[sp,#12]
 204:../Dave/Generated/CMSIS_DSP/FilteringFunctions/arm_biquad_cascade_df1_q31.c **** 
 205:../Dave/Generated/CMSIS_DSP/FilteringFunctions/arm_biquad_cascade_df1_q31.c ****       /* Read the forth input */
 206:../Dave/Generated/CMSIS_DSP/FilteringFunctions/arm_biquad_cascade_df1_q31.c ****       Xn = *pIn++;
 207:../Dave/Generated/CMSIS_DSP/FilteringFunctions/arm_biquad_cascade_df1_q31.c **** 
 208:../Dave/Generated/CMSIS_DSP/FilteringFunctions/arm_biquad_cascade_df1_q31.c ****       /* acc =  b0 * x[n] + b1 * x[n-1] + b2 * x[n-2] + a1 * y[n-1] + a2 * y[n-2] */
 209:../Dave/Generated/CMSIS_DSP/FilteringFunctions/arm_biquad_cascade_df1_q31.c **** 
 210:../Dave/Generated/CMSIS_DSP/FilteringFunctions/arm_biquad_cascade_df1_q31.c ****       /* acc =  b0 * x[n] */
 211:../Dave/Generated/CMSIS_DSP/FilteringFunctions/arm_biquad_cascade_df1_q31.c ****       acc = (q63_t) b0 *Xn;
 212:../Dave/Generated/CMSIS_DSP/FilteringFunctions/arm_biquad_cascade_df1_q31.c ****       /* acc +=  b1 * x[n-1] */
 213:../Dave/Generated/CMSIS_DSP/FilteringFunctions/arm_biquad_cascade_df1_q31.c ****       acc += (q63_t) b1 *Xn1;
 252              	 .loc 1 213 0
 253 012c 019F     	 ldr r7,[sp,#4]
 254              	.LVL52:
 203:../Dave/Generated/CMSIS_DSP/FilteringFunctions/arm_biquad_cascade_df1_q31.c **** 
 255              	 .loc 1 203 0
 256 012e 43F8085C 	 str r5,[r3,#-8]
 257              	.LVL53:
 206:../Dave/Generated/CMSIS_DSP/FilteringFunctions/arm_biquad_cascade_df1_q31.c **** 
 258              	 .loc 1 206 0
 259 0132 58F804EC 	 ldr lr,[r8,#-4]
 260              	.LVL54:
 211:../Dave/Generated/CMSIS_DSP/FilteringFunctions/arm_biquad_cascade_df1_q31.c ****       /* acc +=  b1 * x[n-1] */
 261              	 .loc 1 211 0
 262 0136 049B     	 ldr r3,[sp,#16]
 263              	.LVL55:
 264 0138 8EFB0323 	 smull r2,r3,lr,r3
 265              	.LVL56:
 266              	 .loc 1 213 0
 267 013c C7FB0423 	 smlal r2,r3,r7,r4
 268              	.LVL57:
 214:../Dave/Generated/CMSIS_DSP/FilteringFunctions/arm_biquad_cascade_df1_q31.c ****       /* acc +=  b[2] * x[n-2] */
 215:../Dave/Generated/CMSIS_DSP/FilteringFunctions/arm_biquad_cascade_df1_q31.c ****       acc += (q63_t) b2 *Xn2;
 269              	 .loc 1 215 0
 270 0140 029F     	 ldr r7,[sp,#8]
 271 0142 C7FB0623 	 smlal r2,r3,r7,r6
 272              	.LVL58:
 216:../Dave/Generated/CMSIS_DSP/FilteringFunctions/arm_biquad_cascade_df1_q31.c ****       /* acc +=  a1 * y[n-1] */
 217:../Dave/Generated/CMSIS_DSP/FilteringFunctions/arm_biquad_cascade_df1_q31.c ****       acc += (q63_t) a1 *Yn2;
 273              	 .loc 1 217 0
 274 0146 CAFB0523 	 smlal r2,r3,r10,r5
 275              	.LVL59:
 218:../Dave/Generated/CMSIS_DSP/FilteringFunctions/arm_biquad_cascade_df1_q31.c ****       /* acc +=  a2 * y[n-2] */
 219:../Dave/Generated/CMSIS_DSP/FilteringFunctions/arm_biquad_cascade_df1_q31.c ****       acc += (q63_t) a2 *Yn1;
 276              	 .loc 1 219 0
 277 014a C9FB0123 	 smlal r2,r3,r9,r1
 278              	.LVL60:
 220:../Dave/Generated/CMSIS_DSP/FilteringFunctions/arm_biquad_cascade_df1_q31.c **** 
 221:../Dave/Generated/CMSIS_DSP/FilteringFunctions/arm_biquad_cascade_df1_q31.c ****       /* The result is converted to 1.31, Yn1 variable is reused  */
 222:../Dave/Generated/CMSIS_DSP/FilteringFunctions/arm_biquad_cascade_df1_q31.c ****       /* Calc lower part of acc */
 223:../Dave/Generated/CMSIS_DSP/FilteringFunctions/arm_biquad_cascade_df1_q31.c ****       acc_l = acc & 0xffffffff;
 224:../Dave/Generated/CMSIS_DSP/FilteringFunctions/arm_biquad_cascade_df1_q31.c **** 
 225:../Dave/Generated/CMSIS_DSP/FilteringFunctions/arm_biquad_cascade_df1_q31.c ****       /* Calc upper part of acc */
 226:../Dave/Generated/CMSIS_DSP/FilteringFunctions/arm_biquad_cascade_df1_q31.c ****       acc_h = (acc >> 32) & 0xffffffff;
 227:../Dave/Generated/CMSIS_DSP/FilteringFunctions/arm_biquad_cascade_df1_q31.c **** 
 228:../Dave/Generated/CMSIS_DSP/FilteringFunctions/arm_biquad_cascade_df1_q31.c ****       /* Apply shift for lower part of acc and upper part of acc */
 229:../Dave/Generated/CMSIS_DSP/FilteringFunctions/arm_biquad_cascade_df1_q31.c ****       Yn1 = (uint32_t) acc_l >> lShift | acc_h << uShift;
 279              	 .loc 1 229 0
 280 014e 22FA0BF2 	 lsr r2,r2,fp
 281              	.LVL61:
 282 0152 03FA0CF1 	 lsl r1,r3,ip
 283              	.LVL62:
 284 0156 41EA0203 	 orr r3,r1,r2
 285              	.LVL63:
 230:../Dave/Generated/CMSIS_DSP/FilteringFunctions/arm_biquad_cascade_df1_q31.c **** 
 231:../Dave/Generated/CMSIS_DSP/FilteringFunctions/arm_biquad_cascade_df1_q31.c ****       /* Every time after the output is computed state should be updated. */
 232:../Dave/Generated/CMSIS_DSP/FilteringFunctions/arm_biquad_cascade_df1_q31.c ****       /* The states should be updated as:  */
 233:../Dave/Generated/CMSIS_DSP/FilteringFunctions/arm_biquad_cascade_df1_q31.c ****       /* Xn2 = Xn1    */
 234:../Dave/Generated/CMSIS_DSP/FilteringFunctions/arm_biquad_cascade_df1_q31.c ****       /* Xn1 = Xn     */
 235:../Dave/Generated/CMSIS_DSP/FilteringFunctions/arm_biquad_cascade_df1_q31.c ****       /* Yn2 = Yn1    */
 236:../Dave/Generated/CMSIS_DSP/FilteringFunctions/arm_biquad_cascade_df1_q31.c ****       /* Yn1 = acc    */
 237:../Dave/Generated/CMSIS_DSP/FilteringFunctions/arm_biquad_cascade_df1_q31.c ****       Xn2 = Xn1;
 238:../Dave/Generated/CMSIS_DSP/FilteringFunctions/arm_biquad_cascade_df1_q31.c ****       Xn1 = Xn;
 239:../Dave/Generated/CMSIS_DSP/FilteringFunctions/arm_biquad_cascade_df1_q31.c **** 
 240:../Dave/Generated/CMSIS_DSP/FilteringFunctions/arm_biquad_cascade_df1_q31.c ****       /* Store the output in the destination buffer. */
 241:../Dave/Generated/CMSIS_DSP/FilteringFunctions/arm_biquad_cascade_df1_q31.c ****       *pOut++ = Yn1;
 286              	 .loc 1 241 0
 287 015a 039A     	 ldr r2,[sp,#12]
 288 015c 42F8043C 	 str r3,[r2,#-4]
 289 0160 1032     	 adds r2,r2,#16
 290 0162 0392     	 str r2,[sp,#12]
 291              	.LVL64:
 111:../Dave/Generated/CMSIS_DSP/FilteringFunctions/arm_biquad_cascade_df1_q31.c ****     {
 292              	 .loc 1 111 0
 293 0164 059A     	 ldr r2,[sp,#20]
 294              	.LVL65:
 295 0166 013A     	 subs r2,r2,#1
 296              	.LVL66:
 297 0168 08F11008 	 add r8,r8,#16
 298              	.LVL67:
 299 016c 0592     	 str r2,[sp,#20]
 300 016e 94D1     	 bne .L3
 301 0170 0A9A     	 ldr r2,[sp,#40]
 302              	.LVL68:
 303 0172 1299     	 ldr r1,[sp,#72]
 304              	 .loc 1 241 0
 305 0174 139E     	 ldr r6,[sp,#76]
 306              	.LVL69:
 307 0176 0A44     	 add r2,r2,r1
 308 0178 A246     	 mov r10,r4
 309              	.LVL70:
 310 017a 0A92     	 str r2,[sp,#40]
 311              	.LVL71:
 312              	.L2:
 242:../Dave/Generated/CMSIS_DSP/FilteringFunctions/arm_biquad_cascade_df1_q31.c **** 
 243:../Dave/Generated/CMSIS_DSP/FilteringFunctions/arm_biquad_cascade_df1_q31.c ****       /* decrement the loop counter */
 244:../Dave/Generated/CMSIS_DSP/FilteringFunctions/arm_biquad_cascade_df1_q31.c ****       sample--;
 245:../Dave/Generated/CMSIS_DSP/FilteringFunctions/arm_biquad_cascade_df1_q31.c ****     }
 246:../Dave/Generated/CMSIS_DSP/FilteringFunctions/arm_biquad_cascade_df1_q31.c **** 
 247:../Dave/Generated/CMSIS_DSP/FilteringFunctions/arm_biquad_cascade_df1_q31.c ****     /* If the blockSize is not a multiple of 4, compute any remaining output samples here.
 248:../Dave/Generated/CMSIS_DSP/FilteringFunctions/arm_biquad_cascade_df1_q31.c ****      ** No loop unrolling is used. */
 249:../Dave/Generated/CMSIS_DSP/FilteringFunctions/arm_biquad_cascade_df1_q31.c ****     sample = (blockSize & 0x3u);
 250:../Dave/Generated/CMSIS_DSP/FilteringFunctions/arm_biquad_cascade_df1_q31.c **** 
 251:../Dave/Generated/CMSIS_DSP/FilteringFunctions/arm_biquad_cascade_df1_q31.c ****     while (sample > 0u)
 313              	 .loc 1 251 0
 314 017c 109A     	 ldr r2,[sp,#64]
 315 017e 002A     	 cmp r2,#0
 316 0180 45D0     	 beq .L9
 317 0182 0392     	 str r2,[sp,#12]
 318 0184 0A9F     	 ldr r7,[sp,#40]
 319 0186 01E0     	 b .L6
 320              	.LVL72:
 321              	.L10:
 252:../Dave/Generated/CMSIS_DSP/FilteringFunctions/arm_biquad_cascade_df1_q31.c ****     {
 253:../Dave/Generated/CMSIS_DSP/FilteringFunctions/arm_biquad_cascade_df1_q31.c ****       /* Read the input */
 254:../Dave/Generated/CMSIS_DSP/FilteringFunctions/arm_biquad_cascade_df1_q31.c ****       Xn = *pIn++;
 255:../Dave/Generated/CMSIS_DSP/FilteringFunctions/arm_biquad_cascade_df1_q31.c **** 
 256:../Dave/Generated/CMSIS_DSP/FilteringFunctions/arm_biquad_cascade_df1_q31.c ****       /* acc =  b0 * x[n] + b1 * x[n-1] + b2 * x[n-2] + a1 * y[n-1] + a2 * y[n-2] */
 257:../Dave/Generated/CMSIS_DSP/FilteringFunctions/arm_biquad_cascade_df1_q31.c **** 
 258:../Dave/Generated/CMSIS_DSP/FilteringFunctions/arm_biquad_cascade_df1_q31.c ****       /* acc =  b0 * x[n] */
 259:../Dave/Generated/CMSIS_DSP/FilteringFunctions/arm_biquad_cascade_df1_q31.c ****       acc = (q63_t) b0 *Xn;
 260:../Dave/Generated/CMSIS_DSP/FilteringFunctions/arm_biquad_cascade_df1_q31.c ****       /* acc +=  b1 * x[n-1] */
 261:../Dave/Generated/CMSIS_DSP/FilteringFunctions/arm_biquad_cascade_df1_q31.c ****       acc += (q63_t) b1 *Xn1;
 262:../Dave/Generated/CMSIS_DSP/FilteringFunctions/arm_biquad_cascade_df1_q31.c ****       /* acc +=  b[2] * x[n-2] */
 263:../Dave/Generated/CMSIS_DSP/FilteringFunctions/arm_biquad_cascade_df1_q31.c ****       acc += (q63_t) b2 *Xn2;
 264:../Dave/Generated/CMSIS_DSP/FilteringFunctions/arm_biquad_cascade_df1_q31.c ****       /* acc +=  a1 * y[n-1] */
 265:../Dave/Generated/CMSIS_DSP/FilteringFunctions/arm_biquad_cascade_df1_q31.c ****       acc += (q63_t) a1 *Yn1;
 266:../Dave/Generated/CMSIS_DSP/FilteringFunctions/arm_biquad_cascade_df1_q31.c ****       /* acc +=  a2 * y[n-2] */
 267:../Dave/Generated/CMSIS_DSP/FilteringFunctions/arm_biquad_cascade_df1_q31.c ****       acc += (q63_t) a2 *Yn2;
 268:../Dave/Generated/CMSIS_DSP/FilteringFunctions/arm_biquad_cascade_df1_q31.c **** 
 269:../Dave/Generated/CMSIS_DSP/FilteringFunctions/arm_biquad_cascade_df1_q31.c ****       /* The result is converted to 1.31  */
 270:../Dave/Generated/CMSIS_DSP/FilteringFunctions/arm_biquad_cascade_df1_q31.c ****       acc = acc >> lShift;
 271:../Dave/Generated/CMSIS_DSP/FilteringFunctions/arm_biquad_cascade_df1_q31.c **** 
 272:../Dave/Generated/CMSIS_DSP/FilteringFunctions/arm_biquad_cascade_df1_q31.c ****       /* Every time after the output is computed state should be updated. */
 273:../Dave/Generated/CMSIS_DSP/FilteringFunctions/arm_biquad_cascade_df1_q31.c ****       /* The states should be updated as:  */
 274:../Dave/Generated/CMSIS_DSP/FilteringFunctions/arm_biquad_cascade_df1_q31.c ****       /* Xn2 = Xn1    */
 275:../Dave/Generated/CMSIS_DSP/FilteringFunctions/arm_biquad_cascade_df1_q31.c ****       /* Xn1 = Xn     */
 276:../Dave/Generated/CMSIS_DSP/FilteringFunctions/arm_biquad_cascade_df1_q31.c ****       /* Yn2 = Yn1    */
 277:../Dave/Generated/CMSIS_DSP/FilteringFunctions/arm_biquad_cascade_df1_q31.c ****       /* Yn1 = acc    */
 278:../Dave/Generated/CMSIS_DSP/FilteringFunctions/arm_biquad_cascade_df1_q31.c ****       Xn2 = Xn1;
 279:../Dave/Generated/CMSIS_DSP/FilteringFunctions/arm_biquad_cascade_df1_q31.c ****       Xn1 = Xn;
 280:../Dave/Generated/CMSIS_DSP/FilteringFunctions/arm_biquad_cascade_df1_q31.c ****       Yn2 = Yn1;
 281:../Dave/Generated/CMSIS_DSP/FilteringFunctions/arm_biquad_cascade_df1_q31.c ****       Yn1 = (q31_t) acc;
 322              	 .loc 1 281 0
 323 0188 6346     	 mov r3,ip
 324              	.LVL73:
 254:../Dave/Generated/CMSIS_DSP/FilteringFunctions/arm_biquad_cascade_df1_q31.c **** 
 325              	 .loc 1 254 0
 326 018a A646     	 mov lr,r4
 327              	.LVL74:
 328              	.L6:
 329 018c 57F8044B 	 ldr r4,[r7],#4
 330              	.LVL75:
 259:../Dave/Generated/CMSIS_DSP/FilteringFunctions/arm_biquad_cascade_df1_q31.c ****       /* acc +=  b1 * x[n-1] */
 331              	 .loc 1 259 0
 332 0190 0499     	 ldr r1,[sp,#16]
 261:../Dave/Generated/CMSIS_DSP/FilteringFunctions/arm_biquad_cascade_df1_q31.c ****       /* acc +=  b[2] * x[n-2] */
 333              	 .loc 1 261 0
 334 0192 019A     	 ldr r2,[sp,#4]
 259:../Dave/Generated/CMSIS_DSP/FilteringFunctions/arm_biquad_cascade_df1_q31.c ****       /* acc +=  b1 * x[n-1] */
 335              	 .loc 1 259 0
 336 0194 84FB0101 	 smull r0,r1,r4,r1
 337              	.LVL76:
 261:../Dave/Generated/CMSIS_DSP/FilteringFunctions/arm_biquad_cascade_df1_q31.c ****       /* acc +=  b[2] * x[n-2] */
 338              	 .loc 1 261 0
 339 0198 C2FB0E01 	 smlal r0,r1,r2,lr
 340              	.LVL77:
 263:../Dave/Generated/CMSIS_DSP/FilteringFunctions/arm_biquad_cascade_df1_q31.c ****       /* acc +=  a1 * y[n-1] */
 341              	 .loc 1 263 0
 342 019c 029A     	 ldr r2,[sp,#8]
 343 019e C2FB0A01 	 smlal r0,r1,r2,r10
 344              	.LVL78:
 265:../Dave/Generated/CMSIS_DSP/FilteringFunctions/arm_biquad_cascade_df1_q31.c ****       /* acc +=  a2 * y[n-2] */
 345              	 .loc 1 265 0
 346 01a2 079A     	 ldr r2,[sp,#28]
 347 01a4 C2FB0301 	 smlal r0,r1,r2,r3
 348              	.LVL79:
 267:../Dave/Generated/CMSIS_DSP/FilteringFunctions/arm_biquad_cascade_df1_q31.c **** 
 349              	 .loc 1 267 0
 350 01a8 089A     	 ldr r2,[sp,#32]
 351 01aa C2FB0501 	 smlal r0,r1,r2,r5
 352              	.LVL80:
 270:../Dave/Generated/CMSIS_DSP/FilteringFunctions/arm_biquad_cascade_df1_q31.c **** 
 353              	 .loc 1 270 0
 354 01ae 099A     	 ldr r2,[sp,#36]
 355 01b0 BBF12008 	 subs r8,fp,#32
 356 01b4 01FA02F9 	 lsl r9,r1,r2
 357 01b8 20FA0BFC 	 lsr ip,r0,fp
 251:../Dave/Generated/CMSIS_DSP/FilteringFunctions/arm_biquad_cascade_df1_q31.c ****     {
 358              	 .loc 1 251 0
 359 01bc 039A     	 ldr r2,[sp,#12]
 270:../Dave/Generated/CMSIS_DSP/FilteringFunctions/arm_biquad_cascade_df1_q31.c **** 
 360              	 .loc 1 270 0
 361 01be 4CEA090C 	 orr ip,ip,r9
 362 01c2 5CBF     	 itt pl
 363 01c4 41FA08F8 	 asrpl r8,r1,r8
 364 01c8 4CEA080C 	 orrpl ip,ip,r8
 251:../Dave/Generated/CMSIS_DSP/FilteringFunctions/arm_biquad_cascade_df1_q31.c ****     {
 365              	 .loc 1 251 0
 366 01cc 013A     	 subs r2,r2,#1
 367 01ce F246     	 mov r10,lr
 368 01d0 1D46     	 mov r5,r3
 282:../Dave/Generated/CMSIS_DSP/FilteringFunctions/arm_biquad_cascade_df1_q31.c **** 
 283:../Dave/Generated/CMSIS_DSP/FilteringFunctions/arm_biquad_cascade_df1_q31.c ****       /* Store the output in the destination buffer. */
 284:../Dave/Generated/CMSIS_DSP/FilteringFunctions/arm_biquad_cascade_df1_q31.c ****       *pOut++ = (q31_t) acc;
 369              	 .loc 1 284 0
 370 01d2 46F804CB 	 str ip,[r6],#4
 371              	.LVL81:
 281:../Dave/Generated/CMSIS_DSP/FilteringFunctions/arm_biquad_cascade_df1_q31.c **** 
 372              	 .loc 1 281 0
 373 01d6 6146     	 mov r1,ip
 374              	.LVL82:
 251:../Dave/Generated/CMSIS_DSP/FilteringFunctions/arm_biquad_cascade_df1_q31.c ****     {
 375              	 .loc 1 251 0
 376 01d8 0392     	 str r2,[sp,#12]
 377 01da D5D1     	 bne .L10
 378              	.LVL83:
 379              	.L4:
 285:../Dave/Generated/CMSIS_DSP/FilteringFunctions/arm_biquad_cascade_df1_q31.c **** 
 286:../Dave/Generated/CMSIS_DSP/FilteringFunctions/arm_biquad_cascade_df1_q31.c ****       /* decrement the loop counter */
 287:../Dave/Generated/CMSIS_DSP/FilteringFunctions/arm_biquad_cascade_df1_q31.c ****       sample--;
 288:../Dave/Generated/CMSIS_DSP/FilteringFunctions/arm_biquad_cascade_df1_q31.c ****     }
 289:../Dave/Generated/CMSIS_DSP/FilteringFunctions/arm_biquad_cascade_df1_q31.c **** 
 290:../Dave/Generated/CMSIS_DSP/FilteringFunctions/arm_biquad_cascade_df1_q31.c ****     /*  The first stage goes from the input buffer to the output buffer. */
 291:../Dave/Generated/CMSIS_DSP/FilteringFunctions/arm_biquad_cascade_df1_q31.c ****     /*  Subsequent stages occur in-place in the output buffer */
 292:../Dave/Generated/CMSIS_DSP/FilteringFunctions/arm_biquad_cascade_df1_q31.c ****     pIn = pDst;
 293:../Dave/Generated/CMSIS_DSP/FilteringFunctions/arm_biquad_cascade_df1_q31.c **** 
 294:../Dave/Generated/CMSIS_DSP/FilteringFunctions/arm_biquad_cascade_df1_q31.c ****     /* Reset to destination pointer */
 295:../Dave/Generated/CMSIS_DSP/FilteringFunctions/arm_biquad_cascade_df1_q31.c ****     pOut = pDst;
 296:../Dave/Generated/CMSIS_DSP/FilteringFunctions/arm_biquad_cascade_df1_q31.c **** 
 297:../Dave/Generated/CMSIS_DSP/FilteringFunctions/arm_biquad_cascade_df1_q31.c ****     /*  Store the updated state variables back into the pState array */
 298:../Dave/Generated/CMSIS_DSP/FilteringFunctions/arm_biquad_cascade_df1_q31.c ****     *pState++ = Xn1;
 380              	 .loc 1 298 0
 381 01dc 0C98     	 ldr r0,[sp,#48]
 299:../Dave/Generated/CMSIS_DSP/FilteringFunctions/arm_biquad_cascade_df1_q31.c ****     *pState++ = Xn2;
 300:../Dave/Generated/CMSIS_DSP/FilteringFunctions/arm_biquad_cascade_df1_q31.c ****     *pState++ = Yn1;
 301:../Dave/Generated/CMSIS_DSP/FilteringFunctions/arm_biquad_cascade_df1_q31.c ****     *pState++ = Yn2;
 382              	 .loc 1 301 0
 383 01de 40F8043C 	 str r3,[r0,#-4]
 384 01e2 0B9B     	 ldr r3,[sp,#44]
 385              	.LVL84:
 298:../Dave/Generated/CMSIS_DSP/FilteringFunctions/arm_biquad_cascade_df1_q31.c ****     *pState++ = Xn2;
 386              	 .loc 1 298 0
 387 01e4 40F8104C 	 str r4,[r0,#-16]
 388              	.LVL85:
 389 01e8 1433     	 adds r3,r3,#20
 390 01ea 0B93     	 str r3,[sp,#44]
 391              	.LVL86:
 392 01ec 00F11003 	 add r3,r0,#16
 393 01f0 0C93     	 str r3,[sp,#48]
 394              	.LVL87:
 292:../Dave/Generated/CMSIS_DSP/FilteringFunctions/arm_biquad_cascade_df1_q31.c **** 
 395              	 .loc 1 292 0
 396 01f2 0E9B     	 ldr r3,[sp,#56]
 397 01f4 0A93     	 str r3,[sp,#40]
 302:../Dave/Generated/CMSIS_DSP/FilteringFunctions/arm_biquad_cascade_df1_q31.c **** 
 303:../Dave/Generated/CMSIS_DSP/FilteringFunctions/arm_biquad_cascade_df1_q31.c ****   } while (--stage);
 398              	 .loc 1 303 0
 399 01f6 0D9B     	 ldr r3,[sp,#52]
 299:../Dave/Generated/CMSIS_DSP/FilteringFunctions/arm_biquad_cascade_df1_q31.c ****     *pState++ = Yn1;
 400              	 .loc 1 299 0
 401 01f8 40F80CEC 	 str lr,[r0,#-12]
 402              	 .loc 1 303 0
 403 01fc 013B     	 subs r3,r3,#1
 300:../Dave/Generated/CMSIS_DSP/FilteringFunctions/arm_biquad_cascade_df1_q31.c ****     *pState++ = Yn2;
 404              	 .loc 1 300 0
 405 01fe 40F8081C 	 str r1,[r0,#-8]
 406              	.LVL88:
 407              	 .loc 1 303 0
 408 0202 0D93     	 str r3,[sp,#52]
 409 0204 7FF41CAF 	 bne .L7
 304:../Dave/Generated/CMSIS_DSP/FilteringFunctions/arm_biquad_cascade_df1_q31.c **** 
 305:../Dave/Generated/CMSIS_DSP/FilteringFunctions/arm_biquad_cascade_df1_q31.c **** #else
 306:../Dave/Generated/CMSIS_DSP/FilteringFunctions/arm_biquad_cascade_df1_q31.c **** 
 307:../Dave/Generated/CMSIS_DSP/FilteringFunctions/arm_biquad_cascade_df1_q31.c ****   /* Run the below code for Cortex-M0 */
 308:../Dave/Generated/CMSIS_DSP/FilteringFunctions/arm_biquad_cascade_df1_q31.c **** 
 309:../Dave/Generated/CMSIS_DSP/FilteringFunctions/arm_biquad_cascade_df1_q31.c ****   do
 310:../Dave/Generated/CMSIS_DSP/FilteringFunctions/arm_biquad_cascade_df1_q31.c ****   {
 311:../Dave/Generated/CMSIS_DSP/FilteringFunctions/arm_biquad_cascade_df1_q31.c ****     /* Reading the coefficients */
 312:../Dave/Generated/CMSIS_DSP/FilteringFunctions/arm_biquad_cascade_df1_q31.c ****     b0 = *pCoeffs++;
 313:../Dave/Generated/CMSIS_DSP/FilteringFunctions/arm_biquad_cascade_df1_q31.c ****     b1 = *pCoeffs++;
 314:../Dave/Generated/CMSIS_DSP/FilteringFunctions/arm_biquad_cascade_df1_q31.c ****     b2 = *pCoeffs++;
 315:../Dave/Generated/CMSIS_DSP/FilteringFunctions/arm_biquad_cascade_df1_q31.c ****     a1 = *pCoeffs++;
 316:../Dave/Generated/CMSIS_DSP/FilteringFunctions/arm_biquad_cascade_df1_q31.c ****     a2 = *pCoeffs++;
 317:../Dave/Generated/CMSIS_DSP/FilteringFunctions/arm_biquad_cascade_df1_q31.c **** 
 318:../Dave/Generated/CMSIS_DSP/FilteringFunctions/arm_biquad_cascade_df1_q31.c ****     /* Reading the state values */
 319:../Dave/Generated/CMSIS_DSP/FilteringFunctions/arm_biquad_cascade_df1_q31.c ****     Xn1 = pState[0];
 320:../Dave/Generated/CMSIS_DSP/FilteringFunctions/arm_biquad_cascade_df1_q31.c ****     Xn2 = pState[1];
 321:../Dave/Generated/CMSIS_DSP/FilteringFunctions/arm_biquad_cascade_df1_q31.c ****     Yn1 = pState[2];
 322:../Dave/Generated/CMSIS_DSP/FilteringFunctions/arm_biquad_cascade_df1_q31.c ****     Yn2 = pState[3];
 323:../Dave/Generated/CMSIS_DSP/FilteringFunctions/arm_biquad_cascade_df1_q31.c **** 
 324:../Dave/Generated/CMSIS_DSP/FilteringFunctions/arm_biquad_cascade_df1_q31.c ****     /*      The variables acc holds the output value that is computed:
 325:../Dave/Generated/CMSIS_DSP/FilteringFunctions/arm_biquad_cascade_df1_q31.c ****      *    acc =  b0 * x[n] + b1 * x[n-1] + b2 * x[n-2] + a1 * y[n-1] + a2 * y[n-2]
 326:../Dave/Generated/CMSIS_DSP/FilteringFunctions/arm_biquad_cascade_df1_q31.c ****      */
 327:../Dave/Generated/CMSIS_DSP/FilteringFunctions/arm_biquad_cascade_df1_q31.c **** 
 328:../Dave/Generated/CMSIS_DSP/FilteringFunctions/arm_biquad_cascade_df1_q31.c ****     sample = blockSize;
 329:../Dave/Generated/CMSIS_DSP/FilteringFunctions/arm_biquad_cascade_df1_q31.c **** 
 330:../Dave/Generated/CMSIS_DSP/FilteringFunctions/arm_biquad_cascade_df1_q31.c ****     while (sample > 0u)
 331:../Dave/Generated/CMSIS_DSP/FilteringFunctions/arm_biquad_cascade_df1_q31.c ****     {
 332:../Dave/Generated/CMSIS_DSP/FilteringFunctions/arm_biquad_cascade_df1_q31.c ****       /* Read the input */
 333:../Dave/Generated/CMSIS_DSP/FilteringFunctions/arm_biquad_cascade_df1_q31.c ****       Xn = *pIn++;
 334:../Dave/Generated/CMSIS_DSP/FilteringFunctions/arm_biquad_cascade_df1_q31.c **** 
 335:../Dave/Generated/CMSIS_DSP/FilteringFunctions/arm_biquad_cascade_df1_q31.c ****       /* acc =  b0 * x[n] + b1 * x[n-1] + b2 * x[n-2] + a1 * y[n-1] + a2 * y[n-2] */
 336:../Dave/Generated/CMSIS_DSP/FilteringFunctions/arm_biquad_cascade_df1_q31.c ****       /* acc =  b0 * x[n] */
 337:../Dave/Generated/CMSIS_DSP/FilteringFunctions/arm_biquad_cascade_df1_q31.c ****       acc = (q63_t) b0 *Xn;
 338:../Dave/Generated/CMSIS_DSP/FilteringFunctions/arm_biquad_cascade_df1_q31.c **** 
 339:../Dave/Generated/CMSIS_DSP/FilteringFunctions/arm_biquad_cascade_df1_q31.c ****       /* acc +=  b1 * x[n-1] */
 340:../Dave/Generated/CMSIS_DSP/FilteringFunctions/arm_biquad_cascade_df1_q31.c ****       acc += (q63_t) b1 *Xn1;
 341:../Dave/Generated/CMSIS_DSP/FilteringFunctions/arm_biquad_cascade_df1_q31.c ****       /* acc +=  b[2] * x[n-2] */
 342:../Dave/Generated/CMSIS_DSP/FilteringFunctions/arm_biquad_cascade_df1_q31.c ****       acc += (q63_t) b2 *Xn2;
 343:../Dave/Generated/CMSIS_DSP/FilteringFunctions/arm_biquad_cascade_df1_q31.c ****       /* acc +=  a1 * y[n-1] */
 344:../Dave/Generated/CMSIS_DSP/FilteringFunctions/arm_biquad_cascade_df1_q31.c ****       acc += (q63_t) a1 *Yn1;
 345:../Dave/Generated/CMSIS_DSP/FilteringFunctions/arm_biquad_cascade_df1_q31.c ****       /* acc +=  a2 * y[n-2] */
 346:../Dave/Generated/CMSIS_DSP/FilteringFunctions/arm_biquad_cascade_df1_q31.c ****       acc += (q63_t) a2 *Yn2;
 347:../Dave/Generated/CMSIS_DSP/FilteringFunctions/arm_biquad_cascade_df1_q31.c **** 
 348:../Dave/Generated/CMSIS_DSP/FilteringFunctions/arm_biquad_cascade_df1_q31.c ****       /* The result is converted to 1.31  */
 349:../Dave/Generated/CMSIS_DSP/FilteringFunctions/arm_biquad_cascade_df1_q31.c ****       acc = acc >> lShift;
 350:../Dave/Generated/CMSIS_DSP/FilteringFunctions/arm_biquad_cascade_df1_q31.c **** 
 351:../Dave/Generated/CMSIS_DSP/FilteringFunctions/arm_biquad_cascade_df1_q31.c ****       /* Every time after the output is computed state should be updated. */
 352:../Dave/Generated/CMSIS_DSP/FilteringFunctions/arm_biquad_cascade_df1_q31.c ****       /* The states should be updated as:  */
 353:../Dave/Generated/CMSIS_DSP/FilteringFunctions/arm_biquad_cascade_df1_q31.c ****       /* Xn2 = Xn1    */
 354:../Dave/Generated/CMSIS_DSP/FilteringFunctions/arm_biquad_cascade_df1_q31.c ****       /* Xn1 = Xn     */
 355:../Dave/Generated/CMSIS_DSP/FilteringFunctions/arm_biquad_cascade_df1_q31.c ****       /* Yn2 = Yn1    */
 356:../Dave/Generated/CMSIS_DSP/FilteringFunctions/arm_biquad_cascade_df1_q31.c ****       /* Yn1 = acc    */
 357:../Dave/Generated/CMSIS_DSP/FilteringFunctions/arm_biquad_cascade_df1_q31.c ****       Xn2 = Xn1;
 358:../Dave/Generated/CMSIS_DSP/FilteringFunctions/arm_biquad_cascade_df1_q31.c ****       Xn1 = Xn;
 359:../Dave/Generated/CMSIS_DSP/FilteringFunctions/arm_biquad_cascade_df1_q31.c ****       Yn2 = Yn1;
 360:../Dave/Generated/CMSIS_DSP/FilteringFunctions/arm_biquad_cascade_df1_q31.c ****       Yn1 = (q31_t) acc;
 361:../Dave/Generated/CMSIS_DSP/FilteringFunctions/arm_biquad_cascade_df1_q31.c **** 
 362:../Dave/Generated/CMSIS_DSP/FilteringFunctions/arm_biquad_cascade_df1_q31.c ****       /* Store the output in the destination buffer. */
 363:../Dave/Generated/CMSIS_DSP/FilteringFunctions/arm_biquad_cascade_df1_q31.c ****       *pOut++ = (q31_t) acc;
 364:../Dave/Generated/CMSIS_DSP/FilteringFunctions/arm_biquad_cascade_df1_q31.c **** 
 365:../Dave/Generated/CMSIS_DSP/FilteringFunctions/arm_biquad_cascade_df1_q31.c ****       /* decrement the loop counter */
 366:../Dave/Generated/CMSIS_DSP/FilteringFunctions/arm_biquad_cascade_df1_q31.c ****       sample--;
 367:../Dave/Generated/CMSIS_DSP/FilteringFunctions/arm_biquad_cascade_df1_q31.c ****     }
 368:../Dave/Generated/CMSIS_DSP/FilteringFunctions/arm_biquad_cascade_df1_q31.c **** 
 369:../Dave/Generated/CMSIS_DSP/FilteringFunctions/arm_biquad_cascade_df1_q31.c ****     /*  The first stage goes from the input buffer to the output buffer. */
 370:../Dave/Generated/CMSIS_DSP/FilteringFunctions/arm_biquad_cascade_df1_q31.c ****     /*  Subsequent stages occur in-place in the output buffer */
 371:../Dave/Generated/CMSIS_DSP/FilteringFunctions/arm_biquad_cascade_df1_q31.c ****     pIn = pDst;
 372:../Dave/Generated/CMSIS_DSP/FilteringFunctions/arm_biquad_cascade_df1_q31.c **** 
 373:../Dave/Generated/CMSIS_DSP/FilteringFunctions/arm_biquad_cascade_df1_q31.c ****     /* Reset to destination pointer */
 374:../Dave/Generated/CMSIS_DSP/FilteringFunctions/arm_biquad_cascade_df1_q31.c ****     pOut = pDst;
 375:../Dave/Generated/CMSIS_DSP/FilteringFunctions/arm_biquad_cascade_df1_q31.c **** 
 376:../Dave/Generated/CMSIS_DSP/FilteringFunctions/arm_biquad_cascade_df1_q31.c ****     /*  Store the updated state variables back into the pState array */
 377:../Dave/Generated/CMSIS_DSP/FilteringFunctions/arm_biquad_cascade_df1_q31.c ****     *pState++ = Xn1;
 378:../Dave/Generated/CMSIS_DSP/FilteringFunctions/arm_biquad_cascade_df1_q31.c ****     *pState++ = Xn2;
 379:../Dave/Generated/CMSIS_DSP/FilteringFunctions/arm_biquad_cascade_df1_q31.c ****     *pState++ = Yn1;
 380:../Dave/Generated/CMSIS_DSP/FilteringFunctions/arm_biquad_cascade_df1_q31.c ****     *pState++ = Yn2;
 381:../Dave/Generated/CMSIS_DSP/FilteringFunctions/arm_biquad_cascade_df1_q31.c **** 
 382:../Dave/Generated/CMSIS_DSP/FilteringFunctions/arm_biquad_cascade_df1_q31.c ****   } while (--stage);
 383:../Dave/Generated/CMSIS_DSP/FilteringFunctions/arm_biquad_cascade_df1_q31.c **** 
 384:../Dave/Generated/CMSIS_DSP/FilteringFunctions/arm_biquad_cascade_df1_q31.c **** #endif /*  #if defined (ARM_MATH_DSP) */
 385:../Dave/Generated/CMSIS_DSP/FilteringFunctions/arm_biquad_cascade_df1_q31.c **** }
 410              	 .loc 1 385 0
 411 0208 15B0     	 add sp,sp,#84
 412              	.LCFI2:
 413              	 .cfi_remember_state
 414              	 .cfi_def_cfa_offset 36
 415              	 
 416 020a BDE8F08F 	 pop {r4,r5,r6,r7,r8,r9,r10,fp,pc}
 417              	.LVL89:
 418              	.L9:
 419              	.LCFI3:
 420              	 .cfi_restore_state
 251:../Dave/Generated/CMSIS_DSP/FilteringFunctions/arm_biquad_cascade_df1_q31.c ****     {
 421              	 .loc 1 251 0
 422 020e 1946     	 mov r1,r3
 423 0210 7446     	 mov r4,lr
 424 0212 2B46     	 mov r3,r5
 425              	.LVL90:
 426 0214 D646     	 mov lr,r10
 427              	.LVL91:
 428 0216 E1E7     	 b .L4
 429              	.LVL92:
 430              	.L8:
 111:../Dave/Generated/CMSIS_DSP/FilteringFunctions/arm_biquad_cascade_df1_q31.c ****     {
 431              	 .loc 1 111 0
 432 0218 0E9E     	 ldr r6,[sp,#56]
 433 021a AFE7     	 b .L2
 434              	 .cfi_endproc
 435              	.LFE135:
 437              	 .text
 438              	.Letext0:
 439              	 .file 2 "c:\\infineon\\tools\\dave ide\\4.5.0.202105191637\\eclipse\\arm-gcc-49\\arm-none-eabi\\include\\machine\\_default_types.h"
 440              	 .file 3 "c:\\infineon\\tools\\dave ide\\4.5.0.202105191637\\eclipse\\arm-gcc-49\\arm-none-eabi\\include\\stdint.h"
 441              	 .file 4 "C:/Users/Utente/Desktop/Tesi/Firmware_Software/DAVE project/S2GLP_Pulsed_Doppler/Dave/Generated/CMSIS_DSP/arm_math.h"