   1              	 .syntax unified
   2              	 .cpu cortex-m4
   3              	 .eabi_attribute 27,3
   4              	 .fpu fpv4-sp-d16
   5              	 .eabi_attribute 20,1
   6              	 .eabi_attribute 21,1
   7              	 .eabi_attribute 23,3
   8              	 .eabi_attribute 24,1
   9              	 .eabi_attribute 25,1
  10              	 .eabi_attribute 26,1
  11              	 .eabi_attribute 30,2
  12              	 .eabi_attribute 34,1
  13              	 .eabi_attribute 18,4
  14              	 .thumb
  15              	 .file "arm_fir_decimate_f32.c"
  16              	 .text
  17              	.Ltext0:
  18              	 .cfi_sections .debug_frame
  19              	 .section .text.arm_fir_decimate_f32,"ax",%progbits
  20              	 .align 2
  21              	 .global arm_fir_decimate_f32
  22              	 .thumb
  23              	 .thumb_func
  25              	arm_fir_decimate_f32:
  26              	.LFB135:
  27              	 .file 1 "../Dave/Generated/CMSIS_DSP/FilteringFunctions/arm_fir_decimate_f32.c"
   1:../Dave/Generated/CMSIS_DSP/FilteringFunctions/arm_fir_decimate_f32.c **** /* ----------------------------------------------------------------------
   2:../Dave/Generated/CMSIS_DSP/FilteringFunctions/arm_fir_decimate_f32.c ****  * Project:      CMSIS DSP Library
   3:../Dave/Generated/CMSIS_DSP/FilteringFunctions/arm_fir_decimate_f32.c ****  * Title:        arm_fir_decimate_f32.c
   4:../Dave/Generated/CMSIS_DSP/FilteringFunctions/arm_fir_decimate_f32.c ****  * Description:  FIR decimation for floating-point sequences
   5:../Dave/Generated/CMSIS_DSP/FilteringFunctions/arm_fir_decimate_f32.c ****  *
   6:../Dave/Generated/CMSIS_DSP/FilteringFunctions/arm_fir_decimate_f32.c ****  * $Date:        27. January 2017
   7:../Dave/Generated/CMSIS_DSP/FilteringFunctions/arm_fir_decimate_f32.c ****  * $Revision:    V.1.5.1
   8:../Dave/Generated/CMSIS_DSP/FilteringFunctions/arm_fir_decimate_f32.c ****  *
   9:../Dave/Generated/CMSIS_DSP/FilteringFunctions/arm_fir_decimate_f32.c ****  * Target Processor: Cortex-M cores
  10:../Dave/Generated/CMSIS_DSP/FilteringFunctions/arm_fir_decimate_f32.c ****  * -------------------------------------------------------------------- */
  11:../Dave/Generated/CMSIS_DSP/FilteringFunctions/arm_fir_decimate_f32.c **** /*
  12:../Dave/Generated/CMSIS_DSP/FilteringFunctions/arm_fir_decimate_f32.c ****  * Copyright (C) 2010-2017 ARM Limited or its affiliates. All rights reserved.
  13:../Dave/Generated/CMSIS_DSP/FilteringFunctions/arm_fir_decimate_f32.c ****  *
  14:../Dave/Generated/CMSIS_DSP/FilteringFunctions/arm_fir_decimate_f32.c ****  * SPDX-License-Identifier: Apache-2.0
  15:../Dave/Generated/CMSIS_DSP/FilteringFunctions/arm_fir_decimate_f32.c ****  *
  16:../Dave/Generated/CMSIS_DSP/FilteringFunctions/arm_fir_decimate_f32.c ****  * Licensed under the Apache License, Version 2.0 (the License); you may
  17:../Dave/Generated/CMSIS_DSP/FilteringFunctions/arm_fir_decimate_f32.c ****  * not use this file except in compliance with the License.
  18:../Dave/Generated/CMSIS_DSP/FilteringFunctions/arm_fir_decimate_f32.c ****  * You may obtain a copy of the License at
  19:../Dave/Generated/CMSIS_DSP/FilteringFunctions/arm_fir_decimate_f32.c ****  *
  20:../Dave/Generated/CMSIS_DSP/FilteringFunctions/arm_fir_decimate_f32.c ****  * www.apache.org/licenses/LICENSE-2.0
  21:../Dave/Generated/CMSIS_DSP/FilteringFunctions/arm_fir_decimate_f32.c ****  *
  22:../Dave/Generated/CMSIS_DSP/FilteringFunctions/arm_fir_decimate_f32.c ****  * Unless required by applicable law or agreed to in writing, software
  23:../Dave/Generated/CMSIS_DSP/FilteringFunctions/arm_fir_decimate_f32.c ****  * distributed under the License is distributed on an AS IS BASIS, WITHOUT
  24:../Dave/Generated/CMSIS_DSP/FilteringFunctions/arm_fir_decimate_f32.c ****  * WARRANTIES OR CONDITIONS OF ANY KIND, either express or implied.
  25:../Dave/Generated/CMSIS_DSP/FilteringFunctions/arm_fir_decimate_f32.c ****  * See the License for the specific language governing permissions and
  26:../Dave/Generated/CMSIS_DSP/FilteringFunctions/arm_fir_decimate_f32.c ****  * limitations under the License.
  27:../Dave/Generated/CMSIS_DSP/FilteringFunctions/arm_fir_decimate_f32.c ****  */
  28:../Dave/Generated/CMSIS_DSP/FilteringFunctions/arm_fir_decimate_f32.c **** 
  29:../Dave/Generated/CMSIS_DSP/FilteringFunctions/arm_fir_decimate_f32.c **** #include "CMSIS_DSP/cmsis_dsp.h"
  30:../Dave/Generated/CMSIS_DSP/FilteringFunctions/arm_fir_decimate_f32.c **** 
  31:../Dave/Generated/CMSIS_DSP/FilteringFunctions/arm_fir_decimate_f32.c **** /**
  32:../Dave/Generated/CMSIS_DSP/FilteringFunctions/arm_fir_decimate_f32.c ****  * @ingroup groupFilters
  33:../Dave/Generated/CMSIS_DSP/FilteringFunctions/arm_fir_decimate_f32.c ****  */
  34:../Dave/Generated/CMSIS_DSP/FilteringFunctions/arm_fir_decimate_f32.c **** 
  35:../Dave/Generated/CMSIS_DSP/FilteringFunctions/arm_fir_decimate_f32.c **** /**
  36:../Dave/Generated/CMSIS_DSP/FilteringFunctions/arm_fir_decimate_f32.c ****  * @defgroup FIR_decimate Finite Impulse Response (FIR) Decimator
  37:../Dave/Generated/CMSIS_DSP/FilteringFunctions/arm_fir_decimate_f32.c ****  *
  38:../Dave/Generated/CMSIS_DSP/FilteringFunctions/arm_fir_decimate_f32.c ****  * These functions combine an FIR filter together with a decimator.
  39:../Dave/Generated/CMSIS_DSP/FilteringFunctions/arm_fir_decimate_f32.c ****  * They are used in multirate systems for reducing the sample rate of a signal without introducing 
  40:../Dave/Generated/CMSIS_DSP/FilteringFunctions/arm_fir_decimate_f32.c ****  * Conceptually, the functions are equivalent to the block diagram below:
  41:../Dave/Generated/CMSIS_DSP/FilteringFunctions/arm_fir_decimate_f32.c ****  * \image html FIRDecimator.gif "Components included in the FIR Decimator functions"
  42:../Dave/Generated/CMSIS_DSP/FilteringFunctions/arm_fir_decimate_f32.c ****  * When decimating by a factor of <code>M</code>, the signal should be prefiltered by a lowpass fil
  43:../Dave/Generated/CMSIS_DSP/FilteringFunctions/arm_fir_decimate_f32.c ****  * cutoff frequency of <code>1/M</code> in order to prevent aliasing distortion.
  44:../Dave/Generated/CMSIS_DSP/FilteringFunctions/arm_fir_decimate_f32.c ****  * The user of the function is responsible for providing the filter coefficients.
  45:../Dave/Generated/CMSIS_DSP/FilteringFunctions/arm_fir_decimate_f32.c ****  *
  46:../Dave/Generated/CMSIS_DSP/FilteringFunctions/arm_fir_decimate_f32.c ****  * The FIR decimator functions provided in the CMSIS DSP Library combine the FIR filter and the dec
  47:../Dave/Generated/CMSIS_DSP/FilteringFunctions/arm_fir_decimate_f32.c ****  * Instead of calculating all of the FIR filter outputs and discarding <code>M-1</code> out of ever
  48:../Dave/Generated/CMSIS_DSP/FilteringFunctions/arm_fir_decimate_f32.c ****  * samples output by the decimator are computed.
  49:../Dave/Generated/CMSIS_DSP/FilteringFunctions/arm_fir_decimate_f32.c ****  * The functions operate on blocks of input and output data.
  50:../Dave/Generated/CMSIS_DSP/FilteringFunctions/arm_fir_decimate_f32.c ****  * <code>pSrc</code> points to an array of <code>blockSize</code> input values and
  51:../Dave/Generated/CMSIS_DSP/FilteringFunctions/arm_fir_decimate_f32.c ****  * <code>pDst</code> points to an array of <code>blockSize/M</code> output values.
  52:../Dave/Generated/CMSIS_DSP/FilteringFunctions/arm_fir_decimate_f32.c ****  * In order to have an integer number of output samples <code>blockSize</code>
  53:../Dave/Generated/CMSIS_DSP/FilteringFunctions/arm_fir_decimate_f32.c ****  * must always be a multiple of the decimation factor <code>M</code>.
  54:../Dave/Generated/CMSIS_DSP/FilteringFunctions/arm_fir_decimate_f32.c ****  *
  55:../Dave/Generated/CMSIS_DSP/FilteringFunctions/arm_fir_decimate_f32.c ****  * The library provides separate functions for Q15, Q31 and floating-point data types.
  56:../Dave/Generated/CMSIS_DSP/FilteringFunctions/arm_fir_decimate_f32.c ****  *
  57:../Dave/Generated/CMSIS_DSP/FilteringFunctions/arm_fir_decimate_f32.c ****  * \par Algorithm:
  58:../Dave/Generated/CMSIS_DSP/FilteringFunctions/arm_fir_decimate_f32.c ****  * The FIR portion of the algorithm uses the standard form filter:
  59:../Dave/Generated/CMSIS_DSP/FilteringFunctions/arm_fir_decimate_f32.c ****  * <pre>
  60:../Dave/Generated/CMSIS_DSP/FilteringFunctions/arm_fir_decimate_f32.c ****  *    y[n] = b[0] * x[n] + b[1] * x[n-1] + b[2] * x[n-2] + ...+ b[numTaps-1] * x[n-numTaps+1]
  61:../Dave/Generated/CMSIS_DSP/FilteringFunctions/arm_fir_decimate_f32.c ****  * </pre>
  62:../Dave/Generated/CMSIS_DSP/FilteringFunctions/arm_fir_decimate_f32.c ****  * where, <code>b[n]</code> are the filter coefficients.
  63:../Dave/Generated/CMSIS_DSP/FilteringFunctions/arm_fir_decimate_f32.c ****  * \par
  64:../Dave/Generated/CMSIS_DSP/FilteringFunctions/arm_fir_decimate_f32.c ****  * The <code>pCoeffs</code> points to a coefficient array of size <code>numTaps</code>.
  65:../Dave/Generated/CMSIS_DSP/FilteringFunctions/arm_fir_decimate_f32.c ****  * Coefficients are stored in time reversed order.
  66:../Dave/Generated/CMSIS_DSP/FilteringFunctions/arm_fir_decimate_f32.c ****  * \par
  67:../Dave/Generated/CMSIS_DSP/FilteringFunctions/arm_fir_decimate_f32.c ****  * <pre>
  68:../Dave/Generated/CMSIS_DSP/FilteringFunctions/arm_fir_decimate_f32.c ****  *    {b[numTaps-1], b[numTaps-2], b[N-2], ..., b[1], b[0]}
  69:../Dave/Generated/CMSIS_DSP/FilteringFunctions/arm_fir_decimate_f32.c ****  * </pre>
  70:../Dave/Generated/CMSIS_DSP/FilteringFunctions/arm_fir_decimate_f32.c ****  * \par
  71:../Dave/Generated/CMSIS_DSP/FilteringFunctions/arm_fir_decimate_f32.c ****  * <code>pState</code> points to a state array of size <code>numTaps + blockSize - 1</code>.
  72:../Dave/Generated/CMSIS_DSP/FilteringFunctions/arm_fir_decimate_f32.c ****  * Samples in the state buffer are stored in the order:
  73:../Dave/Generated/CMSIS_DSP/FilteringFunctions/arm_fir_decimate_f32.c ****  * \par
  74:../Dave/Generated/CMSIS_DSP/FilteringFunctions/arm_fir_decimate_f32.c ****  * <pre>
  75:../Dave/Generated/CMSIS_DSP/FilteringFunctions/arm_fir_decimate_f32.c ****  *    {x[n-numTaps+1], x[n-numTaps], x[n-numTaps-1], x[n-numTaps-2]....x[0], x[1], ..., x[blockSize
  76:../Dave/Generated/CMSIS_DSP/FilteringFunctions/arm_fir_decimate_f32.c ****  * </pre>
  77:../Dave/Generated/CMSIS_DSP/FilteringFunctions/arm_fir_decimate_f32.c ****  * The state variables are updated after each block of data is processed, the coefficients are unto
  78:../Dave/Generated/CMSIS_DSP/FilteringFunctions/arm_fir_decimate_f32.c ****  *
  79:../Dave/Generated/CMSIS_DSP/FilteringFunctions/arm_fir_decimate_f32.c ****  * \par Instance Structure
  80:../Dave/Generated/CMSIS_DSP/FilteringFunctions/arm_fir_decimate_f32.c ****  * The coefficients and state variables for a filter are stored together in an instance data struct
  81:../Dave/Generated/CMSIS_DSP/FilteringFunctions/arm_fir_decimate_f32.c ****  * A separate instance structure must be defined for each filter.
  82:../Dave/Generated/CMSIS_DSP/FilteringFunctions/arm_fir_decimate_f32.c ****  * Coefficient arrays may be shared among several instances while state variable array should be al
  83:../Dave/Generated/CMSIS_DSP/FilteringFunctions/arm_fir_decimate_f32.c ****  * There are separate instance structure declarations for each of the 3 supported data types.
  84:../Dave/Generated/CMSIS_DSP/FilteringFunctions/arm_fir_decimate_f32.c ****  *
  85:../Dave/Generated/CMSIS_DSP/FilteringFunctions/arm_fir_decimate_f32.c ****  * \par Initialization Functions
  86:../Dave/Generated/CMSIS_DSP/FilteringFunctions/arm_fir_decimate_f32.c ****  * There is also an associated initialization function for each data type.
  87:../Dave/Generated/CMSIS_DSP/FilteringFunctions/arm_fir_decimate_f32.c ****  * The initialization function performs the following operations:
  88:../Dave/Generated/CMSIS_DSP/FilteringFunctions/arm_fir_decimate_f32.c ****  * - Sets the values of the internal structure fields.
  89:../Dave/Generated/CMSIS_DSP/FilteringFunctions/arm_fir_decimate_f32.c ****  * - Zeros out the values in the state buffer.
  90:../Dave/Generated/CMSIS_DSP/FilteringFunctions/arm_fir_decimate_f32.c ****  * - Checks to make sure that the size of the input is a multiple of the decimation factor.
  91:../Dave/Generated/CMSIS_DSP/FilteringFunctions/arm_fir_decimate_f32.c ****  * To do this manually without calling the init function, assign the follow subfields of the instan
  92:../Dave/Generated/CMSIS_DSP/FilteringFunctions/arm_fir_decimate_f32.c ****  * numTaps, pCoeffs, M (decimation factor), pState. Also set all of the values in pState to zero.
  93:../Dave/Generated/CMSIS_DSP/FilteringFunctions/arm_fir_decimate_f32.c ****  *
  94:../Dave/Generated/CMSIS_DSP/FilteringFunctions/arm_fir_decimate_f32.c ****  * \par
  95:../Dave/Generated/CMSIS_DSP/FilteringFunctions/arm_fir_decimate_f32.c ****  * Use of the initialization function is optional.
  96:../Dave/Generated/CMSIS_DSP/FilteringFunctions/arm_fir_decimate_f32.c ****  * However, if the initialization function is used, then the instance structure cannot be placed in
  97:../Dave/Generated/CMSIS_DSP/FilteringFunctions/arm_fir_decimate_f32.c ****  * To place an instance structure into a const data section, the instance structure must be manuall
  98:../Dave/Generated/CMSIS_DSP/FilteringFunctions/arm_fir_decimate_f32.c ****  * The code below statically initializes each of the 3 different data type filter instance structur
  99:../Dave/Generated/CMSIS_DSP/FilteringFunctions/arm_fir_decimate_f32.c ****  * <pre>
 100:../Dave/Generated/CMSIS_DSP/FilteringFunctions/arm_fir_decimate_f32.c ****  *arm_fir_decimate_instance_f32 S = {M, numTaps, pCoeffs, pState};
 101:../Dave/Generated/CMSIS_DSP/FilteringFunctions/arm_fir_decimate_f32.c ****  *arm_fir_decimate_instance_q31 S = {M, numTaps, pCoeffs, pState};
 102:../Dave/Generated/CMSIS_DSP/FilteringFunctions/arm_fir_decimate_f32.c ****  *arm_fir_decimate_instance_q15 S = {M, numTaps, pCoeffs, pState};
 103:../Dave/Generated/CMSIS_DSP/FilteringFunctions/arm_fir_decimate_f32.c ****  * </pre>
 104:../Dave/Generated/CMSIS_DSP/FilteringFunctions/arm_fir_decimate_f32.c ****  * where <code>M</code> is the decimation factor; <code>numTaps</code> is the number of filter coef
 105:../Dave/Generated/CMSIS_DSP/FilteringFunctions/arm_fir_decimate_f32.c ****  * <code>pCoeffs</code> is the address of the coefficient buffer;
 106:../Dave/Generated/CMSIS_DSP/FilteringFunctions/arm_fir_decimate_f32.c ****  * <code>pState</code> is the address of the state buffer.
 107:../Dave/Generated/CMSIS_DSP/FilteringFunctions/arm_fir_decimate_f32.c ****  * Be sure to set the values in the state buffer to zeros when doing static initialization.
 108:../Dave/Generated/CMSIS_DSP/FilteringFunctions/arm_fir_decimate_f32.c ****  *
 109:../Dave/Generated/CMSIS_DSP/FilteringFunctions/arm_fir_decimate_f32.c ****  * \par Fixed-Point Behavior
 110:../Dave/Generated/CMSIS_DSP/FilteringFunctions/arm_fir_decimate_f32.c ****  * Care must be taken when using the fixed-point versions of the FIR decimate filter functions.
 111:../Dave/Generated/CMSIS_DSP/FilteringFunctions/arm_fir_decimate_f32.c ****  * In particular, the overflow and saturation behavior of the accumulator used in each function mus
 112:../Dave/Generated/CMSIS_DSP/FilteringFunctions/arm_fir_decimate_f32.c ****  * Refer to the function specific documentation below for usage guidelines.
 113:../Dave/Generated/CMSIS_DSP/FilteringFunctions/arm_fir_decimate_f32.c ****  */
 114:../Dave/Generated/CMSIS_DSP/FilteringFunctions/arm_fir_decimate_f32.c **** 
 115:../Dave/Generated/CMSIS_DSP/FilteringFunctions/arm_fir_decimate_f32.c **** /**
 116:../Dave/Generated/CMSIS_DSP/FilteringFunctions/arm_fir_decimate_f32.c ****  * @addtogroup FIR_decimate
 117:../Dave/Generated/CMSIS_DSP/FilteringFunctions/arm_fir_decimate_f32.c ****  * @{
 118:../Dave/Generated/CMSIS_DSP/FilteringFunctions/arm_fir_decimate_f32.c ****  */
 119:../Dave/Generated/CMSIS_DSP/FilteringFunctions/arm_fir_decimate_f32.c **** 
 120:../Dave/Generated/CMSIS_DSP/FilteringFunctions/arm_fir_decimate_f32.c ****   /**
 121:../Dave/Generated/CMSIS_DSP/FilteringFunctions/arm_fir_decimate_f32.c ****    * @brief Processing function for the floating-point FIR decimator.
 122:../Dave/Generated/CMSIS_DSP/FilteringFunctions/arm_fir_decimate_f32.c ****    * @param[in] *S        points to an instance of the floating-point FIR decimator structure.
 123:../Dave/Generated/CMSIS_DSP/FilteringFunctions/arm_fir_decimate_f32.c ****    * @param[in] *pSrc     points to the block of input data.
 124:../Dave/Generated/CMSIS_DSP/FilteringFunctions/arm_fir_decimate_f32.c ****    * @param[out] *pDst    points to the block of output data.
 125:../Dave/Generated/CMSIS_DSP/FilteringFunctions/arm_fir_decimate_f32.c ****    * @param[in] blockSize number of input samples to process per call.
 126:../Dave/Generated/CMSIS_DSP/FilteringFunctions/arm_fir_decimate_f32.c ****    * @return none.
 127:../Dave/Generated/CMSIS_DSP/FilteringFunctions/arm_fir_decimate_f32.c ****    */
 128:../Dave/Generated/CMSIS_DSP/FilteringFunctions/arm_fir_decimate_f32.c **** 
 129:../Dave/Generated/CMSIS_DSP/FilteringFunctions/arm_fir_decimate_f32.c **** void arm_fir_decimate_f32(
 130:../Dave/Generated/CMSIS_DSP/FilteringFunctions/arm_fir_decimate_f32.c ****   const arm_fir_decimate_instance_f32 * S,
 131:../Dave/Generated/CMSIS_DSP/FilteringFunctions/arm_fir_decimate_f32.c ****   float32_t * pSrc,
 132:../Dave/Generated/CMSIS_DSP/FilteringFunctions/arm_fir_decimate_f32.c ****   float32_t * pDst,
 133:../Dave/Generated/CMSIS_DSP/FilteringFunctions/arm_fir_decimate_f32.c ****   uint32_t blockSize)
 134:../Dave/Generated/CMSIS_DSP/FilteringFunctions/arm_fir_decimate_f32.c **** {
  28              	 .loc 1 134 0
  29              	 .cfi_startproc
  30              	 
  31              	 
  32              	.LVL0:
  33 0000 2DE9F04F 	 push {r4,r5,r6,r7,r8,r9,r10,fp,lr}
  34              	.LCFI0:
  35              	 .cfi_def_cfa_offset 36
  36              	 .cfi_offset 4,-36
  37              	 .cfi_offset 5,-32
  38              	 .cfi_offset 6,-28
  39              	 .cfi_offset 7,-24
  40              	 .cfi_offset 8,-20
  41              	 .cfi_offset 9,-16
  42              	 .cfi_offset 10,-12
  43              	 .cfi_offset 11,-8
  44              	 .cfi_offset 14,-4
  45 0004 2DED088B 	 fstmfdd sp!,{d8,d9,d10,d11}
  46              	.LCFI1:
  47              	 .cfi_def_cfa_offset 68
  48              	 .cfi_offset 80,-68
  49              	 .cfi_offset 81,-64
  50              	 .cfi_offset 82,-60
  51              	 .cfi_offset 83,-56
  52              	 .cfi_offset 84,-52
  53              	 .cfi_offset 85,-48
  54              	 .cfi_offset 86,-44
  55              	 .cfi_offset 87,-40
  56 0008 8346     	 mov fp,r0
  57 000a 8DB0     	 sub sp,sp,#52
  58              	.LCFI2:
  59              	 .cfi_def_cfa_offset 120
 135:../Dave/Generated/CMSIS_DSP/FilteringFunctions/arm_fir_decimate_f32.c ****   float32_t *pState = S->pState;                 /* State pointer */
 136:../Dave/Generated/CMSIS_DSP/FilteringFunctions/arm_fir_decimate_f32.c ****   float32_t *pCoeffs = S->pCoeffs;               /* Coefficient pointer */
 137:../Dave/Generated/CMSIS_DSP/FilteringFunctions/arm_fir_decimate_f32.c ****   float32_t *pStateCurnt;                        /* Points to the current sample of the state */
 138:../Dave/Generated/CMSIS_DSP/FilteringFunctions/arm_fir_decimate_f32.c ****   float32_t *px, *pb;                            /* Temporary pointers for state and coefficient bu
 139:../Dave/Generated/CMSIS_DSP/FilteringFunctions/arm_fir_decimate_f32.c ****   float32_t sum0;                                /* Accumulator */
 140:../Dave/Generated/CMSIS_DSP/FilteringFunctions/arm_fir_decimate_f32.c ****   float32_t x0, c0;                              /* Temporary variables to hold state and coefficie
 141:../Dave/Generated/CMSIS_DSP/FilteringFunctions/arm_fir_decimate_f32.c ****   uint32_t numTaps = S->numTaps;                 /* Number of filter coefficients in the filter */
  60              	 .loc 1 141 0
  61 000c 4088     	 ldrh r0,[r0,#2]
  62              	.LVL1:
  63 000e 0990     	 str r0,[sp,#36]
  64 0010 0546     	 mov r5,r0
 135:../Dave/Generated/CMSIS_DSP/FilteringFunctions/arm_fir_decimate_f32.c ****   float32_t *pState = S->pState;                 /* State pointer */
  65              	 .loc 1 135 0
  66 0012 DBF80800 	 ldr r0,[fp,#8]
  67 0016 0790     	 str r0,[sp,#28]
  68              	.LVL2:
  69 0018 0746     	 mov r7,r0
 142:../Dave/Generated/CMSIS_DSP/FilteringFunctions/arm_fir_decimate_f32.c ****   uint32_t i, tapCnt, blkCnt, outBlockSize = blockSize / S->M;  /* Loop counters */
  70              	 .loc 1 142 0
  71 001a 9BF80000 	 ldrb r0,[fp]
  72              	.LVL3:
  73 001e B3FBF0F3 	 udiv r3,r3,r0
  74              	.LVL4:
 143:../Dave/Generated/CMSIS_DSP/FilteringFunctions/arm_fir_decimate_f32.c **** 
 144:../Dave/Generated/CMSIS_DSP/FilteringFunctions/arm_fir_decimate_f32.c **** #if defined (ARM_MATH_DSP)
 145:../Dave/Generated/CMSIS_DSP/FilteringFunctions/arm_fir_decimate_f32.c **** 
 146:../Dave/Generated/CMSIS_DSP/FilteringFunctions/arm_fir_decimate_f32.c ****   uint32_t blkCntN4;
 147:../Dave/Generated/CMSIS_DSP/FilteringFunctions/arm_fir_decimate_f32.c ****   float32_t *px0, *px1, *px2, *px3;
 148:../Dave/Generated/CMSIS_DSP/FilteringFunctions/arm_fir_decimate_f32.c ****   float32_t acc0, acc1, acc2, acc3;
 149:../Dave/Generated/CMSIS_DSP/FilteringFunctions/arm_fir_decimate_f32.c ****   float32_t x1, x2, x3;
 150:../Dave/Generated/CMSIS_DSP/FilteringFunctions/arm_fir_decimate_f32.c **** 
 151:../Dave/Generated/CMSIS_DSP/FilteringFunctions/arm_fir_decimate_f32.c ****   /* Run the below code for Cortex-M4 and Cortex-M3 */
 152:../Dave/Generated/CMSIS_DSP/FilteringFunctions/arm_fir_decimate_f32.c **** 
 153:../Dave/Generated/CMSIS_DSP/FilteringFunctions/arm_fir_decimate_f32.c ****   /* S->pState buffer contains previous frame (numTaps - 1) samples */
 154:../Dave/Generated/CMSIS_DSP/FilteringFunctions/arm_fir_decimate_f32.c ****   /* pStateCurnt points to the location where the new input data should be written */
 155:../Dave/Generated/CMSIS_DSP/FilteringFunctions/arm_fir_decimate_f32.c ****   pStateCurnt = S->pState + (numTaps - 1u);
 156:../Dave/Generated/CMSIS_DSP/FilteringFunctions/arm_fir_decimate_f32.c **** 
 157:../Dave/Generated/CMSIS_DSP/FilteringFunctions/arm_fir_decimate_f32.c ****   /* Total number of output samples to be computed */
 158:../Dave/Generated/CMSIS_DSP/FilteringFunctions/arm_fir_decimate_f32.c ****   blkCnt = outBlockSize / 4;
  75              	 .loc 1 158 0
  76 0022 9C08     	 lsrs r4,r3,#2
 159:../Dave/Generated/CMSIS_DSP/FilteringFunctions/arm_fir_decimate_f32.c ****   blkCntN4 = outBlockSize - (4 * blkCnt);
  77              	 .loc 1 159 0
  78 0024 A3EB8403 	 sub r3,r3,r4,lsl#2
 155:../Dave/Generated/CMSIS_DSP/FilteringFunctions/arm_fir_decimate_f32.c **** 
  79              	 .loc 1 155 0
  80 0028 05F18049 	 add r9,r5,#1073741824
  81 002c 09F1FF39 	 add r9,r9,#-1
  82              	 .loc 1 159 0
  83 0030 0B93     	 str r3,[sp,#44]
 136:../Dave/Generated/CMSIS_DSP/FilteringFunctions/arm_fir_decimate_f32.c ****   float32_t *pStateCurnt;                        /* Points to the current sample of the state */
  84              	 .loc 1 136 0
  85 0032 DBF80430 	 ldr r3,[fp,#4]
 158:../Dave/Generated/CMSIS_DSP/FilteringFunctions/arm_fir_decimate_f32.c ****   blkCntN4 = outBlockSize - (4 * blkCnt);
  86              	 .loc 1 158 0
  87 0036 0A94     	 str r4,[sp,#40]
 134:../Dave/Generated/CMSIS_DSP/FilteringFunctions/arm_fir_decimate_f32.c ****   float32_t *pState = S->pState;                 /* State pointer */
  88              	 .loc 1 134 0
  89 0038 9646     	 mov lr,r2
  90 003a 0892     	 str r2,[sp,#32]
 155:../Dave/Generated/CMSIS_DSP/FilteringFunctions/arm_fir_decimate_f32.c **** 
  91              	 .loc 1 155 0
  92 003c 07EB8909 	 add r9,r7,r9,lsl#2
  93              	 .loc 1 159 0
  94 0040 2646     	 mov r6,r4
 136:../Dave/Generated/CMSIS_DSP/FilteringFunctions/arm_fir_decimate_f32.c ****   float32_t *pStateCurnt;                        /* Points to the current sample of the state */
  95              	 .loc 1 136 0
  96 0042 0193     	 str r3,[sp,#4]
  97              	.LVL5:
 160:../Dave/Generated/CMSIS_DSP/FilteringFunctions/arm_fir_decimate_f32.c **** 
 161:../Dave/Generated/CMSIS_DSP/FilteringFunctions/arm_fir_decimate_f32.c ****   while (blkCnt > 0u)
  98              	 .loc 1 161 0
  99 0044 002C     	 cmp r4,#0
 100 0046 00F0D080 	 beq .L2
 101 004a 2C46     	 mov r4,r5
 102              	.LVL6:
 103 004c AD08     	 lsrs r5,r5,#2
 104              	.LVL7:
 105 004e 0495     	 str r5,[sp,#16]
 106 0050 2D01     	 lsls r5,r5,#4
 107 0052 2B44     	 add r3,r3,r5
 108              	.LVL8:
 109 0054 0693     	 str r3,[sp,#24]
 110 0056 04F00303 	 and r3,r4,#3
 111 005a CDF80CB0 	 str fp,[sp,#12]
 112 005e 0246     	 mov r2,r0
 113              	.LVL9:
 114 0060 0593     	 str r3,[sp,#20]
 115 0062 0EF1100A 	 add r10,lr,#16
 116 0066 0296     	 str r6,[sp,#8]
 117 0068 CDF80090 	 str r9,[sp]
 118 006c AB46     	 mov fp,r5
 119              	.LVL10:
 120 006e 4C46     	 mov r4,r9
 121              	.LVL11:
 122              	.L9:
 162:../Dave/Generated/CMSIS_DSP/FilteringFunctions/arm_fir_decimate_f32.c ****   {
 163:../Dave/Generated/CMSIS_DSP/FilteringFunctions/arm_fir_decimate_f32.c ****     /* Copy 4 * decimation factor number of new input samples into the state buffer */
 164:../Dave/Generated/CMSIS_DSP/FilteringFunctions/arm_fir_decimate_f32.c ****     i = 4 * S->M;
 123              	 .loc 1 164 0
 124 0070 9200     	 lsls r2,r2,#2
 125              	.LVL12:
 126 0072 1346     	 mov r3,r2
 127 0074 0846     	 mov r0,r1
 128              	.LVL13:
 129              	.L3:
 165:../Dave/Generated/CMSIS_DSP/FilteringFunctions/arm_fir_decimate_f32.c **** 
 166:../Dave/Generated/CMSIS_DSP/FilteringFunctions/arm_fir_decimate_f32.c ****     do
 167:../Dave/Generated/CMSIS_DSP/FilteringFunctions/arm_fir_decimate_f32.c ****     {
 168:../Dave/Generated/CMSIS_DSP/FilteringFunctions/arm_fir_decimate_f32.c ****       *pStateCurnt++ = *pSrc++;
 130              	 .loc 1 168 0 discriminator 1
 131 0076 50F8045B 	 ldr r5,[r0],#4
 132              	.LVL14:
 133 007a 44F8045B 	 str r5,[r4],#4
 169:../Dave/Generated/CMSIS_DSP/FilteringFunctions/arm_fir_decimate_f32.c **** 
 170:../Dave/Generated/CMSIS_DSP/FilteringFunctions/arm_fir_decimate_f32.c ****     } while (--i);
 134              	 .loc 1 170 0 discriminator 1
 135 007e 013B     	 subs r3,r3,#1
 136              	.LVL15:
 137 0080 F9D1     	 bne .L3
 171:../Dave/Generated/CMSIS_DSP/FilteringFunctions/arm_fir_decimate_f32.c **** 
 172:../Dave/Generated/CMSIS_DSP/FilteringFunctions/arm_fir_decimate_f32.c ****     /* Set accumulators to zero */
 173:../Dave/Generated/CMSIS_DSP/FilteringFunctions/arm_fir_decimate_f32.c ****     acc0 = 0.0f;
 174:../Dave/Generated/CMSIS_DSP/FilteringFunctions/arm_fir_decimate_f32.c ****     acc1 = 0.0f;
 175:../Dave/Generated/CMSIS_DSP/FilteringFunctions/arm_fir_decimate_f32.c ****     acc2 = 0.0f;
 176:../Dave/Generated/CMSIS_DSP/FilteringFunctions/arm_fir_decimate_f32.c ****     acc3 = 0.0f;
 177:../Dave/Generated/CMSIS_DSP/FilteringFunctions/arm_fir_decimate_f32.c **** 
 178:../Dave/Generated/CMSIS_DSP/FilteringFunctions/arm_fir_decimate_f32.c ****     /* Initialize state pointer for all the samples */
 179:../Dave/Generated/CMSIS_DSP/FilteringFunctions/arm_fir_decimate_f32.c ****     px0 = pState;
 180:../Dave/Generated/CMSIS_DSP/FilteringFunctions/arm_fir_decimate_f32.c ****     px1 = pState + S->M;
 138              	 .loc 1 180 0
 139 0082 039B     	 ldr r3,[sp,#12]
 140              	.LVL16:
 181:../Dave/Generated/CMSIS_DSP/FilteringFunctions/arm_fir_decimate_f32.c ****     px2 = pState + 2 * S->M;
 182:../Dave/Generated/CMSIS_DSP/FilteringFunctions/arm_fir_decimate_f32.c ****     px3 = pState + 3 * S->M;
 183:../Dave/Generated/CMSIS_DSP/FilteringFunctions/arm_fir_decimate_f32.c **** 
 184:../Dave/Generated/CMSIS_DSP/FilteringFunctions/arm_fir_decimate_f32.c ****     /* Initialize coeff pointer */
 185:../Dave/Generated/CMSIS_DSP/FilteringFunctions/arm_fir_decimate_f32.c ****     pb = pCoeffs;
 186:../Dave/Generated/CMSIS_DSP/FilteringFunctions/arm_fir_decimate_f32.c **** 
 187:../Dave/Generated/CMSIS_DSP/FilteringFunctions/arm_fir_decimate_f32.c ****     /* Loop unrolling.  Process 4 taps at a time. */
 188:../Dave/Generated/CMSIS_DSP/FilteringFunctions/arm_fir_decimate_f32.c ****     tapCnt = numTaps >> 2;
 189:../Dave/Generated/CMSIS_DSP/FilteringFunctions/arm_fir_decimate_f32.c **** 
 190:../Dave/Generated/CMSIS_DSP/FilteringFunctions/arm_fir_decimate_f32.c ****     /* Loop over the number of taps.  Unroll by a factor of 4.
 191:../Dave/Generated/CMSIS_DSP/FilteringFunctions/arm_fir_decimate_f32.c ****      ** Repeat until we've computed numTaps-4 coefficients. */
 192:../Dave/Generated/CMSIS_DSP/FilteringFunctions/arm_fir_decimate_f32.c **** 
 193:../Dave/Generated/CMSIS_DSP/FilteringFunctions/arm_fir_decimate_f32.c ****     while (tapCnt > 0u)
 141              	 .loc 1 193 0
 142 0084 DFEDA37A 	 flds s15,.L48
 180:../Dave/Generated/CMSIS_DSP/FilteringFunctions/arm_fir_decimate_f32.c ****     px2 = pState + 2 * S->M;
 143              	 .loc 1 180 0
 144 0088 93F80080 	 ldrb r8,[r3]
 145 008c 009B     	 ldr r3,[sp]
 146              	 .loc 1 193 0
 147 008e 049E     	 ldr r6,[sp,#16]
 180:../Dave/Generated/CMSIS_DSP/FilteringFunctions/arm_fir_decimate_f32.c ****     px2 = pState + 2 * S->M;
 148              	 .loc 1 180 0
 149 0090 4FEA8808 	 lsl r8,r8,#2
 150 0094 9200     	 lsls r2,r2,#2
 151 0096 07EB080E 	 add lr,r7,r8
 181:../Dave/Generated/CMSIS_DSP/FilteringFunctions/arm_fir_decimate_f32.c ****     px2 = pState + 2 * S->M;
 152              	 .loc 1 181 0
 153 009a 0EEB080C 	 add ip,lr,r8
 154 009e 1344     	 add r3,r3,r2
 155 00a0 0093     	 str r3,[sp]
 156 00a2 1144     	 add r1,r1,r2
 157              	.LVL17:
 182:../Dave/Generated/CMSIS_DSP/FilteringFunctions/arm_fir_decimate_f32.c **** 
 158              	 .loc 1 182 0
 159 00a4 0CEB0809 	 add r9,ip,r8
 160              	.LVL18:
 161              	 .loc 1 193 0
 162 00a8 B0EE677A 	 fcpys s14,s15
 163 00ac F0EE676A 	 fcpys s13,s15
 164 00b0 B0EE676A 	 fcpys s12,s15
 165 00b4 002E     	 cmp r6,#0
 166 00b6 00F02A81 	 beq .L23
 167 00ba 019B     	 ldr r3,[sp,#4]
 168 00bc 07F11004 	 add r4,r7,#16
 169 00c0 03F11005 	 add r5,r3,#16
 170 00c4 0EF11000 	 add r0,lr,#16
 171              	.LVL19:
 172 00c8 0CF11002 	 add r2,ip,#16
 173 00cc 09F11003 	 add r3,r9,#16
 174              	.LVL20:
 175              	.L5:
 194:../Dave/Generated/CMSIS_DSP/FilteringFunctions/arm_fir_decimate_f32.c ****     {
 195:../Dave/Generated/CMSIS_DSP/FilteringFunctions/arm_fir_decimate_f32.c ****       /* Read the b[numTaps-1] coefficient */
 196:../Dave/Generated/CMSIS_DSP/FilteringFunctions/arm_fir_decimate_f32.c ****       c0 = *(pb++);
 176              	 .loc 1 196 0
 177 00d0 15ED044A 	 flds s8,[r5,#-16]
 178              	.LVL21:
 197:../Dave/Generated/CMSIS_DSP/FilteringFunctions/arm_fir_decimate_f32.c **** 
 198:../Dave/Generated/CMSIS_DSP/FilteringFunctions/arm_fir_decimate_f32.c ****       /* Read x[n-numTaps-1] sample for acc0 */
 199:../Dave/Generated/CMSIS_DSP/FilteringFunctions/arm_fir_decimate_f32.c ****       x0 = *(px0++);
 200:../Dave/Generated/CMSIS_DSP/FilteringFunctions/arm_fir_decimate_f32.c ****       /* Read x[n-numTaps-1] sample for acc1 */
 201:../Dave/Generated/CMSIS_DSP/FilteringFunctions/arm_fir_decimate_f32.c ****       x1 = *(px1++);
 202:../Dave/Generated/CMSIS_DSP/FilteringFunctions/arm_fir_decimate_f32.c ****       /* Read x[n-numTaps-1] sample for acc2 */
 203:../Dave/Generated/CMSIS_DSP/FilteringFunctions/arm_fir_decimate_f32.c ****       x2 = *(px2++);
 204:../Dave/Generated/CMSIS_DSP/FilteringFunctions/arm_fir_decimate_f32.c ****       /* Read x[n-numTaps-1] sample for acc3 */
 205:../Dave/Generated/CMSIS_DSP/FilteringFunctions/arm_fir_decimate_f32.c ****       x3 = *(px3++);
 206:../Dave/Generated/CMSIS_DSP/FilteringFunctions/arm_fir_decimate_f32.c **** 
 207:../Dave/Generated/CMSIS_DSP/FilteringFunctions/arm_fir_decimate_f32.c ****       /* Perform the multiply-accumulate */
 208:../Dave/Generated/CMSIS_DSP/FilteringFunctions/arm_fir_decimate_f32.c ****       acc0 += x0 * c0;
 179              	 .loc 1 208 0
 180 00d4 54ED04BA 	 flds s23,[r4,#-16]
 209:../Dave/Generated/CMSIS_DSP/FilteringFunctions/arm_fir_decimate_f32.c ****       acc1 += x1 * c0;
 181              	 .loc 1 209 0
 182 00d8 10ED04BA 	 flds s22,[r0,#-16]
 210:../Dave/Generated/CMSIS_DSP/FilteringFunctions/arm_fir_decimate_f32.c ****       acc2 += x2 * c0;
 183              	 .loc 1 210 0
 184 00dc 52ED04AA 	 flds s21,[r2,#-16]
 211:../Dave/Generated/CMSIS_DSP/FilteringFunctions/arm_fir_decimate_f32.c ****       acc3 += x3 * c0;
 185              	 .loc 1 211 0
 186 00e0 13ED04AA 	 flds s20,[r3,#-16]
 212:../Dave/Generated/CMSIS_DSP/FilteringFunctions/arm_fir_decimate_f32.c **** 
 213:../Dave/Generated/CMSIS_DSP/FilteringFunctions/arm_fir_decimate_f32.c ****       /* Read the b[numTaps-2] coefficient */
 214:../Dave/Generated/CMSIS_DSP/FilteringFunctions/arm_fir_decimate_f32.c ****       c0 = *(pb++);
 187              	 .loc 1 214 0
 188 00e4 55ED034A 	 flds s9,[r5,#-12]
 215:../Dave/Generated/CMSIS_DSP/FilteringFunctions/arm_fir_decimate_f32.c **** 
 216:../Dave/Generated/CMSIS_DSP/FilteringFunctions/arm_fir_decimate_f32.c ****       /* Read x[n-numTaps-2] sample for acc0, acc1, acc2, acc3 */
 217:../Dave/Generated/CMSIS_DSP/FilteringFunctions/arm_fir_decimate_f32.c ****       x0 = *(px0++);
 218:../Dave/Generated/CMSIS_DSP/FilteringFunctions/arm_fir_decimate_f32.c ****       x1 = *(px1++);
 219:../Dave/Generated/CMSIS_DSP/FilteringFunctions/arm_fir_decimate_f32.c ****       x2 = *(px2++);
 220:../Dave/Generated/CMSIS_DSP/FilteringFunctions/arm_fir_decimate_f32.c ****       x3 = *(px3++);
 221:../Dave/Generated/CMSIS_DSP/FilteringFunctions/arm_fir_decimate_f32.c **** 
 222:../Dave/Generated/CMSIS_DSP/FilteringFunctions/arm_fir_decimate_f32.c ****       /* Perform the multiply-accumulate */
 223:../Dave/Generated/CMSIS_DSP/FilteringFunctions/arm_fir_decimate_f32.c ****       acc0 += x0 * c0;
 189              	 .loc 1 223 0
 190 00e8 54ED039A 	 flds s19,[r4,#-12]
 224:../Dave/Generated/CMSIS_DSP/FilteringFunctions/arm_fir_decimate_f32.c ****       acc1 += x1 * c0;
 191              	 .loc 1 224 0
 192 00ec 10ED039A 	 flds s18,[r0,#-12]
 225:../Dave/Generated/CMSIS_DSP/FilteringFunctions/arm_fir_decimate_f32.c ****       acc2 += x2 * c0;
 193              	 .loc 1 225 0
 194 00f0 52ED038A 	 flds s17,[r2,#-12]
 226:../Dave/Generated/CMSIS_DSP/FilteringFunctions/arm_fir_decimate_f32.c ****       acc3 += x3 * c0;
 195              	 .loc 1 226 0
 196 00f4 13ED038A 	 flds s16,[r3,#-12]
 227:../Dave/Generated/CMSIS_DSP/FilteringFunctions/arm_fir_decimate_f32.c **** 
 228:../Dave/Generated/CMSIS_DSP/FilteringFunctions/arm_fir_decimate_f32.c ****       /* Read the b[numTaps-3] coefficient */
 229:../Dave/Generated/CMSIS_DSP/FilteringFunctions/arm_fir_decimate_f32.c ****       c0 = *(pb++);
 197              	 .loc 1 229 0
 198 00f8 15ED025A 	 flds s10,[r5,#-8]
 230:../Dave/Generated/CMSIS_DSP/FilteringFunctions/arm_fir_decimate_f32.c **** 
 231:../Dave/Generated/CMSIS_DSP/FilteringFunctions/arm_fir_decimate_f32.c ****       /* Read x[n-numTaps-3] sample acc0, acc1, acc2, acc3 */
 232:../Dave/Generated/CMSIS_DSP/FilteringFunctions/arm_fir_decimate_f32.c ****       x0 = *(px0++);
 233:../Dave/Generated/CMSIS_DSP/FilteringFunctions/arm_fir_decimate_f32.c ****       x1 = *(px1++);
 234:../Dave/Generated/CMSIS_DSP/FilteringFunctions/arm_fir_decimate_f32.c ****       x2 = *(px2++);
 235:../Dave/Generated/CMSIS_DSP/FilteringFunctions/arm_fir_decimate_f32.c ****       x3 = *(px3++);
 236:../Dave/Generated/CMSIS_DSP/FilteringFunctions/arm_fir_decimate_f32.c **** 
 237:../Dave/Generated/CMSIS_DSP/FilteringFunctions/arm_fir_decimate_f32.c ****       /* Perform the multiply-accumulate */
 238:../Dave/Generated/CMSIS_DSP/FilteringFunctions/arm_fir_decimate_f32.c ****       acc0 += x0 * c0;
 199              	 .loc 1 238 0
 200 00fc 14ED020A 	 flds s0,[r4,#-8]
 239:../Dave/Generated/CMSIS_DSP/FilteringFunctions/arm_fir_decimate_f32.c ****       acc1 += x1 * c0;
 201              	 .loc 1 239 0
 202 0100 50ED020A 	 flds s1,[r0,#-8]
 240:../Dave/Generated/CMSIS_DSP/FilteringFunctions/arm_fir_decimate_f32.c ****       acc2 += x2 * c0;
 203              	 .loc 1 240 0
 204 0104 12ED021A 	 flds s2,[r2,#-8]
 241:../Dave/Generated/CMSIS_DSP/FilteringFunctions/arm_fir_decimate_f32.c ****       acc3 += x3 * c0;
 205              	 .loc 1 241 0
 206 0108 53ED021A 	 flds s3,[r3,#-8]
 242:../Dave/Generated/CMSIS_DSP/FilteringFunctions/arm_fir_decimate_f32.c **** 
 243:../Dave/Generated/CMSIS_DSP/FilteringFunctions/arm_fir_decimate_f32.c ****       /* Read the b[numTaps-4] coefficient */
 244:../Dave/Generated/CMSIS_DSP/FilteringFunctions/arm_fir_decimate_f32.c ****       c0 = *(pb++);
 207              	 .loc 1 244 0
 208 010c 55ED015A 	 flds s11,[r5,#-4]
 245:../Dave/Generated/CMSIS_DSP/FilteringFunctions/arm_fir_decimate_f32.c **** 
 246:../Dave/Generated/CMSIS_DSP/FilteringFunctions/arm_fir_decimate_f32.c ****       /* Read x[n-numTaps-4] sample acc0, acc1, acc2, acc3 */
 247:../Dave/Generated/CMSIS_DSP/FilteringFunctions/arm_fir_decimate_f32.c ****       x0 = *(px0++);
 248:../Dave/Generated/CMSIS_DSP/FilteringFunctions/arm_fir_decimate_f32.c ****       x1 = *(px1++);
 249:../Dave/Generated/CMSIS_DSP/FilteringFunctions/arm_fir_decimate_f32.c ****       x2 = *(px2++);
 250:../Dave/Generated/CMSIS_DSP/FilteringFunctions/arm_fir_decimate_f32.c ****       x3 = *(px3++);
 251:../Dave/Generated/CMSIS_DSP/FilteringFunctions/arm_fir_decimate_f32.c **** 
 252:../Dave/Generated/CMSIS_DSP/FilteringFunctions/arm_fir_decimate_f32.c ****       /* Perform the multiply-accumulate */
 253:../Dave/Generated/CMSIS_DSP/FilteringFunctions/arm_fir_decimate_f32.c ****       acc0 += x0 * c0;
 209              	 .loc 1 253 0
 210 0110 14ED012A 	 flds s4,[r4,#-4]
 254:../Dave/Generated/CMSIS_DSP/FilteringFunctions/arm_fir_decimate_f32.c ****       acc1 += x1 * c0;
 211              	 .loc 1 254 0
 212 0114 50ED012A 	 flds s5,[r0,#-4]
 255:../Dave/Generated/CMSIS_DSP/FilteringFunctions/arm_fir_decimate_f32.c ****       acc2 += x2 * c0;
 213              	 .loc 1 255 0
 214 0118 12ED013A 	 flds s6,[r2,#-4]
 256:../Dave/Generated/CMSIS_DSP/FilteringFunctions/arm_fir_decimate_f32.c ****       acc3 += x3 * c0;
 215              	 .loc 1 256 0
 216 011c 53ED013A 	 flds s7,[r3,#-4]
 208:../Dave/Generated/CMSIS_DSP/FilteringFunctions/arm_fir_decimate_f32.c ****       acc1 += x1 * c0;
 217              	 .loc 1 208 0
 218 0120 ABEE846A 	 vfma.f32 s12,s23,s8
 219              	.LVL22:
 193:../Dave/Generated/CMSIS_DSP/FilteringFunctions/arm_fir_decimate_f32.c ****     {
 220              	 .loc 1 193 0
 221 0124 013E     	 subs r6,r6,#1
 222              	.LVL23:
 223 0126 05F11005 	 add r5,r5,#16
 224              	.LVL24:
 209:../Dave/Generated/CMSIS_DSP/FilteringFunctions/arm_fir_decimate_f32.c ****       acc2 += x2 * c0;
 225              	 .loc 1 209 0
 226 012a EBEE046A 	 vfma.f32 s13,s22,s8
 227              	.LVL25:
 228 012e 04F11004 	 add r4,r4,#16
 229              	.LVL26:
 230 0132 00F11000 	 add r0,r0,#16
 231              	.LVL27:
 210:../Dave/Generated/CMSIS_DSP/FilteringFunctions/arm_fir_decimate_f32.c ****       acc3 += x3 * c0;
 232              	 .loc 1 210 0
 233 0136 AAEE847A 	 vfma.f32 s14,s21,s8
 234              	.LVL28:
 235 013a 02F11002 	 add r2,r2,#16
 236              	.LVL29:
 237 013e 03F11003 	 add r3,r3,#16
 238              	.LVL30:
 211:../Dave/Generated/CMSIS_DSP/FilteringFunctions/arm_fir_decimate_f32.c **** 
 239              	 .loc 1 211 0
 240 0142 EAEE047A 	 vfma.f32 s15,s20,s8
 241              	.LVL31:
 223:../Dave/Generated/CMSIS_DSP/FilteringFunctions/arm_fir_decimate_f32.c ****       acc1 += x1 * c0;
 242              	 .loc 1 223 0
 243 0146 A9EEA46A 	 vfma.f32 s12,s19,s9
 244              	.LVL32:
 224:../Dave/Generated/CMSIS_DSP/FilteringFunctions/arm_fir_decimate_f32.c ****       acc2 += x2 * c0;
 245              	 .loc 1 224 0
 246 014a E9EE246A 	 vfma.f32 s13,s18,s9
 247              	.LVL33:
 225:../Dave/Generated/CMSIS_DSP/FilteringFunctions/arm_fir_decimate_f32.c ****       acc3 += x3 * c0;
 248              	 .loc 1 225 0
 249 014e A8EEA47A 	 vfma.f32 s14,s17,s9
 250              	.LVL34:
 226:../Dave/Generated/CMSIS_DSP/FilteringFunctions/arm_fir_decimate_f32.c **** 
 251              	 .loc 1 226 0
 252 0152 E8EE247A 	 vfma.f32 s15,s16,s9
 253              	.LVL35:
 238:../Dave/Generated/CMSIS_DSP/FilteringFunctions/arm_fir_decimate_f32.c ****       acc1 += x1 * c0;
 254              	 .loc 1 238 0
 255 0156 A0EE056A 	 vfma.f32 s12,s0,s10
 256              	.LVL36:
 239:../Dave/Generated/CMSIS_DSP/FilteringFunctions/arm_fir_decimate_f32.c ****       acc2 += x2 * c0;
 257              	 .loc 1 239 0
 258 015a E0EE856A 	 vfma.f32 s13,s1,s10
 259              	.LVL37:
 240:../Dave/Generated/CMSIS_DSP/FilteringFunctions/arm_fir_decimate_f32.c ****       acc3 += x3 * c0;
 260              	 .loc 1 240 0
 261 015e A1EE057A 	 vfma.f32 s14,s2,s10
 262              	.LVL38:
 241:../Dave/Generated/CMSIS_DSP/FilteringFunctions/arm_fir_decimate_f32.c **** 
 263              	 .loc 1 241 0
 264 0162 E1EE857A 	 vfma.f32 s15,s3,s10
 265              	.LVL39:
 253:../Dave/Generated/CMSIS_DSP/FilteringFunctions/arm_fir_decimate_f32.c ****       acc1 += x1 * c0;
 266              	 .loc 1 253 0
 267 0166 A2EE256A 	 vfma.f32 s12,s4,s11
 268              	.LVL40:
 254:../Dave/Generated/CMSIS_DSP/FilteringFunctions/arm_fir_decimate_f32.c ****       acc2 += x2 * c0;
 269              	 .loc 1 254 0
 270 016a E2EEA56A 	 vfma.f32 s13,s5,s11
 271              	.LVL41:
 255:../Dave/Generated/CMSIS_DSP/FilteringFunctions/arm_fir_decimate_f32.c ****       acc3 += x3 * c0;
 272              	 .loc 1 255 0
 273 016e A3EE257A 	 vfma.f32 s14,s6,s11
 274              	.LVL42:
 275              	 .loc 1 256 0
 276 0172 E3EEA57A 	 vfma.f32 s15,s7,s11
 277              	.LVL43:
 193:../Dave/Generated/CMSIS_DSP/FilteringFunctions/arm_fir_decimate_f32.c ****     {
 278              	 .loc 1 193 0
 279 0176 ABD1     	 bne .L5
 244:../Dave/Generated/CMSIS_DSP/FilteringFunctions/arm_fir_decimate_f32.c **** 
 280              	 .loc 1 244 0
 281 0178 069A     	 ldr r2,[sp,#24]
 282 017a 5F44     	 add r7,r7,fp
 283              	.LVL44:
 284 017c DE44     	 add lr,lr,fp
 285 017e DC44     	 add ip,ip,fp
 286 0180 09EB0B00 	 add r0,r9,fp
 287              	.LVL45:
 288              	.L4:
 257:../Dave/Generated/CMSIS_DSP/FilteringFunctions/arm_fir_decimate_f32.c **** 
 258:../Dave/Generated/CMSIS_DSP/FilteringFunctions/arm_fir_decimate_f32.c ****       /* Decrement the loop counter */
 259:../Dave/Generated/CMSIS_DSP/FilteringFunctions/arm_fir_decimate_f32.c ****       tapCnt--;
 260:../Dave/Generated/CMSIS_DSP/FilteringFunctions/arm_fir_decimate_f32.c ****     }
 261:../Dave/Generated/CMSIS_DSP/FilteringFunctions/arm_fir_decimate_f32.c **** 
 262:../Dave/Generated/CMSIS_DSP/FilteringFunctions/arm_fir_decimate_f32.c ****     /* If the filter length is not a multiple of 4, compute the remaining filter taps */
 263:../Dave/Generated/CMSIS_DSP/FilteringFunctions/arm_fir_decimate_f32.c ****     tapCnt = numTaps % 0x4u;
 264:../Dave/Generated/CMSIS_DSP/FilteringFunctions/arm_fir_decimate_f32.c **** 
 265:../Dave/Generated/CMSIS_DSP/FilteringFunctions/arm_fir_decimate_f32.c ****     while (tapCnt > 0u)
 289              	 .loc 1 265 0
 290 0184 059B     	 ldr r3,[sp,#20]
 291 0186 9BB1     	 cbz r3,.L6
 292              	.LVL46:
 293              	.L7:
 266:../Dave/Generated/CMSIS_DSP/FilteringFunctions/arm_fir_decimate_f32.c ****     {
 267:../Dave/Generated/CMSIS_DSP/FilteringFunctions/arm_fir_decimate_f32.c ****       /* Read coefficients */
 268:../Dave/Generated/CMSIS_DSP/FilteringFunctions/arm_fir_decimate_f32.c ****       c0 = *(pb++);
 294              	 .loc 1 268 0
 295 0188 F2EC015A 	 fldmias r2!,{s11}
 296              	.LVL47:
 269:../Dave/Generated/CMSIS_DSP/FilteringFunctions/arm_fir_decimate_f32.c **** 
 270:../Dave/Generated/CMSIS_DSP/FilteringFunctions/arm_fir_decimate_f32.c ****       /* Fetch  state variables for acc0, acc1, acc2, acc3 */
 271:../Dave/Generated/CMSIS_DSP/FilteringFunctions/arm_fir_decimate_f32.c ****       x0 = *(px0++);
 272:../Dave/Generated/CMSIS_DSP/FilteringFunctions/arm_fir_decimate_f32.c ****       x1 = *(px1++);
 273:../Dave/Generated/CMSIS_DSP/FilteringFunctions/arm_fir_decimate_f32.c ****       x2 = *(px2++);
 274:../Dave/Generated/CMSIS_DSP/FilteringFunctions/arm_fir_decimate_f32.c ****       x3 = *(px3++);
 275:../Dave/Generated/CMSIS_DSP/FilteringFunctions/arm_fir_decimate_f32.c **** 
 276:../Dave/Generated/CMSIS_DSP/FilteringFunctions/arm_fir_decimate_f32.c ****       /* Perform the multiply-accumulate */
 277:../Dave/Generated/CMSIS_DSP/FilteringFunctions/arm_fir_decimate_f32.c ****       acc0 += x0 * c0;
 297              	 .loc 1 277 0
 298 018c F7EC013A 	 fldmias r7!,{s7}
 299              	.LVL48:
 278:../Dave/Generated/CMSIS_DSP/FilteringFunctions/arm_fir_decimate_f32.c ****       acc1 += x1 * c0;
 300              	 .loc 1 278 0
 301 0190 BEEC014A 	 fldmias lr!,{s8}
 302              	.LVL49:
 279:../Dave/Generated/CMSIS_DSP/FilteringFunctions/arm_fir_decimate_f32.c ****       acc2 += x2 * c0;
 303              	 .loc 1 279 0
 304 0194 FCEC014A 	 fldmias ip!,{s9}
 305              	.LVL50:
 280:../Dave/Generated/CMSIS_DSP/FilteringFunctions/arm_fir_decimate_f32.c ****       acc3 += x3 * c0;
 306              	 .loc 1 280 0
 307 0198 B0EC015A 	 fldmias r0!,{s10}
 308              	.LVL51:
 265:../Dave/Generated/CMSIS_DSP/FilteringFunctions/arm_fir_decimate_f32.c ****     {
 309              	 .loc 1 265 0
 310 019c 013B     	 subs r3,r3,#1
 311              	.LVL52:
 277:../Dave/Generated/CMSIS_DSP/FilteringFunctions/arm_fir_decimate_f32.c ****       acc1 += x1 * c0;
 312              	 .loc 1 277 0
 313 019e A3EEA56A 	 vfma.f32 s12,s7,s11
 314              	.LVL53:
 278:../Dave/Generated/CMSIS_DSP/FilteringFunctions/arm_fir_decimate_f32.c ****       acc2 += x2 * c0;
 315              	 .loc 1 278 0
 316 01a2 E4EE256A 	 vfma.f32 s13,s8,s11
 317              	.LVL54:
 279:../Dave/Generated/CMSIS_DSP/FilteringFunctions/arm_fir_decimate_f32.c ****       acc3 += x3 * c0;
 318              	 .loc 1 279 0
 319 01a6 A4EEA57A 	 vfma.f32 s14,s9,s11
 320              	.LVL55:
 321              	 .loc 1 280 0
 322 01aa E5EE257A 	 vfma.f32 s15,s10,s11
 323              	.LVL56:
 265:../Dave/Generated/CMSIS_DSP/FilteringFunctions/arm_fir_decimate_f32.c ****     {
 324              	 .loc 1 265 0
 325 01ae EBD1     	 bne .L7
 326              	.LVL57:
 327              	.L6:
 161:../Dave/Generated/CMSIS_DSP/FilteringFunctions/arm_fir_decimate_f32.c ****   {
 328              	 .loc 1 161 0
 329 01b0 029B     	 ldr r3,[sp,#8]
 281:../Dave/Generated/CMSIS_DSP/FilteringFunctions/arm_fir_decimate_f32.c **** 
 282:../Dave/Generated/CMSIS_DSP/FilteringFunctions/arm_fir_decimate_f32.c ****       /* Decrement the loop counter */
 283:../Dave/Generated/CMSIS_DSP/FilteringFunctions/arm_fir_decimate_f32.c ****       tapCnt--;
 284:../Dave/Generated/CMSIS_DSP/FilteringFunctions/arm_fir_decimate_f32.c ****     }
 285:../Dave/Generated/CMSIS_DSP/FilteringFunctions/arm_fir_decimate_f32.c **** 
 286:../Dave/Generated/CMSIS_DSP/FilteringFunctions/arm_fir_decimate_f32.c ****     /* Advance the state pointer by the decimation factor
 287:../Dave/Generated/CMSIS_DSP/FilteringFunctions/arm_fir_decimate_f32.c ****      * to process the next group of decimation factor number samples */
 288:../Dave/Generated/CMSIS_DSP/FilteringFunctions/arm_fir_decimate_f32.c ****     pState = pState + 4 * S->M;
 289:../Dave/Generated/CMSIS_DSP/FilteringFunctions/arm_fir_decimate_f32.c **** 
 290:../Dave/Generated/CMSIS_DSP/FilteringFunctions/arm_fir_decimate_f32.c ****     /* The result is in the accumulator, store in the destination buffer. */
 291:../Dave/Generated/CMSIS_DSP/FilteringFunctions/arm_fir_decimate_f32.c ****     *pDst++ = acc0;
 330              	 .loc 1 291 0
 331 01b2 0AED046A 	 fsts s12,[r10,#-16]
 161:../Dave/Generated/CMSIS_DSP/FilteringFunctions/arm_fir_decimate_f32.c ****   {
 332              	 .loc 1 161 0
 333 01b6 013B     	 subs r3,r3,#1
 292:../Dave/Generated/CMSIS_DSP/FilteringFunctions/arm_fir_decimate_f32.c ****     *pDst++ = acc1;
 334              	 .loc 1 292 0
 335 01b8 4AED036A 	 fsts s13,[r10,#-12]
 293:../Dave/Generated/CMSIS_DSP/FilteringFunctions/arm_fir_decimate_f32.c ****     *pDst++ = acc2;
 336              	 .loc 1 293 0
 337 01bc 0AED027A 	 fsts s14,[r10,#-8]
 294:../Dave/Generated/CMSIS_DSP/FilteringFunctions/arm_fir_decimate_f32.c ****     *pDst++ = acc3;
 338              	 .loc 1 294 0
 339 01c0 4AED017A 	 fsts s15,[r10,#-4]
 288:../Dave/Generated/CMSIS_DSP/FilteringFunctions/arm_fir_decimate_f32.c **** 
 340              	 .loc 1 288 0
 341 01c4 09EB0807 	 add r7,r9,r8
 342              	.LVL58:
 343 01c8 0AF1100A 	 add r10,r10,#16
 344              	.LVL59:
 161:../Dave/Generated/CMSIS_DSP/FilteringFunctions/arm_fir_decimate_f32.c ****   {
 345              	 .loc 1 161 0
 346 01cc 0293     	 str r3,[sp,#8]
 347 01ce 03D0     	 beq .L8
 348 01d0 039B     	 ldr r3,[sp,#12]
 349              	.LVL60:
 350 01d2 009C     	 ldr r4,[sp]
 351 01d4 1A78     	 ldrb r2,[r3]
 352              	.LVL61:
 353 01d6 4BE7     	 b .L9
 354              	.LVL62:
 355              	.L8:
 356 01d8 089B     	 ldr r3,[sp,#32]
 357              	.LVL63:
 358 01da 0A9A     	 ldr r2,[sp,#40]
 359              	.LVL64:
 360 01dc DDF80090 	 ldr r9,[sp]
 361 01e0 DDF80CB0 	 ldr fp,[sp,#12]
 362 01e4 03EB0213 	 add r3,r3,r2,lsl#4
 363 01e8 0893     	 str r3,[sp,#32]
 364              	.LVL65:
 365              	.L2:
 295:../Dave/Generated/CMSIS_DSP/FilteringFunctions/arm_fir_decimate_f32.c **** 
 296:../Dave/Generated/CMSIS_DSP/FilteringFunctions/arm_fir_decimate_f32.c ****     /* Decrement the loop counter */
 297:../Dave/Generated/CMSIS_DSP/FilteringFunctions/arm_fir_decimate_f32.c ****     blkCnt--;
 298:../Dave/Generated/CMSIS_DSP/FilteringFunctions/arm_fir_decimate_f32.c ****   }
 299:../Dave/Generated/CMSIS_DSP/FilteringFunctions/arm_fir_decimate_f32.c **** 
 300:../Dave/Generated/CMSIS_DSP/FilteringFunctions/arm_fir_decimate_f32.c ****   while (blkCntN4 > 0u)
 366              	 .loc 1 300 0
 367 01ea 0B9B     	 ldr r3,[sp,#44]
 368 01ec 002B     	 cmp r3,#0
 369 01ee 57D0     	 beq .L10
 370 01f0 099A     	 ldr r2,[sp,#36]
 371 01f2 0198     	 ldr r0,[sp,#4]
 372 01f4 DDF820A0 	 ldr r10,[sp,#32]
 373 01f8 9508     	 lsrs r5,r2,#2
 374 01fa 4FEA051E 	 lsl lr,r5,#4
 375 01fe 00EB0E0C 	 add ip,r0,lr
 376 0202 02F00306 	 and r6,r2,#3
 377 0206 9846     	 mov r8,r3
 378              	.LVL66:
 379              	.L16:
 301:../Dave/Generated/CMSIS_DSP/FilteringFunctions/arm_fir_decimate_f32.c ****   {
 302:../Dave/Generated/CMSIS_DSP/FilteringFunctions/arm_fir_decimate_f32.c ****     /* Copy decimation factor number of new input samples into the state buffer */
 303:../Dave/Generated/CMSIS_DSP/FilteringFunctions/arm_fir_decimate_f32.c ****     i = S->M;
 380              	 .loc 1 303 0
 381 0208 9BF80040 	 ldrb r4,[fp]
 382 020c 4846     	 mov r0,r9
 383 020e 2346     	 mov r3,r4
 384              	.LVL67:
 385 0210 0A46     	 mov r2,r1
 386              	.LVL68:
 387              	.L11:
 304:../Dave/Generated/CMSIS_DSP/FilteringFunctions/arm_fir_decimate_f32.c **** 
 305:../Dave/Generated/CMSIS_DSP/FilteringFunctions/arm_fir_decimate_f32.c ****     do
 306:../Dave/Generated/CMSIS_DSP/FilteringFunctions/arm_fir_decimate_f32.c ****     {
 307:../Dave/Generated/CMSIS_DSP/FilteringFunctions/arm_fir_decimate_f32.c ****       *pStateCurnt++ = *pSrc++;
 388              	 .loc 1 307 0 discriminator 1
 389 0212 F2EC017A 	 fldmias r2!,{s15}
 390              	.LVL69:
 308:../Dave/Generated/CMSIS_DSP/FilteringFunctions/arm_fir_decimate_f32.c **** 
 309:../Dave/Generated/CMSIS_DSP/FilteringFunctions/arm_fir_decimate_f32.c ****     } while (--i);
 391              	 .loc 1 309 0 discriminator 1
 392 0216 013B     	 subs r3,r3,#1
 393              	.LVL70:
 307:../Dave/Generated/CMSIS_DSP/FilteringFunctions/arm_fir_decimate_f32.c **** 
 394              	 .loc 1 307 0 discriminator 1
 395 0218 E0EC017A 	 fstmias r0!,{s15}
 396              	 .loc 1 309 0 discriminator 1
 397 021c F9D1     	 bne .L11
 398 021e A400     	 lsls r4,r4,#2
 399 0220 A144     	 add r9,r9,r4
 400 0222 2144     	 add r1,r1,r4
 401              	.LVL71:
 310:../Dave/Generated/CMSIS_DSP/FilteringFunctions/arm_fir_decimate_f32.c **** 
 311:../Dave/Generated/CMSIS_DSP/FilteringFunctions/arm_fir_decimate_f32.c ****     /* Set accumulator to zero */
 312:../Dave/Generated/CMSIS_DSP/FilteringFunctions/arm_fir_decimate_f32.c ****     sum0 = 0.0f;
 313:../Dave/Generated/CMSIS_DSP/FilteringFunctions/arm_fir_decimate_f32.c **** 
 314:../Dave/Generated/CMSIS_DSP/FilteringFunctions/arm_fir_decimate_f32.c ****     /* Initialize state pointer */
 315:../Dave/Generated/CMSIS_DSP/FilteringFunctions/arm_fir_decimate_f32.c ****     px = pState;
 316:../Dave/Generated/CMSIS_DSP/FilteringFunctions/arm_fir_decimate_f32.c **** 
 317:../Dave/Generated/CMSIS_DSP/FilteringFunctions/arm_fir_decimate_f32.c ****     /* Initialize coeff pointer */
 318:../Dave/Generated/CMSIS_DSP/FilteringFunctions/arm_fir_decimate_f32.c ****     pb = pCoeffs;
 319:../Dave/Generated/CMSIS_DSP/FilteringFunctions/arm_fir_decimate_f32.c **** 
 320:../Dave/Generated/CMSIS_DSP/FilteringFunctions/arm_fir_decimate_f32.c ****     /* Loop unrolling.  Process 4 taps at a time. */
 321:../Dave/Generated/CMSIS_DSP/FilteringFunctions/arm_fir_decimate_f32.c ****     tapCnt = numTaps >> 2;
 322:../Dave/Generated/CMSIS_DSP/FilteringFunctions/arm_fir_decimate_f32.c **** 
 323:../Dave/Generated/CMSIS_DSP/FilteringFunctions/arm_fir_decimate_f32.c ****     /* Loop over the number of taps.  Unroll by a factor of 4.
 324:../Dave/Generated/CMSIS_DSP/FilteringFunctions/arm_fir_decimate_f32.c ****      ** Repeat until we've computed numTaps-4 coefficients. */
 325:../Dave/Generated/CMSIS_DSP/FilteringFunctions/arm_fir_decimate_f32.c ****     while (tapCnt > 0u)
 402              	 .loc 1 325 0
 403 0224 DFED3B7A 	 flds s15,.L48
 404 0228 002D     	 cmp r5,#0
 405 022a 6DD0     	 beq .L24
 406 022c 019B     	 ldr r3,[sp,#4]
 407              	.LVL72:
 408 022e 2846     	 mov r0,r5
 409 0230 03F11002 	 add r2,r3,#16
 410              	.LVL73:
 411 0234 07F11003 	 add r3,r7,#16
 412              	.LVL74:
 413              	.L13:
 326:../Dave/Generated/CMSIS_DSP/FilteringFunctions/arm_fir_decimate_f32.c ****     {
 327:../Dave/Generated/CMSIS_DSP/FilteringFunctions/arm_fir_decimate_f32.c ****       /* Read the b[numTaps-1] coefficient */
 328:../Dave/Generated/CMSIS_DSP/FilteringFunctions/arm_fir_decimate_f32.c ****       c0 = *(pb++);
 329:../Dave/Generated/CMSIS_DSP/FilteringFunctions/arm_fir_decimate_f32.c **** 
 330:../Dave/Generated/CMSIS_DSP/FilteringFunctions/arm_fir_decimate_f32.c ****       /* Read x[n-numTaps-1] sample */
 331:../Dave/Generated/CMSIS_DSP/FilteringFunctions/arm_fir_decimate_f32.c ****       x0 = *(px++);
 332:../Dave/Generated/CMSIS_DSP/FilteringFunctions/arm_fir_decimate_f32.c **** 
 333:../Dave/Generated/CMSIS_DSP/FilteringFunctions/arm_fir_decimate_f32.c ****       /* Perform the multiply-accumulate */
 334:../Dave/Generated/CMSIS_DSP/FilteringFunctions/arm_fir_decimate_f32.c ****       sum0 += x0 * c0;
 414              	 .loc 1 334 0
 415 0238 53ED043A 	 flds s7,[r3,#-16]
 416 023c 12ED044A 	 flds s8,[r2,#-16]
 335:../Dave/Generated/CMSIS_DSP/FilteringFunctions/arm_fir_decimate_f32.c **** 
 336:../Dave/Generated/CMSIS_DSP/FilteringFunctions/arm_fir_decimate_f32.c ****       /* Read the b[numTaps-2] coefficient */
 337:../Dave/Generated/CMSIS_DSP/FilteringFunctions/arm_fir_decimate_f32.c ****       c0 = *(pb++);
 338:../Dave/Generated/CMSIS_DSP/FilteringFunctions/arm_fir_decimate_f32.c **** 
 339:../Dave/Generated/CMSIS_DSP/FilteringFunctions/arm_fir_decimate_f32.c ****       /* Read x[n-numTaps-2] sample */
 340:../Dave/Generated/CMSIS_DSP/FilteringFunctions/arm_fir_decimate_f32.c ****       x0 = *(px++);
 341:../Dave/Generated/CMSIS_DSP/FilteringFunctions/arm_fir_decimate_f32.c **** 
 342:../Dave/Generated/CMSIS_DSP/FilteringFunctions/arm_fir_decimate_f32.c ****       /* Perform the multiply-accumulate */
 343:../Dave/Generated/CMSIS_DSP/FilteringFunctions/arm_fir_decimate_f32.c ****       sum0 += x0 * c0;
 417              	 .loc 1 343 0
 418 0240 53ED034A 	 flds s9,[r3,#-12]
 419 0244 12ED035A 	 flds s10,[r2,#-12]
 344:../Dave/Generated/CMSIS_DSP/FilteringFunctions/arm_fir_decimate_f32.c **** 
 345:../Dave/Generated/CMSIS_DSP/FilteringFunctions/arm_fir_decimate_f32.c ****       /* Read the b[numTaps-3] coefficient */
 346:../Dave/Generated/CMSIS_DSP/FilteringFunctions/arm_fir_decimate_f32.c ****       c0 = *(pb++);
 347:../Dave/Generated/CMSIS_DSP/FilteringFunctions/arm_fir_decimate_f32.c **** 
 348:../Dave/Generated/CMSIS_DSP/FilteringFunctions/arm_fir_decimate_f32.c ****       /* Read x[n-numTaps-3] sample */
 349:../Dave/Generated/CMSIS_DSP/FilteringFunctions/arm_fir_decimate_f32.c ****       x0 = *(px++);
 350:../Dave/Generated/CMSIS_DSP/FilteringFunctions/arm_fir_decimate_f32.c **** 
 351:../Dave/Generated/CMSIS_DSP/FilteringFunctions/arm_fir_decimate_f32.c ****       /* Perform the multiply-accumulate */
 352:../Dave/Generated/CMSIS_DSP/FilteringFunctions/arm_fir_decimate_f32.c ****       sum0 += x0 * c0;
 420              	 .loc 1 352 0
 421 0248 53ED025A 	 flds s11,[r3,#-8]
 422 024c 12ED026A 	 flds s12,[r2,#-8]
 353:../Dave/Generated/CMSIS_DSP/FilteringFunctions/arm_fir_decimate_f32.c **** 
 354:../Dave/Generated/CMSIS_DSP/FilteringFunctions/arm_fir_decimate_f32.c ****       /* Read the b[numTaps-4] coefficient */
 355:../Dave/Generated/CMSIS_DSP/FilteringFunctions/arm_fir_decimate_f32.c ****       c0 = *(pb++);
 356:../Dave/Generated/CMSIS_DSP/FilteringFunctions/arm_fir_decimate_f32.c **** 
 357:../Dave/Generated/CMSIS_DSP/FilteringFunctions/arm_fir_decimate_f32.c ****       /* Read x[n-numTaps-4] sample */
 358:../Dave/Generated/CMSIS_DSP/FilteringFunctions/arm_fir_decimate_f32.c ****       x0 = *(px++);
 359:../Dave/Generated/CMSIS_DSP/FilteringFunctions/arm_fir_decimate_f32.c **** 
 360:../Dave/Generated/CMSIS_DSP/FilteringFunctions/arm_fir_decimate_f32.c ****       /* Perform the multiply-accumulate */
 361:../Dave/Generated/CMSIS_DSP/FilteringFunctions/arm_fir_decimate_f32.c ****       sum0 += x0 * c0;
 423              	 .loc 1 361 0
 424 0250 53ED016A 	 flds s13,[r3,#-4]
 425 0254 12ED017A 	 flds s14,[r2,#-4]
 334:../Dave/Generated/CMSIS_DSP/FilteringFunctions/arm_fir_decimate_f32.c **** 
 426              	 .loc 1 334 0
 427 0258 E3EE847A 	 vfma.f32 s15,s7,s8
 428              	.LVL75:
 325:../Dave/Generated/CMSIS_DSP/FilteringFunctions/arm_fir_decimate_f32.c ****     {
 429              	 .loc 1 325 0
 430 025c 0138     	 subs r0,r0,#1
 431              	.LVL76:
 432 025e 03F11003 	 add r3,r3,#16
 433 0262 02F11002 	 add r2,r2,#16
 434              	.LVL77:
 343:../Dave/Generated/CMSIS_DSP/FilteringFunctions/arm_fir_decimate_f32.c **** 
 435              	 .loc 1 343 0
 436 0266 E4EE857A 	 vfma.f32 s15,s9,s10
 437              	.LVL78:
 352:../Dave/Generated/CMSIS_DSP/FilteringFunctions/arm_fir_decimate_f32.c **** 
 438              	 .loc 1 352 0
 439 026a E5EE867A 	 vfma.f32 s15,s11,s12
 440              	.LVL79:
 441              	 .loc 1 361 0
 442 026e E6EE877A 	 vfma.f32 s15,s13,s14
 443              	.LVL80:
 325:../Dave/Generated/CMSIS_DSP/FilteringFunctions/arm_fir_decimate_f32.c ****     {
 444              	 .loc 1 325 0
 445 0272 E1D1     	 bne .L13
 446 0274 07EB0E00 	 add r0,r7,lr
 355:../Dave/Generated/CMSIS_DSP/FilteringFunctions/arm_fir_decimate_f32.c **** 
 447              	 .loc 1 355 0
 448 0278 6246     	 mov r2,ip
 449              	.LVL81:
 450              	.L12:
 362:../Dave/Generated/CMSIS_DSP/FilteringFunctions/arm_fir_decimate_f32.c **** 
 363:../Dave/Generated/CMSIS_DSP/FilteringFunctions/arm_fir_decimate_f32.c ****       /* Decrement the loop counter */
 364:../Dave/Generated/CMSIS_DSP/FilteringFunctions/arm_fir_decimate_f32.c ****       tapCnt--;
 365:../Dave/Generated/CMSIS_DSP/FilteringFunctions/arm_fir_decimate_f32.c ****     }
 366:../Dave/Generated/CMSIS_DSP/FilteringFunctions/arm_fir_decimate_f32.c **** 
 367:../Dave/Generated/CMSIS_DSP/FilteringFunctions/arm_fir_decimate_f32.c ****     /* If the filter length is not a multiple of 4, compute the remaining filter taps */
 368:../Dave/Generated/CMSIS_DSP/FilteringFunctions/arm_fir_decimate_f32.c ****     tapCnt = numTaps % 0x4u;
 369:../Dave/Generated/CMSIS_DSP/FilteringFunctions/arm_fir_decimate_f32.c **** 
 370:../Dave/Generated/CMSIS_DSP/FilteringFunctions/arm_fir_decimate_f32.c ****     while (tapCnt > 0u)
 451              	 .loc 1 370 0
 452 027a 46B1     	 cbz r6,.L14
 453 027c 3346     	 mov r3,r6
 454              	.LVL82:
 455              	.L15:
 371:../Dave/Generated/CMSIS_DSP/FilteringFunctions/arm_fir_decimate_f32.c ****     {
 372:../Dave/Generated/CMSIS_DSP/FilteringFunctions/arm_fir_decimate_f32.c ****       /* Read coefficients */
 373:../Dave/Generated/CMSIS_DSP/FilteringFunctions/arm_fir_decimate_f32.c ****       c0 = *(pb++);
 374:../Dave/Generated/CMSIS_DSP/FilteringFunctions/arm_fir_decimate_f32.c **** 
 375:../Dave/Generated/CMSIS_DSP/FilteringFunctions/arm_fir_decimate_f32.c ****       /* Fetch 1 state variable */
 376:../Dave/Generated/CMSIS_DSP/FilteringFunctions/arm_fir_decimate_f32.c ****       x0 = *(px++);
 377:../Dave/Generated/CMSIS_DSP/FilteringFunctions/arm_fir_decimate_f32.c **** 
 378:../Dave/Generated/CMSIS_DSP/FilteringFunctions/arm_fir_decimate_f32.c ****       /* Perform the multiply-accumulate */
 379:../Dave/Generated/CMSIS_DSP/FilteringFunctions/arm_fir_decimate_f32.c ****       sum0 += x0 * c0;
 456              	 .loc 1 379 0
 457 027e F0EC016A 	 fldmias r0!,{s13}
 458              	.LVL83:
 459 0282 B2EC017A 	 fldmias r2!,{s14}
 460              	.LVL84:
 370:../Dave/Generated/CMSIS_DSP/FilteringFunctions/arm_fir_decimate_f32.c ****     {
 461              	 .loc 1 370 0
 462 0286 013B     	 subs r3,r3,#1
 463              	.LVL85:
 464              	 .loc 1 379 0
 465 0288 E6EE877A 	 vfma.f32 s15,s13,s14
 466              	.LVL86:
 370:../Dave/Generated/CMSIS_DSP/FilteringFunctions/arm_fir_decimate_f32.c ****     {
 467              	 .loc 1 370 0
 468 028c F7D1     	 bne .L15
 469              	.LVL87:
 470              	.L14:
 380:../Dave/Generated/CMSIS_DSP/FilteringFunctions/arm_fir_decimate_f32.c **** 
 381:../Dave/Generated/CMSIS_DSP/FilteringFunctions/arm_fir_decimate_f32.c ****       /* Decrement the loop counter */
 382:../Dave/Generated/CMSIS_DSP/FilteringFunctions/arm_fir_decimate_f32.c ****       tapCnt--;
 383:../Dave/Generated/CMSIS_DSP/FilteringFunctions/arm_fir_decimate_f32.c ****     }
 384:../Dave/Generated/CMSIS_DSP/FilteringFunctions/arm_fir_decimate_f32.c **** 
 385:../Dave/Generated/CMSIS_DSP/FilteringFunctions/arm_fir_decimate_f32.c ****     /* Advance the state pointer by the decimation factor
 386:../Dave/Generated/CMSIS_DSP/FilteringFunctions/arm_fir_decimate_f32.c ****      * to process the next group of decimation factor number samples */
 387:../Dave/Generated/CMSIS_DSP/FilteringFunctions/arm_fir_decimate_f32.c ****     pState = pState + S->M;
 471              	 .loc 1 387 0
 472 028e 9BF80030 	 ldrb r3,[fp]
 388:../Dave/Generated/CMSIS_DSP/FilteringFunctions/arm_fir_decimate_f32.c **** 
 389:../Dave/Generated/CMSIS_DSP/FilteringFunctions/arm_fir_decimate_f32.c ****     /* The result is in the accumulator, store in the destination buffer. */
 390:../Dave/Generated/CMSIS_DSP/FilteringFunctions/arm_fir_decimate_f32.c ****     *pDst++ = sum0;
 473              	 .loc 1 390 0
 474 0292 EAEC017A 	 fstmias r10!,{s15}
 475              	.LVL88:
 300:../Dave/Generated/CMSIS_DSP/FilteringFunctions/arm_fir_decimate_f32.c ****   {
 476              	 .loc 1 300 0
 477 0296 B8F10108 	 subs r8,r8,#1
 478              	.LVL89:
 387:../Dave/Generated/CMSIS_DSP/FilteringFunctions/arm_fir_decimate_f32.c **** 
 479              	 .loc 1 387 0
 480 029a 07EB8307 	 add r7,r7,r3,lsl#2
 481              	.LVL90:
 300:../Dave/Generated/CMSIS_DSP/FilteringFunctions/arm_fir_decimate_f32.c ****   {
 482              	 .loc 1 300 0
 483 029e B3D1     	 bne .L16
 484              	.LVL91:
 485              	.L10:
 391:../Dave/Generated/CMSIS_DSP/FilteringFunctions/arm_fir_decimate_f32.c **** 
 392:../Dave/Generated/CMSIS_DSP/FilteringFunctions/arm_fir_decimate_f32.c ****     /* Decrement the loop counter */
 393:../Dave/Generated/CMSIS_DSP/FilteringFunctions/arm_fir_decimate_f32.c ****     blkCntN4--;
 394:../Dave/Generated/CMSIS_DSP/FilteringFunctions/arm_fir_decimate_f32.c ****   }
 395:../Dave/Generated/CMSIS_DSP/FilteringFunctions/arm_fir_decimate_f32.c **** 
 396:../Dave/Generated/CMSIS_DSP/FilteringFunctions/arm_fir_decimate_f32.c ****   /* Processing is complete.
 397:../Dave/Generated/CMSIS_DSP/FilteringFunctions/arm_fir_decimate_f32.c ****    ** Now copy the last numTaps - 1 samples to the satrt of the state buffer.
 398:../Dave/Generated/CMSIS_DSP/FilteringFunctions/arm_fir_decimate_f32.c ****    ** This prepares the state buffer for the next function call. */
 399:../Dave/Generated/CMSIS_DSP/FilteringFunctions/arm_fir_decimate_f32.c **** 
 400:../Dave/Generated/CMSIS_DSP/FilteringFunctions/arm_fir_decimate_f32.c ****   /* Points to the start of the state buffer */
 401:../Dave/Generated/CMSIS_DSP/FilteringFunctions/arm_fir_decimate_f32.c ****   pStateCurnt = S->pState;
 402:../Dave/Generated/CMSIS_DSP/FilteringFunctions/arm_fir_decimate_f32.c **** 
 403:../Dave/Generated/CMSIS_DSP/FilteringFunctions/arm_fir_decimate_f32.c ****   i = (numTaps - 1u) >> 2;
 486              	 .loc 1 403 0
 487 02a0 099B     	 ldr r3,[sp,#36]
 488 02a2 591E     	 subs r1,r3,#1
 489              	.LVL92:
 404:../Dave/Generated/CMSIS_DSP/FilteringFunctions/arm_fir_decimate_f32.c **** 
 405:../Dave/Generated/CMSIS_DSP/FilteringFunctions/arm_fir_decimate_f32.c ****   /* copy data */
 406:../Dave/Generated/CMSIS_DSP/FilteringFunctions/arm_fir_decimate_f32.c ****   while (i > 0u)
 490              	 .loc 1 406 0
 491 02a4 8D08     	 lsrs r5,r1,#2
 492              	.LVL93:
 493 02a6 20D0     	 beq .L17
 494 02a8 079B     	 ldr r3,[sp,#28]
 495 02aa 2846     	 mov r0,r5
 496 02ac 03F11002 	 add r2,r3,#16
 497 02b0 07F11003 	 add r3,r7,#16
 498              	.LVL94:
 499              	.L18:
 407:../Dave/Generated/CMSIS_DSP/FilteringFunctions/arm_fir_decimate_f32.c ****   {
 408:../Dave/Generated/CMSIS_DSP/FilteringFunctions/arm_fir_decimate_f32.c ****     *pStateCurnt++ = *pState++;
 500              	 .loc 1 408 0
 501 02b4 53F8104C 	 ldr r4,[r3,#-16]
 502 02b8 42F8104C 	 str r4,[r2,#-16]
 503              	.LVL95:
 409:../Dave/Generated/CMSIS_DSP/FilteringFunctions/arm_fir_decimate_f32.c ****     *pStateCurnt++ = *pState++;
 504              	 .loc 1 409 0
 505 02bc 53F80C4C 	 ldr r4,[r3,#-12]
 506 02c0 42F80C4C 	 str r4,[r2,#-12]
 507              	.LVL96:
 410:../Dave/Generated/CMSIS_DSP/FilteringFunctions/arm_fir_decimate_f32.c ****     *pStateCurnt++ = *pState++;
 508              	 .loc 1 410 0
 509 02c4 53F8084C 	 ldr r4,[r3,#-8]
 510 02c8 42F8084C 	 str r4,[r2,#-8]
 511              	.LVL97:
 411:../Dave/Generated/CMSIS_DSP/FilteringFunctions/arm_fir_decimate_f32.c ****     *pStateCurnt++ = *pState++;
 512              	 .loc 1 411 0
 513 02cc 53F8044C 	 ldr r4,[r3,#-4]
 514 02d0 42F8044C 	 str r4,[r2,#-4]
 406:../Dave/Generated/CMSIS_DSP/FilteringFunctions/arm_fir_decimate_f32.c ****   {
 515              	 .loc 1 406 0
 516 02d4 0138     	 subs r0,r0,#1
 517              	.LVL98:
 518 02d6 03F11003 	 add r3,r3,#16
 519              	.LVL99:
 520 02da 02F11002 	 add r2,r2,#16
 521 02de E9D1     	 bne .L18
 522 02e0 079A     	 ldr r2,[sp,#28]
 523 02e2 2B01     	 lsls r3,r5,#4
 524              	.LVL100:
 525 02e4 1A44     	 add r2,r2,r3
 526 02e6 0792     	 str r2,[sp,#28]
 527 02e8 1F44     	 add r7,r7,r3
 528              	.LVL101:
 529              	.L17:
 412:../Dave/Generated/CMSIS_DSP/FilteringFunctions/arm_fir_decimate_f32.c **** 
 413:../Dave/Generated/CMSIS_DSP/FilteringFunctions/arm_fir_decimate_f32.c ****     /* Decrement the loop counter */
 414:../Dave/Generated/CMSIS_DSP/FilteringFunctions/arm_fir_decimate_f32.c ****     i--;
 415:../Dave/Generated/CMSIS_DSP/FilteringFunctions/arm_fir_decimate_f32.c ****   }
 416:../Dave/Generated/CMSIS_DSP/FilteringFunctions/arm_fir_decimate_f32.c **** 
 417:../Dave/Generated/CMSIS_DSP/FilteringFunctions/arm_fir_decimate_f32.c ****   i = (numTaps - 1u) % 0x04u;
 418:../Dave/Generated/CMSIS_DSP/FilteringFunctions/arm_fir_decimate_f32.c **** 
 419:../Dave/Generated/CMSIS_DSP/FilteringFunctions/arm_fir_decimate_f32.c ****   /* copy data */
 420:../Dave/Generated/CMSIS_DSP/FilteringFunctions/arm_fir_decimate_f32.c ****   while (i > 0u)
 530              	 .loc 1 420 0
 531 02ea 11F00303 	 ands r3,r1,#3
 532              	.LVL102:
 533 02ee 06D0     	 beq .L1
 534 02f0 079A     	 ldr r2,[sp,#28]
 535              	.LVL103:
 536              	.L20:
 421:../Dave/Generated/CMSIS_DSP/FilteringFunctions/arm_fir_decimate_f32.c ****   {
 422:../Dave/Generated/CMSIS_DSP/FilteringFunctions/arm_fir_decimate_f32.c ****     *pStateCurnt++ = *pState++;
 537              	 .loc 1 422 0
 538 02f2 57F8041B 	 ldr r1,[r7],#4
 539              	.LVL104:
 540 02f6 42F8041B 	 str r1,[r2],#4
 420:../Dave/Generated/CMSIS_DSP/FilteringFunctions/arm_fir_decimate_f32.c ****   {
 541              	 .loc 1 420 0
 542 02fa 013B     	 subs r3,r3,#1
 543              	.LVL105:
 544 02fc F9D1     	 bne .L20
 545              	.LVL106:
 546              	.L1:
 423:../Dave/Generated/CMSIS_DSP/FilteringFunctions/arm_fir_decimate_f32.c **** 
 424:../Dave/Generated/CMSIS_DSP/FilteringFunctions/arm_fir_decimate_f32.c ****     /* Decrement the loop counter */
 425:../Dave/Generated/CMSIS_DSP/FilteringFunctions/arm_fir_decimate_f32.c ****     i--;
 426:../Dave/Generated/CMSIS_DSP/FilteringFunctions/arm_fir_decimate_f32.c ****   }
 427:../Dave/Generated/CMSIS_DSP/FilteringFunctions/arm_fir_decimate_f32.c **** 
 428:../Dave/Generated/CMSIS_DSP/FilteringFunctions/arm_fir_decimate_f32.c **** #else
 429:../Dave/Generated/CMSIS_DSP/FilteringFunctions/arm_fir_decimate_f32.c **** 
 430:../Dave/Generated/CMSIS_DSP/FilteringFunctions/arm_fir_decimate_f32.c **** /* Run the below code for Cortex-M0 */
 431:../Dave/Generated/CMSIS_DSP/FilteringFunctions/arm_fir_decimate_f32.c **** 
 432:../Dave/Generated/CMSIS_DSP/FilteringFunctions/arm_fir_decimate_f32.c ****   /* S->pState buffer contains previous frame (numTaps - 1) samples */
 433:../Dave/Generated/CMSIS_DSP/FilteringFunctions/arm_fir_decimate_f32.c ****   /* pStateCurnt points to the location where the new input data should be written */
 434:../Dave/Generated/CMSIS_DSP/FilteringFunctions/arm_fir_decimate_f32.c ****   pStateCurnt = S->pState + (numTaps - 1u);
 435:../Dave/Generated/CMSIS_DSP/FilteringFunctions/arm_fir_decimate_f32.c **** 
 436:../Dave/Generated/CMSIS_DSP/FilteringFunctions/arm_fir_decimate_f32.c ****   /* Total number of output samples to be computed */
 437:../Dave/Generated/CMSIS_DSP/FilteringFunctions/arm_fir_decimate_f32.c ****   blkCnt = outBlockSize;
 438:../Dave/Generated/CMSIS_DSP/FilteringFunctions/arm_fir_decimate_f32.c **** 
 439:../Dave/Generated/CMSIS_DSP/FilteringFunctions/arm_fir_decimate_f32.c ****   while (blkCnt > 0u)
 440:../Dave/Generated/CMSIS_DSP/FilteringFunctions/arm_fir_decimate_f32.c ****   {
 441:../Dave/Generated/CMSIS_DSP/FilteringFunctions/arm_fir_decimate_f32.c ****     /* Copy decimation factor number of new input samples into the state buffer */
 442:../Dave/Generated/CMSIS_DSP/FilteringFunctions/arm_fir_decimate_f32.c ****     i = S->M;
 443:../Dave/Generated/CMSIS_DSP/FilteringFunctions/arm_fir_decimate_f32.c **** 
 444:../Dave/Generated/CMSIS_DSP/FilteringFunctions/arm_fir_decimate_f32.c ****     do
 445:../Dave/Generated/CMSIS_DSP/FilteringFunctions/arm_fir_decimate_f32.c ****     {
 446:../Dave/Generated/CMSIS_DSP/FilteringFunctions/arm_fir_decimate_f32.c ****       *pStateCurnt++ = *pSrc++;
 447:../Dave/Generated/CMSIS_DSP/FilteringFunctions/arm_fir_decimate_f32.c **** 
 448:../Dave/Generated/CMSIS_DSP/FilteringFunctions/arm_fir_decimate_f32.c ****     } while (--i);
 449:../Dave/Generated/CMSIS_DSP/FilteringFunctions/arm_fir_decimate_f32.c **** 
 450:../Dave/Generated/CMSIS_DSP/FilteringFunctions/arm_fir_decimate_f32.c ****     /* Set accumulator to zero */
 451:../Dave/Generated/CMSIS_DSP/FilteringFunctions/arm_fir_decimate_f32.c ****     sum0 = 0.0f;
 452:../Dave/Generated/CMSIS_DSP/FilteringFunctions/arm_fir_decimate_f32.c **** 
 453:../Dave/Generated/CMSIS_DSP/FilteringFunctions/arm_fir_decimate_f32.c ****     /* Initialize state pointer */
 454:../Dave/Generated/CMSIS_DSP/FilteringFunctions/arm_fir_decimate_f32.c ****     px = pState;
 455:../Dave/Generated/CMSIS_DSP/FilteringFunctions/arm_fir_decimate_f32.c **** 
 456:../Dave/Generated/CMSIS_DSP/FilteringFunctions/arm_fir_decimate_f32.c ****     /* Initialize coeff pointer */
 457:../Dave/Generated/CMSIS_DSP/FilteringFunctions/arm_fir_decimate_f32.c ****     pb = pCoeffs;
 458:../Dave/Generated/CMSIS_DSP/FilteringFunctions/arm_fir_decimate_f32.c **** 
 459:../Dave/Generated/CMSIS_DSP/FilteringFunctions/arm_fir_decimate_f32.c ****     tapCnt = numTaps;
 460:../Dave/Generated/CMSIS_DSP/FilteringFunctions/arm_fir_decimate_f32.c **** 
 461:../Dave/Generated/CMSIS_DSP/FilteringFunctions/arm_fir_decimate_f32.c ****     while (tapCnt > 0u)
 462:../Dave/Generated/CMSIS_DSP/FilteringFunctions/arm_fir_decimate_f32.c ****     {
 463:../Dave/Generated/CMSIS_DSP/FilteringFunctions/arm_fir_decimate_f32.c ****       /* Read coefficients */
 464:../Dave/Generated/CMSIS_DSP/FilteringFunctions/arm_fir_decimate_f32.c ****       c0 = *pb++;
 465:../Dave/Generated/CMSIS_DSP/FilteringFunctions/arm_fir_decimate_f32.c **** 
 466:../Dave/Generated/CMSIS_DSP/FilteringFunctions/arm_fir_decimate_f32.c ****       /* Fetch 1 state variable */
 467:../Dave/Generated/CMSIS_DSP/FilteringFunctions/arm_fir_decimate_f32.c ****       x0 = *px++;
 468:../Dave/Generated/CMSIS_DSP/FilteringFunctions/arm_fir_decimate_f32.c **** 
 469:../Dave/Generated/CMSIS_DSP/FilteringFunctions/arm_fir_decimate_f32.c ****       /* Perform the multiply-accumulate */
 470:../Dave/Generated/CMSIS_DSP/FilteringFunctions/arm_fir_decimate_f32.c ****       sum0 += x0 * c0;
 471:../Dave/Generated/CMSIS_DSP/FilteringFunctions/arm_fir_decimate_f32.c **** 
 472:../Dave/Generated/CMSIS_DSP/FilteringFunctions/arm_fir_decimate_f32.c ****       /* Decrement the loop counter */
 473:../Dave/Generated/CMSIS_DSP/FilteringFunctions/arm_fir_decimate_f32.c ****       tapCnt--;
 474:../Dave/Generated/CMSIS_DSP/FilteringFunctions/arm_fir_decimate_f32.c ****     }
 475:../Dave/Generated/CMSIS_DSP/FilteringFunctions/arm_fir_decimate_f32.c **** 
 476:../Dave/Generated/CMSIS_DSP/FilteringFunctions/arm_fir_decimate_f32.c ****     /* Advance the state pointer by the decimation factor
 477:../Dave/Generated/CMSIS_DSP/FilteringFunctions/arm_fir_decimate_f32.c ****      * to process the next group of decimation factor number samples */
 478:../Dave/Generated/CMSIS_DSP/FilteringFunctions/arm_fir_decimate_f32.c ****     pState = pState + S->M;
 479:../Dave/Generated/CMSIS_DSP/FilteringFunctions/arm_fir_decimate_f32.c **** 
 480:../Dave/Generated/CMSIS_DSP/FilteringFunctions/arm_fir_decimate_f32.c ****     /* The result is in the accumulator, store in the destination buffer. */
 481:../Dave/Generated/CMSIS_DSP/FilteringFunctions/arm_fir_decimate_f32.c ****     *pDst++ = sum0;
 482:../Dave/Generated/CMSIS_DSP/FilteringFunctions/arm_fir_decimate_f32.c **** 
 483:../Dave/Generated/CMSIS_DSP/FilteringFunctions/arm_fir_decimate_f32.c ****     /* Decrement the loop counter */
 484:../Dave/Generated/CMSIS_DSP/FilteringFunctions/arm_fir_decimate_f32.c ****     blkCnt--;
 485:../Dave/Generated/CMSIS_DSP/FilteringFunctions/arm_fir_decimate_f32.c ****   }
 486:../Dave/Generated/CMSIS_DSP/FilteringFunctions/arm_fir_decimate_f32.c **** 
 487:../Dave/Generated/CMSIS_DSP/FilteringFunctions/arm_fir_decimate_f32.c ****   /* Processing is complete.
 488:../Dave/Generated/CMSIS_DSP/FilteringFunctions/arm_fir_decimate_f32.c ****    ** Now copy the last numTaps - 1 samples to the start of the state buffer.
 489:../Dave/Generated/CMSIS_DSP/FilteringFunctions/arm_fir_decimate_f32.c ****    ** This prepares the state buffer for the next function call. */
 490:../Dave/Generated/CMSIS_DSP/FilteringFunctions/arm_fir_decimate_f32.c **** 
 491:../Dave/Generated/CMSIS_DSP/FilteringFunctions/arm_fir_decimate_f32.c ****   /* Points to the start of the state buffer */
 492:../Dave/Generated/CMSIS_DSP/FilteringFunctions/arm_fir_decimate_f32.c ****   pStateCurnt = S->pState;
 493:../Dave/Generated/CMSIS_DSP/FilteringFunctions/arm_fir_decimate_f32.c **** 
 494:../Dave/Generated/CMSIS_DSP/FilteringFunctions/arm_fir_decimate_f32.c ****   /* Copy numTaps number of values */
 495:../Dave/Generated/CMSIS_DSP/FilteringFunctions/arm_fir_decimate_f32.c ****   i = (numTaps - 1u);
 496:../Dave/Generated/CMSIS_DSP/FilteringFunctions/arm_fir_decimate_f32.c **** 
 497:../Dave/Generated/CMSIS_DSP/FilteringFunctions/arm_fir_decimate_f32.c ****   /* copy data */
 498:../Dave/Generated/CMSIS_DSP/FilteringFunctions/arm_fir_decimate_f32.c ****   while (i > 0u)
 499:../Dave/Generated/CMSIS_DSP/FilteringFunctions/arm_fir_decimate_f32.c ****   {
 500:../Dave/Generated/CMSIS_DSP/FilteringFunctions/arm_fir_decimate_f32.c ****     *pStateCurnt++ = *pState++;
 501:../Dave/Generated/CMSIS_DSP/FilteringFunctions/arm_fir_decimate_f32.c **** 
 502:../Dave/Generated/CMSIS_DSP/FilteringFunctions/arm_fir_decimate_f32.c ****     /* Decrement the loop counter */
 503:../Dave/Generated/CMSIS_DSP/FilteringFunctions/arm_fir_decimate_f32.c ****     i--;
 504:../Dave/Generated/CMSIS_DSP/FilteringFunctions/arm_fir_decimate_f32.c ****   }
 505:../Dave/Generated/CMSIS_DSP/FilteringFunctions/arm_fir_decimate_f32.c **** 
 506:../Dave/Generated/CMSIS_DSP/FilteringFunctions/arm_fir_decimate_f32.c **** #endif /*   #if defined (ARM_MATH_DSP)        */
 507:../Dave/Generated/CMSIS_DSP/FilteringFunctions/arm_fir_decimate_f32.c **** 
 508:../Dave/Generated/CMSIS_DSP/FilteringFunctions/arm_fir_decimate_f32.c **** }
 547              	 .loc 1 508 0
 548 02fe 0DB0     	 add sp,sp,#52
 549              	.LCFI3:
 550              	 .cfi_remember_state
 551              	 .cfi_def_cfa_offset 68
 552              	 
 553 0300 BDEC088B 	 fldmfdd sp!,{d8-d11}
 554              	.LCFI4:
 555              	 .cfi_restore 86
 556              	 .cfi_restore 87
 557              	 .cfi_restore 84
 558              	 .cfi_restore 85
 559              	 .cfi_restore 82
 560              	 .cfi_restore 83
 561              	 .cfi_restore 80
 562              	 .cfi_restore 81
 563              	 .cfi_def_cfa_offset 36
 564 0304 BDE8F08F 	 pop {r4,r5,r6,r7,r8,r9,r10,fp,pc}
 565              	.LVL107:
 566              	.L24:
 567              	.LCFI5:
 568              	 .cfi_restore_state
 318:../Dave/Generated/CMSIS_DSP/FilteringFunctions/arm_fir_decimate_f32.c **** 
 569              	 .loc 1 318 0
 570 0308 019A     	 ldr r2,[sp,#4]
 571              	.LVL108:
 325:../Dave/Generated/CMSIS_DSP/FilteringFunctions/arm_fir_decimate_f32.c ****     {
 572              	 .loc 1 325 0
 573 030a 3846     	 mov r0,r7
 574 030c B5E7     	 b .L12
 575              	.LVL109:
 576              	.L23:
 182:../Dave/Generated/CMSIS_DSP/FilteringFunctions/arm_fir_decimate_f32.c **** 
 577              	 .loc 1 182 0
 578 030e 4846     	 mov r0,r9
 579              	.LVL110:
 185:../Dave/Generated/CMSIS_DSP/FilteringFunctions/arm_fir_decimate_f32.c **** 
 580              	 .loc 1 185 0
 581 0310 019A     	 ldr r2,[sp,#4]
 582 0312 37E7     	 b .L4
 583              	.L49:
 584              	 .align 2
 585              	.L48:
 586 0314 00000000 	 .word 0
 587              	 .cfi_endproc
 588              	.LFE135:
 590              	 .text
 591              	.Letext0:
 592              	 .file 2 "c:\\infineon\\tools\\dave ide\\4.5.0.202105191637\\eclipse\\arm-gcc-49\\arm-none-eabi\\include\\machine\\_default_types.h"
 593              	 .file 3 "c:\\infineon\\tools\\dave ide\\4.5.0.202105191637\\eclipse\\arm-gcc-49\\arm-none-eabi\\include\\stdint.h"
 594              	 .file 4 "C:/Users/Utente/Desktop/Tesi/Firmware_Software/DAVE project/S2GLP_Pulsed_Doppler/Dave/Generated/CMSIS_DSP/arm_math.h"