   1              	 .syntax unified
   2              	 .cpu cortex-m4
   3              	 .eabi_attribute 27,3
   4              	 .fpu fpv4-sp-d16
   5              	 .eabi_attribute 20,1
   6              	 .eabi_attribute 21,1
   7              	 .eabi_attribute 23,3
   8              	 .eabi_attribute 24,1
   9              	 .eabi_attribute 25,1
  10              	 .eabi_attribute 26,1
  11              	 .eabi_attribute 30,2
  12              	 .eabi_attribute 34,1
  13              	 .eabi_attribute 18,4
  14              	 .thumb
  15              	 .file "arm_fir_lattice_f32.c"
  16              	 .text
  17              	.Ltext0:
  18              	 .cfi_sections .debug_frame
  19              	 .section .text.arm_fir_lattice_f32,"ax",%progbits
  20              	 .align 2
  21              	 .global arm_fir_lattice_f32
  22              	 .thumb
  23              	 .thumb_func
  25              	arm_fir_lattice_f32:
  26              	.LFB135:
  27              	 .file 1 "../Dave/Generated/CMSIS_DSP/FilteringFunctions/arm_fir_lattice_f32.c"
   1:../Dave/Generated/CMSIS_DSP/FilteringFunctions/arm_fir_lattice_f32.c **** /* ----------------------------------------------------------------------
   2:../Dave/Generated/CMSIS_DSP/FilteringFunctions/arm_fir_lattice_f32.c ****  * Project:      CMSIS DSP Library
   3:../Dave/Generated/CMSIS_DSP/FilteringFunctions/arm_fir_lattice_f32.c ****  * Title:        arm_fir_lattice_f32.c
   4:../Dave/Generated/CMSIS_DSP/FilteringFunctions/arm_fir_lattice_f32.c ****  * Description:  Processing function for the floating-point FIR Lattice filter
   5:../Dave/Generated/CMSIS_DSP/FilteringFunctions/arm_fir_lattice_f32.c ****  *
   6:../Dave/Generated/CMSIS_DSP/FilteringFunctions/arm_fir_lattice_f32.c ****  * $Date:        27. January 2017
   7:../Dave/Generated/CMSIS_DSP/FilteringFunctions/arm_fir_lattice_f32.c ****  * $Revision:    V.1.5.1
   8:../Dave/Generated/CMSIS_DSP/FilteringFunctions/arm_fir_lattice_f32.c ****  *
   9:../Dave/Generated/CMSIS_DSP/FilteringFunctions/arm_fir_lattice_f32.c ****  * Target Processor: Cortex-M cores
  10:../Dave/Generated/CMSIS_DSP/FilteringFunctions/arm_fir_lattice_f32.c ****  * -------------------------------------------------------------------- */
  11:../Dave/Generated/CMSIS_DSP/FilteringFunctions/arm_fir_lattice_f32.c **** /*
  12:../Dave/Generated/CMSIS_DSP/FilteringFunctions/arm_fir_lattice_f32.c ****  * Copyright (C) 2010-2017 ARM Limited or its affiliates. All rights reserved.
  13:../Dave/Generated/CMSIS_DSP/FilteringFunctions/arm_fir_lattice_f32.c ****  *
  14:../Dave/Generated/CMSIS_DSP/FilteringFunctions/arm_fir_lattice_f32.c ****  * SPDX-License-Identifier: Apache-2.0
  15:../Dave/Generated/CMSIS_DSP/FilteringFunctions/arm_fir_lattice_f32.c ****  *
  16:../Dave/Generated/CMSIS_DSP/FilteringFunctions/arm_fir_lattice_f32.c ****  * Licensed under the Apache License, Version 2.0 (the License); you may
  17:../Dave/Generated/CMSIS_DSP/FilteringFunctions/arm_fir_lattice_f32.c ****  * not use this file except in compliance with the License.
  18:../Dave/Generated/CMSIS_DSP/FilteringFunctions/arm_fir_lattice_f32.c ****  * You may obtain a copy of the License at
  19:../Dave/Generated/CMSIS_DSP/FilteringFunctions/arm_fir_lattice_f32.c ****  *
  20:../Dave/Generated/CMSIS_DSP/FilteringFunctions/arm_fir_lattice_f32.c ****  * www.apache.org/licenses/LICENSE-2.0
  21:../Dave/Generated/CMSIS_DSP/FilteringFunctions/arm_fir_lattice_f32.c ****  *
  22:../Dave/Generated/CMSIS_DSP/FilteringFunctions/arm_fir_lattice_f32.c ****  * Unless required by applicable law or agreed to in writing, software
  23:../Dave/Generated/CMSIS_DSP/FilteringFunctions/arm_fir_lattice_f32.c ****  * distributed under the License is distributed on an AS IS BASIS, WITHOUT
  24:../Dave/Generated/CMSIS_DSP/FilteringFunctions/arm_fir_lattice_f32.c ****  * WARRANTIES OR CONDITIONS OF ANY KIND, either express or implied.
  25:../Dave/Generated/CMSIS_DSP/FilteringFunctions/arm_fir_lattice_f32.c ****  * See the License for the specific language governing permissions and
  26:../Dave/Generated/CMSIS_DSP/FilteringFunctions/arm_fir_lattice_f32.c ****  * limitations under the License.
  27:../Dave/Generated/CMSIS_DSP/FilteringFunctions/arm_fir_lattice_f32.c ****  */
  28:../Dave/Generated/CMSIS_DSP/FilteringFunctions/arm_fir_lattice_f32.c **** 
  29:../Dave/Generated/CMSIS_DSP/FilteringFunctions/arm_fir_lattice_f32.c **** #include "CMSIS_DSP/cmsis_dsp.h"
  30:../Dave/Generated/CMSIS_DSP/FilteringFunctions/arm_fir_lattice_f32.c **** 
  31:../Dave/Generated/CMSIS_DSP/FilteringFunctions/arm_fir_lattice_f32.c **** /**
  32:../Dave/Generated/CMSIS_DSP/FilteringFunctions/arm_fir_lattice_f32.c ****  * @ingroup groupFilters
  33:../Dave/Generated/CMSIS_DSP/FilteringFunctions/arm_fir_lattice_f32.c ****  */
  34:../Dave/Generated/CMSIS_DSP/FilteringFunctions/arm_fir_lattice_f32.c **** 
  35:../Dave/Generated/CMSIS_DSP/FilteringFunctions/arm_fir_lattice_f32.c **** /**
  36:../Dave/Generated/CMSIS_DSP/FilteringFunctions/arm_fir_lattice_f32.c ****  * @defgroup FIR_Lattice Finite Impulse Response (FIR) Lattice Filters
  37:../Dave/Generated/CMSIS_DSP/FilteringFunctions/arm_fir_lattice_f32.c ****  *
  38:../Dave/Generated/CMSIS_DSP/FilteringFunctions/arm_fir_lattice_f32.c ****  * This set of functions implements Finite Impulse Response (FIR) lattice filters
  39:../Dave/Generated/CMSIS_DSP/FilteringFunctions/arm_fir_lattice_f32.c ****  * for Q15, Q31 and floating-point data types.  Lattice filters are used in a
  40:../Dave/Generated/CMSIS_DSP/FilteringFunctions/arm_fir_lattice_f32.c ****  * variety of adaptive filter applications.  The filter structure is feedforward and
  41:../Dave/Generated/CMSIS_DSP/FilteringFunctions/arm_fir_lattice_f32.c ****  * the net impulse response is finite length.
  42:../Dave/Generated/CMSIS_DSP/FilteringFunctions/arm_fir_lattice_f32.c ****  * The functions operate on blocks
  43:../Dave/Generated/CMSIS_DSP/FilteringFunctions/arm_fir_lattice_f32.c ****  * of input and output data and each call to the function processes
  44:../Dave/Generated/CMSIS_DSP/FilteringFunctions/arm_fir_lattice_f32.c ****  * <code>blockSize</code> samples through the filter.  <code>pSrc</code> and
  45:../Dave/Generated/CMSIS_DSP/FilteringFunctions/arm_fir_lattice_f32.c ****  * <code>pDst</code> point to input and output arrays containing <code>blockSize</code> values.
  46:../Dave/Generated/CMSIS_DSP/FilteringFunctions/arm_fir_lattice_f32.c ****  *
  47:../Dave/Generated/CMSIS_DSP/FilteringFunctions/arm_fir_lattice_f32.c ****  * \par Algorithm:
  48:../Dave/Generated/CMSIS_DSP/FilteringFunctions/arm_fir_lattice_f32.c ****  * \image html FIRLattice.gif "Finite Impulse Response Lattice filter"
  49:../Dave/Generated/CMSIS_DSP/FilteringFunctions/arm_fir_lattice_f32.c ****  * The following difference equation is implemented:
  50:../Dave/Generated/CMSIS_DSP/FilteringFunctions/arm_fir_lattice_f32.c ****  * <pre>
  51:../Dave/Generated/CMSIS_DSP/FilteringFunctions/arm_fir_lattice_f32.c ****  *    f0[n] = g0[n] = x[n]
  52:../Dave/Generated/CMSIS_DSP/FilteringFunctions/arm_fir_lattice_f32.c ****  *    fm[n] = fm-1[n] + km * gm-1[n-1] for m = 1, 2, ...M
  53:../Dave/Generated/CMSIS_DSP/FilteringFunctions/arm_fir_lattice_f32.c ****  *    gm[n] = km * fm-1[n] + gm-1[n-1] for m = 1, 2, ...M
  54:../Dave/Generated/CMSIS_DSP/FilteringFunctions/arm_fir_lattice_f32.c ****  *    y[n] = fM[n]
  55:../Dave/Generated/CMSIS_DSP/FilteringFunctions/arm_fir_lattice_f32.c ****  * </pre>
  56:../Dave/Generated/CMSIS_DSP/FilteringFunctions/arm_fir_lattice_f32.c ****  * \par
  57:../Dave/Generated/CMSIS_DSP/FilteringFunctions/arm_fir_lattice_f32.c ****  * <code>pCoeffs</code> points to tha array of reflection coefficients of size <code>numStages</cod
  58:../Dave/Generated/CMSIS_DSP/FilteringFunctions/arm_fir_lattice_f32.c ****  * Reflection Coefficients are stored in the following order.
  59:../Dave/Generated/CMSIS_DSP/FilteringFunctions/arm_fir_lattice_f32.c ****  * \par
  60:../Dave/Generated/CMSIS_DSP/FilteringFunctions/arm_fir_lattice_f32.c ****  * <pre>
  61:../Dave/Generated/CMSIS_DSP/FilteringFunctions/arm_fir_lattice_f32.c ****  *    {k1, k2, ..., kM}
  62:../Dave/Generated/CMSIS_DSP/FilteringFunctions/arm_fir_lattice_f32.c ****  * </pre>
  63:../Dave/Generated/CMSIS_DSP/FilteringFunctions/arm_fir_lattice_f32.c ****  * where M is number of stages
  64:../Dave/Generated/CMSIS_DSP/FilteringFunctions/arm_fir_lattice_f32.c ****  * \par
  65:../Dave/Generated/CMSIS_DSP/FilteringFunctions/arm_fir_lattice_f32.c ****  * <code>pState</code> points to a state array of size <code>numStages</code>.
  66:../Dave/Generated/CMSIS_DSP/FilteringFunctions/arm_fir_lattice_f32.c ****  * The state variables (g values) hold previous inputs and are stored in the following order.
  67:../Dave/Generated/CMSIS_DSP/FilteringFunctions/arm_fir_lattice_f32.c ****  * <pre>
  68:../Dave/Generated/CMSIS_DSP/FilteringFunctions/arm_fir_lattice_f32.c ****  *    {g0[n], g1[n], g2[n] ...gM-1[n]}
  69:../Dave/Generated/CMSIS_DSP/FilteringFunctions/arm_fir_lattice_f32.c ****  * </pre>
  70:../Dave/Generated/CMSIS_DSP/FilteringFunctions/arm_fir_lattice_f32.c ****  * The state variables are updated after each block of data is processed; the coefficients are unto
  71:../Dave/Generated/CMSIS_DSP/FilteringFunctions/arm_fir_lattice_f32.c ****  * \par Instance Structure
  72:../Dave/Generated/CMSIS_DSP/FilteringFunctions/arm_fir_lattice_f32.c ****  * The coefficients and state variables for a filter are stored together in an instance data struct
  73:../Dave/Generated/CMSIS_DSP/FilteringFunctions/arm_fir_lattice_f32.c ****  * A separate instance structure must be defined for each filter.
  74:../Dave/Generated/CMSIS_DSP/FilteringFunctions/arm_fir_lattice_f32.c ****  * Coefficient arrays may be shared among several instances while state variable arrays cannot be s
  75:../Dave/Generated/CMSIS_DSP/FilteringFunctions/arm_fir_lattice_f32.c ****  * There are separate instance structure declarations for each of the 3 supported data types.
  76:../Dave/Generated/CMSIS_DSP/FilteringFunctions/arm_fir_lattice_f32.c ****  *
  77:../Dave/Generated/CMSIS_DSP/FilteringFunctions/arm_fir_lattice_f32.c ****  * \par Initialization Functions
  78:../Dave/Generated/CMSIS_DSP/FilteringFunctions/arm_fir_lattice_f32.c ****  * There is also an associated initialization function for each data type.
  79:../Dave/Generated/CMSIS_DSP/FilteringFunctions/arm_fir_lattice_f32.c ****  * The initialization function performs the following operations:
  80:../Dave/Generated/CMSIS_DSP/FilteringFunctions/arm_fir_lattice_f32.c ****  * - Sets the values of the internal structure fields.
  81:../Dave/Generated/CMSIS_DSP/FilteringFunctions/arm_fir_lattice_f32.c ****  * - Zeros out the values in the state buffer.
  82:../Dave/Generated/CMSIS_DSP/FilteringFunctions/arm_fir_lattice_f32.c ****  * To do this manually without calling the init function, assign the follow subfields of the instan
  83:../Dave/Generated/CMSIS_DSP/FilteringFunctions/arm_fir_lattice_f32.c ****  * numStages, pCoeffs, pState. Also set all of the values in pState to zero.
  84:../Dave/Generated/CMSIS_DSP/FilteringFunctions/arm_fir_lattice_f32.c ****  *
  85:../Dave/Generated/CMSIS_DSP/FilteringFunctions/arm_fir_lattice_f32.c ****  * \par
  86:../Dave/Generated/CMSIS_DSP/FilteringFunctions/arm_fir_lattice_f32.c ****  * Use of the initialization function is optional.
  87:../Dave/Generated/CMSIS_DSP/FilteringFunctions/arm_fir_lattice_f32.c ****  * However, if the initialization function is used, then the instance structure cannot be placed in
  88:../Dave/Generated/CMSIS_DSP/FilteringFunctions/arm_fir_lattice_f32.c ****  * To place an instance structure into a const data section, the instance structure must be manuall
  89:../Dave/Generated/CMSIS_DSP/FilteringFunctions/arm_fir_lattice_f32.c ****  * Set the values in the state buffer to zeros and then manually initialize the instance structure 
  90:../Dave/Generated/CMSIS_DSP/FilteringFunctions/arm_fir_lattice_f32.c ****  * <pre>
  91:../Dave/Generated/CMSIS_DSP/FilteringFunctions/arm_fir_lattice_f32.c ****  *arm_fir_lattice_instance_f32 S = {numStages, pState, pCoeffs};
  92:../Dave/Generated/CMSIS_DSP/FilteringFunctions/arm_fir_lattice_f32.c ****  *arm_fir_lattice_instance_q31 S = {numStages, pState, pCoeffs};
  93:../Dave/Generated/CMSIS_DSP/FilteringFunctions/arm_fir_lattice_f32.c ****  *arm_fir_lattice_instance_q15 S = {numStages, pState, pCoeffs};
  94:../Dave/Generated/CMSIS_DSP/FilteringFunctions/arm_fir_lattice_f32.c ****  * </pre>
  95:../Dave/Generated/CMSIS_DSP/FilteringFunctions/arm_fir_lattice_f32.c ****  * \par
  96:../Dave/Generated/CMSIS_DSP/FilteringFunctions/arm_fir_lattice_f32.c ****  * where <code>numStages</code> is the number of stages in the filter; <code>pState</code> is the a
  97:../Dave/Generated/CMSIS_DSP/FilteringFunctions/arm_fir_lattice_f32.c ****  * <code>pCoeffs</code> is the address of the coefficient buffer.
  98:../Dave/Generated/CMSIS_DSP/FilteringFunctions/arm_fir_lattice_f32.c ****  * \par Fixed-Point Behavior
  99:../Dave/Generated/CMSIS_DSP/FilteringFunctions/arm_fir_lattice_f32.c ****  * Care must be taken when using the fixed-point versions of the FIR Lattice filter functions.
 100:../Dave/Generated/CMSIS_DSP/FilteringFunctions/arm_fir_lattice_f32.c ****  * In particular, the overflow and saturation behavior of the accumulator used in each function mus
 101:../Dave/Generated/CMSIS_DSP/FilteringFunctions/arm_fir_lattice_f32.c ****  * Refer to the function specific documentation below for usage guidelines.
 102:../Dave/Generated/CMSIS_DSP/FilteringFunctions/arm_fir_lattice_f32.c ****  */
 103:../Dave/Generated/CMSIS_DSP/FilteringFunctions/arm_fir_lattice_f32.c **** 
 104:../Dave/Generated/CMSIS_DSP/FilteringFunctions/arm_fir_lattice_f32.c **** /**
 105:../Dave/Generated/CMSIS_DSP/FilteringFunctions/arm_fir_lattice_f32.c ****  * @addtogroup FIR_Lattice
 106:../Dave/Generated/CMSIS_DSP/FilteringFunctions/arm_fir_lattice_f32.c ****  * @{
 107:../Dave/Generated/CMSIS_DSP/FilteringFunctions/arm_fir_lattice_f32.c ****  */
 108:../Dave/Generated/CMSIS_DSP/FilteringFunctions/arm_fir_lattice_f32.c **** 
 109:../Dave/Generated/CMSIS_DSP/FilteringFunctions/arm_fir_lattice_f32.c **** 
 110:../Dave/Generated/CMSIS_DSP/FilteringFunctions/arm_fir_lattice_f32.c ****   /**
 111:../Dave/Generated/CMSIS_DSP/FilteringFunctions/arm_fir_lattice_f32.c ****    * @brief Processing function for the floating-point FIR lattice filter.
 112:../Dave/Generated/CMSIS_DSP/FilteringFunctions/arm_fir_lattice_f32.c ****    * @param[in]  *S        points to an instance of the floating-point FIR lattice structure.
 113:../Dave/Generated/CMSIS_DSP/FilteringFunctions/arm_fir_lattice_f32.c ****    * @param[in]  *pSrc     points to the block of input data.
 114:../Dave/Generated/CMSIS_DSP/FilteringFunctions/arm_fir_lattice_f32.c ****    * @param[out] *pDst     points to the block of output data
 115:../Dave/Generated/CMSIS_DSP/FilteringFunctions/arm_fir_lattice_f32.c ****    * @param[in]  blockSize number of samples to process.
 116:../Dave/Generated/CMSIS_DSP/FilteringFunctions/arm_fir_lattice_f32.c ****    * @return none.
 117:../Dave/Generated/CMSIS_DSP/FilteringFunctions/arm_fir_lattice_f32.c ****    */
 118:../Dave/Generated/CMSIS_DSP/FilteringFunctions/arm_fir_lattice_f32.c **** 
 119:../Dave/Generated/CMSIS_DSP/FilteringFunctions/arm_fir_lattice_f32.c **** void arm_fir_lattice_f32(
 120:../Dave/Generated/CMSIS_DSP/FilteringFunctions/arm_fir_lattice_f32.c ****   const arm_fir_lattice_instance_f32 * S,
 121:../Dave/Generated/CMSIS_DSP/FilteringFunctions/arm_fir_lattice_f32.c ****   float32_t * pSrc,
 122:../Dave/Generated/CMSIS_DSP/FilteringFunctions/arm_fir_lattice_f32.c ****   float32_t * pDst,
 123:../Dave/Generated/CMSIS_DSP/FilteringFunctions/arm_fir_lattice_f32.c ****   uint32_t blockSize)
 124:../Dave/Generated/CMSIS_DSP/FilteringFunctions/arm_fir_lattice_f32.c **** {
  28              	 .loc 1 124 0
  29              	 .cfi_startproc
  30              	 
  31              	 
  32              	.LVL0:
  33 0000 2DE9F04F 	 push {r4,r5,r6,r7,r8,r9,r10,fp,lr}
  34              	.LCFI0:
  35              	 .cfi_def_cfa_offset 36
  36              	 .cfi_offset 4,-36
  37              	 .cfi_offset 5,-32
  38              	 .cfi_offset 6,-28
  39              	 .cfi_offset 7,-24
  40              	 .cfi_offset 8,-20
  41              	 .cfi_offset 9,-16
  42              	 .cfi_offset 10,-12
  43              	 .cfi_offset 11,-8
  44              	 .cfi_offset 14,-4
  45 0004 87B0     	 sub sp,sp,#28
  46              	.LCFI1:
  47              	 .cfi_def_cfa_offset 64
 125:../Dave/Generated/CMSIS_DSP/FilteringFunctions/arm_fir_lattice_f32.c ****   float32_t *pState;                             /* State pointer */
 126:../Dave/Generated/CMSIS_DSP/FilteringFunctions/arm_fir_lattice_f32.c ****   float32_t *pCoeffs = S->pCoeffs;               /* Coefficient pointer */
 127:../Dave/Generated/CMSIS_DSP/FilteringFunctions/arm_fir_lattice_f32.c ****   float32_t *px;                                 /* temporary state pointer */
 128:../Dave/Generated/CMSIS_DSP/FilteringFunctions/arm_fir_lattice_f32.c ****   float32_t *pk;                                 /* temporary coefficient pointer */
 129:../Dave/Generated/CMSIS_DSP/FilteringFunctions/arm_fir_lattice_f32.c **** 
 130:../Dave/Generated/CMSIS_DSP/FilteringFunctions/arm_fir_lattice_f32.c **** 
 131:../Dave/Generated/CMSIS_DSP/FilteringFunctions/arm_fir_lattice_f32.c **** #if defined (ARM_MATH_DSP)
 132:../Dave/Generated/CMSIS_DSP/FilteringFunctions/arm_fir_lattice_f32.c **** 
 133:../Dave/Generated/CMSIS_DSP/FilteringFunctions/arm_fir_lattice_f32.c ****   /* Run the below code for Cortex-M4 and Cortex-M3 */
 134:../Dave/Generated/CMSIS_DSP/FilteringFunctions/arm_fir_lattice_f32.c **** 
 135:../Dave/Generated/CMSIS_DSP/FilteringFunctions/arm_fir_lattice_f32.c ****   float32_t fcurr1, fnext1, gcurr1, gnext1;      /* temporary variables for first sample in loop un
 136:../Dave/Generated/CMSIS_DSP/FilteringFunctions/arm_fir_lattice_f32.c ****   float32_t fcurr2, fnext2, gnext2;              /* temporary variables for second sample in loop u
 137:../Dave/Generated/CMSIS_DSP/FilteringFunctions/arm_fir_lattice_f32.c ****   float32_t fcurr3, fnext3, gnext3;              /* temporary variables for third sample in loop un
 138:../Dave/Generated/CMSIS_DSP/FilteringFunctions/arm_fir_lattice_f32.c ****   float32_t fcurr4, fnext4, gnext4;              /* temporary variables for fourth sample in loop u
 139:../Dave/Generated/CMSIS_DSP/FilteringFunctions/arm_fir_lattice_f32.c ****   uint32_t numStages = S->numStages;             /* Number of stages in the filter */
  48              	 .loc 1 139 0
  49 0006 0488     	 ldrh r4,[r0]
 124:../Dave/Generated/CMSIS_DSP/FilteringFunctions/arm_fir_lattice_f32.c ****   float32_t *pState;                             /* State pointer */
  50              	 .loc 1 124 0
  51 0008 0593     	 str r3,[sp,#20]
 140:../Dave/Generated/CMSIS_DSP/FilteringFunctions/arm_fir_lattice_f32.c ****   uint32_t blkCnt, stageCnt;                     /* temporary variables for counts */
 141:../Dave/Generated/CMSIS_DSP/FilteringFunctions/arm_fir_lattice_f32.c **** 
 142:../Dave/Generated/CMSIS_DSP/FilteringFunctions/arm_fir_lattice_f32.c ****   gcurr1 = 0.0f;
 143:../Dave/Generated/CMSIS_DSP/FilteringFunctions/arm_fir_lattice_f32.c ****   pState = &S->pState[0];
 144:../Dave/Generated/CMSIS_DSP/FilteringFunctions/arm_fir_lattice_f32.c **** 
 145:../Dave/Generated/CMSIS_DSP/FilteringFunctions/arm_fir_lattice_f32.c ****   blkCnt = blockSize >> 2;
 146:../Dave/Generated/CMSIS_DSP/FilteringFunctions/arm_fir_lattice_f32.c **** 
 147:../Dave/Generated/CMSIS_DSP/FilteringFunctions/arm_fir_lattice_f32.c ****   /* First part of the processing with loop unrolling.  Compute 4 outputs at a time.
 148:../Dave/Generated/CMSIS_DSP/FilteringFunctions/arm_fir_lattice_f32.c ****      a second loop below computes the remaining 1 to 3 samples. */
 149:../Dave/Generated/CMSIS_DSP/FilteringFunctions/arm_fir_lattice_f32.c ****   while (blkCnt > 0u)
  52              	 .loc 1 149 0
  53 000a 9B08     	 lsrs r3,r3,#2
  54              	.LVL1:
 126:../Dave/Generated/CMSIS_DSP/FilteringFunctions/arm_fir_lattice_f32.c ****   float32_t *px;                                 /* temporary state pointer */
  55              	 .loc 1 126 0
  56 000c 8768     	 ldr r7,[r0,#8]
  57              	.LVL2:
 139:../Dave/Generated/CMSIS_DSP/FilteringFunctions/arm_fir_lattice_f32.c ****   uint32_t blkCnt, stageCnt;                     /* temporary variables for counts */
  58              	 .loc 1 139 0
  59 000e 0394     	 str r4,[sp,#12]
  60              	.LVL3:
 143:../Dave/Generated/CMSIS_DSP/FilteringFunctions/arm_fir_lattice_f32.c **** 
  61              	 .loc 1 143 0
  62 0010 4668     	 ldr r6,[r0,#4]
  63              	.LVL4:
  64              	 .loc 1 149 0
  65 0012 0493     	 str r3,[sp,#16]
  66 0014 00F02281 	 beq .L2
  67 0018 04F1FF3C 	 add ip,r4,#-1
  68 001c 4FEA9C08 	 lsr r8,ip,#2
  69 0020 4FEA0819 	 lsl r9,r8,#4
  70 0024 301D     	 adds r0,r6,#4
  71              	.LVL5:
  72 0026 3C1D     	 adds r4,r7,#4
  73              	.LVL6:
  74 0028 0CF0030C 	 and ip,ip,#3
  75 002c 00EB090A 	 add r10,r0,r9
  76 0030 0190     	 str r0,[sp,#4]
  77 0032 9E46     	 mov lr,r3
  78 0034 0846     	 mov r0,r1
  79 0036 1346     	 mov r3,r2
  80 0038 0294     	 str r4,[sp,#8]
  81 003a A144     	 add r9,r9,r4
  82 003c 01F11005 	 add r5,r1,#16
  83 0040 02F11004 	 add r4,r2,#16
  84 0044 6146     	 mov r1,ip
  85              	.LVL7:
  86 0046 4246     	 mov r2,r8
  87              	.LVL8:
  88 0048 8446     	 mov ip,r0
  89 004a 9846     	 mov r8,r3
  90              	.LVL9:
  91              	.L7:
 150:../Dave/Generated/CMSIS_DSP/FilteringFunctions/arm_fir_lattice_f32.c ****   {
 151:../Dave/Generated/CMSIS_DSP/FilteringFunctions/arm_fir_lattice_f32.c **** 
 152:../Dave/Generated/CMSIS_DSP/FilteringFunctions/arm_fir_lattice_f32.c ****     /* Read two samples from input buffer */
 153:../Dave/Generated/CMSIS_DSP/FilteringFunctions/arm_fir_lattice_f32.c ****     /* f0(n) = x(n) */
 154:../Dave/Generated/CMSIS_DSP/FilteringFunctions/arm_fir_lattice_f32.c ****     fcurr1 = *pSrc++;
 155:../Dave/Generated/CMSIS_DSP/FilteringFunctions/arm_fir_lattice_f32.c ****     fcurr2 = *pSrc++;
 156:../Dave/Generated/CMSIS_DSP/FilteringFunctions/arm_fir_lattice_f32.c **** 
 157:../Dave/Generated/CMSIS_DSP/FilteringFunctions/arm_fir_lattice_f32.c ****     /* Initialize coeff pointer */
 158:../Dave/Generated/CMSIS_DSP/FilteringFunctions/arm_fir_lattice_f32.c ****     pk = (pCoeffs);
 159:../Dave/Generated/CMSIS_DSP/FilteringFunctions/arm_fir_lattice_f32.c **** 
 160:../Dave/Generated/CMSIS_DSP/FilteringFunctions/arm_fir_lattice_f32.c ****     /* Initialize state pointer */
 161:../Dave/Generated/CMSIS_DSP/FilteringFunctions/arm_fir_lattice_f32.c ****     px = pState;
 162:../Dave/Generated/CMSIS_DSP/FilteringFunctions/arm_fir_lattice_f32.c **** 
 163:../Dave/Generated/CMSIS_DSP/FilteringFunctions/arm_fir_lattice_f32.c ****     /* Read g0(n-1) from state */
 164:../Dave/Generated/CMSIS_DSP/FilteringFunctions/arm_fir_lattice_f32.c ****     gcurr1 = *px;
 165:../Dave/Generated/CMSIS_DSP/FilteringFunctions/arm_fir_lattice_f32.c **** 
 166:../Dave/Generated/CMSIS_DSP/FilteringFunctions/arm_fir_lattice_f32.c ****     /* Process first sample for first tap */
 167:../Dave/Generated/CMSIS_DSP/FilteringFunctions/arm_fir_lattice_f32.c ****     /* f1(n) = f0(n) +  K1 * g0(n-1) */
 168:../Dave/Generated/CMSIS_DSP/FilteringFunctions/arm_fir_lattice_f32.c ****     fnext1 = fcurr1 + ((*pk) * gcurr1);
 169:../Dave/Generated/CMSIS_DSP/FilteringFunctions/arm_fir_lattice_f32.c ****     /* g1(n) = f0(n) * K1  +  g0(n-1) */
 170:../Dave/Generated/CMSIS_DSP/FilteringFunctions/arm_fir_lattice_f32.c ****     gnext1 = (fcurr1 * (*pk)) + gcurr1;
 171:../Dave/Generated/CMSIS_DSP/FilteringFunctions/arm_fir_lattice_f32.c **** 
 172:../Dave/Generated/CMSIS_DSP/FilteringFunctions/arm_fir_lattice_f32.c ****     /* Process second sample for first tap */
 173:../Dave/Generated/CMSIS_DSP/FilteringFunctions/arm_fir_lattice_f32.c ****     /* for sample 2 processing */
 174:../Dave/Generated/CMSIS_DSP/FilteringFunctions/arm_fir_lattice_f32.c ****     fnext2 = fcurr2 + ((*pk) * fcurr1);
 175:../Dave/Generated/CMSIS_DSP/FilteringFunctions/arm_fir_lattice_f32.c ****     gnext2 = (fcurr2 * (*pk)) + fcurr1;
 176:../Dave/Generated/CMSIS_DSP/FilteringFunctions/arm_fir_lattice_f32.c **** 
 177:../Dave/Generated/CMSIS_DSP/FilteringFunctions/arm_fir_lattice_f32.c ****     /* Read next two samples from input buffer */
 178:../Dave/Generated/CMSIS_DSP/FilteringFunctions/arm_fir_lattice_f32.c ****     /* f0(n+2) = x(n+2) */
 179:../Dave/Generated/CMSIS_DSP/FilteringFunctions/arm_fir_lattice_f32.c ****     fcurr3 = *pSrc++;
 180:../Dave/Generated/CMSIS_DSP/FilteringFunctions/arm_fir_lattice_f32.c ****     fcurr4 = *pSrc++;
  92              	 .loc 1 180 0
  93 004c 55ED013A 	 flds s7,[r5,#-4]
 154:../Dave/Generated/CMSIS_DSP/FilteringFunctions/arm_fir_lattice_f32.c ****     fcurr2 = *pSrc++;
  94              	 .loc 1 154 0
  95 0050 15ED045A 	 flds s10,[r5,#-16]
  96              	.LVL10:
 155:../Dave/Generated/CMSIS_DSP/FilteringFunctions/arm_fir_lattice_f32.c **** 
  97              	 .loc 1 155 0
  98 0054 55ED035A 	 flds s11,[r5,#-12]
  99              	.LVL11:
 168:../Dave/Generated/CMSIS_DSP/FilteringFunctions/arm_fir_lattice_f32.c ****     /* g1(n) = f0(n) * K1  +  g0(n-1) */
 100              	 .loc 1 168 0
 101 0058 97ED007A 	 flds s14,[r7]
 179:../Dave/Generated/CMSIS_DSP/FilteringFunctions/arm_fir_lattice_f32.c ****     fcurr4 = *pSrc++;
 102              	 .loc 1 179 0
 103 005c 55ED027A 	 flds s15,[r5,#-8]
 164:../Dave/Generated/CMSIS_DSP/FilteringFunctions/arm_fir_lattice_f32.c **** 
 104              	 .loc 1 164 0
 105 0060 D6ED002A 	 flds s5,[r6]
 106              	.LVL12:
 181:../Dave/Generated/CMSIS_DSP/FilteringFunctions/arm_fir_lattice_f32.c **** 
 182:../Dave/Generated/CMSIS_DSP/FilteringFunctions/arm_fir_lattice_f32.c ****     /* Copy only last input samples into the state buffer
 183:../Dave/Generated/CMSIS_DSP/FilteringFunctions/arm_fir_lattice_f32.c ****        which will be used for next four samples processing */
 184:../Dave/Generated/CMSIS_DSP/FilteringFunctions/arm_fir_lattice_f32.c ****     *px++ = fcurr4;
 107              	 .loc 1 184 0
 108 0064 C6ED003A 	 fsts s7,[r6]
 185:../Dave/Generated/CMSIS_DSP/FilteringFunctions/arm_fir_lattice_f32.c **** 
 186:../Dave/Generated/CMSIS_DSP/FilteringFunctions/arm_fir_lattice_f32.c ****     /* Process third sample for first tap */
 187:../Dave/Generated/CMSIS_DSP/FilteringFunctions/arm_fir_lattice_f32.c ****     fnext3 = fcurr3 + ((*pk) * fcurr2);
 109              	 .loc 1 187 0
 110 0068 D7ED004A 	 flds s9,[r7]
 168:../Dave/Generated/CMSIS_DSP/FilteringFunctions/arm_fir_lattice_f32.c ****     /* g1(n) = f0(n) * K1  +  g0(n-1) */
 111              	 .loc 1 168 0
 112 006c F0EE451A 	 fcpys s3,s10
 113              	 .loc 1 187 0
 114 0070 B0EE674A 	 fcpys s8,s15
 188:../Dave/Generated/CMSIS_DSP/FilteringFunctions/arm_fir_lattice_f32.c ****     gnext3 = (fcurr3 * (*pk)) + fcurr2;
 115              	 .loc 1 188 0
 116 0074 B0EE656A 	 fcpys s12,s11
 189:../Dave/Generated/CMSIS_DSP/FilteringFunctions/arm_fir_lattice_f32.c **** 
 190:../Dave/Generated/CMSIS_DSP/FilteringFunctions/arm_fir_lattice_f32.c ****     /* Process fourth sample for first tap */
 191:../Dave/Generated/CMSIS_DSP/FilteringFunctions/arm_fir_lattice_f32.c ****     fnext4 = fcurr4 + ((*pk) * fcurr3);
 117              	 .loc 1 191 0
 118 0078 F0EE636A 	 fcpys s13,s7
 174:../Dave/Generated/CMSIS_DSP/FilteringFunctions/arm_fir_lattice_f32.c ****     gnext2 = (fcurr2 * (*pk)) + fcurr1;
 119              	 .loc 1 174 0
 120 007c B0EE653A 	 fcpys s6,s11
 168:../Dave/Generated/CMSIS_DSP/FilteringFunctions/arm_fir_lattice_f32.c ****     /* g1(n) = f0(n) * K1  +  g0(n-1) */
 121              	 .loc 1 168 0
 122 0080 E7EE221A 	 vfma.f32 s3,s14,s5
 123              	.LVL13:
 188:../Dave/Generated/CMSIS_DSP/FilteringFunctions/arm_fir_lattice_f32.c **** 
 124              	 .loc 1 188 0
 125 0084 A7EEA46A 	 vfma.f32 s12,s15,s9
 126              	 .loc 1 191 0
 127 0088 E7EEA46A 	 vfma.f32 s13,s15,s9
 170:../Dave/Generated/CMSIS_DSP/FilteringFunctions/arm_fir_lattice_f32.c **** 
 128              	 .loc 1 170 0
 129 008c E5EE072A 	 vfma.f32 s5,s10,s14
 130              	.LVL14:
 174:../Dave/Generated/CMSIS_DSP/FilteringFunctions/arm_fir_lattice_f32.c ****     gnext2 = (fcurr2 * (*pk)) + fcurr1;
 131              	 .loc 1 174 0
 132 0090 A5EE073A 	 vfma.f32 s6,s10,s14
 133              	.LVL15:
 187:../Dave/Generated/CMSIS_DSP/FilteringFunctions/arm_fir_lattice_f32.c ****     gnext3 = (fcurr3 * (*pk)) + fcurr2;
 134              	 .loc 1 187 0
 135 0094 A4EEA54A 	 vfma.f32 s8,s9,s11
 192:../Dave/Generated/CMSIS_DSP/FilteringFunctions/arm_fir_lattice_f32.c ****     gnext4 = (fcurr4 * (*pk++)) + fcurr3;
 136              	 .loc 1 192 0
 137 0098 E3EEA47A 	 vfma.f32 s15,s7,s9
 175:../Dave/Generated/CMSIS_DSP/FilteringFunctions/arm_fir_lattice_f32.c **** 
 138              	 .loc 1 175 0
 139 009c A5EE875A 	 vfma.f32 s10,s11,s14
 140              	.LVL16:
 193:../Dave/Generated/CMSIS_DSP/FilteringFunctions/arm_fir_lattice_f32.c **** 
 194:../Dave/Generated/CMSIS_DSP/FilteringFunctions/arm_fir_lattice_f32.c ****     /* Update of f values for next coefficient set processing */
 195:../Dave/Generated/CMSIS_DSP/FilteringFunctions/arm_fir_lattice_f32.c ****     fcurr1 = fnext1;
 196:../Dave/Generated/CMSIS_DSP/FilteringFunctions/arm_fir_lattice_f32.c ****     fcurr2 = fnext2;
 197:../Dave/Generated/CMSIS_DSP/FilteringFunctions/arm_fir_lattice_f32.c ****     fcurr3 = fnext3;
 198:../Dave/Generated/CMSIS_DSP/FilteringFunctions/arm_fir_lattice_f32.c ****     fcurr4 = fnext4;
 199:../Dave/Generated/CMSIS_DSP/FilteringFunctions/arm_fir_lattice_f32.c **** 
 200:../Dave/Generated/CMSIS_DSP/FilteringFunctions/arm_fir_lattice_f32.c ****     /* Loop unrolling.  Process 4 taps at a time . */
 201:../Dave/Generated/CMSIS_DSP/FilteringFunctions/arm_fir_lattice_f32.c ****     stageCnt = (numStages - 1u) >> 2u;
 202:../Dave/Generated/CMSIS_DSP/FilteringFunctions/arm_fir_lattice_f32.c **** 
 203:../Dave/Generated/CMSIS_DSP/FilteringFunctions/arm_fir_lattice_f32.c ****     /* Loop over the number of taps.  Unroll by a factor of 4.
 204:../Dave/Generated/CMSIS_DSP/FilteringFunctions/arm_fir_lattice_f32.c ****      ** Repeat until we've computed numStages-3 coefficients. */
 205:../Dave/Generated/CMSIS_DSP/FilteringFunctions/arm_fir_lattice_f32.c **** 
 206:../Dave/Generated/CMSIS_DSP/FilteringFunctions/arm_fir_lattice_f32.c ****     /* Process 2nd, 3rd, 4th and 5th taps ... here */
 207:../Dave/Generated/CMSIS_DSP/FilteringFunctions/arm_fir_lattice_f32.c ****     while (stageCnt > 0u)
 141              	 .loc 1 207 0
 142 00a0 002A     	 cmp r2,#0
 143 00a2 00F02481 	 beq .L13
 144 00a6 06F11403 	 add r3,r6,#20
 145 00aa 07F11400 	 add r0,r7,#20
 146 00ae 9346     	 mov fp,r2
 147              	.LVL17:
 148              	.L4:
 208:../Dave/Generated/CMSIS_DSP/FilteringFunctions/arm_fir_lattice_f32.c ****     {
 209:../Dave/Generated/CMSIS_DSP/FilteringFunctions/arm_fir_lattice_f32.c ****       /* Read g1(n-1), g3(n-1) .... from state */
 210:../Dave/Generated/CMSIS_DSP/FilteringFunctions/arm_fir_lattice_f32.c ****       gcurr1 = *px;
 149              	 .loc 1 210 0
 150 00b0 13ED047A 	 flds s14,[r3,#-16]
 151              	.LVL18:
 211:../Dave/Generated/CMSIS_DSP/FilteringFunctions/arm_fir_lattice_f32.c **** 
 212:../Dave/Generated/CMSIS_DSP/FilteringFunctions/arm_fir_lattice_f32.c ****       /* save g1(n) in state buffer */
 213:../Dave/Generated/CMSIS_DSP/FilteringFunctions/arm_fir_lattice_f32.c ****       *px++ = gnext4;
 152              	 .loc 1 213 0
 153 00b4 43ED047A 	 fsts s15,[r3,#-16]
 214:../Dave/Generated/CMSIS_DSP/FilteringFunctions/arm_fir_lattice_f32.c **** 
 215:../Dave/Generated/CMSIS_DSP/FilteringFunctions/arm_fir_lattice_f32.c ****       /* Process first sample for 2nd, 6th .. tap */
 216:../Dave/Generated/CMSIS_DSP/FilteringFunctions/arm_fir_lattice_f32.c ****       /* Sample processing for K2, K6.... */
 217:../Dave/Generated/CMSIS_DSP/FilteringFunctions/arm_fir_lattice_f32.c ****       /* f2(n) = f1(n) +  K2 * g1(n-1) */
 218:../Dave/Generated/CMSIS_DSP/FilteringFunctions/arm_fir_lattice_f32.c ****       fnext1 = fcurr1 + ((*pk) * gcurr1);
 154              	 .loc 1 218 0
 155 00b8 50ED047A 	 flds s15,[r0,#-16]
 156              	.LVL19:
 219:../Dave/Generated/CMSIS_DSP/FilteringFunctions/arm_fir_lattice_f32.c ****       /* Process second sample for 2nd, 6th .. tap */
 220:../Dave/Generated/CMSIS_DSP/FilteringFunctions/arm_fir_lattice_f32.c ****       /* for sample 2 processing */
 221:../Dave/Generated/CMSIS_DSP/FilteringFunctions/arm_fir_lattice_f32.c ****       fnext2 = fcurr2 + ((*pk) * gnext1);
 222:../Dave/Generated/CMSIS_DSP/FilteringFunctions/arm_fir_lattice_f32.c ****       /* Process third sample for 2nd, 6th .. tap */
 223:../Dave/Generated/CMSIS_DSP/FilteringFunctions/arm_fir_lattice_f32.c ****       fnext3 = fcurr3 + ((*pk) * gnext2);
 224:../Dave/Generated/CMSIS_DSP/FilteringFunctions/arm_fir_lattice_f32.c ****       /* Process fourth sample for 2nd, 6th .. tap */
 225:../Dave/Generated/CMSIS_DSP/FilteringFunctions/arm_fir_lattice_f32.c ****       fnext4 = fcurr4 + ((*pk) * gnext3);
 226:../Dave/Generated/CMSIS_DSP/FilteringFunctions/arm_fir_lattice_f32.c **** 
 227:../Dave/Generated/CMSIS_DSP/FilteringFunctions/arm_fir_lattice_f32.c ****       /* g2(n) = f1(n) * K2  +  g1(n-1) */
 228:../Dave/Generated/CMSIS_DSP/FilteringFunctions/arm_fir_lattice_f32.c ****       /* Calculation of state values for next stage */
 229:../Dave/Generated/CMSIS_DSP/FilteringFunctions/arm_fir_lattice_f32.c ****       gnext4 = (fcurr4 * (*pk)) + gnext3;
 230:../Dave/Generated/CMSIS_DSP/FilteringFunctions/arm_fir_lattice_f32.c ****       gnext3 = (fcurr3 * (*pk)) + gnext2;
 231:../Dave/Generated/CMSIS_DSP/FilteringFunctions/arm_fir_lattice_f32.c ****       gnext2 = (fcurr2 * (*pk)) + gnext1;
 232:../Dave/Generated/CMSIS_DSP/FilteringFunctions/arm_fir_lattice_f32.c ****       gnext1 = (fcurr1 * (*pk++)) + gcurr1;
 233:../Dave/Generated/CMSIS_DSP/FilteringFunctions/arm_fir_lattice_f32.c **** 
 234:../Dave/Generated/CMSIS_DSP/FilteringFunctions/arm_fir_lattice_f32.c **** 
 235:../Dave/Generated/CMSIS_DSP/FilteringFunctions/arm_fir_lattice_f32.c ****       /* Read g2(n-1), g4(n-1) .... from state */
 236:../Dave/Generated/CMSIS_DSP/FilteringFunctions/arm_fir_lattice_f32.c ****       gcurr1 = *px;
 157              	 .loc 1 236 0
 158 00bc 53ED035A 	 flds s11,[r3,#-12]
 237:../Dave/Generated/CMSIS_DSP/FilteringFunctions/arm_fir_lattice_f32.c **** 
 238:../Dave/Generated/CMSIS_DSP/FilteringFunctions/arm_fir_lattice_f32.c ****       /* save g2(n) in state buffer */
 239:../Dave/Generated/CMSIS_DSP/FilteringFunctions/arm_fir_lattice_f32.c ****       *px++ = gnext4;
 240:../Dave/Generated/CMSIS_DSP/FilteringFunctions/arm_fir_lattice_f32.c **** 
 241:../Dave/Generated/CMSIS_DSP/FilteringFunctions/arm_fir_lattice_f32.c ****       /* Sample processing for K3, K7.... */
 242:../Dave/Generated/CMSIS_DSP/FilteringFunctions/arm_fir_lattice_f32.c ****       /* Process first sample for 3rd, 7th .. tap */
 243:../Dave/Generated/CMSIS_DSP/FilteringFunctions/arm_fir_lattice_f32.c ****       /* f3(n) = f2(n) +  K3 * g2(n-1) */
 244:../Dave/Generated/CMSIS_DSP/FilteringFunctions/arm_fir_lattice_f32.c ****       fcurr1 = fnext1 + ((*pk) * gcurr1);
 245:../Dave/Generated/CMSIS_DSP/FilteringFunctions/arm_fir_lattice_f32.c ****       /* Process second sample for 3rd, 7th .. tap */
 246:../Dave/Generated/CMSIS_DSP/FilteringFunctions/arm_fir_lattice_f32.c ****       fcurr2 = fnext2 + ((*pk) * gnext1);
 247:../Dave/Generated/CMSIS_DSP/FilteringFunctions/arm_fir_lattice_f32.c ****       /* Process third sample for 3rd, 7th .. tap */
 248:../Dave/Generated/CMSIS_DSP/FilteringFunctions/arm_fir_lattice_f32.c ****       fcurr3 = fnext3 + ((*pk) * gnext2);
 249:../Dave/Generated/CMSIS_DSP/FilteringFunctions/arm_fir_lattice_f32.c ****       /* Process fourth sample for 3rd, 7th .. tap */
 250:../Dave/Generated/CMSIS_DSP/FilteringFunctions/arm_fir_lattice_f32.c ****       fcurr4 = fnext4 + ((*pk) * gnext3);
 251:../Dave/Generated/CMSIS_DSP/FilteringFunctions/arm_fir_lattice_f32.c **** 
 252:../Dave/Generated/CMSIS_DSP/FilteringFunctions/arm_fir_lattice_f32.c ****       /* Calculation of state values for next stage */
 253:../Dave/Generated/CMSIS_DSP/FilteringFunctions/arm_fir_lattice_f32.c ****       /* g3(n) = f2(n) * K3  +  g2(n-1) */
 254:../Dave/Generated/CMSIS_DSP/FilteringFunctions/arm_fir_lattice_f32.c ****       gnext4 = (fnext4 * (*pk)) + gnext3;
 255:../Dave/Generated/CMSIS_DSP/FilteringFunctions/arm_fir_lattice_f32.c ****       gnext3 = (fnext3 * (*pk)) + gnext2;
 256:../Dave/Generated/CMSIS_DSP/FilteringFunctions/arm_fir_lattice_f32.c ****       gnext2 = (fnext2 * (*pk)) + gnext1;
 257:../Dave/Generated/CMSIS_DSP/FilteringFunctions/arm_fir_lattice_f32.c ****       gnext1 = (fnext1 * (*pk++)) + gcurr1;
 258:../Dave/Generated/CMSIS_DSP/FilteringFunctions/arm_fir_lattice_f32.c **** 
 259:../Dave/Generated/CMSIS_DSP/FilteringFunctions/arm_fir_lattice_f32.c **** 
 260:../Dave/Generated/CMSIS_DSP/FilteringFunctions/arm_fir_lattice_f32.c ****       /* Read g1(n-1), g3(n-1) .... from state */
 261:../Dave/Generated/CMSIS_DSP/FilteringFunctions/arm_fir_lattice_f32.c ****       gcurr1 = *px;
 159              	 .loc 1 261 0
 160 00c0 53ED024A 	 flds s9,[r3,#-8]
 262:../Dave/Generated/CMSIS_DSP/FilteringFunctions/arm_fir_lattice_f32.c **** 
 263:../Dave/Generated/CMSIS_DSP/FilteringFunctions/arm_fir_lattice_f32.c ****       /* save g3(n) in state buffer */
 264:../Dave/Generated/CMSIS_DSP/FilteringFunctions/arm_fir_lattice_f32.c ****       *px++ = gnext4;
 265:../Dave/Generated/CMSIS_DSP/FilteringFunctions/arm_fir_lattice_f32.c **** 
 266:../Dave/Generated/CMSIS_DSP/FilteringFunctions/arm_fir_lattice_f32.c ****       /* Sample processing for K4, K8.... */
 267:../Dave/Generated/CMSIS_DSP/FilteringFunctions/arm_fir_lattice_f32.c ****       /* Process first sample for 4th, 8th .. tap */
 268:../Dave/Generated/CMSIS_DSP/FilteringFunctions/arm_fir_lattice_f32.c ****       /* f4(n) = f3(n) +  K4 * g3(n-1) */
 269:../Dave/Generated/CMSIS_DSP/FilteringFunctions/arm_fir_lattice_f32.c ****       fnext1 = fcurr1 + ((*pk) * gcurr1);
 270:../Dave/Generated/CMSIS_DSP/FilteringFunctions/arm_fir_lattice_f32.c ****       /* Process second sample for 4th, 8th .. tap */
 271:../Dave/Generated/CMSIS_DSP/FilteringFunctions/arm_fir_lattice_f32.c ****       /* for sample 2 processing */
 272:../Dave/Generated/CMSIS_DSP/FilteringFunctions/arm_fir_lattice_f32.c ****       fnext2 = fcurr2 + ((*pk) * gnext1);
 273:../Dave/Generated/CMSIS_DSP/FilteringFunctions/arm_fir_lattice_f32.c ****       /* Process third sample for 4th, 8th .. tap */
 274:../Dave/Generated/CMSIS_DSP/FilteringFunctions/arm_fir_lattice_f32.c ****       fnext3 = fcurr3 + ((*pk) * gnext2);
 275:../Dave/Generated/CMSIS_DSP/FilteringFunctions/arm_fir_lattice_f32.c ****       /* Process fourth sample for 4th, 8th .. tap */
 276:../Dave/Generated/CMSIS_DSP/FilteringFunctions/arm_fir_lattice_f32.c ****       fnext4 = fcurr4 + ((*pk) * gnext3);
 277:../Dave/Generated/CMSIS_DSP/FilteringFunctions/arm_fir_lattice_f32.c **** 
 278:../Dave/Generated/CMSIS_DSP/FilteringFunctions/arm_fir_lattice_f32.c ****       /* g4(n) = f3(n) * K4  +  g3(n-1) */
 279:../Dave/Generated/CMSIS_DSP/FilteringFunctions/arm_fir_lattice_f32.c ****       /* Calculation of state values for next stage */
 280:../Dave/Generated/CMSIS_DSP/FilteringFunctions/arm_fir_lattice_f32.c ****       gnext4 = (fcurr4 * (*pk)) + gnext3;
 281:../Dave/Generated/CMSIS_DSP/FilteringFunctions/arm_fir_lattice_f32.c ****       gnext3 = (fcurr3 * (*pk)) + gnext2;
 282:../Dave/Generated/CMSIS_DSP/FilteringFunctions/arm_fir_lattice_f32.c ****       gnext2 = (fcurr2 * (*pk)) + gnext1;
 283:../Dave/Generated/CMSIS_DSP/FilteringFunctions/arm_fir_lattice_f32.c ****       gnext1 = (fcurr1 * (*pk++)) + gcurr1;
 284:../Dave/Generated/CMSIS_DSP/FilteringFunctions/arm_fir_lattice_f32.c **** 
 285:../Dave/Generated/CMSIS_DSP/FilteringFunctions/arm_fir_lattice_f32.c ****       /* Read g2(n-1), g4(n-1) .... from state */
 286:../Dave/Generated/CMSIS_DSP/FilteringFunctions/arm_fir_lattice_f32.c ****       gcurr1 = *px;
 161              	 .loc 1 286 0
 162 00c4 13ED012A 	 flds s4,[r3,#-4]
 229:../Dave/Generated/CMSIS_DSP/FilteringFunctions/arm_fir_lattice_f32.c ****       gnext3 = (fcurr3 * (*pk)) + gnext2;
 163              	 .loc 1 229 0
 164 00c8 F0EE463A 	 fcpys s7,s12
 165 00cc E6EEA73A 	 vfma.f32 s7,s13,s15
 207:../Dave/Generated/CMSIS_DSP/FilteringFunctions/arm_fir_lattice_f32.c ****     {
 166              	 .loc 1 207 0
 167 00d0 BBF1010B 	 subs fp,fp,#1
 168              	.LVL20:
 169 00d4 03F11003 	 add r3,r3,#16
 170              	.LVL21:
 230:../Dave/Generated/CMSIS_DSP/FilteringFunctions/arm_fir_lattice_f32.c ****       gnext2 = (fcurr2 * (*pk)) + gnext1;
 171              	 .loc 1 230 0
 172 00d8 B0EE451A 	 fcpys s2,s10
 173 00dc A4EE271A 	 vfma.f32 s2,s8,s15
 174 00e0 00F11000 	 add r0,r0,#16
 223:../Dave/Generated/CMSIS_DSP/FilteringFunctions/arm_fir_lattice_f32.c ****       /* Process fourth sample for 2nd, 6th .. tap */
 175              	 .loc 1 223 0
 176 00e4 A5EE274A 	 vfma.f32 s8,s10,s15
 177              	.LVL22:
 231:../Dave/Generated/CMSIS_DSP/FilteringFunctions/arm_fir_lattice_f32.c ****       gnext1 = (fcurr1 * (*pk++)) + gcurr1;
 178              	 .loc 1 231 0
 179 00e8 B0EE625A 	 fcpys s10,s5
 180              	.LVL23:
 225:../Dave/Generated/CMSIS_DSP/FilteringFunctions/arm_fir_lattice_f32.c **** 
 181              	 .loc 1 225 0
 182 00ec E6EE276A 	 vfma.f32 s13,s12,s15
 183              	.LVL24:
 231:../Dave/Generated/CMSIS_DSP/FilteringFunctions/arm_fir_lattice_f32.c ****       gnext1 = (fcurr1 * (*pk++)) + gcurr1;
 184              	 .loc 1 231 0
 185 00f0 A3EE275A 	 vfma.f32 s10,s6,s15
 218:../Dave/Generated/CMSIS_DSP/FilteringFunctions/arm_fir_lattice_f32.c ****       /* Process second sample for 2nd, 6th .. tap */
 186              	 .loc 1 218 0
 187 00f4 B0EE616A 	 fcpys s12,s3
 188              	.LVL25:
 189 00f8 A7EE876A 	 vfma.f32 s12,s15,s14
 190              	.LVL26:
 239:../Dave/Generated/CMSIS_DSP/FilteringFunctions/arm_fir_lattice_f32.c **** 
 191              	 .loc 1 239 0
 192 00fc 43ED073A 	 fsts s7,[r3,#-28]
 244:../Dave/Generated/CMSIS_DSP/FilteringFunctions/arm_fir_lattice_f32.c ****       /* Process second sample for 3rd, 7th .. tap */
 193              	 .loc 1 244 0
 194 0100 50ED073A 	 flds s7,[r0,#-28]
 221:../Dave/Generated/CMSIS_DSP/FilteringFunctions/arm_fir_lattice_f32.c ****       /* Process third sample for 2nd, 6th .. tap */
 195              	 .loc 1 221 0
 196 0104 A2EEA73A 	 vfma.f32 s6,s5,s15
 197              	.LVL27:
 254:../Dave/Generated/CMSIS_DSP/FilteringFunctions/arm_fir_lattice_f32.c ****       gnext3 = (fnext3 * (*pk)) + gnext2;
 198              	 .loc 1 254 0
 199 0108 F0EE410A 	 fcpys s1,s2
 255:../Dave/Generated/CMSIS_DSP/FilteringFunctions/arm_fir_lattice_f32.c ****       gnext2 = (fnext2 * (*pk)) + gnext1;
 200              	 .loc 1 255 0
 201 010c F0EE452A 	 fcpys s5,s10
 202              	.LVL28:
 203 0110 E4EE232A 	 vfma.f32 s5,s8,s7
 254:../Dave/Generated/CMSIS_DSP/FilteringFunctions/arm_fir_lattice_f32.c ****       gnext3 = (fnext3 * (*pk)) + gnext2;
 204              	 .loc 1 254 0
 205 0114 E6EEA30A 	 vfma.f32 s1,s13,s7
 248:../Dave/Generated/CMSIS_DSP/FilteringFunctions/arm_fir_lattice_f32.c ****       /* Process fourth sample for 3rd, 7th .. tap */
 206              	 .loc 1 248 0
 207 0118 A5EE234A 	 vfma.f32 s8,s10,s7
 208              	.LVL29:
 232:../Dave/Generated/CMSIS_DSP/FilteringFunctions/arm_fir_lattice_f32.c **** 
 209              	 .loc 1 232 0
 210 011c A1EEA77A 	 vfma.f32 s14,s3,s15
 211              	.LVL30:
 244:../Dave/Generated/CMSIS_DSP/FilteringFunctions/arm_fir_lattice_f32.c ****       /* Process second sample for 3rd, 7th .. tap */
 212              	 .loc 1 244 0
 213 0120 B0EE465A 	 fcpys s10,s12
 214              	.LVL31:
 215 0124 A3EEA55A 	 vfma.f32 s10,s7,s11
 257:../Dave/Generated/CMSIS_DSP/FilteringFunctions/arm_fir_lattice_f32.c **** 
 216              	 .loc 1 257 0
 217 0128 E6EE235A 	 vfma.f32 s11,s12,s7
 232:../Dave/Generated/CMSIS_DSP/FilteringFunctions/arm_fir_lattice_f32.c **** 
 218              	 .loc 1 232 0
 219 012c F0EE477A 	 fcpys s15,s14
 220              	.LVL32:
 264:../Dave/Generated/CMSIS_DSP/FilteringFunctions/arm_fir_lattice_f32.c **** 
 221              	 .loc 1 264 0
 222 0130 43ED060A 	 fsts s1,[r3,#-24]
 250:../Dave/Generated/CMSIS_DSP/FilteringFunctions/arm_fir_lattice_f32.c **** 
 223              	 .loc 1 250 0
 224 0134 B0EE667A 	 fcpys s14,s13
 225              	.LVL33:
 226 0138 A1EE237A 	 vfma.f32 s14,s2,s7
 269:../Dave/Generated/CMSIS_DSP/FilteringFunctions/arm_fir_lattice_f32.c ****       /* Process second sample for 4th, 8th .. tap */
 227              	 .loc 1 269 0
 228 013c 50ED066A 	 flds s13,[r0,#-24]
 229              	.LVL34:
 257:../Dave/Generated/CMSIS_DSP/FilteringFunctions/arm_fir_lattice_f32.c **** 
 230              	 .loc 1 257 0
 231 0140 B0EE656A 	 fcpys s12,s11
 232              	.LVL35:
 246:../Dave/Generated/CMSIS_DSP/FilteringFunctions/arm_fir_lattice_f32.c ****       /* Process third sample for 3rd, 7th .. tap */
 233              	 .loc 1 246 0
 234 0144 F0EE435A 	 fcpys s11,s6
 235 0148 E7EEA35A 	 vfma.f32 s11,s15,s7
 236              	.LVL36:
 256:../Dave/Generated/CMSIS_DSP/FilteringFunctions/arm_fir_lattice_f32.c ****       gnext1 = (fnext1 * (*pk++)) + gcurr1;
 237              	 .loc 1 256 0
 238 014c E3EE237A 	 vfma.f32 s15,s6,s7
 239              	.LVL37:
 269:../Dave/Generated/CMSIS_DSP/FilteringFunctions/arm_fir_lattice_f32.c ****       /* Process second sample for 4th, 8th .. tap */
 240              	 .loc 1 269 0
 241 0150 B0EE453A 	 fcpys s6,s10
 242              	.LVL38:
 243 0154 A6EEA43A 	 vfma.f32 s6,s13,s9
 283:../Dave/Generated/CMSIS_DSP/FilteringFunctions/arm_fir_lattice_f32.c **** 
 244              	 .loc 1 283 0
 245 0158 E5EE264A 	 vfma.f32 s9,s10,s13
 246              	.LVL39:
 280:../Dave/Generated/CMSIS_DSP/FilteringFunctions/arm_fir_lattice_f32.c ****       gnext3 = (fcurr3 * (*pk)) + gnext2;
 247              	 .loc 1 280 0
 248 015c F0EE621A 	 fcpys s3,s5
 249 0160 E7EE261A 	 vfma.f32 s3,s14,s13
 250              	.LVL40:
 283:../Dave/Generated/CMSIS_DSP/FilteringFunctions/arm_fir_lattice_f32.c **** 
 251              	 .loc 1 283 0
 252 0164 B0EE645A 	 fcpys s10,s9
 253              	.LVL41:
 272:../Dave/Generated/CMSIS_DSP/FilteringFunctions/arm_fir_lattice_f32.c ****       /* Process third sample for 4th, 8th .. tap */
 254              	 .loc 1 272 0
 255 0168 F0EE653A 	 fcpys s7,s11
 274:../Dave/Generated/CMSIS_DSP/FilteringFunctions/arm_fir_lattice_f32.c ****       /* Process fourth sample for 4th, 8th .. tap */
 256              	 .loc 1 274 0
 257 016c F0EE444A 	 fcpys s9,s8
 272:../Dave/Generated/CMSIS_DSP/FilteringFunctions/arm_fir_lattice_f32.c ****       /* Process third sample for 4th, 8th .. tap */
 258              	 .loc 1 272 0
 259 0170 E6EE263A 	 vfma.f32 s7,s12,s13
 260              	.LVL42:
 274:../Dave/Generated/CMSIS_DSP/FilteringFunctions/arm_fir_lattice_f32.c ****       /* Process fourth sample for 4th, 8th .. tap */
 261              	 .loc 1 274 0
 262 0174 E7EEA64A 	 vfma.f32 s9,s15,s13
 263              	.LVL43:
 276:../Dave/Generated/CMSIS_DSP/FilteringFunctions/arm_fir_lattice_f32.c **** 
 264              	 .loc 1 276 0
 265 0178 A2EEA67A 	 vfma.f32 s14,s5,s13
 266              	.LVL44:
 282:../Dave/Generated/CMSIS_DSP/FilteringFunctions/arm_fir_lattice_f32.c ****       gnext1 = (fcurr1 * (*pk++)) + gcurr1;
 267              	 .loc 1 282 0
 268 017c A5EEA66A 	 vfma.f32 s12,s11,s13
 269              	.LVL45:
 281:../Dave/Generated/CMSIS_DSP/FilteringFunctions/arm_fir_lattice_f32.c ****       gnext2 = (fcurr2 * (*pk)) + gnext1;
 270              	 .loc 1 281 0
 271 0180 E4EE267A 	 vfma.f32 s15,s8,s13
 272              	.LVL46:
 287:../Dave/Generated/CMSIS_DSP/FilteringFunctions/arm_fir_lattice_f32.c **** 
 288:../Dave/Generated/CMSIS_DSP/FilteringFunctions/arm_fir_lattice_f32.c ****       /* save g4(n) in state buffer */
 289:../Dave/Generated/CMSIS_DSP/FilteringFunctions/arm_fir_lattice_f32.c ****       *px++ = gnext4;
 273              	 .loc 1 289 0
 274 0184 43ED051A 	 fsts s3,[r3,#-20]
 290:../Dave/Generated/CMSIS_DSP/FilteringFunctions/arm_fir_lattice_f32.c **** 
 291:../Dave/Generated/CMSIS_DSP/FilteringFunctions/arm_fir_lattice_f32.c ****       /* Sample processing for K5, K9.... */
 292:../Dave/Generated/CMSIS_DSP/FilteringFunctions/arm_fir_lattice_f32.c ****       /* Process first sample for 5th, 9th .. tap */
 293:../Dave/Generated/CMSIS_DSP/FilteringFunctions/arm_fir_lattice_f32.c ****       /* f5(n) = f4(n) +  K5 * g4(n-1) */
 294:../Dave/Generated/CMSIS_DSP/FilteringFunctions/arm_fir_lattice_f32.c ****       fcurr1 = fnext1 + ((*pk) * gcurr1);
 275              	 .loc 1 294 0
 276 0188 50ED055A 	 flds s11,[r0,#-20]
 277              	.LVL47:
 295:../Dave/Generated/CMSIS_DSP/FilteringFunctions/arm_fir_lattice_f32.c ****       /* Process second sample for 5th, 9th .. tap */
 296:../Dave/Generated/CMSIS_DSP/FilteringFunctions/arm_fir_lattice_f32.c ****       fcurr2 = fnext2 + ((*pk) * gnext1);
 297:../Dave/Generated/CMSIS_DSP/FilteringFunctions/arm_fir_lattice_f32.c ****       /* Process third sample for 5th, 9th .. tap */
 298:../Dave/Generated/CMSIS_DSP/FilteringFunctions/arm_fir_lattice_f32.c ****       fcurr3 = fnext3 + ((*pk) * gnext2);
 299:../Dave/Generated/CMSIS_DSP/FilteringFunctions/arm_fir_lattice_f32.c ****       /* Process fourth sample for 5th, 9th .. tap */
 300:../Dave/Generated/CMSIS_DSP/FilteringFunctions/arm_fir_lattice_f32.c ****       fcurr4 = fnext4 + ((*pk) * gnext3);
 301:../Dave/Generated/CMSIS_DSP/FilteringFunctions/arm_fir_lattice_f32.c **** 
 302:../Dave/Generated/CMSIS_DSP/FilteringFunctions/arm_fir_lattice_f32.c ****       /* Calculation of state values for next stage */
 303:../Dave/Generated/CMSIS_DSP/FilteringFunctions/arm_fir_lattice_f32.c ****       /* g5(n) = f4(n) * K5  +  g4(n-1) */
 304:../Dave/Generated/CMSIS_DSP/FilteringFunctions/arm_fir_lattice_f32.c ****       gnext4 = (fnext4 * (*pk)) + gnext3;
 305:../Dave/Generated/CMSIS_DSP/FilteringFunctions/arm_fir_lattice_f32.c ****       gnext3 = (fnext3 * (*pk)) + gnext2;
 306:../Dave/Generated/CMSIS_DSP/FilteringFunctions/arm_fir_lattice_f32.c ****       gnext2 = (fnext2 * (*pk)) + gnext1;
 307:../Dave/Generated/CMSIS_DSP/FilteringFunctions/arm_fir_lattice_f32.c ****       gnext1 = (fnext1 * (*pk++)) + gcurr1;
 278              	 .loc 1 307 0
 279 018c F0EE422A 	 fcpys s5,s4
 294:../Dave/Generated/CMSIS_DSP/FilteringFunctions/arm_fir_lattice_f32.c ****       /* Process second sample for 5th, 9th .. tap */
 280              	 .loc 1 294 0
 281 0190 F0EE431A 	 fcpys s3,s6
 282              	 .loc 1 307 0
 283 0194 E3EE252A 	 vfma.f32 s5,s6,s11
 298:../Dave/Generated/CMSIS_DSP/FilteringFunctions/arm_fir_lattice_f32.c ****       /* Process fourth sample for 5th, 9th .. tap */
 284              	 .loc 1 298 0
 285 0198 B0EE644A 	 fcpys s8,s9
 286              	.LVL48:
 296:../Dave/Generated/CMSIS_DSP/FilteringFunctions/arm_fir_lattice_f32.c ****       /* Process third sample for 5th, 9th .. tap */
 287              	 .loc 1 296 0
 288 019c B0EE633A 	 fcpys s6,s7
 289              	.LVL49:
 300:../Dave/Generated/CMSIS_DSP/FilteringFunctions/arm_fir_lattice_f32.c **** 
 290              	 .loc 1 300 0
 291 01a0 F0EE476A 	 fcpys s13,s14
 296:../Dave/Generated/CMSIS_DSP/FilteringFunctions/arm_fir_lattice_f32.c ****       /* Process third sample for 5th, 9th .. tap */
 292              	 .loc 1 296 0
 293 01a4 A5EE253A 	 vfma.f32 s6,s10,s11
 298:../Dave/Generated/CMSIS_DSP/FilteringFunctions/arm_fir_lattice_f32.c ****       /* Process fourth sample for 5th, 9th .. tap */
 294              	 .loc 1 298 0
 295 01a8 A6EE254A 	 vfma.f32 s8,s12,s11
 300:../Dave/Generated/CMSIS_DSP/FilteringFunctions/arm_fir_lattice_f32.c **** 
 296              	 .loc 1 300 0
 297 01ac E7EEA56A 	 vfma.f32 s13,s15,s11
 294:../Dave/Generated/CMSIS_DSP/FilteringFunctions/arm_fir_lattice_f32.c ****       /* Process second sample for 5th, 9th .. tap */
 298              	 .loc 1 294 0
 299 01b0 E5EE821A 	 vfma.f32 s3,s11,s4
 300              	.LVL50:
 306:../Dave/Generated/CMSIS_DSP/FilteringFunctions/arm_fir_lattice_f32.c ****       gnext1 = (fnext1 * (*pk++)) + gcurr1;
 301              	 .loc 1 306 0
 302 01b4 A3EEA55A 	 vfma.f32 s10,s7,s11
 303              	.LVL51:
 305:../Dave/Generated/CMSIS_DSP/FilteringFunctions/arm_fir_lattice_f32.c ****       gnext2 = (fnext2 * (*pk)) + gnext1;
 304              	 .loc 1 305 0
 305 01b8 A4EEA56A 	 vfma.f32 s12,s9,s11
 306              	.LVL52:
 304:../Dave/Generated/CMSIS_DSP/FilteringFunctions/arm_fir_lattice_f32.c ****       gnext3 = (fnext3 * (*pk)) + gnext2;
 307              	 .loc 1 304 0
 308 01bc E7EE257A 	 vfma.f32 s15,s14,s11
 309              	.LVL53:
 207:../Dave/Generated/CMSIS_DSP/FilteringFunctions/arm_fir_lattice_f32.c ****     {
 310              	 .loc 1 207 0
 311 01c0 7FF476AF 	 bne .L4
 312              	 .loc 1 307 0
 313 01c4 CB46     	 mov fp,r9
 289:../Dave/Generated/CMSIS_DSP/FilteringFunctions/arm_fir_lattice_f32.c **** 
 314              	 .loc 1 289 0
 315 01c6 5346     	 mov r3,r10
 316              	.LVL54:
 317              	.L3:
 308:../Dave/Generated/CMSIS_DSP/FilteringFunctions/arm_fir_lattice_f32.c **** 
 309:../Dave/Generated/CMSIS_DSP/FilteringFunctions/arm_fir_lattice_f32.c ****       stageCnt--;
 310:../Dave/Generated/CMSIS_DSP/FilteringFunctions/arm_fir_lattice_f32.c ****     }
 311:../Dave/Generated/CMSIS_DSP/FilteringFunctions/arm_fir_lattice_f32.c **** 
 312:../Dave/Generated/CMSIS_DSP/FilteringFunctions/arm_fir_lattice_f32.c ****     /* If the (filter length -1) is not a multiple of 4, compute the remaining filter taps */
 313:../Dave/Generated/CMSIS_DSP/FilteringFunctions/arm_fir_lattice_f32.c ****     stageCnt = (numStages - 1u) % 0x4u;
 314:../Dave/Generated/CMSIS_DSP/FilteringFunctions/arm_fir_lattice_f32.c **** 
 315:../Dave/Generated/CMSIS_DSP/FilteringFunctions/arm_fir_lattice_f32.c ****     while (stageCnt > 0u)
 318              	 .loc 1 315 0
 319 01c8 0029     	 cmp r1,#0
 320 01ca 00F08780 	 beq .L14
 321 01ce 0846     	 mov r0,r1
 322              	.LVL55:
 323              	.L6:
 316:../Dave/Generated/CMSIS_DSP/FilteringFunctions/arm_fir_lattice_f32.c ****     {
 317:../Dave/Generated/CMSIS_DSP/FilteringFunctions/arm_fir_lattice_f32.c ****       gcurr1 = *px;
 324              	 .loc 1 317 0
 325 01d0 D3ED005A 	 flds s11,[r3]
 326              	.LVL56:
 318:../Dave/Generated/CMSIS_DSP/FilteringFunctions/arm_fir_lattice_f32.c **** 
 319:../Dave/Generated/CMSIS_DSP/FilteringFunctions/arm_fir_lattice_f32.c ****       /* save g value in state buffer */
 320:../Dave/Generated/CMSIS_DSP/FilteringFunctions/arm_fir_lattice_f32.c ****       *px++ = gnext4;
 327              	 .loc 1 320 0
 328 01d4 E3EC017A 	 fstmias r3!,{s15}
 329              	.LVL57:
 321:../Dave/Generated/CMSIS_DSP/FilteringFunctions/arm_fir_lattice_f32.c **** 
 322:../Dave/Generated/CMSIS_DSP/FilteringFunctions/arm_fir_lattice_f32.c ****       /* Process four samples for last three taps here */
 323:../Dave/Generated/CMSIS_DSP/FilteringFunctions/arm_fir_lattice_f32.c ****       fnext1 = fcurr1 + ((*pk) * gcurr1);
 330              	 .loc 1 323 0
 331 01d8 BBEC017A 	 fldmias fp!,{s14}
 332              	.LVL58:
 324:../Dave/Generated/CMSIS_DSP/FilteringFunctions/arm_fir_lattice_f32.c ****       fnext2 = fcurr2 + ((*pk) * gnext1);
 325:../Dave/Generated/CMSIS_DSP/FilteringFunctions/arm_fir_lattice_f32.c ****       fnext3 = fcurr3 + ((*pk) * gnext2);
 326:../Dave/Generated/CMSIS_DSP/FilteringFunctions/arm_fir_lattice_f32.c ****       fnext4 = fcurr4 + ((*pk) * gnext3);
 333              	 .loc 1 326 0
 334 01dc F0EE664A 	 fcpys s9,s13
 325:../Dave/Generated/CMSIS_DSP/FilteringFunctions/arm_fir_lattice_f32.c ****       fnext4 = fcurr4 + ((*pk) * gnext3);
 335              	 .loc 1 325 0
 336 01e0 F0EE443A 	 fcpys s7,s8
 324:../Dave/Generated/CMSIS_DSP/FilteringFunctions/arm_fir_lattice_f32.c ****       fnext2 = fcurr2 + ((*pk) * gnext1);
 337              	 .loc 1 324 0
 338 01e4 B0EE432A 	 fcpys s4,s6
 323:../Dave/Generated/CMSIS_DSP/FilteringFunctions/arm_fir_lattice_f32.c ****       fnext2 = fcurr2 + ((*pk) * gnext1);
 339              	 .loc 1 323 0
 340 01e8 B0EE611A 	 fcpys s2,s3
 341              	 .loc 1 326 0
 342 01ec E6EE074A 	 vfma.f32 s9,s12,s14
 315:../Dave/Generated/CMSIS_DSP/FilteringFunctions/arm_fir_lattice_f32.c ****     {
 343              	 .loc 1 315 0
 344 01f0 0138     	 subs r0,r0,#1
 345              	.LVL59:
 325:../Dave/Generated/CMSIS_DSP/FilteringFunctions/arm_fir_lattice_f32.c ****       fnext4 = fcurr4 + ((*pk) * gnext3);
 346              	 .loc 1 325 0
 347 01f2 E5EE073A 	 vfma.f32 s7,s10,s14
 324:../Dave/Generated/CMSIS_DSP/FilteringFunctions/arm_fir_lattice_f32.c ****       fnext3 = fcurr3 + ((*pk) * gnext2);
 348              	 .loc 1 324 0
 349 01f6 A2EE872A 	 vfma.f32 s4,s5,s14
 323:../Dave/Generated/CMSIS_DSP/FilteringFunctions/arm_fir_lattice_f32.c ****       fnext2 = fcurr2 + ((*pk) * gnext1);
 350              	 .loc 1 323 0
 351 01fa A7EE251A 	 vfma.f32 s2,s14,s11
 352              	.LVL60:
 327:../Dave/Generated/CMSIS_DSP/FilteringFunctions/arm_fir_lattice_f32.c **** 
 328:../Dave/Generated/CMSIS_DSP/FilteringFunctions/arm_fir_lattice_f32.c ****       /* g1(n) = f0(n) * K1  +  g0(n-1) */
 329:../Dave/Generated/CMSIS_DSP/FilteringFunctions/arm_fir_lattice_f32.c ****       gnext4 = (fcurr4 * (*pk)) + gnext3;
 330:../Dave/Generated/CMSIS_DSP/FilteringFunctions/arm_fir_lattice_f32.c ****       gnext3 = (fcurr3 * (*pk)) + gnext2;
 331:../Dave/Generated/CMSIS_DSP/FilteringFunctions/arm_fir_lattice_f32.c ****       gnext2 = (fcurr2 * (*pk)) + gnext1;
 332:../Dave/Generated/CMSIS_DSP/FilteringFunctions/arm_fir_lattice_f32.c ****       gnext1 = (fcurr1 * (*pk++)) + gcurr1;
 353              	 .loc 1 332 0
 354 01fe E1EE875A 	 vfma.f32 s11,s3,s14
 355              	.LVL61:
 329:../Dave/Generated/CMSIS_DSP/FilteringFunctions/arm_fir_lattice_f32.c ****       gnext3 = (fcurr3 * (*pk)) + gnext2;
 356              	 .loc 1 329 0
 357 0202 F0EE467A 	 fcpys s15,s12
 358              	.LVL62:
 330:../Dave/Generated/CMSIS_DSP/FilteringFunctions/arm_fir_lattice_f32.c ****       gnext2 = (fcurr2 * (*pk)) + gnext1;
 359              	 .loc 1 330 0
 360 0206 B0EE456A 	 fcpys s12,s10
 361              	.LVL63:
 331:../Dave/Generated/CMSIS_DSP/FilteringFunctions/arm_fir_lattice_f32.c ****       gnext1 = (fcurr1 * (*pk++)) + gcurr1;
 362              	 .loc 1 331 0
 363 020a B0EE625A 	 fcpys s10,s5
 364              	.LVL64:
 329:../Dave/Generated/CMSIS_DSP/FilteringFunctions/arm_fir_lattice_f32.c ****       gnext3 = (fcurr3 * (*pk)) + gnext2;
 365              	 .loc 1 329 0
 366 020e E6EE877A 	 vfma.f32 s15,s13,s14
 367              	.LVL65:
 330:../Dave/Generated/CMSIS_DSP/FilteringFunctions/arm_fir_lattice_f32.c ****       gnext2 = (fcurr2 * (*pk)) + gnext1;
 368              	 .loc 1 330 0
 369 0212 A4EE076A 	 vfma.f32 s12,s8,s14
 370              	.LVL66:
 331:../Dave/Generated/CMSIS_DSP/FilteringFunctions/arm_fir_lattice_f32.c ****       gnext1 = (fcurr1 * (*pk++)) + gcurr1;
 371              	 .loc 1 331 0
 372 0216 A3EE075A 	 vfma.f32 s10,s6,s14
 373              	.LVL67:
 326:../Dave/Generated/CMSIS_DSP/FilteringFunctions/arm_fir_lattice_f32.c **** 
 374              	 .loc 1 326 0
 375 021a F0EE646A 	 fcpys s13,s9
 376              	.LVL68:
 325:../Dave/Generated/CMSIS_DSP/FilteringFunctions/arm_fir_lattice_f32.c ****       fnext4 = fcurr4 + ((*pk) * gnext3);
 377              	 .loc 1 325 0
 378 021e B0EE634A 	 fcpys s8,s7
 379              	.LVL69:
 324:../Dave/Generated/CMSIS_DSP/FilteringFunctions/arm_fir_lattice_f32.c ****       fnext3 = fcurr3 + ((*pk) * gnext2);
 380              	 .loc 1 324 0
 381 0222 B0EE423A 	 fcpys s6,s4
 382              	.LVL70:
 383              	 .loc 1 332 0
 384 0226 F0EE652A 	 fcpys s5,s11
 385              	.LVL71:
 323:../Dave/Generated/CMSIS_DSP/FilteringFunctions/arm_fir_lattice_f32.c ****       fnext2 = fcurr2 + ((*pk) * gnext1);
 386              	 .loc 1 323 0
 387 022a F0EE411A 	 fcpys s3,s2
 315:../Dave/Generated/CMSIS_DSP/FilteringFunctions/arm_fir_lattice_f32.c ****     {
 388              	 .loc 1 315 0
 389 022e CFD1     	 bne .L6
 390              	.LVL72:
 391              	.L5:
 149:../Dave/Generated/CMSIS_DSP/FilteringFunctions/arm_fir_lattice_f32.c ****   {
 392              	 .loc 1 149 0
 393 0230 BEF1010E 	 subs lr,lr,#1
 394              	.LVL73:
 333:../Dave/Generated/CMSIS_DSP/FilteringFunctions/arm_fir_lattice_f32.c **** 
 334:../Dave/Generated/CMSIS_DSP/FilteringFunctions/arm_fir_lattice_f32.c ****       /* Update of f values for next coefficient set processing */
 335:../Dave/Generated/CMSIS_DSP/FilteringFunctions/arm_fir_lattice_f32.c ****       fcurr1 = fnext1;
 336:../Dave/Generated/CMSIS_DSP/FilteringFunctions/arm_fir_lattice_f32.c ****       fcurr2 = fnext2;
 337:../Dave/Generated/CMSIS_DSP/FilteringFunctions/arm_fir_lattice_f32.c ****       fcurr3 = fnext3;
 338:../Dave/Generated/CMSIS_DSP/FilteringFunctions/arm_fir_lattice_f32.c ****       fcurr4 = fnext4;
 339:../Dave/Generated/CMSIS_DSP/FilteringFunctions/arm_fir_lattice_f32.c **** 
 340:../Dave/Generated/CMSIS_DSP/FilteringFunctions/arm_fir_lattice_f32.c ****       stageCnt--;
 341:../Dave/Generated/CMSIS_DSP/FilteringFunctions/arm_fir_lattice_f32.c **** 
 342:../Dave/Generated/CMSIS_DSP/FilteringFunctions/arm_fir_lattice_f32.c ****     }
 343:../Dave/Generated/CMSIS_DSP/FilteringFunctions/arm_fir_lattice_f32.c **** 
 344:../Dave/Generated/CMSIS_DSP/FilteringFunctions/arm_fir_lattice_f32.c ****     /* The results in the 4 accumulators, store in the destination buffer. */
 345:../Dave/Generated/CMSIS_DSP/FilteringFunctions/arm_fir_lattice_f32.c ****     /* y(n) = fN(n) */
 346:../Dave/Generated/CMSIS_DSP/FilteringFunctions/arm_fir_lattice_f32.c ****     *pDst++ = fcurr1;
 395              	 .loc 1 346 0
 396 0234 04ED041A 	 fsts s2,[r4,#-16]
 347:../Dave/Generated/CMSIS_DSP/FilteringFunctions/arm_fir_lattice_f32.c ****     *pDst++ = fcurr2;
 397              	 .loc 1 347 0
 398 0238 04ED032A 	 fsts s4,[r4,#-12]
 348:../Dave/Generated/CMSIS_DSP/FilteringFunctions/arm_fir_lattice_f32.c ****     *pDst++ = fcurr3;
 399              	 .loc 1 348 0
 400 023c 44ED023A 	 fsts s7,[r4,#-8]
 401              	.LVL74:
 349:../Dave/Generated/CMSIS_DSP/FilteringFunctions/arm_fir_lattice_f32.c ****     *pDst++ = fcurr4;
 402              	 .loc 1 349 0
 403 0240 44ED014A 	 fsts s9,[r4,#-4]
 404 0244 05F11005 	 add r5,r5,#16
 405              	.LVL75:
 406 0248 04F11004 	 add r4,r4,#16
 149:../Dave/Generated/CMSIS_DSP/FilteringFunctions/arm_fir_lattice_f32.c ****   {
 407              	 .loc 1 149 0
 408 024c 7FF4FEAE 	 bne .L7
 409 0250 049B     	 ldr r3,[sp,#16]
 410              	.LVL76:
 411 0252 6146     	 mov r1,ip
 412 0254 1B01     	 lsls r3,r3,#4
 413 0256 4246     	 mov r2,r8
 414 0258 1944     	 add r1,r1,r3
 415 025a 1A44     	 add r2,r2,r3
 416              	.LVL77:
 417              	.L2:
 350:../Dave/Generated/CMSIS_DSP/FilteringFunctions/arm_fir_lattice_f32.c **** 
 351:../Dave/Generated/CMSIS_DSP/FilteringFunctions/arm_fir_lattice_f32.c ****     blkCnt--;
 352:../Dave/Generated/CMSIS_DSP/FilteringFunctions/arm_fir_lattice_f32.c ****   }
 353:../Dave/Generated/CMSIS_DSP/FilteringFunctions/arm_fir_lattice_f32.c **** 
 354:../Dave/Generated/CMSIS_DSP/FilteringFunctions/arm_fir_lattice_f32.c ****   /* If the blockSize is not a multiple of 4, compute any remaining output samples here.
 355:../Dave/Generated/CMSIS_DSP/FilteringFunctions/arm_fir_lattice_f32.c ****    ** No loop unrolling is used. */
 356:../Dave/Generated/CMSIS_DSP/FilteringFunctions/arm_fir_lattice_f32.c ****   blkCnt = blockSize % 0x4u;
 357:../Dave/Generated/CMSIS_DSP/FilteringFunctions/arm_fir_lattice_f32.c **** 
 358:../Dave/Generated/CMSIS_DSP/FilteringFunctions/arm_fir_lattice_f32.c ****   while (blkCnt > 0u)
 418              	 .loc 1 358 0
 419 025c 059B     	 ldr r3,[sp,#20]
 420 025e 13F00305 	 ands r5,r3,#3
 421              	.LVL78:
 422 0262 31D0     	 beq .L1
 423 0264 039B     	 ldr r3,[sp,#12]
 424 0266 03F1FF3E 	 add lr,r3,#-1
 425 026a 3B46     	 mov r3,r7
 426 026c 07F1040C 	 add ip,r7,#4
 427 0270 06F10408 	 add r8,r6,#4
 428 0274 7746     	 mov r7,lr
 429              	.LVL79:
 430 0276 9E46     	 mov lr,r3
 431              	.LVL80:
 432              	.L11:
 359:../Dave/Generated/CMSIS_DSP/FilteringFunctions/arm_fir_lattice_f32.c ****   {
 360:../Dave/Generated/CMSIS_DSP/FilteringFunctions/arm_fir_lattice_f32.c ****     /* f0(n) = x(n) */
 361:../Dave/Generated/CMSIS_DSP/FilteringFunctions/arm_fir_lattice_f32.c ****     fcurr1 = *pSrc++;
 433              	 .loc 1 361 0
 434 0278 B1EC017A 	 fldmias r1!,{s14}
 435              	.LVL81:
 362:../Dave/Generated/CMSIS_DSP/FilteringFunctions/arm_fir_lattice_f32.c **** 
 363:../Dave/Generated/CMSIS_DSP/FilteringFunctions/arm_fir_lattice_f32.c ****     /* Initialize coeff pointer */
 364:../Dave/Generated/CMSIS_DSP/FilteringFunctions/arm_fir_lattice_f32.c ****     pk = (pCoeffs);
 365:../Dave/Generated/CMSIS_DSP/FilteringFunctions/arm_fir_lattice_f32.c **** 
 366:../Dave/Generated/CMSIS_DSP/FilteringFunctions/arm_fir_lattice_f32.c ****     /* Initialize state pointer */
 367:../Dave/Generated/CMSIS_DSP/FilteringFunctions/arm_fir_lattice_f32.c ****     px = pState;
 368:../Dave/Generated/CMSIS_DSP/FilteringFunctions/arm_fir_lattice_f32.c **** 
 369:../Dave/Generated/CMSIS_DSP/FilteringFunctions/arm_fir_lattice_f32.c ****     /* read g2(n) from state buffer */
 370:../Dave/Generated/CMSIS_DSP/FilteringFunctions/arm_fir_lattice_f32.c ****     gcurr1 = *px;
 436              	 .loc 1 370 0
 437 027c D6ED006A 	 flds s13,[r6]
 438              	.LVL82:
 371:../Dave/Generated/CMSIS_DSP/FilteringFunctions/arm_fir_lattice_f32.c **** 
 372:../Dave/Generated/CMSIS_DSP/FilteringFunctions/arm_fir_lattice_f32.c ****     /* for sample 1 processing */
 373:../Dave/Generated/CMSIS_DSP/FilteringFunctions/arm_fir_lattice_f32.c ****     /* f1(n) = f0(n) +  K1 * g0(n-1) */
 374:../Dave/Generated/CMSIS_DSP/FilteringFunctions/arm_fir_lattice_f32.c ****     fnext1 = fcurr1 + ((*pk) * gcurr1);
 439              	 .loc 1 374 0
 440 0280 9EED006A 	 flds s12,[lr]
 375:../Dave/Generated/CMSIS_DSP/FilteringFunctions/arm_fir_lattice_f32.c ****     /* g1(n) = f0(n) * K1  +  g0(n-1) */
 376:../Dave/Generated/CMSIS_DSP/FilteringFunctions/arm_fir_lattice_f32.c ****     gnext1 = (fcurr1 * (*pk++)) + gcurr1;
 377:../Dave/Generated/CMSIS_DSP/FilteringFunctions/arm_fir_lattice_f32.c **** 
 378:../Dave/Generated/CMSIS_DSP/FilteringFunctions/arm_fir_lattice_f32.c ****     /* save g1(n) in state buffer */
 379:../Dave/Generated/CMSIS_DSP/FilteringFunctions/arm_fir_lattice_f32.c ****     *px++ = fcurr1;
 441              	 .loc 1 379 0
 442 0284 86ED007A 	 fsts s14,[r6]
 374:../Dave/Generated/CMSIS_DSP/FilteringFunctions/arm_fir_lattice_f32.c ****     /* g1(n) = f0(n) * K1  +  g0(n-1) */
 443              	 .loc 1 374 0
 444 0288 F0EE477A 	 fcpys s15,s14
 445 028c E6EE267A 	 vfma.f32 s15,s12,s13
 446              	.LVL83:
 376:../Dave/Generated/CMSIS_DSP/FilteringFunctions/arm_fir_lattice_f32.c **** 
 447              	 .loc 1 376 0
 448 0290 E7EE066A 	 vfma.f32 s13,s14,s12
 449              	.LVL84:
 380:../Dave/Generated/CMSIS_DSP/FilteringFunctions/arm_fir_lattice_f32.c **** 
 381:../Dave/Generated/CMSIS_DSP/FilteringFunctions/arm_fir_lattice_f32.c ****     /* f1(n) is saved in fcurr1
 382:../Dave/Generated/CMSIS_DSP/FilteringFunctions/arm_fir_lattice_f32.c ****        for next stage processing */
 383:../Dave/Generated/CMSIS_DSP/FilteringFunctions/arm_fir_lattice_f32.c ****     fcurr1 = fnext1;
 384:../Dave/Generated/CMSIS_DSP/FilteringFunctions/arm_fir_lattice_f32.c **** 
 385:../Dave/Generated/CMSIS_DSP/FilteringFunctions/arm_fir_lattice_f32.c ****     stageCnt = (numStages - 1u);
 386:../Dave/Generated/CMSIS_DSP/FilteringFunctions/arm_fir_lattice_f32.c **** 
 387:../Dave/Generated/CMSIS_DSP/FilteringFunctions/arm_fir_lattice_f32.c ****     /* stage loop */
 388:../Dave/Generated/CMSIS_DSP/FilteringFunctions/arm_fir_lattice_f32.c ****     while (stageCnt > 0u)
 450              	 .loc 1 388 0
 451 0294 DFB1     	 cbz r7,.L15
 452 0296 3846     	 mov r0,r7
 453 0298 6446     	 mov r4,ip
 454 029a 4346     	 mov r3,r8
 455              	.LVL85:
 456              	.L10:
 389:../Dave/Generated/CMSIS_DSP/FilteringFunctions/arm_fir_lattice_f32.c ****     {
 390:../Dave/Generated/CMSIS_DSP/FilteringFunctions/arm_fir_lattice_f32.c ****       /* read g2(n) from state buffer */
 391:../Dave/Generated/CMSIS_DSP/FilteringFunctions/arm_fir_lattice_f32.c ****       gcurr1 = *px;
 457              	 .loc 1 391 0
 458 029c 93ED007A 	 flds s14,[r3]
 459              	.LVL86:
 392:../Dave/Generated/CMSIS_DSP/FilteringFunctions/arm_fir_lattice_f32.c **** 
 393:../Dave/Generated/CMSIS_DSP/FilteringFunctions/arm_fir_lattice_f32.c ****       /* save g1(n) in state buffer */
 394:../Dave/Generated/CMSIS_DSP/FilteringFunctions/arm_fir_lattice_f32.c ****       *px++ = gnext1;
 460              	 .loc 1 394 0
 461 02a0 E3EC016A 	 fstmias r3!,{s13}
 462              	.LVL87:
 395:../Dave/Generated/CMSIS_DSP/FilteringFunctions/arm_fir_lattice_f32.c **** 
 396:../Dave/Generated/CMSIS_DSP/FilteringFunctions/arm_fir_lattice_f32.c ****       /* Sample processing for K2, K3.... */
 397:../Dave/Generated/CMSIS_DSP/FilteringFunctions/arm_fir_lattice_f32.c ****       /* f2(n) = f1(n) +  K2 * g1(n-1) */
 398:../Dave/Generated/CMSIS_DSP/FilteringFunctions/arm_fir_lattice_f32.c ****       fnext1 = fcurr1 + ((*pk) * gcurr1);
 463              	 .loc 1 398 0
 464 02a4 F4EC016A 	 fldmias r4!,{s13}
 465              	.LVL88:
 466 02a8 B0EE676A 	 fcpys s12,s15
 467 02ac A6EE876A 	 vfma.f32 s12,s13,s14
 468              	.LVL89:
 388:../Dave/Generated/CMSIS_DSP/FilteringFunctions/arm_fir_lattice_f32.c ****     {
 469              	 .loc 1 388 0
 470 02b0 0138     	 subs r0,r0,#1
 471              	.LVL90:
 399:../Dave/Generated/CMSIS_DSP/FilteringFunctions/arm_fir_lattice_f32.c ****       /* g2(n) = f1(n) * K2  +  g1(n-1) */
 400:../Dave/Generated/CMSIS_DSP/FilteringFunctions/arm_fir_lattice_f32.c ****       gnext1 = (fcurr1 * (*pk++)) + gcurr1;
 472              	 .loc 1 400 0
 473 02b2 A7EEA67A 	 vfma.f32 s14,s15,s13
 474              	.LVL91:
 398:../Dave/Generated/CMSIS_DSP/FilteringFunctions/arm_fir_lattice_f32.c ****       /* g2(n) = f1(n) * K2  +  g1(n-1) */
 475              	 .loc 1 398 0
 476 02b6 F0EE467A 	 fcpys s15,s12
 477              	.LVL92:
 478              	 .loc 1 400 0
 479 02ba F0EE476A 	 fcpys s13,s14
 480              	.LVL93:
 388:../Dave/Generated/CMSIS_DSP/FilteringFunctions/arm_fir_lattice_f32.c ****     {
 481              	 .loc 1 388 0
 482 02be EDD1     	 bne .L10
 483              	.LVL94:
 358:../Dave/Generated/CMSIS_DSP/FilteringFunctions/arm_fir_lattice_f32.c ****   {
 484              	 .loc 1 358 0
 485 02c0 013D     	 subs r5,r5,#1
 486              	.LVL95:
 401:../Dave/Generated/CMSIS_DSP/FilteringFunctions/arm_fir_lattice_f32.c **** 
 402:../Dave/Generated/CMSIS_DSP/FilteringFunctions/arm_fir_lattice_f32.c ****       /* f1(n) is saved in fcurr1
 403:../Dave/Generated/CMSIS_DSP/FilteringFunctions/arm_fir_lattice_f32.c ****          for next stage processing */
 404:../Dave/Generated/CMSIS_DSP/FilteringFunctions/arm_fir_lattice_f32.c ****       fcurr1 = fnext1;
 405:../Dave/Generated/CMSIS_DSP/FilteringFunctions/arm_fir_lattice_f32.c **** 
 406:../Dave/Generated/CMSIS_DSP/FilteringFunctions/arm_fir_lattice_f32.c ****       stageCnt--;
 407:../Dave/Generated/CMSIS_DSP/FilteringFunctions/arm_fir_lattice_f32.c **** 
 408:../Dave/Generated/CMSIS_DSP/FilteringFunctions/arm_fir_lattice_f32.c ****     }
 409:../Dave/Generated/CMSIS_DSP/FilteringFunctions/arm_fir_lattice_f32.c **** 
 410:../Dave/Generated/CMSIS_DSP/FilteringFunctions/arm_fir_lattice_f32.c ****     /* y(n) = fN(n) */
 411:../Dave/Generated/CMSIS_DSP/FilteringFunctions/arm_fir_lattice_f32.c ****     *pDst++ = fcurr1;
 487              	 .loc 1 411 0
 488 02c2 A2EC016A 	 fstmias r2!,{s12}
 489              	.LVL96:
 358:../Dave/Generated/CMSIS_DSP/FilteringFunctions/arm_fir_lattice_f32.c ****   {
 490              	 .loc 1 358 0
 491 02c6 D7D1     	 bne .L11
 492              	.LVL97:
 493              	.L1:
 412:../Dave/Generated/CMSIS_DSP/FilteringFunctions/arm_fir_lattice_f32.c **** 
 413:../Dave/Generated/CMSIS_DSP/FilteringFunctions/arm_fir_lattice_f32.c ****     blkCnt--;
 414:../Dave/Generated/CMSIS_DSP/FilteringFunctions/arm_fir_lattice_f32.c **** 
 415:../Dave/Generated/CMSIS_DSP/FilteringFunctions/arm_fir_lattice_f32.c ****   }
 416:../Dave/Generated/CMSIS_DSP/FilteringFunctions/arm_fir_lattice_f32.c **** 
 417:../Dave/Generated/CMSIS_DSP/FilteringFunctions/arm_fir_lattice_f32.c **** #else
 418:../Dave/Generated/CMSIS_DSP/FilteringFunctions/arm_fir_lattice_f32.c **** 
 419:../Dave/Generated/CMSIS_DSP/FilteringFunctions/arm_fir_lattice_f32.c ****   /* Run the below code for Cortex-M0 */
 420:../Dave/Generated/CMSIS_DSP/FilteringFunctions/arm_fir_lattice_f32.c **** 
 421:../Dave/Generated/CMSIS_DSP/FilteringFunctions/arm_fir_lattice_f32.c ****   float32_t fcurr, fnext, gcurr, gnext;          /* temporary variables */
 422:../Dave/Generated/CMSIS_DSP/FilteringFunctions/arm_fir_lattice_f32.c ****   uint32_t numStages = S->numStages;             /* Length of the filter */
 423:../Dave/Generated/CMSIS_DSP/FilteringFunctions/arm_fir_lattice_f32.c ****   uint32_t blkCnt, stageCnt;                     /* temporary variables for counts */
 424:../Dave/Generated/CMSIS_DSP/FilteringFunctions/arm_fir_lattice_f32.c **** 
 425:../Dave/Generated/CMSIS_DSP/FilteringFunctions/arm_fir_lattice_f32.c ****   pState = &S->pState[0];
 426:../Dave/Generated/CMSIS_DSP/FilteringFunctions/arm_fir_lattice_f32.c **** 
 427:../Dave/Generated/CMSIS_DSP/FilteringFunctions/arm_fir_lattice_f32.c ****   blkCnt = blockSize;
 428:../Dave/Generated/CMSIS_DSP/FilteringFunctions/arm_fir_lattice_f32.c **** 
 429:../Dave/Generated/CMSIS_DSP/FilteringFunctions/arm_fir_lattice_f32.c ****   while (blkCnt > 0u)
 430:../Dave/Generated/CMSIS_DSP/FilteringFunctions/arm_fir_lattice_f32.c ****   {
 431:../Dave/Generated/CMSIS_DSP/FilteringFunctions/arm_fir_lattice_f32.c ****     /* f0(n) = x(n) */
 432:../Dave/Generated/CMSIS_DSP/FilteringFunctions/arm_fir_lattice_f32.c ****     fcurr = *pSrc++;
 433:../Dave/Generated/CMSIS_DSP/FilteringFunctions/arm_fir_lattice_f32.c **** 
 434:../Dave/Generated/CMSIS_DSP/FilteringFunctions/arm_fir_lattice_f32.c ****     /* Initialize coeff pointer */
 435:../Dave/Generated/CMSIS_DSP/FilteringFunctions/arm_fir_lattice_f32.c ****     pk = pCoeffs;
 436:../Dave/Generated/CMSIS_DSP/FilteringFunctions/arm_fir_lattice_f32.c **** 
 437:../Dave/Generated/CMSIS_DSP/FilteringFunctions/arm_fir_lattice_f32.c ****     /* Initialize state pointer */
 438:../Dave/Generated/CMSIS_DSP/FilteringFunctions/arm_fir_lattice_f32.c ****     px = pState;
 439:../Dave/Generated/CMSIS_DSP/FilteringFunctions/arm_fir_lattice_f32.c **** 
 440:../Dave/Generated/CMSIS_DSP/FilteringFunctions/arm_fir_lattice_f32.c ****     /* read g0(n-1) from state buffer */
 441:../Dave/Generated/CMSIS_DSP/FilteringFunctions/arm_fir_lattice_f32.c ****     gcurr = *px;
 442:../Dave/Generated/CMSIS_DSP/FilteringFunctions/arm_fir_lattice_f32.c **** 
 443:../Dave/Generated/CMSIS_DSP/FilteringFunctions/arm_fir_lattice_f32.c ****     /* for sample 1 processing */
 444:../Dave/Generated/CMSIS_DSP/FilteringFunctions/arm_fir_lattice_f32.c ****     /* f1(n) = f0(n) +  K1 * g0(n-1) */
 445:../Dave/Generated/CMSIS_DSP/FilteringFunctions/arm_fir_lattice_f32.c ****     fnext = fcurr + ((*pk) * gcurr);
 446:../Dave/Generated/CMSIS_DSP/FilteringFunctions/arm_fir_lattice_f32.c ****     /* g1(n) = f0(n) * K1  +  g0(n-1) */
 447:../Dave/Generated/CMSIS_DSP/FilteringFunctions/arm_fir_lattice_f32.c ****     gnext = (fcurr * (*pk++)) + gcurr;
 448:../Dave/Generated/CMSIS_DSP/FilteringFunctions/arm_fir_lattice_f32.c **** 
 449:../Dave/Generated/CMSIS_DSP/FilteringFunctions/arm_fir_lattice_f32.c ****     /* save f0(n) in state buffer */
 450:../Dave/Generated/CMSIS_DSP/FilteringFunctions/arm_fir_lattice_f32.c ****     *px++ = fcurr;
 451:../Dave/Generated/CMSIS_DSP/FilteringFunctions/arm_fir_lattice_f32.c **** 
 452:../Dave/Generated/CMSIS_DSP/FilteringFunctions/arm_fir_lattice_f32.c ****     /* f1(n) is saved in fcurr
 453:../Dave/Generated/CMSIS_DSP/FilteringFunctions/arm_fir_lattice_f32.c ****        for next stage processing */
 454:../Dave/Generated/CMSIS_DSP/FilteringFunctions/arm_fir_lattice_f32.c ****     fcurr = fnext;
 455:../Dave/Generated/CMSIS_DSP/FilteringFunctions/arm_fir_lattice_f32.c **** 
 456:../Dave/Generated/CMSIS_DSP/FilteringFunctions/arm_fir_lattice_f32.c ****     stageCnt = (numStages - 1u);
 457:../Dave/Generated/CMSIS_DSP/FilteringFunctions/arm_fir_lattice_f32.c **** 
 458:../Dave/Generated/CMSIS_DSP/FilteringFunctions/arm_fir_lattice_f32.c ****     /* stage loop */
 459:../Dave/Generated/CMSIS_DSP/FilteringFunctions/arm_fir_lattice_f32.c ****     while (stageCnt > 0u)
 460:../Dave/Generated/CMSIS_DSP/FilteringFunctions/arm_fir_lattice_f32.c ****     {
 461:../Dave/Generated/CMSIS_DSP/FilteringFunctions/arm_fir_lattice_f32.c ****       /* read g2(n) from state buffer */
 462:../Dave/Generated/CMSIS_DSP/FilteringFunctions/arm_fir_lattice_f32.c ****       gcurr = *px;
 463:../Dave/Generated/CMSIS_DSP/FilteringFunctions/arm_fir_lattice_f32.c **** 
 464:../Dave/Generated/CMSIS_DSP/FilteringFunctions/arm_fir_lattice_f32.c ****       /* save g1(n) in state buffer */
 465:../Dave/Generated/CMSIS_DSP/FilteringFunctions/arm_fir_lattice_f32.c ****       *px++ = gnext;
 466:../Dave/Generated/CMSIS_DSP/FilteringFunctions/arm_fir_lattice_f32.c **** 
 467:../Dave/Generated/CMSIS_DSP/FilteringFunctions/arm_fir_lattice_f32.c ****       /* Sample processing for K2, K3.... */
 468:../Dave/Generated/CMSIS_DSP/FilteringFunctions/arm_fir_lattice_f32.c ****       /* f2(n) = f1(n) +  K2 * g1(n-1) */
 469:../Dave/Generated/CMSIS_DSP/FilteringFunctions/arm_fir_lattice_f32.c ****       fnext = fcurr + ((*pk) * gcurr);
 470:../Dave/Generated/CMSIS_DSP/FilteringFunctions/arm_fir_lattice_f32.c ****       /* g2(n) = f1(n) * K2  +  g1(n-1) */
 471:../Dave/Generated/CMSIS_DSP/FilteringFunctions/arm_fir_lattice_f32.c ****       gnext = (fcurr * (*pk++)) + gcurr;
 472:../Dave/Generated/CMSIS_DSP/FilteringFunctions/arm_fir_lattice_f32.c **** 
 473:../Dave/Generated/CMSIS_DSP/FilteringFunctions/arm_fir_lattice_f32.c ****       /* f1(n) is saved in fcurr1
 474:../Dave/Generated/CMSIS_DSP/FilteringFunctions/arm_fir_lattice_f32.c ****          for next stage processing */
 475:../Dave/Generated/CMSIS_DSP/FilteringFunctions/arm_fir_lattice_f32.c ****       fcurr = fnext;
 476:../Dave/Generated/CMSIS_DSP/FilteringFunctions/arm_fir_lattice_f32.c **** 
 477:../Dave/Generated/CMSIS_DSP/FilteringFunctions/arm_fir_lattice_f32.c ****       stageCnt--;
 478:../Dave/Generated/CMSIS_DSP/FilteringFunctions/arm_fir_lattice_f32.c **** 
 479:../Dave/Generated/CMSIS_DSP/FilteringFunctions/arm_fir_lattice_f32.c ****     }
 480:../Dave/Generated/CMSIS_DSP/FilteringFunctions/arm_fir_lattice_f32.c **** 
 481:../Dave/Generated/CMSIS_DSP/FilteringFunctions/arm_fir_lattice_f32.c ****     /* y(n) = fN(n) */
 482:../Dave/Generated/CMSIS_DSP/FilteringFunctions/arm_fir_lattice_f32.c ****     *pDst++ = fcurr;
 483:../Dave/Generated/CMSIS_DSP/FilteringFunctions/arm_fir_lattice_f32.c **** 
 484:../Dave/Generated/CMSIS_DSP/FilteringFunctions/arm_fir_lattice_f32.c ****     blkCnt--;
 485:../Dave/Generated/CMSIS_DSP/FilteringFunctions/arm_fir_lattice_f32.c **** 
 486:../Dave/Generated/CMSIS_DSP/FilteringFunctions/arm_fir_lattice_f32.c ****   }
 487:../Dave/Generated/CMSIS_DSP/FilteringFunctions/arm_fir_lattice_f32.c **** 
 488:../Dave/Generated/CMSIS_DSP/FilteringFunctions/arm_fir_lattice_f32.c **** #endif /*   #if defined (ARM_MATH_DSP) */
 489:../Dave/Generated/CMSIS_DSP/FilteringFunctions/arm_fir_lattice_f32.c **** 
 490:../Dave/Generated/CMSIS_DSP/FilteringFunctions/arm_fir_lattice_f32.c **** }
 494              	 .loc 1 490 0
 495 02c8 07B0     	 add sp,sp,#28
 496              	.LCFI2:
 497              	 .cfi_remember_state
 498              	 .cfi_def_cfa_offset 36
 499              	 
 500 02ca BDE8F08F 	 pop {r4,r5,r6,r7,r8,r9,r10,fp,pc}
 501              	.LVL98:
 502              	.L15:
 503              	.LCFI3:
 504              	 .cfi_restore_state
 383:../Dave/Generated/CMSIS_DSP/FilteringFunctions/arm_fir_lattice_f32.c **** 
 505              	 .loc 1 383 0
 506 02ce B0EE676A 	 fcpys s12,s15
 507              	.LVL99:
 358:../Dave/Generated/CMSIS_DSP/FilteringFunctions/arm_fir_lattice_f32.c ****   {
 508              	 .loc 1 358 0
 509 02d2 013D     	 subs r5,r5,#1
 510              	.LVL100:
 411:../Dave/Generated/CMSIS_DSP/FilteringFunctions/arm_fir_lattice_f32.c **** 
 511              	 .loc 1 411 0
 512 02d4 A2EC016A 	 fstmias r2!,{s12}
 513              	.LVL101:
 358:../Dave/Generated/CMSIS_DSP/FilteringFunctions/arm_fir_lattice_f32.c ****   {
 514              	 .loc 1 358 0
 515 02d8 CED1     	 bne .L11
 516              	.LVL102:
 517 02da F5E7     	 b .L1
 518              	.LVL103:
 519              	.L14:
 315:../Dave/Generated/CMSIS_DSP/FilteringFunctions/arm_fir_lattice_f32.c ****     {
 520              	 .loc 1 315 0
 521 02dc F0EE664A 	 fcpys s9,s13
 522 02e0 F0EE443A 	 fcpys s7,s8
 523 02e4 B0EE432A 	 fcpys s4,s6
 524 02e8 B0EE611A 	 fcpys s2,s3
 525 02ec A0E7     	 b .L5
 526              	.LVL104:
 527              	.L13:
 192:../Dave/Generated/CMSIS_DSP/FilteringFunctions/arm_fir_lattice_f32.c **** 
 528              	 .loc 1 192 0
 529 02ee DDF808B0 	 ldr fp,[sp,#8]
 184:../Dave/Generated/CMSIS_DSP/FilteringFunctions/arm_fir_lattice_f32.c **** 
 530              	 .loc 1 184 0
 531 02f2 019B     	 ldr r3,[sp,#4]
 532 02f4 68E7     	 b .L3
 533              	 .cfi_endproc
 534              	.LFE135:
 536 02f6 00BF     	 .text
 537              	.Letext0:
 538              	 .file 2 "c:\\infineon\\tools\\dave ide\\4.5.0.202105191637\\eclipse\\arm-gcc-49\\arm-none-eabi\\include\\machine\\_default_types.h"
 539              	 .file 3 "c:\\infineon\\tools\\dave ide\\4.5.0.202105191637\\eclipse\\arm-gcc-49\\arm-none-eabi\\include\\stdint.h"
 540              	 .file 4 "C:/Users/Utente/Desktop/Tesi/Firmware_Software/DAVE project/S2GLP_Pulsed_Doppler/Dave/Generated/CMSIS_DSP/arm_math.h"