   1              	 .syntax unified
   2              	 .cpu cortex-m4
   3              	 .eabi_attribute 27,3
   4              	 .fpu fpv4-sp-d16
   5              	 .eabi_attribute 20,1
   6              	 .eabi_attribute 21,1
   7              	 .eabi_attribute 23,3
   8              	 .eabi_attribute 24,1
   9              	 .eabi_attribute 25,1
  10              	 .eabi_attribute 26,1
  11              	 .eabi_attribute 30,2
  12              	 .eabi_attribute 34,1
  13              	 .eabi_attribute 18,4
  14              	 .thumb
  15              	 .file "arm_fir_lattice_q31.c"
  16              	 .text
  17              	.Ltext0:
  18              	 .cfi_sections .debug_frame
  19              	 .section .text.arm_fir_lattice_q31,"ax",%progbits
  20              	 .align 2
  21              	 .global arm_fir_lattice_q31
  22              	 .thumb
  23              	 .thumb_func
  25              	arm_fir_lattice_q31:
  26              	.LFB135:
  27              	 .file 1 "../Dave/Generated/CMSIS_DSP/FilteringFunctions/arm_fir_lattice_q31.c"
   1:../Dave/Generated/CMSIS_DSP/FilteringFunctions/arm_fir_lattice_q31.c **** /* ----------------------------------------------------------------------
   2:../Dave/Generated/CMSIS_DSP/FilteringFunctions/arm_fir_lattice_q31.c ****  * Project:      CMSIS DSP Library
   3:../Dave/Generated/CMSIS_DSP/FilteringFunctions/arm_fir_lattice_q31.c ****  * Title:        arm_fir_lattice_q31.c
   4:../Dave/Generated/CMSIS_DSP/FilteringFunctions/arm_fir_lattice_q31.c ****  * Description:  Q31 FIR lattice filter processing function
   5:../Dave/Generated/CMSIS_DSP/FilteringFunctions/arm_fir_lattice_q31.c ****  *
   6:../Dave/Generated/CMSIS_DSP/FilteringFunctions/arm_fir_lattice_q31.c ****  * $Date:        27. January 2017
   7:../Dave/Generated/CMSIS_DSP/FilteringFunctions/arm_fir_lattice_q31.c ****  * $Revision:    V.1.5.1
   8:../Dave/Generated/CMSIS_DSP/FilteringFunctions/arm_fir_lattice_q31.c ****  *
   9:../Dave/Generated/CMSIS_DSP/FilteringFunctions/arm_fir_lattice_q31.c ****  * Target Processor: Cortex-M cores
  10:../Dave/Generated/CMSIS_DSP/FilteringFunctions/arm_fir_lattice_q31.c ****  * -------------------------------------------------------------------- */
  11:../Dave/Generated/CMSIS_DSP/FilteringFunctions/arm_fir_lattice_q31.c **** /*
  12:../Dave/Generated/CMSIS_DSP/FilteringFunctions/arm_fir_lattice_q31.c ****  * Copyright (C) 2010-2017 ARM Limited or its affiliates. All rights reserved.
  13:../Dave/Generated/CMSIS_DSP/FilteringFunctions/arm_fir_lattice_q31.c ****  *
  14:../Dave/Generated/CMSIS_DSP/FilteringFunctions/arm_fir_lattice_q31.c ****  * SPDX-License-Identifier: Apache-2.0
  15:../Dave/Generated/CMSIS_DSP/FilteringFunctions/arm_fir_lattice_q31.c ****  *
  16:../Dave/Generated/CMSIS_DSP/FilteringFunctions/arm_fir_lattice_q31.c ****  * Licensed under the Apache License, Version 2.0 (the License); you may
  17:../Dave/Generated/CMSIS_DSP/FilteringFunctions/arm_fir_lattice_q31.c ****  * not use this file except in compliance with the License.
  18:../Dave/Generated/CMSIS_DSP/FilteringFunctions/arm_fir_lattice_q31.c ****  * You may obtain a copy of the License at
  19:../Dave/Generated/CMSIS_DSP/FilteringFunctions/arm_fir_lattice_q31.c ****  *
  20:../Dave/Generated/CMSIS_DSP/FilteringFunctions/arm_fir_lattice_q31.c ****  * www.apache.org/licenses/LICENSE-2.0
  21:../Dave/Generated/CMSIS_DSP/FilteringFunctions/arm_fir_lattice_q31.c ****  *
  22:../Dave/Generated/CMSIS_DSP/FilteringFunctions/arm_fir_lattice_q31.c ****  * Unless required by applicable law or agreed to in writing, software
  23:../Dave/Generated/CMSIS_DSP/FilteringFunctions/arm_fir_lattice_q31.c ****  * distributed under the License is distributed on an AS IS BASIS, WITHOUT
  24:../Dave/Generated/CMSIS_DSP/FilteringFunctions/arm_fir_lattice_q31.c ****  * WARRANTIES OR CONDITIONS OF ANY KIND, either express or implied.
  25:../Dave/Generated/CMSIS_DSP/FilteringFunctions/arm_fir_lattice_q31.c ****  * See the License for the specific language governing permissions and
  26:../Dave/Generated/CMSIS_DSP/FilteringFunctions/arm_fir_lattice_q31.c ****  * limitations under the License.
  27:../Dave/Generated/CMSIS_DSP/FilteringFunctions/arm_fir_lattice_q31.c ****  */
  28:../Dave/Generated/CMSIS_DSP/FilteringFunctions/arm_fir_lattice_q31.c **** 
  29:../Dave/Generated/CMSIS_DSP/FilteringFunctions/arm_fir_lattice_q31.c **** #include "CMSIS_DSP/cmsis_dsp.h"
  30:../Dave/Generated/CMSIS_DSP/FilteringFunctions/arm_fir_lattice_q31.c **** 
  31:../Dave/Generated/CMSIS_DSP/FilteringFunctions/arm_fir_lattice_q31.c **** /**
  32:../Dave/Generated/CMSIS_DSP/FilteringFunctions/arm_fir_lattice_q31.c ****  * @ingroup groupFilters
  33:../Dave/Generated/CMSIS_DSP/FilteringFunctions/arm_fir_lattice_q31.c ****  */
  34:../Dave/Generated/CMSIS_DSP/FilteringFunctions/arm_fir_lattice_q31.c **** 
  35:../Dave/Generated/CMSIS_DSP/FilteringFunctions/arm_fir_lattice_q31.c **** /**
  36:../Dave/Generated/CMSIS_DSP/FilteringFunctions/arm_fir_lattice_q31.c ****  * @addtogroup FIR_Lattice
  37:../Dave/Generated/CMSIS_DSP/FilteringFunctions/arm_fir_lattice_q31.c ****  * @{
  38:../Dave/Generated/CMSIS_DSP/FilteringFunctions/arm_fir_lattice_q31.c ****  */
  39:../Dave/Generated/CMSIS_DSP/FilteringFunctions/arm_fir_lattice_q31.c **** 
  40:../Dave/Generated/CMSIS_DSP/FilteringFunctions/arm_fir_lattice_q31.c **** 
  41:../Dave/Generated/CMSIS_DSP/FilteringFunctions/arm_fir_lattice_q31.c **** /**
  42:../Dave/Generated/CMSIS_DSP/FilteringFunctions/arm_fir_lattice_q31.c ****  * @brief Processing function for the Q31 FIR lattice filter.
  43:../Dave/Generated/CMSIS_DSP/FilteringFunctions/arm_fir_lattice_q31.c ****  * @param[in]  *S        points to an instance of the Q31 FIR lattice structure.
  44:../Dave/Generated/CMSIS_DSP/FilteringFunctions/arm_fir_lattice_q31.c ****  * @param[in]  *pSrc     points to the block of input data.
  45:../Dave/Generated/CMSIS_DSP/FilteringFunctions/arm_fir_lattice_q31.c ****  * @param[out] *pDst     points to the block of output data
  46:../Dave/Generated/CMSIS_DSP/FilteringFunctions/arm_fir_lattice_q31.c ****  * @param[in]  blockSize number of samples to process.
  47:../Dave/Generated/CMSIS_DSP/FilteringFunctions/arm_fir_lattice_q31.c ****  * @return none.
  48:../Dave/Generated/CMSIS_DSP/FilteringFunctions/arm_fir_lattice_q31.c ****  *
  49:../Dave/Generated/CMSIS_DSP/FilteringFunctions/arm_fir_lattice_q31.c ****  * @details
  50:../Dave/Generated/CMSIS_DSP/FilteringFunctions/arm_fir_lattice_q31.c ****  * <b>Scaling and Overflow Behavior:</b>
  51:../Dave/Generated/CMSIS_DSP/FilteringFunctions/arm_fir_lattice_q31.c ****  * In order to avoid overflows the input signal must be scaled down by 2*log2(numStages) bits.
  52:../Dave/Generated/CMSIS_DSP/FilteringFunctions/arm_fir_lattice_q31.c ****  */
  53:../Dave/Generated/CMSIS_DSP/FilteringFunctions/arm_fir_lattice_q31.c **** 
  54:../Dave/Generated/CMSIS_DSP/FilteringFunctions/arm_fir_lattice_q31.c **** #if defined (ARM_MATH_DSP)
  55:../Dave/Generated/CMSIS_DSP/FilteringFunctions/arm_fir_lattice_q31.c **** 
  56:../Dave/Generated/CMSIS_DSP/FilteringFunctions/arm_fir_lattice_q31.c ****   /* Run the below code for Cortex-M4 and Cortex-M3 */
  57:../Dave/Generated/CMSIS_DSP/FilteringFunctions/arm_fir_lattice_q31.c **** 
  58:../Dave/Generated/CMSIS_DSP/FilteringFunctions/arm_fir_lattice_q31.c **** void arm_fir_lattice_q31(
  59:../Dave/Generated/CMSIS_DSP/FilteringFunctions/arm_fir_lattice_q31.c ****   const arm_fir_lattice_instance_q31 * S,
  60:../Dave/Generated/CMSIS_DSP/FilteringFunctions/arm_fir_lattice_q31.c ****   q31_t * pSrc,
  61:../Dave/Generated/CMSIS_DSP/FilteringFunctions/arm_fir_lattice_q31.c ****   q31_t * pDst,
  62:../Dave/Generated/CMSIS_DSP/FilteringFunctions/arm_fir_lattice_q31.c ****   uint32_t blockSize)
  63:../Dave/Generated/CMSIS_DSP/FilteringFunctions/arm_fir_lattice_q31.c **** {
  28              	 .loc 1 63 0
  29              	 .cfi_startproc
  30              	 
  31              	 
  32              	.LVL0:
  33 0000 2DE9F04F 	 push {r4,r5,r6,r7,r8,r9,r10,fp,lr}
  34              	.LCFI0:
  35              	 .cfi_def_cfa_offset 36
  36              	 .cfi_offset 4,-36
  37              	 .cfi_offset 5,-32
  38              	 .cfi_offset 6,-28
  39              	 .cfi_offset 7,-24
  40              	 .cfi_offset 8,-20
  41              	 .cfi_offset 9,-16
  42              	 .cfi_offset 10,-12
  43              	 .cfi_offset 11,-8
  44              	 .cfi_offset 14,-4
  45 0004 8FB0     	 sub sp,sp,#60
  46              	.LCFI1:
  47              	 .cfi_def_cfa_offset 96
  64:../Dave/Generated/CMSIS_DSP/FilteringFunctions/arm_fir_lattice_q31.c ****   q31_t *pState;                                 /* State pointer */
  65:../Dave/Generated/CMSIS_DSP/FilteringFunctions/arm_fir_lattice_q31.c ****   q31_t *pCoeffs = S->pCoeffs;                   /* Coefficient pointer */
  48              	 .loc 1 65 0
  49 0006 8468     	 ldr r4,[r0,#8]
  66:../Dave/Generated/CMSIS_DSP/FilteringFunctions/arm_fir_lattice_q31.c ****   q31_t *px;                                     /* temporary state pointer */
  67:../Dave/Generated/CMSIS_DSP/FilteringFunctions/arm_fir_lattice_q31.c ****   q31_t *pk;                                     /* temporary coefficient pointer */
  68:../Dave/Generated/CMSIS_DSP/FilteringFunctions/arm_fir_lattice_q31.c ****   q31_t fcurr1, fnext1, gcurr1 = 0, gnext1;      /* temporary variables for first sample in loop un
  69:../Dave/Generated/CMSIS_DSP/FilteringFunctions/arm_fir_lattice_q31.c ****   q31_t fcurr2, fnext2, gnext2;                  /* temporary variables for second sample in loop u
  70:../Dave/Generated/CMSIS_DSP/FilteringFunctions/arm_fir_lattice_q31.c ****   uint32_t numStages = S->numStages;             /* Length of the filter */
  50              	 .loc 1 70 0
  51 0008 0588     	 ldrh r5,[r0]
  63:../Dave/Generated/CMSIS_DSP/FilteringFunctions/arm_fir_lattice_q31.c ****   q31_t *pState;                                 /* State pointer */
  52              	 .loc 1 63 0
  53 000a 0D93     	 str r3,[sp,#52]
  71:../Dave/Generated/CMSIS_DSP/FilteringFunctions/arm_fir_lattice_q31.c ****   uint32_t blkCnt, stageCnt;                     /* temporary variables for counts */
  72:../Dave/Generated/CMSIS_DSP/FilteringFunctions/arm_fir_lattice_q31.c ****   q31_t k;
  73:../Dave/Generated/CMSIS_DSP/FilteringFunctions/arm_fir_lattice_q31.c **** 
  74:../Dave/Generated/CMSIS_DSP/FilteringFunctions/arm_fir_lattice_q31.c ****   pState = &S->pState[0];
  54              	 .loc 1 74 0
  55 000c 4068     	 ldr r0,[r0,#4]
  56              	.LVL1:
  63:../Dave/Generated/CMSIS_DSP/FilteringFunctions/arm_fir_lattice_q31.c ****   q31_t *pState;                                 /* State pointer */
  57              	 .loc 1 63 0
  58 000e 0691     	 str r1,[sp,#24]
  75:../Dave/Generated/CMSIS_DSP/FilteringFunctions/arm_fir_lattice_q31.c **** 
  76:../Dave/Generated/CMSIS_DSP/FilteringFunctions/arm_fir_lattice_q31.c ****   blkCnt = blockSize >> 1u;
  77:../Dave/Generated/CMSIS_DSP/FilteringFunctions/arm_fir_lattice_q31.c **** 
  78:../Dave/Generated/CMSIS_DSP/FilteringFunctions/arm_fir_lattice_q31.c ****   /* First part of the processing with loop unrolling.  Compute 2 outputs at a time.
  79:../Dave/Generated/CMSIS_DSP/FilteringFunctions/arm_fir_lattice_q31.c ****      a second loop below computes the remaining 1 sample. */
  80:../Dave/Generated/CMSIS_DSP/FilteringFunctions/arm_fir_lattice_q31.c ****   while (blkCnt > 0u)
  59              	 .loc 1 80 0
  60 0010 5B08     	 lsrs r3,r3,#1
  61              	.LVL2:
  63:../Dave/Generated/CMSIS_DSP/FilteringFunctions/arm_fir_lattice_q31.c ****   q31_t *pState;                                 /* State pointer */
  62              	 .loc 1 63 0
  63 0012 0792     	 str r2,[sp,#28]
  65:../Dave/Generated/CMSIS_DSP/FilteringFunctions/arm_fir_lattice_q31.c ****   q31_t *px;                                     /* temporary state pointer */
  64              	 .loc 1 65 0
  65 0014 0194     	 str r4,[sp,#4]
  66              	.LVL3:
  70:../Dave/Generated/CMSIS_DSP/FilteringFunctions/arm_fir_lattice_q31.c ****   uint32_t blkCnt, stageCnt;                     /* temporary variables for counts */
  67              	 .loc 1 70 0
  68 0016 0895     	 str r5,[sp,#32]
  69              	.LVL4:
  74:../Dave/Generated/CMSIS_DSP/FilteringFunctions/arm_fir_lattice_q31.c **** 
  70              	 .loc 1 74 0
  71 0018 0390     	 str r0,[sp,#12]
  72              	.LVL5:
  73              	 .loc 1 80 0
  74 001a 0C93     	 str r3,[sp,#48]
  75 001c 59D0     	 beq .L2
  76 001e 0430     	 adds r0,r0,#4
  77              	.LVL6:
  78 0020 0434     	 adds r4,r4,#4
  79              	.LVL7:
  80 0022 0B90     	 str r0,[sp,#44]
  81 0024 0831     	 adds r1,r1,#8
  82              	.LVL8:
  83 0026 681E     	 subs r0,r5,#1
  84 0028 0832     	 adds r2,r2,#8
  85              	.LVL9:
  86 002a 0A94     	 str r4,[sp,#40]
  87 002c 0990     	 str r0,[sp,#36]
  88 002e 0291     	 str r1,[sp,#8]
  89 0030 0592     	 str r2,[sp,#20]
  90 0032 0493     	 str r3,[sp,#16]
  91              	.LVL10:
  92              	.L5:
  81:../Dave/Generated/CMSIS_DSP/FilteringFunctions/arm_fir_lattice_q31.c ****   {
  82:../Dave/Generated/CMSIS_DSP/FilteringFunctions/arm_fir_lattice_q31.c ****     /* f0(n) = x(n) */
  83:../Dave/Generated/CMSIS_DSP/FilteringFunctions/arm_fir_lattice_q31.c ****     fcurr1 = *pSrc++;
  84:../Dave/Generated/CMSIS_DSP/FilteringFunctions/arm_fir_lattice_q31.c **** 
  85:../Dave/Generated/CMSIS_DSP/FilteringFunctions/arm_fir_lattice_q31.c ****     /* f0(n) = x(n) */
  86:../Dave/Generated/CMSIS_DSP/FilteringFunctions/arm_fir_lattice_q31.c ****     fcurr2 = *pSrc++;
  87:../Dave/Generated/CMSIS_DSP/FilteringFunctions/arm_fir_lattice_q31.c **** 
  88:../Dave/Generated/CMSIS_DSP/FilteringFunctions/arm_fir_lattice_q31.c ****     /* Initialize coeff pointer */
  89:../Dave/Generated/CMSIS_DSP/FilteringFunctions/arm_fir_lattice_q31.c ****     pk = (pCoeffs);
  90:../Dave/Generated/CMSIS_DSP/FilteringFunctions/arm_fir_lattice_q31.c **** 
  91:../Dave/Generated/CMSIS_DSP/FilteringFunctions/arm_fir_lattice_q31.c ****     /* Initialize state pointer */
  92:../Dave/Generated/CMSIS_DSP/FilteringFunctions/arm_fir_lattice_q31.c ****     px = pState;
  93:../Dave/Generated/CMSIS_DSP/FilteringFunctions/arm_fir_lattice_q31.c **** 
  94:../Dave/Generated/CMSIS_DSP/FilteringFunctions/arm_fir_lattice_q31.c ****     /* read g0(n - 1) from state buffer */
  95:../Dave/Generated/CMSIS_DSP/FilteringFunctions/arm_fir_lattice_q31.c ****     gcurr1 = *px;
  93              	 .loc 1 95 0
  94 0034 039D     	 ldr r5,[sp,#12]
  83:../Dave/Generated/CMSIS_DSP/FilteringFunctions/arm_fir_lattice_q31.c **** 
  95              	 .loc 1 83 0
  96 0036 0298     	 ldr r0,[sp,#8]
  96:../Dave/Generated/CMSIS_DSP/FilteringFunctions/arm_fir_lattice_q31.c **** 
  97:../Dave/Generated/CMSIS_DSP/FilteringFunctions/arm_fir_lattice_q31.c ****     /* Read the reflection coefficient */
  98:../Dave/Generated/CMSIS_DSP/FilteringFunctions/arm_fir_lattice_q31.c ****     k = *pk++;
  97              	 .loc 1 98 0
  98 0038 019B     	 ldr r3,[sp,#4]
  83:../Dave/Generated/CMSIS_DSP/FilteringFunctions/arm_fir_lattice_q31.c **** 
  99              	 .loc 1 83 0
 100 003a 50F8081C 	 ldr r1,[r0,#-8]
 101              	.LVL11:
 102              	 .loc 1 98 0
 103 003e 1A68     	 ldr r2,[r3]
  95:../Dave/Generated/CMSIS_DSP/FilteringFunctions/arm_fir_lattice_q31.c **** 
 104              	 .loc 1 95 0
 105 0040 2C68     	 ldr r4,[r5]
  86:../Dave/Generated/CMSIS_DSP/FilteringFunctions/arm_fir_lattice_q31.c **** 
 106              	 .loc 1 86 0
 107 0042 50F8040C 	 ldr r0,[r0,#-4]
 108              	.LVL12:
  99:../Dave/Generated/CMSIS_DSP/FilteringFunctions/arm_fir_lattice_q31.c **** 
 100:../Dave/Generated/CMSIS_DSP/FilteringFunctions/arm_fir_lattice_q31.c ****     /* for sample 1 processing */
 101:../Dave/Generated/CMSIS_DSP/FilteringFunctions/arm_fir_lattice_q31.c ****     /* f1(n) = f0(n) +  K1 * g0(n-1) */
 102:../Dave/Generated/CMSIS_DSP/FilteringFunctions/arm_fir_lattice_q31.c ****     fnext1 = (q31_t) (((q63_t) gcurr1 * k) >> 32);
 103:../Dave/Generated/CMSIS_DSP/FilteringFunctions/arm_fir_lattice_q31.c **** 
 104:../Dave/Generated/CMSIS_DSP/FilteringFunctions/arm_fir_lattice_q31.c ****     /* g1(n) = f0(n) * K1  +  g0(n-1) */
 105:../Dave/Generated/CMSIS_DSP/FilteringFunctions/arm_fir_lattice_q31.c ****     gnext1 = (q31_t) (((q63_t) fcurr1 * (k)) >> 32);
 106:../Dave/Generated/CMSIS_DSP/FilteringFunctions/arm_fir_lattice_q31.c ****     fnext1 = fcurr1 + (fnext1 << 1u);
 107:../Dave/Generated/CMSIS_DSP/FilteringFunctions/arm_fir_lattice_q31.c ****     gnext1 = gcurr1 + (gnext1 << 1u);
 108:../Dave/Generated/CMSIS_DSP/FilteringFunctions/arm_fir_lattice_q31.c **** 
 109:../Dave/Generated/CMSIS_DSP/FilteringFunctions/arm_fir_lattice_q31.c ****     /* for sample 1 processing */
 110:../Dave/Generated/CMSIS_DSP/FilteringFunctions/arm_fir_lattice_q31.c ****     /* f1(n) = f0(n) +  K1 * g0(n-1) */
 111:../Dave/Generated/CMSIS_DSP/FilteringFunctions/arm_fir_lattice_q31.c ****     fnext2 = (q31_t) (((q63_t) fcurr1 * k) >> 32);
 112:../Dave/Generated/CMSIS_DSP/FilteringFunctions/arm_fir_lattice_q31.c **** 
 113:../Dave/Generated/CMSIS_DSP/FilteringFunctions/arm_fir_lattice_q31.c ****     /* g1(n) = f0(n) * K1  +  g0(n-1) */
 114:../Dave/Generated/CMSIS_DSP/FilteringFunctions/arm_fir_lattice_q31.c ****     gnext2 = (q31_t) (((q63_t) fcurr2 * (k)) >> 32);
 115:../Dave/Generated/CMSIS_DSP/FilteringFunctions/arm_fir_lattice_q31.c ****     fnext2 = fcurr2 + (fnext2 << 1u);
 116:../Dave/Generated/CMSIS_DSP/FilteringFunctions/arm_fir_lattice_q31.c ****     gnext2 = fcurr1 + (gnext2 << 1u);
 117:../Dave/Generated/CMSIS_DSP/FilteringFunctions/arm_fir_lattice_q31.c **** 
 118:../Dave/Generated/CMSIS_DSP/FilteringFunctions/arm_fir_lattice_q31.c ****     /* save g1(n) in state buffer */
 119:../Dave/Generated/CMSIS_DSP/FilteringFunctions/arm_fir_lattice_q31.c ****     *px++ = fcurr2;
 109              	 .loc 1 119 0
 110 0046 2860     	 str r0,[r5]
 102:../Dave/Generated/CMSIS_DSP/FilteringFunctions/arm_fir_lattice_q31.c **** 
 111              	 .loc 1 102 0
 112 0048 84FB0267 	 smull r6,r7,r4,r2
 105:../Dave/Generated/CMSIS_DSP/FilteringFunctions/arm_fir_lattice_q31.c ****     fnext1 = fcurr1 + (fnext1 << 1u);
 113              	 .loc 1 105 0
 114 004c 82FB0189 	 smull r8,r9,r2,r1
 114:../Dave/Generated/CMSIS_DSP/FilteringFunctions/arm_fir_lattice_q31.c ****     fnext2 = fcurr2 + (fnext2 << 1u);
 115              	 .loc 1 114 0
 116 0050 82FB0023 	 smull r2,r3,r2,r0
 117              	.LVL13:
 106:../Dave/Generated/CMSIS_DSP/FilteringFunctions/arm_fir_lattice_q31.c ****     gnext1 = gcurr1 + (gnext1 << 1u);
 118              	 .loc 1 106 0
 119 0054 01EB4702 	 add r2,r1,r7,lsl#1
 116:../Dave/Generated/CMSIS_DSP/FilteringFunctions/arm_fir_lattice_q31.c **** 
 120              	 .loc 1 116 0
 121 0058 01EB4301 	 add r1,r1,r3,lsl#1
 122              	.LVL14:
 120:../Dave/Generated/CMSIS_DSP/FilteringFunctions/arm_fir_lattice_q31.c **** 
 121:../Dave/Generated/CMSIS_DSP/FilteringFunctions/arm_fir_lattice_q31.c ****     /* f1(n) is saved in fcurr1
 122:../Dave/Generated/CMSIS_DSP/FilteringFunctions/arm_fir_lattice_q31.c ****        for next stage processing */
 123:../Dave/Generated/CMSIS_DSP/FilteringFunctions/arm_fir_lattice_q31.c ****     fcurr1 = fnext1;
 124:../Dave/Generated/CMSIS_DSP/FilteringFunctions/arm_fir_lattice_q31.c ****     fcurr2 = fnext2;
 125:../Dave/Generated/CMSIS_DSP/FilteringFunctions/arm_fir_lattice_q31.c **** 
 126:../Dave/Generated/CMSIS_DSP/FilteringFunctions/arm_fir_lattice_q31.c ****     stageCnt = (numStages - 1u);
 127:../Dave/Generated/CMSIS_DSP/FilteringFunctions/arm_fir_lattice_q31.c **** 
 128:../Dave/Generated/CMSIS_DSP/FilteringFunctions/arm_fir_lattice_q31.c ****     /* stage loop */
 129:../Dave/Generated/CMSIS_DSP/FilteringFunctions/arm_fir_lattice_q31.c ****     while (stageCnt > 0u)
 123              	 .loc 1 129 0
 124 005c 099B     	 ldr r3,[sp,#36]
 107:../Dave/Generated/CMSIS_DSP/FilteringFunctions/arm_fir_lattice_q31.c **** 
 125              	 .loc 1 107 0
 126 005e 4FEA4905 	 lsl r5,r9,#1
 127              	.LVL15:
 128 0062 2C44     	 add r4,r4,r5
 129              	.LVL16:
 115:../Dave/Generated/CMSIS_DSP/FilteringFunctions/arm_fir_lattice_q31.c ****     gnext2 = fcurr1 + (gnext2 << 1u);
 130              	 .loc 1 115 0
 131 0064 2844     	 add r0,r0,r5
 132              	.LVL17:
 133              	 .loc 1 129 0
 134 0066 002B     	 cmp r3,#0
 135 0068 62D0     	 beq .L9
 136 006a DDF828E0 	 ldr lr,[sp,#40]
 137 006e 0B9D     	 ldr r5,[sp,#44]
 138 0070 1E46     	 mov r6,r3
 139              	.LVL18:
 140              	.L4:
 130:../Dave/Generated/CMSIS_DSP/FilteringFunctions/arm_fir_lattice_q31.c ****     {
 131:../Dave/Generated/CMSIS_DSP/FilteringFunctions/arm_fir_lattice_q31.c **** 
 132:../Dave/Generated/CMSIS_DSP/FilteringFunctions/arm_fir_lattice_q31.c ****       /* Read the reflection coefficient */
 133:../Dave/Generated/CMSIS_DSP/FilteringFunctions/arm_fir_lattice_q31.c ****       k = *pk++;
 141              	 .loc 1 133 0
 142 0072 5EF8043B 	 ldr r3,[lr],#4
 143              	.LVL19:
 134:../Dave/Generated/CMSIS_DSP/FilteringFunctions/arm_fir_lattice_q31.c **** 
 135:../Dave/Generated/CMSIS_DSP/FilteringFunctions/arm_fir_lattice_q31.c ****       /* read g2(n) from state buffer */
 136:../Dave/Generated/CMSIS_DSP/FilteringFunctions/arm_fir_lattice_q31.c ****       gcurr1 = *px;
 144              	 .loc 1 136 0
 145 0076 2F68     	 ldr r7,[r5]
 146              	.LVL20:
 137:../Dave/Generated/CMSIS_DSP/FilteringFunctions/arm_fir_lattice_q31.c **** 
 138:../Dave/Generated/CMSIS_DSP/FilteringFunctions/arm_fir_lattice_q31.c ****       /* save g1(n) in state buffer */
 139:../Dave/Generated/CMSIS_DSP/FilteringFunctions/arm_fir_lattice_q31.c ****       *px++ = gnext2;
 147              	 .loc 1 139 0
 148 0078 45F8041B 	 str r1,[r5],#4
 149              	.LVL21:
 140:../Dave/Generated/CMSIS_DSP/FilteringFunctions/arm_fir_lattice_q31.c **** 
 141:../Dave/Generated/CMSIS_DSP/FilteringFunctions/arm_fir_lattice_q31.c ****       /* Sample processing for K2, K3.... */
 142:../Dave/Generated/CMSIS_DSP/FilteringFunctions/arm_fir_lattice_q31.c ****       /* f2(n) = f1(n) +  K2 * g1(n-1) */
 143:../Dave/Generated/CMSIS_DSP/FilteringFunctions/arm_fir_lattice_q31.c ****       fnext1 = (q31_t) (((q63_t) gcurr1 * k) >> 32);
 150              	 .loc 1 143 0
 151 007c 87FB03AB 	 smull r10,fp,r7,r3
 144:../Dave/Generated/CMSIS_DSP/FilteringFunctions/arm_fir_lattice_q31.c ****       fnext2 = (q31_t) (((q63_t) gnext1 * k) >> 32);
 152              	 .loc 1 144 0
 153 0080 83FB0489 	 smull r8,r9,r3,r4
 145:../Dave/Generated/CMSIS_DSP/FilteringFunctions/arm_fir_lattice_q31.c **** 
 146:../Dave/Generated/CMSIS_DSP/FilteringFunctions/arm_fir_lattice_q31.c ****       fnext1 = fcurr1 + (fnext1 << 1u);
 154              	 .loc 1 146 0
 155 0084 02EB4B0C 	 add ip,r2,fp,lsl#1
 156              	.LVL22:
 147:../Dave/Generated/CMSIS_DSP/FilteringFunctions/arm_fir_lattice_q31.c ****       fnext2 = fcurr2 + (fnext2 << 1u);
 157              	 .loc 1 147 0
 158 0088 00EB4908 	 add r8,r0,r9,lsl#1
 159              	.LVL23:
 148:../Dave/Generated/CMSIS_DSP/FilteringFunctions/arm_fir_lattice_q31.c **** 
 149:../Dave/Generated/CMSIS_DSP/FilteringFunctions/arm_fir_lattice_q31.c ****       /* g2(n) = f1(n) * K2  +  g1(n-1) */
 150:../Dave/Generated/CMSIS_DSP/FilteringFunctions/arm_fir_lattice_q31.c ****       gnext2 = (q31_t) (((q63_t) fcurr2 * (k)) >> 32);
 151:../Dave/Generated/CMSIS_DSP/FilteringFunctions/arm_fir_lattice_q31.c ****       gnext2 = gnext1 + (gnext2 << 1u);
 152:../Dave/Generated/CMSIS_DSP/FilteringFunctions/arm_fir_lattice_q31.c **** 
 153:../Dave/Generated/CMSIS_DSP/FilteringFunctions/arm_fir_lattice_q31.c ****       /* g2(n) = f1(n) * K2  +  g1(n-1) */
 154:../Dave/Generated/CMSIS_DSP/FilteringFunctions/arm_fir_lattice_q31.c ****       gnext1 = (q31_t) (((q63_t) fcurr1 * (k)) >> 32);
 160              	 .loc 1 154 0
 161 008c 83FB02AB 	 smull r10,fp,r3,r2
 150:../Dave/Generated/CMSIS_DSP/FilteringFunctions/arm_fir_lattice_q31.c ****       gnext2 = gnext1 + (gnext2 << 1u);
 162              	 .loc 1 150 0
 163 0090 83FB0001 	 smull r0,r1,r3,r0
 164              	.LVL24:
 129:../Dave/Generated/CMSIS_DSP/FilteringFunctions/arm_fir_lattice_q31.c ****     {
 165              	 .loc 1 129 0
 166 0094 013E     	 subs r6,r6,#1
 167              	.LVL25:
 151:../Dave/Generated/CMSIS_DSP/FilteringFunctions/arm_fir_lattice_q31.c **** 
 168              	 .loc 1 151 0
 169 0096 04EB4101 	 add r1,r4,r1,lsl#1
 170              	.LVL26:
 146:../Dave/Generated/CMSIS_DSP/FilteringFunctions/arm_fir_lattice_q31.c ****       fnext2 = fcurr2 + (fnext2 << 1u);
 171              	 .loc 1 146 0
 172 009a 6246     	 mov r2,ip
 173              	.LVL27:
 155:../Dave/Generated/CMSIS_DSP/FilteringFunctions/arm_fir_lattice_q31.c ****       gnext1 = gcurr1 + (gnext1 << 1u);
 174              	 .loc 1 155 0
 175 009c 07EB4B04 	 add r4,r7,fp,lsl#1
 176              	.LVL28:
 147:../Dave/Generated/CMSIS_DSP/FilteringFunctions/arm_fir_lattice_q31.c **** 
 177              	 .loc 1 147 0
 178 00a0 4046     	 mov r0,r8
 129:../Dave/Generated/CMSIS_DSP/FilteringFunctions/arm_fir_lattice_q31.c ****     {
 179              	 .loc 1 129 0
 180 00a2 E6D1     	 bne .L4
 181              	.LVL29:
 182              	.L3:
 156:../Dave/Generated/CMSIS_DSP/FilteringFunctions/arm_fir_lattice_q31.c **** 
 157:../Dave/Generated/CMSIS_DSP/FilteringFunctions/arm_fir_lattice_q31.c ****       /* f1(n) is saved in fcurr1
 158:../Dave/Generated/CMSIS_DSP/FilteringFunctions/arm_fir_lattice_q31.c ****          for next stage processing */
 159:../Dave/Generated/CMSIS_DSP/FilteringFunctions/arm_fir_lattice_q31.c ****       fcurr1 = fnext1;
 160:../Dave/Generated/CMSIS_DSP/FilteringFunctions/arm_fir_lattice_q31.c ****       fcurr2 = fnext2;
 161:../Dave/Generated/CMSIS_DSP/FilteringFunctions/arm_fir_lattice_q31.c **** 
 162:../Dave/Generated/CMSIS_DSP/FilteringFunctions/arm_fir_lattice_q31.c ****       stageCnt--;
 163:../Dave/Generated/CMSIS_DSP/FilteringFunctions/arm_fir_lattice_q31.c **** 
 164:../Dave/Generated/CMSIS_DSP/FilteringFunctions/arm_fir_lattice_q31.c ****     }
 165:../Dave/Generated/CMSIS_DSP/FilteringFunctions/arm_fir_lattice_q31.c **** 
 166:../Dave/Generated/CMSIS_DSP/FilteringFunctions/arm_fir_lattice_q31.c ****     /* y(n) = fN(n) */
 167:../Dave/Generated/CMSIS_DSP/FilteringFunctions/arm_fir_lattice_q31.c ****     *pDst++ = fcurr1;
 183              	 .loc 1 167 0
 184 00a4 059A     	 ldr r2,[sp,#20]
 185              	.LVL30:
 186 00a6 1346     	 mov r3,r2
 187 00a8 0833     	 adds r3,r3,#8
 188 00aa 42F808CC 	 str ip,[r2,#-8]
 189              	.LVL31:
 168:../Dave/Generated/CMSIS_DSP/FilteringFunctions/arm_fir_lattice_q31.c ****     *pDst++ = fcurr2;
 190              	 .loc 1 168 0
 191 00ae 42F8048C 	 str r8,[r2,#-4]
 192 00b2 0593     	 str r3,[sp,#20]
 193 00b4 029A     	 ldr r2,[sp,#8]
  80:../Dave/Generated/CMSIS_DSP/FilteringFunctions/arm_fir_lattice_q31.c ****   {
 194              	 .loc 1 80 0
 195 00b6 049B     	 ldr r3,[sp,#16]
 196 00b8 0832     	 adds r2,r2,#8
 197 00ba 013B     	 subs r3,r3,#1
 198              	.LVL32:
 199 00bc 0292     	 str r2,[sp,#8]
 200              	.LVL33:
 201 00be 0493     	 str r3,[sp,#16]
 202 00c0 B8D1     	 bne .L5
 203 00c2 0C9B     	 ldr r3,[sp,#48]
 204              	.LVL34:
 205 00c4 069A     	 ldr r2,[sp,#24]
 206 00c6 DB00     	 lsls r3,r3,#3
 207 00c8 1A44     	 add r2,r2,r3
 208 00ca 0692     	 str r2,[sp,#24]
 209 00cc 079A     	 ldr r2,[sp,#28]
 210 00ce 1A44     	 add r2,r2,r3
 211 00d0 0792     	 str r2,[sp,#28]
 212              	.LVL35:
 213              	.L2:
 169:../Dave/Generated/CMSIS_DSP/FilteringFunctions/arm_fir_lattice_q31.c **** 
 170:../Dave/Generated/CMSIS_DSP/FilteringFunctions/arm_fir_lattice_q31.c ****     blkCnt--;
 171:../Dave/Generated/CMSIS_DSP/FilteringFunctions/arm_fir_lattice_q31.c **** 
 172:../Dave/Generated/CMSIS_DSP/FilteringFunctions/arm_fir_lattice_q31.c ****   }
 173:../Dave/Generated/CMSIS_DSP/FilteringFunctions/arm_fir_lattice_q31.c **** 
 174:../Dave/Generated/CMSIS_DSP/FilteringFunctions/arm_fir_lattice_q31.c ****   /* If the blockSize is not a multiple of 4, compute any remaining output samples here.
 175:../Dave/Generated/CMSIS_DSP/FilteringFunctions/arm_fir_lattice_q31.c ****    ** No loop unrolling is used. */
 176:../Dave/Generated/CMSIS_DSP/FilteringFunctions/arm_fir_lattice_q31.c ****   blkCnt = blockSize % 0x2u;
 177:../Dave/Generated/CMSIS_DSP/FilteringFunctions/arm_fir_lattice_q31.c **** 
 178:../Dave/Generated/CMSIS_DSP/FilteringFunctions/arm_fir_lattice_q31.c ****   while (blkCnt > 0u)
 214              	 .loc 1 178 0
 215 00d2 0D9B     	 ldr r3,[sp,#52]
 216 00d4 DB07     	 lsls r3,r3,#31
 217 00d6 26D5     	 bpl .L1
 218              	.LVL36:
 179:../Dave/Generated/CMSIS_DSP/FilteringFunctions/arm_fir_lattice_q31.c ****   {
 180:../Dave/Generated/CMSIS_DSP/FilteringFunctions/arm_fir_lattice_q31.c ****     /* f0(n) = x(n) */
 181:../Dave/Generated/CMSIS_DSP/FilteringFunctions/arm_fir_lattice_q31.c ****     fcurr1 = *pSrc++;
 182:../Dave/Generated/CMSIS_DSP/FilteringFunctions/arm_fir_lattice_q31.c **** 
 183:../Dave/Generated/CMSIS_DSP/FilteringFunctions/arm_fir_lattice_q31.c ****     /* Initialize coeff pointer */
 184:../Dave/Generated/CMSIS_DSP/FilteringFunctions/arm_fir_lattice_q31.c ****     pk = (pCoeffs);
 185:../Dave/Generated/CMSIS_DSP/FilteringFunctions/arm_fir_lattice_q31.c **** 
 186:../Dave/Generated/CMSIS_DSP/FilteringFunctions/arm_fir_lattice_q31.c ****     /* Initialize state pointer */
 187:../Dave/Generated/CMSIS_DSP/FilteringFunctions/arm_fir_lattice_q31.c ****     px = pState;
 188:../Dave/Generated/CMSIS_DSP/FilteringFunctions/arm_fir_lattice_q31.c **** 
 189:../Dave/Generated/CMSIS_DSP/FilteringFunctions/arm_fir_lattice_q31.c ****     /* read g0(n - 1) from state buffer */
 190:../Dave/Generated/CMSIS_DSP/FilteringFunctions/arm_fir_lattice_q31.c ****     gcurr1 = *px;
 219              	 .loc 1 190 0
 220 00d8 039D     	 ldr r5,[sp,#12]
 181:../Dave/Generated/CMSIS_DSP/FilteringFunctions/arm_fir_lattice_q31.c **** 
 221              	 .loc 1 181 0
 222 00da 069B     	 ldr r3,[sp,#24]
 223              	 .loc 1 190 0
 224 00dc 2946     	 mov r1,r5
 181:../Dave/Generated/CMSIS_DSP/FilteringFunctions/arm_fir_lattice_q31.c **** 
 225              	 .loc 1 181 0
 226 00de 1A68     	 ldr r2,[r3]
 227              	.LVL37:
 191:../Dave/Generated/CMSIS_DSP/FilteringFunctions/arm_fir_lattice_q31.c **** 
 192:../Dave/Generated/CMSIS_DSP/FilteringFunctions/arm_fir_lattice_q31.c ****     /* Read the reflection coefficient */
 193:../Dave/Generated/CMSIS_DSP/FilteringFunctions/arm_fir_lattice_q31.c ****     k = *pk++;
 228              	 .loc 1 193 0
 229 00e0 019B     	 ldr r3,[sp,#4]
 190:../Dave/Generated/CMSIS_DSP/FilteringFunctions/arm_fir_lattice_q31.c **** 
 230              	 .loc 1 190 0
 231 00e2 51F8040B 	 ldr r0,[r1],#4
 232              	.LVL38:
 233              	 .loc 1 193 0
 234 00e6 1C68     	 ldr r4,[r3]
 194:../Dave/Generated/CMSIS_DSP/FilteringFunctions/arm_fir_lattice_q31.c **** 
 195:../Dave/Generated/CMSIS_DSP/FilteringFunctions/arm_fir_lattice_q31.c ****     /* for sample 1 processing */
 196:../Dave/Generated/CMSIS_DSP/FilteringFunctions/arm_fir_lattice_q31.c ****     /* f1(n) = f0(n) +  K1 * g0(n-1) */
 197:../Dave/Generated/CMSIS_DSP/FilteringFunctions/arm_fir_lattice_q31.c ****     fnext1 = (q31_t) (((q63_t) gcurr1 * k) >> 32);
 198:../Dave/Generated/CMSIS_DSP/FilteringFunctions/arm_fir_lattice_q31.c ****     fnext1 = fcurr1 + (fnext1 << 1u);
 199:../Dave/Generated/CMSIS_DSP/FilteringFunctions/arm_fir_lattice_q31.c **** 
 200:../Dave/Generated/CMSIS_DSP/FilteringFunctions/arm_fir_lattice_q31.c ****     /* g1(n) = f0(n) * K1  +  g0(n-1) */
 201:../Dave/Generated/CMSIS_DSP/FilteringFunctions/arm_fir_lattice_q31.c ****     gnext1 = (q31_t) (((q63_t) fcurr1 * (k)) >> 32);
 202:../Dave/Generated/CMSIS_DSP/FilteringFunctions/arm_fir_lattice_q31.c ****     gnext1 = gcurr1 + (gnext1 << 1u);
 203:../Dave/Generated/CMSIS_DSP/FilteringFunctions/arm_fir_lattice_q31.c **** 
 204:../Dave/Generated/CMSIS_DSP/FilteringFunctions/arm_fir_lattice_q31.c ****     /* save g1(n) in state buffer */
 205:../Dave/Generated/CMSIS_DSP/FilteringFunctions/arm_fir_lattice_q31.c ****     *px++ = fcurr1;
 235              	 .loc 1 205 0
 236 00e8 2A60     	 str r2,[r5]
 197:../Dave/Generated/CMSIS_DSP/FilteringFunctions/arm_fir_lattice_q31.c ****     fnext1 = fcurr1 + (fnext1 << 1u);
 237              	 .loc 1 197 0
 238 00ea 80FB0467 	 smull r6,r7,r0,r4
 201:../Dave/Generated/CMSIS_DSP/FilteringFunctions/arm_fir_lattice_q31.c ****     gnext1 = gcurr1 + (gnext1 << 1u);
 239              	 .loc 1 201 0
 240 00ee 84FB0245 	 smull r4,r5,r4,r2
 193:../Dave/Generated/CMSIS_DSP/FilteringFunctions/arm_fir_lattice_q31.c **** 
 241              	 .loc 1 193 0
 242 00f2 1C1D     	 adds r4,r3,#4
 243              	.LVL39:
 198:../Dave/Generated/CMSIS_DSP/FilteringFunctions/arm_fir_lattice_q31.c **** 
 244              	 .loc 1 198 0
 245 00f4 02EB4703 	 add r3,r2,r7,lsl#1
 246              	.LVL40:
 206:../Dave/Generated/CMSIS_DSP/FilteringFunctions/arm_fir_lattice_q31.c **** 
 207:../Dave/Generated/CMSIS_DSP/FilteringFunctions/arm_fir_lattice_q31.c ****     /* f1(n) is saved in fcurr1
 208:../Dave/Generated/CMSIS_DSP/FilteringFunctions/arm_fir_lattice_q31.c ****        for next stage processing */
 209:../Dave/Generated/CMSIS_DSP/FilteringFunctions/arm_fir_lattice_q31.c ****     fcurr1 = fnext1;
 210:../Dave/Generated/CMSIS_DSP/FilteringFunctions/arm_fir_lattice_q31.c **** 
 211:../Dave/Generated/CMSIS_DSP/FilteringFunctions/arm_fir_lattice_q31.c ****     stageCnt = (numStages - 1u);
 212:../Dave/Generated/CMSIS_DSP/FilteringFunctions/arm_fir_lattice_q31.c **** 
 213:../Dave/Generated/CMSIS_DSP/FilteringFunctions/arm_fir_lattice_q31.c ****     /* stage loop */
 214:../Dave/Generated/CMSIS_DSP/FilteringFunctions/arm_fir_lattice_q31.c ****     while (stageCnt > 0u)
 247              	 .loc 1 214 0
 248 00f8 089A     	 ldr r2,[sp,#32]
 249              	.LVL41:
 202:../Dave/Generated/CMSIS_DSP/FilteringFunctions/arm_fir_lattice_q31.c **** 
 250              	 .loc 1 202 0
 251 00fa 00EB4506 	 add r6,r0,r5,lsl#1
 252              	.LVL42:
 253              	 .loc 1 214 0
 254 00fe 501E     	 subs r0,r2,#1
 255              	.LVL43:
 256 0100 14D0     	 beq .L10
 257              	.LVL44:
 258              	.L8:
 215:../Dave/Generated/CMSIS_DSP/FilteringFunctions/arm_fir_lattice_q31.c ****     {
 216:../Dave/Generated/CMSIS_DSP/FilteringFunctions/arm_fir_lattice_q31.c ****       /* Read the reflection coefficient */
 217:../Dave/Generated/CMSIS_DSP/FilteringFunctions/arm_fir_lattice_q31.c ****       k = *pk++;
 259              	 .loc 1 217 0
 260 0102 54F8042B 	 ldr r2,[r4],#4
 261              	.LVL45:
 218:../Dave/Generated/CMSIS_DSP/FilteringFunctions/arm_fir_lattice_q31.c **** 
 219:../Dave/Generated/CMSIS_DSP/FilteringFunctions/arm_fir_lattice_q31.c ****       /* read g2(n) from state buffer */
 220:../Dave/Generated/CMSIS_DSP/FilteringFunctions/arm_fir_lattice_q31.c ****       gcurr1 = *px;
 262              	 .loc 1 220 0
 263 0106 0D68     	 ldr r5,[r1]
 264              	.LVL46:
 221:../Dave/Generated/CMSIS_DSP/FilteringFunctions/arm_fir_lattice_q31.c **** 
 222:../Dave/Generated/CMSIS_DSP/FilteringFunctions/arm_fir_lattice_q31.c ****       /* save g1(n) in state buffer */
 223:../Dave/Generated/CMSIS_DSP/FilteringFunctions/arm_fir_lattice_q31.c ****       *px++ = gnext1;
 265              	 .loc 1 223 0
 266 0108 41F8046B 	 str r6,[r1],#4
 267              	.LVL47:
 224:../Dave/Generated/CMSIS_DSP/FilteringFunctions/arm_fir_lattice_q31.c **** 
 225:../Dave/Generated/CMSIS_DSP/FilteringFunctions/arm_fir_lattice_q31.c ****       /* Sample processing for K2, K3.... */
 226:../Dave/Generated/CMSIS_DSP/FilteringFunctions/arm_fir_lattice_q31.c ****       /* f2(n) = f1(n) +  K2 * g1(n-1) */
 227:../Dave/Generated/CMSIS_DSP/FilteringFunctions/arm_fir_lattice_q31.c ****       fnext1 = (q31_t) (((q63_t) gcurr1 * k) >> 32);
 268              	 .loc 1 227 0
 269 010c 85FB0267 	 smull r6,r7,r5,r2
 270              	.LVL48:
 228:../Dave/Generated/CMSIS_DSP/FilteringFunctions/arm_fir_lattice_q31.c ****       fnext1 = fcurr1 + (fnext1 << 1u);
 271              	 .loc 1 228 0
 272 0110 03EB4707 	 add r7,r3,r7,lsl#1
 273              	.LVL49:
 214:../Dave/Generated/CMSIS_DSP/FilteringFunctions/arm_fir_lattice_q31.c ****     {
 274              	 .loc 1 214 0
 275 0114 0138     	 subs r0,r0,#1
 276              	.LVL50:
 229:../Dave/Generated/CMSIS_DSP/FilteringFunctions/arm_fir_lattice_q31.c **** 
 230:../Dave/Generated/CMSIS_DSP/FilteringFunctions/arm_fir_lattice_q31.c ****       /* g2(n) = f1(n) * K2  +  g1(n-1) */
 231:../Dave/Generated/CMSIS_DSP/FilteringFunctions/arm_fir_lattice_q31.c ****       gnext1 = (q31_t) (((q63_t) fcurr1 * (k)) >> 32);
 277              	 .loc 1 231 0
 278 0116 82FB0323 	 smull r2,r3,r2,r3
 279              	.LVL51:
 232:../Dave/Generated/CMSIS_DSP/FilteringFunctions/arm_fir_lattice_q31.c ****       gnext1 = gcurr1 + (gnext1 << 1u);
 280              	 .loc 1 232 0
 281 011a 05EB4306 	 add r6,r5,r3,lsl#1
 282              	.LVL52:
 228:../Dave/Generated/CMSIS_DSP/FilteringFunctions/arm_fir_lattice_q31.c **** 
 283              	 .loc 1 228 0
 284 011e 3B46     	 mov r3,r7
 214:../Dave/Generated/CMSIS_DSP/FilteringFunctions/arm_fir_lattice_q31.c ****     {
 285              	 .loc 1 214 0
 286 0120 EFD1     	 bne .L8
 287              	.LVL53:
 288              	.L7:
 233:../Dave/Generated/CMSIS_DSP/FilteringFunctions/arm_fir_lattice_q31.c **** 
 234:../Dave/Generated/CMSIS_DSP/FilteringFunctions/arm_fir_lattice_q31.c ****       /* f1(n) is saved in fcurr1
 235:../Dave/Generated/CMSIS_DSP/FilteringFunctions/arm_fir_lattice_q31.c ****          for next stage processing */
 236:../Dave/Generated/CMSIS_DSP/FilteringFunctions/arm_fir_lattice_q31.c ****       fcurr1 = fnext1;
 237:../Dave/Generated/CMSIS_DSP/FilteringFunctions/arm_fir_lattice_q31.c **** 
 238:../Dave/Generated/CMSIS_DSP/FilteringFunctions/arm_fir_lattice_q31.c ****       stageCnt--;
 239:../Dave/Generated/CMSIS_DSP/FilteringFunctions/arm_fir_lattice_q31.c **** 
 240:../Dave/Generated/CMSIS_DSP/FilteringFunctions/arm_fir_lattice_q31.c ****     }
 241:../Dave/Generated/CMSIS_DSP/FilteringFunctions/arm_fir_lattice_q31.c **** 
 242:../Dave/Generated/CMSIS_DSP/FilteringFunctions/arm_fir_lattice_q31.c **** 
 243:../Dave/Generated/CMSIS_DSP/FilteringFunctions/arm_fir_lattice_q31.c ****     /* y(n) = fN(n) */
 244:../Dave/Generated/CMSIS_DSP/FilteringFunctions/arm_fir_lattice_q31.c ****     *pDst++ = fcurr1;
 289              	 .loc 1 244 0
 290 0122 079B     	 ldr r3,[sp,#28]
 291              	.LVL54:
 292 0124 1F60     	 str r7,[r3]
 293              	.LVL55:
 294              	.L1:
 245:../Dave/Generated/CMSIS_DSP/FilteringFunctions/arm_fir_lattice_q31.c **** 
 246:../Dave/Generated/CMSIS_DSP/FilteringFunctions/arm_fir_lattice_q31.c ****     blkCnt--;
 247:../Dave/Generated/CMSIS_DSP/FilteringFunctions/arm_fir_lattice_q31.c **** 
 248:../Dave/Generated/CMSIS_DSP/FilteringFunctions/arm_fir_lattice_q31.c ****   }
 249:../Dave/Generated/CMSIS_DSP/FilteringFunctions/arm_fir_lattice_q31.c **** 
 250:../Dave/Generated/CMSIS_DSP/FilteringFunctions/arm_fir_lattice_q31.c **** 
 251:../Dave/Generated/CMSIS_DSP/FilteringFunctions/arm_fir_lattice_q31.c **** }
 295              	 .loc 1 251 0
 296 0126 0FB0     	 add sp,sp,#60
 297              	.LCFI2:
 298              	 .cfi_remember_state
 299              	 .cfi_def_cfa_offset 36
 300              	 
 301 0128 BDE8F08F 	 pop {r4,r5,r6,r7,r8,r9,r10,fp,pc}
 302              	.LVL56:
 303              	.L10:
 304              	.LCFI3:
 305              	 .cfi_restore_state
 209:../Dave/Generated/CMSIS_DSP/FilteringFunctions/arm_fir_lattice_q31.c **** 
 306              	 .loc 1 209 0
 307 012c 1F46     	 mov r7,r3
 308 012e F8E7     	 b .L7
 309              	.LVL57:
 310              	.L9:
 124:../Dave/Generated/CMSIS_DSP/FilteringFunctions/arm_fir_lattice_q31.c **** 
 311              	 .loc 1 124 0
 312 0130 8046     	 mov r8,r0
 123:../Dave/Generated/CMSIS_DSP/FilteringFunctions/arm_fir_lattice_q31.c ****     fcurr2 = fnext2;
 313              	 .loc 1 123 0
 314 0132 9446     	 mov ip,r2
 315 0134 B6E7     	 b .L3
 316              	 .cfi_endproc
 317              	.LFE135:
 319 0136 00BF     	 .text
 320              	.Letext0:
 321              	 .file 2 "c:\\infineon\\tools\\dave ide\\4.5.0.202105191637\\eclipse\\arm-gcc-49\\arm-none-eabi\\include\\machine\\_default_types.h"
 322              	 .file 3 "c:\\infineon\\tools\\dave ide\\4.5.0.202105191637\\eclipse\\arm-gcc-49\\arm-none-eabi\\include\\stdint.h"
 323              	 .file 4 "C:/Users/Utente/Desktop/Tesi/Firmware_Software/DAVE project/S2GLP_Pulsed_Doppler/Dave/Generated/CMSIS_DSP/arm_math.h"