   1              	 .syntax unified
   2              	 .cpu cortex-m4
   3              	 .eabi_attribute 27,3
   4              	 .fpu fpv4-sp-d16
   5              	 .eabi_attribute 20,1
   6              	 .eabi_attribute 21,1
   7              	 .eabi_attribute 23,3
   8              	 .eabi_attribute 24,1
   9              	 .eabi_attribute 25,1
  10              	 .eabi_attribute 26,1
  11              	 .eabi_attribute 30,2
  12              	 .eabi_attribute 34,1
  13              	 .eabi_attribute 18,4
  14              	 .thumb
  15              	 .file "arm_fir_q31.c"
  16              	 .text
  17              	.Ltext0:
  18              	 .cfi_sections .debug_frame
  19              	 .section .text.arm_fir_q31,"ax",%progbits
  20              	 .align 2
  21              	 .global arm_fir_q31
  22              	 .thumb
  23              	 .thumb_func
  25              	arm_fir_q31:
  26              	.LFB135:
  27              	 .file 1 "../Dave/Generated/CMSIS_DSP/FilteringFunctions/arm_fir_q31.c"
   1:../Dave/Generated/CMSIS_DSP/FilteringFunctions/arm_fir_q31.c **** /* ----------------------------------------------------------------------
   2:../Dave/Generated/CMSIS_DSP/FilteringFunctions/arm_fir_q31.c ****  * Project:      CMSIS DSP Library
   3:../Dave/Generated/CMSIS_DSP/FilteringFunctions/arm_fir_q31.c ****  * Title:        arm_fir_q31.c
   4:../Dave/Generated/CMSIS_DSP/FilteringFunctions/arm_fir_q31.c ****  * Description:  Q31 FIR filter processing function
   5:../Dave/Generated/CMSIS_DSP/FilteringFunctions/arm_fir_q31.c ****  *
   6:../Dave/Generated/CMSIS_DSP/FilteringFunctions/arm_fir_q31.c ****  * $Date:        27. January 2017
   7:../Dave/Generated/CMSIS_DSP/FilteringFunctions/arm_fir_q31.c ****  * $Revision:    V.1.5.1
   8:../Dave/Generated/CMSIS_DSP/FilteringFunctions/arm_fir_q31.c ****  *
   9:../Dave/Generated/CMSIS_DSP/FilteringFunctions/arm_fir_q31.c ****  * Target Processor: Cortex-M cores
  10:../Dave/Generated/CMSIS_DSP/FilteringFunctions/arm_fir_q31.c ****  * -------------------------------------------------------------------- */
  11:../Dave/Generated/CMSIS_DSP/FilteringFunctions/arm_fir_q31.c **** /*
  12:../Dave/Generated/CMSIS_DSP/FilteringFunctions/arm_fir_q31.c ****  * Copyright (C) 2010-2017 ARM Limited or its affiliates. All rights reserved.
  13:../Dave/Generated/CMSIS_DSP/FilteringFunctions/arm_fir_q31.c ****  *
  14:../Dave/Generated/CMSIS_DSP/FilteringFunctions/arm_fir_q31.c ****  * SPDX-License-Identifier: Apache-2.0
  15:../Dave/Generated/CMSIS_DSP/FilteringFunctions/arm_fir_q31.c ****  *
  16:../Dave/Generated/CMSIS_DSP/FilteringFunctions/arm_fir_q31.c ****  * Licensed under the Apache License, Version 2.0 (the License); you may
  17:../Dave/Generated/CMSIS_DSP/FilteringFunctions/arm_fir_q31.c ****  * not use this file except in compliance with the License.
  18:../Dave/Generated/CMSIS_DSP/FilteringFunctions/arm_fir_q31.c ****  * You may obtain a copy of the License at
  19:../Dave/Generated/CMSIS_DSP/FilteringFunctions/arm_fir_q31.c ****  *
  20:../Dave/Generated/CMSIS_DSP/FilteringFunctions/arm_fir_q31.c ****  * www.apache.org/licenses/LICENSE-2.0
  21:../Dave/Generated/CMSIS_DSP/FilteringFunctions/arm_fir_q31.c ****  *
  22:../Dave/Generated/CMSIS_DSP/FilteringFunctions/arm_fir_q31.c ****  * Unless required by applicable law or agreed to in writing, software
  23:../Dave/Generated/CMSIS_DSP/FilteringFunctions/arm_fir_q31.c ****  * distributed under the License is distributed on an AS IS BASIS, WITHOUT
  24:../Dave/Generated/CMSIS_DSP/FilteringFunctions/arm_fir_q31.c ****  * WARRANTIES OR CONDITIONS OF ANY KIND, either express or implied.
  25:../Dave/Generated/CMSIS_DSP/FilteringFunctions/arm_fir_q31.c ****  * See the License for the specific language governing permissions and
  26:../Dave/Generated/CMSIS_DSP/FilteringFunctions/arm_fir_q31.c ****  * limitations under the License.
  27:../Dave/Generated/CMSIS_DSP/FilteringFunctions/arm_fir_q31.c ****  */
  28:../Dave/Generated/CMSIS_DSP/FilteringFunctions/arm_fir_q31.c **** 
  29:../Dave/Generated/CMSIS_DSP/FilteringFunctions/arm_fir_q31.c **** #include "CMSIS_DSP/cmsis_dsp.h"
  30:../Dave/Generated/CMSIS_DSP/FilteringFunctions/arm_fir_q31.c **** 
  31:../Dave/Generated/CMSIS_DSP/FilteringFunctions/arm_fir_q31.c **** /**
  32:../Dave/Generated/CMSIS_DSP/FilteringFunctions/arm_fir_q31.c ****  * @ingroup groupFilters
  33:../Dave/Generated/CMSIS_DSP/FilteringFunctions/arm_fir_q31.c ****  */
  34:../Dave/Generated/CMSIS_DSP/FilteringFunctions/arm_fir_q31.c **** 
  35:../Dave/Generated/CMSIS_DSP/FilteringFunctions/arm_fir_q31.c **** /**
  36:../Dave/Generated/CMSIS_DSP/FilteringFunctions/arm_fir_q31.c ****  * @addtogroup FIR
  37:../Dave/Generated/CMSIS_DSP/FilteringFunctions/arm_fir_q31.c ****  * @{
  38:../Dave/Generated/CMSIS_DSP/FilteringFunctions/arm_fir_q31.c ****  */
  39:../Dave/Generated/CMSIS_DSP/FilteringFunctions/arm_fir_q31.c **** 
  40:../Dave/Generated/CMSIS_DSP/FilteringFunctions/arm_fir_q31.c **** /**
  41:../Dave/Generated/CMSIS_DSP/FilteringFunctions/arm_fir_q31.c ****  * @param[in] *S points to an instance of the Q31 FIR filter structure.
  42:../Dave/Generated/CMSIS_DSP/FilteringFunctions/arm_fir_q31.c ****  * @param[in] *pSrc points to the block of input data.
  43:../Dave/Generated/CMSIS_DSP/FilteringFunctions/arm_fir_q31.c ****  * @param[out] *pDst points to the block of output data.
  44:../Dave/Generated/CMSIS_DSP/FilteringFunctions/arm_fir_q31.c ****  * @param[in] blockSize number of samples to process per call.
  45:../Dave/Generated/CMSIS_DSP/FilteringFunctions/arm_fir_q31.c ****  * @return none.
  46:../Dave/Generated/CMSIS_DSP/FilteringFunctions/arm_fir_q31.c ****  *
  47:../Dave/Generated/CMSIS_DSP/FilteringFunctions/arm_fir_q31.c ****  * @details
  48:../Dave/Generated/CMSIS_DSP/FilteringFunctions/arm_fir_q31.c ****  * <b>Scaling and Overflow Behavior:</b>
  49:../Dave/Generated/CMSIS_DSP/FilteringFunctions/arm_fir_q31.c ****  * \par
  50:../Dave/Generated/CMSIS_DSP/FilteringFunctions/arm_fir_q31.c ****  * The function is implemented using an internal 64-bit accumulator.
  51:../Dave/Generated/CMSIS_DSP/FilteringFunctions/arm_fir_q31.c ****  * The accumulator has a 2.62 format and maintains full precision of the intermediate multiplicatio
  52:../Dave/Generated/CMSIS_DSP/FilteringFunctions/arm_fir_q31.c ****  * Thus, if the accumulator result overflows it wraps around rather than clip.
  53:../Dave/Generated/CMSIS_DSP/FilteringFunctions/arm_fir_q31.c ****  * In order to avoid overflows completely the input signal must be scaled down by log2(numTaps) bit
  54:../Dave/Generated/CMSIS_DSP/FilteringFunctions/arm_fir_q31.c ****  * After all multiply-accumulates are performed, the 2.62 accumulator is right shifted by 31 bits a
  55:../Dave/Generated/CMSIS_DSP/FilteringFunctions/arm_fir_q31.c ****  *
  56:../Dave/Generated/CMSIS_DSP/FilteringFunctions/arm_fir_q31.c ****  * \par
  57:../Dave/Generated/CMSIS_DSP/FilteringFunctions/arm_fir_q31.c ****  * Refer to the function <code>arm_fir_fast_q31()</code> for a faster but less precise implementati
  58:../Dave/Generated/CMSIS_DSP/FilteringFunctions/arm_fir_q31.c ****  */
  59:../Dave/Generated/CMSIS_DSP/FilteringFunctions/arm_fir_q31.c **** 
  60:../Dave/Generated/CMSIS_DSP/FilteringFunctions/arm_fir_q31.c **** void arm_fir_q31(
  61:../Dave/Generated/CMSIS_DSP/FilteringFunctions/arm_fir_q31.c ****   const arm_fir_instance_q31 * S,
  62:../Dave/Generated/CMSIS_DSP/FilteringFunctions/arm_fir_q31.c ****   q31_t * pSrc,
  63:../Dave/Generated/CMSIS_DSP/FilteringFunctions/arm_fir_q31.c ****   q31_t * pDst,
  64:../Dave/Generated/CMSIS_DSP/FilteringFunctions/arm_fir_q31.c ****   uint32_t blockSize)
  65:../Dave/Generated/CMSIS_DSP/FilteringFunctions/arm_fir_q31.c **** {
  28              	 .loc 1 65 0
  29              	 .cfi_startproc
  30              	 
  31              	 
  32              	.LVL0:
  33 0000 2DE9F04F 	 push {r4,r5,r6,r7,r8,r9,r10,fp,lr}
  34              	.LCFI0:
  35              	 .cfi_def_cfa_offset 36
  36              	 .cfi_offset 4,-36
  37              	 .cfi_offset 5,-32
  38              	 .cfi_offset 6,-28
  39              	 .cfi_offset 7,-24
  40              	 .cfi_offset 8,-20
  41              	 .cfi_offset 9,-16
  42              	 .cfi_offset 10,-12
  43              	 .cfi_offset 11,-8
  44              	 .cfi_offset 14,-4
  66:../Dave/Generated/CMSIS_DSP/FilteringFunctions/arm_fir_q31.c ****   q31_t *pState = S->pState;                     /* State pointer */
  45              	 .loc 1 66 0
  46 0004 4668     	 ldr r6,[r0,#4]
  67:../Dave/Generated/CMSIS_DSP/FilteringFunctions/arm_fir_q31.c ****   q31_t *pCoeffs = S->pCoeffs;                   /* Coefficient pointer */
  68:../Dave/Generated/CMSIS_DSP/FilteringFunctions/arm_fir_q31.c ****   q31_t *pStateCurnt;                            /* Points to the current sample of the state */
  69:../Dave/Generated/CMSIS_DSP/FilteringFunctions/arm_fir_q31.c **** 
  70:../Dave/Generated/CMSIS_DSP/FilteringFunctions/arm_fir_q31.c **** 
  71:../Dave/Generated/CMSIS_DSP/FilteringFunctions/arm_fir_q31.c **** #if defined (ARM_MATH_DSP)
  72:../Dave/Generated/CMSIS_DSP/FilteringFunctions/arm_fir_q31.c **** 
  73:../Dave/Generated/CMSIS_DSP/FilteringFunctions/arm_fir_q31.c ****   /* Run the below code for Cortex-M4 and Cortex-M3 */
  74:../Dave/Generated/CMSIS_DSP/FilteringFunctions/arm_fir_q31.c **** 
  75:../Dave/Generated/CMSIS_DSP/FilteringFunctions/arm_fir_q31.c ****   q31_t x0, x1, x2;                              /* Temporary variables to hold state */
  76:../Dave/Generated/CMSIS_DSP/FilteringFunctions/arm_fir_q31.c ****   q31_t c0;                                      /* Temporary variable to hold coefficient value */
  77:../Dave/Generated/CMSIS_DSP/FilteringFunctions/arm_fir_q31.c ****   q31_t *px;                                     /* Temporary pointer for state */
  78:../Dave/Generated/CMSIS_DSP/FilteringFunctions/arm_fir_q31.c ****   q31_t *pb;                                     /* Temporary pointer for coefficient buffer */
  79:../Dave/Generated/CMSIS_DSP/FilteringFunctions/arm_fir_q31.c ****   q63_t acc0, acc1, acc2;                        /* Accumulators */
  80:../Dave/Generated/CMSIS_DSP/FilteringFunctions/arm_fir_q31.c ****   uint32_t numTaps = S->numTaps;                 /* Number of filter coefficients in the filter */
  81:../Dave/Generated/CMSIS_DSP/FilteringFunctions/arm_fir_q31.c ****   uint32_t i, tapCnt, blkCnt, tapCntN3;          /* Loop counters */
  82:../Dave/Generated/CMSIS_DSP/FilteringFunctions/arm_fir_q31.c **** 
  83:../Dave/Generated/CMSIS_DSP/FilteringFunctions/arm_fir_q31.c ****   /* S->pState points to state array which contains previous frame (numTaps - 1) samples */
  84:../Dave/Generated/CMSIS_DSP/FilteringFunctions/arm_fir_q31.c ****   /* pStateCurnt points to the location where the new input data should be written */
  85:../Dave/Generated/CMSIS_DSP/FilteringFunctions/arm_fir_q31.c ****   pStateCurnt = &(S->pState[(numTaps - 1u)]);
  86:../Dave/Generated/CMSIS_DSP/FilteringFunctions/arm_fir_q31.c **** 
  87:../Dave/Generated/CMSIS_DSP/FilteringFunctions/arm_fir_q31.c ****   /* Apply loop unrolling and compute 4 output values simultaneously.
  88:../Dave/Generated/CMSIS_DSP/FilteringFunctions/arm_fir_q31.c ****    * The variables acc0 ... acc3 hold output values that are being computed:
  89:../Dave/Generated/CMSIS_DSP/FilteringFunctions/arm_fir_q31.c ****    *
  90:../Dave/Generated/CMSIS_DSP/FilteringFunctions/arm_fir_q31.c ****    *    acc0 =  b[numTaps-1] * x[n-numTaps-1] + b[numTaps-2] * x[n-numTaps-2] + b[numTaps-3] * x[n-
  91:../Dave/Generated/CMSIS_DSP/FilteringFunctions/arm_fir_q31.c ****    *    acc1 =  b[numTaps-1] * x[n-numTaps] +   b[numTaps-2] * x[n-numTaps-1] + b[numTaps-3] * x[n-
  92:../Dave/Generated/CMSIS_DSP/FilteringFunctions/arm_fir_q31.c ****    *    acc2 =  b[numTaps-1] * x[n-numTaps+1] + b[numTaps-2] * x[n-numTaps] +   b[numTaps-3] * x[n-
  93:../Dave/Generated/CMSIS_DSP/FilteringFunctions/arm_fir_q31.c ****    *    acc3 =  b[numTaps-1] * x[n-numTaps+2] + b[numTaps-2] * x[n-numTaps+1] + b[numTaps-3] * x[n-
  94:../Dave/Generated/CMSIS_DSP/FilteringFunctions/arm_fir_q31.c ****    */
  95:../Dave/Generated/CMSIS_DSP/FilteringFunctions/arm_fir_q31.c ****   blkCnt = blockSize / 3;
  47              	 .loc 1 95 0
  48 0006 A04C     	 ldr r4,.L36
  80:../Dave/Generated/CMSIS_DSP/FilteringFunctions/arm_fir_q31.c ****   uint32_t i, tapCnt, blkCnt, tapCntN3;          /* Loop counters */
  49              	 .loc 1 80 0
  50 0008 0588     	 ldrh r5,[r0]
  67:../Dave/Generated/CMSIS_DSP/FilteringFunctions/arm_fir_q31.c ****   q31_t *pCoeffs = S->pCoeffs;                   /* Coefficient pointer */
  51              	 .loc 1 67 0
  52 000a 8068     	 ldr r0,[r0,#8]
  53              	.LVL1:
  65:../Dave/Generated/CMSIS_DSP/FilteringFunctions/arm_fir_q31.c ****   q31_t *pState = S->pState;                     /* State pointer */
  54              	 .loc 1 65 0
  55 000c 95B0     	 sub sp,sp,#84
  56              	.LCFI1:
  57              	 .cfi_def_cfa_offset 120
  66:../Dave/Generated/CMSIS_DSP/FilteringFunctions/arm_fir_q31.c ****   q31_t *pCoeffs = S->pCoeffs;                   /* Coefficient pointer */
  58              	 .loc 1 66 0
  59 000e 3746     	 mov r7,r6
  60 0010 0C96     	 str r6,[sp,#48]
  61              	.LVL2:
  67:../Dave/Generated/CMSIS_DSP/FilteringFunctions/arm_fir_q31.c ****   q31_t *pStateCurnt;                            /* Points to the current sample of the state */
  62              	 .loc 1 67 0
  63 0012 0790     	 str r0,[sp,#28]
  64              	.LVL3:
  65              	 .loc 1 95 0
  66 0014 A4FB0360 	 umull r6,r0,r4,r3
  67 0018 4008     	 lsrs r0,r0,#1
  96:../Dave/Generated/CMSIS_DSP/FilteringFunctions/arm_fir_q31.c ****   blockSize = blockSize - (3 * blkCnt);
  97:../Dave/Generated/CMSIS_DSP/FilteringFunctions/arm_fir_q31.c **** 
  98:../Dave/Generated/CMSIS_DSP/FilteringFunctions/arm_fir_q31.c ****   tapCnt = numTaps / 3;
  68              	 .loc 1 98 0
  69 001a 2E46     	 mov r6,r5
  70 001c A4FB0664 	 umull r6,r4,r4,r6
  96:../Dave/Generated/CMSIS_DSP/FilteringFunctions/arm_fir_q31.c ****   blockSize = blockSize - (3 * blkCnt);
  71              	 .loc 1 96 0
  72 0020 4600     	 lsls r6,r0,#1
  73              	 .loc 1 98 0
  74 0022 6408     	 lsrs r4,r4,#1
  96:../Dave/Generated/CMSIS_DSP/FilteringFunctions/arm_fir_q31.c ****   blockSize = blockSize - (3 * blkCnt);
  75              	 .loc 1 96 0
  76 0024 1296     	 str r6,[sp,#72]
  77              	 .loc 1 98 0
  78 0026 0894     	 str r4,[sp,#32]
  96:../Dave/Generated/CMSIS_DSP/FilteringFunctions/arm_fir_q31.c ****   blockSize = blockSize - (3 * blkCnt);
  79              	 .loc 1 96 0
  80 0028 129C     	 ldr r4,[sp,#72]
  80:../Dave/Generated/CMSIS_DSP/FilteringFunctions/arm_fir_q31.c ****   uint32_t i, tapCnt, blkCnt, tapCntN3;          /* Loop counters */
  81              	 .loc 1 80 0
  82 002a 1095     	 str r5,[sp,#64]
  96:../Dave/Generated/CMSIS_DSP/FilteringFunctions/arm_fir_q31.c ****   blockSize = blockSize - (3 * blkCnt);
  83              	 .loc 1 96 0
  84 002c 0444     	 add r4,r4,r0
  85:../Dave/Generated/CMSIS_DSP/FilteringFunctions/arm_fir_q31.c **** 
  85              	 .loc 1 85 0
  86 002e 2E46     	 mov r6,r5
  87 0030 05F18048 	 add r8,r5,#1073741824
  95:../Dave/Generated/CMSIS_DSP/FilteringFunctions/arm_fir_q31.c ****   blockSize = blockSize - (3 * blkCnt);
  88              	 .loc 1 95 0
  89 0034 1390     	 str r0,[sp,#76]
  96:../Dave/Generated/CMSIS_DSP/FilteringFunctions/arm_fir_q31.c **** 
  90              	 .loc 1 96 0
  91 0036 0546     	 mov r5,r0
  92              	.LVL4:
  99:../Dave/Generated/CMSIS_DSP/FilteringFunctions/arm_fir_q31.c ****   tapCntN3 = numTaps - (3 * tapCnt);
  93              	 .loc 1 99 0
  94 0038 0898     	 ldr r0,[sp,#32]
  65:../Dave/Generated/CMSIS_DSP/FilteringFunctions/arm_fir_q31.c ****   q31_t *pState = S->pState;                     /* State pointer */
  95              	 .loc 1 65 0
  96 003a 0E91     	 str r1,[sp,#56]
  96:../Dave/Generated/CMSIS_DSP/FilteringFunctions/arm_fir_q31.c **** 
  97              	 .loc 1 96 0
  98 003c 1B1B     	 subs r3,r3,r4
  99              	.LVL5:
 100              	 .loc 1 99 0
 101 003e 8646     	 mov lr,r0
 102 0040 00EB4000 	 add r0,r0,r0,lsl#1
  85:../Dave/Generated/CMSIS_DSP/FilteringFunctions/arm_fir_q31.c **** 
 103              	 .loc 1 85 0
 104 0044 08F1FF38 	 add r8,r8,#-1
  96:../Dave/Generated/CMSIS_DSP/FilteringFunctions/arm_fir_q31.c **** 
 105              	 .loc 1 96 0
 106 0048 1193     	 str r3,[sp,#68]
 107              	 .loc 1 99 0
 108 004a 331A     	 subs r3,r6,r0
 109 004c 0993     	 str r3,[sp,#36]
  85:../Dave/Generated/CMSIS_DSP/FilteringFunctions/arm_fir_q31.c **** 
 110              	 .loc 1 85 0
 111 004e 07EB8803 	 add r3,r7,r8,lsl#2
 112 0052 1C46     	 mov r4,r3
 113 0054 0D93     	 str r3,[sp,#52]
 114              	.LVL6:
  65:../Dave/Generated/CMSIS_DSP/FilteringFunctions/arm_fir_q31.c ****   q31_t *pState = S->pState;                     /* State pointer */
 115              	 .loc 1 65 0
 116 0056 0F92     	 str r2,[sp,#60]
 100:../Dave/Generated/CMSIS_DSP/FilteringFunctions/arm_fir_q31.c **** 
 101:../Dave/Generated/CMSIS_DSP/FilteringFunctions/arm_fir_q31.c ****   /* First part of the processing with loop unrolling.  Compute 4 outputs at a time.
 102:../Dave/Generated/CMSIS_DSP/FilteringFunctions/arm_fir_q31.c ****    ** a second loop below computes the remaining 1 to 3 samples. */
 103:../Dave/Generated/CMSIS_DSP/FilteringFunctions/arm_fir_q31.c ****   while (blkCnt > 0u)
 117              	 .loc 1 103 0
 118 0058 2B46     	 mov r3,r5
 119 005a 002D     	 cmp r5,#0
 120 005c 00F0A680 	 beq .L2
 121 0060 8500     	 lsls r5,r0,#2
 122              	.LVL7:
 123 0062 0798     	 ldr r0,[sp,#28]
 124 0064 0B95     	 str r5,[sp,#44]
 125 0066 2844     	 add r0,r0,r5
 126 0068 0C32     	 adds r2,r2,#12
 127              	.LVL8:
 128 006a 0A90     	 str r0,[sp,#40]
 129 006c 2046     	 mov r0,r4
 130 006e 0C30     	 adds r0,r0,#12
 131 0070 0C31     	 adds r1,r1,#12
 132              	.LVL9:
 133 0072 0592     	 str r2,[sp,#20]
 134 0074 07F10802 	 add r2,r7,#8
 135 0078 0290     	 str r0,[sp,#8]
 136 007a 0191     	 str r1,[sp,#4]
 137 007c 0392     	 str r2,[sp,#12]
 138 007e 0493     	 str r3,[sp,#16]
 139              	.LVL10:
 140              	.L7:
 104:../Dave/Generated/CMSIS_DSP/FilteringFunctions/arm_fir_q31.c ****   {
 105:../Dave/Generated/CMSIS_DSP/FilteringFunctions/arm_fir_q31.c ****     /* Copy three new input samples into the state buffer */
 106:../Dave/Generated/CMSIS_DSP/FilteringFunctions/arm_fir_q31.c ****     *pStateCurnt++ = *pSrc++;
 141              	 .loc 1 106 0
 142 0080 019A     	 ldr r2,[sp,#4]
 143 0082 0298     	 ldr r0,[sp,#8]
 144 0084 52F80C3C 	 ldr r3,[r2,#-12]
 145 0088 40F80C3C 	 str r3,[r0,#-12]
 146              	.LVL11:
 107:../Dave/Generated/CMSIS_DSP/FilteringFunctions/arm_fir_q31.c ****     *pStateCurnt++ = *pSrc++;
 147              	 .loc 1 107 0
 148 008c 52F8083C 	 ldr r3,[r2,#-8]
 149 0090 40F8083C 	 str r3,[r0,#-8]
 150 0094 1146     	 mov r1,r2
 151              	.LVL12:
 108:../Dave/Generated/CMSIS_DSP/FilteringFunctions/arm_fir_q31.c ****     *pStateCurnt++ = *pSrc++;
 109:../Dave/Generated/CMSIS_DSP/FilteringFunctions/arm_fir_q31.c **** 
 110:../Dave/Generated/CMSIS_DSP/FilteringFunctions/arm_fir_q31.c ****     /* Set all accumulators to zero */
 111:../Dave/Generated/CMSIS_DSP/FilteringFunctions/arm_fir_q31.c ****     acc0 = 0;
 112:../Dave/Generated/CMSIS_DSP/FilteringFunctions/arm_fir_q31.c ****     acc1 = 0;
 113:../Dave/Generated/CMSIS_DSP/FilteringFunctions/arm_fir_q31.c ****     acc2 = 0;
 114:../Dave/Generated/CMSIS_DSP/FilteringFunctions/arm_fir_q31.c **** 
 115:../Dave/Generated/CMSIS_DSP/FilteringFunctions/arm_fir_q31.c ****     /* Initialize state pointer */
 116:../Dave/Generated/CMSIS_DSP/FilteringFunctions/arm_fir_q31.c ****     px = pState;
 117:../Dave/Generated/CMSIS_DSP/FilteringFunctions/arm_fir_q31.c **** 
 118:../Dave/Generated/CMSIS_DSP/FilteringFunctions/arm_fir_q31.c ****     /* Initialize coefficient pointer */
 119:../Dave/Generated/CMSIS_DSP/FilteringFunctions/arm_fir_q31.c ****     pb = pCoeffs;
 120:../Dave/Generated/CMSIS_DSP/FilteringFunctions/arm_fir_q31.c **** 
 121:../Dave/Generated/CMSIS_DSP/FilteringFunctions/arm_fir_q31.c ****     /* Read the first two samples from the state buffer:
 122:../Dave/Generated/CMSIS_DSP/FilteringFunctions/arm_fir_q31.c ****      *  x[n-numTaps], x[n-numTaps-1] */
 123:../Dave/Generated/CMSIS_DSP/FilteringFunctions/arm_fir_q31.c ****     x0 = *(px++);
 152              	 .loc 1 123 0
 153 0096 039A     	 ldr r2,[sp,#12]
 108:../Dave/Generated/CMSIS_DSP/FilteringFunctions/arm_fir_q31.c ****     *pStateCurnt++ = *pSrc++;
 154              	 .loc 1 108 0
 155 0098 51F8043C 	 ldr r3,[r1,#-4]
 124:../Dave/Generated/CMSIS_DSP/FilteringFunctions/arm_fir_q31.c ****     x1 = *(px++);
 125:../Dave/Generated/CMSIS_DSP/FilteringFunctions/arm_fir_q31.c **** 
 126:../Dave/Generated/CMSIS_DSP/FilteringFunctions/arm_fir_q31.c ****     /* Loop unrolling.  Process 3 taps at a time. */
 127:../Dave/Generated/CMSIS_DSP/FilteringFunctions/arm_fir_q31.c ****     i = tapCnt;
 128:../Dave/Generated/CMSIS_DSP/FilteringFunctions/arm_fir_q31.c **** 
 129:../Dave/Generated/CMSIS_DSP/FilteringFunctions/arm_fir_q31.c ****     while (i > 0u)
 156              	 .loc 1 129 0
 157 009c 0899     	 ldr r1,[sp,#32]
 108:../Dave/Generated/CMSIS_DSP/FilteringFunctions/arm_fir_q31.c ****     *pStateCurnt++ = *pSrc++;
 158              	 .loc 1 108 0
 159 009e 40F8043C 	 str r3,[r0,#-4]
 160              	.LVL13:
 123:../Dave/Generated/CMSIS_DSP/FilteringFunctions/arm_fir_q31.c ****     x1 = *(px++);
 161              	 .loc 1 123 0
 162 00a2 52F808AC 	 ldr r10,[r2,#-8]
 163              	.LVL14:
 124:../Dave/Generated/CMSIS_DSP/FilteringFunctions/arm_fir_q31.c ****     x1 = *(px++);
 164              	 .loc 1 124 0
 165 00a6 52F804CC 	 ldr ip,[r2,#-4]
 166              	.LVL15:
 123:../Dave/Generated/CMSIS_DSP/FilteringFunctions/arm_fir_q31.c ****     x1 = *(px++);
 167              	 .loc 1 123 0
 168 00aa 1346     	 mov r3,r2
 169 00ac 1046     	 mov r0,r2
 170              	 .loc 1 129 0
 171 00ae 0029     	 cmp r1,#0
 172 00b0 00F0DD80 	 beq .L17
 173 00b4 0C33     	 adds r3,r3,#12
 174 00b6 0693     	 str r3,[sp,#24]
 175 00b8 1A46     	 mov r2,r3
 176              	.LVL16:
 177 00ba 079B     	 ldr r3,[sp,#28]
 178 00bc 0024     	 movs r4,#0
 179 00be 0025     	 movs r5,#0
 180 00c0 8B46     	 mov fp,r1
 181 00c2 2646     	 mov r6,r4
 182 00c4 2F46     	 mov r7,r5
 183 00c6 A046     	 mov r8,r4
 184 00c8 A946     	 mov r9,r5
 185 00ca 0C33     	 adds r3,r3,#12
 186 00cc 5146     	 mov r1,r10
 187              	.LVL17:
 188 00ce 6046     	 mov r0,ip
 189              	.LVL18:
 190              	.L4:
 130:../Dave/Generated/CMSIS_DSP/FilteringFunctions/arm_fir_q31.c ****     {
 131:../Dave/Generated/CMSIS_DSP/FilteringFunctions/arm_fir_q31.c ****       /* Read the b[numTaps] coefficient */
 132:../Dave/Generated/CMSIS_DSP/FilteringFunctions/arm_fir_q31.c ****       c0 = *pb;
 191              	 .loc 1 132 0
 192 00d0 53F80CEC 	 ldr lr,[r3,#-12]
 193              	.LVL19:
 133:../Dave/Generated/CMSIS_DSP/FilteringFunctions/arm_fir_q31.c **** 
 134:../Dave/Generated/CMSIS_DSP/FilteringFunctions/arm_fir_q31.c ****       /* Read x[n-numTaps-2] sample */
 135:../Dave/Generated/CMSIS_DSP/FilteringFunctions/arm_fir_q31.c ****       x2 = *(px++);
 136:../Dave/Generated/CMSIS_DSP/FilteringFunctions/arm_fir_q31.c **** 
 137:../Dave/Generated/CMSIS_DSP/FilteringFunctions/arm_fir_q31.c ****       /* Perform the multiply-accumulates */
 138:../Dave/Generated/CMSIS_DSP/FilteringFunctions/arm_fir_q31.c ****       acc0 += ((q63_t) x0 * c0);
 139:../Dave/Generated/CMSIS_DSP/FilteringFunctions/arm_fir_q31.c ****       acc1 += ((q63_t) x1 * c0);
 140:../Dave/Generated/CMSIS_DSP/FilteringFunctions/arm_fir_q31.c ****       acc2 += ((q63_t) x2 * c0);
 141:../Dave/Generated/CMSIS_DSP/FilteringFunctions/arm_fir_q31.c **** 
 142:../Dave/Generated/CMSIS_DSP/FilteringFunctions/arm_fir_q31.c ****       /* Read the coefficient and state */
 143:../Dave/Generated/CMSIS_DSP/FilteringFunctions/arm_fir_q31.c ****       c0 = *(pb + 1u);
 194              	 .loc 1 143 0
 195 00d4 53F808AC 	 ldr r10,[r3,#-8]
 135:../Dave/Generated/CMSIS_DSP/FilteringFunctions/arm_fir_q31.c **** 
 196              	 .loc 1 135 0
 197 00d8 52F80CCC 	 ldr ip,[r2,#-12]
 198              	.LVL20:
 138:../Dave/Generated/CMSIS_DSP/FilteringFunctions/arm_fir_q31.c ****       acc1 += ((q63_t) x1 * c0);
 199              	 .loc 1 138 0
 200 00dc CEFB0189 	 smlal r8,r9,lr,r1
 201              	.LVL21:
 144:../Dave/Generated/CMSIS_DSP/FilteringFunctions/arm_fir_q31.c ****       x0 = *(px++);
 202              	 .loc 1 144 0
 203 00e0 52F8081C 	 ldr r1,[r2,#-8]
 204              	.LVL22:
 139:../Dave/Generated/CMSIS_DSP/FilteringFunctions/arm_fir_q31.c ****       acc2 += ((q63_t) x2 * c0);
 205              	 .loc 1 139 0
 206 00e4 C0FB0E67 	 smlal r6,r7,r0,lr
 207              	.LVL23:
 145:../Dave/Generated/CMSIS_DSP/FilteringFunctions/arm_fir_q31.c **** 
 146:../Dave/Generated/CMSIS_DSP/FilteringFunctions/arm_fir_q31.c ****       /* Perform the multiply-accumulates */
 147:../Dave/Generated/CMSIS_DSP/FilteringFunctions/arm_fir_q31.c ****       acc0 += ((q63_t) x1 * c0);
 208              	 .loc 1 147 0
 209 00e8 CAFB0089 	 smlal r8,r9,r10,r0
 210              	.LVL24:
 140:../Dave/Generated/CMSIS_DSP/FilteringFunctions/arm_fir_q31.c **** 
 211              	 .loc 1 140 0
 212 00ec CCFB0E45 	 smlal r4,r5,ip,lr
 213              	.LVL25:
 148:../Dave/Generated/CMSIS_DSP/FilteringFunctions/arm_fir_q31.c ****       acc1 += ((q63_t) x2 * c0);
 149:../Dave/Generated/CMSIS_DSP/FilteringFunctions/arm_fir_q31.c ****       acc2 += ((q63_t) x0 * c0);
 150:../Dave/Generated/CMSIS_DSP/FilteringFunctions/arm_fir_q31.c **** 
 151:../Dave/Generated/CMSIS_DSP/FilteringFunctions/arm_fir_q31.c ****       /* Read the coefficient and state */
 152:../Dave/Generated/CMSIS_DSP/FilteringFunctions/arm_fir_q31.c ****       c0 = *(pb + 2u);
 153:../Dave/Generated/CMSIS_DSP/FilteringFunctions/arm_fir_q31.c ****       x1 = *(px++);
 214              	 .loc 1 153 0
 215 00f0 52F8040C 	 ldr r0,[r2,#-4]
 216              	.LVL26:
 152:../Dave/Generated/CMSIS_DSP/FilteringFunctions/arm_fir_q31.c ****       x1 = *(px++);
 217              	 .loc 1 152 0
 218 00f4 53F804EC 	 ldr lr,[r3,#-4]
 148:../Dave/Generated/CMSIS_DSP/FilteringFunctions/arm_fir_q31.c ****       acc1 += ((q63_t) x2 * c0);
 219              	 .loc 1 148 0
 220 00f8 CAFB0C67 	 smlal r6,r7,r10,ip
 221              	.LVL27:
 149:../Dave/Generated/CMSIS_DSP/FilteringFunctions/arm_fir_q31.c **** 
 222              	 .loc 1 149 0
 223 00fc C1FB0A45 	 smlal r4,r5,r1,r10
 224              	.LVL28:
 129:../Dave/Generated/CMSIS_DSP/FilteringFunctions/arm_fir_q31.c ****     {
 225              	 .loc 1 129 0
 226 0100 BBF1010B 	 subs fp,fp,#1
 227              	.LVL29:
 154:../Dave/Generated/CMSIS_DSP/FilteringFunctions/arm_fir_q31.c **** 
 155:../Dave/Generated/CMSIS_DSP/FilteringFunctions/arm_fir_q31.c ****       /* update coefficient pointer */
 156:../Dave/Generated/CMSIS_DSP/FilteringFunctions/arm_fir_q31.c ****       pb += 3u;
 157:../Dave/Generated/CMSIS_DSP/FilteringFunctions/arm_fir_q31.c **** 
 158:../Dave/Generated/CMSIS_DSP/FilteringFunctions/arm_fir_q31.c ****       /* Perform the multiply-accumulates */
 159:../Dave/Generated/CMSIS_DSP/FilteringFunctions/arm_fir_q31.c ****       acc0 += ((q63_t) x2 * c0);
 228              	 .loc 1 159 0
 229 0104 CEFB0C89 	 smlal r8,r9,lr,ip
 230              	.LVL30:
 231 0108 03F10C03 	 add r3,r3,#12
 232              	.LVL31:
 160:../Dave/Generated/CMSIS_DSP/FilteringFunctions/arm_fir_q31.c ****       acc1 += ((q63_t) x0 * c0);
 233              	 .loc 1 160 0
 234 010c CEFB0167 	 smlal r6,r7,lr,r1
 235              	.LVL32:
 161:../Dave/Generated/CMSIS_DSP/FilteringFunctions/arm_fir_q31.c ****       acc2 += ((q63_t) x1 * c0);
 236              	 .loc 1 161 0
 237 0110 C0FB0E45 	 smlal r4,r5,r0,lr
 238              	.LVL33:
 239 0114 02F10C02 	 add r2,r2,#12
 129:../Dave/Generated/CMSIS_DSP/FilteringFunctions/arm_fir_q31.c ****     {
 240              	 .loc 1 129 0
 241 0118 DAD1     	 bne .L4
 242 011a 039B     	 ldr r3,[sp,#12]
 243              	.LVL34:
 244 011c 0B9A     	 ldr r2,[sp,#44]
 156:../Dave/Generated/CMSIS_DSP/FilteringFunctions/arm_fir_q31.c **** 
 245              	 .loc 1 156 0
 246 011e DDF828E0 	 ldr lr,[sp,#40]
 247              	.LVL35:
 248 0122 1344     	 add r3,r3,r2
 249 0124 8446     	 mov ip,r0
 250              	.LVL36:
 251 0126 8A46     	 mov r10,r1
 252 0128 1846     	 mov r0,r3
 253              	.LVL37:
 254              	.L3:
 162:../Dave/Generated/CMSIS_DSP/FilteringFunctions/arm_fir_q31.c **** 
 163:../Dave/Generated/CMSIS_DSP/FilteringFunctions/arm_fir_q31.c ****       /* Decrement the loop counter */
 164:../Dave/Generated/CMSIS_DSP/FilteringFunctions/arm_fir_q31.c ****       i--;
 165:../Dave/Generated/CMSIS_DSP/FilteringFunctions/arm_fir_q31.c ****     }
 166:../Dave/Generated/CMSIS_DSP/FilteringFunctions/arm_fir_q31.c **** 
 167:../Dave/Generated/CMSIS_DSP/FilteringFunctions/arm_fir_q31.c ****     /* If the filter length is not a multiple of 3, compute the remaining filter taps */
 168:../Dave/Generated/CMSIS_DSP/FilteringFunctions/arm_fir_q31.c **** 
 169:../Dave/Generated/CMSIS_DSP/FilteringFunctions/arm_fir_q31.c ****     i = tapCntN3;
 170:../Dave/Generated/CMSIS_DSP/FilteringFunctions/arm_fir_q31.c **** 
 171:../Dave/Generated/CMSIS_DSP/FilteringFunctions/arm_fir_q31.c ****     while (i > 0u)
 255              	 .loc 1 171 0
 256 012a 099B     	 ldr r3,[sp,#36]
 257 012c 73B1     	 cbz r3,.L5
 258 012e 1A46     	 mov r2,r3
 259              	.LVL38:
 260              	.L6:
 172:../Dave/Generated/CMSIS_DSP/FilteringFunctions/arm_fir_q31.c ****     {
 173:../Dave/Generated/CMSIS_DSP/FilteringFunctions/arm_fir_q31.c ****       /* Read coefficients */
 174:../Dave/Generated/CMSIS_DSP/FilteringFunctions/arm_fir_q31.c ****       c0 = *(pb++);
 261              	 .loc 1 174 0
 262 0130 5EF8043B 	 ldr r3,[lr],#4
 263              	.LVL39:
 175:../Dave/Generated/CMSIS_DSP/FilteringFunctions/arm_fir_q31.c **** 
 176:../Dave/Generated/CMSIS_DSP/FilteringFunctions/arm_fir_q31.c ****       /* Fetch 1 state variable */
 177:../Dave/Generated/CMSIS_DSP/FilteringFunctions/arm_fir_q31.c ****       x2 = *(px++);
 264              	 .loc 1 177 0
 265 0134 50F8041B 	 ldr r1,[r0],#4
 266              	.LVL40:
 171:../Dave/Generated/CMSIS_DSP/FilteringFunctions/arm_fir_q31.c ****     {
 267              	 .loc 1 171 0
 268 0138 013A     	 subs r2,r2,#1
 269              	.LVL41:
 178:../Dave/Generated/CMSIS_DSP/FilteringFunctions/arm_fir_q31.c **** 
 179:../Dave/Generated/CMSIS_DSP/FilteringFunctions/arm_fir_q31.c ****       /* Perform the multiply-accumulates */
 180:../Dave/Generated/CMSIS_DSP/FilteringFunctions/arm_fir_q31.c ****       acc0 += ((q63_t) x0 * c0);
 270              	 .loc 1 180 0
 271 013a C3FB0A89 	 smlal r8,r9,r3,r10
 272              	.LVL42:
 181:../Dave/Generated/CMSIS_DSP/FilteringFunctions/arm_fir_q31.c ****       acc1 += ((q63_t) x1 * c0);
 273              	 .loc 1 181 0
 274 013e CCFB0367 	 smlal r6,r7,ip,r3
 275              	.LVL43:
 276 0142 E246     	 mov r10,ip
 277              	.LVL44:
 182:../Dave/Generated/CMSIS_DSP/FilteringFunctions/arm_fir_q31.c ****       acc2 += ((q63_t) x2 * c0);
 278              	 .loc 1 182 0
 279 0144 C1FB0345 	 smlal r4,r5,r1,r3
 280              	.LVL45:
 183:../Dave/Generated/CMSIS_DSP/FilteringFunctions/arm_fir_q31.c **** 
 184:../Dave/Generated/CMSIS_DSP/FilteringFunctions/arm_fir_q31.c ****       /* Reuse the present sample states for next sample */
 185:../Dave/Generated/CMSIS_DSP/FilteringFunctions/arm_fir_q31.c ****       x0 = x1;
 186:../Dave/Generated/CMSIS_DSP/FilteringFunctions/arm_fir_q31.c ****       x1 = x2;
 281              	 .loc 1 186 0
 282 0148 8C46     	 mov ip,r1
 283              	.LVL46:
 171:../Dave/Generated/CMSIS_DSP/FilteringFunctions/arm_fir_q31.c ****     {
 284              	 .loc 1 171 0
 285 014a F1D1     	 bne .L6
 286              	.LVL47:
 287              	.L5:
 288 014c 0298     	 ldr r0,[sp,#8]
 289              	.LVL48:
 187:../Dave/Generated/CMSIS_DSP/FilteringFunctions/arm_fir_q31.c **** 
 188:../Dave/Generated/CMSIS_DSP/FilteringFunctions/arm_fir_q31.c ****       /* Decrement the loop counter */
 189:../Dave/Generated/CMSIS_DSP/FilteringFunctions/arm_fir_q31.c ****       i--;
 190:../Dave/Generated/CMSIS_DSP/FilteringFunctions/arm_fir_q31.c ****     }
 191:../Dave/Generated/CMSIS_DSP/FilteringFunctions/arm_fir_q31.c **** 
 192:../Dave/Generated/CMSIS_DSP/FilteringFunctions/arm_fir_q31.c ****     /* Advance the state pointer by 3 to process the next group of 3 samples */
 193:../Dave/Generated/CMSIS_DSP/FilteringFunctions/arm_fir_q31.c ****     pState = pState + 3;
 194:../Dave/Generated/CMSIS_DSP/FilteringFunctions/arm_fir_q31.c **** 
 195:../Dave/Generated/CMSIS_DSP/FilteringFunctions/arm_fir_q31.c ****     /* The results in the 3 accumulators are in 2.30 format.  Convert to 1.31
 196:../Dave/Generated/CMSIS_DSP/FilteringFunctions/arm_fir_q31.c ****      ** Then store the 3 outputs in the destination buffer. */
 197:../Dave/Generated/CMSIS_DSP/FilteringFunctions/arm_fir_q31.c ****     *pDst++ = (q31_t) (acc0 >> 31u);
 198:../Dave/Generated/CMSIS_DSP/FilteringFunctions/arm_fir_q31.c ****     *pDst++ = (q31_t) (acc1 >> 31u);
 199:../Dave/Generated/CMSIS_DSP/FilteringFunctions/arm_fir_q31.c ****     *pDst++ = (q31_t) (acc2 >> 31u);
 290              	 .loc 1 199 0
 291 014e E10F     	 lsrs r1,r4,#31
 197:../Dave/Generated/CMSIS_DSP/FilteringFunctions/arm_fir_q31.c ****     *pDst++ = (q31_t) (acc1 >> 31u);
 292              	 .loc 1 197 0
 293 0150 4FEAD873 	 lsr r3,r8,#31
 294 0154 059C     	 ldr r4,[sp,#20]
 295              	.LVL49:
 296 0156 43EA4903 	 orr r3,r3,r9,lsl#1
 297 015a 0C30     	 adds r0,r0,#12
 298 015c 0290     	 str r0,[sp,#8]
 299 015e 44F80C3C 	 str r3,[r4,#-12]
 300 0162 0198     	 ldr r0,[sp,#4]
 301 0164 04F10C03 	 add r3,r4,#12
 302 0168 0593     	 str r3,[sp,#20]
 103:../Dave/Generated/CMSIS_DSP/FilteringFunctions/arm_fir_q31.c ****   {
 303              	 .loc 1 103 0
 304 016a 049B     	 ldr r3,[sp,#16]
 305 016c 0C30     	 adds r0,r0,#12
 198:../Dave/Generated/CMSIS_DSP/FilteringFunctions/arm_fir_q31.c ****     *pDst++ = (q31_t) (acc2 >> 31u);
 306              	 .loc 1 198 0
 307 016e F20F     	 lsrs r2,r6,#31
 308 0170 42EA4702 	 orr r2,r2,r7,lsl#1
 309              	 .loc 1 199 0
 310 0174 41EA4501 	 orr r1,r1,r5,lsl#1
 311 0178 0190     	 str r0,[sp,#4]
 312              	.LVL50:
 103:../Dave/Generated/CMSIS_DSP/FilteringFunctions/arm_fir_q31.c ****   {
 313              	 .loc 1 103 0
 314 017a 013B     	 subs r3,r3,#1
 315 017c 0698     	 ldr r0,[sp,#24]
 316 017e 0390     	 str r0,[sp,#12]
 198:../Dave/Generated/CMSIS_DSP/FilteringFunctions/arm_fir_q31.c ****     *pDst++ = (q31_t) (acc2 >> 31u);
 317              	 .loc 1 198 0
 318 0180 44F8082C 	 str r2,[r4,#-8]
 319              	.LVL51:
 320              	 .loc 1 199 0
 321 0184 44F8041C 	 str r1,[r4,#-4]
 103:../Dave/Generated/CMSIS_DSP/FilteringFunctions/arm_fir_q31.c ****   {
 322              	 .loc 1 103 0
 323 0188 0493     	 str r3,[sp,#16]
 324 018a 7FF479AF 	 bne .L7
 325 018e 129B     	 ldr r3,[sp,#72]
 326              	.LVL52:
 327 0190 139A     	 ldr r2,[sp,#76]
 328 0192 1344     	 add r3,r3,r2
 329 0194 9F00     	 lsls r7,r3,#2
 330 0196 0D9B     	 ldr r3,[sp,#52]
 331 0198 3B44     	 add r3,r3,r7
 332 019a 0D93     	 str r3,[sp,#52]
 333 019c 0E9B     	 ldr r3,[sp,#56]
 334 019e 3B44     	 add r3,r3,r7
 335 01a0 0E93     	 str r3,[sp,#56]
 336 01a2 0F9B     	 ldr r3,[sp,#60]
 337 01a4 3B44     	 add r3,r3,r7
 338 01a6 0F93     	 str r3,[sp,#60]
 339 01a8 0C9B     	 ldr r3,[sp,#48]
 340 01aa 1F44     	 add r7,r7,r3
 341              	.LVL53:
 342              	.L2:
 200:../Dave/Generated/CMSIS_DSP/FilteringFunctions/arm_fir_q31.c **** 
 201:../Dave/Generated/CMSIS_DSP/FilteringFunctions/arm_fir_q31.c ****     /* Decrement the samples loop counter */
 202:../Dave/Generated/CMSIS_DSP/FilteringFunctions/arm_fir_q31.c ****     blkCnt--;
 203:../Dave/Generated/CMSIS_DSP/FilteringFunctions/arm_fir_q31.c ****   }
 204:../Dave/Generated/CMSIS_DSP/FilteringFunctions/arm_fir_q31.c **** 
 205:../Dave/Generated/CMSIS_DSP/FilteringFunctions/arm_fir_q31.c ****   /* If the blockSize is not a multiple of 3, compute any remaining output samples here.
 206:../Dave/Generated/CMSIS_DSP/FilteringFunctions/arm_fir_q31.c ****    ** No loop unrolling is used. */
 207:../Dave/Generated/CMSIS_DSP/FilteringFunctions/arm_fir_q31.c **** 
 208:../Dave/Generated/CMSIS_DSP/FilteringFunctions/arm_fir_q31.c ****   while (blockSize > 0u)
 343              	 .loc 1 208 0
 344 01ac 119B     	 ldr r3,[sp,#68]
 345 01ae 5BB3     	 cbz r3,.L8
 346 01b0 0D9A     	 ldr r2,[sp,#52]
 347 01b2 0197     	 str r7,[sp,#4]
 348 01b4 BC46     	 mov ip,r7
 349 01b6 DDF81CA0 	 ldr r10,[sp,#28]
 350 01ba DDF840B0 	 ldr fp,[sp,#64]
 351 01be 0E9F     	 ldr r7,[sp,#56]
 352              	.LVL54:
 353 01c0 DDF83C90 	 ldr r9,[sp,#60]
 354 01c4 A2F10408 	 sub r8,r2,#4
 355 01c8 9E46     	 mov lr,r3
 356              	.LVL55:
 357              	.L10:
 209:../Dave/Generated/CMSIS_DSP/FilteringFunctions/arm_fir_q31.c ****   {
 210:../Dave/Generated/CMSIS_DSP/FilteringFunctions/arm_fir_q31.c ****     /* Copy one sample at a time into state buffer */
 211:../Dave/Generated/CMSIS_DSP/FilteringFunctions/arm_fir_q31.c ****     *pStateCurnt++ = *pSrc++;
 358              	 .loc 1 211 0
 359 01ca 57F8043B 	 ldr r3,[r7],#4
 360              	.LVL56:
 361 01ce 48F8043F 	 str r3,[r8,#4]!
 362              	.LVL57:
 212:../Dave/Generated/CMSIS_DSP/FilteringFunctions/arm_fir_q31.c **** 
 213:../Dave/Generated/CMSIS_DSP/FilteringFunctions/arm_fir_q31.c ****     /* Set the accumulator to zero */
 214:../Dave/Generated/CMSIS_DSP/FilteringFunctions/arm_fir_q31.c ****     acc0 = 0;
 215:../Dave/Generated/CMSIS_DSP/FilteringFunctions/arm_fir_q31.c **** 
 216:../Dave/Generated/CMSIS_DSP/FilteringFunctions/arm_fir_q31.c ****     /* Initialize state pointer */
 217:../Dave/Generated/CMSIS_DSP/FilteringFunctions/arm_fir_q31.c ****     px = pState;
 218:../Dave/Generated/CMSIS_DSP/FilteringFunctions/arm_fir_q31.c **** 
 219:../Dave/Generated/CMSIS_DSP/FilteringFunctions/arm_fir_q31.c ****     /* Initialize Coefficient pointer */
 220:../Dave/Generated/CMSIS_DSP/FilteringFunctions/arm_fir_q31.c ****     pb = (pCoeffs);
 363              	 .loc 1 220 0
 364 01d2 5446     	 mov r4,r10
 221:../Dave/Generated/CMSIS_DSP/FilteringFunctions/arm_fir_q31.c **** 
 222:../Dave/Generated/CMSIS_DSP/FilteringFunctions/arm_fir_q31.c ****     i = numTaps;
 365              	 .loc 1 222 0
 366 01d4 5B46     	 mov r3,fp
 211:../Dave/Generated/CMSIS_DSP/FilteringFunctions/arm_fir_q31.c **** 
 367              	 .loc 1 211 0
 368 01d6 6246     	 mov r2,ip
 214:../Dave/Generated/CMSIS_DSP/FilteringFunctions/arm_fir_q31.c **** 
 369              	 .loc 1 214 0
 370 01d8 0020     	 movs r0,#0
 371 01da 0021     	 movs r1,#0
 372              	.LVL58:
 373              	.L9:
 223:../Dave/Generated/CMSIS_DSP/FilteringFunctions/arm_fir_q31.c **** 
 224:../Dave/Generated/CMSIS_DSP/FilteringFunctions/arm_fir_q31.c ****     /* Perform the multiply-accumulates */
 225:../Dave/Generated/CMSIS_DSP/FilteringFunctions/arm_fir_q31.c ****     do
 226:../Dave/Generated/CMSIS_DSP/FilteringFunctions/arm_fir_q31.c ****     {
 227:../Dave/Generated/CMSIS_DSP/FilteringFunctions/arm_fir_q31.c ****       acc0 += (q63_t) * (px++) * (*(pb++));
 374              	 .loc 1 227 0 discriminator 1
 375 01dc 52F8046B 	 ldr r6,[r2],#4
 376              	.LVL59:
 377 01e0 54F8045B 	 ldr r5,[r4],#4
 378              	.LVL60:
 228:../Dave/Generated/CMSIS_DSP/FilteringFunctions/arm_fir_q31.c ****       i--;
 229:../Dave/Generated/CMSIS_DSP/FilteringFunctions/arm_fir_q31.c ****     } while (i > 0u);
 379              	 .loc 1 229 0 discriminator 1
 380 01e4 013B     	 subs r3,r3,#1
 381              	.LVL61:
 227:../Dave/Generated/CMSIS_DSP/FilteringFunctions/arm_fir_q31.c ****       i--;
 382              	 .loc 1 227 0 discriminator 1
 383 01e6 C5FB0601 	 smlal r0,r1,r5,r6
 384              	.LVL62:
 385              	 .loc 1 229 0 discriminator 1
 386 01ea F7D1     	 bne .L9
 230:../Dave/Generated/CMSIS_DSP/FilteringFunctions/arm_fir_q31.c **** 
 231:../Dave/Generated/CMSIS_DSP/FilteringFunctions/arm_fir_q31.c ****     /* The result is in 2.62 format.  Convert to 1.31
 232:../Dave/Generated/CMSIS_DSP/FilteringFunctions/arm_fir_q31.c ****      ** Then store the output in the destination buffer. */
 233:../Dave/Generated/CMSIS_DSP/FilteringFunctions/arm_fir_q31.c ****     *pDst++ = (q31_t) (acc0 >> 31u);
 387              	 .loc 1 233 0
 388 01ec C30F     	 lsrs r3,r0,#31
 389 01ee 43EA4103 	 orr r3,r3,r1,lsl#1
 208:../Dave/Generated/CMSIS_DSP/FilteringFunctions/arm_fir_q31.c ****   {
 390              	 .loc 1 208 0
 391 01f2 BEF1010E 	 subs lr,lr,#1
 392              	.LVL63:
 234:../Dave/Generated/CMSIS_DSP/FilteringFunctions/arm_fir_q31.c **** 
 235:../Dave/Generated/CMSIS_DSP/FilteringFunctions/arm_fir_q31.c ****     /* Advance state pointer by 1 for the next sample */
 236:../Dave/Generated/CMSIS_DSP/FilteringFunctions/arm_fir_q31.c ****     pState = pState + 1;
 393              	 .loc 1 236 0
 394 01f6 0CF1040C 	 add ip,ip,#4
 395              	.LVL64:
 233:../Dave/Generated/CMSIS_DSP/FilteringFunctions/arm_fir_q31.c **** 
 396              	 .loc 1 233 0
 397 01fa 49F8043B 	 str r3,[r9],#4
 398              	.LVL65:
 208:../Dave/Generated/CMSIS_DSP/FilteringFunctions/arm_fir_q31.c ****   {
 399              	 .loc 1 208 0
 400 01fe E4D1     	 bne .L10
 401 0200 019F     	 ldr r7,[sp,#4]
 402              	.LVL66:
 403 0202 119B     	 ldr r3,[sp,#68]
 404 0204 07EB8307 	 add r7,r7,r3,lsl#2
 405              	.LVL67:
 406              	.L8:
 237:../Dave/Generated/CMSIS_DSP/FilteringFunctions/arm_fir_q31.c **** 
 238:../Dave/Generated/CMSIS_DSP/FilteringFunctions/arm_fir_q31.c ****     /* Decrement the samples loop counter */
 239:../Dave/Generated/CMSIS_DSP/FilteringFunctions/arm_fir_q31.c ****     blockSize--;
 240:../Dave/Generated/CMSIS_DSP/FilteringFunctions/arm_fir_q31.c ****   }
 241:../Dave/Generated/CMSIS_DSP/FilteringFunctions/arm_fir_q31.c **** 
 242:../Dave/Generated/CMSIS_DSP/FilteringFunctions/arm_fir_q31.c ****   /* Processing is complete.
 243:../Dave/Generated/CMSIS_DSP/FilteringFunctions/arm_fir_q31.c ****    ** Now copy the last numTaps - 1 samples to the satrt of the state buffer.
 244:../Dave/Generated/CMSIS_DSP/FilteringFunctions/arm_fir_q31.c ****    ** This prepares the state buffer for the next function call. */
 245:../Dave/Generated/CMSIS_DSP/FilteringFunctions/arm_fir_q31.c **** 
 246:../Dave/Generated/CMSIS_DSP/FilteringFunctions/arm_fir_q31.c ****   /* Points to the start of the state buffer */
 247:../Dave/Generated/CMSIS_DSP/FilteringFunctions/arm_fir_q31.c ****   pStateCurnt = S->pState;
 248:../Dave/Generated/CMSIS_DSP/FilteringFunctions/arm_fir_q31.c **** 
 249:../Dave/Generated/CMSIS_DSP/FilteringFunctions/arm_fir_q31.c ****   tapCnt = (numTaps - 1u) >> 2u;
 407              	 .loc 1 249 0
 408 0208 109B     	 ldr r3,[sp,#64]
 409 020a 591E     	 subs r1,r3,#1
 410              	.LVL68:
 250:../Dave/Generated/CMSIS_DSP/FilteringFunctions/arm_fir_q31.c **** 
 251:../Dave/Generated/CMSIS_DSP/FilteringFunctions/arm_fir_q31.c ****   /* copy data */
 252:../Dave/Generated/CMSIS_DSP/FilteringFunctions/arm_fir_q31.c ****   while (tapCnt > 0u)
 411              	 .loc 1 252 0
 412 020c 8D08     	 lsrs r5,r1,#2
 413              	.LVL69:
 414 020e 20D0     	 beq .L11
 415 0210 0C9B     	 ldr r3,[sp,#48]
 416 0212 2846     	 mov r0,r5
 417 0214 03F11002 	 add r2,r3,#16
 418 0218 07F11003 	 add r3,r7,#16
 419              	.LVL70:
 420              	.L12:
 253:../Dave/Generated/CMSIS_DSP/FilteringFunctions/arm_fir_q31.c ****   {
 254:../Dave/Generated/CMSIS_DSP/FilteringFunctions/arm_fir_q31.c ****     *pStateCurnt++ = *pState++;
 421              	 .loc 1 254 0
 422 021c 53F8104C 	 ldr r4,[r3,#-16]
 423 0220 42F8104C 	 str r4,[r2,#-16]
 424              	.LVL71:
 255:../Dave/Generated/CMSIS_DSP/FilteringFunctions/arm_fir_q31.c ****     *pStateCurnt++ = *pState++;
 425              	 .loc 1 255 0
 426 0224 53F80C4C 	 ldr r4,[r3,#-12]
 427 0228 42F80C4C 	 str r4,[r2,#-12]
 428              	.LVL72:
 256:../Dave/Generated/CMSIS_DSP/FilteringFunctions/arm_fir_q31.c ****     *pStateCurnt++ = *pState++;
 429              	 .loc 1 256 0
 430 022c 53F8084C 	 ldr r4,[r3,#-8]
 431 0230 42F8084C 	 str r4,[r2,#-8]
 432              	.LVL73:
 257:../Dave/Generated/CMSIS_DSP/FilteringFunctions/arm_fir_q31.c ****     *pStateCurnt++ = *pState++;
 433              	 .loc 1 257 0
 434 0234 53F8044C 	 ldr r4,[r3,#-4]
 435 0238 42F8044C 	 str r4,[r2,#-4]
 252:../Dave/Generated/CMSIS_DSP/FilteringFunctions/arm_fir_q31.c ****   {
 436              	 .loc 1 252 0
 437 023c 0138     	 subs r0,r0,#1
 438              	.LVL74:
 439 023e 03F11003 	 add r3,r3,#16
 440              	.LVL75:
 441 0242 02F11002 	 add r2,r2,#16
 442 0246 E9D1     	 bne .L12
 443 0248 0C9A     	 ldr r2,[sp,#48]
 444 024a 2B01     	 lsls r3,r5,#4
 445              	.LVL76:
 446 024c 1A44     	 add r2,r2,r3
 447 024e 0C92     	 str r2,[sp,#48]
 448 0250 1F44     	 add r7,r7,r3
 449              	.LVL77:
 450              	.L11:
 258:../Dave/Generated/CMSIS_DSP/FilteringFunctions/arm_fir_q31.c **** 
 259:../Dave/Generated/CMSIS_DSP/FilteringFunctions/arm_fir_q31.c ****     /* Decrement the loop counter */
 260:../Dave/Generated/CMSIS_DSP/FilteringFunctions/arm_fir_q31.c ****     tapCnt--;
 261:../Dave/Generated/CMSIS_DSP/FilteringFunctions/arm_fir_q31.c ****   }
 262:../Dave/Generated/CMSIS_DSP/FilteringFunctions/arm_fir_q31.c **** 
 263:../Dave/Generated/CMSIS_DSP/FilteringFunctions/arm_fir_q31.c ****   /* Calculate remaining number of copies */
 264:../Dave/Generated/CMSIS_DSP/FilteringFunctions/arm_fir_q31.c ****   tapCnt = (numTaps - 1u) % 0x4u;
 265:../Dave/Generated/CMSIS_DSP/FilteringFunctions/arm_fir_q31.c **** 
 266:../Dave/Generated/CMSIS_DSP/FilteringFunctions/arm_fir_q31.c ****   /* Copy the remaining q31_t data */
 267:../Dave/Generated/CMSIS_DSP/FilteringFunctions/arm_fir_q31.c ****   while (tapCnt > 0u)
 451              	 .loc 1 267 0
 452 0252 11F00303 	 ands r3,r1,#3
 453              	.LVL78:
 454 0256 07D0     	 beq .L1
 455 0258 0C9A     	 ldr r2,[sp,#48]
 456 025a 043A     	 subs r2,r2,#4
 457              	.L14:
 458              	.LVL79:
 268:../Dave/Generated/CMSIS_DSP/FilteringFunctions/arm_fir_q31.c ****   {
 269:../Dave/Generated/CMSIS_DSP/FilteringFunctions/arm_fir_q31.c ****     *pStateCurnt++ = *pState++;
 459              	 .loc 1 269 0
 460 025c 57F8041B 	 ldr r1,[r7],#4
 461              	.LVL80:
 462 0260 42F8041F 	 str r1,[r2,#4]!
 267:../Dave/Generated/CMSIS_DSP/FilteringFunctions/arm_fir_q31.c ****   {
 463              	 .loc 1 267 0
 464 0264 013B     	 subs r3,r3,#1
 465              	.LVL81:
 466 0266 F9D1     	 bne .L14
 467              	.L1:
 270:../Dave/Generated/CMSIS_DSP/FilteringFunctions/arm_fir_q31.c **** 
 271:../Dave/Generated/CMSIS_DSP/FilteringFunctions/arm_fir_q31.c ****     /* Decrement the loop counter */
 272:../Dave/Generated/CMSIS_DSP/FilteringFunctions/arm_fir_q31.c ****     tapCnt--;
 273:../Dave/Generated/CMSIS_DSP/FilteringFunctions/arm_fir_q31.c ****   }
 274:../Dave/Generated/CMSIS_DSP/FilteringFunctions/arm_fir_q31.c **** 
 275:../Dave/Generated/CMSIS_DSP/FilteringFunctions/arm_fir_q31.c **** #else
 276:../Dave/Generated/CMSIS_DSP/FilteringFunctions/arm_fir_q31.c **** 
 277:../Dave/Generated/CMSIS_DSP/FilteringFunctions/arm_fir_q31.c **** /* Run the below code for Cortex-M0 */
 278:../Dave/Generated/CMSIS_DSP/FilteringFunctions/arm_fir_q31.c **** 
 279:../Dave/Generated/CMSIS_DSP/FilteringFunctions/arm_fir_q31.c ****   q31_t *px;                                     /* Temporary pointer for state */
 280:../Dave/Generated/CMSIS_DSP/FilteringFunctions/arm_fir_q31.c ****   q31_t *pb;                                     /* Temporary pointer for coefficient buffer */
 281:../Dave/Generated/CMSIS_DSP/FilteringFunctions/arm_fir_q31.c ****   q63_t acc;                                     /* Accumulator */
 282:../Dave/Generated/CMSIS_DSP/FilteringFunctions/arm_fir_q31.c ****   uint32_t numTaps = S->numTaps;                 /* Length of the filter */
 283:../Dave/Generated/CMSIS_DSP/FilteringFunctions/arm_fir_q31.c ****   uint32_t i, tapCnt, blkCnt;                    /* Loop counters */
 284:../Dave/Generated/CMSIS_DSP/FilteringFunctions/arm_fir_q31.c **** 
 285:../Dave/Generated/CMSIS_DSP/FilteringFunctions/arm_fir_q31.c ****   /* S->pState buffer contains previous frame (numTaps - 1) samples */
 286:../Dave/Generated/CMSIS_DSP/FilteringFunctions/arm_fir_q31.c ****   /* pStateCurnt points to the location where the new input data should be written */
 287:../Dave/Generated/CMSIS_DSP/FilteringFunctions/arm_fir_q31.c ****   pStateCurnt = &(S->pState[(numTaps - 1u)]);
 288:../Dave/Generated/CMSIS_DSP/FilteringFunctions/arm_fir_q31.c **** 
 289:../Dave/Generated/CMSIS_DSP/FilteringFunctions/arm_fir_q31.c ****   /* Initialize blkCnt with blockSize */
 290:../Dave/Generated/CMSIS_DSP/FilteringFunctions/arm_fir_q31.c ****   blkCnt = blockSize;
 291:../Dave/Generated/CMSIS_DSP/FilteringFunctions/arm_fir_q31.c **** 
 292:../Dave/Generated/CMSIS_DSP/FilteringFunctions/arm_fir_q31.c ****   while (blkCnt > 0u)
 293:../Dave/Generated/CMSIS_DSP/FilteringFunctions/arm_fir_q31.c ****   {
 294:../Dave/Generated/CMSIS_DSP/FilteringFunctions/arm_fir_q31.c ****     /* Copy one sample at a time into state buffer */
 295:../Dave/Generated/CMSIS_DSP/FilteringFunctions/arm_fir_q31.c ****     *pStateCurnt++ = *pSrc++;
 296:../Dave/Generated/CMSIS_DSP/FilteringFunctions/arm_fir_q31.c **** 
 297:../Dave/Generated/CMSIS_DSP/FilteringFunctions/arm_fir_q31.c ****     /* Set the accumulator to zero */
 298:../Dave/Generated/CMSIS_DSP/FilteringFunctions/arm_fir_q31.c ****     acc = 0;
 299:../Dave/Generated/CMSIS_DSP/FilteringFunctions/arm_fir_q31.c **** 
 300:../Dave/Generated/CMSIS_DSP/FilteringFunctions/arm_fir_q31.c ****     /* Initialize state pointer */
 301:../Dave/Generated/CMSIS_DSP/FilteringFunctions/arm_fir_q31.c ****     px = pState;
 302:../Dave/Generated/CMSIS_DSP/FilteringFunctions/arm_fir_q31.c **** 
 303:../Dave/Generated/CMSIS_DSP/FilteringFunctions/arm_fir_q31.c ****     /* Initialize Coefficient pointer */
 304:../Dave/Generated/CMSIS_DSP/FilteringFunctions/arm_fir_q31.c ****     pb = pCoeffs;
 305:../Dave/Generated/CMSIS_DSP/FilteringFunctions/arm_fir_q31.c **** 
 306:../Dave/Generated/CMSIS_DSP/FilteringFunctions/arm_fir_q31.c ****     i = numTaps;
 307:../Dave/Generated/CMSIS_DSP/FilteringFunctions/arm_fir_q31.c **** 
 308:../Dave/Generated/CMSIS_DSP/FilteringFunctions/arm_fir_q31.c ****     /* Perform the multiply-accumulates */
 309:../Dave/Generated/CMSIS_DSP/FilteringFunctions/arm_fir_q31.c ****     do
 310:../Dave/Generated/CMSIS_DSP/FilteringFunctions/arm_fir_q31.c ****     {
 311:../Dave/Generated/CMSIS_DSP/FilteringFunctions/arm_fir_q31.c ****       /* acc =  b[numTaps-1] * x[n-numTaps-1] + b[numTaps-2] * x[n-numTaps-2] + b[numTaps-3] * x[n-
 312:../Dave/Generated/CMSIS_DSP/FilteringFunctions/arm_fir_q31.c ****       acc += (q63_t) * px++ * *pb++;
 313:../Dave/Generated/CMSIS_DSP/FilteringFunctions/arm_fir_q31.c ****       i--;
 314:../Dave/Generated/CMSIS_DSP/FilteringFunctions/arm_fir_q31.c ****     } while (i > 0u);
 315:../Dave/Generated/CMSIS_DSP/FilteringFunctions/arm_fir_q31.c **** 
 316:../Dave/Generated/CMSIS_DSP/FilteringFunctions/arm_fir_q31.c ****     /* The result is in 2.62 format.  Convert to 1.31
 317:../Dave/Generated/CMSIS_DSP/FilteringFunctions/arm_fir_q31.c ****      ** Then store the output in the destination buffer. */
 318:../Dave/Generated/CMSIS_DSP/FilteringFunctions/arm_fir_q31.c ****     *pDst++ = (q31_t) (acc >> 31u);
 319:../Dave/Generated/CMSIS_DSP/FilteringFunctions/arm_fir_q31.c **** 
 320:../Dave/Generated/CMSIS_DSP/FilteringFunctions/arm_fir_q31.c ****     /* Advance state pointer by 1 for the next sample */
 321:../Dave/Generated/CMSIS_DSP/FilteringFunctions/arm_fir_q31.c ****     pState = pState + 1;
 322:../Dave/Generated/CMSIS_DSP/FilteringFunctions/arm_fir_q31.c **** 
 323:../Dave/Generated/CMSIS_DSP/FilteringFunctions/arm_fir_q31.c ****     /* Decrement the samples loop counter */
 324:../Dave/Generated/CMSIS_DSP/FilteringFunctions/arm_fir_q31.c ****     blkCnt--;
 325:../Dave/Generated/CMSIS_DSP/FilteringFunctions/arm_fir_q31.c ****   }
 326:../Dave/Generated/CMSIS_DSP/FilteringFunctions/arm_fir_q31.c **** 
 327:../Dave/Generated/CMSIS_DSP/FilteringFunctions/arm_fir_q31.c ****   /* Processing is complete.
 328:../Dave/Generated/CMSIS_DSP/FilteringFunctions/arm_fir_q31.c ****    ** Now copy the last numTaps - 1 samples to the starting of the state buffer.
 329:../Dave/Generated/CMSIS_DSP/FilteringFunctions/arm_fir_q31.c ****    ** This prepares the state buffer for the next function call. */
 330:../Dave/Generated/CMSIS_DSP/FilteringFunctions/arm_fir_q31.c **** 
 331:../Dave/Generated/CMSIS_DSP/FilteringFunctions/arm_fir_q31.c ****   /* Points to the start of the state buffer */
 332:../Dave/Generated/CMSIS_DSP/FilteringFunctions/arm_fir_q31.c ****   pStateCurnt = S->pState;
 333:../Dave/Generated/CMSIS_DSP/FilteringFunctions/arm_fir_q31.c **** 
 334:../Dave/Generated/CMSIS_DSP/FilteringFunctions/arm_fir_q31.c ****   /* Copy numTaps number of values */
 335:../Dave/Generated/CMSIS_DSP/FilteringFunctions/arm_fir_q31.c ****   tapCnt = numTaps - 1u;
 336:../Dave/Generated/CMSIS_DSP/FilteringFunctions/arm_fir_q31.c **** 
 337:../Dave/Generated/CMSIS_DSP/FilteringFunctions/arm_fir_q31.c ****   /* Copy the data */
 338:../Dave/Generated/CMSIS_DSP/FilteringFunctions/arm_fir_q31.c ****   while (tapCnt > 0u)
 339:../Dave/Generated/CMSIS_DSP/FilteringFunctions/arm_fir_q31.c ****   {
 340:../Dave/Generated/CMSIS_DSP/FilteringFunctions/arm_fir_q31.c ****     *pStateCurnt++ = *pState++;
 341:../Dave/Generated/CMSIS_DSP/FilteringFunctions/arm_fir_q31.c **** 
 342:../Dave/Generated/CMSIS_DSP/FilteringFunctions/arm_fir_q31.c ****     /* Decrement the loop counter */
 343:../Dave/Generated/CMSIS_DSP/FilteringFunctions/arm_fir_q31.c ****     tapCnt--;
 344:../Dave/Generated/CMSIS_DSP/FilteringFunctions/arm_fir_q31.c ****   }
 345:../Dave/Generated/CMSIS_DSP/FilteringFunctions/arm_fir_q31.c **** 
 346:../Dave/Generated/CMSIS_DSP/FilteringFunctions/arm_fir_q31.c **** 
 347:../Dave/Generated/CMSIS_DSP/FilteringFunctions/arm_fir_q31.c **** #endif /*  #if defined (ARM_MATH_DSP) */
 348:../Dave/Generated/CMSIS_DSP/FilteringFunctions/arm_fir_q31.c **** 
 349:../Dave/Generated/CMSIS_DSP/FilteringFunctions/arm_fir_q31.c **** }
 468              	 .loc 1 349 0
 469 0268 15B0     	 add sp,sp,#84
 470              	.LCFI2:
 471              	 .cfi_remember_state
 472              	 .cfi_def_cfa_offset 36
 473              	 
 474 026a BDE8F08F 	 pop {r4,r5,r6,r7,r8,r9,r10,fp,pc}
 475              	.LVL82:
 476              	.L17:
 477              	.LCFI3:
 478              	 .cfi_restore_state
 113:../Dave/Generated/CMSIS_DSP/FilteringFunctions/arm_fir_q31.c **** 
 479              	 .loc 1 113 0
 480 026e 0024     	 movs r4,#0
 481 0270 0025     	 movs r5,#0
 482 0272 02F10C03 	 add r3,r2,#12
 112:../Dave/Generated/CMSIS_DSP/FilteringFunctions/arm_fir_q31.c ****     acc2 = 0;
 483              	 .loc 1 112 0
 484 0276 2646     	 mov r6,r4
 485 0278 2F46     	 mov r7,r5
 111:../Dave/Generated/CMSIS_DSP/FilteringFunctions/arm_fir_q31.c ****     acc1 = 0;
 486              	 .loc 1 111 0
 487 027a A046     	 mov r8,r4
 488 027c A946     	 mov r9,r5
 119:../Dave/Generated/CMSIS_DSP/FilteringFunctions/arm_fir_q31.c **** 
 489              	 .loc 1 119 0
 490 027e DDF81CE0 	 ldr lr,[sp,#28]
 491 0282 0693     	 str r3,[sp,#24]
 492 0284 51E7     	 b .L3
 493              	.L37:
 494 0286 00BF     	 .align 2
 495              	.L36:
 496 0288 ABAAAAAA 	 .word -1431655765
 497              	 .cfi_endproc
 498              	.LFE135:
 500              	 .text
 501              	.Letext0:
 502              	 .file 2 "c:\\infineon\\tools\\dave ide\\4.5.0.202105191637\\eclipse\\arm-gcc-49\\arm-none-eabi\\include\\machine\\_default_types.h"
 503              	 .file 3 "c:\\infineon\\tools\\dave ide\\4.5.0.202105191637\\eclipse\\arm-gcc-49\\arm-none-eabi\\include\\stdint.h"
 504              	 .file 4 "C:/Users/Utente/Desktop/Tesi/Firmware_Software/DAVE project/S2GLP_Pulsed_Doppler/Dave/Generated/CMSIS_DSP/arm_math.h"