   1              	 .syntax unified
   2              	 .cpu cortex-m4
   3              	 .eabi_attribute 27,3
   4              	 .fpu fpv4-sp-d16
   5              	 .eabi_attribute 20,1
   6              	 .eabi_attribute 21,1
   7              	 .eabi_attribute 23,3
   8              	 .eabi_attribute 24,1
   9              	 .eabi_attribute 25,1
  10              	 .eabi_attribute 26,1
  11              	 .eabi_attribute 30,2
  12              	 .eabi_attribute 34,1
  13              	 .eabi_attribute 18,4
  14              	 .thumb
  15              	 .file "arm_fir_fast_q31.c"
  16              	 .text
  17              	.Ltext0:
  18              	 .cfi_sections .debug_frame
  19              	 .section .text.arm_fir_fast_q31,"ax",%progbits
  20              	 .align 2
  21              	 .global arm_fir_fast_q31
  22              	 .thumb
  23              	 .thumb_func
  25              	arm_fir_fast_q31:
  26              	.LFB135:
  27              	 .file 1 "../Dave/Generated/CMSIS_DSP/FilteringFunctions/arm_fir_fast_q31.c"
   1:../Dave/Generated/CMSIS_DSP/FilteringFunctions/arm_fir_fast_q31.c **** /* ----------------------------------------------------------------------
   2:../Dave/Generated/CMSIS_DSP/FilteringFunctions/arm_fir_fast_q31.c ****  * Project:      CMSIS DSP Library
   3:../Dave/Generated/CMSIS_DSP/FilteringFunctions/arm_fir_fast_q31.c ****  * Title:        arm_fir_fast_q31.c
   4:../Dave/Generated/CMSIS_DSP/FilteringFunctions/arm_fir_fast_q31.c ****  * Description:  Processing function for the Q31 Fast FIR filter
   5:../Dave/Generated/CMSIS_DSP/FilteringFunctions/arm_fir_fast_q31.c ****  *
   6:../Dave/Generated/CMSIS_DSP/FilteringFunctions/arm_fir_fast_q31.c ****  * $Date:        27. January 2017
   7:../Dave/Generated/CMSIS_DSP/FilteringFunctions/arm_fir_fast_q31.c ****  * $Revision:    V.1.5.1
   8:../Dave/Generated/CMSIS_DSP/FilteringFunctions/arm_fir_fast_q31.c ****  *
   9:../Dave/Generated/CMSIS_DSP/FilteringFunctions/arm_fir_fast_q31.c ****  * Target Processor: Cortex-M cores
  10:../Dave/Generated/CMSIS_DSP/FilteringFunctions/arm_fir_fast_q31.c ****  * -------------------------------------------------------------------- */
  11:../Dave/Generated/CMSIS_DSP/FilteringFunctions/arm_fir_fast_q31.c **** /*
  12:../Dave/Generated/CMSIS_DSP/FilteringFunctions/arm_fir_fast_q31.c ****  * Copyright (C) 2010-2017 ARM Limited or its affiliates. All rights reserved.
  13:../Dave/Generated/CMSIS_DSP/FilteringFunctions/arm_fir_fast_q31.c ****  *
  14:../Dave/Generated/CMSIS_DSP/FilteringFunctions/arm_fir_fast_q31.c ****  * SPDX-License-Identifier: Apache-2.0
  15:../Dave/Generated/CMSIS_DSP/FilteringFunctions/arm_fir_fast_q31.c ****  *
  16:../Dave/Generated/CMSIS_DSP/FilteringFunctions/arm_fir_fast_q31.c ****  * Licensed under the Apache License, Version 2.0 (the License); you may
  17:../Dave/Generated/CMSIS_DSP/FilteringFunctions/arm_fir_fast_q31.c ****  * not use this file except in compliance with the License.
  18:../Dave/Generated/CMSIS_DSP/FilteringFunctions/arm_fir_fast_q31.c ****  * You may obtain a copy of the License at
  19:../Dave/Generated/CMSIS_DSP/FilteringFunctions/arm_fir_fast_q31.c ****  *
  20:../Dave/Generated/CMSIS_DSP/FilteringFunctions/arm_fir_fast_q31.c ****  * www.apache.org/licenses/LICENSE-2.0
  21:../Dave/Generated/CMSIS_DSP/FilteringFunctions/arm_fir_fast_q31.c ****  *
  22:../Dave/Generated/CMSIS_DSP/FilteringFunctions/arm_fir_fast_q31.c ****  * Unless required by applicable law or agreed to in writing, software
  23:../Dave/Generated/CMSIS_DSP/FilteringFunctions/arm_fir_fast_q31.c ****  * distributed under the License is distributed on an AS IS BASIS, WITHOUT
  24:../Dave/Generated/CMSIS_DSP/FilteringFunctions/arm_fir_fast_q31.c ****  * WARRANTIES OR CONDITIONS OF ANY KIND, either express or implied.
  25:../Dave/Generated/CMSIS_DSP/FilteringFunctions/arm_fir_fast_q31.c ****  * See the License for the specific language governing permissions and
  26:../Dave/Generated/CMSIS_DSP/FilteringFunctions/arm_fir_fast_q31.c ****  * limitations under the License.
  27:../Dave/Generated/CMSIS_DSP/FilteringFunctions/arm_fir_fast_q31.c ****  */
  28:../Dave/Generated/CMSIS_DSP/FilteringFunctions/arm_fir_fast_q31.c **** 
  29:../Dave/Generated/CMSIS_DSP/FilteringFunctions/arm_fir_fast_q31.c **** #include "CMSIS_DSP/cmsis_dsp.h"
  30:../Dave/Generated/CMSIS_DSP/FilteringFunctions/arm_fir_fast_q31.c **** 
  31:../Dave/Generated/CMSIS_DSP/FilteringFunctions/arm_fir_fast_q31.c **** /**
  32:../Dave/Generated/CMSIS_DSP/FilteringFunctions/arm_fir_fast_q31.c ****  * @ingroup groupFilters
  33:../Dave/Generated/CMSIS_DSP/FilteringFunctions/arm_fir_fast_q31.c ****  */
  34:../Dave/Generated/CMSIS_DSP/FilteringFunctions/arm_fir_fast_q31.c **** 
  35:../Dave/Generated/CMSIS_DSP/FilteringFunctions/arm_fir_fast_q31.c **** /**
  36:../Dave/Generated/CMSIS_DSP/FilteringFunctions/arm_fir_fast_q31.c ****  * @addtogroup FIR
  37:../Dave/Generated/CMSIS_DSP/FilteringFunctions/arm_fir_fast_q31.c ****  * @{
  38:../Dave/Generated/CMSIS_DSP/FilteringFunctions/arm_fir_fast_q31.c ****  */
  39:../Dave/Generated/CMSIS_DSP/FilteringFunctions/arm_fir_fast_q31.c **** 
  40:../Dave/Generated/CMSIS_DSP/FilteringFunctions/arm_fir_fast_q31.c **** /**
  41:../Dave/Generated/CMSIS_DSP/FilteringFunctions/arm_fir_fast_q31.c ****  * @param[in] *S points to an instance of the Q31 structure.
  42:../Dave/Generated/CMSIS_DSP/FilteringFunctions/arm_fir_fast_q31.c ****  * @param[in] *pSrc points to the block of input data.
  43:../Dave/Generated/CMSIS_DSP/FilteringFunctions/arm_fir_fast_q31.c ****  * @param[out] *pDst points to the block output data.
  44:../Dave/Generated/CMSIS_DSP/FilteringFunctions/arm_fir_fast_q31.c ****  * @param[in] blockSize number of samples to process per call.
  45:../Dave/Generated/CMSIS_DSP/FilteringFunctions/arm_fir_fast_q31.c ****  * @return none.
  46:../Dave/Generated/CMSIS_DSP/FilteringFunctions/arm_fir_fast_q31.c ****  *
  47:../Dave/Generated/CMSIS_DSP/FilteringFunctions/arm_fir_fast_q31.c ****  * <b>Scaling and Overflow Behavior:</b>
  48:../Dave/Generated/CMSIS_DSP/FilteringFunctions/arm_fir_fast_q31.c ****  *
  49:../Dave/Generated/CMSIS_DSP/FilteringFunctions/arm_fir_fast_q31.c ****  * \par
  50:../Dave/Generated/CMSIS_DSP/FilteringFunctions/arm_fir_fast_q31.c ****  * This function is optimized for speed at the expense of fixed-point precision and overflow protec
  51:../Dave/Generated/CMSIS_DSP/FilteringFunctions/arm_fir_fast_q31.c ****  * The result of each 1.31 x 1.31 multiplication is truncated to 2.30 format.
  52:../Dave/Generated/CMSIS_DSP/FilteringFunctions/arm_fir_fast_q31.c ****  * These intermediate results are added to a 2.30 accumulator.
  53:../Dave/Generated/CMSIS_DSP/FilteringFunctions/arm_fir_fast_q31.c ****  * Finally, the accumulator is saturated and converted to a 1.31 result.
  54:../Dave/Generated/CMSIS_DSP/FilteringFunctions/arm_fir_fast_q31.c ****  * The fast version has the same overflow behavior as the standard version and provides less precis
  55:../Dave/Generated/CMSIS_DSP/FilteringFunctions/arm_fir_fast_q31.c ****  * In order to avoid overflows completely the input signal must be scaled down by log2(numTaps) bit
  56:../Dave/Generated/CMSIS_DSP/FilteringFunctions/arm_fir_fast_q31.c ****  *
  57:../Dave/Generated/CMSIS_DSP/FilteringFunctions/arm_fir_fast_q31.c ****  * \par
  58:../Dave/Generated/CMSIS_DSP/FilteringFunctions/arm_fir_fast_q31.c ****  * Refer to the function <code>arm_fir_q31()</code> for a slower implementation of this function wh
  59:../Dave/Generated/CMSIS_DSP/FilteringFunctions/arm_fir_fast_q31.c ****  * Use the function <code>arm_fir_init_q31()</code> to initialize the filter structure.
  60:../Dave/Generated/CMSIS_DSP/FilteringFunctions/arm_fir_fast_q31.c ****  */
  61:../Dave/Generated/CMSIS_DSP/FilteringFunctions/arm_fir_fast_q31.c **** 
  62:../Dave/Generated/CMSIS_DSP/FilteringFunctions/arm_fir_fast_q31.c **** IAR_ONLY_LOW_OPTIMIZATION_ENTER
  63:../Dave/Generated/CMSIS_DSP/FilteringFunctions/arm_fir_fast_q31.c **** void arm_fir_fast_q31(
  64:../Dave/Generated/CMSIS_DSP/FilteringFunctions/arm_fir_fast_q31.c ****   const arm_fir_instance_q31 * S,
  65:../Dave/Generated/CMSIS_DSP/FilteringFunctions/arm_fir_fast_q31.c ****   q31_t * pSrc,
  66:../Dave/Generated/CMSIS_DSP/FilteringFunctions/arm_fir_fast_q31.c ****   q31_t * pDst,
  67:../Dave/Generated/CMSIS_DSP/FilteringFunctions/arm_fir_fast_q31.c ****   uint32_t blockSize)
  68:../Dave/Generated/CMSIS_DSP/FilteringFunctions/arm_fir_fast_q31.c **** {
  28              	 .loc 1 68 0
  29              	 .cfi_startproc
  30              	 
  31              	 
  32              	.LVL0:
  33 0000 2DE9F04F 	 push {r4,r5,r6,r7,r8,r9,r10,fp,lr}
  34              	.LCFI0:
  35              	 .cfi_def_cfa_offset 36
  36              	 .cfi_offset 4,-36
  37              	 .cfi_offset 5,-32
  38              	 .cfi_offset 6,-28
  39              	 .cfi_offset 7,-24
  40              	 .cfi_offset 8,-20
  41              	 .cfi_offset 9,-16
  42              	 .cfi_offset 10,-12
  43              	 .cfi_offset 11,-8
  44              	 .cfi_offset 14,-4
  69:../Dave/Generated/CMSIS_DSP/FilteringFunctions/arm_fir_fast_q31.c ****   q31_t *pState = S->pState;                     /* State pointer */
  70:../Dave/Generated/CMSIS_DSP/FilteringFunctions/arm_fir_fast_q31.c ****   q31_t *pCoeffs = S->pCoeffs;                   /* Coefficient pointer */
  71:../Dave/Generated/CMSIS_DSP/FilteringFunctions/arm_fir_fast_q31.c ****   q31_t *pStateCurnt;                            /* Points to the current sample of the state */
  72:../Dave/Generated/CMSIS_DSP/FilteringFunctions/arm_fir_fast_q31.c ****   q31_t x0, x1, x2, x3;                          /* Temporary variables to hold state */
  73:../Dave/Generated/CMSIS_DSP/FilteringFunctions/arm_fir_fast_q31.c ****   q31_t c0;                                      /* Temporary variable to hold coefficient value */
  74:../Dave/Generated/CMSIS_DSP/FilteringFunctions/arm_fir_fast_q31.c ****   q31_t *px;                                     /* Temporary pointer for state */
  75:../Dave/Generated/CMSIS_DSP/FilteringFunctions/arm_fir_fast_q31.c ****   q31_t *pb;                                     /* Temporary pointer for coefficient buffer */
  76:../Dave/Generated/CMSIS_DSP/FilteringFunctions/arm_fir_fast_q31.c ****   q31_t acc0, acc1, acc2, acc3;                  /* Accumulators */
  77:../Dave/Generated/CMSIS_DSP/FilteringFunctions/arm_fir_fast_q31.c ****   uint32_t numTaps = S->numTaps;                 /* Number of filter coefficients in the filter */
  45              	 .loc 1 77 0
  46 0004 0488     	 ldrh r4,[r0]
  69:../Dave/Generated/CMSIS_DSP/FilteringFunctions/arm_fir_fast_q31.c ****   q31_t *pState = S->pState;                     /* State pointer */
  47              	 .loc 1 69 0
  48 0006 4568     	 ldr r5,[r0,#4]
  70:../Dave/Generated/CMSIS_DSP/FilteringFunctions/arm_fir_fast_q31.c ****   q31_t *pStateCurnt;                            /* Points to the current sample of the state */
  49              	 .loc 1 70 0
  50 0008 8068     	 ldr r0,[r0,#8]
  51              	.LVL1:
  68:../Dave/Generated/CMSIS_DSP/FilteringFunctions/arm_fir_fast_q31.c ****   q31_t *pState = S->pState;                     /* State pointer */
  52              	 .loc 1 68 0
  53 000a C3B0     	 sub sp,sp,#268
  54              	.LCFI1:
  55              	 .cfi_def_cfa_offset 304
  68:../Dave/Generated/CMSIS_DSP/FilteringFunctions/arm_fir_fast_q31.c ****   q31_t *pState = S->pState;                     /* State pointer */
  56              	 .loc 1 68 0
  57 000c 1E46     	 mov r6,r3
  58 000e 3F93     	 str r3,[sp,#252]
  78:../Dave/Generated/CMSIS_DSP/FilteringFunctions/arm_fir_fast_q31.c ****   uint32_t i, tapCnt, blkCnt;                    /* Loop counters */
  79:../Dave/Generated/CMSIS_DSP/FilteringFunctions/arm_fir_fast_q31.c **** 
  80:../Dave/Generated/CMSIS_DSP/FilteringFunctions/arm_fir_fast_q31.c ****   /* S->pState points to buffer which contains previous frame (numTaps - 1) samples */
  81:../Dave/Generated/CMSIS_DSP/FilteringFunctions/arm_fir_fast_q31.c ****   /* pStateCurnt points to the location where the new input data should be written */
  82:../Dave/Generated/CMSIS_DSP/FilteringFunctions/arm_fir_fast_q31.c ****   pStateCurnt = &(S->pState[(numTaps - 1u)]);
  59              	 .loc 1 82 0
  60 0010 04F18043 	 add r3,r4,#1073741824
  61              	.LVL2:
  62 0014 013B     	 subs r3,r3,#1
  70:../Dave/Generated/CMSIS_DSP/FilteringFunctions/arm_fir_fast_q31.c ****   q31_t *pStateCurnt;                            /* Points to the current sample of the state */
  63              	 .loc 1 70 0
  64 0016 0746     	 mov r7,r0
  65 0018 3590     	 str r0,[sp,#212]
  66              	 .loc 1 82 0
  67 001a 05EB8300 	 add r0,r5,r3,lsl#2
  83:../Dave/Generated/CMSIS_DSP/FilteringFunctions/arm_fir_fast_q31.c **** 
  84:../Dave/Generated/CMSIS_DSP/FilteringFunctions/arm_fir_fast_q31.c ****   /* Apply loop unrolling and compute 4 output values simultaneously.
  85:../Dave/Generated/CMSIS_DSP/FilteringFunctions/arm_fir_fast_q31.c ****    * The variables acc0 ... acc3 hold output values that are being computed:
  86:../Dave/Generated/CMSIS_DSP/FilteringFunctions/arm_fir_fast_q31.c ****    *
  87:../Dave/Generated/CMSIS_DSP/FilteringFunctions/arm_fir_fast_q31.c ****    *    acc0 =  b[numTaps-1] * x[n-numTaps-1] + b[numTaps-2] * x[n-numTaps-2] + b[numTaps-3] * x[n-
  88:../Dave/Generated/CMSIS_DSP/FilteringFunctions/arm_fir_fast_q31.c ****    *    acc1 =  b[numTaps-1] * x[n-numTaps] +   b[numTaps-2] * x[n-numTaps-1] + b[numTaps-3] * x[n-
  89:../Dave/Generated/CMSIS_DSP/FilteringFunctions/arm_fir_fast_q31.c ****    *    acc2 =  b[numTaps-1] * x[n-numTaps+1] + b[numTaps-2] * x[n-numTaps] +   b[numTaps-3] * x[n-
  90:../Dave/Generated/CMSIS_DSP/FilteringFunctions/arm_fir_fast_q31.c ****    *    acc3 =  b[numTaps-1] * x[n-numTaps+2] + b[numTaps-2] * x[n-numTaps+1] + b[numTaps-3] * x[n-
  91:../Dave/Generated/CMSIS_DSP/FilteringFunctions/arm_fir_fast_q31.c ****    */
  92:../Dave/Generated/CMSIS_DSP/FilteringFunctions/arm_fir_fast_q31.c ****   blkCnt = blockSize >> 2;
  93:../Dave/Generated/CMSIS_DSP/FilteringFunctions/arm_fir_fast_q31.c **** 
  94:../Dave/Generated/CMSIS_DSP/FilteringFunctions/arm_fir_fast_q31.c ****   /* First part of the processing with loop unrolling.  Compute 4 outputs at a time.
  95:../Dave/Generated/CMSIS_DSP/FilteringFunctions/arm_fir_fast_q31.c ****    ** a second loop below computes the remaining 1 to 3 samples. */
  96:../Dave/Generated/CMSIS_DSP/FilteringFunctions/arm_fir_fast_q31.c ****   while (blkCnt > 0u)
  68              	 .loc 1 96 0
  69 001e B308     	 lsrs r3,r6,#2
  68:../Dave/Generated/CMSIS_DSP/FilteringFunctions/arm_fir_fast_q31.c ****   q31_t *pState = S->pState;                     /* State pointer */
  70              	 .loc 1 68 0
  71 0020 8C46     	 mov ip,r1
  72 0022 3A91     	 str r1,[sp,#232]
  73 0024 9646     	 mov lr,r2
  74 0026 3B92     	 str r2,[sp,#236]
  77:../Dave/Generated/CMSIS_DSP/FilteringFunctions/arm_fir_fast_q31.c ****   uint32_t i, tapCnt, blkCnt;                    /* Loop counters */
  75              	 .loc 1 77 0
  76 0028 3D94     	 str r4,[sp,#244]
  69:../Dave/Generated/CMSIS_DSP/FilteringFunctions/arm_fir_fast_q31.c ****   q31_t *pCoeffs = S->pCoeffs;                   /* Coefficient pointer */
  77              	 .loc 1 69 0
  78 002a 3C95     	 str r5,[sp,#240]
  79              	.LVL3:
  82:../Dave/Generated/CMSIS_DSP/FilteringFunctions/arm_fir_fast_q31.c **** 
  80              	 .loc 1 82 0
  81 002c 0246     	 mov r2,r0
  82              	.LVL4:
  83 002e 3990     	 str r0,[sp,#228]
  84              	.LVL5:
  85              	 .loc 1 96 0
  86 0030 1946     	 mov r1,r3
  87              	.LVL6:
  88 0032 3E93     	 str r3,[sp,#248]
  89 0034 00F00C82 	 beq .L14
  90 0038 A308     	 lsrs r3,r4,#2
  91              	.LVL7:
  92 003a 2046     	 mov r0,r4
  93 003c 1E46     	 mov r6,r3
  94              	.LVL8:
  95 003e 3493     	 str r3,[sp,#208]
  96 0040 3C46     	 mov r4,r7
  97              	.LVL9:
  98 0042 1B01     	 lsls r3,r3,#4
  99 0044 1C44     	 add r4,r4,r3
 100 0046 043B     	 subs r3,r3,#4
 101 0048 3893     	 str r3,[sp,#224]
 102 004a A0EB8603 	 sub r3,r0,r6,lsl#2
 103 004e 3693     	 str r3,[sp,#216]
 104 0050 02F11003 	 add r3,r2,#16
 105 0054 2E93     	 str r3,[sp,#184]
 106 0056 6346     	 mov r3,ip
 107 0058 1033     	 adds r3,r3,#16
 108 005a 2F93     	 str r3,[sp,#188]
 109 005c 05F11003 	 add r3,r5,#16
 110 0060 2D93     	 str r3,[sp,#180]
 111 0062 7346     	 mov r3,lr
 112 0064 1033     	 adds r3,r3,#16
 113 0066 3794     	 str r4,[sp,#220]
 114 0068 3193     	 str r3,[sp,#196]
 115 006a 3091     	 str r1,[sp,#192]
 116              	.LVL10:
 117              	.L7:
  97:../Dave/Generated/CMSIS_DSP/FilteringFunctions/arm_fir_fast_q31.c ****   {
  98:../Dave/Generated/CMSIS_DSP/FilteringFunctions/arm_fir_fast_q31.c ****     /* Copy four new input samples into the state buffer */
  99:../Dave/Generated/CMSIS_DSP/FilteringFunctions/arm_fir_fast_q31.c ****     *pStateCurnt++ = *pSrc++;
 118              	 .loc 1 99 0
 119 006c 2F9A     	 ldr r2,[sp,#188]
 120 006e 2E9C     	 ldr r4,[sp,#184]
 121 0070 52F8103C 	 ldr r3,[r2,#-16]
 122 0074 44F8103C 	 str r3,[r4,#-16]
 123              	.LVL11:
 100:../Dave/Generated/CMSIS_DSP/FilteringFunctions/arm_fir_fast_q31.c ****     *pStateCurnt++ = *pSrc++;
 124              	 .loc 1 100 0
 125 0078 52F80C3C 	 ldr r3,[r2,#-12]
 126 007c 44F80C3C 	 str r3,[r4,#-12]
 127              	.LVL12:
 128 0080 1146     	 mov r1,r2
 101:../Dave/Generated/CMSIS_DSP/FilteringFunctions/arm_fir_fast_q31.c ****     *pStateCurnt++ = *pSrc++;
 102:../Dave/Generated/CMSIS_DSP/FilteringFunctions/arm_fir_fast_q31.c ****     *pStateCurnt++ = *pSrc++;
 103:../Dave/Generated/CMSIS_DSP/FilteringFunctions/arm_fir_fast_q31.c **** 
 104:../Dave/Generated/CMSIS_DSP/FilteringFunctions/arm_fir_fast_q31.c ****     /* Set all accumulators to zero */
 105:../Dave/Generated/CMSIS_DSP/FilteringFunctions/arm_fir_fast_q31.c ****     acc0 = 0;
 106:../Dave/Generated/CMSIS_DSP/FilteringFunctions/arm_fir_fast_q31.c ****     acc1 = 0;
 107:../Dave/Generated/CMSIS_DSP/FilteringFunctions/arm_fir_fast_q31.c ****     acc2 = 0;
 108:../Dave/Generated/CMSIS_DSP/FilteringFunctions/arm_fir_fast_q31.c ****     acc3 = 0;
 109:../Dave/Generated/CMSIS_DSP/FilteringFunctions/arm_fir_fast_q31.c **** 
 110:../Dave/Generated/CMSIS_DSP/FilteringFunctions/arm_fir_fast_q31.c ****     /* Initialize state pointer */
 111:../Dave/Generated/CMSIS_DSP/FilteringFunctions/arm_fir_fast_q31.c ****     px = pState;
 112:../Dave/Generated/CMSIS_DSP/FilteringFunctions/arm_fir_fast_q31.c **** 
 113:../Dave/Generated/CMSIS_DSP/FilteringFunctions/arm_fir_fast_q31.c ****     /* Initialize coefficient pointer */
 114:../Dave/Generated/CMSIS_DSP/FilteringFunctions/arm_fir_fast_q31.c ****     pb = pCoeffs;
 115:../Dave/Generated/CMSIS_DSP/FilteringFunctions/arm_fir_fast_q31.c **** 
 116:../Dave/Generated/CMSIS_DSP/FilteringFunctions/arm_fir_fast_q31.c ****     /* Read the first three samples from the state buffer:
 117:../Dave/Generated/CMSIS_DSP/FilteringFunctions/arm_fir_fast_q31.c ****      *  x[n-numTaps], x[n-numTaps-1], x[n-numTaps-2] */
 118:../Dave/Generated/CMSIS_DSP/FilteringFunctions/arm_fir_fast_q31.c ****     x0 = *(px++);
 129              	 .loc 1 118 0
 130 0082 2D9A     	 ldr r2,[sp,#180]
 101:../Dave/Generated/CMSIS_DSP/FilteringFunctions/arm_fir_fast_q31.c ****     *pStateCurnt++ = *pSrc++;
 131              	 .loc 1 101 0
 132 0084 51F8083C 	 ldr r3,[r1,#-8]
 133 0088 44F8083C 	 str r3,[r4,#-8]
 134              	.LVL13:
 102:../Dave/Generated/CMSIS_DSP/FilteringFunctions/arm_fir_fast_q31.c **** 
 135              	 .loc 1 102 0
 136 008c 51F8043C 	 ldr r3,[r1,#-4]
 137 0090 44F8043C 	 str r3,[r4,#-4]
 138              	.LVL14:
 139              	 .loc 1 118 0
 140 0094 52F8103C 	 ldr r3,[r2,#-16]
 119:../Dave/Generated/CMSIS_DSP/FilteringFunctions/arm_fir_fast_q31.c ****     x1 = *(px++);
 141              	 .loc 1 119 0
 142 0098 52F80CEC 	 ldr lr,[r2,#-12]
 120:../Dave/Generated/CMSIS_DSP/FilteringFunctions/arm_fir_fast_q31.c ****     x2 = *(px++);
 143              	 .loc 1 120 0
 144 009c 52F808BC 	 ldr fp,[r2,#-8]
 118:../Dave/Generated/CMSIS_DSP/FilteringFunctions/arm_fir_fast_q31.c ****     x1 = *(px++);
 145              	 .loc 1 118 0
 146 00a0 0093     	 str r3,[sp]
 147              	.LVL15:
 148              	 .loc 1 120 0
 149 00a2 1146     	 mov r1,r2
 150 00a4 A2F1040C 	 sub ip,r2,#4
 151              	.LVL16:
 121:../Dave/Generated/CMSIS_DSP/FilteringFunctions/arm_fir_fast_q31.c **** 
 122:../Dave/Generated/CMSIS_DSP/FilteringFunctions/arm_fir_fast_q31.c ****     /* Loop unrolling.  Process 4 taps at a time. */
 123:../Dave/Generated/CMSIS_DSP/FilteringFunctions/arm_fir_fast_q31.c ****     tapCnt = numTaps >> 2;
 124:../Dave/Generated/CMSIS_DSP/FilteringFunctions/arm_fir_fast_q31.c ****     i = tapCnt;
 125:../Dave/Generated/CMSIS_DSP/FilteringFunctions/arm_fir_fast_q31.c **** 
 126:../Dave/Generated/CMSIS_DSP/FilteringFunctions/arm_fir_fast_q31.c ****     while (i > 0u)
 152              	 .loc 1 126 0
 153 00a8 349A     	 ldr r2,[sp,#208]
 154 00aa 002A     	 cmp r2,#0
 155 00ac 00F0C981 	 beq .L15
 156 00b0 359E     	 ldr r6,[sp,#212]
 157 00b2 2C92     	 str r2,[sp,#176]
 158 00b4 0025     	 movs r5,#0
 159 00b6 2C46     	 mov r4,r5
 160 00b8 2846     	 mov r0,r5
 161 00ba 2B46     	 mov r3,r5
 162              	.LVL17:
 163 00bc 06F1100C 	 add ip,r6,#16
 164              	.LVL18:
 165 00c0 01F10C0A 	 add r10,r1,#12
 166              	.LVL19:
 167              	.L4:
 127:../Dave/Generated/CMSIS_DSP/FilteringFunctions/arm_fir_fast_q31.c ****     {
 128:../Dave/Generated/CMSIS_DSP/FilteringFunctions/arm_fir_fast_q31.c ****       /* Read the b[numTaps] coefficient */
 129:../Dave/Generated/CMSIS_DSP/FilteringFunctions/arm_fir_fast_q31.c ****       c0 = *pb;
 130:../Dave/Generated/CMSIS_DSP/FilteringFunctions/arm_fir_fast_q31.c **** 
 131:../Dave/Generated/CMSIS_DSP/FilteringFunctions/arm_fir_fast_q31.c ****       /* Read x[n-numTaps-3] sample */
 132:../Dave/Generated/CMSIS_DSP/FilteringFunctions/arm_fir_fast_q31.c ****       x3 = *px;
 133:../Dave/Generated/CMSIS_DSP/FilteringFunctions/arm_fir_fast_q31.c **** 
 134:../Dave/Generated/CMSIS_DSP/FilteringFunctions/arm_fir_fast_q31.c ****       /* acc0 +=  b[numTaps] * x[n-numTaps] */
 135:../Dave/Generated/CMSIS_DSP/FilteringFunctions/arm_fir_fast_q31.c ****       multAcc_32x32_keep32_R(acc0, x0, c0);
 168              	 .loc 1 135 0
 169 00c4 4FF00008 	 mov r8,#0
 136:../Dave/Generated/CMSIS_DSP/FilteringFunctions/arm_fir_fast_q31.c **** 
 137:../Dave/Generated/CMSIS_DSP/FilteringFunctions/arm_fir_fast_q31.c ****       /* acc1 +=  b[numTaps] * x[n-numTaps-1] */
 138:../Dave/Generated/CMSIS_DSP/FilteringFunctions/arm_fir_fast_q31.c ****       multAcc_32x32_keep32_R(acc1, x1, c0);
 170              	 .loc 1 138 0
 171 00c8 0390     	 str r0,[sp,#12]
 172 00ca CDF80880 	 str r8,[sp,#8]
 173 00ce DDE90267 	 ldrd r6,[sp,#8]
 129:../Dave/Generated/CMSIS_DSP/FilteringFunctions/arm_fir_fast_q31.c **** 
 174              	 .loc 1 129 0
 175 00d2 5CF8102C 	 ldr r2,[ip,#-16]
 176              	.LVL20:
 135:../Dave/Generated/CMSIS_DSP/FilteringFunctions/arm_fir_fast_q31.c **** 
 177              	 .loc 1 135 0
 178 00d6 0099     	 ldr r1,[sp]
 139:../Dave/Generated/CMSIS_DSP/FilteringFunctions/arm_fir_fast_q31.c **** 
 140:../Dave/Generated/CMSIS_DSP/FilteringFunctions/arm_fir_fast_q31.c ****       /* acc2 +=  b[numTaps] * x[n-numTaps-2] */
 141:../Dave/Generated/CMSIS_DSP/FilteringFunctions/arm_fir_fast_q31.c ****       multAcc_32x32_keep32_R(acc2, x2, c0);
 179              	 .loc 1 141 0
 180 00d8 0594     	 str r4,[sp,#20]
 135:../Dave/Generated/CMSIS_DSP/FilteringFunctions/arm_fir_fast_q31.c **** 
 181              	 .loc 1 135 0
 182 00da 9946     	 mov r9,r3
 142:../Dave/Generated/CMSIS_DSP/FilteringFunctions/arm_fir_fast_q31.c **** 
 143:../Dave/Generated/CMSIS_DSP/FilteringFunctions/arm_fir_fast_q31.c ****       /* acc3 +=  b[numTaps] * x[n-numTaps-3] */
 144:../Dave/Generated/CMSIS_DSP/FilteringFunctions/arm_fir_fast_q31.c ****       multAcc_32x32_keep32_R(acc3, x3, c0);
 183              	 .loc 1 144 0
 184 00dc 0795     	 str r5,[sp,#28]
 135:../Dave/Generated/CMSIS_DSP/FilteringFunctions/arm_fir_fast_q31.c **** 
 185              	 .loc 1 135 0
 186 00de 4446     	 mov r4,r8
 187              	.LVL21:
 188 00e0 4D46     	 mov r5,r9
 189              	.LVL22:
 190 00e2 C2FB0145 	 smlal r4,r5,r2,r1
 138:../Dave/Generated/CMSIS_DSP/FilteringFunctions/arm_fir_fast_q31.c **** 
 191              	 .loc 1 138 0
 192 00e6 CEFB0267 	 smlal r6,r7,lr,r2
 193 00ea 16F10046 	 adds r6,r6,#-2147483648
 141:../Dave/Generated/CMSIS_DSP/FilteringFunctions/arm_fir_fast_q31.c **** 
 194              	 .loc 1 141 0
 195 00ee CDF81080 	 str r8,[sp,#16]
 135:../Dave/Generated/CMSIS_DSP/FilteringFunctions/arm_fir_fast_q31.c **** 
 196              	 .loc 1 135 0
 197 00f2 2046     	 mov r0,r4
 198              	.LVL23:
 138:../Dave/Generated/CMSIS_DSP/FilteringFunctions/arm_fir_fast_q31.c **** 
 199              	 .loc 1 138 0
 200 00f4 47F10007 	 adc r7,r7,#0
 201              	 .loc 1 144 0
 202 00f8 CDF81880 	 str r8,[sp,#24]
 135:../Dave/Generated/CMSIS_DSP/FilteringFunctions/arm_fir_fast_q31.c **** 
 203              	 .loc 1 135 0
 204 00fc 10F10044 	 adds r4,r0,#-2147483648
 141:../Dave/Generated/CMSIS_DSP/FilteringFunctions/arm_fir_fast_q31.c **** 
 205              	 .loc 1 141 0
 206 0100 DDE90401 	 ldrd r0,[sp,#16]
 135:../Dave/Generated/CMSIS_DSP/FilteringFunctions/arm_fir_fast_q31.c **** 
 207              	 .loc 1 135 0
 208 0104 45F10005 	 adc r5,r5,#0
 209              	.LVL24:
 145:../Dave/Generated/CMSIS_DSP/FilteringFunctions/arm_fir_fast_q31.c **** 
 146:../Dave/Generated/CMSIS_DSP/FilteringFunctions/arm_fir_fast_q31.c ****       /* Read the b[numTaps-1] coefficient */
 147:../Dave/Generated/CMSIS_DSP/FilteringFunctions/arm_fir_fast_q31.c ****       c0 = *(pb + 1u);
 148:../Dave/Generated/CMSIS_DSP/FilteringFunctions/arm_fir_fast_q31.c **** 
 149:../Dave/Generated/CMSIS_DSP/FilteringFunctions/arm_fir_fast_q31.c ****       /* Read x[n-numTaps-4] sample */
 150:../Dave/Generated/CMSIS_DSP/FilteringFunctions/arm_fir_fast_q31.c ****       x0 = *(px + 1u);
 151:../Dave/Generated/CMSIS_DSP/FilteringFunctions/arm_fir_fast_q31.c **** 
 152:../Dave/Generated/CMSIS_DSP/FilteringFunctions/arm_fir_fast_q31.c ****       /* Perform the multiply-accumulates */
 153:../Dave/Generated/CMSIS_DSP/FilteringFunctions/arm_fir_fast_q31.c ****       multAcc_32x32_keep32_R(acc0, x1, c0);
 154:../Dave/Generated/CMSIS_DSP/FilteringFunctions/arm_fir_fast_q31.c ****       multAcc_32x32_keep32_R(acc1, x2, c0);
 210              	 .loc 1 154 0
 211 0108 0B97     	 str r7,[sp,#44]
 144:../Dave/Generated/CMSIS_DSP/FilteringFunctions/arm_fir_fast_q31.c **** 
 212              	 .loc 1 144 0
 213 010a DDE90667 	 ldrd r6,[sp,#24]
 153:../Dave/Generated/CMSIS_DSP/FilteringFunctions/arm_fir_fast_q31.c ****       multAcc_32x32_keep32_R(acc1, x2, c0);
 214              	 .loc 1 153 0
 215 010e 0995     	 str r5,[sp,#36]
 144:../Dave/Generated/CMSIS_DSP/FilteringFunctions/arm_fir_fast_q31.c **** 
 216              	 .loc 1 144 0
 217 0110 5AF8105C 	 ldr r5,[r10,#-16]
 218              	.LVL25:
 219              	 .loc 1 154 0
 220 0114 CDF82880 	 str r8,[sp,#40]
 141:../Dave/Generated/CMSIS_DSP/FilteringFunctions/arm_fir_fast_q31.c **** 
 221              	 .loc 1 141 0
 222 0118 CBFB0201 	 smlal r0,r1,fp,r2
 144:../Dave/Generated/CMSIS_DSP/FilteringFunctions/arm_fir_fast_q31.c **** 
 223              	 .loc 1 144 0
 224 011c C5FB0267 	 smlal r6,r7,r5,r2
 141:../Dave/Generated/CMSIS_DSP/FilteringFunctions/arm_fir_fast_q31.c **** 
 225              	 .loc 1 141 0
 226 0120 10F10040 	 adds r0,r0,#-2147483648
 227 0124 41F10001 	 adc r1,r1,#0
 228              	.LVL26:
 144:../Dave/Generated/CMSIS_DSP/FilteringFunctions/arm_fir_fast_q31.c **** 
 229              	 .loc 1 144 0
 230 0128 16F10044 	 adds r4,r6,#-2147483648
 231 012c 47F10005 	 adc r5,r7,#0
 232              	.LVL27:
 155:../Dave/Generated/CMSIS_DSP/FilteringFunctions/arm_fir_fast_q31.c ****       multAcc_32x32_keep32_R(acc2, x3, c0);
 233              	 .loc 1 155 0
 234 0130 0D91     	 str r1,[sp,#52]
 235 0132 CDF83080 	 str r8,[sp,#48]
 156:../Dave/Generated/CMSIS_DSP/FilteringFunctions/arm_fir_fast_q31.c ****       multAcc_32x32_keep32_R(acc3, x0, c0);
 236              	 .loc 1 156 0
 237 0136 0F95     	 str r5,[sp,#60]
 154:../Dave/Generated/CMSIS_DSP/FilteringFunctions/arm_fir_fast_q31.c ****       multAcc_32x32_keep32_R(acc2, x3, c0);
 238              	 .loc 1 154 0
 239 0138 DDE90A67 	 ldrd r6,[sp,#40]
 155:../Dave/Generated/CMSIS_DSP/FilteringFunctions/arm_fir_fast_q31.c ****       multAcc_32x32_keep32_R(acc2, x3, c0);
 240              	 .loc 1 155 0
 241 013c DDE90C45 	 ldrd r4,[sp,#48]
 147:../Dave/Generated/CMSIS_DSP/FilteringFunctions/arm_fir_fast_q31.c **** 
 242              	 .loc 1 147 0
 243 0140 5CF80C3C 	 ldr r3,[ip,#-12]
 244              	.LVL28:
 155:../Dave/Generated/CMSIS_DSP/FilteringFunctions/arm_fir_fast_q31.c ****       multAcc_32x32_keep32_R(acc3, x0, c0);
 245              	 .loc 1 155 0
 246 0144 5AF8101C 	 ldr r1,[r10,#-16]
 247              	.LVL29:
 153:../Dave/Generated/CMSIS_DSP/FilteringFunctions/arm_fir_fast_q31.c ****       multAcc_32x32_keep32_R(acc1, x2, c0);
 248              	 .loc 1 153 0
 249 0148 CDF82080 	 str r8,[sp,#32]
 154:../Dave/Generated/CMSIS_DSP/FilteringFunctions/arm_fir_fast_q31.c ****       multAcc_32x32_keep32_R(acc2, x3, c0);
 250              	 .loc 1 154 0
 251 014c C3FB0B67 	 smlal r6,r7,r3,fp
 155:../Dave/Generated/CMSIS_DSP/FilteringFunctions/arm_fir_fast_q31.c ****       multAcc_32x32_keep32_R(acc3, x0, c0);
 252              	 .loc 1 155 0
 253 0150 C3FB0145 	 smlal r4,r5,r3,r1
 153:../Dave/Generated/CMSIS_DSP/FilteringFunctions/arm_fir_fast_q31.c ****       multAcc_32x32_keep32_R(acc1, x2, c0);
 254              	 .loc 1 153 0
 255 0154 DDE90801 	 ldrd r0,[sp,#32]
 154:../Dave/Generated/CMSIS_DSP/FilteringFunctions/arm_fir_fast_q31.c ****       multAcc_32x32_keep32_R(acc2, x3, c0);
 256              	 .loc 1 154 0
 257 0158 16F10046 	 adds r6,r6,#-2147483648
 258 015c 47F10007 	 adc r7,r7,#0
 259              	.LVL30:
 155:../Dave/Generated/CMSIS_DSP/FilteringFunctions/arm_fir_fast_q31.c ****       multAcc_32x32_keep32_R(acc3, x0, c0);
 260              	 .loc 1 155 0
 261 0160 14F10044 	 adds r4,r4,#-2147483648
 153:../Dave/Generated/CMSIS_DSP/FilteringFunctions/arm_fir_fast_q31.c ****       multAcc_32x32_keep32_R(acc1, x2, c0);
 262              	 .loc 1 153 0
 263 0164 C3FB0E01 	 smlal r0,r1,r3,lr
 155:../Dave/Generated/CMSIS_DSP/FilteringFunctions/arm_fir_fast_q31.c ****       multAcc_32x32_keep32_R(acc3, x0, c0);
 264              	 .loc 1 155 0
 265 0168 45F10005 	 adc r5,r5,#0
 266              	.LVL31:
 267 016c CDE90045 	 strd r4,[sp]
 268              	.LVL32:
 269              	 .loc 1 156 0
 270 0170 CDF83880 	 str r8,[sp,#56]
 153:../Dave/Generated/CMSIS_DSP/FilteringFunctions/arm_fir_fast_q31.c ****       multAcc_32x32_keep32_R(acc1, x2, c0);
 271              	 .loc 1 153 0
 272 0174 10F10044 	 adds r4,r0,#-2147483648
 273 0178 41F10005 	 adc r5,r1,#0
 274              	 .loc 1 156 0
 275 017c DDE90E01 	 ldrd r0,[sp,#56]
 150:../Dave/Generated/CMSIS_DSP/FilteringFunctions/arm_fir_fast_q31.c **** 
 276              	 .loc 1 150 0
 277 0180 5AF80C2C 	 ldr r2,[r10,#-12]
 278              	.LVL33:
 157:../Dave/Generated/CMSIS_DSP/FilteringFunctions/arm_fir_fast_q31.c **** 
 158:../Dave/Generated/CMSIS_DSP/FilteringFunctions/arm_fir_fast_q31.c ****       /* Read the b[numTaps-2] coefficient */
 159:../Dave/Generated/CMSIS_DSP/FilteringFunctions/arm_fir_fast_q31.c ****       c0 = *(pb + 2u);
 160:../Dave/Generated/CMSIS_DSP/FilteringFunctions/arm_fir_fast_q31.c **** 
 161:../Dave/Generated/CMSIS_DSP/FilteringFunctions/arm_fir_fast_q31.c ****       /* Read x[n-numTaps-5] sample */
 162:../Dave/Generated/CMSIS_DSP/FilteringFunctions/arm_fir_fast_q31.c ****       x1 = *(px + 2u);
 163:../Dave/Generated/CMSIS_DSP/FilteringFunctions/arm_fir_fast_q31.c **** 
 164:../Dave/Generated/CMSIS_DSP/FilteringFunctions/arm_fir_fast_q31.c ****       /* Perform the multiply-accumulates */
 165:../Dave/Generated/CMSIS_DSP/FilteringFunctions/arm_fir_fast_q31.c ****       multAcc_32x32_keep32_R(acc0, x2, c0);
 166:../Dave/Generated/CMSIS_DSP/FilteringFunctions/arm_fir_fast_q31.c ****       multAcc_32x32_keep32_R(acc1, x3, c0);
 279              	 .loc 1 166 0
 280 0184 1397     	 str r7,[sp,#76]
 156:../Dave/Generated/CMSIS_DSP/FilteringFunctions/arm_fir_fast_q31.c **** 
 281              	 .loc 1 156 0
 282 0186 C2FB0301 	 smlal r0,r1,r2,r3
 283 018a 1746     	 mov r7,r2
 284              	.LVL34:
 285 018c 10F10042 	 adds r2,r0,#-2147483648
 286              	.LVL35:
 287 0190 41F10003 	 adc r3,r1,#0
 288              	.LVL36:
 167:../Dave/Generated/CMSIS_DSP/FilteringFunctions/arm_fir_fast_q31.c ****       multAcc_32x32_keep32_R(acc2, x0, c0);
 289              	 .loc 1 167 0
 290 0194 0199     	 ldr r1,[sp,#4]
 162:../Dave/Generated/CMSIS_DSP/FilteringFunctions/arm_fir_fast_q31.c **** 
 291              	 .loc 1 162 0
 292 0196 5AF808EC 	 ldr lr,[r10,#-8]
 293              	.LVL37:
 294              	 .loc 1 167 0
 295 019a 1591     	 str r1,[sp,#84]
 165:../Dave/Generated/CMSIS_DSP/FilteringFunctions/arm_fir_fast_q31.c ****       multAcc_32x32_keep32_R(acc1, x3, c0);
 296              	 .loc 1 165 0
 297 019c 1195     	 str r5,[sp,#68]
 168:../Dave/Generated/CMSIS_DSP/FilteringFunctions/arm_fir_fast_q31.c ****       multAcc_32x32_keep32_R(acc3, x1, c0);
 298              	 .loc 1 168 0
 299 019e 1793     	 str r3,[sp,#92]
 167:../Dave/Generated/CMSIS_DSP/FilteringFunctions/arm_fir_fast_q31.c ****       multAcc_32x32_keep32_R(acc3, x1, c0);
 300              	 .loc 1 167 0
 301 01a0 CDF85080 	 str r8,[sp,#80]
 166:../Dave/Generated/CMSIS_DSP/FilteringFunctions/arm_fir_fast_q31.c ****       multAcc_32x32_keep32_R(acc2, x0, c0);
 302              	 .loc 1 166 0
 303 01a4 CDF84880 	 str r8,[sp,#72]
 167:../Dave/Generated/CMSIS_DSP/FilteringFunctions/arm_fir_fast_q31.c ****       multAcc_32x32_keep32_R(acc3, x1, c0);
 304              	 .loc 1 167 0
 305 01a8 DDE91445 	 ldrd r4,[sp,#80]
 166:../Dave/Generated/CMSIS_DSP/FilteringFunctions/arm_fir_fast_q31.c ****       multAcc_32x32_keep32_R(acc2, x0, c0);
 306              	 .loc 1 166 0
 307 01ac 5CF8082C 	 ldr r2,[ip,#-8]
 308 01b0 5AF8103C 	 ldr r3,[r10,#-16]
 309              	.LVL38:
 165:../Dave/Generated/CMSIS_DSP/FilteringFunctions/arm_fir_fast_q31.c ****       multAcc_32x32_keep32_R(acc1, x3, c0);
 310              	 .loc 1 165 0
 311 01b4 CDF84080 	 str r8,[sp,#64]
 166:../Dave/Generated/CMSIS_DSP/FilteringFunctions/arm_fir_fast_q31.c ****       multAcc_32x32_keep32_R(acc2, x0, c0);
 312              	 .loc 1 166 0
 313 01b8 DDE91201 	 ldrd r0,[sp,#72]
 167:../Dave/Generated/CMSIS_DSP/FilteringFunctions/arm_fir_fast_q31.c ****       multAcc_32x32_keep32_R(acc3, x1, c0);
 314              	 .loc 1 167 0
 315 01bc C2FB0745 	 smlal r4,r5,r2,r7
 316              	 .loc 1 168 0
 317 01c0 CDF85880 	 str r8,[sp,#88]
 166:../Dave/Generated/CMSIS_DSP/FilteringFunctions/arm_fir_fast_q31.c ****       multAcc_32x32_keep32_R(acc2, x0, c0);
 318              	 .loc 1 166 0
 319 01c4 C2FB0301 	 smlal r0,r1,r2,r3
 167:../Dave/Generated/CMSIS_DSP/FilteringFunctions/arm_fir_fast_q31.c ****       multAcc_32x32_keep32_R(acc3, x1, c0);
 320              	 .loc 1 167 0
 321 01c8 0097     	 str r7,[sp]
 322 01ca CDE92A45 	 strd r4,[sp,#168]
 165:../Dave/Generated/CMSIS_DSP/FilteringFunctions/arm_fir_fast_q31.c ****       multAcc_32x32_keep32_R(acc1, x3, c0);
 323              	 .loc 1 165 0
 324 01ce DDE91067 	 ldrd r6,[sp,#64]
 325              	 .loc 1 168 0
 326 01d2 DDE91645 	 ldrd r4,[sp,#88]
 166:../Dave/Generated/CMSIS_DSP/FilteringFunctions/arm_fir_fast_q31.c ****       multAcc_32x32_keep32_R(acc2, x0, c0);
 327              	 .loc 1 166 0
 328 01d6 CDE92801 	 strd r0,[sp,#160]
 329 01da DDE92801 	 ldrd r0,[sp,#160]
 165:../Dave/Generated/CMSIS_DSP/FilteringFunctions/arm_fir_fast_q31.c ****       multAcc_32x32_keep32_R(acc1, x3, c0);
 330              	 .loc 1 165 0
 331 01de C2FB0B67 	 smlal r6,r7,r2,fp
 332              	 .loc 1 168 0
 333 01e2 CEFB0245 	 smlal r4,r5,lr,r2
 167:../Dave/Generated/CMSIS_DSP/FilteringFunctions/arm_fir_fast_q31.c ****       multAcc_32x32_keep32_R(acc3, x1, c0);
 334              	 .loc 1 167 0
 335 01e6 DDE92A23 	 ldrd r2,[sp,#168]
 166:../Dave/Generated/CMSIS_DSP/FilteringFunctions/arm_fir_fast_q31.c ****       multAcc_32x32_keep32_R(acc2, x0, c0);
 336              	 .loc 1 166 0
 337 01ea 10F10040 	 adds r0,r0,#-2147483648
 165:../Dave/Generated/CMSIS_DSP/FilteringFunctions/arm_fir_fast_q31.c ****       multAcc_32x32_keep32_R(acc1, x3, c0);
 338              	 .loc 1 165 0
 339 01ee CDE92667 	 strd r6,[sp,#152]
 166:../Dave/Generated/CMSIS_DSP/FilteringFunctions/arm_fir_fast_q31.c ****       multAcc_32x32_keep32_R(acc2, x0, c0);
 340              	 .loc 1 166 0
 341 01f2 41F10001 	 adc r1,r1,#0
 342              	 .loc 1 168 0
 343 01f6 2646     	 mov r6,r4
 167:../Dave/Generated/CMSIS_DSP/FilteringFunctions/arm_fir_fast_q31.c ****       multAcc_32x32_keep32_R(acc3, x1, c0);
 344              	 .loc 1 167 0
 345 01f8 12F10042 	 adds r2,r2,#-2147483648
 346 01fc 43F10003 	 adc r3,r3,#0
 347              	 .loc 1 168 0
 348 0200 16F10044 	 adds r4,r6,#-2147483648
 165:../Dave/Generated/CMSIS_DSP/FilteringFunctions/arm_fir_fast_q31.c ****       multAcc_32x32_keep32_R(acc1, x3, c0);
 349              	 .loc 1 165 0
 350 0204 DDE92667 	 ldrd r6,[sp,#152]
 351              	 .loc 1 168 0
 352 0208 45F10005 	 adc r5,r5,#0
 353              	.LVL39:
 169:../Dave/Generated/CMSIS_DSP/FilteringFunctions/arm_fir_fast_q31.c **** 
 170:../Dave/Generated/CMSIS_DSP/FilteringFunctions/arm_fir_fast_q31.c ****       /* Read the b[numTaps-3] coefficients */
 171:../Dave/Generated/CMSIS_DSP/FilteringFunctions/arm_fir_fast_q31.c ****       c0 = *(pb + 3u);
 172:../Dave/Generated/CMSIS_DSP/FilteringFunctions/arm_fir_fast_q31.c **** 
 173:../Dave/Generated/CMSIS_DSP/FilteringFunctions/arm_fir_fast_q31.c ****       /* Read x[n-numTaps-6] sample */
 174:../Dave/Generated/CMSIS_DSP/FilteringFunctions/arm_fir_fast_q31.c ****       x2 = *(px + 3u);
 175:../Dave/Generated/CMSIS_DSP/FilteringFunctions/arm_fir_fast_q31.c **** 
 176:../Dave/Generated/CMSIS_DSP/FilteringFunctions/arm_fir_fast_q31.c ****       /* Perform the multiply-accumulates */
 177:../Dave/Generated/CMSIS_DSP/FilteringFunctions/arm_fir_fast_q31.c ****       multAcc_32x32_keep32_R(acc0, x3, c0);
 178:../Dave/Generated/CMSIS_DSP/FilteringFunctions/arm_fir_fast_q31.c ****       multAcc_32x32_keep32_R(acc1, x0, c0);
 179:../Dave/Generated/CMSIS_DSP/FilteringFunctions/arm_fir_fast_q31.c ****       multAcc_32x32_keep32_R(acc2, x1, c0);
 354              	 .loc 1 179 0
 355 020c 1D93     	 str r3,[sp,#116]
 178:../Dave/Generated/CMSIS_DSP/FilteringFunctions/arm_fir_fast_q31.c ****       multAcc_32x32_keep32_R(acc2, x1, c0);
 356              	 .loc 1 178 0
 357 020e 1B91     	 str r1,[sp,#108]
 358 0210 CDF86880 	 str r8,[sp,#104]
 359              	 .loc 1 179 0
 360 0214 CDF87080 	 str r8,[sp,#112]
 180:../Dave/Generated/CMSIS_DSP/FilteringFunctions/arm_fir_fast_q31.c ****       multAcc_32x32_keep32_R(acc3, x2, c0);
 361              	 .loc 1 180 0
 362 0218 1F95     	 str r5,[sp,#124]
 178:../Dave/Generated/CMSIS_DSP/FilteringFunctions/arm_fir_fast_q31.c ****       multAcc_32x32_keep32_R(acc2, x1, c0);
 363              	 .loc 1 178 0
 364 021a DDE91A01 	 ldrd r0,[sp,#104]
 179:../Dave/Generated/CMSIS_DSP/FilteringFunctions/arm_fir_fast_q31.c ****       multAcc_32x32_keep32_R(acc3, x2, c0);
 365              	 .loc 1 179 0
 366 021e DDE91C45 	 ldrd r4,[sp,#112]
 178:../Dave/Generated/CMSIS_DSP/FilteringFunctions/arm_fir_fast_q31.c ****       multAcc_32x32_keep32_R(acc2, x1, c0);
 367              	 .loc 1 178 0
 368 0222 5CF8042C 	 ldr r2,[ip,#-4]
 369 0226 009B     	 ldr r3,[sp]
 370              	 .loc 1 180 0
 371 0228 CDF87880 	 str r8,[sp,#120]
 165:../Dave/Generated/CMSIS_DSP/FilteringFunctions/arm_fir_fast_q31.c ****       multAcc_32x32_keep32_R(acc1, x3, c0);
 372              	 .loc 1 165 0
 373 022c 16F10046 	 adds r6,r6,#-2147483648
 374 0230 47F10007 	 adc r7,r7,#0
 375              	.LVL40:
 178:../Dave/Generated/CMSIS_DSP/FilteringFunctions/arm_fir_fast_q31.c ****       multAcc_32x32_keep32_R(acc2, x1, c0);
 376              	 .loc 1 178 0
 377 0234 C2FB0301 	 smlal r0,r1,r2,r3
 179:../Dave/Generated/CMSIS_DSP/FilteringFunctions/arm_fir_fast_q31.c ****       multAcc_32x32_keep32_R(acc3, x2, c0);
 378              	 .loc 1 179 0
 379 0238 C2FB0E45 	 smlal r4,r5,r2,lr
 177:../Dave/Generated/CMSIS_DSP/FilteringFunctions/arm_fir_fast_q31.c ****       multAcc_32x32_keep32_R(acc1, x0, c0);
 380              	 .loc 1 177 0
 381 023c 1997     	 str r7,[sp,#100]
 382 023e CDF86080 	 str r8,[sp,#96]
 174:../Dave/Generated/CMSIS_DSP/FilteringFunctions/arm_fir_fast_q31.c **** 
 383              	 .loc 1 174 0
 384 0242 5AF804BC 	 ldr fp,[r10,#-4]
 385              	.LVL41:
 178:../Dave/Generated/CMSIS_DSP/FilteringFunctions/arm_fir_fast_q31.c ****       multAcc_32x32_keep32_R(acc2, x1, c0);
 386              	 .loc 1 178 0
 387 0246 CDE92601 	 strd r0,[sp,#152]
 388              	 .loc 1 180 0
 389 024a DDE91E67 	 ldrd r6,[sp,#120]
 179:../Dave/Generated/CMSIS_DSP/FilteringFunctions/arm_fir_fast_q31.c ****       multAcc_32x32_keep32_R(acc3, x2, c0);
 390              	 .loc 1 179 0
 391 024e CDE92845 	 strd r4,[sp,#160]
 177:../Dave/Generated/CMSIS_DSP/FilteringFunctions/arm_fir_fast_q31.c ****       multAcc_32x32_keep32_R(acc1, x0, c0);
 392              	 .loc 1 177 0
 393 0252 DDE91845 	 ldrd r4,[sp,#96]
 394 0256 5AF8103C 	 ldr r3,[r10,#-16]
 395              	.LVL42:
 178:../Dave/Generated/CMSIS_DSP/FilteringFunctions/arm_fir_fast_q31.c ****       multAcc_32x32_keep32_R(acc2, x1, c0);
 396              	 .loc 1 178 0
 397 025a DDE92601 	 ldrd r0,[sp,#152]
 177:../Dave/Generated/CMSIS_DSP/FilteringFunctions/arm_fir_fast_q31.c ****       multAcc_32x32_keep32_R(acc1, x0, c0);
 398              	 .loc 1 177 0
 399 025e C2FB0345 	 smlal r4,r5,r2,r3
 400              	 .loc 1 180 0
 401 0262 CBFB0267 	 smlal r6,r7,fp,r2
 177:../Dave/Generated/CMSIS_DSP/FilteringFunctions/arm_fir_fast_q31.c ****       multAcc_32x32_keep32_R(acc1, x0, c0);
 402              	 .loc 1 177 0
 403 0266 2B46     	 mov r3,r5
 404 0268 2246     	 mov r2,r4
 405              	.LVL43:
 179:../Dave/Generated/CMSIS_DSP/FilteringFunctions/arm_fir_fast_q31.c ****       multAcc_32x32_keep32_R(acc3, x2, c0);
 406              	 .loc 1 179 0
 407 026a DDE92845 	 ldrd r4,[sp,#160]
 178:../Dave/Generated/CMSIS_DSP/FilteringFunctions/arm_fir_fast_q31.c ****       multAcc_32x32_keep32_R(acc2, x1, c0);
 408              	 .loc 1 178 0
 409 026e 10F10040 	 adds r0,r0,#-2147483648
 410 0272 41F10001 	 adc r1,r1,#0
 179:../Dave/Generated/CMSIS_DSP/FilteringFunctions/arm_fir_fast_q31.c ****       multAcc_32x32_keep32_R(acc3, x2, c0);
 411              	 .loc 1 179 0
 412 0276 14F10044 	 adds r4,r4,#-2147483648
 413 027a 45F10005 	 adc r5,r5,#0
 414              	 .loc 1 180 0
 415 027e 16F10046 	 adds r6,r6,#-2147483648
 416 0282 47F10007 	 adc r7,r7,#0
 417              	.LVL44:
 177:../Dave/Generated/CMSIS_DSP/FilteringFunctions/arm_fir_fast_q31.c ****       multAcc_32x32_keep32_R(acc1, x0, c0);
 418              	 .loc 1 177 0
 419 0286 12F10042 	 adds r2,r2,#-2147483648
 126:../Dave/Generated/CMSIS_DSP/FilteringFunctions/arm_fir_fast_q31.c ****     {
 420              	 .loc 1 126 0
 421 028a 2C9A     	 ldr r2,[sp,#176]
 177:../Dave/Generated/CMSIS_DSP/FilteringFunctions/arm_fir_fast_q31.c ****       multAcc_32x32_keep32_R(acc1, x0, c0);
 422              	 .loc 1 177 0
 423 028c 43F10003 	 adc r3,r3,#0
 126:../Dave/Generated/CMSIS_DSP/FilteringFunctions/arm_fir_fast_q31.c ****     {
 424              	 .loc 1 126 0
 425 0290 013A     	 subs r2,r2,#1
 179:../Dave/Generated/CMSIS_DSP/FilteringFunctions/arm_fir_fast_q31.c ****       multAcc_32x32_keep32_R(acc3, x2, c0);
 426              	 .loc 1 179 0
 427 0292 2C46     	 mov r4,r5
 428 0294 0CF1100C 	 add ip,ip,#16
 429              	.LVL45:
 178:../Dave/Generated/CMSIS_DSP/FilteringFunctions/arm_fir_fast_q31.c ****       multAcc_32x32_keep32_R(acc2, x1, c0);
 430              	 .loc 1 178 0
 431 0298 0846     	 mov r0,r1
 432 029a 0AF1100A 	 add r10,r10,#16
 433              	.LVL46:
 434              	 .loc 1 180 0
 435 029e 3D46     	 mov r5,r7
 436              	.LVL47:
 126:../Dave/Generated/CMSIS_DSP/FilteringFunctions/arm_fir_fast_q31.c ****     {
 437              	 .loc 1 126 0
 438 02a0 2C92     	 str r2,[sp,#176]
 439 02a2 7FF40FAF 	 bne .L4
 440 02a6 389A     	 ldr r2,[sp,#224]
 441              	.LVL48:
 442 02a8 2D99     	 ldr r1,[sp,#180]
 181:../Dave/Generated/CMSIS_DSP/FilteringFunctions/arm_fir_fast_q31.c **** 
 182:../Dave/Generated/CMSIS_DSP/FilteringFunctions/arm_fir_fast_q31.c ****       /* update coefficient pointer */
 183:../Dave/Generated/CMSIS_DSP/FilteringFunctions/arm_fir_fast_q31.c ****       pb += 4u;
 443              	 .loc 1 183 0
 444 02aa DDF8DCA0 	 ldr r10,[sp,#220]
 445              	.LVL49:
 446 02ae 02EB010C 	 add ip,r2,r1
 447              	.LVL50:
 448              	.L3:
 184:../Dave/Generated/CMSIS_DSP/FilteringFunctions/arm_fir_fast_q31.c ****       px += 4u;
 185:../Dave/Generated/CMSIS_DSP/FilteringFunctions/arm_fir_fast_q31.c **** 
 186:../Dave/Generated/CMSIS_DSP/FilteringFunctions/arm_fir_fast_q31.c ****       /* Decrement the loop counter */
 187:../Dave/Generated/CMSIS_DSP/FilteringFunctions/arm_fir_fast_q31.c ****       i--;
 188:../Dave/Generated/CMSIS_DSP/FilteringFunctions/arm_fir_fast_q31.c ****     }
 189:../Dave/Generated/CMSIS_DSP/FilteringFunctions/arm_fir_fast_q31.c **** 
 190:../Dave/Generated/CMSIS_DSP/FilteringFunctions/arm_fir_fast_q31.c ****     /* If the filter length is not a multiple of 4, compute the remaining filter taps */
 191:../Dave/Generated/CMSIS_DSP/FilteringFunctions/arm_fir_fast_q31.c **** 
 192:../Dave/Generated/CMSIS_DSP/FilteringFunctions/arm_fir_fast_q31.c ****     i = numTaps - (tapCnt * 4u);
 193:../Dave/Generated/CMSIS_DSP/FilteringFunctions/arm_fir_fast_q31.c ****     while (i > 0u)
 449              	 .loc 1 193 0
 450 02b2 369A     	 ldr r2,[sp,#216]
 451 02b4 002A     	 cmp r2,#0
 452 02b6 4ED0     	 beq .L5
 453 02b8 CDE92689 	 strd r8,[sp,#152]
 454 02bc 2C92     	 str r2,[sp,#176]
 455 02be 6246     	 mov r2,ip
 456 02c0 0099     	 ldr r1,[sp]
 457 02c2 0090     	 str r0,[sp]
 458              	.LVL51:
 459 02c4 D446     	 mov ip,r10
 460 02c6 9246     	 mov r10,r2
 461              	.LVL52:
 462              	.L6:
 194:../Dave/Generated/CMSIS_DSP/FilteringFunctions/arm_fir_fast_q31.c ****     {
 195:../Dave/Generated/CMSIS_DSP/FilteringFunctions/arm_fir_fast_q31.c ****       /* Read coefficients */
 196:../Dave/Generated/CMSIS_DSP/FilteringFunctions/arm_fir_fast_q31.c ****       c0 = *(pb++);
 197:../Dave/Generated/CMSIS_DSP/FilteringFunctions/arm_fir_fast_q31.c **** 
 198:../Dave/Generated/CMSIS_DSP/FilteringFunctions/arm_fir_fast_q31.c ****       /* Fetch 1 state variable */
 199:../Dave/Generated/CMSIS_DSP/FilteringFunctions/arm_fir_fast_q31.c ****       x3 = *(px++);
 200:../Dave/Generated/CMSIS_DSP/FilteringFunctions/arm_fir_fast_q31.c **** 
 201:../Dave/Generated/CMSIS_DSP/FilteringFunctions/arm_fir_fast_q31.c ****       /* Perform the multiply-accumulates */
 202:../Dave/Generated/CMSIS_DSP/FilteringFunctions/arm_fir_fast_q31.c ****       multAcc_32x32_keep32_R(acc0, x0, c0);
 463              	 .loc 1 202 0
 464 02c8 4FF00008 	 mov r8,#0
 203:../Dave/Generated/CMSIS_DSP/FilteringFunctions/arm_fir_fast_q31.c ****       multAcc_32x32_keep32_R(acc1, x1, c0);
 204:../Dave/Generated/CMSIS_DSP/FilteringFunctions/arm_fir_fast_q31.c ****       multAcc_32x32_keep32_R(acc2, x2, c0);
 465              	 .loc 1 204 0
 466 02cc 2394     	 str r4,[sp,#140]
 467 02ce CDF88880 	 str r8,[sp,#136]
 202:../Dave/Generated/CMSIS_DSP/FilteringFunctions/arm_fir_fast_q31.c ****       multAcc_32x32_keep32_R(acc1, x1, c0);
 468              	 .loc 1 202 0
 469 02d2 9946     	 mov r9,r3
 205:../Dave/Generated/CMSIS_DSP/FilteringFunctions/arm_fir_fast_q31.c ****       multAcc_32x32_keep32_R(acc3, x3, c0);
 470              	 .loc 1 205 0
 471 02d4 2595     	 str r5,[sp,#148]
 203:../Dave/Generated/CMSIS_DSP/FilteringFunctions/arm_fir_fast_q31.c ****       multAcc_32x32_keep32_R(acc1, x1, c0);
 472              	 .loc 1 203 0
 473 02d6 009B     	 ldr r3,[sp]
 474              	.LVL53:
 475 02d8 2193     	 str r3,[sp,#132]
 204:../Dave/Generated/CMSIS_DSP/FilteringFunctions/arm_fir_fast_q31.c ****       multAcc_32x32_keep32_R(acc3, x3, c0);
 476              	 .loc 1 204 0
 477 02da DDE92245 	 ldrd r4,[sp,#136]
 478              	.LVL54:
 196:../Dave/Generated/CMSIS_DSP/FilteringFunctions/arm_fir_fast_q31.c **** 
 479              	 .loc 1 196 0
 480 02de 5CF8043B 	 ldr r3,[ip],#4
 481              	.LVL55:
 203:../Dave/Generated/CMSIS_DSP/FilteringFunctions/arm_fir_fast_q31.c ****       multAcc_32x32_keep32_R(acc2, x2, c0);
 482              	 .loc 1 203 0
 483 02e2 CDF88080 	 str r8,[sp,#128]
 204:../Dave/Generated/CMSIS_DSP/FilteringFunctions/arm_fir_fast_q31.c ****       multAcc_32x32_keep32_R(acc3, x3, c0);
 484              	 .loc 1 204 0
 485 02e6 CBFB0345 	 smlal r4,r5,fp,r3
 203:../Dave/Generated/CMSIS_DSP/FilteringFunctions/arm_fir_fast_q31.c ****       multAcc_32x32_keep32_R(acc2, x2, c0);
 486              	 .loc 1 203 0
 487 02ea DDE92067 	 ldrd r6,[sp,#128]
 204:../Dave/Generated/CMSIS_DSP/FilteringFunctions/arm_fir_fast_q31.c ****       multAcc_32x32_keep32_R(acc3, x3, c0);
 488              	 .loc 1 204 0
 489 02ee CDE90045 	 strd r4,[sp]
 490              	.LVL56:
 202:../Dave/Generated/CMSIS_DSP/FilteringFunctions/arm_fir_fast_q31.c ****       multAcc_32x32_keep32_R(acc1, x1, c0);
 491              	 .loc 1 202 0
 492 02f2 4446     	 mov r4,r8
 493 02f4 4D46     	 mov r5,r9
 494              	.LVL57:
 495 02f6 C3FB0145 	 smlal r4,r5,r3,r1
 203:../Dave/Generated/CMSIS_DSP/FilteringFunctions/arm_fir_fast_q31.c ****       multAcc_32x32_keep32_R(acc2, x2, c0);
 496              	 .loc 1 203 0
 497 02fa CEFB0367 	 smlal r6,r7,lr,r3
 202:../Dave/Generated/CMSIS_DSP/FilteringFunctions/arm_fir_fast_q31.c ****       multAcc_32x32_keep32_R(acc1, x1, c0);
 498              	 .loc 1 202 0
 499 02fe 2046     	 mov r0,r4
 500 0300 2946     	 mov r1,r5
 501              	.LVL58:
 204:../Dave/Generated/CMSIS_DSP/FilteringFunctions/arm_fir_fast_q31.c ****       multAcc_32x32_keep32_R(acc3, x3, c0);
 502              	 .loc 1 204 0
 503 0302 DDE90045 	 ldrd r4,[sp]
 203:../Dave/Generated/CMSIS_DSP/FilteringFunctions/arm_fir_fast_q31.c ****       multAcc_32x32_keep32_R(acc2, x2, c0);
 504              	 .loc 1 203 0
 505 0306 16F10046 	 adds r6,r6,#-2147483648
 506 030a 47F10007 	 adc r7,r7,#0
 507              	 .loc 1 205 0
 508 030e CDF89080 	 str r8,[sp,#144]
 204:../Dave/Generated/CMSIS_DSP/FilteringFunctions/arm_fir_fast_q31.c ****       multAcc_32x32_keep32_R(acc3, x3, c0);
 509              	 .loc 1 204 0
 510 0312 14F10044 	 adds r4,r4,#-2147483648
 203:../Dave/Generated/CMSIS_DSP/FilteringFunctions/arm_fir_fast_q31.c ****       multAcc_32x32_keep32_R(acc2, x2, c0);
 511              	 .loc 1 203 0
 512 0316 0097     	 str r7,[sp]
 513              	 .loc 1 205 0
 514 0318 DDE92467 	 ldrd r6,[sp,#144]
 199:../Dave/Generated/CMSIS_DSP/FilteringFunctions/arm_fir_fast_q31.c **** 
 515              	 .loc 1 199 0
 516 031c 5AF8042B 	 ldr r2,[r10],#4
 517              	.LVL59:
 204:../Dave/Generated/CMSIS_DSP/FilteringFunctions/arm_fir_fast_q31.c ****       multAcc_32x32_keep32_R(acc3, x3, c0);
 518              	 .loc 1 204 0
 519 0320 45F10005 	 adc r5,r5,#0
 202:../Dave/Generated/CMSIS_DSP/FilteringFunctions/arm_fir_fast_q31.c ****       multAcc_32x32_keep32_R(acc1, x1, c0);
 520              	 .loc 1 202 0
 521 0324 10F10040 	 adds r0,r0,#-2147483648
 522 0328 41F10001 	 adc r1,r1,#0
 523              	 .loc 1 205 0
 524 032c C2FB0367 	 smlal r6,r7,r2,r3
 202:../Dave/Generated/CMSIS_DSP/FilteringFunctions/arm_fir_fast_q31.c ****       multAcc_32x32_keep32_R(acc1, x1, c0);
 525              	 .loc 1 202 0
 526 0330 0B46     	 mov r3,r1
 527              	.LVL60:
 528 0332 7146     	 mov r1,lr
 529 0334 DE46     	 mov lr,fp
 530              	.LVL61:
 206:../Dave/Generated/CMSIS_DSP/FilteringFunctions/arm_fir_fast_q31.c **** 
 207:../Dave/Generated/CMSIS_DSP/FilteringFunctions/arm_fir_fast_q31.c ****       /* Reuse the present sample states for next sample */
 208:../Dave/Generated/CMSIS_DSP/FilteringFunctions/arm_fir_fast_q31.c ****       x0 = x1;
 209:../Dave/Generated/CMSIS_DSP/FilteringFunctions/arm_fir_fast_q31.c ****       x1 = x2;
 210:../Dave/Generated/CMSIS_DSP/FilteringFunctions/arm_fir_fast_q31.c ****       x2 = x3;
 531              	 .loc 1 210 0
 532 0336 9346     	 mov fp,r2
 533              	.LVL62:
 193:../Dave/Generated/CMSIS_DSP/FilteringFunctions/arm_fir_fast_q31.c ****     {
 534              	 .loc 1 193 0
 535 0338 2C9A     	 ldr r2,[sp,#176]
 536              	.LVL63:
 205:../Dave/Generated/CMSIS_DSP/FilteringFunctions/arm_fir_fast_q31.c **** 
 537              	 .loc 1 205 0
 538 033a 16F10046 	 adds r6,r6,#-2147483648
 539 033e 47F10007 	 adc r7,r7,#0
 193:../Dave/Generated/CMSIS_DSP/FilteringFunctions/arm_fir_fast_q31.c ****     {
 540              	 .loc 1 193 0
 541 0342 013A     	 subs r2,r2,#1
 204:../Dave/Generated/CMSIS_DSP/FilteringFunctions/arm_fir_fast_q31.c ****       multAcc_32x32_keep32_R(acc3, x3, c0);
 542              	 .loc 1 204 0
 543 0344 2C46     	 mov r4,r5
 544              	.LVL64:
 193:../Dave/Generated/CMSIS_DSP/FilteringFunctions/arm_fir_fast_q31.c ****     {
 545              	 .loc 1 193 0
 546 0346 2C92     	 str r2,[sp,#176]
 205:../Dave/Generated/CMSIS_DSP/FilteringFunctions/arm_fir_fast_q31.c **** 
 547              	 .loc 1 205 0
 548 0348 3D46     	 mov r5,r7
 193:../Dave/Generated/CMSIS_DSP/FilteringFunctions/arm_fir_fast_q31.c ****     {
 549              	 .loc 1 193 0
 550 034a BDD1     	 bne .L6
 551 034c CDE93289 	 strd r8,[sp,#200]
 552 0350 DDE92689 	 ldrd r8,[sp,#152]
 553 0354 0098     	 ldr r0,[sp]
 554              	.LVL65:
 555              	.L5:
 211:../Dave/Generated/CMSIS_DSP/FilteringFunctions/arm_fir_fast_q31.c **** 
 212:../Dave/Generated/CMSIS_DSP/FilteringFunctions/arm_fir_fast_q31.c ****       /* Decrement the loop counter */
 213:../Dave/Generated/CMSIS_DSP/FilteringFunctions/arm_fir_fast_q31.c ****       i--;
 214:../Dave/Generated/CMSIS_DSP/FilteringFunctions/arm_fir_fast_q31.c ****     }
 215:../Dave/Generated/CMSIS_DSP/FilteringFunctions/arm_fir_fast_q31.c **** 
 216:../Dave/Generated/CMSIS_DSP/FilteringFunctions/arm_fir_fast_q31.c ****     /* Advance the state pointer by 4 to process the next group of 4 samples */
 217:../Dave/Generated/CMSIS_DSP/FilteringFunctions/arm_fir_fast_q31.c ****     pState = pState + 4;
 218:../Dave/Generated/CMSIS_DSP/FilteringFunctions/arm_fir_fast_q31.c **** 
 219:../Dave/Generated/CMSIS_DSP/FilteringFunctions/arm_fir_fast_q31.c ****     /* The results in the 4 accumulators are in 2.30 format.  Convert to 1.31
 220:../Dave/Generated/CMSIS_DSP/FilteringFunctions/arm_fir_fast_q31.c ****      ** Then store the 4 outputs in the destination buffer. */
 221:../Dave/Generated/CMSIS_DSP/FilteringFunctions/arm_fir_fast_q31.c ****     *pDst++ = (q31_t) (acc0 << 1);
 556              	 .loc 1 221 0
 557 0356 3199     	 ldr r1,[sp,#196]
 558 0358 5B00     	 lsls r3,r3,#1
 559 035a 41F8103C 	 str r3,[r1,#-16]
 560 035e 2E9B     	 ldr r3,[sp,#184]
 561 0360 1033     	 adds r3,r3,#16
 562 0362 2E93     	 str r3,[sp,#184]
 563 0364 2F9B     	 ldr r3,[sp,#188]
 564 0366 1033     	 adds r3,r3,#16
 565 0368 2F93     	 str r3,[sp,#188]
 566              	.LVL66:
 567 036a 2D9B     	 ldr r3,[sp,#180]
 568 036c 1033     	 adds r3,r3,#16
 569 036e 2D93     	 str r3,[sp,#180]
 570 0370 01F11003 	 add r3,r1,#16
 571 0374 3193     	 str r3,[sp,#196]
  96:../Dave/Generated/CMSIS_DSP/FilteringFunctions/arm_fir_fast_q31.c ****   {
 572              	 .loc 1 96 0
 573 0376 309B     	 ldr r3,[sp,#192]
 222:../Dave/Generated/CMSIS_DSP/FilteringFunctions/arm_fir_fast_q31.c ****     *pDst++ = (q31_t) (acc1 << 1);
 574              	 .loc 1 222 0
 575 0378 4000     	 lsls r0,r0,#1
 223:../Dave/Generated/CMSIS_DSP/FilteringFunctions/arm_fir_fast_q31.c ****     *pDst++ = (q31_t) (acc2 << 1);
 576              	 .loc 1 223 0
 577 037a 6400     	 lsls r4,r4,#1
 224:../Dave/Generated/CMSIS_DSP/FilteringFunctions/arm_fir_fast_q31.c ****     *pDst++ = (q31_t) (acc3 << 1);
 578              	 .loc 1 224 0
 579 037c 6D00     	 lsls r5,r5,#1
  96:../Dave/Generated/CMSIS_DSP/FilteringFunctions/arm_fir_fast_q31.c ****   {
 580              	 .loc 1 96 0
 581 037e 013B     	 subs r3,r3,#1
 222:../Dave/Generated/CMSIS_DSP/FilteringFunctions/arm_fir_fast_q31.c ****     *pDst++ = (q31_t) (acc2 << 1);
 582              	 .loc 1 222 0
 583 0380 41F80C0C 	 str r0,[r1,#-12]
 223:../Dave/Generated/CMSIS_DSP/FilteringFunctions/arm_fir_fast_q31.c ****     *pDst++ = (q31_t) (acc3 << 1);
 584              	 .loc 1 223 0
 585 0384 41F8084C 	 str r4,[r1,#-8]
 586              	.LVL67:
 587              	 .loc 1 224 0
 588 0388 41F8045C 	 str r5,[r1,#-4]
  96:../Dave/Generated/CMSIS_DSP/FilteringFunctions/arm_fir_fast_q31.c ****   {
 589              	 .loc 1 96 0
 590 038c 3093     	 str r3,[sp,#192]
 591 038e 7FF46DAE 	 bne .L7
 592 0392 3E9B     	 ldr r3,[sp,#248]
 593              	.LVL68:
 594 0394 1F01     	 lsls r7,r3,#4
 595 0396 399B     	 ldr r3,[sp,#228]
 596 0398 3B44     	 add r3,r3,r7
 597 039a 3993     	 str r3,[sp,#228]
 598 039c 3A9B     	 ldr r3,[sp,#232]
 599 039e 3B44     	 add r3,r3,r7
 600 03a0 3A93     	 str r3,[sp,#232]
 601 03a2 3B9B     	 ldr r3,[sp,#236]
 602 03a4 3B44     	 add r3,r3,r7
 603 03a6 3B93     	 str r3,[sp,#236]
 604 03a8 3C9B     	 ldr r3,[sp,#240]
 605 03aa 1F44     	 add r7,r7,r3
 606              	.LVL69:
 607              	.L2:
 225:../Dave/Generated/CMSIS_DSP/FilteringFunctions/arm_fir_fast_q31.c **** 
 226:../Dave/Generated/CMSIS_DSP/FilteringFunctions/arm_fir_fast_q31.c ****     /* Decrement the samples loop counter */
 227:../Dave/Generated/CMSIS_DSP/FilteringFunctions/arm_fir_fast_q31.c ****     blkCnt--;
 228:../Dave/Generated/CMSIS_DSP/FilteringFunctions/arm_fir_fast_q31.c ****   }
 229:../Dave/Generated/CMSIS_DSP/FilteringFunctions/arm_fir_fast_q31.c **** 
 230:../Dave/Generated/CMSIS_DSP/FilteringFunctions/arm_fir_fast_q31.c **** 
 231:../Dave/Generated/CMSIS_DSP/FilteringFunctions/arm_fir_fast_q31.c ****   /* If the blockSize is not a multiple of 4, compute any remaining output samples here.
 232:../Dave/Generated/CMSIS_DSP/FilteringFunctions/arm_fir_fast_q31.c ****    ** No loop unrolling is used. */
 233:../Dave/Generated/CMSIS_DSP/FilteringFunctions/arm_fir_fast_q31.c ****   blkCnt = blockSize % 4u;
 234:../Dave/Generated/CMSIS_DSP/FilteringFunctions/arm_fir_fast_q31.c **** 
 235:../Dave/Generated/CMSIS_DSP/FilteringFunctions/arm_fir_fast_q31.c ****   while (blkCnt > 0u)
 608              	 .loc 1 235 0
 609 03ac 3F9B     	 ldr r3,[sp,#252]
 610 03ae 13F0030C 	 ands ip,r3,#3
 611              	.LVL70:
 612 03b2 38D0     	 beq .L8
 613 03b4 399B     	 ldr r3,[sp,#228]
 614 03b6 CDF810C0 	 str ip,[sp,#16]
 615 03ba 6646     	 mov r6,ip
 616 03bc 3846     	 mov r0,r7
 617 03be 0697     	 str r7,[sp,#24]
 618 03c0 DDF8D4A0 	 ldr r10,[sp,#212]
 619 03c4 DDF8F4B0 	 ldr fp,[sp,#244]
 620 03c8 3A9F     	 ldr r7,[sp,#232]
 621              	.LVL71:
 622 03ca DDF8ECC0 	 ldr ip,[sp,#236]
 623              	.LVL72:
 624 03ce A3F1040E 	 sub lr,r3,#4
 625              	.LVL73:
 626              	.L10:
 236:../Dave/Generated/CMSIS_DSP/FilteringFunctions/arm_fir_fast_q31.c ****   {
 237:../Dave/Generated/CMSIS_DSP/FilteringFunctions/arm_fir_fast_q31.c ****     /* Copy one sample at a time into state buffer */
 238:../Dave/Generated/CMSIS_DSP/FilteringFunctions/arm_fir_fast_q31.c ****     *pStateCurnt++ = *pSrc++;
 627              	 .loc 1 238 0
 628 03d2 57F8043B 	 ldr r3,[r7],#4
 629              	.LVL74:
 630 03d6 4EF8043F 	 str r3,[lr,#4]!
 631              	.LVL75:
 239:../Dave/Generated/CMSIS_DSP/FilteringFunctions/arm_fir_fast_q31.c **** 
 240:../Dave/Generated/CMSIS_DSP/FilteringFunctions/arm_fir_fast_q31.c ****     /* Set the accumulator to zero */
 241:../Dave/Generated/CMSIS_DSP/FilteringFunctions/arm_fir_fast_q31.c ****     acc0 = 0;
 242:../Dave/Generated/CMSIS_DSP/FilteringFunctions/arm_fir_fast_q31.c **** 
 243:../Dave/Generated/CMSIS_DSP/FilteringFunctions/arm_fir_fast_q31.c ****     /* Initialize state pointer */
 244:../Dave/Generated/CMSIS_DSP/FilteringFunctions/arm_fir_fast_q31.c ****     px = pState;
 245:../Dave/Generated/CMSIS_DSP/FilteringFunctions/arm_fir_fast_q31.c **** 
 246:../Dave/Generated/CMSIS_DSP/FilteringFunctions/arm_fir_fast_q31.c ****     /* Initialize Coefficient pointer */
 247:../Dave/Generated/CMSIS_DSP/FilteringFunctions/arm_fir_fast_q31.c ****     pb = (pCoeffs);
 632              	 .loc 1 247 0
 633 03da 5146     	 mov r1,r10
  77:../Dave/Generated/CMSIS_DSP/FilteringFunctions/arm_fir_fast_q31.c ****   uint32_t i, tapCnt, blkCnt;                    /* Loop counters */
 634              	 .loc 1 77 0
 635 03dc 5B46     	 mov r3,fp
 238:../Dave/Generated/CMSIS_DSP/FilteringFunctions/arm_fir_fast_q31.c **** 
 636              	 .loc 1 238 0
 637 03de 0246     	 mov r2,r0
 241:../Dave/Generated/CMSIS_DSP/FilteringFunctions/arm_fir_fast_q31.c **** 
 638              	 .loc 1 241 0
 639 03e0 0024     	 movs r4,#0
 640 03e2 0096     	 str r6,[sp]
 641 03e4 0297     	 str r7,[sp,#8]
 642              	.LVL76:
 643              	.L9:
 248:../Dave/Generated/CMSIS_DSP/FilteringFunctions/arm_fir_fast_q31.c **** 
 249:../Dave/Generated/CMSIS_DSP/FilteringFunctions/arm_fir_fast_q31.c ****     i = numTaps;
 250:../Dave/Generated/CMSIS_DSP/FilteringFunctions/arm_fir_fast_q31.c **** 
 251:../Dave/Generated/CMSIS_DSP/FilteringFunctions/arm_fir_fast_q31.c ****     /* Perform the multiply-accumulates */
 252:../Dave/Generated/CMSIS_DSP/FilteringFunctions/arm_fir_fast_q31.c ****     do
 253:../Dave/Generated/CMSIS_DSP/FilteringFunctions/arm_fir_fast_q31.c ****     {
 254:../Dave/Generated/CMSIS_DSP/FilteringFunctions/arm_fir_fast_q31.c ****       multAcc_32x32_keep32_R(acc0, (*px++), (*(pb++)));
 644              	 .loc 1 254 0 discriminator 1
 645 03e6 A146     	 mov r9,r4
 646 03e8 52F8045B 	 ldr r5,[r2],#4
 647              	.LVL77:
 648 03ec 51F8044B 	 ldr r4,[r1],#4
 649              	.LVL78:
 650 03f0 4FF00008 	 mov r8,#0
 651 03f4 4646     	 mov r6,r8
 652 03f6 4F46     	 mov r7,r9
 653 03f8 C4FB0567 	 smlal r6,r7,r4,r5
 654 03fc 16F10044 	 adds r4,r6,#-2147483648
 655 0400 47F10005 	 adc r5,r7,#0
 255:../Dave/Generated/CMSIS_DSP/FilteringFunctions/arm_fir_fast_q31.c ****       i--;
 256:../Dave/Generated/CMSIS_DSP/FilteringFunctions/arm_fir_fast_q31.c ****     } while (i > 0u);
 656              	 .loc 1 256 0 discriminator 1
 657 0404 013B     	 subs r3,r3,#1
 658              	.LVL79:
 254:../Dave/Generated/CMSIS_DSP/FilteringFunctions/arm_fir_fast_q31.c ****       i--;
 659              	 .loc 1 254 0 discriminator 1
 660 0406 2C46     	 mov r4,r5
 661              	.LVL80:
 662              	 .loc 1 256 0 discriminator 1
 663 0408 EDD1     	 bne .L9
 664 040a 009E     	 ldr r6,[sp]
 665 040c 029F     	 ldr r7,[sp,#8]
 257:../Dave/Generated/CMSIS_DSP/FilteringFunctions/arm_fir_fast_q31.c **** 
 258:../Dave/Generated/CMSIS_DSP/FilteringFunctions/arm_fir_fast_q31.c ****     /* The result is in 2.30 format.  Convert to 1.31
 259:../Dave/Generated/CMSIS_DSP/FilteringFunctions/arm_fir_fast_q31.c ****      ** Then store the output in the destination buffer. */
 260:../Dave/Generated/CMSIS_DSP/FilteringFunctions/arm_fir_fast_q31.c ****     *pDst++ = (q31_t) (acc0 << 1);
 666              	 .loc 1 260 0
 667 040e 6C00     	 lsls r4,r5,#1
 235:../Dave/Generated/CMSIS_DSP/FilteringFunctions/arm_fir_fast_q31.c ****   {
 668              	 .loc 1 235 0
 669 0410 013E     	 subs r6,r6,#1
 670              	 .loc 1 260 0
 671 0412 4CF8044B 	 str r4,[ip],#4
 672              	.LVL81:
 261:../Dave/Generated/CMSIS_DSP/FilteringFunctions/arm_fir_fast_q31.c **** 
 262:../Dave/Generated/CMSIS_DSP/FilteringFunctions/arm_fir_fast_q31.c ****     /* Advance state pointer by 1 for the next sample */
 263:../Dave/Generated/CMSIS_DSP/FilteringFunctions/arm_fir_fast_q31.c ****     pState = pState + 1;
 673              	 .loc 1 263 0
 674 0416 00F10400 	 add r0,r0,#4
 675              	.LVL82:
 235:../Dave/Generated/CMSIS_DSP/FilteringFunctions/arm_fir_fast_q31.c ****   {
 676              	 .loc 1 235 0
 677 041a DAD1     	 bne .L10
 678 041c DDF810C0 	 ldr ip,[sp,#16]
 679              	.LVL83:
 680 0420 069F     	 ldr r7,[sp,#24]
 681              	.LVL84:
 682 0422 07EB8C07 	 add r7,r7,ip,lsl#2
 683              	.LVL85:
 684              	.L8:
 264:../Dave/Generated/CMSIS_DSP/FilteringFunctions/arm_fir_fast_q31.c **** 
 265:../Dave/Generated/CMSIS_DSP/FilteringFunctions/arm_fir_fast_q31.c ****     /* Decrement the samples loop counter */
 266:../Dave/Generated/CMSIS_DSP/FilteringFunctions/arm_fir_fast_q31.c ****     blkCnt--;
 267:../Dave/Generated/CMSIS_DSP/FilteringFunctions/arm_fir_fast_q31.c ****   }
 268:../Dave/Generated/CMSIS_DSP/FilteringFunctions/arm_fir_fast_q31.c **** 
 269:../Dave/Generated/CMSIS_DSP/FilteringFunctions/arm_fir_fast_q31.c ****   /* Processing is complete.
 270:../Dave/Generated/CMSIS_DSP/FilteringFunctions/arm_fir_fast_q31.c ****    ** Now copy the last numTaps - 1 samples to the start of the state buffer.
 271:../Dave/Generated/CMSIS_DSP/FilteringFunctions/arm_fir_fast_q31.c ****    ** This prepares the state buffer for the next function call. */
 272:../Dave/Generated/CMSIS_DSP/FilteringFunctions/arm_fir_fast_q31.c **** 
 273:../Dave/Generated/CMSIS_DSP/FilteringFunctions/arm_fir_fast_q31.c ****   /* Points to the start of the state buffer */
 274:../Dave/Generated/CMSIS_DSP/FilteringFunctions/arm_fir_fast_q31.c ****   pStateCurnt = S->pState;
 275:../Dave/Generated/CMSIS_DSP/FilteringFunctions/arm_fir_fast_q31.c **** 
 276:../Dave/Generated/CMSIS_DSP/FilteringFunctions/arm_fir_fast_q31.c ****   /* Calculate remaining number of copies */
 277:../Dave/Generated/CMSIS_DSP/FilteringFunctions/arm_fir_fast_q31.c ****   tapCnt = (numTaps - 1u);
 278:../Dave/Generated/CMSIS_DSP/FilteringFunctions/arm_fir_fast_q31.c **** 
 279:../Dave/Generated/CMSIS_DSP/FilteringFunctions/arm_fir_fast_q31.c ****   /* Copy the remaining q31_t data */
 280:../Dave/Generated/CMSIS_DSP/FilteringFunctions/arm_fir_fast_q31.c ****   while (tapCnt > 0u)
 685              	 .loc 1 280 0
 686 0426 3D9B     	 ldr r3,[sp,#244]
 687 0428 013B     	 subs r3,r3,#1
 688              	.LVL86:
 689 042a 07D0     	 beq .L1
 690 042c 3C9A     	 ldr r2,[sp,#240]
 691 042e 043A     	 subs r2,r2,#4
 692              	.LVL87:
 693              	.L12:
 281:../Dave/Generated/CMSIS_DSP/FilteringFunctions/arm_fir_fast_q31.c ****   {
 282:../Dave/Generated/CMSIS_DSP/FilteringFunctions/arm_fir_fast_q31.c ****     *pStateCurnt++ = *pState++;
 694              	 .loc 1 282 0
 695 0430 57F8041B 	 ldr r1,[r7],#4
 696              	.LVL88:
 697 0434 42F8041F 	 str r1,[r2,#4]!
 280:../Dave/Generated/CMSIS_DSP/FilteringFunctions/arm_fir_fast_q31.c ****   {
 698              	 .loc 1 280 0
 699 0438 013B     	 subs r3,r3,#1
 700              	.LVL89:
 701 043a F9D1     	 bne .L12
 702              	.LVL90:
 703              	.L1:
 283:../Dave/Generated/CMSIS_DSP/FilteringFunctions/arm_fir_fast_q31.c **** 
 284:../Dave/Generated/CMSIS_DSP/FilteringFunctions/arm_fir_fast_q31.c ****     /* Decrement the loop counter */
 285:../Dave/Generated/CMSIS_DSP/FilteringFunctions/arm_fir_fast_q31.c ****     tapCnt--;
 286:../Dave/Generated/CMSIS_DSP/FilteringFunctions/arm_fir_fast_q31.c ****   }
 287:../Dave/Generated/CMSIS_DSP/FilteringFunctions/arm_fir_fast_q31.c **** 
 288:../Dave/Generated/CMSIS_DSP/FilteringFunctions/arm_fir_fast_q31.c **** 
 289:../Dave/Generated/CMSIS_DSP/FilteringFunctions/arm_fir_fast_q31.c **** }
 704              	 .loc 1 289 0
 705 043c 43B0     	 add sp,sp,#268
 706              	.LCFI2:
 707              	 .cfi_remember_state
 708              	 .cfi_def_cfa_offset 36
 709              	 
 710 043e BDE8F08F 	 pop {r4,r5,r6,r7,r8,r9,r10,fp,pc}
 711              	.LVL91:
 712              	.L15:
 713              	.LCFI3:
 714              	 .cfi_restore_state
 715 0442 1346     	 mov r3,r2
 716              	.LVL92:
 114:../Dave/Generated/CMSIS_DSP/FilteringFunctions/arm_fir_fast_q31.c **** 
 717              	 .loc 1 114 0
 718 0444 DDF8D4A0 	 ldr r10,[sp,#212]
 108:../Dave/Generated/CMSIS_DSP/FilteringFunctions/arm_fir_fast_q31.c **** 
 719              	 .loc 1 108 0
 720 0448 1546     	 mov r5,r2
 107:../Dave/Generated/CMSIS_DSP/FilteringFunctions/arm_fir_fast_q31.c ****     acc3 = 0;
 721              	 .loc 1 107 0
 722 044a 1446     	 mov r4,r2
 106:../Dave/Generated/CMSIS_DSP/FilteringFunctions/arm_fir_fast_q31.c ****     acc2 = 0;
 723              	 .loc 1 106 0
 724 044c 1046     	 mov r0,r2
 725 044e 30E7     	 b .L3
 726              	.LVL93:
 727              	.L14:
 728 0450 2F46     	 mov r7,r5
 729              	.LVL94:
 730 0452 ABE7     	 b .L2
 731              	 .cfi_endproc
 732              	.LFE135:
 734              	 .text
 735              	.Letext0:
 736              	 .file 2 "c:\\infineon\\tools\\dave ide\\4.5.0.202105191637\\eclipse\\arm-gcc-49\\arm-none-eabi\\include\\machine\\_default_types.h"
 737              	 .file 3 "c:\\infineon\\tools\\dave ide\\4.5.0.202105191637\\eclipse\\arm-gcc-49\\arm-none-eabi\\include\\stdint.h"
 738              	 .file 4 "C:/Users/Utente/Desktop/Tesi/Firmware_Software/DAVE project/S2GLP_Pulsed_Doppler/Dave/Generated/CMSIS_DSP/arm_math.h"