   1              	 .syntax unified
   2              	 .cpu cortex-m4
   3              	 .eabi_attribute 27,3
   4              	 .fpu fpv4-sp-d16
   5              	 .eabi_attribute 20,1
   6              	 .eabi_attribute 21,1
   7              	 .eabi_attribute 23,3
   8              	 .eabi_attribute 24,1
   9              	 .eabi_attribute 25,1
  10              	 .eabi_attribute 26,1
  11              	 .eabi_attribute 30,2
  12              	 .eabi_attribute 34,1
  13              	 .eabi_attribute 18,4
  14              	 .thumb
  15              	 .file "arm_fir_lattice_q15.c"
  16              	 .text
  17              	.Ltext0:
  18              	 .cfi_sections .debug_frame
  19              	 .section .text.arm_fir_lattice_q15,"ax",%progbits
  20              	 .align 2
  21              	 .global arm_fir_lattice_q15
  22              	 .thumb
  23              	 .thumb_func
  25              	arm_fir_lattice_q15:
  26              	.LFB135:
  27              	 .file 1 "../Dave/Generated/CMSIS_DSP/FilteringFunctions/arm_fir_lattice_q15.c"
   1:../Dave/Generated/CMSIS_DSP/FilteringFunctions/arm_fir_lattice_q15.c **** /* ----------------------------------------------------------------------
   2:../Dave/Generated/CMSIS_DSP/FilteringFunctions/arm_fir_lattice_q15.c ****  * Project:      CMSIS DSP Library
   3:../Dave/Generated/CMSIS_DSP/FilteringFunctions/arm_fir_lattice_q15.c ****  * Title:        arm_fir_lattice_q15.c
   4:../Dave/Generated/CMSIS_DSP/FilteringFunctions/arm_fir_lattice_q15.c ****  * Description:  Q15 FIR lattice filter processing function
   5:../Dave/Generated/CMSIS_DSP/FilteringFunctions/arm_fir_lattice_q15.c ****  *
   6:../Dave/Generated/CMSIS_DSP/FilteringFunctions/arm_fir_lattice_q15.c ****  * $Date:        27. January 2017
   7:../Dave/Generated/CMSIS_DSP/FilteringFunctions/arm_fir_lattice_q15.c ****  * $Revision:    V.1.5.1
   8:../Dave/Generated/CMSIS_DSP/FilteringFunctions/arm_fir_lattice_q15.c ****  *
   9:../Dave/Generated/CMSIS_DSP/FilteringFunctions/arm_fir_lattice_q15.c ****  * Target Processor: Cortex-M cores
  10:../Dave/Generated/CMSIS_DSP/FilteringFunctions/arm_fir_lattice_q15.c ****  * -------------------------------------------------------------------- */
  11:../Dave/Generated/CMSIS_DSP/FilteringFunctions/arm_fir_lattice_q15.c **** /*
  12:../Dave/Generated/CMSIS_DSP/FilteringFunctions/arm_fir_lattice_q15.c ****  * Copyright (C) 2010-2017 ARM Limited or its affiliates. All rights reserved.
  13:../Dave/Generated/CMSIS_DSP/FilteringFunctions/arm_fir_lattice_q15.c ****  *
  14:../Dave/Generated/CMSIS_DSP/FilteringFunctions/arm_fir_lattice_q15.c ****  * SPDX-License-Identifier: Apache-2.0
  15:../Dave/Generated/CMSIS_DSP/FilteringFunctions/arm_fir_lattice_q15.c ****  *
  16:../Dave/Generated/CMSIS_DSP/FilteringFunctions/arm_fir_lattice_q15.c ****  * Licensed under the Apache License, Version 2.0 (the License); you may
  17:../Dave/Generated/CMSIS_DSP/FilteringFunctions/arm_fir_lattice_q15.c ****  * not use this file except in compliance with the License.
  18:../Dave/Generated/CMSIS_DSP/FilteringFunctions/arm_fir_lattice_q15.c ****  * You may obtain a copy of the License at
  19:../Dave/Generated/CMSIS_DSP/FilteringFunctions/arm_fir_lattice_q15.c ****  *
  20:../Dave/Generated/CMSIS_DSP/FilteringFunctions/arm_fir_lattice_q15.c ****  * www.apache.org/licenses/LICENSE-2.0
  21:../Dave/Generated/CMSIS_DSP/FilteringFunctions/arm_fir_lattice_q15.c ****  *
  22:../Dave/Generated/CMSIS_DSP/FilteringFunctions/arm_fir_lattice_q15.c ****  * Unless required by applicable law or agreed to in writing, software
  23:../Dave/Generated/CMSIS_DSP/FilteringFunctions/arm_fir_lattice_q15.c ****  * distributed under the License is distributed on an AS IS BASIS, WITHOUT
  24:../Dave/Generated/CMSIS_DSP/FilteringFunctions/arm_fir_lattice_q15.c ****  * WARRANTIES OR CONDITIONS OF ANY KIND, either express or implied.
  25:../Dave/Generated/CMSIS_DSP/FilteringFunctions/arm_fir_lattice_q15.c ****  * See the License for the specific language governing permissions and
  26:../Dave/Generated/CMSIS_DSP/FilteringFunctions/arm_fir_lattice_q15.c ****  * limitations under the License.
  27:../Dave/Generated/CMSIS_DSP/FilteringFunctions/arm_fir_lattice_q15.c ****  */
  28:../Dave/Generated/CMSIS_DSP/FilteringFunctions/arm_fir_lattice_q15.c **** 
  29:../Dave/Generated/CMSIS_DSP/FilteringFunctions/arm_fir_lattice_q15.c **** #include "CMSIS_DSP/cmsis_dsp.h"
  30:../Dave/Generated/CMSIS_DSP/FilteringFunctions/arm_fir_lattice_q15.c **** 
  31:../Dave/Generated/CMSIS_DSP/FilteringFunctions/arm_fir_lattice_q15.c **** /**
  32:../Dave/Generated/CMSIS_DSP/FilteringFunctions/arm_fir_lattice_q15.c ****  * @ingroup groupFilters
  33:../Dave/Generated/CMSIS_DSP/FilteringFunctions/arm_fir_lattice_q15.c ****  */
  34:../Dave/Generated/CMSIS_DSP/FilteringFunctions/arm_fir_lattice_q15.c **** 
  35:../Dave/Generated/CMSIS_DSP/FilteringFunctions/arm_fir_lattice_q15.c **** /**
  36:../Dave/Generated/CMSIS_DSP/FilteringFunctions/arm_fir_lattice_q15.c ****  * @addtogroup FIR_Lattice
  37:../Dave/Generated/CMSIS_DSP/FilteringFunctions/arm_fir_lattice_q15.c ****  * @{
  38:../Dave/Generated/CMSIS_DSP/FilteringFunctions/arm_fir_lattice_q15.c ****  */
  39:../Dave/Generated/CMSIS_DSP/FilteringFunctions/arm_fir_lattice_q15.c **** 
  40:../Dave/Generated/CMSIS_DSP/FilteringFunctions/arm_fir_lattice_q15.c **** 
  41:../Dave/Generated/CMSIS_DSP/FilteringFunctions/arm_fir_lattice_q15.c **** /**
  42:../Dave/Generated/CMSIS_DSP/FilteringFunctions/arm_fir_lattice_q15.c ****  * @brief Processing function for the Q15 FIR lattice filter.
  43:../Dave/Generated/CMSIS_DSP/FilteringFunctions/arm_fir_lattice_q15.c ****  * @param[in]  *S        points to an instance of the Q15 FIR lattice structure.
  44:../Dave/Generated/CMSIS_DSP/FilteringFunctions/arm_fir_lattice_q15.c ****  * @param[in]  *pSrc     points to the block of input data.
  45:../Dave/Generated/CMSIS_DSP/FilteringFunctions/arm_fir_lattice_q15.c ****  * @param[out] *pDst     points to the block of output data
  46:../Dave/Generated/CMSIS_DSP/FilteringFunctions/arm_fir_lattice_q15.c ****  * @param[in]  blockSize number of samples to process.
  47:../Dave/Generated/CMSIS_DSP/FilteringFunctions/arm_fir_lattice_q15.c ****  * @return none.
  48:../Dave/Generated/CMSIS_DSP/FilteringFunctions/arm_fir_lattice_q15.c ****  */
  49:../Dave/Generated/CMSIS_DSP/FilteringFunctions/arm_fir_lattice_q15.c **** 
  50:../Dave/Generated/CMSIS_DSP/FilteringFunctions/arm_fir_lattice_q15.c **** void arm_fir_lattice_q15(
  51:../Dave/Generated/CMSIS_DSP/FilteringFunctions/arm_fir_lattice_q15.c ****   const arm_fir_lattice_instance_q15 * S,
  52:../Dave/Generated/CMSIS_DSP/FilteringFunctions/arm_fir_lattice_q15.c ****   q15_t * pSrc,
  53:../Dave/Generated/CMSIS_DSP/FilteringFunctions/arm_fir_lattice_q15.c ****   q15_t * pDst,
  54:../Dave/Generated/CMSIS_DSP/FilteringFunctions/arm_fir_lattice_q15.c ****   uint32_t blockSize)
  55:../Dave/Generated/CMSIS_DSP/FilteringFunctions/arm_fir_lattice_q15.c **** {
  28              	 .loc 1 55 0
  29              	 .cfi_startproc
  30              	 
  31              	 
  32              	.LVL0:
  33 0000 2DE9F04F 	 push {r4,r5,r6,r7,r8,r9,r10,fp,lr}
  34              	.LCFI0:
  35              	 .cfi_def_cfa_offset 36
  36              	 .cfi_offset 4,-36
  37              	 .cfi_offset 5,-32
  38              	 .cfi_offset 6,-28
  39              	 .cfi_offset 7,-24
  40              	 .cfi_offset 8,-20
  41              	 .cfi_offset 9,-16
  42              	 .cfi_offset 10,-12
  43              	 .cfi_offset 11,-8
  44              	 .cfi_offset 14,-4
  45 0004 9BB0     	 sub sp,sp,#108
  46              	.LCFI1:
  47              	 .cfi_def_cfa_offset 144
  56:../Dave/Generated/CMSIS_DSP/FilteringFunctions/arm_fir_lattice_q15.c ****   q15_t *pState;                                 /* State pointer */
  57:../Dave/Generated/CMSIS_DSP/FilteringFunctions/arm_fir_lattice_q15.c ****   q15_t *pCoeffs = S->pCoeffs;                   /* Coefficient pointer */
  48              	 .loc 1 57 0
  49 0006 8468     	 ldr r4,[r0,#8]
  58:../Dave/Generated/CMSIS_DSP/FilteringFunctions/arm_fir_lattice_q15.c ****   q15_t *px;                                     /* temporary state pointer */
  59:../Dave/Generated/CMSIS_DSP/FilteringFunctions/arm_fir_lattice_q15.c ****   q15_t *pk;                                     /* temporary coefficient pointer */
  60:../Dave/Generated/CMSIS_DSP/FilteringFunctions/arm_fir_lattice_q15.c **** 
  61:../Dave/Generated/CMSIS_DSP/FilteringFunctions/arm_fir_lattice_q15.c **** 
  62:../Dave/Generated/CMSIS_DSP/FilteringFunctions/arm_fir_lattice_q15.c **** #if defined (ARM_MATH_DSP)
  63:../Dave/Generated/CMSIS_DSP/FilteringFunctions/arm_fir_lattice_q15.c **** 
  64:../Dave/Generated/CMSIS_DSP/FilteringFunctions/arm_fir_lattice_q15.c ****   /* Run the below code for Cortex-M4 and Cortex-M3 */
  65:../Dave/Generated/CMSIS_DSP/FilteringFunctions/arm_fir_lattice_q15.c **** 
  66:../Dave/Generated/CMSIS_DSP/FilteringFunctions/arm_fir_lattice_q15.c ****   q31_t fcurnt1, fnext1, gcurnt1 = 0, gnext1;    /* temporary variables for first sample in loop un
  67:../Dave/Generated/CMSIS_DSP/FilteringFunctions/arm_fir_lattice_q15.c ****   q31_t fcurnt2, fnext2, gnext2;                 /* temporary variables for second sample in loop u
  68:../Dave/Generated/CMSIS_DSP/FilteringFunctions/arm_fir_lattice_q15.c ****   q31_t fcurnt3, fnext3, gnext3;                 /* temporary variables for third sample in loop un
  69:../Dave/Generated/CMSIS_DSP/FilteringFunctions/arm_fir_lattice_q15.c ****   q31_t fcurnt4, fnext4, gnext4;                 /* temporary variables for fourth sample in loop u
  70:../Dave/Generated/CMSIS_DSP/FilteringFunctions/arm_fir_lattice_q15.c ****   uint32_t numStages = S->numStages;             /* Number of stages in the filter */
  50              	 .loc 1 70 0
  51 0008 0588     	 ldrh r5,[r0]
  55:../Dave/Generated/CMSIS_DSP/FilteringFunctions/arm_fir_lattice_q15.c ****   q15_t *pState;                                 /* State pointer */
  52              	 .loc 1 55 0
  53 000a 1993     	 str r3,[sp,#100]
  71:../Dave/Generated/CMSIS_DSP/FilteringFunctions/arm_fir_lattice_q15.c ****   uint32_t blkCnt, stageCnt;                     /* temporary variables for counts */
  72:../Dave/Generated/CMSIS_DSP/FilteringFunctions/arm_fir_lattice_q15.c **** 
  73:../Dave/Generated/CMSIS_DSP/FilteringFunctions/arm_fir_lattice_q15.c ****   pState = &S->pState[0];
  54              	 .loc 1 73 0
  55 000c 4068     	 ldr r0,[r0,#4]
  56              	.LVL1:
  55:../Dave/Generated/CMSIS_DSP/FilteringFunctions/arm_fir_lattice_q15.c ****   q15_t *pState;                                 /* State pointer */
  57              	 .loc 1 55 0
  58 000e 1391     	 str r1,[sp,#76]
  74:../Dave/Generated/CMSIS_DSP/FilteringFunctions/arm_fir_lattice_q15.c **** 
  75:../Dave/Generated/CMSIS_DSP/FilteringFunctions/arm_fir_lattice_q15.c ****   blkCnt = blockSize >> 2u;
  76:../Dave/Generated/CMSIS_DSP/FilteringFunctions/arm_fir_lattice_q15.c **** 
  77:../Dave/Generated/CMSIS_DSP/FilteringFunctions/arm_fir_lattice_q15.c ****   /* First part of the processing with loop unrolling.  Compute 4 outputs at a time.
  78:../Dave/Generated/CMSIS_DSP/FilteringFunctions/arm_fir_lattice_q15.c ****    ** a second loop below computes the remaining 1 to 3 samples. */
  79:../Dave/Generated/CMSIS_DSP/FilteringFunctions/arm_fir_lattice_q15.c ****   while (blkCnt > 0u)
  59              	 .loc 1 79 0
  60 0010 9B08     	 lsrs r3,r3,#2
  61              	.LVL2:
  55:../Dave/Generated/CMSIS_DSP/FilteringFunctions/arm_fir_lattice_q15.c ****   q15_t *pState;                                 /* State pointer */
  62              	 .loc 1 55 0
  63 0012 1746     	 mov r7,r2
  64 0014 1492     	 str r2,[sp,#80]
  57:../Dave/Generated/CMSIS_DSP/FilteringFunctions/arm_fir_lattice_q15.c ****   q15_t *px;                                     /* temporary state pointer */
  65              	 .loc 1 57 0
  66 0016 0A94     	 str r4,[sp,#40]
  67              	.LVL3:
  70:../Dave/Generated/CMSIS_DSP/FilteringFunctions/arm_fir_lattice_q15.c ****   uint32_t blkCnt, stageCnt;                     /* temporary variables for counts */
  68              	 .loc 1 70 0
  69 0018 1595     	 str r5,[sp,#84]
  70              	.LVL4:
  73:../Dave/Generated/CMSIS_DSP/FilteringFunctions/arm_fir_lattice_q15.c **** 
  71              	 .loc 1 73 0
  72 001a 0C90     	 str r0,[sp,#48]
  73              	.LVL5:
  74              	 .loc 1 79 0
  75 001c 1E46     	 mov r6,r3
  76 001e 1693     	 str r3,[sp,#88]
  77 0020 00F0F381 	 beq .L2
  78 0024 6A1E     	 subs r2,r5,#1
  79              	.LVL6:
  80 0026 9308     	 lsrs r3,r2,#2
  81 0028 0230     	 adds r0,r0,#2
  82              	.LVL7:
  83 002a 0234     	 adds r4,r4,#2
  84              	.LVL8:
  85 002c 0F93     	 str r3,[sp,#60]
  86 002e DB00     	 lsls r3,r3,#3
  87 0030 1790     	 str r0,[sp,#92]
  88 0032 1844     	 add r0,r0,r3
  89 0034 E318     	 adds r3,r4,r3
  90 0036 1193     	 str r3,[sp,#68]
  91 0038 0B46     	 mov r3,r1
  92 003a 0833     	 adds r3,r3,#8
  93 003c 0B93     	 str r3,[sp,#44]
  94 003e 3B46     	 mov r3,r7
  95 0040 02F00305 	 and r5,r2,#3
  96              	.LVL9:
  97 0044 0833     	 adds r3,r3,#8
  98 0046 1894     	 str r4,[sp,#96]
  99 0048 1095     	 str r5,[sp,#64]
 100 004a 1290     	 str r0,[sp,#72]
 101 004c 0E93     	 str r3,[sp,#56]
 102 004e 0D96     	 str r6,[sp,#52]
 103              	.LVL10:
 104              	.L7:
  80:../Dave/Generated/CMSIS_DSP/FilteringFunctions/arm_fir_lattice_q15.c ****   {
  81:../Dave/Generated/CMSIS_DSP/FilteringFunctions/arm_fir_lattice_q15.c **** 
  82:../Dave/Generated/CMSIS_DSP/FilteringFunctions/arm_fir_lattice_q15.c ****     /* Read two samples from input buffer */
  83:../Dave/Generated/CMSIS_DSP/FilteringFunctions/arm_fir_lattice_q15.c ****     /* f0(n) = x(n) */
  84:../Dave/Generated/CMSIS_DSP/FilteringFunctions/arm_fir_lattice_q15.c ****     fcurnt1 = *pSrc++;
  85:../Dave/Generated/CMSIS_DSP/FilteringFunctions/arm_fir_lattice_q15.c ****     fcurnt2 = *pSrc++;
  86:../Dave/Generated/CMSIS_DSP/FilteringFunctions/arm_fir_lattice_q15.c **** 
  87:../Dave/Generated/CMSIS_DSP/FilteringFunctions/arm_fir_lattice_q15.c ****     /* Initialize coeff pointer */
  88:../Dave/Generated/CMSIS_DSP/FilteringFunctions/arm_fir_lattice_q15.c ****     pk = (pCoeffs);
  89:../Dave/Generated/CMSIS_DSP/FilteringFunctions/arm_fir_lattice_q15.c **** 
  90:../Dave/Generated/CMSIS_DSP/FilteringFunctions/arm_fir_lattice_q15.c ****     /* Initialize state pointer */
  91:../Dave/Generated/CMSIS_DSP/FilteringFunctions/arm_fir_lattice_q15.c ****     px = pState;
  92:../Dave/Generated/CMSIS_DSP/FilteringFunctions/arm_fir_lattice_q15.c **** 
  93:../Dave/Generated/CMSIS_DSP/FilteringFunctions/arm_fir_lattice_q15.c ****     /* Read g0(n-1) from state */
  94:../Dave/Generated/CMSIS_DSP/FilteringFunctions/arm_fir_lattice_q15.c ****     gcurnt1 = *px;
  95:../Dave/Generated/CMSIS_DSP/FilteringFunctions/arm_fir_lattice_q15.c **** 
  96:../Dave/Generated/CMSIS_DSP/FilteringFunctions/arm_fir_lattice_q15.c ****     /* Process first sample for first tap */
  97:../Dave/Generated/CMSIS_DSP/FilteringFunctions/arm_fir_lattice_q15.c ****     /* f1(n) = f0(n) +  K1 * g0(n-1) */
  98:../Dave/Generated/CMSIS_DSP/FilteringFunctions/arm_fir_lattice_q15.c ****     fnext1 = (q31_t) ((gcurnt1 * (*pk)) >> 15u) + fcurnt1;
  99:../Dave/Generated/CMSIS_DSP/FilteringFunctions/arm_fir_lattice_q15.c ****     fnext1 = __SSAT(fnext1, 16);
 100:../Dave/Generated/CMSIS_DSP/FilteringFunctions/arm_fir_lattice_q15.c **** 
 101:../Dave/Generated/CMSIS_DSP/FilteringFunctions/arm_fir_lattice_q15.c ****     /* g1(n) = f0(n) * K1  +  g0(n-1) */
 102:../Dave/Generated/CMSIS_DSP/FilteringFunctions/arm_fir_lattice_q15.c ****     gnext1 = (q31_t) ((fcurnt1 * (*pk)) >> 15u) + gcurnt1;
 103:../Dave/Generated/CMSIS_DSP/FilteringFunctions/arm_fir_lattice_q15.c ****     gnext1 = __SSAT(gnext1, 16);
 104:../Dave/Generated/CMSIS_DSP/FilteringFunctions/arm_fir_lattice_q15.c **** 
 105:../Dave/Generated/CMSIS_DSP/FilteringFunctions/arm_fir_lattice_q15.c ****     /* Process second sample for first tap */
 106:../Dave/Generated/CMSIS_DSP/FilteringFunctions/arm_fir_lattice_q15.c ****     /* for sample 2 processing */
 107:../Dave/Generated/CMSIS_DSP/FilteringFunctions/arm_fir_lattice_q15.c ****     fnext2 = (q31_t) ((fcurnt1 * (*pk)) >> 15u) + fcurnt2;
 108:../Dave/Generated/CMSIS_DSP/FilteringFunctions/arm_fir_lattice_q15.c ****     fnext2 = __SSAT(fnext2, 16);
 109:../Dave/Generated/CMSIS_DSP/FilteringFunctions/arm_fir_lattice_q15.c **** 
 110:../Dave/Generated/CMSIS_DSP/FilteringFunctions/arm_fir_lattice_q15.c ****     gnext2 = (q31_t) ((fcurnt2 * (*pk)) >> 15u) + fcurnt1;
 111:../Dave/Generated/CMSIS_DSP/FilteringFunctions/arm_fir_lattice_q15.c ****     gnext2 = __SSAT(gnext2, 16);
 112:../Dave/Generated/CMSIS_DSP/FilteringFunctions/arm_fir_lattice_q15.c **** 
 113:../Dave/Generated/CMSIS_DSP/FilteringFunctions/arm_fir_lattice_q15.c **** 
 114:../Dave/Generated/CMSIS_DSP/FilteringFunctions/arm_fir_lattice_q15.c ****     /* Read next two samples from input buffer */
 115:../Dave/Generated/CMSIS_DSP/FilteringFunctions/arm_fir_lattice_q15.c ****     /* f0(n+2) = x(n+2) */
 116:../Dave/Generated/CMSIS_DSP/FilteringFunctions/arm_fir_lattice_q15.c ****     fcurnt3 = *pSrc++;
 117:../Dave/Generated/CMSIS_DSP/FilteringFunctions/arm_fir_lattice_q15.c ****     fcurnt4 = *pSrc++;
 105              	 .loc 1 117 0
 106 0050 0B99     	 ldr r1,[sp,#44]
  94:../Dave/Generated/CMSIS_DSP/FilteringFunctions/arm_fir_lattice_q15.c **** 
 107              	 .loc 1 94 0
 108 0052 0C9C     	 ldr r4,[sp,#48]
  98:../Dave/Generated/CMSIS_DSP/FilteringFunctions/arm_fir_lattice_q15.c ****     fnext1 = __SSAT(fnext1, 16);
 109              	 .loc 1 98 0
 110 0054 0A9D     	 ldr r5,[sp,#40]
 111              	 .loc 1 117 0
 112 0056 31F8022C 	 ldrh r2,[r1,#-2]
  85:../Dave/Generated/CMSIS_DSP/FilteringFunctions/arm_fir_lattice_q15.c **** 
 113              	 .loc 1 85 0
 114 005a 31F8069C 	 ldrh r9,[r1,#-6]
  84:../Dave/Generated/CMSIS_DSP/FilteringFunctions/arm_fir_lattice_q15.c ****     fcurnt2 = *pSrc++;
 115              	 .loc 1 84 0
 116 005e 31F808BC 	 ldrh fp,[r1,#-8]
  94:../Dave/Generated/CMSIS_DSP/FilteringFunctions/arm_fir_lattice_q15.c **** 
 117              	 .loc 1 94 0
 118 0062 2688     	 ldrh r6,[r4]
 119              	 .loc 1 117 0
 120 0064 0B46     	 mov r3,r1
  98:../Dave/Generated/CMSIS_DSP/FilteringFunctions/arm_fir_lattice_q15.c ****     fnext1 = __SSAT(fnext1, 16);
 121              	 .loc 1 98 0
 122 0066 2988     	 ldrh r1,[r5]
 116:../Dave/Generated/CMSIS_DSP/FilteringFunctions/arm_fir_lattice_q15.c ****     fcurnt4 = *pSrc++;
 123              	 .loc 1 116 0
 124 0068 33F8047C 	 ldrh r7,[r3,#-4]
 118:../Dave/Generated/CMSIS_DSP/FilteringFunctions/arm_fir_lattice_q15.c **** 
 119:../Dave/Generated/CMSIS_DSP/FilteringFunctions/arm_fir_lattice_q15.c ****     /* Copy only last input samples into the state buffer
 120:../Dave/Generated/CMSIS_DSP/FilteringFunctions/arm_fir_lattice_q15.c ****        which is used for next four samples processing */
 121:../Dave/Generated/CMSIS_DSP/FilteringFunctions/arm_fir_lattice_q15.c ****     *px++ = (q15_t) fcurnt4;
 125              	 .loc 1 121 0
 126 006c 2280     	 strh r2,[r4]
 122:../Dave/Generated/CMSIS_DSP/FilteringFunctions/arm_fir_lattice_q15.c **** 
 123:../Dave/Generated/CMSIS_DSP/FilteringFunctions/arm_fir_lattice_q15.c ****     /* Process third sample for first tap */
 124:../Dave/Generated/CMSIS_DSP/FilteringFunctions/arm_fir_lattice_q15.c ****     fnext3 = (q31_t) ((fcurnt2 * (*pk)) >> 15u) + fcurnt3;
 127              	 .loc 1 124 0
 128 006e 2D88     	 ldrh r5,[r5]
 102:../Dave/Generated/CMSIS_DSP/FilteringFunctions/arm_fir_lattice_q15.c ****     gnext1 = __SSAT(gnext1, 16);
 129              	 .loc 1 102 0
 130 0070 1BFB01F4 	 smulbb r4,fp,r1
 125:../Dave/Generated/CMSIS_DSP/FilteringFunctions/arm_fir_lattice_q15.c ****     fnext3 = __SSAT(fnext3, 16);
 126:../Dave/Generated/CMSIS_DSP/FilteringFunctions/arm_fir_lattice_q15.c ****     gnext3 = (q31_t) ((fcurnt3 * (*pk)) >> 15u) + fcurnt2;
 131              	 .loc 1 126 0
 132 0074 17FB05FC 	 smulbb ip,r7,r5
  85:../Dave/Generated/CMSIS_DSP/FilteringFunctions/arm_fir_lattice_q15.c **** 
 133              	 .loc 1 85 0
 134 0078 0FFA89F0 	 sxth r0,r9
 102:../Dave/Generated/CMSIS_DSP/FilteringFunctions/arm_fir_lattice_q15.c ****     gnext1 = __SSAT(gnext1, 16);
 135              	 .loc 1 102 0
 136 007c E413     	 asrs r4,r4,#15
 137              	 .loc 1 126 0
 138 007e 4FEAEC3C 	 asr ip,ip,#15
 139 0082 0CEB000A 	 add r10,ip,r0
 110:../Dave/Generated/CMSIS_DSP/FilteringFunctions/arm_fir_lattice_q15.c ****     gnext2 = __SSAT(gnext2, 16);
 140              	 .loc 1 110 0
 141 0086 19FB01F3 	 smulbb r3,r9,r1
 107:../Dave/Generated/CMSIS_DSP/FilteringFunctions/arm_fir_lattice_q15.c ****     fnext2 = __SSAT(fnext2, 16);
 142              	 .loc 1 107 0
 143 008a 2044     	 add r0,r0,r4
  98:../Dave/Generated/CMSIS_DSP/FilteringFunctions/arm_fir_lattice_q15.c ****     fnext1 = __SSAT(fnext1, 16);
 144              	 .loc 1 98 0
 145 008c 11FB06F1 	 smulbb r1,r1,r6
 102:../Dave/Generated/CMSIS_DSP/FilteringFunctions/arm_fir_lattice_q15.c ****     gnext1 = __SSAT(gnext1, 16);
 146              	 .loc 1 102 0
 147 0090 04FA86F6 	 sxtah r6,r4,r6
 148              	.LBB2:
 108:../Dave/Generated/CMSIS_DSP/FilteringFunctions/arm_fir_lattice_q15.c **** 
 149              	 .loc 1 108 0
 150              	
 151 0094 00F30F04 	 ssat r4,#16,r0
 152              	
 153              	 .thumb
 154 0098 0394     	 str r4,[sp,#12]
 155              	.LBE2:
 156              	.LBB3:
 103:../Dave/Generated/CMSIS_DSP/FilteringFunctions/arm_fir_lattice_q15.c **** 
 157              	 .loc 1 103 0
 158              	
 159 009a 06F30F04 	 ssat r4,#16,r6
 160              	
 161              	 .thumb
 162 009e 0294     	 str r4,[sp,#8]
 163              	.LBE3:
 127:../Dave/Generated/CMSIS_DSP/FilteringFunctions/arm_fir_lattice_q15.c ****     gnext3 = __SSAT(gnext3, 16);
 128:../Dave/Generated/CMSIS_DSP/FilteringFunctions/arm_fir_lattice_q15.c **** 
 129:../Dave/Generated/CMSIS_DSP/FilteringFunctions/arm_fir_lattice_q15.c ****     /* Process fourth sample for first tap */
 130:../Dave/Generated/CMSIS_DSP/FilteringFunctions/arm_fir_lattice_q15.c ****     fnext4 = (q31_t) ((fcurnt3 * (*pk)) >> 15u) + fcurnt4;
 131:../Dave/Generated/CMSIS_DSP/FilteringFunctions/arm_fir_lattice_q15.c ****     fnext4 = __SSAT(fnext4, 16);
 132:../Dave/Generated/CMSIS_DSP/FilteringFunctions/arm_fir_lattice_q15.c ****     gnext4 = (q31_t) ((fcurnt4 * (*pk++)) >> 15u) + fcurnt3;
 133:../Dave/Generated/CMSIS_DSP/FilteringFunctions/arm_fir_lattice_q15.c ****     gnext4 = __SSAT(gnext4, 16);
 134:../Dave/Generated/CMSIS_DSP/FilteringFunctions/arm_fir_lattice_q15.c **** 
 135:../Dave/Generated/CMSIS_DSP/FilteringFunctions/arm_fir_lattice_q15.c ****     /* Update of f values for next coefficient set processing */
 136:../Dave/Generated/CMSIS_DSP/FilteringFunctions/arm_fir_lattice_q15.c ****     fcurnt1 = fnext1;
 137:../Dave/Generated/CMSIS_DSP/FilteringFunctions/arm_fir_lattice_q15.c ****     fcurnt2 = fnext2;
 138:../Dave/Generated/CMSIS_DSP/FilteringFunctions/arm_fir_lattice_q15.c ****     fcurnt3 = fnext3;
 139:../Dave/Generated/CMSIS_DSP/FilteringFunctions/arm_fir_lattice_q15.c ****     fcurnt4 = fnext4;
 140:../Dave/Generated/CMSIS_DSP/FilteringFunctions/arm_fir_lattice_q15.c **** 
 141:../Dave/Generated/CMSIS_DSP/FilteringFunctions/arm_fir_lattice_q15.c **** 
 142:../Dave/Generated/CMSIS_DSP/FilteringFunctions/arm_fir_lattice_q15.c ****     /* Loop unrolling.  Process 4 taps at a time . */
 143:../Dave/Generated/CMSIS_DSP/FilteringFunctions/arm_fir_lattice_q15.c ****     stageCnt = (numStages - 1u) >> 2;
 144:../Dave/Generated/CMSIS_DSP/FilteringFunctions/arm_fir_lattice_q15.c **** 
 145:../Dave/Generated/CMSIS_DSP/FilteringFunctions/arm_fir_lattice_q15.c **** 
 146:../Dave/Generated/CMSIS_DSP/FilteringFunctions/arm_fir_lattice_q15.c ****     /* Loop over the number of taps.  Unroll by a factor of 4.
 147:../Dave/Generated/CMSIS_DSP/FilteringFunctions/arm_fir_lattice_q15.c ****      ** Repeat until we've computed numStages-3 coefficients. */
 148:../Dave/Generated/CMSIS_DSP/FilteringFunctions/arm_fir_lattice_q15.c **** 
 149:../Dave/Generated/CMSIS_DSP/FilteringFunctions/arm_fir_lattice_q15.c ****     /* Process 2nd, 3rd, 4th and 5th taps ... here */
 150:../Dave/Generated/CMSIS_DSP/FilteringFunctions/arm_fir_lattice_q15.c ****     while (stageCnt > 0u)
 164              	 .loc 1 150 0
 165 00a0 0F9C     	 ldr r4,[sp,#60]
 166              	.LBB4:
 127:../Dave/Generated/CMSIS_DSP/FilteringFunctions/arm_fir_lattice_q15.c ****     gnext3 = __SSAT(gnext3, 16);
 167              	 .loc 1 127 0
 168              	
 169 00a2 0AF30F0A 	 ssat r10,#16,r10
 170              	
 171              	 .thumb
 172              	.LBE4:
 116:../Dave/Generated/CMSIS_DSP/FilteringFunctions/arm_fir_lattice_q15.c ****     fcurnt4 = *pSrc++;
 173              	 .loc 1 116 0
 174 00a6 3FB2     	 sxth r7,r7
  84:../Dave/Generated/CMSIS_DSP/FilteringFunctions/arm_fir_lattice_q15.c ****     fcurnt2 = *pSrc++;
 175              	 .loc 1 84 0
 176 00a8 0FFA8BFB 	 sxth fp,fp
 177              	.LVL11:
 130:../Dave/Generated/CMSIS_DSP/FilteringFunctions/arm_fir_lattice_q15.c ****     fnext4 = __SSAT(fnext4, 16);
 178              	 .loc 1 130 0
 179 00ac 0CFA82FC 	 sxtah ip,ip,r2
 132:../Dave/Generated/CMSIS_DSP/FilteringFunctions/arm_fir_lattice_q15.c ****     gnext4 = __SSAT(gnext4, 16);
 180              	 .loc 1 132 0
 181 00b0 12FB05F2 	 smulbb r2,r2,r5
 124:../Dave/Generated/CMSIS_DSP/FilteringFunctions/arm_fir_lattice_q15.c ****     fnext3 = __SSAT(fnext3, 16);
 182              	 .loc 1 124 0
 183 00b4 15FB09F5 	 smulbb r5,r5,r9
 110:../Dave/Generated/CMSIS_DSP/FilteringFunctions/arm_fir_lattice_q15.c ****     gnext2 = __SSAT(gnext2, 16);
 184              	 .loc 1 110 0
 185 00b8 0BEBE333 	 add r3,fp,r3,asr#15
 132:../Dave/Generated/CMSIS_DSP/FilteringFunctions/arm_fir_lattice_q15.c ****     gnext4 = __SSAT(gnext4, 16);
 186              	 .loc 1 132 0
 187 00bc 07EBE232 	 add r2,r7,r2,asr#15
 124:../Dave/Generated/CMSIS_DSP/FilteringFunctions/arm_fir_lattice_q15.c ****     fnext3 = __SSAT(fnext3, 16);
 188              	 .loc 1 124 0
 189 00c0 07EBE535 	 add r5,r7,r5,asr#15
  98:../Dave/Generated/CMSIS_DSP/FilteringFunctions/arm_fir_lattice_q15.c ****     fnext1 = __SSAT(fnext1, 16);
 190              	 .loc 1 98 0
 191 00c4 0BEBE13B 	 add fp,fp,r1,asr#15
 192              	.LVL12:
 193              	.LBB5:
 131:../Dave/Generated/CMSIS_DSP/FilteringFunctions/arm_fir_lattice_q15.c ****     gnext4 = (q31_t) ((fcurnt4 * (*pk++)) >> 15u) + fcurnt3;
 194              	 .loc 1 131 0
 195              	
 196 00c8 0CF30F0C 	 ssat ip,#16,ip
 197              	
 198              	 .thumb
 199              	.LBE5:
 200              	.LBB6:
 133:../Dave/Generated/CMSIS_DSP/FilteringFunctions/arm_fir_lattice_q15.c **** 
 201              	 .loc 1 133 0
 202              	
 203 00cc 02F30F02 	 ssat r2,#16,r2
 204              	
 205              	 .thumb
 206              	.LBE6:
 207              	.LBB7:
 125:../Dave/Generated/CMSIS_DSP/FilteringFunctions/arm_fir_lattice_q15.c ****     gnext3 = (q31_t) ((fcurnt3 * (*pk)) >> 15u) + fcurnt2;
 208              	 .loc 1 125 0
 209              	
 210 00d0 05F30F09 	 ssat r9,#16,r5
 211              	
 212              	.LVL13:
 213              	 .thumb
 214              	.LBE7:
 215              	.LBB8:
 111:../Dave/Generated/CMSIS_DSP/FilteringFunctions/arm_fir_lattice_q15.c **** 
 216              	 .loc 1 111 0
 217              	
 218 00d4 03F30F03 	 ssat r3,#16,r3
 219              	
 220              	 .thumb
 221              	.LBE8:
 222              	.LBB9:
  99:../Dave/Generated/CMSIS_DSP/FilteringFunctions/arm_fir_lattice_q15.c **** 
 223              	 .loc 1 99 0
 224              	
 225 00d8 0BF30F0B 	 ssat fp,#16,fp
 226              	
 227              	.LVL14:
 228              	 .thumb
 229              	.LBE9:
 230              	 .loc 1 150 0
 231 00dc 002C     	 cmp r4,#0
 232 00de 00F0EE81 	 beq .L13
 233 00e2 0C99     	 ldr r1,[sp,#48]
 234 00e4 0A98     	 ldr r0,[sp,#40]
 235              	.LVL15:
 236 00e6 0694     	 str r4,[sp,#24]
 237 00e8 01F10A06 	 add r6,r1,#10
 238 00ec 00F10A01 	 add r1,r0,#10
 239 00f0 0491     	 str r1,[sp,#16]
 240 00f2 9846     	 mov r8,r3
 241 00f4 0196     	 str r6,[sp,#4]
 242 00f6 5146     	 mov r1,r10
 243 00f8 5B46     	 mov r3,fp
 244              	.LVL16:
 245              	.L4:
 151:../Dave/Generated/CMSIS_DSP/FilteringFunctions/arm_fir_lattice_q15.c ****     {
 152:../Dave/Generated/CMSIS_DSP/FilteringFunctions/arm_fir_lattice_q15.c ****       /* Read g1(n-1), g3(n-1) .... from state */
 153:../Dave/Generated/CMSIS_DSP/FilteringFunctions/arm_fir_lattice_q15.c ****       gcurnt1 = *px;
 246              	 .loc 1 153 0
 247 00fa 019E     	 ldr r6,[sp,#4]
 154:../Dave/Generated/CMSIS_DSP/FilteringFunctions/arm_fir_lattice_q15.c **** 
 155:../Dave/Generated/CMSIS_DSP/FilteringFunctions/arm_fir_lattice_q15.c ****       /* save g1(n) in state buffer */
 156:../Dave/Generated/CMSIS_DSP/FilteringFunctions/arm_fir_lattice_q15.c ****       *px++ = (q15_t) gnext4;
 157:../Dave/Generated/CMSIS_DSP/FilteringFunctions/arm_fir_lattice_q15.c **** 
 158:../Dave/Generated/CMSIS_DSP/FilteringFunctions/arm_fir_lattice_q15.c ****       /* Process first sample for 2nd, 6th .. tap */
 159:../Dave/Generated/CMSIS_DSP/FilteringFunctions/arm_fir_lattice_q15.c ****       /* Sample processing for K2, K6.... */
 160:../Dave/Generated/CMSIS_DSP/FilteringFunctions/arm_fir_lattice_q15.c ****       /* f1(n) = f0(n) +  K1 * g0(n-1) */
 161:../Dave/Generated/CMSIS_DSP/FilteringFunctions/arm_fir_lattice_q15.c ****       fnext1 = (q31_t) ((gcurnt1 * (*pk)) >> 15u) + fcurnt1;
 248              	 .loc 1 161 0
 249 00fc 049C     	 ldr r4,[sp,#16]
 153:../Dave/Generated/CMSIS_DSP/FilteringFunctions/arm_fir_lattice_q15.c **** 
 250              	 .loc 1 153 0
 251 00fe 36F8085C 	 ldrh r5,[r6,#-8]
 252              	.LVL17:
 156:../Dave/Generated/CMSIS_DSP/FilteringFunctions/arm_fir_lattice_q15.c **** 
 253              	 .loc 1 156 0
 254 0102 26F8082C 	 strh r2,[r6,#-8]
 255              	 .loc 1 161 0
 256 0106 34F808EC 	 ldrh lr,[r4,#-8]
 162:../Dave/Generated/CMSIS_DSP/FilteringFunctions/arm_fir_lattice_q15.c ****       fnext1 = __SSAT(fnext1, 16);
 163:../Dave/Generated/CMSIS_DSP/FilteringFunctions/arm_fir_lattice_q15.c **** 
 164:../Dave/Generated/CMSIS_DSP/FilteringFunctions/arm_fir_lattice_q15.c **** 
 165:../Dave/Generated/CMSIS_DSP/FilteringFunctions/arm_fir_lattice_q15.c ****       /* Process second sample for 2nd, 6th .. tap */
 166:../Dave/Generated/CMSIS_DSP/FilteringFunctions/arm_fir_lattice_q15.c ****       /* for sample 2 processing */
 167:../Dave/Generated/CMSIS_DSP/FilteringFunctions/arm_fir_lattice_q15.c ****       fnext2 = (q31_t) ((gnext1 * (*pk)) >> 15u) + fcurnt2;
 168:../Dave/Generated/CMSIS_DSP/FilteringFunctions/arm_fir_lattice_q15.c ****       fnext2 = __SSAT(fnext2, 16);
 169:../Dave/Generated/CMSIS_DSP/FilteringFunctions/arm_fir_lattice_q15.c ****       /* Process third sample for 2nd, 6th .. tap */
 170:../Dave/Generated/CMSIS_DSP/FilteringFunctions/arm_fir_lattice_q15.c ****       fnext3 = (q31_t) ((gnext2 * (*pk)) >> 15u) + fcurnt3;
 171:../Dave/Generated/CMSIS_DSP/FilteringFunctions/arm_fir_lattice_q15.c ****       fnext3 = __SSAT(fnext3, 16);
 172:../Dave/Generated/CMSIS_DSP/FilteringFunctions/arm_fir_lattice_q15.c ****       /* Process fourth sample for 2nd, 6th .. tap */
 173:../Dave/Generated/CMSIS_DSP/FilteringFunctions/arm_fir_lattice_q15.c ****       /* fnext4 = fcurnt4 + (*pk) * gnext3; */
 174:../Dave/Generated/CMSIS_DSP/FilteringFunctions/arm_fir_lattice_q15.c ****       fnext4 = (q31_t) ((gnext3 * (*pk)) >> 15u) + fcurnt4;
 175:../Dave/Generated/CMSIS_DSP/FilteringFunctions/arm_fir_lattice_q15.c ****       fnext4 = __SSAT(fnext4, 16);
 176:../Dave/Generated/CMSIS_DSP/FilteringFunctions/arm_fir_lattice_q15.c **** 
 177:../Dave/Generated/CMSIS_DSP/FilteringFunctions/arm_fir_lattice_q15.c ****       /* g1(n) = f0(n) * K1  +  g0(n-1) */
 178:../Dave/Generated/CMSIS_DSP/FilteringFunctions/arm_fir_lattice_q15.c ****       /* Calculation of state values for next stage */
 179:../Dave/Generated/CMSIS_DSP/FilteringFunctions/arm_fir_lattice_q15.c ****       gnext4 = (q31_t) ((fcurnt4 * (*pk)) >> 15u) + gnext3;
 180:../Dave/Generated/CMSIS_DSP/FilteringFunctions/arm_fir_lattice_q15.c ****       gnext4 = __SSAT(gnext4, 16);
 181:../Dave/Generated/CMSIS_DSP/FilteringFunctions/arm_fir_lattice_q15.c ****       gnext3 = (q31_t) ((fcurnt3 * (*pk)) >> 15u) + gnext2;
 182:../Dave/Generated/CMSIS_DSP/FilteringFunctions/arm_fir_lattice_q15.c ****       gnext3 = __SSAT(gnext3, 16);
 183:../Dave/Generated/CMSIS_DSP/FilteringFunctions/arm_fir_lattice_q15.c **** 
 184:../Dave/Generated/CMSIS_DSP/FilteringFunctions/arm_fir_lattice_q15.c ****       gnext2 = (q31_t) ((fcurnt2 * (*pk)) >> 15u) + gnext1;
 185:../Dave/Generated/CMSIS_DSP/FilteringFunctions/arm_fir_lattice_q15.c ****       gnext2 = __SSAT(gnext2, 16);
 186:../Dave/Generated/CMSIS_DSP/FilteringFunctions/arm_fir_lattice_q15.c **** 
 187:../Dave/Generated/CMSIS_DSP/FilteringFunctions/arm_fir_lattice_q15.c ****       gnext1 = (q31_t) ((fcurnt1 * (*pk++)) >> 15u) + gcurnt1;
 188:../Dave/Generated/CMSIS_DSP/FilteringFunctions/arm_fir_lattice_q15.c ****       gnext1 = __SSAT(gnext1, 16);
 189:../Dave/Generated/CMSIS_DSP/FilteringFunctions/arm_fir_lattice_q15.c **** 
 190:../Dave/Generated/CMSIS_DSP/FilteringFunctions/arm_fir_lattice_q15.c **** 
 191:../Dave/Generated/CMSIS_DSP/FilteringFunctions/arm_fir_lattice_q15.c ****       /* Read g2(n-1), g4(n-1) .... from state */
 192:../Dave/Generated/CMSIS_DSP/FilteringFunctions/arm_fir_lattice_q15.c ****       gcurnt1 = *px;
 257              	 .loc 1 192 0
 258 010a 36F8062C 	 ldrh r2,[r6,#-6]
 259              	.LVL18:
 260 010e 0492     	 str r2,[sp,#16]
 161:../Dave/Generated/CMSIS_DSP/FilteringFunctions/arm_fir_lattice_q15.c ****       fnext1 = __SSAT(fnext1, 16);
 261              	 .loc 1 161 0
 262 0110 0FFA8EFA 	 sxth r10,lr
 263              	.LVL19:
 193:../Dave/Generated/CMSIS_DSP/FilteringFunctions/arm_fir_lattice_q15.c **** 
 194:../Dave/Generated/CMSIS_DSP/FilteringFunctions/arm_fir_lattice_q15.c ****       /* save g1(n) in state buffer */
 195:../Dave/Generated/CMSIS_DSP/FilteringFunctions/arm_fir_lattice_q15.c ****       *px++ = (q15_t) gnext4;
 196:../Dave/Generated/CMSIS_DSP/FilteringFunctions/arm_fir_lattice_q15.c **** 
 197:../Dave/Generated/CMSIS_DSP/FilteringFunctions/arm_fir_lattice_q15.c ****       /* Sample processing for K3, K7.... */
 198:../Dave/Generated/CMSIS_DSP/FilteringFunctions/arm_fir_lattice_q15.c ****       /* Process first sample for 3rd, 7th .. tap */
 199:../Dave/Generated/CMSIS_DSP/FilteringFunctions/arm_fir_lattice_q15.c ****       /* f3(n) = f2(n) +  K3 * g2(n-1) */
 200:../Dave/Generated/CMSIS_DSP/FilteringFunctions/arm_fir_lattice_q15.c ****       fcurnt1 = (q31_t) ((gcurnt1 * (*pk)) >> 15u) + fnext1;
 201:../Dave/Generated/CMSIS_DSP/FilteringFunctions/arm_fir_lattice_q15.c ****       fcurnt1 = __SSAT(fcurnt1, 16);
 202:../Dave/Generated/CMSIS_DSP/FilteringFunctions/arm_fir_lattice_q15.c **** 
 203:../Dave/Generated/CMSIS_DSP/FilteringFunctions/arm_fir_lattice_q15.c ****       /* Process second sample for 3rd, 7th .. tap */
 204:../Dave/Generated/CMSIS_DSP/FilteringFunctions/arm_fir_lattice_q15.c ****       fcurnt2 = (q31_t) ((gnext1 * (*pk)) >> 15u) + fnext2;
 205:../Dave/Generated/CMSIS_DSP/FilteringFunctions/arm_fir_lattice_q15.c ****       fcurnt2 = __SSAT(fcurnt2, 16);
 206:../Dave/Generated/CMSIS_DSP/FilteringFunctions/arm_fir_lattice_q15.c **** 
 207:../Dave/Generated/CMSIS_DSP/FilteringFunctions/arm_fir_lattice_q15.c ****       /* Process third sample for 3rd, 7th .. tap */
 208:../Dave/Generated/CMSIS_DSP/FilteringFunctions/arm_fir_lattice_q15.c ****       fcurnt3 = (q31_t) ((gnext2 * (*pk)) >> 15u) + fnext3;
 209:../Dave/Generated/CMSIS_DSP/FilteringFunctions/arm_fir_lattice_q15.c ****       fcurnt3 = __SSAT(fcurnt3, 16);
 210:../Dave/Generated/CMSIS_DSP/FilteringFunctions/arm_fir_lattice_q15.c **** 
 211:../Dave/Generated/CMSIS_DSP/FilteringFunctions/arm_fir_lattice_q15.c ****       /* Process fourth sample for 3rd, 7th .. tap */
 212:../Dave/Generated/CMSIS_DSP/FilteringFunctions/arm_fir_lattice_q15.c ****       fcurnt4 = (q31_t) ((gnext3 * (*pk)) >> 15u) + fnext4;
 213:../Dave/Generated/CMSIS_DSP/FilteringFunctions/arm_fir_lattice_q15.c ****       fcurnt4 = __SSAT(fcurnt4, 16);
 214:../Dave/Generated/CMSIS_DSP/FilteringFunctions/arm_fir_lattice_q15.c **** 
 215:../Dave/Generated/CMSIS_DSP/FilteringFunctions/arm_fir_lattice_q15.c ****       /* Calculation of state values for next stage */
 216:../Dave/Generated/CMSIS_DSP/FilteringFunctions/arm_fir_lattice_q15.c ****       /* g3(n) = f2(n) * K3  +  g2(n-1) */
 217:../Dave/Generated/CMSIS_DSP/FilteringFunctions/arm_fir_lattice_q15.c ****       gnext4 = (q31_t) ((fnext4 * (*pk)) >> 15u) + gnext3;
 218:../Dave/Generated/CMSIS_DSP/FilteringFunctions/arm_fir_lattice_q15.c ****       gnext4 = __SSAT(gnext4, 16);
 219:../Dave/Generated/CMSIS_DSP/FilteringFunctions/arm_fir_lattice_q15.c **** 
 220:../Dave/Generated/CMSIS_DSP/FilteringFunctions/arm_fir_lattice_q15.c ****       gnext3 = (q31_t) ((fnext3 * (*pk)) >> 15u) + gnext2;
 221:../Dave/Generated/CMSIS_DSP/FilteringFunctions/arm_fir_lattice_q15.c ****       gnext3 = __SSAT(gnext3, 16);
 222:../Dave/Generated/CMSIS_DSP/FilteringFunctions/arm_fir_lattice_q15.c **** 
 223:../Dave/Generated/CMSIS_DSP/FilteringFunctions/arm_fir_lattice_q15.c ****       gnext2 = (q31_t) ((fnext2 * (*pk)) >> 15u) + gnext1;
 224:../Dave/Generated/CMSIS_DSP/FilteringFunctions/arm_fir_lattice_q15.c ****       gnext2 = __SSAT(gnext2, 16);
 225:../Dave/Generated/CMSIS_DSP/FilteringFunctions/arm_fir_lattice_q15.c **** 
 226:../Dave/Generated/CMSIS_DSP/FilteringFunctions/arm_fir_lattice_q15.c ****       gnext1 = (q31_t) ((fnext1 * (*pk++)) >> 15u) + gcurnt1;
 227:../Dave/Generated/CMSIS_DSP/FilteringFunctions/arm_fir_lattice_q15.c ****       gnext1 = __SSAT(gnext1, 16);
 228:../Dave/Generated/CMSIS_DSP/FilteringFunctions/arm_fir_lattice_q15.c **** 
 229:../Dave/Generated/CMSIS_DSP/FilteringFunctions/arm_fir_lattice_q15.c ****       /* Read g1(n-1), g3(n-1) .... from state */
 230:../Dave/Generated/CMSIS_DSP/FilteringFunctions/arm_fir_lattice_q15.c ****       gcurnt1 = *px;
 264              	 .loc 1 230 0
 265 0114 36F8042C 	 ldrh r2,[r6,#-4]
 266 0118 0792     	 str r2,[sp,#28]
 192:../Dave/Generated/CMSIS_DSP/FilteringFunctions/arm_fir_lattice_q15.c **** 
 267              	 .loc 1 192 0
 268 011a 3046     	 mov r0,r6
 179:../Dave/Generated/CMSIS_DSP/FilteringFunctions/arm_fir_lattice_q15.c ****       gnext4 = __SSAT(gnext4, 16);
 269              	 .loc 1 179 0
 270 011c 0AFB0CF2 	 mul r2,r10,ip
 231:../Dave/Generated/CMSIS_DSP/FilteringFunctions/arm_fir_lattice_q15.c **** 
 232:../Dave/Generated/CMSIS_DSP/FilteringFunctions/arm_fir_lattice_q15.c ****       /* save g1(n) in state buffer */
 233:../Dave/Generated/CMSIS_DSP/FilteringFunctions/arm_fir_lattice_q15.c ****       *px++ = (q15_t) gnext4;
 234:../Dave/Generated/CMSIS_DSP/FilteringFunctions/arm_fir_lattice_q15.c **** 
 235:../Dave/Generated/CMSIS_DSP/FilteringFunctions/arm_fir_lattice_q15.c ****       /* Sample processing for K4, K8.... */
 236:../Dave/Generated/CMSIS_DSP/FilteringFunctions/arm_fir_lattice_q15.c ****       /* Process first sample for 4th, 8th .. tap */
 237:../Dave/Generated/CMSIS_DSP/FilteringFunctions/arm_fir_lattice_q15.c ****       /* f4(n) = f3(n) +  K4 * g3(n-1) */
 238:../Dave/Generated/CMSIS_DSP/FilteringFunctions/arm_fir_lattice_q15.c ****       fnext1 = (q31_t) ((gcurnt1 * (*pk)) >> 15u) + fcurnt1;
 239:../Dave/Generated/CMSIS_DSP/FilteringFunctions/arm_fir_lattice_q15.c ****       fnext1 = __SSAT(fnext1, 16);
 240:../Dave/Generated/CMSIS_DSP/FilteringFunctions/arm_fir_lattice_q15.c **** 
 241:../Dave/Generated/CMSIS_DSP/FilteringFunctions/arm_fir_lattice_q15.c ****       /* Process second sample for 4th, 8th .. tap */
 242:../Dave/Generated/CMSIS_DSP/FilteringFunctions/arm_fir_lattice_q15.c ****       /* for sample 2 processing */
 243:../Dave/Generated/CMSIS_DSP/FilteringFunctions/arm_fir_lattice_q15.c ****       fnext2 = (q31_t) ((gnext1 * (*pk)) >> 15u) + fcurnt2;
 244:../Dave/Generated/CMSIS_DSP/FilteringFunctions/arm_fir_lattice_q15.c ****       fnext2 = __SSAT(fnext2, 16);
 245:../Dave/Generated/CMSIS_DSP/FilteringFunctions/arm_fir_lattice_q15.c **** 
 246:../Dave/Generated/CMSIS_DSP/FilteringFunctions/arm_fir_lattice_q15.c ****       /* Process third sample for 4th, 8th .. tap */
 247:../Dave/Generated/CMSIS_DSP/FilteringFunctions/arm_fir_lattice_q15.c ****       fnext3 = (q31_t) ((gnext2 * (*pk)) >> 15u) + fcurnt3;
 248:../Dave/Generated/CMSIS_DSP/FilteringFunctions/arm_fir_lattice_q15.c ****       fnext3 = __SSAT(fnext3, 16);
 249:../Dave/Generated/CMSIS_DSP/FilteringFunctions/arm_fir_lattice_q15.c **** 
 250:../Dave/Generated/CMSIS_DSP/FilteringFunctions/arm_fir_lattice_q15.c ****       /* Process fourth sample for 4th, 8th .. tap */
 251:../Dave/Generated/CMSIS_DSP/FilteringFunctions/arm_fir_lattice_q15.c ****       fnext4 = (q31_t) ((gnext3 * (*pk)) >> 15u) + fcurnt4;
 252:../Dave/Generated/CMSIS_DSP/FilteringFunctions/arm_fir_lattice_q15.c ****       fnext4 = __SSAT(fnext4, 16);
 253:../Dave/Generated/CMSIS_DSP/FilteringFunctions/arm_fir_lattice_q15.c **** 
 254:../Dave/Generated/CMSIS_DSP/FilteringFunctions/arm_fir_lattice_q15.c ****       /* g4(n) = f3(n) * K4  +  g3(n-1) */
 255:../Dave/Generated/CMSIS_DSP/FilteringFunctions/arm_fir_lattice_q15.c ****       /* Calculation of state values for next stage */
 256:../Dave/Generated/CMSIS_DSP/FilteringFunctions/arm_fir_lattice_q15.c ****       gnext4 = (q31_t) ((fcurnt4 * (*pk)) >> 15u) + gnext3;
 257:../Dave/Generated/CMSIS_DSP/FilteringFunctions/arm_fir_lattice_q15.c ****       gnext4 = __SSAT(gnext4, 16);
 258:../Dave/Generated/CMSIS_DSP/FilteringFunctions/arm_fir_lattice_q15.c **** 
 259:../Dave/Generated/CMSIS_DSP/FilteringFunctions/arm_fir_lattice_q15.c ****       gnext3 = (q31_t) ((fcurnt3 * (*pk)) >> 15u) + gnext2;
 260:../Dave/Generated/CMSIS_DSP/FilteringFunctions/arm_fir_lattice_q15.c ****       gnext3 = __SSAT(gnext3, 16);
 261:../Dave/Generated/CMSIS_DSP/FilteringFunctions/arm_fir_lattice_q15.c **** 
 262:../Dave/Generated/CMSIS_DSP/FilteringFunctions/arm_fir_lattice_q15.c ****       gnext2 = (q31_t) ((fcurnt2 * (*pk)) >> 15u) + gnext1;
 263:../Dave/Generated/CMSIS_DSP/FilteringFunctions/arm_fir_lattice_q15.c ****       gnext2 = __SSAT(gnext2, 16);
 264:../Dave/Generated/CMSIS_DSP/FilteringFunctions/arm_fir_lattice_q15.c ****       gnext1 = (q31_t) ((fcurnt1 * (*pk++)) >> 15u) + gcurnt1;
 265:../Dave/Generated/CMSIS_DSP/FilteringFunctions/arm_fir_lattice_q15.c ****       gnext1 = __SSAT(gnext1, 16);
 266:../Dave/Generated/CMSIS_DSP/FilteringFunctions/arm_fir_lattice_q15.c **** 
 267:../Dave/Generated/CMSIS_DSP/FilteringFunctions/arm_fir_lattice_q15.c **** 
 268:../Dave/Generated/CMSIS_DSP/FilteringFunctions/arm_fir_lattice_q15.c ****       /* Read g2(n-1), g4(n-1) .... from state */
 269:../Dave/Generated/CMSIS_DSP/FilteringFunctions/arm_fir_lattice_q15.c ****       gcurnt1 = *px;
 271              	 .loc 1 269 0
 272 0120 36F8026C 	 ldrh r6,[r6,#-2]
 273 0124 0896     	 str r6,[sp,#32]
 179:../Dave/Generated/CMSIS_DSP/FilteringFunctions/arm_fir_lattice_q15.c ****       gnext4 = __SSAT(gnext4, 16);
 274              	 .loc 1 179 0
 275 0126 01EBE232 	 add r2,r1,r2,asr#15
 276              	.LBB10:
 180:../Dave/Generated/CMSIS_DSP/FilteringFunctions/arm_fir_lattice_q15.c ****       gnext3 = (q31_t) ((fcurnt3 * (*pk)) >> 15u) + gnext2;
 277              	 .loc 1 180 0
 278              	
 279 012a 02F30F02 	 ssat r2,#16,r2
 280              	
 281              	 .thumb
 282              	.LBE10:
 195:../Dave/Generated/CMSIS_DSP/FilteringFunctions/arm_fir_lattice_q15.c **** 
 283              	 .loc 1 195 0
 284 012e 20F8062C 	 strh r2,[r0,#-6]
 200:../Dave/Generated/CMSIS_DSP/FilteringFunctions/arm_fir_lattice_q15.c ****       fcurnt1 = __SSAT(fcurnt1, 16);
 285              	 .loc 1 200 0
 286 0132 34F8062C 	 ldrh r2,[r4,#-6]
 174:../Dave/Generated/CMSIS_DSP/FilteringFunctions/arm_fir_lattice_q15.c ****       fnext4 = __SSAT(fnext4, 16);
 287              	 .loc 1 174 0
 288 0136 0AFB01FB 	 mul fp,r10,r1
 200:../Dave/Generated/CMSIS_DSP/FilteringFunctions/arm_fir_lattice_q15.c ****       fcurnt1 = __SSAT(fcurnt1, 16);
 289              	 .loc 1 200 0
 290 013a 16B2     	 sxth r6,r2
 181:../Dave/Generated/CMSIS_DSP/FilteringFunctions/arm_fir_lattice_q15.c ****       gnext3 = __SSAT(gnext3, 16);
 291              	 .loc 1 181 0
 292 013c 0AFB09F7 	 mul r7,r10,r9
 174:../Dave/Generated/CMSIS_DSP/FilteringFunctions/arm_fir_lattice_q15.c ****       fnext4 = __SSAT(fnext4, 16);
 293              	 .loc 1 174 0
 294 0140 0CEBEB3B 	 add fp,ip,fp,asr#15
 295              	.LBB11:
 175:../Dave/Generated/CMSIS_DSP/FilteringFunctions/arm_fir_lattice_q15.c **** 
 296              	 .loc 1 175 0
 297              	
 298 0144 0BF30F0B 	 ssat fp,#16,fp
 299              	
 300              	 .thumb
 301              	.LBE11:
 217:../Dave/Generated/CMSIS_DSP/FilteringFunctions/arm_fir_lattice_q15.c ****       gnext4 = __SSAT(gnext4, 16);
 302              	 .loc 1 217 0
 303 0148 06FB0BF1 	 mul r1,r6,fp
 304              	.LVL20:
 181:../Dave/Generated/CMSIS_DSP/FilteringFunctions/arm_fir_lattice_q15.c ****       gnext3 = __SSAT(gnext3, 16);
 305              	 .loc 1 181 0
 306 014c 08EBE737 	 add r7,r8,r7,asr#15
 170:../Dave/Generated/CMSIS_DSP/FilteringFunctions/arm_fir_lattice_q15.c ****       fnext3 = __SSAT(fnext3, 16);
 307              	 .loc 1 170 0
 308 0150 0AFB08F8 	 mul r8,r10,r8
 309              	.LVL21:
 310              	.LBB12:
 182:../Dave/Generated/CMSIS_DSP/FilteringFunctions/arm_fir_lattice_q15.c **** 
 311              	 .loc 1 182 0
 312              	
 313 0154 07F30F07 	 ssat r7,#16,r7
 314              	
 315              	 .thumb
 316              	.LBE12:
 217:../Dave/Generated/CMSIS_DSP/FilteringFunctions/arm_fir_lattice_q15.c ****       gnext4 = __SSAT(gnext4, 16);
 317              	 .loc 1 217 0
 318 0158 07EBE131 	 add r1,r7,r1,asr#15
 319              	.LBB13:
 218:../Dave/Generated/CMSIS_DSP/FilteringFunctions/arm_fir_lattice_q15.c **** 
 320              	 .loc 1 218 0
 321              	
 322 015c 01F30F01 	 ssat r1,#16,r1
 323              	
 324              	 .thumb
 325              	.LBE13:
 233:../Dave/Generated/CMSIS_DSP/FilteringFunctions/arm_fir_lattice_q15.c **** 
 326              	 .loc 1 233 0
 327 0160 20F8041C 	 strh r1,[r0,#-4]
 238:../Dave/Generated/CMSIS_DSP/FilteringFunctions/arm_fir_lattice_q15.c ****       fnext1 = __SSAT(fnext1, 16);
 328              	 .loc 1 238 0
 329 0164 34F8041C 	 ldrh r1,[r4,#-4]
 330 0168 0591     	 str r1,[sp,#20]
 170:../Dave/Generated/CMSIS_DSP/FilteringFunctions/arm_fir_lattice_q15.c ****       fnext3 = __SSAT(fnext3, 16);
 331              	 .loc 1 170 0
 332 016a 09EBE838 	 add r8,r9,r8,asr#15
 161:../Dave/Generated/CMSIS_DSP/FilteringFunctions/arm_fir_lattice_q15.c ****       fnext1 = __SSAT(fnext1, 16);
 333              	 .loc 1 161 0
 334 016e 1EFB05F9 	 smulbb r9,lr,r5
 335              	.LVL22:
 212:../Dave/Generated/CMSIS_DSP/FilteringFunctions/arm_fir_lattice_q15.c ****       fcurnt4 = __SSAT(fcurnt4, 16);
 336              	 .loc 1 212 0
 337 0172 06FB07F7 	 mul r7,r6,r7
 161:../Dave/Generated/CMSIS_DSP/FilteringFunctions/arm_fir_lattice_q15.c ****       fnext1 = __SSAT(fnext1, 16);
 338              	 .loc 1 161 0
 339 0176 03EBE939 	 add r9,r3,r9,asr#15
 153:../Dave/Generated/CMSIS_DSP/FilteringFunctions/arm_fir_lattice_q15.c **** 
 340              	 .loc 1 153 0
 341 017a 2DB2     	 sxth r5,r5
 342              	.LVL23:
 187:../Dave/Generated/CMSIS_DSP/FilteringFunctions/arm_fir_lattice_q15.c ****       gnext1 = __SSAT(gnext1, 16);
 343              	 .loc 1 187 0
 344 017c 0AFB03F3 	 mul r3,r10,r3
 345              	.LVL24:
 212:../Dave/Generated/CMSIS_DSP/FilteringFunctions/arm_fir_lattice_q15.c ****       fcurnt4 = __SSAT(fcurnt4, 16);
 346              	 .loc 1 212 0
 347 0180 0BEBE73B 	 add fp,fp,r7,asr#15
 187:../Dave/Generated/CMSIS_DSP/FilteringFunctions/arm_fir_lattice_q15.c ****       gnext1 = __SSAT(gnext1, 16);
 348              	 .loc 1 187 0
 349 0184 05EBE335 	 add r5,r5,r3,asr#15
 350              	.LVL25:
 238:../Dave/Generated/CMSIS_DSP/FilteringFunctions/arm_fir_lattice_q15.c ****       fnext1 = __SSAT(fnext1, 16);
 351              	 .loc 1 238 0
 352 0188 BDF91470 	 ldrsh r7,[sp,#20]
 184:../Dave/Generated/CMSIS_DSP/FilteringFunctions/arm_fir_lattice_q15.c ****       gnext2 = __SSAT(gnext2, 16);
 353              	 .loc 1 184 0
 354 018c 039B     	 ldr r3,[sp,#12]
 355              	.LBB14:
 213:../Dave/Generated/CMSIS_DSP/FilteringFunctions/arm_fir_lattice_q15.c **** 
 356              	 .loc 1 213 0
 357              	
 358 018e 0BF30F0C 	 ssat ip,#16,fp
 359              	
 360              	.LVL26:
 361              	 .thumb
 362 0192 6146     	 mov r1,ip
 363              	.LBE14:
 184:../Dave/Generated/CMSIS_DSP/FilteringFunctions/arm_fir_lattice_q15.c ****       gnext2 = __SSAT(gnext2, 16);
 364              	 .loc 1 184 0
 365 0194 0298     	 ldr r0,[sp,#8]
 366              	.LBB15:
 171:../Dave/Generated/CMSIS_DSP/FilteringFunctions/arm_fir_lattice_q15.c ****       /* Process fourth sample for 2nd, 6th .. tap */
 367              	 .loc 1 171 0
 368              	
 369 0196 08F30F0C 	 ssat ip,#16,r8
 370              	
 371              	 .thumb
 372              	.LBE15:
 256:../Dave/Generated/CMSIS_DSP/FilteringFunctions/arm_fir_lattice_q15.c ****       gnext4 = __SSAT(gnext4, 16);
 373              	 .loc 1 256 0
 374 019a 0991     	 str r1,[sp,#36]
 375 019c 07FB01F8 	 mul r8,r7,r1
 184:../Dave/Generated/CMSIS_DSP/FilteringFunctions/arm_fir_lattice_q15.c ****       gnext2 = __SSAT(gnext2, 16);
 376              	 .loc 1 184 0
 377 01a0 0AFB03F1 	 mul r1,r10,r3
 270:../Dave/Generated/CMSIS_DSP/FilteringFunctions/arm_fir_lattice_q15.c **** 
 271:../Dave/Generated/CMSIS_DSP/FilteringFunctions/arm_fir_lattice_q15.c ****       /* save g4(n) in state buffer */
 272:../Dave/Generated/CMSIS_DSP/FilteringFunctions/arm_fir_lattice_q15.c ****       *px++ = (q15_t) gnext4;
 378              	 .loc 1 272 0
 379 01a4 019B     	 ldr r3,[sp,#4]
 380              	.LBB16:
 188:../Dave/Generated/CMSIS_DSP/FilteringFunctions/arm_fir_lattice_q15.c **** 
 381              	 .loc 1 188 0
 382              	
 383 01a6 05F30F05 	 ssat r5,#16,r5
 384              	
 385              	 .thumb
 386              	.LBE16:
 220:../Dave/Generated/CMSIS_DSP/FilteringFunctions/arm_fir_lattice_q15.c ****       gnext3 = __SSAT(gnext3, 16);
 387              	 .loc 1 220 0
 388 01aa 06FB0CFB 	 mul fp,r6,ip
 184:../Dave/Generated/CMSIS_DSP/FilteringFunctions/arm_fir_lattice_q15.c ****       gnext2 = __SSAT(gnext2, 16);
 389              	 .loc 1 184 0
 390 01ae 00EBE131 	 add r1,r0,r1,asr#15
 391              	.LBB17:
 185:../Dave/Generated/CMSIS_DSP/FilteringFunctions/arm_fir_lattice_q15.c **** 
 392              	 .loc 1 185 0
 393              	
 394 01b2 01F30F01 	 ssat r1,#16,r1
 395              	
 396              	 .thumb
 397              	.LBE17:
 220:../Dave/Generated/CMSIS_DSP/FilteringFunctions/arm_fir_lattice_q15.c ****       gnext3 = __SSAT(gnext3, 16);
 398              	 .loc 1 220 0
 399 01b6 01EBEB3E 	 add lr,r1,fp,asr#15
 400              	.LBB18:
 221:../Dave/Generated/CMSIS_DSP/FilteringFunctions/arm_fir_lattice_q15.c **** 
 401              	 .loc 1 221 0
 402              	
 403 01ba 0EF30F0E 	 ssat lr,#16,lr
 404              	
 405              	 .thumb
 406              	.LBE18:
 256:../Dave/Generated/CMSIS_DSP/FilteringFunctions/arm_fir_lattice_q15.c ****       gnext4 = __SSAT(gnext4, 16);
 407              	 .loc 1 256 0
 408 01be 0EEBE838 	 add r8,lr,r8,asr#15
 409              	.LBB19:
 257:../Dave/Generated/CMSIS_DSP/FilteringFunctions/arm_fir_lattice_q15.c **** 
 410              	 .loc 1 257 0
 411              	
 412 01c2 08F30F08 	 ssat r8,#16,r8
 413              	
 414              	 .thumb
 415              	.LBE19:
 416              	 .loc 1 272 0
 417 01c6 23F8028C 	 strh r8,[r3,#-2]
 200:../Dave/Generated/CMSIS_DSP/FilteringFunctions/arm_fir_lattice_q15.c ****       fcurnt1 = __SSAT(fcurnt1, 16);
 418              	 .loc 1 200 0
 419 01ca BDF81030 	 ldrh r3,[sp,#16]
 273:../Dave/Generated/CMSIS_DSP/FilteringFunctions/arm_fir_lattice_q15.c **** 
 274:../Dave/Generated/CMSIS_DSP/FilteringFunctions/arm_fir_lattice_q15.c ****       /* Sample processing for K5, K9.... */
 275:../Dave/Generated/CMSIS_DSP/FilteringFunctions/arm_fir_lattice_q15.c ****       /* Process first sample for 5th, 9th .. tap */
 276:../Dave/Generated/CMSIS_DSP/FilteringFunctions/arm_fir_lattice_q15.c ****       /* f5(n) = f4(n) +  K5 * g4(n-1) */
 277:../Dave/Generated/CMSIS_DSP/FilteringFunctions/arm_fir_lattice_q15.c ****       fcurnt1 = (q31_t) ((gcurnt1 * (*pk)) >> 15u) + fnext1;
 420              	 .loc 1 277 0
 421 01ce 34F802BC 	 ldrh fp,[r4,#-2]
 422              	.LBB20:
 162:../Dave/Generated/CMSIS_DSP/FilteringFunctions/arm_fir_lattice_q15.c **** 
 423              	 .loc 1 162 0
 424              	
 425 01d2 09F30F09 	 ssat r9,#16,r9
 426              	
 427              	.LVL27:
 428              	 .thumb
 429              	.LBE20:
 200:../Dave/Generated/CMSIS_DSP/FilteringFunctions/arm_fir_lattice_q15.c ****       fcurnt1 = __SSAT(fcurnt1, 16);
 430              	 .loc 1 200 0
 431 01d6 12FB03F8 	 smulbb r8,r2,r3
 167:../Dave/Generated/CMSIS_DSP/FilteringFunctions/arm_fir_lattice_q15.c ****       fnext2 = __SSAT(fnext2, 16);
 432              	 .loc 1 167 0
 433 01da 039B     	 ldr r3,[sp,#12]
 434              	 .loc 1 277 0
 435 01dc 0294     	 str r4,[sp,#8]
 436              	.LVL28:
 167:../Dave/Generated/CMSIS_DSP/FilteringFunctions/arm_fir_lattice_q15.c ****       fnext2 = __SSAT(fnext2, 16);
 437              	 .loc 1 167 0
 438 01de 0AFB00FA 	 mul r10,r10,r0
 439              	.LVL29:
 440 01e2 03EBEA32 	 add r2,r3,r10,asr#15
 441              	.LVL30:
 238:../Dave/Generated/CMSIS_DSP/FilteringFunctions/arm_fir_lattice_q15.c ****       fnext1 = __SSAT(fnext1, 16);
 442              	 .loc 1 238 0
 443 01e6 DDF81CA0 	 ldr r10,[sp,#28]
 444 01ea BDF81430 	 ldrh r3,[sp,#20]
 192:../Dave/Generated/CMSIS_DSP/FilteringFunctions/arm_fir_lattice_q15.c **** 
 445              	 .loc 1 192 0
 446 01ee BDF91000 	 ldrsh r0,[sp,#16]
 447              	.LVL31:
 448              	.LBB21:
 168:../Dave/Generated/CMSIS_DSP/FilteringFunctions/arm_fir_lattice_q15.c ****       /* Process third sample for 2nd, 6th .. tap */
 449              	 .loc 1 168 0
 450              	
 451 01f2 02F30F02 	 ssat r2,#16,r2
 452              	
 453              	.LVL32:
 454              	 .thumb
 455              	.LBE21:
 208:../Dave/Generated/CMSIS_DSP/FilteringFunctions/arm_fir_lattice_q15.c ****       fcurnt3 = __SSAT(fcurnt3, 16);
 456              	 .loc 1 208 0
 457 01f6 06FB01F1 	 mul r1,r6,r1
 458              	.LVL33:
 204:../Dave/Generated/CMSIS_DSP/FilteringFunctions/arm_fir_lattice_q15.c ****       fcurnt2 = __SSAT(fcurnt2, 16);
 459              	 .loc 1 204 0
 460 01fa 06FB05F4 	 mul r4,r6,r5
 200:../Dave/Generated/CMSIS_DSP/FilteringFunctions/arm_fir_lattice_q15.c ****       fcurnt1 = __SSAT(fcurnt1, 16);
 461              	 .loc 1 200 0
 462 01fe 09EBE838 	 add r8,r9,r8,asr#15
 238:../Dave/Generated/CMSIS_DSP/FilteringFunctions/arm_fir_lattice_q15.c ****       fnext1 = __SSAT(fnext1, 16);
 463              	 .loc 1 238 0
 464 0202 13FB0AF3 	 smulbb r3,r3,r10
 226:../Dave/Generated/CMSIS_DSP/FilteringFunctions/arm_fir_lattice_q15.c ****       gnext1 = __SSAT(gnext1, 16);
 465              	 .loc 1 226 0
 466 0206 06FB09F9 	 mul r9,r6,r9
 467              	.LVL34:
 468              	.LBB22:
 201:../Dave/Generated/CMSIS_DSP/FilteringFunctions/arm_fir_lattice_q15.c **** 
 469              	 .loc 1 201 0
 470              	
 471 020a 08F30F08 	 ssat r8,#16,r8
 472              	
 473              	.LVL35:
 474              	 .thumb
 475              	.LBE22:
 223:../Dave/Generated/CMSIS_DSP/FilteringFunctions/arm_fir_lattice_q15.c ****       gnext2 = __SSAT(gnext2, 16);
 476              	 .loc 1 223 0
 477 020e 06FB02F6 	 mul r6,r6,r2
 478              	.LVL36:
 208:../Dave/Generated/CMSIS_DSP/FilteringFunctions/arm_fir_lattice_q15.c ****       fcurnt3 = __SSAT(fcurnt3, 16);
 479              	 .loc 1 208 0
 480 0212 0CEBE131 	 add r1,ip,r1,asr#15
 230:../Dave/Generated/CMSIS_DSP/FilteringFunctions/arm_fir_lattice_q15.c **** 
 481              	 .loc 1 230 0
 482 0216 0FFA8AFA 	 sxth r10,r10
 264:../Dave/Generated/CMSIS_DSP/FilteringFunctions/arm_fir_lattice_q15.c ****       gnext1 = __SSAT(gnext1, 16);
 483              	 .loc 1 264 0
 484 021a 07FB08FC 	 mul ip,r7,r8
 485              	.LVL37:
 226:../Dave/Generated/CMSIS_DSP/FilteringFunctions/arm_fir_lattice_q15.c ****       gnext1 = __SSAT(gnext1, 16);
 486              	 .loc 1 226 0
 487 021e 00EBE930 	 add r0,r0,r9,asr#15
 251:../Dave/Generated/CMSIS_DSP/FilteringFunctions/arm_fir_lattice_q15.c ****       fnext4 = __SSAT(fnext4, 16);
 488              	 .loc 1 251 0
 489 0222 07FB0EFE 	 mul lr,r7,lr
 490              	.LBB23:
 227:../Dave/Generated/CMSIS_DSP/FilteringFunctions/arm_fir_lattice_q15.c **** 
 491              	 .loc 1 227 0
 492              	
 493 0226 00F30F00 	 ssat r0,#16,r0
 494              	
 495              	 .thumb
 496              	.LBE23:
 204:../Dave/Generated/CMSIS_DSP/FilteringFunctions/arm_fir_lattice_q15.c ****       fcurnt2 = __SSAT(fcurnt2, 16);
 497              	 .loc 1 204 0
 498 022a 02EBE432 	 add r2,r2,r4,asr#15
 499              	.LVL38:
 243:../Dave/Generated/CMSIS_DSP/FilteringFunctions/arm_fir_lattice_q15.c ****       fnext2 = __SSAT(fnext2, 16);
 500              	 .loc 1 243 0
 501 022e 07FB00F9 	 mul r9,r7,r0
 502              	.LBB24:
 209:../Dave/Generated/CMSIS_DSP/FilteringFunctions/arm_fir_lattice_q15.c **** 
 503              	 .loc 1 209 0
 504              	
 505 0232 01F30F01 	 ssat r1,#16,r1
 506              	
 507              	 .thumb
 508              	.LBE24:
 509              	.LBB25:
 205:../Dave/Generated/CMSIS_DSP/FilteringFunctions/arm_fir_lattice_q15.c **** 
 510              	 .loc 1 205 0
 511              	
 512 0236 02F30F02 	 ssat r2,#16,r2
 513              	
 514              	.LVL39:
 515              	 .thumb
 516              	.LBE25:
 223:../Dave/Generated/CMSIS_DSP/FilteringFunctions/arm_fir_lattice_q15.c ****       gnext2 = __SSAT(gnext2, 16);
 517              	 .loc 1 223 0
 518 023a 05EBE636 	 add r6,r5,r6,asr#15
 238:../Dave/Generated/CMSIS_DSP/FilteringFunctions/arm_fir_lattice_q15.c ****       fnext1 = __SSAT(fnext1, 16);
 519              	 .loc 1 238 0
 520 023e 08EBE333 	 add r3,r8,r3,asr#15
 521              	.LBB26:
 224:../Dave/Generated/CMSIS_DSP/FilteringFunctions/arm_fir_lattice_q15.c **** 
 522              	 .loc 1 224 0
 523              	
 524 0242 06F30F06 	 ssat r6,#16,r6
 525              	
 526              	.LVL40:
 527              	 .thumb
 528              	.LBE26:
 262:../Dave/Generated/CMSIS_DSP/FilteringFunctions/arm_fir_lattice_q15.c ****       gnext2 = __SSAT(gnext2, 16);
 529              	 .loc 1 262 0
 530 0246 07FB02F8 	 mul r8,r7,r2
 531              	.LVL41:
 264:../Dave/Generated/CMSIS_DSP/FilteringFunctions/arm_fir_lattice_q15.c ****       gnext1 = __SSAT(gnext1, 16);
 532              	 .loc 1 264 0
 533 024a 0AEBEC3A 	 add r10,r10,ip,asr#15
 247:../Dave/Generated/CMSIS_DSP/FilteringFunctions/arm_fir_lattice_q15.c ****       fnext3 = __SSAT(fnext3, 16);
 534              	 .loc 1 247 0
 535 024e 07FB06FC 	 mul ip,r7,r6
 259:../Dave/Generated/CMSIS_DSP/FilteringFunctions/arm_fir_lattice_q15.c ****       gnext3 = __SSAT(gnext3, 16);
 536              	 .loc 1 259 0
 537 0252 07FB01F7 	 mul r7,r7,r1
 538              	 .loc 1 277 0
 539 0256 0FFA8BF5 	 sxth r5,fp
 540              	.LVL42:
 259:../Dave/Generated/CMSIS_DSP/FilteringFunctions/arm_fir_lattice_q15.c ****       gnext3 = __SSAT(gnext3, 16);
 541              	 .loc 1 259 0
 542 025a 0397     	 str r7,[sp,#12]
 251:../Dave/Generated/CMSIS_DSP/FilteringFunctions/arm_fir_lattice_q15.c ****       fnext4 = __SSAT(fnext4, 16);
 543              	 .loc 1 251 0
 544 025c 099F     	 ldr r7,[sp,#36]
 545              	.LBB27:
 239:../Dave/Generated/CMSIS_DSP/FilteringFunctions/arm_fir_lattice_q15.c **** 
 546              	 .loc 1 239 0
 547              	
 548 025e 03F30F03 	 ssat r3,#16,r3
 549              	
 550              	.LVL43:
 551              	 .thumb
 552              	.LBE27:
 553              	.LBB28:
 265:../Dave/Generated/CMSIS_DSP/FilteringFunctions/arm_fir_lattice_q15.c **** 
 554              	 .loc 1 265 0
 555              	
 556 0262 0AF30F0A 	 ssat r10,#16,r10
 557              	
 558              	 .thumb
 559              	.LBE28:
 243:../Dave/Generated/CMSIS_DSP/FilteringFunctions/arm_fir_lattice_q15.c ****       fnext2 = __SSAT(fnext2, 16);
 560              	 .loc 1 243 0
 561 0266 02EBE932 	 add r2,r2,r9,asr#15
 562              	.LVL44:
 563              	.LBB29:
 265:../Dave/Generated/CMSIS_DSP/FilteringFunctions/arm_fir_lattice_q15.c **** 
 564              	 .loc 1 265 0
 565 026a 5446     	 mov r4,r10
 566              	.LBE29:
 278:../Dave/Generated/CMSIS_DSP/FilteringFunctions/arm_fir_lattice_q15.c ****       fcurnt1 = __SSAT(fcurnt1, 16);
 279:../Dave/Generated/CMSIS_DSP/FilteringFunctions/arm_fir_lattice_q15.c **** 
 280:../Dave/Generated/CMSIS_DSP/FilteringFunctions/arm_fir_lattice_q15.c ****       /* Process second sample for 5th, 9th .. tap */
 281:../Dave/Generated/CMSIS_DSP/FilteringFunctions/arm_fir_lattice_q15.c ****       fcurnt2 = (q31_t) ((gnext1 * (*pk)) >> 15u) + fnext2;
 282:../Dave/Generated/CMSIS_DSP/FilteringFunctions/arm_fir_lattice_q15.c ****       fcurnt2 = __SSAT(fcurnt2, 16);
 283:../Dave/Generated/CMSIS_DSP/FilteringFunctions/arm_fir_lattice_q15.c **** 
 284:../Dave/Generated/CMSIS_DSP/FilteringFunctions/arm_fir_lattice_q15.c ****       /* Process third sample for 5th, 9th .. tap */
 285:../Dave/Generated/CMSIS_DSP/FilteringFunctions/arm_fir_lattice_q15.c ****       fcurnt3 = (q31_t) ((gnext2 * (*pk)) >> 15u) + fnext3;
 286:../Dave/Generated/CMSIS_DSP/FilteringFunctions/arm_fir_lattice_q15.c ****       fcurnt3 = __SSAT(fcurnt3, 16);
 287:../Dave/Generated/CMSIS_DSP/FilteringFunctions/arm_fir_lattice_q15.c **** 
 288:../Dave/Generated/CMSIS_DSP/FilteringFunctions/arm_fir_lattice_q15.c ****       /* Process fourth sample for 5th, 9th .. tap */
 289:../Dave/Generated/CMSIS_DSP/FilteringFunctions/arm_fir_lattice_q15.c ****       fcurnt4 = (q31_t) ((gnext3 * (*pk)) >> 15u) + fnext4;
 290:../Dave/Generated/CMSIS_DSP/FilteringFunctions/arm_fir_lattice_q15.c ****       fcurnt4 = __SSAT(fcurnt4, 16);
 291:../Dave/Generated/CMSIS_DSP/FilteringFunctions/arm_fir_lattice_q15.c **** 
 292:../Dave/Generated/CMSIS_DSP/FilteringFunctions/arm_fir_lattice_q15.c ****       /* Calculation of state values for next stage */
 293:../Dave/Generated/CMSIS_DSP/FilteringFunctions/arm_fir_lattice_q15.c ****       /* g5(n) = f4(n) * K5  +  g4(n-1) */
 294:../Dave/Generated/CMSIS_DSP/FilteringFunctions/arm_fir_lattice_q15.c ****       gnext4 = (q31_t) ((fnext4 * (*pk)) >> 15u) + gnext3;
 295:../Dave/Generated/CMSIS_DSP/FilteringFunctions/arm_fir_lattice_q15.c ****       gnext4 = __SSAT(gnext4, 16);
 296:../Dave/Generated/CMSIS_DSP/FilteringFunctions/arm_fir_lattice_q15.c ****       gnext3 = (q31_t) ((fnext3 * (*pk)) >> 15u) + gnext2;
 297:../Dave/Generated/CMSIS_DSP/FilteringFunctions/arm_fir_lattice_q15.c ****       gnext3 = __SSAT(gnext3, 16);
 298:../Dave/Generated/CMSIS_DSP/FilteringFunctions/arm_fir_lattice_q15.c ****       gnext2 = (q31_t) ((fnext2 * (*pk)) >> 15u) + gnext1;
 299:../Dave/Generated/CMSIS_DSP/FilteringFunctions/arm_fir_lattice_q15.c ****       gnext2 = __SSAT(gnext2, 16);
 300:../Dave/Generated/CMSIS_DSP/FilteringFunctions/arm_fir_lattice_q15.c ****       gnext1 = (q31_t) ((fnext1 * (*pk++)) >> 15u) + gcurnt1;
 567              	 .loc 1 300 0
 568 026c 05FB03F9 	 mul r9,r5,r3
 251:../Dave/Generated/CMSIS_DSP/FilteringFunctions/arm_fir_lattice_q15.c ****       fnext4 = __SSAT(fnext4, 16);
 569              	 .loc 1 251 0
 570 0270 07EBEE3E 	 add lr,r7,lr,asr#15
 571              	 .loc 1 300 0
 572 0274 CDF81C90 	 str r9,[sp,#28]
 277:../Dave/Generated/CMSIS_DSP/FilteringFunctions/arm_fir_lattice_q15.c ****       fcurnt1 = __SSAT(fcurnt1, 16);
 573              	 .loc 1 277 0
 574 0278 089F     	 ldr r7,[sp,#32]
 281:../Dave/Generated/CMSIS_DSP/FilteringFunctions/arm_fir_lattice_q15.c ****       fcurnt2 = __SSAT(fcurnt2, 16);
 575              	 .loc 1 281 0
 576 027a 0594     	 str r4,[sp,#20]
 577 027c 05FB04F9 	 mul r9,r5,r4
 578 0280 019C     	 ldr r4,[sp,#4]
 579              	.LBB30:
 252:../Dave/Generated/CMSIS_DSP/FilteringFunctions/arm_fir_lattice_q15.c **** 
 580              	 .loc 1 252 0
 581              	
 582 0282 0EF30F0A 	 ssat r10,#16,lr
 583              	
 584              	 .thumb
 585 0286 0834     	 adds r4,r4,#8
 586 0288 0194     	 str r4,[sp,#4]
 587              	.LVL45:
 588 028a 029C     	 ldr r4,[sp,#8]
 589              	.LVL46:
 590              	.LBE30:
 591              	.LBB31:
 244:../Dave/Generated/CMSIS_DSP/FilteringFunctions/arm_fir_lattice_q15.c **** 
 592              	 .loc 1 244 0
 593              	
 594 028c 02F30F02 	 ssat r2,#16,r2
 595              	
 596              	 .thumb
 597              	.LBE31:
 277:../Dave/Generated/CMSIS_DSP/FilteringFunctions/arm_fir_lattice_q15.c ****       fcurnt1 = __SSAT(fcurnt1, 16);
 598              	 .loc 1 277 0
 599 0290 1BFB07FB 	 smulbb fp,fp,r7
 269:../Dave/Generated/CMSIS_DSP/FilteringFunctions/arm_fir_lattice_q15.c **** 
 600              	 .loc 1 269 0
 601 0294 0FFA87FE 	 sxth lr,r7
 602              	.LVL47:
 259:../Dave/Generated/CMSIS_DSP/FilteringFunctions/arm_fir_lattice_q15.c ****       gnext3 = __SSAT(gnext3, 16);
 603              	 .loc 1 259 0
 604 0298 039F     	 ldr r7,[sp,#12]
 605 029a 0834     	 adds r4,r4,#8
 262:../Dave/Generated/CMSIS_DSP/FilteringFunctions/arm_fir_lattice_q15.c ****       gnext2 = __SSAT(gnext2, 16);
 606              	 .loc 1 262 0
 607 029c 00EBE830 	 add r0,r0,r8,asr#15
 608              	.LVL48:
 247:../Dave/Generated/CMSIS_DSP/FilteringFunctions/arm_fir_lattice_q15.c ****       fnext3 = __SSAT(fnext3, 16);
 609              	 .loc 1 247 0
 610 02a0 01EBEC31 	 add r1,r1,ip,asr#15
 611              	.LVL49:
 612              	.LBB32:
 263:../Dave/Generated/CMSIS_DSP/FilteringFunctions/arm_fir_lattice_q15.c ****       gnext1 = (q31_t) ((fcurnt1 * (*pk++)) >> 15u) + gcurnt1;
 613              	 .loc 1 263 0
 614              	
 615 02a4 00F30F00 	 ssat r0,#16,r0
 616              	
 617              	 .thumb
 618              	.LBE32:
 619              	.LBB33:
 248:../Dave/Generated/CMSIS_DSP/FilteringFunctions/arm_fir_lattice_q15.c **** 
 620              	 .loc 1 248 0
 621              	
 622 02a8 01F30F01 	 ssat r1,#16,r1
 623              	
 624              	.LVL50:
 625              	 .thumb
 626              	.LBE33:
 259:../Dave/Generated/CMSIS_DSP/FilteringFunctions/arm_fir_lattice_q15.c ****       gnext3 = __SSAT(gnext3, 16);
 627              	 .loc 1 259 0
 628 02ac 06EBE737 	 add r7,r6,r7,asr#15
 296:../Dave/Generated/CMSIS_DSP/FilteringFunctions/arm_fir_lattice_q15.c ****       gnext3 = __SSAT(gnext3, 16);
 629              	 .loc 1 296 0
 630 02b0 05FB01FC 	 mul ip,r5,r1
 285:../Dave/Generated/CMSIS_DSP/FilteringFunctions/arm_fir_lattice_q15.c ****       fcurnt3 = __SSAT(fcurnt3, 16);
 631              	 .loc 1 285 0
 632 02b4 05FB00F6 	 mul r6,r5,r0
 633              	.LVL51:
 634 02b8 0494     	 str r4,[sp,#16]
 635              	 .loc 1 300 0
 636 02ba 079C     	 ldr r4,[sp,#28]
 637              	.LBB34:
 260:../Dave/Generated/CMSIS_DSP/FilteringFunctions/arm_fir_lattice_q15.c **** 
 638              	 .loc 1 260 0
 639              	
 640 02bc 07F30F07 	 ssat r7,#16,r7
 641              	
 642              	.LVL52:
 643              	 .thumb
 644              	.LBE34:
 296:../Dave/Generated/CMSIS_DSP/FilteringFunctions/arm_fir_lattice_q15.c ****       gnext3 = __SSAT(gnext3, 16);
 645              	 .loc 1 296 0
 646 02c0 00EBEC30 	 add r0,r0,ip,asr#15
 647              	.LVL53:
 285:../Dave/Generated/CMSIS_DSP/FilteringFunctions/arm_fir_lattice_q15.c ****       fcurnt3 = __SSAT(fcurnt3, 16);
 648              	 .loc 1 285 0
 649 02c4 01EBE636 	 add r6,r1,r6,asr#15
 650              	.LBB35:
 297:../Dave/Generated/CMSIS_DSP/FilteringFunctions/arm_fir_lattice_q15.c ****       gnext2 = (q31_t) ((fnext2 * (*pk)) >> 15u) + gnext1;
 651              	 .loc 1 297 0
 652              	
 653 02c8 00F30F01 	 ssat r1,#16,r0
 654              	
 655              	.LVL54:
 656              	 .thumb
 657              	.LBE35:
 150:../Dave/Generated/CMSIS_DSP/FilteringFunctions/arm_fir_lattice_q15.c ****     {
 658              	 .loc 1 150 0
 659 02cc 0698     	 ldr r0,[sp,#24]
 660              	 .loc 1 300 0
 661 02ce 0EEBE43E 	 add lr,lr,r4,asr#15
 662              	.LBB36:
 301:../Dave/Generated/CMSIS_DSP/FilteringFunctions/arm_fir_lattice_q15.c ****       gnext1 = __SSAT(gnext1, 16);
 663              	 .loc 1 301 0
 664              	
 665 02d2 0EF30F04 	 ssat r4,#16,lr
 666              	
 667              	 .thumb
 668 02d6 0294     	 str r4,[sp,#8]
 669              	.LVL55:
 670              	.LBE36:
 298:../Dave/Generated/CMSIS_DSP/FilteringFunctions/arm_fir_lattice_q15.c ****       gnext2 = __SSAT(gnext2, 16);
 671              	 .loc 1 298 0
 672 02d8 059C     	 ldr r4,[sp,#20]
 673 02da 05FB02F8 	 mul r8,r5,r2
 277:../Dave/Generated/CMSIS_DSP/FilteringFunctions/arm_fir_lattice_q15.c ****       fcurnt1 = __SSAT(fcurnt1, 16);
 674              	 .loc 1 277 0
 675 02de 03EBEB33 	 add r3,r3,fp,asr#15
 676              	.LVL56:
 150:../Dave/Generated/CMSIS_DSP/FilteringFunctions/arm_fir_lattice_q15.c ****     {
 677              	 .loc 1 150 0
 678 02e2 0138     	 subs r0,r0,#1
 289:../Dave/Generated/CMSIS_DSP/FilteringFunctions/arm_fir_lattice_q15.c ****       fcurnt4 = __SSAT(fcurnt4, 16);
 679              	 .loc 1 289 0
 680 02e4 05FB07FB 	 mul fp,r5,r7
 294:../Dave/Generated/CMSIS_DSP/FilteringFunctions/arm_fir_lattice_q15.c ****       gnext4 = __SSAT(gnext4, 16);
 681              	 .loc 1 294 0
 682 02e8 05FB0AF5 	 mul r5,r5,r10
 281:../Dave/Generated/CMSIS_DSP/FilteringFunctions/arm_fir_lattice_q15.c ****       fcurnt2 = __SSAT(fcurnt2, 16);
 683              	 .loc 1 281 0
 684 02ec 02EBE932 	 add r2,r2,r9,asr#15
 685              	.LVL57:
 298:../Dave/Generated/CMSIS_DSP/FilteringFunctions/arm_fir_lattice_q15.c ****       gnext2 = __SSAT(gnext2, 16);
 686              	 .loc 1 298 0
 687 02f0 04EBE838 	 add r8,r4,r8,asr#15
 688              	.LBB37:
 282:../Dave/Generated/CMSIS_DSP/FilteringFunctions/arm_fir_lattice_q15.c **** 
 689              	 .loc 1 282 0
 690              	
 691 02f4 02F30F02 	 ssat r2,#16,r2
 692              	
 693              	 .thumb
 694              	.LBE37:
 289:../Dave/Generated/CMSIS_DSP/FilteringFunctions/arm_fir_lattice_q15.c ****       fcurnt4 = __SSAT(fcurnt4, 16);
 695              	 .loc 1 289 0
 696 02f8 0AEBEB3B 	 add fp,r10,fp,asr#15
 697              	.LBB38:
 282:../Dave/Generated/CMSIS_DSP/FilteringFunctions/arm_fir_lattice_q15.c **** 
 698              	 .loc 1 282 0
 699 02fc 0392     	 str r2,[sp,#12]
 700              	.LBE38:
 294:../Dave/Generated/CMSIS_DSP/FilteringFunctions/arm_fir_lattice_q15.c ****       gnext4 = __SSAT(gnext4, 16);
 701              	 .loc 1 294 0
 702 02fe 07EBE535 	 add r5,r7,r5,asr#15
 703              	.LBB39:
 278:../Dave/Generated/CMSIS_DSP/FilteringFunctions/arm_fir_lattice_q15.c **** 
 704              	 .loc 1 278 0
 705              	
 706 0302 03F30F03 	 ssat r3,#16,r3
 707              	
 708              	.LVL58:
 709              	 .thumb
 710              	.LBE39:
 711              	.LBB40:
 299:../Dave/Generated/CMSIS_DSP/FilteringFunctions/arm_fir_lattice_q15.c ****       gnext1 = (q31_t) ((fnext1 * (*pk++)) >> 15u) + gcurnt1;
 712              	 .loc 1 299 0
 713              	
 714 0306 08F30F08 	 ssat r8,#16,r8
 715              	
 716              	 .thumb
 717              	.LBE40:
 718              	.LBB41:
 286:../Dave/Generated/CMSIS_DSP/FilteringFunctions/arm_fir_lattice_q15.c **** 
 719              	 .loc 1 286 0
 720              	
 721 030a 06F30F09 	 ssat r9,#16,r6
 722              	
 723              	.LVL59:
 724              	 .thumb
 725              	.LBE41:
 726              	.LBB42:
 290:../Dave/Generated/CMSIS_DSP/FilteringFunctions/arm_fir_lattice_q15.c **** 
 727              	 .loc 1 290 0
 728              	
 729 030e 0BF30F0C 	 ssat ip,#16,fp
 730              	
 731              	.LVL60:
 732              	 .thumb
 733              	.LBE42:
 734              	.LBB43:
 295:../Dave/Generated/CMSIS_DSP/FilteringFunctions/arm_fir_lattice_q15.c ****       gnext3 = (q31_t) ((fnext3 * (*pk)) >> 15u) + gnext2;
 735              	 .loc 1 295 0
 736              	
 737 0312 05F30F02 	 ssat r2,#16,r5
 738              	
 739              	.LVL61:
 740              	 .thumb
 741              	.LBE43:
 150:../Dave/Generated/CMSIS_DSP/FilteringFunctions/arm_fir_lattice_q15.c ****     {
 742              	 .loc 1 150 0
 743 0316 0690     	 str r0,[sp,#24]
 744 0318 7FF4EFAE 	 bne .L4
 745 031c 9B46     	 mov fp,r3
 746 031e 8A46     	 mov r10,r1
 747              	.LVL62:
 748 0320 4346     	 mov r3,r8
 749              	.LVL63:
 300:../Dave/Generated/CMSIS_DSP/FilteringFunctions/arm_fir_lattice_q15.c ****       gnext1 = __SSAT(gnext1, 16);
 750              	 .loc 1 300 0
 751 0322 1199     	 ldr r1,[sp,#68]
 752              	.LVL64:
 272:../Dave/Generated/CMSIS_DSP/FilteringFunctions/arm_fir_lattice_q15.c **** 
 753              	 .loc 1 272 0
 754 0324 DDF84880 	 ldr r8,[sp,#72]
 755              	.LVL65:
 300:../Dave/Generated/CMSIS_DSP/FilteringFunctions/arm_fir_lattice_q15.c ****       gnext1 = __SSAT(gnext1, 16);
 756              	 .loc 1 300 0
 757 0328 0491     	 str r1,[sp,#16]
 758              	.LVL66:
 759              	.L3:
 302:../Dave/Generated/CMSIS_DSP/FilteringFunctions/arm_fir_lattice_q15.c **** 
 303:../Dave/Generated/CMSIS_DSP/FilteringFunctions/arm_fir_lattice_q15.c ****       stageCnt--;
 304:../Dave/Generated/CMSIS_DSP/FilteringFunctions/arm_fir_lattice_q15.c ****     }
 305:../Dave/Generated/CMSIS_DSP/FilteringFunctions/arm_fir_lattice_q15.c **** 
 306:../Dave/Generated/CMSIS_DSP/FilteringFunctions/arm_fir_lattice_q15.c ****     /* If the (filter length -1) is not a multiple of 4, compute the remaining filter taps */
 307:../Dave/Generated/CMSIS_DSP/FilteringFunctions/arm_fir_lattice_q15.c ****     stageCnt = (numStages - 1u) % 0x4u;
 308:../Dave/Generated/CMSIS_DSP/FilteringFunctions/arm_fir_lattice_q15.c **** 
 309:../Dave/Generated/CMSIS_DSP/FilteringFunctions/arm_fir_lattice_q15.c ****     while (stageCnt > 0u)
 760              	 .loc 1 309 0
 761 032a 1099     	 ldr r1,[sp,#64]
 762 032c 0029     	 cmp r1,#0
 763 032e 00F0C180 	 beq .L14
 764 0332 DE46     	 mov lr,fp
 765 0334 C346     	 mov fp,r8
 766              	.LVL67:
 767 0336 DDF80C80 	 ldr r8,[sp,#12]
 768              	.LVL68:
 769 033a 0591     	 str r1,[sp,#20]
 770 033c 0193     	 str r3,[sp,#4]
 771              	.LVL69:
 772              	.L6:
 310:../Dave/Generated/CMSIS_DSP/FilteringFunctions/arm_fir_lattice_q15.c ****     {
 311:../Dave/Generated/CMSIS_DSP/FilteringFunctions/arm_fir_lattice_q15.c ****       gcurnt1 = *px;
 773              	 .loc 1 311 0
 774 033e BBF80010 	 ldrh r1,[fp]
 775              	.LVL70:
 312:../Dave/Generated/CMSIS_DSP/FilteringFunctions/arm_fir_lattice_q15.c **** 
 313:../Dave/Generated/CMSIS_DSP/FilteringFunctions/arm_fir_lattice_q15.c ****       /* save g value in state buffer */
 314:../Dave/Generated/CMSIS_DSP/FilteringFunctions/arm_fir_lattice_q15.c ****       *px++ = (q15_t) gnext4;
 776              	 .loc 1 314 0
 777 0342 2BF8022B 	 strh r2,[fp],#2
 778              	.LVL71:
 315:../Dave/Generated/CMSIS_DSP/FilteringFunctions/arm_fir_lattice_q15.c **** 
 316:../Dave/Generated/CMSIS_DSP/FilteringFunctions/arm_fir_lattice_q15.c ****       /* Process four samples for last three taps here */
 317:../Dave/Generated/CMSIS_DSP/FilteringFunctions/arm_fir_lattice_q15.c ****       fnext1 = (q31_t) ((gcurnt1 * (*pk)) >> 15u) + fcurnt1;
 779              	 .loc 1 317 0
 780 0346 049A     	 ldr r2,[sp,#16]
 781              	.LVL72:
 318:../Dave/Generated/CMSIS_DSP/FilteringFunctions/arm_fir_lattice_q15.c ****       fnext1 = __SSAT(fnext1, 16);
 319:../Dave/Generated/CMSIS_DSP/FilteringFunctions/arm_fir_lattice_q15.c ****       fnext2 = (q31_t) ((gnext1 * (*pk)) >> 15u) + fcurnt2;
 782              	 .loc 1 319 0
 783 0348 029C     	 ldr r4,[sp,#8]
 317:../Dave/Generated/CMSIS_DSP/FilteringFunctions/arm_fir_lattice_q15.c ****       fnext1 = __SSAT(fnext1, 16);
 784              	 .loc 1 317 0
 785 034a 32F8026B 	 ldrh r6,[r2],#2
 786 034e 0492     	 str r2,[sp,#16]
 787              	.LVL73:
 788 0350 32B2     	 sxth r2,r6
 789              	.LVL74:
 320:../Dave/Generated/CMSIS_DSP/FilteringFunctions/arm_fir_lattice_q15.c ****       fnext2 = __SSAT(fnext2, 16);
 321:../Dave/Generated/CMSIS_DSP/FilteringFunctions/arm_fir_lattice_q15.c **** 
 322:../Dave/Generated/CMSIS_DSP/FilteringFunctions/arm_fir_lattice_q15.c ****       fnext3 = (q31_t) ((gnext2 * (*pk)) >> 15u) + fcurnt3;
 323:../Dave/Generated/CMSIS_DSP/FilteringFunctions/arm_fir_lattice_q15.c ****       fnext3 = __SSAT(fnext3, 16);
 324:../Dave/Generated/CMSIS_DSP/FilteringFunctions/arm_fir_lattice_q15.c **** 
 325:../Dave/Generated/CMSIS_DSP/FilteringFunctions/arm_fir_lattice_q15.c ****       fnext4 = (q31_t) ((gnext3 * (*pk)) >> 15u) + fcurnt4;
 326:../Dave/Generated/CMSIS_DSP/FilteringFunctions/arm_fir_lattice_q15.c ****       fnext4 = __SSAT(fnext4, 16);
 327:../Dave/Generated/CMSIS_DSP/FilteringFunctions/arm_fir_lattice_q15.c **** 
 328:../Dave/Generated/CMSIS_DSP/FilteringFunctions/arm_fir_lattice_q15.c ****       /* g1(n) = f0(n) * K1  +  g0(n-1) */
 329:../Dave/Generated/CMSIS_DSP/FilteringFunctions/arm_fir_lattice_q15.c ****       gnext4 = (q31_t) ((fcurnt4 * (*pk)) >> 15u) + gnext3;
 330:../Dave/Generated/CMSIS_DSP/FilteringFunctions/arm_fir_lattice_q15.c ****       gnext4 = __SSAT(gnext4, 16);
 331:../Dave/Generated/CMSIS_DSP/FilteringFunctions/arm_fir_lattice_q15.c ****       gnext3 = (q31_t) ((fcurnt3 * (*pk)) >> 15u) + gnext2;
 332:../Dave/Generated/CMSIS_DSP/FilteringFunctions/arm_fir_lattice_q15.c ****       gnext3 = __SSAT(gnext3, 16);
 333:../Dave/Generated/CMSIS_DSP/FilteringFunctions/arm_fir_lattice_q15.c ****       gnext2 = (q31_t) ((fcurnt2 * (*pk)) >> 15u) + gnext1;
 790              	 .loc 1 333 0
 791 0352 02FB08F5 	 mul r5,r2,r8
 322:../Dave/Generated/CMSIS_DSP/FilteringFunctions/arm_fir_lattice_q15.c ****       fnext3 = __SSAT(fnext3, 16);
 792              	 .loc 1 322 0
 793 0356 02FB03F3 	 mul r3,r2,r3
 794              	 .loc 1 333 0
 795 035a 04EBE535 	 add r5,r4,r5,asr#15
 317:../Dave/Generated/CMSIS_DSP/FilteringFunctions/arm_fir_lattice_q15.c ****       fnext1 = __SSAT(fnext1, 16);
 796              	 .loc 1 317 0
 797 035e 16FB01F6 	 smulbb r6,r6,r1
 319:../Dave/Generated/CMSIS_DSP/FilteringFunctions/arm_fir_lattice_q15.c ****       fnext2 = __SSAT(fnext2, 16);
 798              	 .loc 1 319 0
 799 0362 2046     	 mov r0,r4
 322:../Dave/Generated/CMSIS_DSP/FilteringFunctions/arm_fir_lattice_q15.c ****       fnext3 = __SSAT(fnext3, 16);
 800              	 .loc 1 322 0
 801 0364 09EBE334 	 add r4,r9,r3,asr#15
 331:../Dave/Generated/CMSIS_DSP/FilteringFunctions/arm_fir_lattice_q15.c ****       gnext3 = __SSAT(gnext3, 16);
 802              	 .loc 1 331 0
 803 0368 019B     	 ldr r3,[sp,#4]
 334:../Dave/Generated/CMSIS_DSP/FilteringFunctions/arm_fir_lattice_q15.c ****       gnext2 = __SSAT(gnext2, 16);
 335:../Dave/Generated/CMSIS_DSP/FilteringFunctions/arm_fir_lattice_q15.c ****       gnext1 = (q31_t) ((fcurnt1 * (*pk++)) >> 15u) + gcurnt1;
 804              	 .loc 1 335 0
 805 036a 02FB0EF7 	 mul r7,r2,lr
 317:../Dave/Generated/CMSIS_DSP/FilteringFunctions/arm_fir_lattice_q15.c ****       fnext1 = __SSAT(fnext1, 16);
 806              	 .loc 1 317 0
 807 036e 0EEBE636 	 add r6,lr,r6,asr#15
 808              	.LVL75:
 331:../Dave/Generated/CMSIS_DSP/FilteringFunctions/arm_fir_lattice_q15.c ****       gnext3 = __SSAT(gnext3, 16);
 809              	 .loc 1 331 0
 810 0372 02FB09FE 	 mul lr,r2,r9
 811              	.LVL76:
 812 0376 03EBEE3E 	 add lr,r3,lr,asr#15
 813              	.LBB44:
 334:../Dave/Generated/CMSIS_DSP/FilteringFunctions/arm_fir_lattice_q15.c ****       gnext2 = __SSAT(gnext2, 16);
 814              	 .loc 1 334 0
 815              	
 816 037a 05F30F03 	 ssat r3,#16,r5
 817              	
 818              	 .thumb
 819              	.LBE44:
 309:../Dave/Generated/CMSIS_DSP/FilteringFunctions/arm_fir_lattice_q15.c ****     {
 820              	 .loc 1 309 0
 821 037e 059D     	 ldr r5,[sp,#20]
 822              	.LBB45:
 318:../Dave/Generated/CMSIS_DSP/FilteringFunctions/arm_fir_lattice_q15.c ****       fnext2 = (q31_t) ((gnext1 * (*pk)) >> 15u) + fcurnt2;
 823              	 .loc 1 318 0
 824              	
 825 0380 06F30F06 	 ssat r6,#16,r6
 826              	
 827              	.LVL77:
 828              	 .thumb
 829              	.LBE45:
 311:../Dave/Generated/CMSIS_DSP/FilteringFunctions/arm_fir_lattice_q15.c **** 
 830              	 .loc 1 311 0
 831 0384 09B2     	 sxth r1,r1
 832              	.LVL78:
 319:../Dave/Generated/CMSIS_DSP/FilteringFunctions/arm_fir_lattice_q15.c ****       fnext2 = __SSAT(fnext2, 16);
 833              	 .loc 1 319 0
 834 0386 02FB00F0 	 mul r0,r2,r0
 835              	 .loc 1 335 0
 836 038a 01EBE731 	 add r1,r1,r7,asr#15
 837              	.LVL79:
 309:../Dave/Generated/CMSIS_DSP/FilteringFunctions/arm_fir_lattice_q15.c ****     {
 838              	 .loc 1 309 0
 839 038e 013D     	 subs r5,r5,#1
 325:../Dave/Generated/CMSIS_DSP/FilteringFunctions/arm_fir_lattice_q15.c ****       fnext4 = __SSAT(fnext4, 16);
 840              	 .loc 1 325 0
 841 0390 02FB0AF7 	 mul r7,r2,r10
 329:../Dave/Generated/CMSIS_DSP/FilteringFunctions/arm_fir_lattice_q15.c ****       gnext4 = __SSAT(gnext4, 16);
 842              	 .loc 1 329 0
 843 0394 02FB0CF2 	 mul r2,r2,ip
 319:../Dave/Generated/CMSIS_DSP/FilteringFunctions/arm_fir_lattice_q15.c ****       fnext2 = __SSAT(fnext2, 16);
 844              	 .loc 1 319 0
 845 0398 08EBE038 	 add r8,r8,r0,asr#15
 846              	.LVL80:
 847              	.LBB46:
 336:../Dave/Generated/CMSIS_DSP/FilteringFunctions/arm_fir_lattice_q15.c ****       gnext1 = __SSAT(gnext1, 16);
 848              	 .loc 1 336 0
 849              	
 850 039c 01F30F01 	 ssat r1,#16,r1
 851              	
 852              	 .thumb
 853              	.LBE46:
 325:../Dave/Generated/CMSIS_DSP/FilteringFunctions/arm_fir_lattice_q15.c ****       fnext4 = __SSAT(fnext4, 16);
 854              	 .loc 1 325 0
 855 03a0 0CEBE737 	 add r7,ip,r7,asr#15
 329:../Dave/Generated/CMSIS_DSP/FilteringFunctions/arm_fir_lattice_q15.c ****       gnext4 = __SSAT(gnext4, 16);
 856              	 .loc 1 329 0
 857 03a4 0AEBE232 	 add r2,r10,r2,asr#15
 858              	.LBB47:
 320:../Dave/Generated/CMSIS_DSP/FilteringFunctions/arm_fir_lattice_q15.c **** 
 859              	 .loc 1 320 0
 860              	
 861 03a8 08F30F00 	 ssat r0,#16,r8
 862              	
 863              	.LVL81:
 864              	 .thumb
 865              	.LBE47:
 866              	.LBB48:
 867              	 .loc 1 336 0
 868 03ac 0291     	 str r1,[sp,#8]
 869              	.LVL82:
 870              	.LBE48:
 871              	.LBB49:
 332:../Dave/Generated/CMSIS_DSP/FilteringFunctions/arm_fir_lattice_q15.c ****       gnext2 = (q31_t) ((fcurnt2 * (*pk)) >> 15u) + gnext1;
 872              	 .loc 1 332 0
 873              	
 874 03ae 0EF30F0A 	 ssat r10,#16,lr
 875              	
 876              	.LVL83:
 877              	 .thumb
 878              	.LBE49:
 879              	.LBB50:
 323:../Dave/Generated/CMSIS_DSP/FilteringFunctions/arm_fir_lattice_q15.c **** 
 880              	 .loc 1 323 0
 881              	
 882 03b2 04F30F01 	 ssat r1,#16,r4
 883              	
 884              	.LVL84:
 885              	 .thumb
 886              	.LBE50:
 887              	.LBB51:
 320:../Dave/Generated/CMSIS_DSP/FilteringFunctions/arm_fir_lattice_q15.c **** 
 888              	 .loc 1 320 0
 889 03b6 8046     	 mov r8,r0
 890              	.LVL85:
 891              	.LBE51:
 892              	.LBB52:
 326:../Dave/Generated/CMSIS_DSP/FilteringFunctions/arm_fir_lattice_q15.c **** 
 893              	 .loc 1 326 0
 894              	
 895 03b8 07F30F04 	 ssat r4,#16,r7
 896              	
 897              	.LVL86:
 898              	 .thumb
 899              	.LBE52:
 900              	.LBB53:
 334:../Dave/Generated/CMSIS_DSP/FilteringFunctions/arm_fir_lattice_q15.c ****       gnext1 = (q31_t) ((fcurnt1 * (*pk++)) >> 15u) + gcurnt1;
 901              	 .loc 1 334 0
 902 03bc 0193     	 str r3,[sp,#4]
 903              	.LVL87:
 904              	.LBE53:
 905              	.LBB54:
 323:../Dave/Generated/CMSIS_DSP/FilteringFunctions/arm_fir_lattice_q15.c **** 
 906              	 .loc 1 323 0
 907 03be 8946     	 mov r9,r1
 908              	.LVL88:
 909              	.LBE54:
 910              	.LBB55:
 330:../Dave/Generated/CMSIS_DSP/FilteringFunctions/arm_fir_lattice_q15.c ****       gnext3 = (q31_t) ((fcurnt3 * (*pk)) >> 15u) + gnext2;
 911              	 .loc 1 330 0
 912              	
 913 03c0 02F30F02 	 ssat r2,#16,r2
 914              	
 915              	.LVL89:
 916              	 .thumb
 917              	.LBE55:
 918              	.LBB56:
 326:../Dave/Generated/CMSIS_DSP/FilteringFunctions/arm_fir_lattice_q15.c **** 
 919              	 .loc 1 326 0
 920 03c4 A446     	 mov ip,r4
 921              	.LBE56:
 922              	.LBB57:
 318:../Dave/Generated/CMSIS_DSP/FilteringFunctions/arm_fir_lattice_q15.c ****       fnext2 = (q31_t) ((gnext1 * (*pk)) >> 15u) + fcurnt2;
 923              	 .loc 1 318 0
 924 03c6 B646     	 mov lr,r6
 925              	.LBE57:
 309:../Dave/Generated/CMSIS_DSP/FilteringFunctions/arm_fir_lattice_q15.c ****     {
 926              	 .loc 1 309 0
 927 03c8 0595     	 str r5,[sp,#20]
 928 03ca B8D1     	 bne .L6
 929 03cc 0D46     	 mov r5,r1
 930              	.LVL90:
 931              	.L5:
 337:../Dave/Generated/CMSIS_DSP/FilteringFunctions/arm_fir_lattice_q15.c **** 
 338:../Dave/Generated/CMSIS_DSP/FilteringFunctions/arm_fir_lattice_q15.c ****       /* Update of f values for next coefficient set processing */
 339:../Dave/Generated/CMSIS_DSP/FilteringFunctions/arm_fir_lattice_q15.c ****       fcurnt1 = fnext1;
 340:../Dave/Generated/CMSIS_DSP/FilteringFunctions/arm_fir_lattice_q15.c ****       fcurnt2 = fnext2;
 341:../Dave/Generated/CMSIS_DSP/FilteringFunctions/arm_fir_lattice_q15.c ****       fcurnt3 = fnext3;
 342:../Dave/Generated/CMSIS_DSP/FilteringFunctions/arm_fir_lattice_q15.c ****       fcurnt4 = fnext4;
 343:../Dave/Generated/CMSIS_DSP/FilteringFunctions/arm_fir_lattice_q15.c **** 
 344:../Dave/Generated/CMSIS_DSP/FilteringFunctions/arm_fir_lattice_q15.c ****       stageCnt--;
 345:../Dave/Generated/CMSIS_DSP/FilteringFunctions/arm_fir_lattice_q15.c **** 
 346:../Dave/Generated/CMSIS_DSP/FilteringFunctions/arm_fir_lattice_q15.c ****     }
 347:../Dave/Generated/CMSIS_DSP/FilteringFunctions/arm_fir_lattice_q15.c **** 
 348:../Dave/Generated/CMSIS_DSP/FilteringFunctions/arm_fir_lattice_q15.c ****     /* The results in the 4 accumulators, store in the destination buffer. */
 349:../Dave/Generated/CMSIS_DSP/FilteringFunctions/arm_fir_lattice_q15.c ****     /* y(n) = fN(n) */
 350:../Dave/Generated/CMSIS_DSP/FilteringFunctions/arm_fir_lattice_q15.c **** 
 351:../Dave/Generated/CMSIS_DSP/FilteringFunctions/arm_fir_lattice_q15.c **** #ifndef  ARM_MATH_BIG_ENDIAN
 352:../Dave/Generated/CMSIS_DSP/FilteringFunctions/arm_fir_lattice_q15.c **** 
 353:../Dave/Generated/CMSIS_DSP/FilteringFunctions/arm_fir_lattice_q15.c ****     *__SIMD32(pDst)++ = __PKHBT(fcurnt1, fcurnt2, 16);
 932              	 .loc 1 353 0
 933 03ce 0E9A     	 ldr r2,[sp,#56]
 934              	.LVL91:
 935 03d0 B6B2     	 uxth r6,r6
 936              	.LVL92:
 937 03d2 1346     	 mov r3,r2
 938              	.LVL93:
 354:../Dave/Generated/CMSIS_DSP/FilteringFunctions/arm_fir_lattice_q15.c ****     *__SIMD32(pDst)++ = __PKHBT(fcurnt3, fcurnt4, 16);
 939              	 .loc 1 354 0
 940 03d4 ADB2     	 uxth r5,r5
 941              	.LVL94:
 942 03d6 0833     	 adds r3,r3,#8
 353:../Dave/Generated/CMSIS_DSP/FilteringFunctions/arm_fir_lattice_q15.c ****     *__SIMD32(pDst)++ = __PKHBT(fcurnt3, fcurnt4, 16);
 943              	 .loc 1 353 0
 944 03d8 46EA0040 	 orr r0,r6,r0,lsl#16
 945              	 .loc 1 354 0
 946 03dc 45EA0444 	 orr r4,r5,r4,lsl#16
 947              	.LVL95:
 353:../Dave/Generated/CMSIS_DSP/FilteringFunctions/arm_fir_lattice_q15.c ****     *__SIMD32(pDst)++ = __PKHBT(fcurnt3, fcurnt4, 16);
 948              	 .loc 1 353 0
 949 03e0 42F8080C 	 str r0,[r2,#-8]
 950              	.LVL96:
 951              	 .loc 1 354 0
 952 03e4 42F8044C 	 str r4,[r2,#-4]
 953 03e8 0E93     	 str r3,[sp,#56]
 954 03ea 0B9A     	 ldr r2,[sp,#44]
  79:../Dave/Generated/CMSIS_DSP/FilteringFunctions/arm_fir_lattice_q15.c ****   {
 955              	 .loc 1 79 0
 956 03ec 0D9B     	 ldr r3,[sp,#52]
 957 03ee 0832     	 adds r2,r2,#8
 958 03f0 013B     	 subs r3,r3,#1
 959              	.LVL97:
 960 03f2 0B92     	 str r2,[sp,#44]
 961              	.LVL98:
 962 03f4 0D93     	 str r3,[sp,#52]
 963 03f6 7FF42BAE 	 bne .L7
 964 03fa 169B     	 ldr r3,[sp,#88]
 965              	.LVL99:
 966 03fc 139A     	 ldr r2,[sp,#76]
 967 03fe DB00     	 lsls r3,r3,#3
 968 0400 1A44     	 add r2,r2,r3
 969 0402 1392     	 str r2,[sp,#76]
 970 0404 149A     	 ldr r2,[sp,#80]
 971 0406 1A44     	 add r2,r2,r3
 972 0408 1492     	 str r2,[sp,#80]
 973              	.LVL100:
 974              	.L2:
 355:../Dave/Generated/CMSIS_DSP/FilteringFunctions/arm_fir_lattice_q15.c **** 
 356:../Dave/Generated/CMSIS_DSP/FilteringFunctions/arm_fir_lattice_q15.c **** #else
 357:../Dave/Generated/CMSIS_DSP/FilteringFunctions/arm_fir_lattice_q15.c **** 
 358:../Dave/Generated/CMSIS_DSP/FilteringFunctions/arm_fir_lattice_q15.c ****     *__SIMD32(pDst)++ = __PKHBT(fcurnt2, fcurnt1, 16);
 359:../Dave/Generated/CMSIS_DSP/FilteringFunctions/arm_fir_lattice_q15.c ****     *__SIMD32(pDst)++ = __PKHBT(fcurnt4, fcurnt3, 16);
 360:../Dave/Generated/CMSIS_DSP/FilteringFunctions/arm_fir_lattice_q15.c **** 
 361:../Dave/Generated/CMSIS_DSP/FilteringFunctions/arm_fir_lattice_q15.c **** #endif /*      #ifndef  ARM_MATH_BIG_ENDIAN    */
 362:../Dave/Generated/CMSIS_DSP/FilteringFunctions/arm_fir_lattice_q15.c **** 
 363:../Dave/Generated/CMSIS_DSP/FilteringFunctions/arm_fir_lattice_q15.c ****     blkCnt--;
 364:../Dave/Generated/CMSIS_DSP/FilteringFunctions/arm_fir_lattice_q15.c ****   }
 365:../Dave/Generated/CMSIS_DSP/FilteringFunctions/arm_fir_lattice_q15.c **** 
 366:../Dave/Generated/CMSIS_DSP/FilteringFunctions/arm_fir_lattice_q15.c ****   /* If the blockSize is not a multiple of 4, compute any remaining output samples here.
 367:../Dave/Generated/CMSIS_DSP/FilteringFunctions/arm_fir_lattice_q15.c ****    ** No loop unrolling is used. */
 368:../Dave/Generated/CMSIS_DSP/FilteringFunctions/arm_fir_lattice_q15.c ****   blkCnt = blockSize % 0x4u;
 369:../Dave/Generated/CMSIS_DSP/FilteringFunctions/arm_fir_lattice_q15.c **** 
 370:../Dave/Generated/CMSIS_DSP/FilteringFunctions/arm_fir_lattice_q15.c ****   while (blkCnt > 0u)
 975              	 .loc 1 370 0
 976 040a 199B     	 ldr r3,[sp,#100]
 977 040c 13F00307 	 ands r7,r3,#3
 978              	.LVL101:
 979 0410 45D0     	 beq .L1
 980 0412 159B     	 ldr r3,[sp,#84]
 981 0414 0C9A     	 ldr r2,[sp,#48]
 982 0416 DDF84CA0 	 ldr r10,[sp,#76]
 983 041a DDF850B0 	 ldr fp,[sp,#80]
 984 041e 03F1FF3E 	 add lr,r3,#-1
 985 0422 0A9B     	 ldr r3,[sp,#40]
 986 0424 02F10208 	 add r8,r2,#2
 987 0428 03F1020C 	 add ip,r3,#2
 988 042c 9146     	 mov r9,r2
 989              	.LVL102:
 990              	.L11:
 371:../Dave/Generated/CMSIS_DSP/FilteringFunctions/arm_fir_lattice_q15.c ****   {
 372:../Dave/Generated/CMSIS_DSP/FilteringFunctions/arm_fir_lattice_q15.c ****     /* f0(n) = x(n) */
 373:../Dave/Generated/CMSIS_DSP/FilteringFunctions/arm_fir_lattice_q15.c ****     fcurnt1 = *pSrc++;
 374:../Dave/Generated/CMSIS_DSP/FilteringFunctions/arm_fir_lattice_q15.c **** 
 375:../Dave/Generated/CMSIS_DSP/FilteringFunctions/arm_fir_lattice_q15.c ****     /* Initialize coeff pointer */
 376:../Dave/Generated/CMSIS_DSP/FilteringFunctions/arm_fir_lattice_q15.c ****     pk = (pCoeffs);
 377:../Dave/Generated/CMSIS_DSP/FilteringFunctions/arm_fir_lattice_q15.c **** 
 378:../Dave/Generated/CMSIS_DSP/FilteringFunctions/arm_fir_lattice_q15.c ****     /* Initialize state pointer */
 379:../Dave/Generated/CMSIS_DSP/FilteringFunctions/arm_fir_lattice_q15.c ****     px = pState;
 380:../Dave/Generated/CMSIS_DSP/FilteringFunctions/arm_fir_lattice_q15.c **** 
 381:../Dave/Generated/CMSIS_DSP/FilteringFunctions/arm_fir_lattice_q15.c ****     /* read g2(n) from state buffer */
 382:../Dave/Generated/CMSIS_DSP/FilteringFunctions/arm_fir_lattice_q15.c ****     gcurnt1 = *px;
 383:../Dave/Generated/CMSIS_DSP/FilteringFunctions/arm_fir_lattice_q15.c **** 
 384:../Dave/Generated/CMSIS_DSP/FilteringFunctions/arm_fir_lattice_q15.c ****     /* for sample 1 processing */
 385:../Dave/Generated/CMSIS_DSP/FilteringFunctions/arm_fir_lattice_q15.c ****     /* f1(n) = f0(n) +  K1 * g0(n-1) */
 386:../Dave/Generated/CMSIS_DSP/FilteringFunctions/arm_fir_lattice_q15.c ****     fnext1 = (((q31_t) gcurnt1 * (*pk)) >> 15u) + fcurnt1;
 991              	 .loc 1 386 0
 992 042e 0A9B     	 ldr r3,[sp,#40]
 373:../Dave/Generated/CMSIS_DSP/FilteringFunctions/arm_fir_lattice_q15.c **** 
 993              	 .loc 1 373 0
 994 0430 3AF8022B 	 ldrh r2,[r10],#2
 995              	.LVL103:
 382:../Dave/Generated/CMSIS_DSP/FilteringFunctions/arm_fir_lattice_q15.c **** 
 996              	 .loc 1 382 0
 997 0434 B9F80000 	 ldrh r0,[r9]
 998              	.LVL104:
 999              	 .loc 1 386 0
 1000 0438 1B88     	 ldrh r3,[r3]
 1001              	.LVL105:
 387:../Dave/Generated/CMSIS_DSP/FilteringFunctions/arm_fir_lattice_q15.c ****     fnext1 = __SSAT(fnext1, 16);
 388:../Dave/Generated/CMSIS_DSP/FilteringFunctions/arm_fir_lattice_q15.c **** 
 389:../Dave/Generated/CMSIS_DSP/FilteringFunctions/arm_fir_lattice_q15.c **** 
 390:../Dave/Generated/CMSIS_DSP/FilteringFunctions/arm_fir_lattice_q15.c ****     /* g1(n) = f0(n) * K1  +  g0(n-1) */
 391:../Dave/Generated/CMSIS_DSP/FilteringFunctions/arm_fir_lattice_q15.c ****     gnext1 = (((q31_t) fcurnt1 * (*pk++)) >> 15u) + gcurnt1;
 392:../Dave/Generated/CMSIS_DSP/FilteringFunctions/arm_fir_lattice_q15.c ****     gnext1 = __SSAT(gnext1, 16);
 393:../Dave/Generated/CMSIS_DSP/FilteringFunctions/arm_fir_lattice_q15.c **** 
 394:../Dave/Generated/CMSIS_DSP/FilteringFunctions/arm_fir_lattice_q15.c ****     /* save g1(n) in state buffer */
 395:../Dave/Generated/CMSIS_DSP/FilteringFunctions/arm_fir_lattice_q15.c ****     *px++ = (q15_t) fcurnt1;
 1002              	 .loc 1 395 0
 1003 043a A9F80020 	 strh r2,[r9]
 373:../Dave/Generated/CMSIS_DSP/FilteringFunctions/arm_fir_lattice_q15.c **** 
 1004              	 .loc 1 373 0
 1005 043e 11B2     	 sxth r1,r2
 1006              	.LVL106:
 391:../Dave/Generated/CMSIS_DSP/FilteringFunctions/arm_fir_lattice_q15.c ****     gnext1 = __SSAT(gnext1, 16);
 1007              	 .loc 1 391 0
 1008 0440 12FB03F2 	 smulbb r2,r2,r3
 1009              	.LVL107:
 386:../Dave/Generated/CMSIS_DSP/FilteringFunctions/arm_fir_lattice_q15.c ****     fnext1 = __SSAT(fnext1, 16);
 1010              	 .loc 1 386 0
 1011 0444 13FB00F3 	 smulbb r3,r3,r0
 1012              	.LVL108:
 382:../Dave/Generated/CMSIS_DSP/FilteringFunctions/arm_fir_lattice_q15.c **** 
 1013              	 .loc 1 382 0
 1014 0448 00B2     	 sxth r0,r0
 1015              	.LVL109:
 386:../Dave/Generated/CMSIS_DSP/FilteringFunctions/arm_fir_lattice_q15.c ****     fnext1 = __SSAT(fnext1, 16);
 1016              	 .loc 1 386 0
 1017 044a 01EBE333 	 add r3,r1,r3,asr#15
 391:../Dave/Generated/CMSIS_DSP/FilteringFunctions/arm_fir_lattice_q15.c ****     gnext1 = __SSAT(gnext1, 16);
 1018              	 .loc 1 391 0
 1019 044e 00EBE232 	 add r2,r0,r2,asr#15
 1020              	.LBB58:
 387:../Dave/Generated/CMSIS_DSP/FilteringFunctions/arm_fir_lattice_q15.c **** 
 1021              	 .loc 1 387 0
 1022              	
 1023 0452 03F30F01 	 ssat r1,#16,r3
 1024              	
 1025              	.LVL110:
 1026              	 .thumb
 1027              	.LBE58:
 1028              	.LBB59:
 392:../Dave/Generated/CMSIS_DSP/FilteringFunctions/arm_fir_lattice_q15.c **** 
 1029              	 .loc 1 392 0
 1030              	
 1031 0456 02F30F02 	 ssat r2,#16,r2
 1032              	
 1033              	.LVL111:
 1034              	 .thumb
 1035              	.LBE59:
 396:../Dave/Generated/CMSIS_DSP/FilteringFunctions/arm_fir_lattice_q15.c **** 
 397:../Dave/Generated/CMSIS_DSP/FilteringFunctions/arm_fir_lattice_q15.c ****     /* f1(n) is saved in fcurnt1
 398:../Dave/Generated/CMSIS_DSP/FilteringFunctions/arm_fir_lattice_q15.c ****        for next stage processing */
 399:../Dave/Generated/CMSIS_DSP/FilteringFunctions/arm_fir_lattice_q15.c ****     fcurnt1 = fnext1;
 400:../Dave/Generated/CMSIS_DSP/FilteringFunctions/arm_fir_lattice_q15.c **** 
 401:../Dave/Generated/CMSIS_DSP/FilteringFunctions/arm_fir_lattice_q15.c ****     stageCnt = (numStages - 1u);
 402:../Dave/Generated/CMSIS_DSP/FilteringFunctions/arm_fir_lattice_q15.c **** 
 403:../Dave/Generated/CMSIS_DSP/FilteringFunctions/arm_fir_lattice_q15.c ****     /* stage loop */
 404:../Dave/Generated/CMSIS_DSP/FilteringFunctions/arm_fir_lattice_q15.c ****     while (stageCnt > 0u)
 1036              	 .loc 1 404 0
 1037 045a BEF1000F 	 cmp lr,#0
 1038 045e 21D0     	 beq .L15
 1039 0460 7546     	 mov r5,lr
 1040 0462 6646     	 mov r6,ip
 1041 0464 4446     	 mov r4,r8
 1042              	.LVL112:
 1043              	.L10:
 405:../Dave/Generated/CMSIS_DSP/FilteringFunctions/arm_fir_lattice_q15.c ****     {
 406:../Dave/Generated/CMSIS_DSP/FilteringFunctions/arm_fir_lattice_q15.c ****       /* read g2(n) from state buffer */
 407:../Dave/Generated/CMSIS_DSP/FilteringFunctions/arm_fir_lattice_q15.c ****       gcurnt1 = *px;
 1044              	 .loc 1 407 0
 1045 0466 2088     	 ldrh r0,[r4]
 1046              	.LVL113:
 408:../Dave/Generated/CMSIS_DSP/FilteringFunctions/arm_fir_lattice_q15.c **** 
 409:../Dave/Generated/CMSIS_DSP/FilteringFunctions/arm_fir_lattice_q15.c ****       /* save g1(n) in state buffer */
 410:../Dave/Generated/CMSIS_DSP/FilteringFunctions/arm_fir_lattice_q15.c ****       *px++ = (q15_t) gnext1;
 1047              	 .loc 1 410 0
 1048 0468 24F8022B 	 strh r2,[r4],#2
 1049              	.LVL114:
 411:../Dave/Generated/CMSIS_DSP/FilteringFunctions/arm_fir_lattice_q15.c **** 
 412:../Dave/Generated/CMSIS_DSP/FilteringFunctions/arm_fir_lattice_q15.c ****       /* Sample processing for K2, K3.... */
 413:../Dave/Generated/CMSIS_DSP/FilteringFunctions/arm_fir_lattice_q15.c ****       /* f2(n) = f1(n) +  K2 * g1(n-1) */
 414:../Dave/Generated/CMSIS_DSP/FilteringFunctions/arm_fir_lattice_q15.c ****       fnext1 = (((q31_t) gcurnt1 * (*pk)) >> 15u) + fcurnt1;
 1050              	 .loc 1 414 0
 1051 046c 36F8023B 	 ldrh r3,[r6],#2
 1052              	.LVL115:
 1053 0470 1AB2     	 sxth r2,r3
 1054              	.LVL116:
 415:../Dave/Generated/CMSIS_DSP/FilteringFunctions/arm_fir_lattice_q15.c ****       fnext1 = __SSAT(fnext1, 16);
 416:../Dave/Generated/CMSIS_DSP/FilteringFunctions/arm_fir_lattice_q15.c **** 
 417:../Dave/Generated/CMSIS_DSP/FilteringFunctions/arm_fir_lattice_q15.c ****       /* g2(n) = f1(n) * K2  +  g1(n-1) */
 418:../Dave/Generated/CMSIS_DSP/FilteringFunctions/arm_fir_lattice_q15.c ****       gnext1 = (((q31_t) fcurnt1 * (*pk++)) >> 15u) + gcurnt1;
 1055              	 .loc 1 418 0
 1056 0472 02FB01F2 	 mul r2,r2,r1
 414:../Dave/Generated/CMSIS_DSP/FilteringFunctions/arm_fir_lattice_q15.c ****       fnext1 = __SSAT(fnext1, 16);
 1057              	 .loc 1 414 0
 1058 0476 13FB00F3 	 smulbb r3,r3,r0
 404:../Dave/Generated/CMSIS_DSP/FilteringFunctions/arm_fir_lattice_q15.c ****     {
 1059              	 .loc 1 404 0
 1060 047a 013D     	 subs r5,r5,#1
 1061              	.LVL117:
 407:../Dave/Generated/CMSIS_DSP/FilteringFunctions/arm_fir_lattice_q15.c **** 
 1062              	 .loc 1 407 0
 1063 047c 00B2     	 sxth r0,r0
 1064              	.LVL118:
 414:../Dave/Generated/CMSIS_DSP/FilteringFunctions/arm_fir_lattice_q15.c ****       fnext1 = __SSAT(fnext1, 16);
 1065              	 .loc 1 414 0
 1066 047e 01EBE333 	 add r3,r1,r3,asr#15
 1067              	.LVL119:
 1068              	 .loc 1 418 0
 1069 0482 00EBE232 	 add r2,r0,r2,asr#15
 1070              	.LBB60:
 415:../Dave/Generated/CMSIS_DSP/FilteringFunctions/arm_fir_lattice_q15.c **** 
 1071              	 .loc 1 415 0
 1072              	
 1073 0486 03F30F00 	 ssat r0,#16,r3
 1074              	
 1075              	.LVL120:
 1076              	 .thumb
 1077              	.LBE60:
 1078              	.LBB61:
 419:../Dave/Generated/CMSIS_DSP/FilteringFunctions/arm_fir_lattice_q15.c ****       gnext1 = __SSAT(gnext1, 16);
 1079              	 .loc 1 419 0
 1080              	
 1081 048a 02F30F02 	 ssat r2,#16,r2
 1082              	
 1083              	.LVL121:
 1084              	 .thumb
 1085              	.LBE61:
 1086              	.LBB62:
 415:../Dave/Generated/CMSIS_DSP/FilteringFunctions/arm_fir_lattice_q15.c **** 
 1087              	 .loc 1 415 0
 1088 048e 0146     	 mov r1,r0
 1089              	.LBE62:
 404:../Dave/Generated/CMSIS_DSP/FilteringFunctions/arm_fir_lattice_q15.c ****     {
 1090              	 .loc 1 404 0
 1091 0490 E9D1     	 bne .L10
 1092              	.LVL122:
 370:../Dave/Generated/CMSIS_DSP/FilteringFunctions/arm_fir_lattice_q15.c ****   {
 1093              	 .loc 1 370 0
 1094 0492 013F     	 subs r7,r7,#1
 1095              	.LVL123:
 1096              	.LBB63:
 420:../Dave/Generated/CMSIS_DSP/FilteringFunctions/arm_fir_lattice_q15.c **** 
 421:../Dave/Generated/CMSIS_DSP/FilteringFunctions/arm_fir_lattice_q15.c **** 
 422:../Dave/Generated/CMSIS_DSP/FilteringFunctions/arm_fir_lattice_q15.c ****       /* f1(n) is saved in fcurnt1
 423:../Dave/Generated/CMSIS_DSP/FilteringFunctions/arm_fir_lattice_q15.c ****          for next stage processing */
 424:../Dave/Generated/CMSIS_DSP/FilteringFunctions/arm_fir_lattice_q15.c ****       fcurnt1 = fnext1;
 425:../Dave/Generated/CMSIS_DSP/FilteringFunctions/arm_fir_lattice_q15.c **** 
 426:../Dave/Generated/CMSIS_DSP/FilteringFunctions/arm_fir_lattice_q15.c ****       stageCnt--;
 427:../Dave/Generated/CMSIS_DSP/FilteringFunctions/arm_fir_lattice_q15.c **** 
 428:../Dave/Generated/CMSIS_DSP/FilteringFunctions/arm_fir_lattice_q15.c ****     }
 429:../Dave/Generated/CMSIS_DSP/FilteringFunctions/arm_fir_lattice_q15.c **** 
 430:../Dave/Generated/CMSIS_DSP/FilteringFunctions/arm_fir_lattice_q15.c ****     /* y(n) = fN(n) */
 431:../Dave/Generated/CMSIS_DSP/FilteringFunctions/arm_fir_lattice_q15.c ****     *pDst++ = __SSAT(fcurnt1, 16);
 1097              	 .loc 1 431 0
 1098              	
 1099 0494 00F30F00 	 ssat r0,#16,r0
 1100              	
 1101              	.LVL124:
 1102              	 .thumb
 1103              	.LBE63:
 1104 0498 2BF8020B 	 strh r0,[fp],#2
 1105              	.LVL125:
 370:../Dave/Generated/CMSIS_DSP/FilteringFunctions/arm_fir_lattice_q15.c ****   {
 1106              	 .loc 1 370 0
 1107 049c C7D1     	 bne .L11
 1108              	.LVL126:
 1109              	.L1:
 432:../Dave/Generated/CMSIS_DSP/FilteringFunctions/arm_fir_lattice_q15.c **** 
 433:../Dave/Generated/CMSIS_DSP/FilteringFunctions/arm_fir_lattice_q15.c **** 
 434:../Dave/Generated/CMSIS_DSP/FilteringFunctions/arm_fir_lattice_q15.c ****     blkCnt--;
 435:../Dave/Generated/CMSIS_DSP/FilteringFunctions/arm_fir_lattice_q15.c **** 
 436:../Dave/Generated/CMSIS_DSP/FilteringFunctions/arm_fir_lattice_q15.c ****   }
 437:../Dave/Generated/CMSIS_DSP/FilteringFunctions/arm_fir_lattice_q15.c **** 
 438:../Dave/Generated/CMSIS_DSP/FilteringFunctions/arm_fir_lattice_q15.c **** #else
 439:../Dave/Generated/CMSIS_DSP/FilteringFunctions/arm_fir_lattice_q15.c **** 
 440:../Dave/Generated/CMSIS_DSP/FilteringFunctions/arm_fir_lattice_q15.c ****   /* Run the below code for Cortex-M0 */
 441:../Dave/Generated/CMSIS_DSP/FilteringFunctions/arm_fir_lattice_q15.c **** 
 442:../Dave/Generated/CMSIS_DSP/FilteringFunctions/arm_fir_lattice_q15.c ****   q31_t fcurnt, fnext, gcurnt, gnext;            /* temporary variables */
 443:../Dave/Generated/CMSIS_DSP/FilteringFunctions/arm_fir_lattice_q15.c ****   uint32_t numStages = S->numStages;             /* Length of the filter */
 444:../Dave/Generated/CMSIS_DSP/FilteringFunctions/arm_fir_lattice_q15.c ****   uint32_t blkCnt, stageCnt;                     /* temporary variables for counts */
 445:../Dave/Generated/CMSIS_DSP/FilteringFunctions/arm_fir_lattice_q15.c **** 
 446:../Dave/Generated/CMSIS_DSP/FilteringFunctions/arm_fir_lattice_q15.c ****   pState = &S->pState[0];
 447:../Dave/Generated/CMSIS_DSP/FilteringFunctions/arm_fir_lattice_q15.c **** 
 448:../Dave/Generated/CMSIS_DSP/FilteringFunctions/arm_fir_lattice_q15.c ****   blkCnt = blockSize;
 449:../Dave/Generated/CMSIS_DSP/FilteringFunctions/arm_fir_lattice_q15.c **** 
 450:../Dave/Generated/CMSIS_DSP/FilteringFunctions/arm_fir_lattice_q15.c ****   while (blkCnt > 0u)
 451:../Dave/Generated/CMSIS_DSP/FilteringFunctions/arm_fir_lattice_q15.c ****   {
 452:../Dave/Generated/CMSIS_DSP/FilteringFunctions/arm_fir_lattice_q15.c ****     /* f0(n) = x(n) */
 453:../Dave/Generated/CMSIS_DSP/FilteringFunctions/arm_fir_lattice_q15.c ****     fcurnt = *pSrc++;
 454:../Dave/Generated/CMSIS_DSP/FilteringFunctions/arm_fir_lattice_q15.c **** 
 455:../Dave/Generated/CMSIS_DSP/FilteringFunctions/arm_fir_lattice_q15.c ****     /* Initialize coeff pointer */
 456:../Dave/Generated/CMSIS_DSP/FilteringFunctions/arm_fir_lattice_q15.c ****     pk = (pCoeffs);
 457:../Dave/Generated/CMSIS_DSP/FilteringFunctions/arm_fir_lattice_q15.c **** 
 458:../Dave/Generated/CMSIS_DSP/FilteringFunctions/arm_fir_lattice_q15.c ****     /* Initialize state pointer */
 459:../Dave/Generated/CMSIS_DSP/FilteringFunctions/arm_fir_lattice_q15.c ****     px = pState;
 460:../Dave/Generated/CMSIS_DSP/FilteringFunctions/arm_fir_lattice_q15.c **** 
 461:../Dave/Generated/CMSIS_DSP/FilteringFunctions/arm_fir_lattice_q15.c ****     /* read g0(n-1) from state buffer */
 462:../Dave/Generated/CMSIS_DSP/FilteringFunctions/arm_fir_lattice_q15.c ****     gcurnt = *px;
 463:../Dave/Generated/CMSIS_DSP/FilteringFunctions/arm_fir_lattice_q15.c **** 
 464:../Dave/Generated/CMSIS_DSP/FilteringFunctions/arm_fir_lattice_q15.c ****     /* for sample 1 processing */
 465:../Dave/Generated/CMSIS_DSP/FilteringFunctions/arm_fir_lattice_q15.c ****     /* f1(n) = f0(n) +  K1 * g0(n-1) */
 466:../Dave/Generated/CMSIS_DSP/FilteringFunctions/arm_fir_lattice_q15.c ****     fnext = ((gcurnt * (*pk)) >> 15u) + fcurnt;
 467:../Dave/Generated/CMSIS_DSP/FilteringFunctions/arm_fir_lattice_q15.c ****     fnext = __SSAT(fnext, 16);
 468:../Dave/Generated/CMSIS_DSP/FilteringFunctions/arm_fir_lattice_q15.c **** 
 469:../Dave/Generated/CMSIS_DSP/FilteringFunctions/arm_fir_lattice_q15.c **** 
 470:../Dave/Generated/CMSIS_DSP/FilteringFunctions/arm_fir_lattice_q15.c ****     /* g1(n) = f0(n) * K1  +  g0(n-1) */
 471:../Dave/Generated/CMSIS_DSP/FilteringFunctions/arm_fir_lattice_q15.c ****     gnext = ((fcurnt * (*pk++)) >> 15u) + gcurnt;
 472:../Dave/Generated/CMSIS_DSP/FilteringFunctions/arm_fir_lattice_q15.c ****     gnext = __SSAT(gnext, 16);
 473:../Dave/Generated/CMSIS_DSP/FilteringFunctions/arm_fir_lattice_q15.c **** 
 474:../Dave/Generated/CMSIS_DSP/FilteringFunctions/arm_fir_lattice_q15.c ****     /* save f0(n) in state buffer */
 475:../Dave/Generated/CMSIS_DSP/FilteringFunctions/arm_fir_lattice_q15.c ****     *px++ = (q15_t) fcurnt;
 476:../Dave/Generated/CMSIS_DSP/FilteringFunctions/arm_fir_lattice_q15.c **** 
 477:../Dave/Generated/CMSIS_DSP/FilteringFunctions/arm_fir_lattice_q15.c ****     /* f1(n) is saved in fcurnt
 478:../Dave/Generated/CMSIS_DSP/FilteringFunctions/arm_fir_lattice_q15.c ****        for next stage processing */
 479:../Dave/Generated/CMSIS_DSP/FilteringFunctions/arm_fir_lattice_q15.c ****     fcurnt = fnext;
 480:../Dave/Generated/CMSIS_DSP/FilteringFunctions/arm_fir_lattice_q15.c **** 
 481:../Dave/Generated/CMSIS_DSP/FilteringFunctions/arm_fir_lattice_q15.c ****     stageCnt = (numStages - 1u);
 482:../Dave/Generated/CMSIS_DSP/FilteringFunctions/arm_fir_lattice_q15.c **** 
 483:../Dave/Generated/CMSIS_DSP/FilteringFunctions/arm_fir_lattice_q15.c ****     /* stage loop */
 484:../Dave/Generated/CMSIS_DSP/FilteringFunctions/arm_fir_lattice_q15.c ****     while (stageCnt > 0u)
 485:../Dave/Generated/CMSIS_DSP/FilteringFunctions/arm_fir_lattice_q15.c ****     {
 486:../Dave/Generated/CMSIS_DSP/FilteringFunctions/arm_fir_lattice_q15.c ****       /* read g1(n-1) from state buffer */
 487:../Dave/Generated/CMSIS_DSP/FilteringFunctions/arm_fir_lattice_q15.c ****       gcurnt = *px;
 488:../Dave/Generated/CMSIS_DSP/FilteringFunctions/arm_fir_lattice_q15.c **** 
 489:../Dave/Generated/CMSIS_DSP/FilteringFunctions/arm_fir_lattice_q15.c ****       /* save g0(n-1) in state buffer */
 490:../Dave/Generated/CMSIS_DSP/FilteringFunctions/arm_fir_lattice_q15.c ****       *px++ = (q15_t) gnext;
 491:../Dave/Generated/CMSIS_DSP/FilteringFunctions/arm_fir_lattice_q15.c **** 
 492:../Dave/Generated/CMSIS_DSP/FilteringFunctions/arm_fir_lattice_q15.c ****       /* Sample processing for K2, K3.... */
 493:../Dave/Generated/CMSIS_DSP/FilteringFunctions/arm_fir_lattice_q15.c ****       /* f2(n) = f1(n) +  K2 * g1(n-1) */
 494:../Dave/Generated/CMSIS_DSP/FilteringFunctions/arm_fir_lattice_q15.c ****       fnext = ((gcurnt * (*pk)) >> 15u) + fcurnt;
 495:../Dave/Generated/CMSIS_DSP/FilteringFunctions/arm_fir_lattice_q15.c ****       fnext = __SSAT(fnext, 16);
 496:../Dave/Generated/CMSIS_DSP/FilteringFunctions/arm_fir_lattice_q15.c **** 
 497:../Dave/Generated/CMSIS_DSP/FilteringFunctions/arm_fir_lattice_q15.c ****       /* g2(n) = f1(n) * K2  +  g1(n-1) */
 498:../Dave/Generated/CMSIS_DSP/FilteringFunctions/arm_fir_lattice_q15.c ****       gnext = ((fcurnt * (*pk++)) >> 15u) + gcurnt;
 499:../Dave/Generated/CMSIS_DSP/FilteringFunctions/arm_fir_lattice_q15.c ****       gnext = __SSAT(gnext, 16);
 500:../Dave/Generated/CMSIS_DSP/FilteringFunctions/arm_fir_lattice_q15.c **** 
 501:../Dave/Generated/CMSIS_DSP/FilteringFunctions/arm_fir_lattice_q15.c **** 
 502:../Dave/Generated/CMSIS_DSP/FilteringFunctions/arm_fir_lattice_q15.c ****       /* f1(n) is saved in fcurnt
 503:../Dave/Generated/CMSIS_DSP/FilteringFunctions/arm_fir_lattice_q15.c ****          for next stage processing */
 504:../Dave/Generated/CMSIS_DSP/FilteringFunctions/arm_fir_lattice_q15.c ****       fcurnt = fnext;
 505:../Dave/Generated/CMSIS_DSP/FilteringFunctions/arm_fir_lattice_q15.c **** 
 506:../Dave/Generated/CMSIS_DSP/FilteringFunctions/arm_fir_lattice_q15.c ****       stageCnt--;
 507:../Dave/Generated/CMSIS_DSP/FilteringFunctions/arm_fir_lattice_q15.c **** 
 508:../Dave/Generated/CMSIS_DSP/FilteringFunctions/arm_fir_lattice_q15.c ****     }
 509:../Dave/Generated/CMSIS_DSP/FilteringFunctions/arm_fir_lattice_q15.c **** 
 510:../Dave/Generated/CMSIS_DSP/FilteringFunctions/arm_fir_lattice_q15.c ****     /* y(n) = fN(n) */
 511:../Dave/Generated/CMSIS_DSP/FilteringFunctions/arm_fir_lattice_q15.c ****     *pDst++ = __SSAT(fcurnt, 16);
 512:../Dave/Generated/CMSIS_DSP/FilteringFunctions/arm_fir_lattice_q15.c **** 
 513:../Dave/Generated/CMSIS_DSP/FilteringFunctions/arm_fir_lattice_q15.c **** 
 514:../Dave/Generated/CMSIS_DSP/FilteringFunctions/arm_fir_lattice_q15.c ****     blkCnt--;
 515:../Dave/Generated/CMSIS_DSP/FilteringFunctions/arm_fir_lattice_q15.c **** 
 516:../Dave/Generated/CMSIS_DSP/FilteringFunctions/arm_fir_lattice_q15.c ****   }
 517:../Dave/Generated/CMSIS_DSP/FilteringFunctions/arm_fir_lattice_q15.c **** 
 518:../Dave/Generated/CMSIS_DSP/FilteringFunctions/arm_fir_lattice_q15.c **** #endif /*   #if defined (ARM_MATH_DSP) */
 519:../Dave/Generated/CMSIS_DSP/FilteringFunctions/arm_fir_lattice_q15.c **** 
 520:../Dave/Generated/CMSIS_DSP/FilteringFunctions/arm_fir_lattice_q15.c **** }
 1110              	 .loc 1 520 0
 1111 049e 1BB0     	 add sp,sp,#108
 1112              	.LCFI2:
 1113              	 .cfi_remember_state
 1114              	 .cfi_def_cfa_offset 36
 1115              	 
 1116 04a0 BDE8F08F 	 pop {r4,r5,r6,r7,r8,r9,r10,fp,pc}
 1117              	.LVL127:
 1118              	.L15:
 1119              	.LCFI3:
 1120              	 .cfi_restore_state
 370:../Dave/Generated/CMSIS_DSP/FilteringFunctions/arm_fir_lattice_q15.c ****   {
 1121              	 .loc 1 370 0
 1122 04a4 013F     	 subs r7,r7,#1
 1123              	.LVL128:
 399:../Dave/Generated/CMSIS_DSP/FilteringFunctions/arm_fir_lattice_q15.c **** 
 1124              	 .loc 1 399 0
 1125 04a6 0846     	 mov r0,r1
 1126              	.LVL129:
 1127              	.LBB64:
 431:../Dave/Generated/CMSIS_DSP/FilteringFunctions/arm_fir_lattice_q15.c **** 
 1128              	 .loc 1 431 0
 1129              	
 1130 04a8 00F30F00 	 ssat r0,#16,r0
 1131              	
 1132              	.LVL130:
 1133              	 .thumb
 1134              	.LBE64:
 1135 04ac 2BF8020B 	 strh r0,[fp],#2
 1136              	.LVL131:
 370:../Dave/Generated/CMSIS_DSP/FilteringFunctions/arm_fir_lattice_q15.c ****   {
 1137              	 .loc 1 370 0
 1138 04b0 BDD1     	 bne .L11
 1139 04b2 F4E7     	 b .L1
 1140              	.LVL132:
 1141              	.L14:
 309:../Dave/Generated/CMSIS_DSP/FilteringFunctions/arm_fir_lattice_q15.c ****     {
 1142              	 .loc 1 309 0
 1143 04b4 6446     	 mov r4,ip
 1144 04b6 4D46     	 mov r5,r9
 1145 04b8 0398     	 ldr r0,[sp,#12]
 1146 04ba 5E46     	 mov r6,fp
 1147 04bc 87E7     	 b .L5
 1148              	.LVL133:
 1149              	.L13:
 132:../Dave/Generated/CMSIS_DSP/FilteringFunctions/arm_fir_lattice_q15.c ****     gnext4 = __SSAT(gnext4, 16);
 1150              	 .loc 1 132 0
 1151 04be 1899     	 ldr r1,[sp,#96]
 1152 04c0 0491     	 str r1,[sp,#16]
 121:../Dave/Generated/CMSIS_DSP/FilteringFunctions/arm_fir_lattice_q15.c **** 
 1153              	 .loc 1 121 0
 1154 04c2 DDF85C80 	 ldr r8,[sp,#92]
 1155 04c6 30E7     	 b .L3
 1156              	 .cfi_endproc
 1157              	.LFE135:
 1159              	 .text
 1160              	.Letext0:
 1161              	 .file 2 "c:\\infineon\\tools\\dave ide\\4.5.0.202105191637\\eclipse\\arm-gcc-49\\arm-none-eabi\\include\\machine\\_default_types.h"
 1162              	 .file 3 "c:\\infineon\\tools\\dave ide\\4.5.0.202105191637\\eclipse\\arm-gcc-49\\arm-none-eabi\\include\\stdint.h"
 1163              	 .file 4 "C:/Users/Utente/Desktop/Tesi/Firmware_Software/DAVE project/S2GLP_Pulsed_Doppler/Dave/Generated/CMSIS_DSP/arm_math.h"