   1              	 .syntax unified
   2              	 .cpu cortex-m4
   3              	 .eabi_attribute 27,3
   4              	 .fpu fpv4-sp-d16
   5              	 .eabi_attribute 20,1
   6              	 .eabi_attribute 21,1
   7              	 .eabi_attribute 23,3
   8              	 .eabi_attribute 24,1
   9              	 .eabi_attribute 25,1
  10              	 .eabi_attribute 26,1
  11              	 .eabi_attribute 30,2
  12              	 .eabi_attribute 34,1
  13              	 .eabi_attribute 18,4
  14              	 .thumb
  15              	 .file "arm_fir_decimate_fast_q31.c"
  16              	 .text
  17              	.Ltext0:
  18              	 .cfi_sections .debug_frame
  19              	 .section .text.arm_fir_decimate_fast_q31,"ax",%progbits
  20              	 .align 2
  21              	 .global arm_fir_decimate_fast_q31
  22              	 .thumb
  23              	 .thumb_func
  25              	arm_fir_decimate_fast_q31:
  26              	.LFB135:
  27              	 .file 1 "../Dave/Generated/CMSIS_DSP/FilteringFunctions/arm_fir_decimate_fast_q31.c"
   1:../Dave/Generated/CMSIS_DSP/FilteringFunctions/arm_fir_decimate_fast_q31.c **** /* ----------------------------------------------------------------------
   2:../Dave/Generated/CMSIS_DSP/FilteringFunctions/arm_fir_decimate_fast_q31.c ****  * Project:      CMSIS DSP Library
   3:../Dave/Generated/CMSIS_DSP/FilteringFunctions/arm_fir_decimate_fast_q31.c ****  * Title:        arm_fir_decimate_fast_q31.c
   4:../Dave/Generated/CMSIS_DSP/FilteringFunctions/arm_fir_decimate_fast_q31.c ****  * Description:  Fast Q31 FIR Decimator
   5:../Dave/Generated/CMSIS_DSP/FilteringFunctions/arm_fir_decimate_fast_q31.c ****  *
   6:../Dave/Generated/CMSIS_DSP/FilteringFunctions/arm_fir_decimate_fast_q31.c ****  * $Date:        27. January 2017
   7:../Dave/Generated/CMSIS_DSP/FilteringFunctions/arm_fir_decimate_fast_q31.c ****  * $Revision:    V.1.5.1
   8:../Dave/Generated/CMSIS_DSP/FilteringFunctions/arm_fir_decimate_fast_q31.c ****  *
   9:../Dave/Generated/CMSIS_DSP/FilteringFunctions/arm_fir_decimate_fast_q31.c ****  * Target Processor: Cortex-M cores
  10:../Dave/Generated/CMSIS_DSP/FilteringFunctions/arm_fir_decimate_fast_q31.c ****  * -------------------------------------------------------------------- */
  11:../Dave/Generated/CMSIS_DSP/FilteringFunctions/arm_fir_decimate_fast_q31.c **** /*
  12:../Dave/Generated/CMSIS_DSP/FilteringFunctions/arm_fir_decimate_fast_q31.c ****  * Copyright (C) 2010-2017 ARM Limited or its affiliates. All rights reserved.
  13:../Dave/Generated/CMSIS_DSP/FilteringFunctions/arm_fir_decimate_fast_q31.c ****  *
  14:../Dave/Generated/CMSIS_DSP/FilteringFunctions/arm_fir_decimate_fast_q31.c ****  * SPDX-License-Identifier: Apache-2.0
  15:../Dave/Generated/CMSIS_DSP/FilteringFunctions/arm_fir_decimate_fast_q31.c ****  *
  16:../Dave/Generated/CMSIS_DSP/FilteringFunctions/arm_fir_decimate_fast_q31.c ****  * Licensed under the Apache License, Version 2.0 (the License); you may
  17:../Dave/Generated/CMSIS_DSP/FilteringFunctions/arm_fir_decimate_fast_q31.c ****  * not use this file except in compliance with the License.
  18:../Dave/Generated/CMSIS_DSP/FilteringFunctions/arm_fir_decimate_fast_q31.c ****  * You may obtain a copy of the License at
  19:../Dave/Generated/CMSIS_DSP/FilteringFunctions/arm_fir_decimate_fast_q31.c ****  *
  20:../Dave/Generated/CMSIS_DSP/FilteringFunctions/arm_fir_decimate_fast_q31.c ****  * www.apache.org/licenses/LICENSE-2.0
  21:../Dave/Generated/CMSIS_DSP/FilteringFunctions/arm_fir_decimate_fast_q31.c ****  *
  22:../Dave/Generated/CMSIS_DSP/FilteringFunctions/arm_fir_decimate_fast_q31.c ****  * Unless required by applicable law or agreed to in writing, software
  23:../Dave/Generated/CMSIS_DSP/FilteringFunctions/arm_fir_decimate_fast_q31.c ****  * distributed under the License is distributed on an AS IS BASIS, WITHOUT
  24:../Dave/Generated/CMSIS_DSP/FilteringFunctions/arm_fir_decimate_fast_q31.c ****  * WARRANTIES OR CONDITIONS OF ANY KIND, either express or implied.
  25:../Dave/Generated/CMSIS_DSP/FilteringFunctions/arm_fir_decimate_fast_q31.c ****  * See the License for the specific language governing permissions and
  26:../Dave/Generated/CMSIS_DSP/FilteringFunctions/arm_fir_decimate_fast_q31.c ****  * limitations under the License.
  27:../Dave/Generated/CMSIS_DSP/FilteringFunctions/arm_fir_decimate_fast_q31.c ****  */
  28:../Dave/Generated/CMSIS_DSP/FilteringFunctions/arm_fir_decimate_fast_q31.c **** 
  29:../Dave/Generated/CMSIS_DSP/FilteringFunctions/arm_fir_decimate_fast_q31.c **** #include "CMSIS_DSP/cmsis_dsp.h"
  30:../Dave/Generated/CMSIS_DSP/FilteringFunctions/arm_fir_decimate_fast_q31.c **** 
  31:../Dave/Generated/CMSIS_DSP/FilteringFunctions/arm_fir_decimate_fast_q31.c **** /**
  32:../Dave/Generated/CMSIS_DSP/FilteringFunctions/arm_fir_decimate_fast_q31.c ****  * @ingroup groupFilters
  33:../Dave/Generated/CMSIS_DSP/FilteringFunctions/arm_fir_decimate_fast_q31.c ****  */
  34:../Dave/Generated/CMSIS_DSP/FilteringFunctions/arm_fir_decimate_fast_q31.c **** 
  35:../Dave/Generated/CMSIS_DSP/FilteringFunctions/arm_fir_decimate_fast_q31.c **** /**
  36:../Dave/Generated/CMSIS_DSP/FilteringFunctions/arm_fir_decimate_fast_q31.c ****  * @addtogroup FIR_decimate
  37:../Dave/Generated/CMSIS_DSP/FilteringFunctions/arm_fir_decimate_fast_q31.c ****  * @{
  38:../Dave/Generated/CMSIS_DSP/FilteringFunctions/arm_fir_decimate_fast_q31.c ****  */
  39:../Dave/Generated/CMSIS_DSP/FilteringFunctions/arm_fir_decimate_fast_q31.c **** 
  40:../Dave/Generated/CMSIS_DSP/FilteringFunctions/arm_fir_decimate_fast_q31.c **** /**
  41:../Dave/Generated/CMSIS_DSP/FilteringFunctions/arm_fir_decimate_fast_q31.c ****  * @brief Processing function for the Q31 FIR decimator (fast variant) for Cortex-M3 and Cortex-M4.
  42:../Dave/Generated/CMSIS_DSP/FilteringFunctions/arm_fir_decimate_fast_q31.c ****  * @param[in] *S points to an instance of the Q31 FIR decimator structure.
  43:../Dave/Generated/CMSIS_DSP/FilteringFunctions/arm_fir_decimate_fast_q31.c ****  * @param[in] *pSrc points to the block of input data.
  44:../Dave/Generated/CMSIS_DSP/FilteringFunctions/arm_fir_decimate_fast_q31.c ****  * @param[out] *pDst points to the block of output data
  45:../Dave/Generated/CMSIS_DSP/FilteringFunctions/arm_fir_decimate_fast_q31.c ****  * @param[in] blockSize number of input samples to process per call.
  46:../Dave/Generated/CMSIS_DSP/FilteringFunctions/arm_fir_decimate_fast_q31.c ****  * @return none
  47:../Dave/Generated/CMSIS_DSP/FilteringFunctions/arm_fir_decimate_fast_q31.c ****  *
  48:../Dave/Generated/CMSIS_DSP/FilteringFunctions/arm_fir_decimate_fast_q31.c ****  * <b>Scaling and Overflow Behavior:</b>
  49:../Dave/Generated/CMSIS_DSP/FilteringFunctions/arm_fir_decimate_fast_q31.c ****  *
  50:../Dave/Generated/CMSIS_DSP/FilteringFunctions/arm_fir_decimate_fast_q31.c ****  * \par
  51:../Dave/Generated/CMSIS_DSP/FilteringFunctions/arm_fir_decimate_fast_q31.c ****  * This function is optimized for speed at the expense of fixed-point precision and overflow protec
  52:../Dave/Generated/CMSIS_DSP/FilteringFunctions/arm_fir_decimate_fast_q31.c ****  * The result of each 1.31 x 1.31 multiplication is truncated to 2.30 format.
  53:../Dave/Generated/CMSIS_DSP/FilteringFunctions/arm_fir_decimate_fast_q31.c ****  * These intermediate results are added to a 2.30 accumulator.
  54:../Dave/Generated/CMSIS_DSP/FilteringFunctions/arm_fir_decimate_fast_q31.c ****  * Finally, the accumulator is saturated and converted to a 1.31 result.
  55:../Dave/Generated/CMSIS_DSP/FilteringFunctions/arm_fir_decimate_fast_q31.c ****  * The fast version has the same overflow behavior as the standard version and provides less precis
  56:../Dave/Generated/CMSIS_DSP/FilteringFunctions/arm_fir_decimate_fast_q31.c ****  * In order to avoid overflows completely the input signal must be scaled down by log2(numTaps) bit
  57:../Dave/Generated/CMSIS_DSP/FilteringFunctions/arm_fir_decimate_fast_q31.c ****  *
  58:../Dave/Generated/CMSIS_DSP/FilteringFunctions/arm_fir_decimate_fast_q31.c ****  * \par
  59:../Dave/Generated/CMSIS_DSP/FilteringFunctions/arm_fir_decimate_fast_q31.c ****  * Refer to the function <code>arm_fir_decimate_q31()</code> for a slower implementation of this fu
  60:../Dave/Generated/CMSIS_DSP/FilteringFunctions/arm_fir_decimate_fast_q31.c ****  * Both the slow and the fast versions use the same instance structure.
  61:../Dave/Generated/CMSIS_DSP/FilteringFunctions/arm_fir_decimate_fast_q31.c ****  * Use the function <code>arm_fir_decimate_init_q31()</code> to initialize the filter structure.
  62:../Dave/Generated/CMSIS_DSP/FilteringFunctions/arm_fir_decimate_fast_q31.c ****  */
  63:../Dave/Generated/CMSIS_DSP/FilteringFunctions/arm_fir_decimate_fast_q31.c **** 
  64:../Dave/Generated/CMSIS_DSP/FilteringFunctions/arm_fir_decimate_fast_q31.c **** void arm_fir_decimate_fast_q31(
  65:../Dave/Generated/CMSIS_DSP/FilteringFunctions/arm_fir_decimate_fast_q31.c ****   arm_fir_decimate_instance_q31 * S,
  66:../Dave/Generated/CMSIS_DSP/FilteringFunctions/arm_fir_decimate_fast_q31.c ****   q31_t * pSrc,
  67:../Dave/Generated/CMSIS_DSP/FilteringFunctions/arm_fir_decimate_fast_q31.c ****   q31_t * pDst,
  68:../Dave/Generated/CMSIS_DSP/FilteringFunctions/arm_fir_decimate_fast_q31.c ****   uint32_t blockSize)
  69:../Dave/Generated/CMSIS_DSP/FilteringFunctions/arm_fir_decimate_fast_q31.c **** {
  28              	 .loc 1 69 0
  29              	 .cfi_startproc
  30              	 
  31              	 
  32              	.LVL0:
  33 0000 2DE9F04F 	 push {r4,r5,r6,r7,r8,r9,r10,fp,lr}
  34              	.LCFI0:
  35              	 .cfi_def_cfa_offset 36
  36              	 .cfi_offset 4,-36
  37              	 .cfi_offset 5,-32
  38              	 .cfi_offset 6,-28
  39              	 .cfi_offset 7,-24
  40              	 .cfi_offset 8,-20
  41              	 .cfi_offset 9,-16
  42              	 .cfi_offset 10,-12
  43              	 .cfi_offset 11,-8
  44              	 .cfi_offset 14,-4
  45 0004 B1B0     	 sub sp,sp,#196
  46              	.LCFI1:
  47              	 .cfi_def_cfa_offset 232
  48              	 .loc 1 69 0
  49 0006 0646     	 mov r6,r0
  50 0008 1591     	 str r1,[sp,#84]
  70:../Dave/Generated/CMSIS_DSP/FilteringFunctions/arm_fir_decimate_fast_q31.c ****   q31_t *pState = S->pState;                     /* State pointer */
  71:../Dave/Generated/CMSIS_DSP/FilteringFunctions/arm_fir_decimate_fast_q31.c ****   q31_t *pCoeffs = S->pCoeffs;                   /* Coefficient pointer */
  72:../Dave/Generated/CMSIS_DSP/FilteringFunctions/arm_fir_decimate_fast_q31.c ****   q31_t *pStateCurnt;                            /* Points to the current sample of the state */
  73:../Dave/Generated/CMSIS_DSP/FilteringFunctions/arm_fir_decimate_fast_q31.c ****   q31_t x0, c0;                                  /* Temporary variables to hold state and coefficie
  74:../Dave/Generated/CMSIS_DSP/FilteringFunctions/arm_fir_decimate_fast_q31.c ****   q31_t *px;                                     /* Temporary pointers for state buffer */
  75:../Dave/Generated/CMSIS_DSP/FilteringFunctions/arm_fir_decimate_fast_q31.c ****   q31_t *pb;                                     /* Temporary pointers for coefficient buffer */
  76:../Dave/Generated/CMSIS_DSP/FilteringFunctions/arm_fir_decimate_fast_q31.c ****   q31_t sum0;                                    /* Accumulator */
  77:../Dave/Generated/CMSIS_DSP/FilteringFunctions/arm_fir_decimate_fast_q31.c ****   uint32_t numTaps = S->numTaps;                 /* Number of taps */
  51              	 .loc 1 77 0
  52 000a 4188     	 ldrh r1,[r0,#2]
  53              	.LVL1:
  69:../Dave/Generated/CMSIS_DSP/FilteringFunctions/arm_fir_decimate_fast_q31.c ****   q31_t *pState = S->pState;                     /* State pointer */
  54              	 .loc 1 69 0
  55 000c 1490     	 str r0,[sp,#80]
  56              	 .loc 1 77 0
  57 000e 2891     	 str r1,[sp,#160]
  58 0010 0846     	 mov r0,r1
  59              	.LVL2:
  70:../Dave/Generated/CMSIS_DSP/FilteringFunctions/arm_fir_decimate_fast_q31.c ****   q31_t *pState = S->pState;                     /* State pointer */
  60              	 .loc 1 70 0
  61 0012 B168     	 ldr r1,[r6,#8]
  62 0014 2791     	 str r1,[sp,#156]
  63              	.LVL3:
  64 0016 0F46     	 mov r7,r1
  78:../Dave/Generated/CMSIS_DSP/FilteringFunctions/arm_fir_decimate_fast_q31.c ****   uint32_t i, tapCnt, blkCnt, outBlockSize = blockSize / S->M;  /* Loop counters */
  65              	 .loc 1 78 0
  66 0018 3478     	 ldrb r4,[r6]
  67 001a B3FBF4F3 	 udiv r3,r3,r4
  68              	.LVL4:
  79:../Dave/Generated/CMSIS_DSP/FilteringFunctions/arm_fir_decimate_fast_q31.c ****   uint32_t blkCntN2;
  80:../Dave/Generated/CMSIS_DSP/FilteringFunctions/arm_fir_decimate_fast_q31.c ****   q31_t x1;
  81:../Dave/Generated/CMSIS_DSP/FilteringFunctions/arm_fir_decimate_fast_q31.c ****   q31_t acc0, acc1;
  82:../Dave/Generated/CMSIS_DSP/FilteringFunctions/arm_fir_decimate_fast_q31.c ****   q31_t *px0, *px1;
  83:../Dave/Generated/CMSIS_DSP/FilteringFunctions/arm_fir_decimate_fast_q31.c **** 
  84:../Dave/Generated/CMSIS_DSP/FilteringFunctions/arm_fir_decimate_fast_q31.c ****   /* S->pState buffer contains previous frame (numTaps - 1) samples */
  85:../Dave/Generated/CMSIS_DSP/FilteringFunctions/arm_fir_decimate_fast_q31.c ****   /* pStateCurnt points to the location where the new input data should be written */
  86:../Dave/Generated/CMSIS_DSP/FilteringFunctions/arm_fir_decimate_fast_q31.c ****   pStateCurnt = S->pState + (numTaps - 1u);
  69              	 .loc 1 86 0
  70 001e 00F18041 	 add r1,r0,#1073741824
  71              	.LVL5:
  72 0022 0546     	 mov r5,r0
  87:../Dave/Generated/CMSIS_DSP/FilteringFunctions/arm_fir_decimate_fast_q31.c **** 
  88:../Dave/Generated/CMSIS_DSP/FilteringFunctions/arm_fir_decimate_fast_q31.c ****   /* Total number of output samples to be computed */
  89:../Dave/Generated/CMSIS_DSP/FilteringFunctions/arm_fir_decimate_fast_q31.c **** 
  90:../Dave/Generated/CMSIS_DSP/FilteringFunctions/arm_fir_decimate_fast_q31.c ****   blkCnt = outBlockSize / 2;
  73              	 .loc 1 90 0
  74 0024 5808     	 lsrs r0,r3,#1
  91:../Dave/Generated/CMSIS_DSP/FilteringFunctions/arm_fir_decimate_fast_q31.c ****   blkCntN2 = outBlockSize - (2 * blkCnt);
  75              	 .loc 1 91 0
  76 0026 A3EB4003 	 sub r3,r3,r0,lsl#1
  86:../Dave/Generated/CMSIS_DSP/FilteringFunctions/arm_fir_decimate_fast_q31.c **** 
  77              	 .loc 1 86 0
  78 002a 0139     	 subs r1,r1,#1
  79 002c 07EB8101 	 add r1,r7,r1,lsl#2
  80              	 .loc 1 91 0
  81 0030 1793     	 str r3,[sp,#92]
  71:../Dave/Generated/CMSIS_DSP/FilteringFunctions/arm_fir_decimate_fast_q31.c ****   q31_t *pStateCurnt;                            /* Points to the current sample of the state */
  82              	 .loc 1 71 0
  83 0032 7368     	 ldr r3,[r6,#4]
  86:../Dave/Generated/CMSIS_DSP/FilteringFunctions/arm_fir_decimate_fast_q31.c **** 
  84              	 .loc 1 86 0
  85 0034 1191     	 str r1,[sp,#68]
  90:../Dave/Generated/CMSIS_DSP/FilteringFunctions/arm_fir_decimate_fast_q31.c ****   blkCntN2 = outBlockSize - (2 * blkCnt);
  86              	 .loc 1 90 0
  87 0036 2990     	 str r0,[sp,#164]
  69:../Dave/Generated/CMSIS_DSP/FilteringFunctions/arm_fir_decimate_fast_q31.c ****   q31_t *pState = S->pState;                     /* State pointer */
  88              	 .loc 1 69 0
  89 0038 9646     	 mov lr,r2
  90 003a 1692     	 str r2,[sp,#88]
  91              	 .loc 1 91 0
  92 003c 0146     	 mov r1,r0
  71:../Dave/Generated/CMSIS_DSP/FilteringFunctions/arm_fir_decimate_fast_q31.c ****   q31_t *pStateCurnt;                            /* Points to the current sample of the state */
  93              	 .loc 1 71 0
  94 003e 1893     	 str r3,[sp,#96]
  95              	.LVL6:
  92:../Dave/Generated/CMSIS_DSP/FilteringFunctions/arm_fir_decimate_fast_q31.c **** 
  93:../Dave/Generated/CMSIS_DSP/FilteringFunctions/arm_fir_decimate_fast_q31.c ****   while (blkCnt > 0u)
  96              	 .loc 1 93 0
  97 0040 0028     	 cmp r0,#0
  98 0042 00F0BF81 	 beq .L22
  99 0046 2846     	 mov r0,r5
 100              	.LVL7:
 101 0048 AD08     	 lsrs r5,r5,#2
 102              	.LVL8:
 103 004a 2395     	 str r5,[sp,#140]
 104 004c 2D01     	 lsls r5,r5,#4
 105 004e 2B44     	 add r3,r3,r5
 106              	.LVL9:
 107 0050 2693     	 str r3,[sp,#152]
 108 0052 00F00303 	 and r3,r0,#3
 109 0056 2493     	 str r3,[sp,#144]
 110 0058 7346     	 mov r3,lr
 111 005a 0833     	 adds r3,r3,#8
 112 005c CDE92AAB 	 strd r10,[sp,#168]
 113 0060 2595     	 str r5,[sp,#148]
 114 0062 1993     	 str r3,[sp,#100]
 115 0064 1A91     	 str r1,[sp,#104]
 116 0066 1297     	 str r7,[sp,#72]
 117 0068 C246     	 mov r10,r8
 118 006a CB46     	 mov fp,r9
 119              	.LVL10:
 120              	.L9:
 121 006c 119B     	 ldr r3,[sp,#68]
  94:../Dave/Generated/CMSIS_DSP/FilteringFunctions/arm_fir_decimate_fast_q31.c ****   {
  95:../Dave/Generated/CMSIS_DSP/FilteringFunctions/arm_fir_decimate_fast_q31.c ****     /* Copy decimation factor number of new input samples into the state buffer */
  96:../Dave/Generated/CMSIS_DSP/FilteringFunctions/arm_fir_decimate_fast_q31.c ****     i = 2 * S->M;
 122              	 .loc 1 96 0
 123 006e 6400     	 lsls r4,r4,#1
 124              	.LVL11:
 125 0070 1A1F     	 subs r2,r3,#4
 126 0072 159B     	 ldr r3,[sp,#84]
 127 0074 2046     	 mov r0,r4
 128              	.LVL12:
 129              	.L3:
  97:../Dave/Generated/CMSIS_DSP/FilteringFunctions/arm_fir_decimate_fast_q31.c **** 
  98:../Dave/Generated/CMSIS_DSP/FilteringFunctions/arm_fir_decimate_fast_q31.c ****     do
  99:../Dave/Generated/CMSIS_DSP/FilteringFunctions/arm_fir_decimate_fast_q31.c ****     {
 100:../Dave/Generated/CMSIS_DSP/FilteringFunctions/arm_fir_decimate_fast_q31.c ****       *pStateCurnt++ = *pSrc++;
 130              	 .loc 1 100 0 discriminator 1
 131 0076 53F8041B 	 ldr r1,[r3],#4
 132              	.LVL13:
 133 007a 42F8041F 	 str r1,[r2,#4]!
 101:../Dave/Generated/CMSIS_DSP/FilteringFunctions/arm_fir_decimate_fast_q31.c **** 
 102:../Dave/Generated/CMSIS_DSP/FilteringFunctions/arm_fir_decimate_fast_q31.c ****     } while (--i);
 134              	 .loc 1 102 0 discriminator 1
 135 007e 0138     	 subs r0,r0,#1
 136              	.LVL14:
 137 0080 F9D1     	 bne .L3
 138 0082 119A     	 ldr r2,[sp,#68]
 103:../Dave/Generated/CMSIS_DSP/FilteringFunctions/arm_fir_decimate_fast_q31.c **** 
 104:../Dave/Generated/CMSIS_DSP/FilteringFunctions/arm_fir_decimate_fast_q31.c ****     /* Set accumulator to zero */
 105:../Dave/Generated/CMSIS_DSP/FilteringFunctions/arm_fir_decimate_fast_q31.c ****     acc0 = 0;
 106:../Dave/Generated/CMSIS_DSP/FilteringFunctions/arm_fir_decimate_fast_q31.c ****     acc1 = 0;
 107:../Dave/Generated/CMSIS_DSP/FilteringFunctions/arm_fir_decimate_fast_q31.c **** 
 108:../Dave/Generated/CMSIS_DSP/FilteringFunctions/arm_fir_decimate_fast_q31.c ****     /* Initialize state pointer */
 109:../Dave/Generated/CMSIS_DSP/FilteringFunctions/arm_fir_decimate_fast_q31.c ****     px0 = pState;
 110:../Dave/Generated/CMSIS_DSP/FilteringFunctions/arm_fir_decimate_fast_q31.c ****     px1 = pState + S->M;
 139              	 .loc 1 110 0
 140 0084 149B     	 ldr r3,[sp,#80]
 141              	.LVL15:
 142 0086 129D     	 ldr r5,[sp,#72]
 143 0088 1B78     	 ldrb r3,[r3]
 111:../Dave/Generated/CMSIS_DSP/FilteringFunctions/arm_fir_decimate_fast_q31.c **** 
 112:../Dave/Generated/CMSIS_DSP/FilteringFunctions/arm_fir_decimate_fast_q31.c ****     /* Initialize coeff pointer */
 113:../Dave/Generated/CMSIS_DSP/FilteringFunctions/arm_fir_decimate_fast_q31.c ****     pb = pCoeffs;
 114:../Dave/Generated/CMSIS_DSP/FilteringFunctions/arm_fir_decimate_fast_q31.c **** 
 115:../Dave/Generated/CMSIS_DSP/FilteringFunctions/arm_fir_decimate_fast_q31.c ****     /* Loop unrolling.  Process 4 taps at a time. */
 116:../Dave/Generated/CMSIS_DSP/FilteringFunctions/arm_fir_decimate_fast_q31.c ****     tapCnt = numTaps >> 2;
 117:../Dave/Generated/CMSIS_DSP/FilteringFunctions/arm_fir_decimate_fast_q31.c **** 
 118:../Dave/Generated/CMSIS_DSP/FilteringFunctions/arm_fir_decimate_fast_q31.c ****     /* Loop over the number of taps.  Unroll by a factor of 4.
 119:../Dave/Generated/CMSIS_DSP/FilteringFunctions/arm_fir_decimate_fast_q31.c ****      ** Repeat until we've computed numTaps-4 coefficients. */
 120:../Dave/Generated/CMSIS_DSP/FilteringFunctions/arm_fir_decimate_fast_q31.c ****     while (tapCnt > 0u)
 144              	 .loc 1 120 0
 145 008a 239E     	 ldr r6,[sp,#140]
 146 008c A400     	 lsls r4,r4,#2
 147 008e 2244     	 add r2,r2,r4
 148 0090 1192     	 str r2,[sp,#68]
 149 0092 159A     	 ldr r2,[sp,#84]
 110:../Dave/Generated/CMSIS_DSP/FilteringFunctions/arm_fir_decimate_fast_q31.c **** 
 150              	 .loc 1 110 0
 151 0094 9B00     	 lsls r3,r3,#2
 152 0096 2244     	 add r2,r2,r4
 153 0098 1B93     	 str r3,[sp,#108]
 154 009a 1592     	 str r2,[sp,#84]
 155              	.LVL16:
 156 009c 05EB030E 	 add lr,r5,r3
 157              	.LVL17:
 158 00a0 2A46     	 mov r2,r5
 159              	 .loc 1 120 0
 160 00a2 3346     	 mov r3,r6
 161 00a4 002E     	 cmp r6,#0
 162 00a6 00F0B380 	 beq .L23
 163 00aa 189B     	 ldr r3,[sp,#96]
 164 00ac CDF888E0 	 str lr,[sp,#136]
 165 00b0 03F11001 	 add r1,r3,#16
 166 00b4 0446     	 mov r4,r0
 167 00b6 1032     	 adds r2,r2,#16
 168 00b8 0EF11003 	 add r3,lr,#16
 169 00bc B446     	 mov ip,r6
 170              	.LVL18:
 171              	.L5:
 121:../Dave/Generated/CMSIS_DSP/FilteringFunctions/arm_fir_decimate_fast_q31.c ****     {
 122:../Dave/Generated/CMSIS_DSP/FilteringFunctions/arm_fir_decimate_fast_q31.c ****       /* Read the b[numTaps-1] coefficient */
 123:../Dave/Generated/CMSIS_DSP/FilteringFunctions/arm_fir_decimate_fast_q31.c ****       c0 = *(pb);
 124:../Dave/Generated/CMSIS_DSP/FilteringFunctions/arm_fir_decimate_fast_q31.c **** 
 125:../Dave/Generated/CMSIS_DSP/FilteringFunctions/arm_fir_decimate_fast_q31.c ****       /* Read x[n-numTaps-1] for sample 0 sample 1 */
 126:../Dave/Generated/CMSIS_DSP/FilteringFunctions/arm_fir_decimate_fast_q31.c ****       x0 = *(px0);
 127:../Dave/Generated/CMSIS_DSP/FilteringFunctions/arm_fir_decimate_fast_q31.c ****       x1 = *(px1);
 128:../Dave/Generated/CMSIS_DSP/FilteringFunctions/arm_fir_decimate_fast_q31.c **** 
 129:../Dave/Generated/CMSIS_DSP/FilteringFunctions/arm_fir_decimate_fast_q31.c ****       /* Perform the multiply-accumulate */
 130:../Dave/Generated/CMSIS_DSP/FilteringFunctions/arm_fir_decimate_fast_q31.c ****       acc0 = (q31_t) ((((q63_t) acc0 << 32) + ((q63_t) x0 * c0)) >> 32);
 172              	 .loc 1 130 0
 173 00be 4FF0000A 	 mov r10,#0
 131:../Dave/Generated/CMSIS_DSP/FilteringFunctions/arm_fir_decimate_fast_q31.c ****       acc1 = (q31_t) ((((q63_t) acc1 << 32) + ((q63_t) x1 * c0)) >> 32);
 174              	 .loc 1 131 0
 175 00c2 0190     	 str r0,[sp,#4]
 176 00c4 CDF800A0 	 str r10,[sp]
 177 00c8 DDE90089 	 ldrd r8,[sp]
 123:../Dave/Generated/CMSIS_DSP/FilteringFunctions/arm_fir_decimate_fast_q31.c **** 
 178              	 .loc 1 123 0
 179 00cc 51F8105C 	 ldr r5,[r1,#-16]
 180              	.LVL19:
 132:../Dave/Generated/CMSIS_DSP/FilteringFunctions/arm_fir_decimate_fast_q31.c **** 
 133:../Dave/Generated/CMSIS_DSP/FilteringFunctions/arm_fir_decimate_fast_q31.c ****       /* Read the b[numTaps-2] coefficient */
 134:../Dave/Generated/CMSIS_DSP/FilteringFunctions/arm_fir_decimate_fast_q31.c ****       c0 = *(pb + 1u);
 135:../Dave/Generated/CMSIS_DSP/FilteringFunctions/arm_fir_decimate_fast_q31.c **** 
 136:../Dave/Generated/CMSIS_DSP/FilteringFunctions/arm_fir_decimate_fast_q31.c ****       /* Read x[n-numTaps-2]  for sample 0 sample 1  */
 137:../Dave/Generated/CMSIS_DSP/FilteringFunctions/arm_fir_decimate_fast_q31.c ****       x0 = *(px0 + 1u);
 138:../Dave/Generated/CMSIS_DSP/FilteringFunctions/arm_fir_decimate_fast_q31.c ****       x1 = *(px1 + 1u);
 181              	 .loc 1 138 0
 182 00d0 53F80C6C 	 ldr r6,[r3,#-12]
 139:../Dave/Generated/CMSIS_DSP/FilteringFunctions/arm_fir_decimate_fast_q31.c **** 
 140:../Dave/Generated/CMSIS_DSP/FilteringFunctions/arm_fir_decimate_fast_q31.c ****       /* Perform the multiply-accumulate */
 141:../Dave/Generated/CMSIS_DSP/FilteringFunctions/arm_fir_decimate_fast_q31.c ****       acc0 = (q31_t) ((((q63_t) acc0 << 32) + ((q63_t) x0 * c0)) >> 32);
 142:../Dave/Generated/CMSIS_DSP/FilteringFunctions/arm_fir_decimate_fast_q31.c ****       acc1 = (q31_t) ((((q63_t) acc1 << 32) + ((q63_t) x1 * c0)) >> 32);
 183              	 .loc 1 142 0
 184 00d4 CDF810A0 	 str r10,[sp,#16]
 130:../Dave/Generated/CMSIS_DSP/FilteringFunctions/arm_fir_decimate_fast_q31.c ****       acc1 = (q31_t) ((((q63_t) acc1 << 32) + ((q63_t) x1 * c0)) >> 32);
 185              	 .loc 1 130 0
 186 00d8 A346     	 mov fp,r4
 127:../Dave/Generated/CMSIS_DSP/FilteringFunctions/arm_fir_decimate_fast_q31.c **** 
 187              	 .loc 1 127 0
 188 00da 53F8104C 	 ldr r4,[r3,#-16]
 189              	.LVL20:
 138:../Dave/Generated/CMSIS_DSP/FilteringFunctions/arm_fir_decimate_fast_q31.c **** 
 190              	 .loc 1 138 0
 191 00de 1096     	 str r6,[sp,#64]
 131:../Dave/Generated/CMSIS_DSP/FilteringFunctions/arm_fir_decimate_fast_q31.c **** 
 192              	 .loc 1 131 0
 193 00e0 C4FB0589 	 smlal r8,r9,r4,r5
 194              	 .loc 1 142 0
 195 00e4 CDF81490 	 str r9,[sp,#20]
 130:../Dave/Generated/CMSIS_DSP/FilteringFunctions/arm_fir_decimate_fast_q31.c ****       acc1 = (q31_t) ((((q63_t) acc1 << 32) + ((q63_t) x1 * c0)) >> 32);
 196              	 .loc 1 130 0
 197 00e8 52F8104C 	 ldr r4,[r2,#-16]
 198              	.LVL21:
 134:../Dave/Generated/CMSIS_DSP/FilteringFunctions/arm_fir_decimate_fast_q31.c **** 
 199              	 .loc 1 134 0
 200 00ec 51F80CEC 	 ldr lr,[r1,#-12]
 141:../Dave/Generated/CMSIS_DSP/FilteringFunctions/arm_fir_decimate_fast_q31.c ****       acc1 = (q31_t) ((((q63_t) acc1 << 32) + ((q63_t) x1 * c0)) >> 32);
 201              	 .loc 1 141 0
 202 00f0 CDF808A0 	 str r10,[sp,#8]
 203              	 .loc 1 142 0
 204 00f4 DDE90489 	 ldrd r8,[sp,#16]
 130:../Dave/Generated/CMSIS_DSP/FilteringFunctions/arm_fir_decimate_fast_q31.c ****       acc1 = (q31_t) ((((q63_t) acc1 << 32) + ((q63_t) x1 * c0)) >> 32);
 205              	 .loc 1 130 0
 206 00f8 5646     	 mov r6,r10
 207 00fa 5F46     	 mov r7,fp
 208 00fc C5FB0467 	 smlal r6,r7,r5,r4
 209              	.LVL22:
 210              	 .loc 1 142 0
 211 0100 109E     	 ldr r6,[sp,#64]
 141:../Dave/Generated/CMSIS_DSP/FilteringFunctions/arm_fir_decimate_fast_q31.c ****       acc1 = (q31_t) ((((q63_t) acc1 << 32) + ((q63_t) x1 * c0)) >> 32);
 212              	 .loc 1 141 0
 213 0102 0397     	 str r7,[sp,#12]
 214              	 .loc 1 142 0
 215 0104 C6FB0E89 	 smlal r8,r9,r6,lr
 141:../Dave/Generated/CMSIS_DSP/FilteringFunctions/arm_fir_decimate_fast_q31.c ****       acc1 = (q31_t) ((((q63_t) acc1 << 32) + ((q63_t) x1 * c0)) >> 32);
 216              	 .loc 1 141 0
 217 0108 DDE90267 	 ldrd r6,[sp,#8]
 137:../Dave/Generated/CMSIS_DSP/FilteringFunctions/arm_fir_decimate_fast_q31.c ****       x1 = *(px1 + 1u);
 218              	 .loc 1 137 0
 219 010c 52F80C5C 	 ldr r5,[r2,#-12]
 220              	.LVL23:
 143:../Dave/Generated/CMSIS_DSP/FilteringFunctions/arm_fir_decimate_fast_q31.c **** 
 144:../Dave/Generated/CMSIS_DSP/FilteringFunctions/arm_fir_decimate_fast_q31.c ****       /* Read the b[numTaps-3] coefficient */
 145:../Dave/Generated/CMSIS_DSP/FilteringFunctions/arm_fir_decimate_fast_q31.c ****       c0 = *(pb + 2u);
 146:../Dave/Generated/CMSIS_DSP/FilteringFunctions/arm_fir_decimate_fast_q31.c **** 
 147:../Dave/Generated/CMSIS_DSP/FilteringFunctions/arm_fir_decimate_fast_q31.c ****       /* Read x[n-numTaps-3]  for sample 0 sample 1 */
 148:../Dave/Generated/CMSIS_DSP/FilteringFunctions/arm_fir_decimate_fast_q31.c ****       x0 = *(px0 + 2u);
 149:../Dave/Generated/CMSIS_DSP/FilteringFunctions/arm_fir_decimate_fast_q31.c ****       x1 = *(px1 + 2u);
 150:../Dave/Generated/CMSIS_DSP/FilteringFunctions/arm_fir_decimate_fast_q31.c ****       pb += 4u;
 151:../Dave/Generated/CMSIS_DSP/FilteringFunctions/arm_fir_decimate_fast_q31.c **** 
 152:../Dave/Generated/CMSIS_DSP/FilteringFunctions/arm_fir_decimate_fast_q31.c ****       /* Perform the multiply-accumulate */
 153:../Dave/Generated/CMSIS_DSP/FilteringFunctions/arm_fir_decimate_fast_q31.c ****       acc0 = (q31_t) ((((q63_t) acc0 << 32) + ((q63_t) x0 * c0)) >> 32);
 154:../Dave/Generated/CMSIS_DSP/FilteringFunctions/arm_fir_decimate_fast_q31.c ****       acc1 = (q31_t) ((((q63_t) acc1 << 32) + ((q63_t) x1 * c0)) >> 32);
 221              	 .loc 1 154 0
 222 0110 CDF82490 	 str r9,[sp,#36]
 141:../Dave/Generated/CMSIS_DSP/FilteringFunctions/arm_fir_decimate_fast_q31.c ****       acc1 = (q31_t) ((((q63_t) acc1 << 32) + ((q63_t) x1 * c0)) >> 32);
 223              	 .loc 1 141 0
 224 0114 CEFB0567 	 smlal r6,r7,lr,r5
 225              	.LVL24:
 226              	 .loc 1 154 0
 227 0118 CDF820A0 	 str r10,[sp,#32]
 153:../Dave/Generated/CMSIS_DSP/FilteringFunctions/arm_fir_decimate_fast_q31.c ****       acc1 = (q31_t) ((((q63_t) acc1 << 32) + ((q63_t) x1 * c0)) >> 32);
 228              	 .loc 1 153 0
 229 011c 0797     	 str r7,[sp,#28]
 230              	 .loc 1 154 0
 231 011e DDE90867 	 ldrd r6,[sp,#32]
 145:../Dave/Generated/CMSIS_DSP/FilteringFunctions/arm_fir_decimate_fast_q31.c **** 
 232              	 .loc 1 145 0
 233 0122 51F8080C 	 ldr r0,[r1,#-8]
 234              	.LVL25:
 149:../Dave/Generated/CMSIS_DSP/FilteringFunctions/arm_fir_decimate_fast_q31.c ****       pb += 4u;
 235              	 .loc 1 149 0
 236 0126 53F8084C 	 ldr r4,[r3,#-8]
 237              	.LVL26:
 153:../Dave/Generated/CMSIS_DSP/FilteringFunctions/arm_fir_decimate_fast_q31.c ****       acc1 = (q31_t) ((((q63_t) acc1 << 32) + ((q63_t) x1 * c0)) >> 32);
 238              	 .loc 1 153 0
 239 012a CDF818A0 	 str r10,[sp,#24]
 240              	 .loc 1 154 0
 241 012e C4FB0067 	 smlal r6,r7,r4,r0
 153:../Dave/Generated/CMSIS_DSP/FilteringFunctions/arm_fir_decimate_fast_q31.c ****       acc1 = (q31_t) ((((q63_t) acc1 << 32) + ((q63_t) x1 * c0)) >> 32);
 242              	 .loc 1 153 0
 243 0132 DDE90689 	 ldrd r8,[sp,#24]
 244              	 .loc 1 154 0
 245 0136 3D46     	 mov r5,r7
 153:../Dave/Generated/CMSIS_DSP/FilteringFunctions/arm_fir_decimate_fast_q31.c ****       acc1 = (q31_t) ((((q63_t) acc1 << 32) + ((q63_t) x1 * c0)) >> 32);
 246              	 .loc 1 153 0
 247 0138 52F8087C 	 ldr r7,[r2,#-8]
 155:../Dave/Generated/CMSIS_DSP/FilteringFunctions/arm_fir_decimate_fast_q31.c **** 
 156:../Dave/Generated/CMSIS_DSP/FilteringFunctions/arm_fir_decimate_fast_q31.c ****       /* Read the b[numTaps-4] coefficient */
 157:../Dave/Generated/CMSIS_DSP/FilteringFunctions/arm_fir_decimate_fast_q31.c ****       c0 = *(pb - 1u);
 158:../Dave/Generated/CMSIS_DSP/FilteringFunctions/arm_fir_decimate_fast_q31.c **** 
 159:../Dave/Generated/CMSIS_DSP/FilteringFunctions/arm_fir_decimate_fast_q31.c ****       /* Read x[n-numTaps-4] for sample 0 sample 1 */
 160:../Dave/Generated/CMSIS_DSP/FilteringFunctions/arm_fir_decimate_fast_q31.c ****       x0 = *(px0 + 3u);
 161:../Dave/Generated/CMSIS_DSP/FilteringFunctions/arm_fir_decimate_fast_q31.c ****       x1 = *(px1 + 3u);
 162:../Dave/Generated/CMSIS_DSP/FilteringFunctions/arm_fir_decimate_fast_q31.c **** 
 163:../Dave/Generated/CMSIS_DSP/FilteringFunctions/arm_fir_decimate_fast_q31.c **** 
 164:../Dave/Generated/CMSIS_DSP/FilteringFunctions/arm_fir_decimate_fast_q31.c ****       /* Perform the multiply-accumulate */
 165:../Dave/Generated/CMSIS_DSP/FilteringFunctions/arm_fir_decimate_fast_q31.c ****       acc0 = (q31_t) ((((q63_t) acc0 << 32) + ((q63_t) x0 * c0)) >> 32);
 166:../Dave/Generated/CMSIS_DSP/FilteringFunctions/arm_fir_decimate_fast_q31.c ****       acc1 = (q31_t) ((((q63_t) acc1 << 32) + ((q63_t) x1 * c0)) >> 32);
 248              	 .loc 1 166 0
 249 013c 0D95     	 str r5,[sp,#52]
 153:../Dave/Generated/CMSIS_DSP/FilteringFunctions/arm_fir_decimate_fast_q31.c ****       acc1 = (q31_t) ((((q63_t) acc1 << 32) + ((q63_t) x1 * c0)) >> 32);
 250              	 .loc 1 153 0
 251 013e C0FB0789 	 smlal r8,r9,r0,r7
 252              	.LVL27:
 253              	 .loc 1 166 0
 254 0142 CDF830A0 	 str r10,[sp,#48]
 157:../Dave/Generated/CMSIS_DSP/FilteringFunctions/arm_fir_decimate_fast_q31.c **** 
 255              	 .loc 1 157 0
 256 0146 51F8045C 	 ldr r5,[r1,#-4]
 257              	.LVL28:
 161:../Dave/Generated/CMSIS_DSP/FilteringFunctions/arm_fir_decimate_fast_q31.c **** 
 258              	 .loc 1 161 0
 259 014a 53F8044C 	 ldr r4,[r3,#-4]
 260              	.LVL29:
 160:../Dave/Generated/CMSIS_DSP/FilteringFunctions/arm_fir_decimate_fast_q31.c ****       x1 = *(px1 + 3u);
 261              	 .loc 1 160 0
 262 014e 52F8040C 	 ldr r0,[r2,#-4]
 263              	.LVL30:
 165:../Dave/Generated/CMSIS_DSP/FilteringFunctions/arm_fir_decimate_fast_q31.c ****       acc1 = (q31_t) ((((q63_t) acc1 << 32) + ((q63_t) x1 * c0)) >> 32);
 264              	 .loc 1 165 0
 265 0152 CDF82C90 	 str r9,[sp,#44]
 266 0156 CDF828A0 	 str r10,[sp,#40]
 267              	 .loc 1 166 0
 268 015a DDE90C67 	 ldrd r6,[sp,#48]
 165:../Dave/Generated/CMSIS_DSP/FilteringFunctions/arm_fir_decimate_fast_q31.c ****       acc1 = (q31_t) ((((q63_t) acc1 << 32) + ((q63_t) x1 * c0)) >> 32);
 269              	 .loc 1 165 0
 270 015e DDE90A89 	 ldrd r8,[sp,#40]
 271              	 .loc 1 166 0
 272 0162 C4FB0567 	 smlal r6,r7,r4,r5
 165:../Dave/Generated/CMSIS_DSP/FilteringFunctions/arm_fir_decimate_fast_q31.c ****       acc1 = (q31_t) ((((q63_t) acc1 << 32) + ((q63_t) x1 * c0)) >> 32);
 273              	 .loc 1 165 0
 274 0166 C5FB0089 	 smlal r8,r9,r5,r0
 120:../Dave/Generated/CMSIS_DSP/FilteringFunctions/arm_fir_decimate_fast_q31.c ****     {
 275              	 .loc 1 120 0
 276 016a BCF1010C 	 subs ip,ip,#1
 277              	.LVL31:
 278 016e 01F11001 	 add r1,r1,#16
 279              	.LVL32:
 280 0172 03F11003 	 add r3,r3,#16
 281              	 .loc 1 166 0
 282 0176 3846     	 mov r0,r7
 283              	.LVL33:
 165:../Dave/Generated/CMSIS_DSP/FilteringFunctions/arm_fir_decimate_fast_q31.c ****       acc1 = (q31_t) ((((q63_t) acc1 << 32) + ((q63_t) x1 * c0)) >> 32);
 284              	 .loc 1 165 0
 285 0178 4C46     	 mov r4,r9
 286              	.LVL34:
 287 017a 02F11002 	 add r2,r2,#16
 288              	.LVL35:
 120:../Dave/Generated/CMSIS_DSP/FilteringFunctions/arm_fir_decimate_fast_q31.c ****     {
 289              	 .loc 1 120 0
 290 017e 9ED1     	 bne .L5
 291 0180 129B     	 ldr r3,[sp,#72]
 292              	.LVL36:
 293 0182 259A     	 ldr r2,[sp,#148]
 294              	.LVL37:
 295 0184 DDF888E0 	 ldr lr,[sp,#136]
 296 0188 1946     	 mov r1,r3
 297              	.LVL38:
 298 018a 1144     	 add r1,r1,r2
 299 018c 0EEB0206 	 add r6,lr,r2
 150:../Dave/Generated/CMSIS_DSP/FilteringFunctions/arm_fir_decimate_fast_q31.c **** 
 300              	 .loc 1 150 0
 301 0190 269A     	 ldr r2,[sp,#152]
 302 0192 1291     	 str r1,[sp,#72]
 303              	.LVL39:
 304              	.L4:
 167:../Dave/Generated/CMSIS_DSP/FilteringFunctions/arm_fir_decimate_fast_q31.c **** 
 168:../Dave/Generated/CMSIS_DSP/FilteringFunctions/arm_fir_decimate_fast_q31.c ****       /* update state pointers */
 169:../Dave/Generated/CMSIS_DSP/FilteringFunctions/arm_fir_decimate_fast_q31.c ****       px0 += 4u;
 170:../Dave/Generated/CMSIS_DSP/FilteringFunctions/arm_fir_decimate_fast_q31.c ****       px1 += 4u;
 171:../Dave/Generated/CMSIS_DSP/FilteringFunctions/arm_fir_decimate_fast_q31.c **** 
 172:../Dave/Generated/CMSIS_DSP/FilteringFunctions/arm_fir_decimate_fast_q31.c ****       /* Decrement the loop counter */
 173:../Dave/Generated/CMSIS_DSP/FilteringFunctions/arm_fir_decimate_fast_q31.c ****       tapCnt--;
 174:../Dave/Generated/CMSIS_DSP/FilteringFunctions/arm_fir_decimate_fast_q31.c ****     }
 175:../Dave/Generated/CMSIS_DSP/FilteringFunctions/arm_fir_decimate_fast_q31.c **** 
 176:../Dave/Generated/CMSIS_DSP/FilteringFunctions/arm_fir_decimate_fast_q31.c ****     /* If the filter length is not a multiple of 4, compute the remaining filter taps */
 177:../Dave/Generated/CMSIS_DSP/FilteringFunctions/arm_fir_decimate_fast_q31.c ****     tapCnt = numTaps % 0x4u;
 178:../Dave/Generated/CMSIS_DSP/FilteringFunctions/arm_fir_decimate_fast_q31.c **** 
 179:../Dave/Generated/CMSIS_DSP/FilteringFunctions/arm_fir_decimate_fast_q31.c ****     while (tapCnt > 0u)
 305              	 .loc 1 179 0
 306 0194 249B     	 ldr r3,[sp,#144]
 307 0196 3BB3     	 cbz r3,.L6
 308 0198 DDF848C0 	 ldr ip,[sp,#72]
 309 019c 1093     	 str r3,[sp,#64]
 310 019e CDE912AB 	 strd r10,[sp,#72]
 311              	.LVL40:
 312 01a2 0146     	 mov r1,r0
 313 01a4 3046     	 mov r0,r6
 314              	.LVL41:
 315              	.L7:
 180:../Dave/Generated/CMSIS_DSP/FilteringFunctions/arm_fir_decimate_fast_q31.c ****     {
 181:../Dave/Generated/CMSIS_DSP/FilteringFunctions/arm_fir_decimate_fast_q31.c ****       /* Read coefficients */
 182:../Dave/Generated/CMSIS_DSP/FilteringFunctions/arm_fir_decimate_fast_q31.c ****       c0 = *(pb++);
 183:../Dave/Generated/CMSIS_DSP/FilteringFunctions/arm_fir_decimate_fast_q31.c **** 
 184:../Dave/Generated/CMSIS_DSP/FilteringFunctions/arm_fir_decimate_fast_q31.c ****       /* Fetch 1 state variable */
 185:../Dave/Generated/CMSIS_DSP/FilteringFunctions/arm_fir_decimate_fast_q31.c ****       x0 = *(px0++);
 186:../Dave/Generated/CMSIS_DSP/FilteringFunctions/arm_fir_decimate_fast_q31.c ****       x1 = *(px1++);
 187:../Dave/Generated/CMSIS_DSP/FilteringFunctions/arm_fir_decimate_fast_q31.c **** 
 188:../Dave/Generated/CMSIS_DSP/FilteringFunctions/arm_fir_decimate_fast_q31.c ****       /* Perform the multiply-accumulate */
 189:../Dave/Generated/CMSIS_DSP/FilteringFunctions/arm_fir_decimate_fast_q31.c ****       acc0 = (q31_t) ((((q63_t) acc0 << 32) + ((q63_t) x0 * c0)) >> 32);
 316              	 .loc 1 189 0
 317 01a6 4FF00008 	 mov r8,#0
 318 01aa A146     	 mov r9,r4
 190:../Dave/Generated/CMSIS_DSP/FilteringFunctions/arm_fir_decimate_fast_q31.c ****       acc1 = (q31_t) ((((q63_t) acc1 << 32) + ((q63_t) x1 * c0)) >> 32);
 319              	 .loc 1 190 0
 320 01ac 8B46     	 mov fp,r1
 186:../Dave/Generated/CMSIS_DSP/FilteringFunctions/arm_fir_decimate_fast_q31.c **** 
 321              	 .loc 1 186 0
 322 01ae 50F8044B 	 ldr r4,[r0],#4
 323              	.LVL42:
 182:../Dave/Generated/CMSIS_DSP/FilteringFunctions/arm_fir_decimate_fast_q31.c **** 
 324              	 .loc 1 182 0
 325 01b2 52F8041B 	 ldr r1,[r2],#4
 326              	.LVL43:
 185:../Dave/Generated/CMSIS_DSP/FilteringFunctions/arm_fir_decimate_fast_q31.c ****       x1 = *(px1++);
 327              	 .loc 1 185 0
 328 01b6 5CF8043B 	 ldr r3,[ip],#4
 329              	.LVL44:
 330              	 .loc 1 190 0
 331 01ba 4646     	 mov r6,r8
 332 01bc 5F46     	 mov r7,fp
 333 01be C4FB0167 	 smlal r6,r7,r4,r1
 334 01c2 3D46     	 mov r5,r7
 189:../Dave/Generated/CMSIS_DSP/FilteringFunctions/arm_fir_decimate_fast_q31.c ****       acc1 = (q31_t) ((((q63_t) acc1 << 32) + ((q63_t) x1 * c0)) >> 32);
 335              	 .loc 1 189 0
 336 01c4 4646     	 mov r6,r8
 337 01c6 4F46     	 mov r7,r9
 338 01c8 C1FB0367 	 smlal r6,r7,r1,r3
 179:../Dave/Generated/CMSIS_DSP/FilteringFunctions/arm_fir_decimate_fast_q31.c ****     {
 339              	 .loc 1 179 0
 340 01cc 109B     	 ldr r3,[sp,#64]
 341              	.LVL45:
 342 01ce 013B     	 subs r3,r3,#1
 343              	 .loc 1 190 0
 344 01d0 C246     	 mov r10,r8
 345 01d2 2946     	 mov r1,r5
 346              	.LVL46:
 189:../Dave/Generated/CMSIS_DSP/FilteringFunctions/arm_fir_decimate_fast_q31.c ****       acc1 = (q31_t) ((((q63_t) acc1 << 32) + ((q63_t) x1 * c0)) >> 32);
 347              	 .loc 1 189 0
 348 01d4 3C46     	 mov r4,r7
 349              	.LVL47:
 179:../Dave/Generated/CMSIS_DSP/FilteringFunctions/arm_fir_decimate_fast_q31.c ****     {
 350              	 .loc 1 179 0
 351 01d6 1093     	 str r3,[sp,#64]
 352 01d8 E5D1     	 bne .L7
 353 01da CDE91EAB 	 strd r10,[sp,#120]
 354 01de CDE91C89 	 strd r8,[sp,#112]
 355 01e2 DDE912AB 	 ldrd r10,[sp,#72]
 356 01e6 2846     	 mov r0,r5
 357              	.LVL48:
 358              	.L6:
 191:../Dave/Generated/CMSIS_DSP/FilteringFunctions/arm_fir_decimate_fast_q31.c **** 
 192:../Dave/Generated/CMSIS_DSP/FilteringFunctions/arm_fir_decimate_fast_q31.c ****       /* Decrement the loop counter */
 193:../Dave/Generated/CMSIS_DSP/FilteringFunctions/arm_fir_decimate_fast_q31.c ****       tapCnt--;
 194:../Dave/Generated/CMSIS_DSP/FilteringFunctions/arm_fir_decimate_fast_q31.c ****     }
 195:../Dave/Generated/CMSIS_DSP/FilteringFunctions/arm_fir_decimate_fast_q31.c **** 
 196:../Dave/Generated/CMSIS_DSP/FilteringFunctions/arm_fir_decimate_fast_q31.c ****     /* Advance the state pointer by the decimation factor
 197:../Dave/Generated/CMSIS_DSP/FilteringFunctions/arm_fir_decimate_fast_q31.c ****      * to process the next group of decimation factor number samples */
 198:../Dave/Generated/CMSIS_DSP/FilteringFunctions/arm_fir_decimate_fast_q31.c ****     pState = pState + S->M * 2;
 199:../Dave/Generated/CMSIS_DSP/FilteringFunctions/arm_fir_decimate_fast_q31.c **** 
 200:../Dave/Generated/CMSIS_DSP/FilteringFunctions/arm_fir_decimate_fast_q31.c ****     /* The result is in the accumulator, store in the destination buffer. */
 201:../Dave/Generated/CMSIS_DSP/FilteringFunctions/arm_fir_decimate_fast_q31.c ****     *pDst++ = (q31_t) (acc0 << 1);
 359              	 .loc 1 201 0
 360 01e8 199A     	 ldr r2,[sp,#100]
 361              	.LVL49:
 362 01ea 1346     	 mov r3,r2
 363              	.LVL50:
 364 01ec 0833     	 adds r3,r3,#8
 365 01ee 6400     	 lsls r4,r4,#1
 202:../Dave/Generated/CMSIS_DSP/FilteringFunctions/arm_fir_decimate_fast_q31.c ****     *pDst++ = (q31_t) (acc1 << 1);
 366              	 .loc 1 202 0
 367 01f0 4000     	 lsls r0,r0,#1
 201:../Dave/Generated/CMSIS_DSP/FilteringFunctions/arm_fir_decimate_fast_q31.c ****     *pDst++ = (q31_t) (acc1 << 1);
 368              	 .loc 1 201 0
 369 01f2 42F8084C 	 str r4,[r2,#-8]
 370              	 .loc 1 202 0
 371 01f6 42F8040C 	 str r0,[r2,#-4]
 372 01fa 1993     	 str r3,[sp,#100]
 373              	.LVL51:
 198:../Dave/Generated/CMSIS_DSP/FilteringFunctions/arm_fir_decimate_fast_q31.c **** 
 374              	 .loc 1 198 0
 375 01fc 1B9A     	 ldr r2,[sp,#108]
  93:../Dave/Generated/CMSIS_DSP/FilteringFunctions/arm_fir_decimate_fast_q31.c ****   {
 376              	 .loc 1 93 0
 377 01fe 1A9B     	 ldr r3,[sp,#104]
 198:../Dave/Generated/CMSIS_DSP/FilteringFunctions/arm_fir_decimate_fast_q31.c **** 
 378              	 .loc 1 198 0
 379 0200 7244     	 add r2,r2,lr
  93:../Dave/Generated/CMSIS_DSP/FilteringFunctions/arm_fir_decimate_fast_q31.c ****   {
 380              	 .loc 1 93 0
 381 0202 013B     	 subs r3,r3,#1
 198:../Dave/Generated/CMSIS_DSP/FilteringFunctions/arm_fir_decimate_fast_q31.c **** 
 382              	 .loc 1 198 0
 383 0204 1292     	 str r2,[sp,#72]
 384              	.LVL52:
  93:../Dave/Generated/CMSIS_DSP/FilteringFunctions/arm_fir_decimate_fast_q31.c ****   {
 385              	 .loc 1 93 0
 386 0206 1A93     	 str r3,[sp,#104]
 387 0208 07D0     	 beq .L8
 388 020a 149B     	 ldr r3,[sp,#80]
 389              	.LVL53:
 390 020c 1C78     	 ldrb r4,[r3]
 391 020e 2DE7     	 b .L9
 392              	.LVL54:
 393              	.L23:
 394 0210 3446     	 mov r4,r6
 113:../Dave/Generated/CMSIS_DSP/FilteringFunctions/arm_fir_decimate_fast_q31.c **** 
 395              	 .loc 1 113 0
 396 0212 189A     	 ldr r2,[sp,#96]
 397              	.LVL55:
 110:../Dave/Generated/CMSIS_DSP/FilteringFunctions/arm_fir_decimate_fast_q31.c **** 
 398              	 .loc 1 110 0
 399 0214 7646     	 mov r6,lr
 106:../Dave/Generated/CMSIS_DSP/FilteringFunctions/arm_fir_decimate_fast_q31.c **** 
 400              	 .loc 1 106 0
 401 0216 1846     	 mov r0,r3
 402              	.LVL56:
 403 0218 BCE7     	 b .L4
 404              	.LVL57:
 405              	.L8:
 406 021a 169B     	 ldr r3,[sp,#88]
 407              	.LVL58:
 408 021c 299A     	 ldr r2,[sp,#164]
 409              	.LVL59:
 410 021e 03EBC203 	 add r3,r3,r2,lsl#3
 411 0222 1693     	 str r3,[sp,#88]
 412              	.LVL60:
 413              	.L2:
 203:../Dave/Generated/CMSIS_DSP/FilteringFunctions/arm_fir_decimate_fast_q31.c **** 
 204:../Dave/Generated/CMSIS_DSP/FilteringFunctions/arm_fir_decimate_fast_q31.c ****     /* Decrement the loop counter */
 205:../Dave/Generated/CMSIS_DSP/FilteringFunctions/arm_fir_decimate_fast_q31.c ****     blkCnt--;
 206:../Dave/Generated/CMSIS_DSP/FilteringFunctions/arm_fir_decimate_fast_q31.c ****   }
 207:../Dave/Generated/CMSIS_DSP/FilteringFunctions/arm_fir_decimate_fast_q31.c **** 
 208:../Dave/Generated/CMSIS_DSP/FilteringFunctions/arm_fir_decimate_fast_q31.c ****   while (blkCntN2 > 0u)
 414              	 .loc 1 208 0
 415 0224 179B     	 ldr r3,[sp,#92]
 416 0226 002B     	 cmp r3,#0
 417 0228 00F09280 	 beq .L10
 418 022c 289B     	 ldr r3,[sp,#160]
 419 022e 189A     	 ldr r2,[sp,#96]
 420 0230 9E08     	 lsrs r6,r3,#2
 421 0232 4FEA061E 	 lsl lr,r6,#4
 422 0236 02EB0E0C 	 add ip,r2,lr
 423 023a DDE92C89 	 ldrd r8,[sp,#176]
 424 023e DDE92E01 	 ldrd r0,[sp,#184]
 425 0242 03F00307 	 and r7,r3,#3
 426 0246 CDF820E0 	 str lr,[sp,#32]
 427 024a CDF828C0 	 str ip,[sp,#40]
 428 024e DDF848E0 	 ldr lr,[sp,#72]
 429 0252 DDF854C0 	 ldr ip,[sp,#84]
 430 0256 0496     	 str r6,[sp,#16]
 431 0258 0697     	 str r7,[sp,#24]
 432              	.LVL61:
 433              	.L16:
 209:../Dave/Generated/CMSIS_DSP/FilteringFunctions/arm_fir_decimate_fast_q31.c ****   {
 210:../Dave/Generated/CMSIS_DSP/FilteringFunctions/arm_fir_decimate_fast_q31.c ****     /* Copy decimation factor number of new input samples into the state buffer */
 211:../Dave/Generated/CMSIS_DSP/FilteringFunctions/arm_fir_decimate_fast_q31.c ****     i = S->M;
 434              	 .loc 1 211 0
 435 025a 149B     	 ldr r3,[sp,#80]
 436 025c 1E78     	 ldrb r6,[r3]
 437 025e 119B     	 ldr r3,[sp,#68]
 438 0260 3446     	 mov r4,r6
 439              	.LVL62:
 440 0262 1A1F     	 subs r2,r3,#4
 441 0264 6346     	 mov r3,ip
 442              	.LVL63:
 443              	.L11:
 212:../Dave/Generated/CMSIS_DSP/FilteringFunctions/arm_fir_decimate_fast_q31.c **** 
 213:../Dave/Generated/CMSIS_DSP/FilteringFunctions/arm_fir_decimate_fast_q31.c ****     do
 214:../Dave/Generated/CMSIS_DSP/FilteringFunctions/arm_fir_decimate_fast_q31.c ****     {
 215:../Dave/Generated/CMSIS_DSP/FilteringFunctions/arm_fir_decimate_fast_q31.c ****       *pStateCurnt++ = *pSrc++;
 444              	 .loc 1 215 0 discriminator 1
 445 0266 53F8045B 	 ldr r5,[r3],#4
 446              	.LVL64:
 447 026a 42F8045F 	 str r5,[r2,#4]!
 216:../Dave/Generated/CMSIS_DSP/FilteringFunctions/arm_fir_decimate_fast_q31.c **** 
 217:../Dave/Generated/CMSIS_DSP/FilteringFunctions/arm_fir_decimate_fast_q31.c ****     } while (--i);
 448              	 .loc 1 217 0 discriminator 1
 449 026e 013C     	 subs r4,r4,#1
 450              	.LVL65:
 451 0270 F9D1     	 bne .L11
 452 0272 119B     	 ldr r3,[sp,#68]
 453              	.LVL66:
 454 0274 B600     	 lsls r6,r6,#2
 455 0276 3344     	 add r3,r3,r6
 456 0278 B444     	 add ip,ip,r6
 457              	.LVL67:
 218:../Dave/Generated/CMSIS_DSP/FilteringFunctions/arm_fir_decimate_fast_q31.c **** 
 219:../Dave/Generated/CMSIS_DSP/FilteringFunctions/arm_fir_decimate_fast_q31.c ****     /* Set accumulator to zero */
 220:../Dave/Generated/CMSIS_DSP/FilteringFunctions/arm_fir_decimate_fast_q31.c ****     sum0 = 0;
 221:../Dave/Generated/CMSIS_DSP/FilteringFunctions/arm_fir_decimate_fast_q31.c **** 
 222:../Dave/Generated/CMSIS_DSP/FilteringFunctions/arm_fir_decimate_fast_q31.c ****     /* Initialize state pointer */
 223:../Dave/Generated/CMSIS_DSP/FilteringFunctions/arm_fir_decimate_fast_q31.c ****     px = pState;
 224:../Dave/Generated/CMSIS_DSP/FilteringFunctions/arm_fir_decimate_fast_q31.c **** 
 225:../Dave/Generated/CMSIS_DSP/FilteringFunctions/arm_fir_decimate_fast_q31.c ****     /* Initialize coeff pointer */
 226:../Dave/Generated/CMSIS_DSP/FilteringFunctions/arm_fir_decimate_fast_q31.c ****     pb = pCoeffs;
 227:../Dave/Generated/CMSIS_DSP/FilteringFunctions/arm_fir_decimate_fast_q31.c **** 
 228:../Dave/Generated/CMSIS_DSP/FilteringFunctions/arm_fir_decimate_fast_q31.c ****     /* Loop unrolling.  Process 4 taps at a time. */
 229:../Dave/Generated/CMSIS_DSP/FilteringFunctions/arm_fir_decimate_fast_q31.c ****     tapCnt = numTaps >> 2;
 230:../Dave/Generated/CMSIS_DSP/FilteringFunctions/arm_fir_decimate_fast_q31.c **** 
 231:../Dave/Generated/CMSIS_DSP/FilteringFunctions/arm_fir_decimate_fast_q31.c ****     /* Loop over the number of taps.  Unroll by a factor of 4.
 232:../Dave/Generated/CMSIS_DSP/FilteringFunctions/arm_fir_decimate_fast_q31.c ****      ** Repeat until we've computed numTaps-4 coefficients. */
 233:../Dave/Generated/CMSIS_DSP/FilteringFunctions/arm_fir_decimate_fast_q31.c ****     while (tapCnt > 0u)
 458              	 .loc 1 233 0
 459 027a 049E     	 ldr r6,[sp,#16]
 460 027c 1193     	 str r3,[sp,#68]
 461 027e 002E     	 cmp r6,#0
 462 0280 00F09C80 	 beq .L24
 463 0284 189B     	 ldr r3,[sp,#96]
 464 0286 0096     	 str r6,[sp]
 465 0288 03F11002 	 add r2,r3,#16
 466 028c CDE90201 	 strd r0,[sp,#8]
 467 0290 0EF11003 	 add r3,lr,#16
 468 0294 2146     	 mov r1,r4
 469              	.LVL68:
 470              	.L13:
 234:../Dave/Generated/CMSIS_DSP/FilteringFunctions/arm_fir_decimate_fast_q31.c ****     {
 235:../Dave/Generated/CMSIS_DSP/FilteringFunctions/arm_fir_decimate_fast_q31.c ****       /* Read the b[numTaps-1] coefficient */
 236:../Dave/Generated/CMSIS_DSP/FilteringFunctions/arm_fir_decimate_fast_q31.c ****       c0 = *(pb++);
 237:../Dave/Generated/CMSIS_DSP/FilteringFunctions/arm_fir_decimate_fast_q31.c **** 
 238:../Dave/Generated/CMSIS_DSP/FilteringFunctions/arm_fir_decimate_fast_q31.c ****       /* Read x[n-numTaps-1] sample */
 239:../Dave/Generated/CMSIS_DSP/FilteringFunctions/arm_fir_decimate_fast_q31.c ****       x0 = *(px++);
 240:../Dave/Generated/CMSIS_DSP/FilteringFunctions/arm_fir_decimate_fast_q31.c **** 
 241:../Dave/Generated/CMSIS_DSP/FilteringFunctions/arm_fir_decimate_fast_q31.c ****       /* Perform the multiply-accumulate */
 242:../Dave/Generated/CMSIS_DSP/FilteringFunctions/arm_fir_decimate_fast_q31.c ****       sum0 = (q31_t) ((((q63_t) sum0 << 32) + ((q63_t) x0 * c0)) >> 32);
 471              	 .loc 1 242 0
 472 0296 4FF0000A 	 mov r10,#0
 239:../Dave/Generated/CMSIS_DSP/FilteringFunctions/arm_fir_decimate_fast_q31.c **** 
 473              	 .loc 1 239 0
 474 029a 53F8100C 	 ldr r0,[r3,#-16]
 243:../Dave/Generated/CMSIS_DSP/FilteringFunctions/arm_fir_decimate_fast_q31.c **** 
 244:../Dave/Generated/CMSIS_DSP/FilteringFunctions/arm_fir_decimate_fast_q31.c ****       /* Read the b[numTaps-2] coefficient */
 245:../Dave/Generated/CMSIS_DSP/FilteringFunctions/arm_fir_decimate_fast_q31.c ****       c0 = *(pb++);
 246:../Dave/Generated/CMSIS_DSP/FilteringFunctions/arm_fir_decimate_fast_q31.c **** 
 247:../Dave/Generated/CMSIS_DSP/FilteringFunctions/arm_fir_decimate_fast_q31.c ****       /* Read x[n-numTaps-2] sample */
 248:../Dave/Generated/CMSIS_DSP/FilteringFunctions/arm_fir_decimate_fast_q31.c ****       x0 = *(px++);
 249:../Dave/Generated/CMSIS_DSP/FilteringFunctions/arm_fir_decimate_fast_q31.c **** 
 250:../Dave/Generated/CMSIS_DSP/FilteringFunctions/arm_fir_decimate_fast_q31.c ****       /* Perform the multiply-accumulate */
 251:../Dave/Generated/CMSIS_DSP/FilteringFunctions/arm_fir_decimate_fast_q31.c ****       sum0 = (q31_t) ((((q63_t) sum0 << 32) + ((q63_t) x0 * c0)) >> 32);
 252:../Dave/Generated/CMSIS_DSP/FilteringFunctions/arm_fir_decimate_fast_q31.c **** 
 253:../Dave/Generated/CMSIS_DSP/FilteringFunctions/arm_fir_decimate_fast_q31.c ****       /* Read the b[numTaps-3] coefficient */
 254:../Dave/Generated/CMSIS_DSP/FilteringFunctions/arm_fir_decimate_fast_q31.c ****       c0 = *(pb++);
 255:../Dave/Generated/CMSIS_DSP/FilteringFunctions/arm_fir_decimate_fast_q31.c **** 
 256:../Dave/Generated/CMSIS_DSP/FilteringFunctions/arm_fir_decimate_fast_q31.c ****       /* Read x[n-numTaps-3] sample */
 257:../Dave/Generated/CMSIS_DSP/FilteringFunctions/arm_fir_decimate_fast_q31.c ****       x0 = *(px++);
 258:../Dave/Generated/CMSIS_DSP/FilteringFunctions/arm_fir_decimate_fast_q31.c **** 
 259:../Dave/Generated/CMSIS_DSP/FilteringFunctions/arm_fir_decimate_fast_q31.c ****       /* Perform the multiply-accumulate */
 260:../Dave/Generated/CMSIS_DSP/FilteringFunctions/arm_fir_decimate_fast_q31.c ****       sum0 = (q31_t) ((((q63_t) sum0 << 32) + ((q63_t) x0 * c0)) >> 32);
 475              	 .loc 1 260 0
 476 029e CDF838A0 	 str r10,[sp,#56]
 242:../Dave/Generated/CMSIS_DSP/FilteringFunctions/arm_fir_decimate_fast_q31.c **** 
 477              	 .loc 1 242 0
 478 02a2 8B46     	 mov fp,r1
 236:../Dave/Generated/CMSIS_DSP/FilteringFunctions/arm_fir_decimate_fast_q31.c **** 
 479              	 .loc 1 236 0
 480 02a4 52F8101C 	 ldr r1,[r2,#-16]
 481              	.LVL69:
 242:../Dave/Generated/CMSIS_DSP/FilteringFunctions/arm_fir_decimate_fast_q31.c **** 
 482              	 .loc 1 242 0
 483 02a8 5446     	 mov r4,r10
 484 02aa 5D46     	 mov r5,fp
 485 02ac C1FB0045 	 smlal r4,r5,r1,r0
 486              	.LVL70:
 248:../Dave/Generated/CMSIS_DSP/FilteringFunctions/arm_fir_decimate_fast_q31.c **** 
 487              	 .loc 1 248 0
 488 02b0 53F80C1C 	 ldr r1,[r3,#-12]
 489              	.LVL71:
 251:../Dave/Generated/CMSIS_DSP/FilteringFunctions/arm_fir_decimate_fast_q31.c **** 
 490              	 .loc 1 251 0
 491 02b4 52F80C0C 	 ldr r0,[r2,#-12]
 492 02b8 5446     	 mov r4,r10
 493 02ba 2F46     	 mov r7,r5
 494 02bc C0FB0145 	 smlal r4,r5,r0,r1
 495              	.LVL72:
 496              	 .loc 1 260 0
 497 02c0 0F95     	 str r5,[sp,#60]
 498 02c2 DDE90E45 	 ldrd r4,[sp,#56]
 257:../Dave/Generated/CMSIS_DSP/FilteringFunctions/arm_fir_decimate_fast_q31.c **** 
 499              	 .loc 1 257 0
 500 02c6 53F8081C 	 ldr r1,[r3,#-8]
 501              	.LVL73:
 502              	 .loc 1 260 0
 503 02ca 52F8080C 	 ldr r0,[r2,#-8]
 504 02ce C0FB0145 	 smlal r4,r5,r0,r1
 505              	.LVL74:
 261:../Dave/Generated/CMSIS_DSP/FilteringFunctions/arm_fir_decimate_fast_q31.c **** 
 262:../Dave/Generated/CMSIS_DSP/FilteringFunctions/arm_fir_decimate_fast_q31.c ****       /* Read the b[numTaps-4] coefficient */
 263:../Dave/Generated/CMSIS_DSP/FilteringFunctions/arm_fir_decimate_fast_q31.c ****       c0 = *(pb++);
 264:../Dave/Generated/CMSIS_DSP/FilteringFunctions/arm_fir_decimate_fast_q31.c **** 
 265:../Dave/Generated/CMSIS_DSP/FilteringFunctions/arm_fir_decimate_fast_q31.c ****       /* Read x[n-numTaps-4] sample */
 266:../Dave/Generated/CMSIS_DSP/FilteringFunctions/arm_fir_decimate_fast_q31.c ****       x0 = *(px++);
 506              	 .loc 1 266 0
 507 02d2 53F8041C 	 ldr r1,[r3,#-4]
 508              	.LVL75:
 267:../Dave/Generated/CMSIS_DSP/FilteringFunctions/arm_fir_decimate_fast_q31.c **** 
 268:../Dave/Generated/CMSIS_DSP/FilteringFunctions/arm_fir_decimate_fast_q31.c ****       /* Perform the multiply-accumulate */
 269:../Dave/Generated/CMSIS_DSP/FilteringFunctions/arm_fir_decimate_fast_q31.c ****       sum0 = (q31_t) ((((q63_t) sum0 << 32) + ((q63_t) x0 * c0)) >> 32);
 509              	 .loc 1 269 0
 510 02d6 52F8040C 	 ldr r0,[r2,#-4]
 511 02da 5446     	 mov r4,r10
 512 02dc A946     	 mov r9,r5
 513 02de C0FB0145 	 smlal r4,r5,r0,r1
 233:../Dave/Generated/CMSIS_DSP/FilteringFunctions/arm_fir_decimate_fast_q31.c ****     {
 514              	 .loc 1 233 0
 515 02e2 0098     	 ldr r0,[sp]
 516 02e4 0138     	 subs r0,r0,#1
 251:../Dave/Generated/CMSIS_DSP/FilteringFunctions/arm_fir_decimate_fast_q31.c **** 
 517              	 .loc 1 251 0
 518 02e6 5646     	 mov r6,r10
 519              	 .loc 1 269 0
 520 02e8 D046     	 mov r8,r10
 521 02ea 2946     	 mov r1,r5
 522              	.LVL76:
 523 02ec 02F11002 	 add r2,r2,#16
 524              	.LVL77:
 525 02f0 03F11003 	 add r3,r3,#16
 526              	.LVL78:
 233:../Dave/Generated/CMSIS_DSP/FilteringFunctions/arm_fir_decimate_fast_q31.c ****     {
 527              	 .loc 1 233 0
 528 02f4 0090     	 str r0,[sp]
 529 02f6 CED1     	 bne .L13
 530              	.LVL79:
 531 02f8 089B     	 ldr r3,[sp,#32]
 532              	.LVL80:
 533 02fa DDE90201 	 ldrd r0,[sp,#8]
 534              	.LVL81:
 535 02fe CDE92067 	 strd r6,[sp,#128]
 263:../Dave/Generated/CMSIS_DSP/FilteringFunctions/arm_fir_decimate_fast_q31.c **** 
 536              	 .loc 1 263 0
 537 0302 0A9E     	 ldr r6,[sp,#40]
 538 0304 2C46     	 mov r4,r5
 539 0306 0EEB0307 	 add r7,lr,r3
 540              	.LVL82:
 541              	.L12:
 270:../Dave/Generated/CMSIS_DSP/FilteringFunctions/arm_fir_decimate_fast_q31.c **** 
 271:../Dave/Generated/CMSIS_DSP/FilteringFunctions/arm_fir_decimate_fast_q31.c ****       /* Decrement the loop counter */
 272:../Dave/Generated/CMSIS_DSP/FilteringFunctions/arm_fir_decimate_fast_q31.c ****       tapCnt--;
 273:../Dave/Generated/CMSIS_DSP/FilteringFunctions/arm_fir_decimate_fast_q31.c ****     }
 274:../Dave/Generated/CMSIS_DSP/FilteringFunctions/arm_fir_decimate_fast_q31.c **** 
 275:../Dave/Generated/CMSIS_DSP/FilteringFunctions/arm_fir_decimate_fast_q31.c ****     /* If the filter length is not a multiple of 4, compute the remaining filter taps */
 276:../Dave/Generated/CMSIS_DSP/FilteringFunctions/arm_fir_decimate_fast_q31.c ****     tapCnt = numTaps % 0x4u;
 277:../Dave/Generated/CMSIS_DSP/FilteringFunctions/arm_fir_decimate_fast_q31.c **** 
 278:../Dave/Generated/CMSIS_DSP/FilteringFunctions/arm_fir_decimate_fast_q31.c ****     while (tapCnt > 0u)
 542              	 .loc 1 278 0
 543 030a 069B     	 ldr r3,[sp,#24]
 544 030c 8BB1     	 cbz r3,.L14
 545 030e CDE90089 	 strd r8,[sp]
 546 0312 1D46     	 mov r5,r3
 547              	.LVL83:
 548              	.L15:
 279:../Dave/Generated/CMSIS_DSP/FilteringFunctions/arm_fir_decimate_fast_q31.c ****     {
 280:../Dave/Generated/CMSIS_DSP/FilteringFunctions/arm_fir_decimate_fast_q31.c ****       /* Read coefficients */
 281:../Dave/Generated/CMSIS_DSP/FilteringFunctions/arm_fir_decimate_fast_q31.c ****       c0 = *(pb++);
 549              	 .loc 1 281 0
 550 0314 56F8043B 	 ldr r3,[r6],#4
 551              	.LVL84:
 282:../Dave/Generated/CMSIS_DSP/FilteringFunctions/arm_fir_decimate_fast_q31.c **** 
 283:../Dave/Generated/CMSIS_DSP/FilteringFunctions/arm_fir_decimate_fast_q31.c ****       /* Fetch 1 state variable */
 284:../Dave/Generated/CMSIS_DSP/FilteringFunctions/arm_fir_decimate_fast_q31.c ****       x0 = *(px++);
 552              	 .loc 1 284 0
 553 0318 57F8042B 	 ldr r2,[r7],#4
 554              	.LVL85:
 285:../Dave/Generated/CMSIS_DSP/FilteringFunctions/arm_fir_decimate_fast_q31.c **** 
 286:../Dave/Generated/CMSIS_DSP/FilteringFunctions/arm_fir_decimate_fast_q31.c ****       /* Perform the multiply-accumulate */
 287:../Dave/Generated/CMSIS_DSP/FilteringFunctions/arm_fir_decimate_fast_q31.c ****       sum0 = (q31_t) ((((q63_t) sum0 << 32) + ((q63_t) x0 * c0)) >> 32);
 555              	 .loc 1 287 0
 556 031c 0020     	 movs r0,#0
 557 031e A146     	 mov r9,r4
 558 0320 8046     	 mov r8,r0
 559 0322 C3FB0289 	 smlal r8,r9,r3,r2
 278:../Dave/Generated/CMSIS_DSP/FilteringFunctions/arm_fir_decimate_fast_q31.c ****     {
 560              	 .loc 1 278 0
 561 0326 013D     	 subs r5,r5,#1
 562              	.LVL86:
 563              	 .loc 1 287 0
 564 0328 2146     	 mov r1,r4
 565 032a 4C46     	 mov r4,r9
 566              	.LVL87:
 278:../Dave/Generated/CMSIS_DSP/FilteringFunctions/arm_fir_decimate_fast_q31.c ****     {
 567              	 .loc 1 278 0
 568 032c F2D1     	 bne .L15
 569 032e DDE90089 	 ldrd r8,[sp]
 570              	.LVL88:
 571              	.L14:
 288:../Dave/Generated/CMSIS_DSP/FilteringFunctions/arm_fir_decimate_fast_q31.c **** 
 289:../Dave/Generated/CMSIS_DSP/FilteringFunctions/arm_fir_decimate_fast_q31.c ****       /* Decrement the loop counter */
 290:../Dave/Generated/CMSIS_DSP/FilteringFunctions/arm_fir_decimate_fast_q31.c ****       tapCnt--;
 291:../Dave/Generated/CMSIS_DSP/FilteringFunctions/arm_fir_decimate_fast_q31.c ****     }
 292:../Dave/Generated/CMSIS_DSP/FilteringFunctions/arm_fir_decimate_fast_q31.c **** 
 293:../Dave/Generated/CMSIS_DSP/FilteringFunctions/arm_fir_decimate_fast_q31.c ****     /* Advance the state pointer by the decimation factor
 294:../Dave/Generated/CMSIS_DSP/FilteringFunctions/arm_fir_decimate_fast_q31.c ****      * to process the next group of decimation factor number samples */
 295:../Dave/Generated/CMSIS_DSP/FilteringFunctions/arm_fir_decimate_fast_q31.c ****     pState = pState + S->M;
 572              	 .loc 1 295 0
 573 0332 149B     	 ldr r3,[sp,#80]
 296:../Dave/Generated/CMSIS_DSP/FilteringFunctions/arm_fir_decimate_fast_q31.c **** 
 297:../Dave/Generated/CMSIS_DSP/FilteringFunctions/arm_fir_decimate_fast_q31.c ****     /* The result is in the accumulator, store in the destination buffer. */
 298:../Dave/Generated/CMSIS_DSP/FilteringFunctions/arm_fir_decimate_fast_q31.c ****     *pDst++ = (q31_t) (sum0 << 1);
 574              	 .loc 1 298 0
 575 0334 169A     	 ldr r2,[sp,#88]
 295:../Dave/Generated/CMSIS_DSP/FilteringFunctions/arm_fir_decimate_fast_q31.c **** 
 576              	 .loc 1 295 0
 577 0336 1B78     	 ldrb r3,[r3]
 578              	 .loc 1 298 0
 579 0338 6400     	 lsls r4,r4,#1
 295:../Dave/Generated/CMSIS_DSP/FilteringFunctions/arm_fir_decimate_fast_q31.c **** 
 580              	 .loc 1 295 0
 581 033a 0EEB830E 	 add lr,lr,r3,lsl#2
 582              	.LVL89:
 208:../Dave/Generated/CMSIS_DSP/FilteringFunctions/arm_fir_decimate_fast_q31.c ****   {
 583              	 .loc 1 208 0
 584 033e 179B     	 ldr r3,[sp,#92]
 585              	 .loc 1 298 0
 586 0340 42F8044B 	 str r4,[r2],#4
 587              	.LVL90:
 208:../Dave/Generated/CMSIS_DSP/FilteringFunctions/arm_fir_decimate_fast_q31.c ****   {
 588              	 .loc 1 208 0
 589 0344 013B     	 subs r3,r3,#1
 590              	.LVL91:
 591              	 .loc 1 298 0
 592 0346 1692     	 str r2,[sp,#88]
 593              	.LVL92:
 208:../Dave/Generated/CMSIS_DSP/FilteringFunctions/arm_fir_decimate_fast_q31.c ****   {
 594              	 .loc 1 208 0
 595 0348 1793     	 str r3,[sp,#92]
 596 034a 86D1     	 bne .L16
 597 034c CDF848E0 	 str lr,[sp,#72]
 598              	.LVL93:
 599              	.L10:
 299:../Dave/Generated/CMSIS_DSP/FilteringFunctions/arm_fir_decimate_fast_q31.c **** 
 300:../Dave/Generated/CMSIS_DSP/FilteringFunctions/arm_fir_decimate_fast_q31.c ****     /* Decrement the loop counter */
 301:../Dave/Generated/CMSIS_DSP/FilteringFunctions/arm_fir_decimate_fast_q31.c ****     blkCntN2--;
 302:../Dave/Generated/CMSIS_DSP/FilteringFunctions/arm_fir_decimate_fast_q31.c ****   }
 303:../Dave/Generated/CMSIS_DSP/FilteringFunctions/arm_fir_decimate_fast_q31.c **** 
 304:../Dave/Generated/CMSIS_DSP/FilteringFunctions/arm_fir_decimate_fast_q31.c ****   /* Processing is complete.
 305:../Dave/Generated/CMSIS_DSP/FilteringFunctions/arm_fir_decimate_fast_q31.c ****    ** Now copy the last numTaps - 1 samples to the satrt of the state buffer.
 306:../Dave/Generated/CMSIS_DSP/FilteringFunctions/arm_fir_decimate_fast_q31.c ****    ** This prepares the state buffer for the next function call. */
 307:../Dave/Generated/CMSIS_DSP/FilteringFunctions/arm_fir_decimate_fast_q31.c **** 
 308:../Dave/Generated/CMSIS_DSP/FilteringFunctions/arm_fir_decimate_fast_q31.c ****   /* Points to the start of the state buffer */
 309:../Dave/Generated/CMSIS_DSP/FilteringFunctions/arm_fir_decimate_fast_q31.c ****   pStateCurnt = S->pState;
 310:../Dave/Generated/CMSIS_DSP/FilteringFunctions/arm_fir_decimate_fast_q31.c **** 
 311:../Dave/Generated/CMSIS_DSP/FilteringFunctions/arm_fir_decimate_fast_q31.c ****   i = (numTaps - 1u) >> 2u;
 600              	 .loc 1 311 0
 601 0350 289B     	 ldr r3,[sp,#160]
 602              	.LVL94:
 603 0352 591E     	 subs r1,r3,#1
 604              	.LVL95:
 312:../Dave/Generated/CMSIS_DSP/FilteringFunctions/arm_fir_decimate_fast_q31.c **** 
 313:../Dave/Generated/CMSIS_DSP/FilteringFunctions/arm_fir_decimate_fast_q31.c ****   /* copy data */
 314:../Dave/Generated/CMSIS_DSP/FilteringFunctions/arm_fir_decimate_fast_q31.c ****   while (i > 0u)
 605              	 .loc 1 314 0
 606 0354 8D08     	 lsrs r5,r1,#2
 607              	.LVL96:
 608 0356 22D0     	 beq .L17
 609 0358 279B     	 ldr r3,[sp,#156]
 610 035a 03F11002 	 add r2,r3,#16
 611 035e 129B     	 ldr r3,[sp,#72]
 612 0360 2846     	 mov r0,r5
 613 0362 1033     	 adds r3,r3,#16
 614              	.LVL97:
 615              	.L18:
 315:../Dave/Generated/CMSIS_DSP/FilteringFunctions/arm_fir_decimate_fast_q31.c ****   {
 316:../Dave/Generated/CMSIS_DSP/FilteringFunctions/arm_fir_decimate_fast_q31.c ****     *pStateCurnt++ = *pState++;
 616              	 .loc 1 316 0
 617 0364 53F8104C 	 ldr r4,[r3,#-16]
 618 0368 42F8104C 	 str r4,[r2,#-16]
 619              	.LVL98:
 317:../Dave/Generated/CMSIS_DSP/FilteringFunctions/arm_fir_decimate_fast_q31.c ****     *pStateCurnt++ = *pState++;
 620              	 .loc 1 317 0
 621 036c 53F80C4C 	 ldr r4,[r3,#-12]
 622 0370 42F80C4C 	 str r4,[r2,#-12]
 623              	.LVL99:
 318:../Dave/Generated/CMSIS_DSP/FilteringFunctions/arm_fir_decimate_fast_q31.c ****     *pStateCurnt++ = *pState++;
 624              	 .loc 1 318 0
 625 0374 53F8084C 	 ldr r4,[r3,#-8]
 626 0378 42F8084C 	 str r4,[r2,#-8]
 627              	.LVL100:
 319:../Dave/Generated/CMSIS_DSP/FilteringFunctions/arm_fir_decimate_fast_q31.c ****     *pStateCurnt++ = *pState++;
 628              	 .loc 1 319 0
 629 037c 53F8044C 	 ldr r4,[r3,#-4]
 630 0380 42F8044C 	 str r4,[r2,#-4]
 314:../Dave/Generated/CMSIS_DSP/FilteringFunctions/arm_fir_decimate_fast_q31.c ****   {
 631              	 .loc 1 314 0
 632 0384 0138     	 subs r0,r0,#1
 633              	.LVL101:
 634 0386 03F11003 	 add r3,r3,#16
 635              	.LVL102:
 636 038a 02F11002 	 add r2,r2,#16
 637 038e E9D1     	 bne .L18
 638 0390 279A     	 ldr r2,[sp,#156]
 639 0392 2B01     	 lsls r3,r5,#4
 640              	.LVL103:
 641 0394 1A44     	 add r2,r2,r3
 642 0396 2792     	 str r2,[sp,#156]
 643 0398 129A     	 ldr r2,[sp,#72]
 644 039a 1A44     	 add r2,r2,r3
 645 039c 1292     	 str r2,[sp,#72]
 646              	.LVL104:
 647              	.L17:
 320:../Dave/Generated/CMSIS_DSP/FilteringFunctions/arm_fir_decimate_fast_q31.c **** 
 321:../Dave/Generated/CMSIS_DSP/FilteringFunctions/arm_fir_decimate_fast_q31.c ****     /* Decrement the loop counter */
 322:../Dave/Generated/CMSIS_DSP/FilteringFunctions/arm_fir_decimate_fast_q31.c ****     i--;
 323:../Dave/Generated/CMSIS_DSP/FilteringFunctions/arm_fir_decimate_fast_q31.c ****   }
 324:../Dave/Generated/CMSIS_DSP/FilteringFunctions/arm_fir_decimate_fast_q31.c **** 
 325:../Dave/Generated/CMSIS_DSP/FilteringFunctions/arm_fir_decimate_fast_q31.c ****   i = (numTaps - 1u) % 0x04u;
 326:../Dave/Generated/CMSIS_DSP/FilteringFunctions/arm_fir_decimate_fast_q31.c **** 
 327:../Dave/Generated/CMSIS_DSP/FilteringFunctions/arm_fir_decimate_fast_q31.c ****   /* copy data */
 328:../Dave/Generated/CMSIS_DSP/FilteringFunctions/arm_fir_decimate_fast_q31.c ****   while (i > 0u)
 648              	 .loc 1 328 0
 649 039e 11F00303 	 ands r3,r1,#3
 650              	.LVL105:
 651 03a2 08D0     	 beq .L1
 652 03a4 279A     	 ldr r2,[sp,#156]
 653 03a6 1299     	 ldr r1,[sp,#72]
 654 03a8 043A     	 subs r2,r2,#4
 655              	.LVL106:
 656              	.L20:
 329:../Dave/Generated/CMSIS_DSP/FilteringFunctions/arm_fir_decimate_fast_q31.c ****   {
 330:../Dave/Generated/CMSIS_DSP/FilteringFunctions/arm_fir_decimate_fast_q31.c ****     *pStateCurnt++ = *pState++;
 657              	 .loc 1 330 0
 658 03aa 51F8040B 	 ldr r0,[r1],#4
 659              	.LVL107:
 660 03ae 42F8040F 	 str r0,[r2,#4]!
 328:../Dave/Generated/CMSIS_DSP/FilteringFunctions/arm_fir_decimate_fast_q31.c ****   {
 661              	 .loc 1 328 0
 662 03b2 013B     	 subs r3,r3,#1
 663              	.LVL108:
 664 03b4 F9D1     	 bne .L20
 665              	.LVL109:
 666              	.L1:
 331:../Dave/Generated/CMSIS_DSP/FilteringFunctions/arm_fir_decimate_fast_q31.c **** 
 332:../Dave/Generated/CMSIS_DSP/FilteringFunctions/arm_fir_decimate_fast_q31.c ****     /* Decrement the loop counter */
 333:../Dave/Generated/CMSIS_DSP/FilteringFunctions/arm_fir_decimate_fast_q31.c ****     i--;
 334:../Dave/Generated/CMSIS_DSP/FilteringFunctions/arm_fir_decimate_fast_q31.c ****   }
 335:../Dave/Generated/CMSIS_DSP/FilteringFunctions/arm_fir_decimate_fast_q31.c **** }
 667              	 .loc 1 335 0
 668 03b6 31B0     	 add sp,sp,#196
 669              	.LCFI2:
 670              	 .cfi_remember_state
 671              	 .cfi_def_cfa_offset 36
 672              	 
 673 03b8 BDE8F08F 	 pop {r4,r5,r6,r7,r8,r9,r10,fp,pc}
 674              	.LVL110:
 675              	.L24:
 676              	.LCFI3:
 677              	 .cfi_restore_state
 678 03bc 3446     	 mov r4,r6
 679              	.LVL111:
 233:../Dave/Generated/CMSIS_DSP/FilteringFunctions/arm_fir_decimate_fast_q31.c ****     {
 680              	 .loc 1 233 0
 681 03be 7746     	 mov r7,lr
 226:../Dave/Generated/CMSIS_DSP/FilteringFunctions/arm_fir_decimate_fast_q31.c **** 
 682              	 .loc 1 226 0
 683 03c0 189E     	 ldr r6,[sp,#96]
 684              	.LVL112:
 685 03c2 A2E7     	 b .L12
 686              	.LVL113:
 687              	.L22:
  70:../Dave/Generated/CMSIS_DSP/FilteringFunctions/arm_fir_decimate_fast_q31.c ****   q31_t *pCoeffs = S->pCoeffs;                   /* Coefficient pointer */
 688              	 .loc 1 70 0
 689 03c4 1297     	 str r7,[sp,#72]
 690 03c6 2DE7     	 b .L2
 691              	 .cfi_endproc
 692              	.LFE135:
 694              	 .text
 695              	.Letext0:
 696              	 .file 2 "c:\\infineon\\tools\\dave ide\\4.5.0.202105191637\\eclipse\\arm-gcc-49\\arm-none-eabi\\include\\machine\\_default_types.h"
 697              	 .file 3 "c:\\infineon\\tools\\dave ide\\4.5.0.202105191637\\eclipse\\arm-gcc-49\\arm-none-eabi\\include\\stdint.h"
 698              	 .file 4 "C:/Users/Utente/Desktop/Tesi/Firmware_Software/DAVE project/S2GLP_Pulsed_Doppler/Dave/Generated/CMSIS_DSP/arm_math.h"