   1              	 .syntax unified
   2              	 .cpu cortex-m4
   3              	 .eabi_attribute 27,3
   4              	 .fpu fpv4-sp-d16
   5              	 .eabi_attribute 20,1
   6              	 .eabi_attribute 21,1
   7              	 .eabi_attribute 23,3
   8              	 .eabi_attribute 24,1
   9              	 .eabi_attribute 25,1
  10              	 .eabi_attribute 26,1
  11              	 .eabi_attribute 30,2
  12              	 .eabi_attribute 34,1
  13              	 .eabi_attribute 18,4
  14              	 .thumb
  15              	 .file "arm_conv_fast_q31.c"
  16              	 .text
  17              	.Ltext0:
  18              	 .cfi_sections .debug_frame
  19              	 .section .text.arm_conv_fast_q31,"ax",%progbits
  20              	 .align 2
  21              	 .global arm_conv_fast_q31
  22              	 .thumb
  23              	 .thumb_func
  25              	arm_conv_fast_q31:
  26              	.LFB135:
  27              	 .file 1 "../Dave/Generated/CMSIS_DSP/FilteringFunctions/arm_conv_fast_q31.c"
   1:../Dave/Generated/CMSIS_DSP/FilteringFunctions/arm_conv_fast_q31.c **** /* ----------------------------------------------------------------------
   2:../Dave/Generated/CMSIS_DSP/FilteringFunctions/arm_conv_fast_q31.c ****  * Project:      CMSIS DSP Library
   3:../Dave/Generated/CMSIS_DSP/FilteringFunctions/arm_conv_fast_q31.c ****  * Title:        arm_conv_fast_q31.c
   4:../Dave/Generated/CMSIS_DSP/FilteringFunctions/arm_conv_fast_q31.c ****  * Description:  Fast Q31 Convolution
   5:../Dave/Generated/CMSIS_DSP/FilteringFunctions/arm_conv_fast_q31.c ****  *
   6:../Dave/Generated/CMSIS_DSP/FilteringFunctions/arm_conv_fast_q31.c ****  * $Date:        27. January 2017
   7:../Dave/Generated/CMSIS_DSP/FilteringFunctions/arm_conv_fast_q31.c ****  * $Revision:    V.1.5.1
   8:../Dave/Generated/CMSIS_DSP/FilteringFunctions/arm_conv_fast_q31.c ****  *
   9:../Dave/Generated/CMSIS_DSP/FilteringFunctions/arm_conv_fast_q31.c ****  * Target Processor: Cortex-M cores
  10:../Dave/Generated/CMSIS_DSP/FilteringFunctions/arm_conv_fast_q31.c ****  * -------------------------------------------------------------------- */
  11:../Dave/Generated/CMSIS_DSP/FilteringFunctions/arm_conv_fast_q31.c **** /*
  12:../Dave/Generated/CMSIS_DSP/FilteringFunctions/arm_conv_fast_q31.c ****  * Copyright (C) 2010-2017 ARM Limited or its affiliates. All rights reserved.
  13:../Dave/Generated/CMSIS_DSP/FilteringFunctions/arm_conv_fast_q31.c ****  *
  14:../Dave/Generated/CMSIS_DSP/FilteringFunctions/arm_conv_fast_q31.c ****  * SPDX-License-Identifier: Apache-2.0
  15:../Dave/Generated/CMSIS_DSP/FilteringFunctions/arm_conv_fast_q31.c ****  *
  16:../Dave/Generated/CMSIS_DSP/FilteringFunctions/arm_conv_fast_q31.c ****  * Licensed under the Apache License, Version 2.0 (the License); you may
  17:../Dave/Generated/CMSIS_DSP/FilteringFunctions/arm_conv_fast_q31.c ****  * not use this file except in compliance with the License.
  18:../Dave/Generated/CMSIS_DSP/FilteringFunctions/arm_conv_fast_q31.c ****  * You may obtain a copy of the License at
  19:../Dave/Generated/CMSIS_DSP/FilteringFunctions/arm_conv_fast_q31.c ****  *
  20:../Dave/Generated/CMSIS_DSP/FilteringFunctions/arm_conv_fast_q31.c ****  * www.apache.org/licenses/LICENSE-2.0
  21:../Dave/Generated/CMSIS_DSP/FilteringFunctions/arm_conv_fast_q31.c ****  *
  22:../Dave/Generated/CMSIS_DSP/FilteringFunctions/arm_conv_fast_q31.c ****  * Unless required by applicable law or agreed to in writing, software
  23:../Dave/Generated/CMSIS_DSP/FilteringFunctions/arm_conv_fast_q31.c ****  * distributed under the License is distributed on an AS IS BASIS, WITHOUT
  24:../Dave/Generated/CMSIS_DSP/FilteringFunctions/arm_conv_fast_q31.c ****  * WARRANTIES OR CONDITIONS OF ANY KIND, either express or implied.
  25:../Dave/Generated/CMSIS_DSP/FilteringFunctions/arm_conv_fast_q31.c ****  * See the License for the specific language governing permissions and
  26:../Dave/Generated/CMSIS_DSP/FilteringFunctions/arm_conv_fast_q31.c ****  * limitations under the License.
  27:../Dave/Generated/CMSIS_DSP/FilteringFunctions/arm_conv_fast_q31.c ****  */
  28:../Dave/Generated/CMSIS_DSP/FilteringFunctions/arm_conv_fast_q31.c **** 
  29:../Dave/Generated/CMSIS_DSP/FilteringFunctions/arm_conv_fast_q31.c **** #include "CMSIS_DSP/cmsis_dsp.h"
  30:../Dave/Generated/CMSIS_DSP/FilteringFunctions/arm_conv_fast_q31.c **** 
  31:../Dave/Generated/CMSIS_DSP/FilteringFunctions/arm_conv_fast_q31.c **** /**
  32:../Dave/Generated/CMSIS_DSP/FilteringFunctions/arm_conv_fast_q31.c ****  * @ingroup groupFilters
  33:../Dave/Generated/CMSIS_DSP/FilteringFunctions/arm_conv_fast_q31.c ****  */
  34:../Dave/Generated/CMSIS_DSP/FilteringFunctions/arm_conv_fast_q31.c **** 
  35:../Dave/Generated/CMSIS_DSP/FilteringFunctions/arm_conv_fast_q31.c **** /**
  36:../Dave/Generated/CMSIS_DSP/FilteringFunctions/arm_conv_fast_q31.c ****  * @addtogroup Conv
  37:../Dave/Generated/CMSIS_DSP/FilteringFunctions/arm_conv_fast_q31.c ****  * @{
  38:../Dave/Generated/CMSIS_DSP/FilteringFunctions/arm_conv_fast_q31.c ****  */
  39:../Dave/Generated/CMSIS_DSP/FilteringFunctions/arm_conv_fast_q31.c **** 
  40:../Dave/Generated/CMSIS_DSP/FilteringFunctions/arm_conv_fast_q31.c **** /**
  41:../Dave/Generated/CMSIS_DSP/FilteringFunctions/arm_conv_fast_q31.c ****  * @param[in] *pSrcA points to the first input sequence.
  42:../Dave/Generated/CMSIS_DSP/FilteringFunctions/arm_conv_fast_q31.c ****  * @param[in] srcALen length of the first input sequence.
  43:../Dave/Generated/CMSIS_DSP/FilteringFunctions/arm_conv_fast_q31.c ****  * @param[in] *pSrcB points to the second input sequence.
  44:../Dave/Generated/CMSIS_DSP/FilteringFunctions/arm_conv_fast_q31.c ****  * @param[in] srcBLen length of the second input sequence.
  45:../Dave/Generated/CMSIS_DSP/FilteringFunctions/arm_conv_fast_q31.c ****  * @param[out] *pDst points to the location where the output result is written.  Length srcALen+src
  46:../Dave/Generated/CMSIS_DSP/FilteringFunctions/arm_conv_fast_q31.c ****  * @return none.
  47:../Dave/Generated/CMSIS_DSP/FilteringFunctions/arm_conv_fast_q31.c ****  *
  48:../Dave/Generated/CMSIS_DSP/FilteringFunctions/arm_conv_fast_q31.c ****  * @details
  49:../Dave/Generated/CMSIS_DSP/FilteringFunctions/arm_conv_fast_q31.c ****  * <b>Scaling and Overflow Behavior:</b>
  50:../Dave/Generated/CMSIS_DSP/FilteringFunctions/arm_conv_fast_q31.c ****  *
  51:../Dave/Generated/CMSIS_DSP/FilteringFunctions/arm_conv_fast_q31.c ****  * \par
  52:../Dave/Generated/CMSIS_DSP/FilteringFunctions/arm_conv_fast_q31.c ****  * This function is optimized for speed at the expense of fixed-point precision and overflow protec
  53:../Dave/Generated/CMSIS_DSP/FilteringFunctions/arm_conv_fast_q31.c ****  * The result of each 1.31 x 1.31 multiplication is truncated to 2.30 format.
  54:../Dave/Generated/CMSIS_DSP/FilteringFunctions/arm_conv_fast_q31.c ****  * These intermediate results are accumulated in a 32-bit register in 2.30 format.
  55:../Dave/Generated/CMSIS_DSP/FilteringFunctions/arm_conv_fast_q31.c ****  * Finally, the accumulator is saturated and converted to a 1.31 result.
  56:../Dave/Generated/CMSIS_DSP/FilteringFunctions/arm_conv_fast_q31.c ****  *
  57:../Dave/Generated/CMSIS_DSP/FilteringFunctions/arm_conv_fast_q31.c ****  * \par
  58:../Dave/Generated/CMSIS_DSP/FilteringFunctions/arm_conv_fast_q31.c ****  * The fast version has the same overflow behavior as the standard version but provides less precis
  59:../Dave/Generated/CMSIS_DSP/FilteringFunctions/arm_conv_fast_q31.c ****  * In order to avoid overflows completely the input signals must be scaled down.
  60:../Dave/Generated/CMSIS_DSP/FilteringFunctions/arm_conv_fast_q31.c ****  * Scale down the inputs by log2(min(srcALen, srcBLen)) (log2 is read as log to the base 2) times t
  61:../Dave/Generated/CMSIS_DSP/FilteringFunctions/arm_conv_fast_q31.c ****  * as maximum of min(srcALen, srcBLen) number of additions are carried internally.
  62:../Dave/Generated/CMSIS_DSP/FilteringFunctions/arm_conv_fast_q31.c ****  *
  63:../Dave/Generated/CMSIS_DSP/FilteringFunctions/arm_conv_fast_q31.c ****  * \par
  64:../Dave/Generated/CMSIS_DSP/FilteringFunctions/arm_conv_fast_q31.c ****  * See <code>arm_conv_q31()</code> for a slower implementation of this function which uses 64-bit a
  65:../Dave/Generated/CMSIS_DSP/FilteringFunctions/arm_conv_fast_q31.c ****  */
  66:../Dave/Generated/CMSIS_DSP/FilteringFunctions/arm_conv_fast_q31.c **** 
  67:../Dave/Generated/CMSIS_DSP/FilteringFunctions/arm_conv_fast_q31.c **** void arm_conv_fast_q31(
  68:../Dave/Generated/CMSIS_DSP/FilteringFunctions/arm_conv_fast_q31.c ****   q31_t * pSrcA,
  69:../Dave/Generated/CMSIS_DSP/FilteringFunctions/arm_conv_fast_q31.c ****   uint32_t srcALen,
  70:../Dave/Generated/CMSIS_DSP/FilteringFunctions/arm_conv_fast_q31.c ****   q31_t * pSrcB,
  71:../Dave/Generated/CMSIS_DSP/FilteringFunctions/arm_conv_fast_q31.c ****   uint32_t srcBLen,
  72:../Dave/Generated/CMSIS_DSP/FilteringFunctions/arm_conv_fast_q31.c ****   q31_t * pDst)
  73:../Dave/Generated/CMSIS_DSP/FilteringFunctions/arm_conv_fast_q31.c **** {
  28              	 .loc 1 73 0
  29              	 .cfi_startproc
  30              	 
  31              	 
  32              	.LVL0:
  33 0000 2DE9F04F 	 push {r4,r5,r6,r7,r8,r9,r10,fp,lr}
  34              	.LCFI0:
  35              	 .cfi_def_cfa_offset 36
  36              	 .cfi_offset 4,-36
  37              	 .cfi_offset 5,-32
  38              	 .cfi_offset 6,-28
  39              	 .cfi_offset 7,-24
  40              	 .cfi_offset 8,-20
  41              	 .cfi_offset 9,-16
  42              	 .cfi_offset 10,-12
  43              	 .cfi_offset 11,-8
  44              	 .cfi_offset 14,-4
  45 0004 D9B0     	 sub sp,sp,#356
  46              	.LCFI1:
  47              	 .cfi_def_cfa_offset 392
  74:../Dave/Generated/CMSIS_DSP/FilteringFunctions/arm_conv_fast_q31.c ****   q31_t *pIn1;                                   /* inputA pointer */
  75:../Dave/Generated/CMSIS_DSP/FilteringFunctions/arm_conv_fast_q31.c ****   q31_t *pIn2;                                   /* inputB pointer */
  76:../Dave/Generated/CMSIS_DSP/FilteringFunctions/arm_conv_fast_q31.c ****   q31_t *pOut = pDst;                            /* output pointer */
  77:../Dave/Generated/CMSIS_DSP/FilteringFunctions/arm_conv_fast_q31.c ****   q31_t *px;                                     /* Intermediate inputA pointer  */
  78:../Dave/Generated/CMSIS_DSP/FilteringFunctions/arm_conv_fast_q31.c ****   q31_t *py;                                     /* Intermediate inputB pointer  */
  79:../Dave/Generated/CMSIS_DSP/FilteringFunctions/arm_conv_fast_q31.c ****   q31_t *pSrc1, *pSrc2;                          /* Intermediate pointers */
  80:../Dave/Generated/CMSIS_DSP/FilteringFunctions/arm_conv_fast_q31.c ****   q31_t sum, acc0, acc1, acc2, acc3;             /* Accumulator */
  81:../Dave/Generated/CMSIS_DSP/FilteringFunctions/arm_conv_fast_q31.c ****   q31_t x0, x1, x2, x3, c0;                      /* Temporary variables to hold state and coefficie
  82:../Dave/Generated/CMSIS_DSP/FilteringFunctions/arm_conv_fast_q31.c ****   uint32_t j, k, count, blkCnt, blockSize1, blockSize2, blockSize3;     /* loop counter */
  83:../Dave/Generated/CMSIS_DSP/FilteringFunctions/arm_conv_fast_q31.c **** 
  84:../Dave/Generated/CMSIS_DSP/FilteringFunctions/arm_conv_fast_q31.c ****   /* The algorithm implementation is based on the lengths of the inputs. */
  85:../Dave/Generated/CMSIS_DSP/FilteringFunctions/arm_conv_fast_q31.c ****   /* srcB is always made to slide across srcA. */
  86:../Dave/Generated/CMSIS_DSP/FilteringFunctions/arm_conv_fast_q31.c ****   /* So srcBLen is always considered as shorter or equal to srcALen */
  87:../Dave/Generated/CMSIS_DSP/FilteringFunctions/arm_conv_fast_q31.c ****   if (srcALen >= srcBLen)
  48              	 .loc 1 87 0
  49 0006 9942     	 cmp r1,r3
  73:../Dave/Generated/CMSIS_DSP/FilteringFunctions/arm_conv_fast_q31.c ****   q31_t *pIn1;                                   /* inputA pointer */
  50              	 .loc 1 73 0
  51 0008 3A93     	 str r3,[sp,#232]
  52 000a 3290     	 str r0,[sp,#200]
  53 000c 3B92     	 str r2,[sp,#236]
  54              	.LVL1:
  55              	 .loc 1 87 0
  56 000e 05D2     	 bcs .L2
  57 0010 0B46     	 mov r3,r1
  58              	.LVL2:
  88:../Dave/Generated/CMSIS_DSP/FilteringFunctions/arm_conv_fast_q31.c ****   {
  89:../Dave/Generated/CMSIS_DSP/FilteringFunctions/arm_conv_fast_q31.c ****     /* Initialization of inputA pointer */
  90:../Dave/Generated/CMSIS_DSP/FilteringFunctions/arm_conv_fast_q31.c ****     pIn1 = pSrcA;
  91:../Dave/Generated/CMSIS_DSP/FilteringFunctions/arm_conv_fast_q31.c **** 
  92:../Dave/Generated/CMSIS_DSP/FilteringFunctions/arm_conv_fast_q31.c ****     /* Initialization of inputB pointer */
  93:../Dave/Generated/CMSIS_DSP/FilteringFunctions/arm_conv_fast_q31.c ****     pIn2 = pSrcB;
  94:../Dave/Generated/CMSIS_DSP/FilteringFunctions/arm_conv_fast_q31.c ****   }
  95:../Dave/Generated/CMSIS_DSP/FilteringFunctions/arm_conv_fast_q31.c ****   else
  96:../Dave/Generated/CMSIS_DSP/FilteringFunctions/arm_conv_fast_q31.c ****   {
  97:../Dave/Generated/CMSIS_DSP/FilteringFunctions/arm_conv_fast_q31.c ****     /* Initialization of inputA pointer */
  98:../Dave/Generated/CMSIS_DSP/FilteringFunctions/arm_conv_fast_q31.c ****     pIn1 = pSrcB;
  59              	 .loc 1 98 0
  60 0012 3B99     	 ldr r1,[sp,#236]
  61              	.LVL3:
  62 0014 3291     	 str r1,[sp,#200]
  99:../Dave/Generated/CMSIS_DSP/FilteringFunctions/arm_conv_fast_q31.c **** 
 100:../Dave/Generated/CMSIS_DSP/FilteringFunctions/arm_conv_fast_q31.c ****     /* Initialization of inputB pointer */
 101:../Dave/Generated/CMSIS_DSP/FilteringFunctions/arm_conv_fast_q31.c ****     pIn2 = pSrcA;
  63              	 .loc 1 101 0
  64 0016 3B90     	 str r0,[sp,#236]
  87:../Dave/Generated/CMSIS_DSP/FilteringFunctions/arm_conv_fast_q31.c ****   {
  65              	 .loc 1 87 0
  66 0018 3A99     	 ldr r1,[sp,#232]
  67 001a 3A93     	 str r3,[sp,#232]
  68              	.LVL4:
  69              	.L2:
  70 001c 4E1C     	 adds r6,r1,#1
 102:../Dave/Generated/CMSIS_DSP/FilteringFunctions/arm_conv_fast_q31.c **** 
 103:../Dave/Generated/CMSIS_DSP/FilteringFunctions/arm_conv_fast_q31.c ****     /* srcBLen is always considered as shorter or equal to srcALen */
 104:../Dave/Generated/CMSIS_DSP/FilteringFunctions/arm_conv_fast_q31.c ****     j = srcBLen;
 105:../Dave/Generated/CMSIS_DSP/FilteringFunctions/arm_conv_fast_q31.c ****     srcBLen = srcALen;
 106:../Dave/Generated/CMSIS_DSP/FilteringFunctions/arm_conv_fast_q31.c ****     srcALen = j;
 107:../Dave/Generated/CMSIS_DSP/FilteringFunctions/arm_conv_fast_q31.c ****   }
 108:../Dave/Generated/CMSIS_DSP/FilteringFunctions/arm_conv_fast_q31.c **** 
 109:../Dave/Generated/CMSIS_DSP/FilteringFunctions/arm_conv_fast_q31.c ****   /* conv(x,y) at n = x[n] * y[0] + x[n-1] * y[1] + x[n-2] * y[2] + ...+ x[n-N+1] * y[N -1] */
 110:../Dave/Generated/CMSIS_DSP/FilteringFunctions/arm_conv_fast_q31.c ****   /* The function is internally
 111:../Dave/Generated/CMSIS_DSP/FilteringFunctions/arm_conv_fast_q31.c ****    * divided into three stages according to the number of multiplications that has to be
 112:../Dave/Generated/CMSIS_DSP/FilteringFunctions/arm_conv_fast_q31.c ****    * taken place between inputA samples and inputB samples. In the first stage of the
 113:../Dave/Generated/CMSIS_DSP/FilteringFunctions/arm_conv_fast_q31.c ****    * algorithm, the multiplications increase by one for every iteration.
 114:../Dave/Generated/CMSIS_DSP/FilteringFunctions/arm_conv_fast_q31.c ****    * In the second stage of the algorithm, srcBLen number of multiplications are done.
 115:../Dave/Generated/CMSIS_DSP/FilteringFunctions/arm_conv_fast_q31.c ****    * In the third stage of the algorithm, the multiplications decrease by one
 116:../Dave/Generated/CMSIS_DSP/FilteringFunctions/arm_conv_fast_q31.c ****    * for every iteration. */
 117:../Dave/Generated/CMSIS_DSP/FilteringFunctions/arm_conv_fast_q31.c **** 
 118:../Dave/Generated/CMSIS_DSP/FilteringFunctions/arm_conv_fast_q31.c ****   /* The algorithm is implemented in three stages.
 119:../Dave/Generated/CMSIS_DSP/FilteringFunctions/arm_conv_fast_q31.c ****      The loop counters of each stage is initiated here. */
 120:../Dave/Generated/CMSIS_DSP/FilteringFunctions/arm_conv_fast_q31.c ****   blockSize1 = srcBLen - 1u;
 121:../Dave/Generated/CMSIS_DSP/FilteringFunctions/arm_conv_fast_q31.c ****   blockSize2 = srcALen - (srcBLen - 1u);
  71              	 .loc 1 121 0
  72 001e F21A     	 subs r2,r6,r3
  73              	.LVL5:
 122:../Dave/Generated/CMSIS_DSP/FilteringFunctions/arm_conv_fast_q31.c ****   blockSize3 = blockSize1;
 123:../Dave/Generated/CMSIS_DSP/FilteringFunctions/arm_conv_fast_q31.c **** 
 124:../Dave/Generated/CMSIS_DSP/FilteringFunctions/arm_conv_fast_q31.c ****   /* --------------------------
 125:../Dave/Generated/CMSIS_DSP/FilteringFunctions/arm_conv_fast_q31.c ****    * Initializations of stage1
 126:../Dave/Generated/CMSIS_DSP/FilteringFunctions/arm_conv_fast_q31.c ****    * -------------------------*/
 127:../Dave/Generated/CMSIS_DSP/FilteringFunctions/arm_conv_fast_q31.c **** 
 128:../Dave/Generated/CMSIS_DSP/FilteringFunctions/arm_conv_fast_q31.c ****   /* sum = x[0] * y[0]
 129:../Dave/Generated/CMSIS_DSP/FilteringFunctions/arm_conv_fast_q31.c ****    * sum = x[0] * y[1] + x[1] * y[0]
 130:../Dave/Generated/CMSIS_DSP/FilteringFunctions/arm_conv_fast_q31.c ****    * ....
 131:../Dave/Generated/CMSIS_DSP/FilteringFunctions/arm_conv_fast_q31.c ****    * sum = x[0] * y[srcBlen - 1] + x[1] * y[srcBlen - 2] +...+ x[srcBLen - 1] * y[0]
 132:../Dave/Generated/CMSIS_DSP/FilteringFunctions/arm_conv_fast_q31.c ****    */
 133:../Dave/Generated/CMSIS_DSP/FilteringFunctions/arm_conv_fast_q31.c **** 
 134:../Dave/Generated/CMSIS_DSP/FilteringFunctions/arm_conv_fast_q31.c ****   /* In this stage the MAC operations are increased by 1 for every iteration.
 135:../Dave/Generated/CMSIS_DSP/FilteringFunctions/arm_conv_fast_q31.c ****      The count variable holds the number of MAC operations performed */
 136:../Dave/Generated/CMSIS_DSP/FilteringFunctions/arm_conv_fast_q31.c ****   count = 1u;
 137:../Dave/Generated/CMSIS_DSP/FilteringFunctions/arm_conv_fast_q31.c **** 
 138:../Dave/Generated/CMSIS_DSP/FilteringFunctions/arm_conv_fast_q31.c ****   /* Working pointer of inputA */
 139:../Dave/Generated/CMSIS_DSP/FilteringFunctions/arm_conv_fast_q31.c ****   px = pIn1;
 140:../Dave/Generated/CMSIS_DSP/FilteringFunctions/arm_conv_fast_q31.c **** 
 141:../Dave/Generated/CMSIS_DSP/FilteringFunctions/arm_conv_fast_q31.c ****   /* Working pointer of inputB */
 142:../Dave/Generated/CMSIS_DSP/FilteringFunctions/arm_conv_fast_q31.c ****   py = pIn2;
 143:../Dave/Generated/CMSIS_DSP/FilteringFunctions/arm_conv_fast_q31.c **** 
 144:../Dave/Generated/CMSIS_DSP/FilteringFunctions/arm_conv_fast_q31.c **** 
 145:../Dave/Generated/CMSIS_DSP/FilteringFunctions/arm_conv_fast_q31.c ****   /* ------------------------
 146:../Dave/Generated/CMSIS_DSP/FilteringFunctions/arm_conv_fast_q31.c ****    * Stage1 process
 147:../Dave/Generated/CMSIS_DSP/FilteringFunctions/arm_conv_fast_q31.c ****    * ----------------------*/
 148:../Dave/Generated/CMSIS_DSP/FilteringFunctions/arm_conv_fast_q31.c **** 
 149:../Dave/Generated/CMSIS_DSP/FilteringFunctions/arm_conv_fast_q31.c ****   /* The first stage starts here */
 150:../Dave/Generated/CMSIS_DSP/FilteringFunctions/arm_conv_fast_q31.c ****   while (blockSize1 > 0u)
  74              	 .loc 1 150 0
  75 0020 013B     	 subs r3,r3,#1
 121:../Dave/Generated/CMSIS_DSP/FilteringFunctions/arm_conv_fast_q31.c ****   blockSize3 = blockSize1;
  76              	 .loc 1 121 0
  77 0022 4792     	 str r2,[sp,#284]
  78              	.LVL6:
  79              	 .loc 1 150 0
  80 0024 3193     	 str r3,[sp,#196]
  81 0026 00F0FB82 	 beq .L76
  82 002a 629A     	 ldr r2,[sp,#392]
  83              	.LVL7:
  84 002c 3B9B     	 ldr r3,[sp,#236]
  85 002e 2C92     	 str r2,[sp,#176]
  86 0030 329A     	 ldr r2,[sp,#200]
  87 0032 03F1040E 	 add lr,r3,#4
  88 0036 4FF0010C 	 mov ip,#1
 151:../Dave/Generated/CMSIS_DSP/FilteringFunctions/arm_conv_fast_q31.c ****   {
 152:../Dave/Generated/CMSIS_DSP/FilteringFunctions/arm_conv_fast_q31.c ****     /* Accumulator is made zero for every iteration */
 153:../Dave/Generated/CMSIS_DSP/FilteringFunctions/arm_conv_fast_q31.c ****     sum = 0;
  89              	 .loc 1 153 0
  90 003a 0020     	 movs r0,#0
  91              	.LVL8:
  92              	.L4:
 154:../Dave/Generated/CMSIS_DSP/FilteringFunctions/arm_conv_fast_q31.c **** 
 155:../Dave/Generated/CMSIS_DSP/FilteringFunctions/arm_conv_fast_q31.c ****     /* Apply loop unrolling and compute 4 MACs simultaneously. */
 156:../Dave/Generated/CMSIS_DSP/FilteringFunctions/arm_conv_fast_q31.c ****     k = count >> 2u;
 157:../Dave/Generated/CMSIS_DSP/FilteringFunctions/arm_conv_fast_q31.c **** 
 158:../Dave/Generated/CMSIS_DSP/FilteringFunctions/arm_conv_fast_q31.c ****     /* First part of the processing with loop unrolling.  Compute 4 MACs at a time.
 159:../Dave/Generated/CMSIS_DSP/FilteringFunctions/arm_conv_fast_q31.c ****      ** a second loop below computes MACs for the remaining 1 to 3 samples. */
 160:../Dave/Generated/CMSIS_DSP/FilteringFunctions/arm_conv_fast_q31.c ****     while (k > 0u)
 161:../Dave/Generated/CMSIS_DSP/FilteringFunctions/arm_conv_fast_q31.c ****     {
 162:../Dave/Generated/CMSIS_DSP/FilteringFunctions/arm_conv_fast_q31.c ****       /* x[0] * y[srcBLen - 1] */
 163:../Dave/Generated/CMSIS_DSP/FilteringFunctions/arm_conv_fast_q31.c ****       sum = (q31_t) ((((q63_t) sum << 32) +
 164:../Dave/Generated/CMSIS_DSP/FilteringFunctions/arm_conv_fast_q31.c ****                       ((q63_t) * px++ * (*py--))) >> 32);
 165:../Dave/Generated/CMSIS_DSP/FilteringFunctions/arm_conv_fast_q31.c **** 
 166:../Dave/Generated/CMSIS_DSP/FilteringFunctions/arm_conv_fast_q31.c ****       /* x[1] * y[srcBLen - 2] */
 167:../Dave/Generated/CMSIS_DSP/FilteringFunctions/arm_conv_fast_q31.c ****       sum = (q31_t) ((((q63_t) sum << 32) +
 168:../Dave/Generated/CMSIS_DSP/FilteringFunctions/arm_conv_fast_q31.c ****                       ((q63_t) * px++ * (*py--))) >> 32);
 169:../Dave/Generated/CMSIS_DSP/FilteringFunctions/arm_conv_fast_q31.c **** 
 170:../Dave/Generated/CMSIS_DSP/FilteringFunctions/arm_conv_fast_q31.c ****       /* x[2] * y[srcBLen - 3] */
 171:../Dave/Generated/CMSIS_DSP/FilteringFunctions/arm_conv_fast_q31.c ****       sum = (q31_t) ((((q63_t) sum << 32) +
 172:../Dave/Generated/CMSIS_DSP/FilteringFunctions/arm_conv_fast_q31.c ****                       ((q63_t) * px++ * (*py--))) >> 32);
 173:../Dave/Generated/CMSIS_DSP/FilteringFunctions/arm_conv_fast_q31.c **** 
 174:../Dave/Generated/CMSIS_DSP/FilteringFunctions/arm_conv_fast_q31.c ****       /* x[3] * y[srcBLen - 4] */
 175:../Dave/Generated/CMSIS_DSP/FilteringFunctions/arm_conv_fast_q31.c ****       sum = (q31_t) ((((q63_t) sum << 32) +
 176:../Dave/Generated/CMSIS_DSP/FilteringFunctions/arm_conv_fast_q31.c ****                       ((q63_t) * px++ * (*py--))) >> 32);
 177:../Dave/Generated/CMSIS_DSP/FilteringFunctions/arm_conv_fast_q31.c **** 
 178:../Dave/Generated/CMSIS_DSP/FilteringFunctions/arm_conv_fast_q31.c ****       /* Decrement the loop counter */
 179:../Dave/Generated/CMSIS_DSP/FilteringFunctions/arm_conv_fast_q31.c ****       k--;
 180:../Dave/Generated/CMSIS_DSP/FilteringFunctions/arm_conv_fast_q31.c ****     }
 181:../Dave/Generated/CMSIS_DSP/FilteringFunctions/arm_conv_fast_q31.c **** 
 182:../Dave/Generated/CMSIS_DSP/FilteringFunctions/arm_conv_fast_q31.c ****     /* If the count is not a multiple of 4, compute any remaining MACs here.
 183:../Dave/Generated/CMSIS_DSP/FilteringFunctions/arm_conv_fast_q31.c ****      ** No loop unrolling is used. */
 184:../Dave/Generated/CMSIS_DSP/FilteringFunctions/arm_conv_fast_q31.c ****     k = count % 0x4u;
 185:../Dave/Generated/CMSIS_DSP/FilteringFunctions/arm_conv_fast_q31.c **** 
 186:../Dave/Generated/CMSIS_DSP/FilteringFunctions/arm_conv_fast_q31.c ****     while (k > 0u)
  93              	 .loc 1 186 0
  94 003c 1CF00306 	 ands r6,ip,#3
  95              	.LVL9:
  96 0040 11D0     	 beq .L7
  97 0042 CDE90445 	 strd r4,[sp,#16]
  98              	.LVL10:
  99              	.L8:
 187:../Dave/Generated/CMSIS_DSP/FilteringFunctions/arm_conv_fast_q31.c ****     {
 188:../Dave/Generated/CMSIS_DSP/FilteringFunctions/arm_conv_fast_q31.c ****       /* Perform the multiply-accumulate */
 189:../Dave/Generated/CMSIS_DSP/FilteringFunctions/arm_conv_fast_q31.c ****       sum = (q31_t) ((((q63_t) sum << 32) +
 100              	 .loc 1 189 0
 101 0046 8146     	 mov r9,r0
 190:../Dave/Generated/CMSIS_DSP/FilteringFunctions/arm_conv_fast_q31.c ****                       ((q63_t) * px++ * (*py--))) >> 32);
 102              	 .loc 1 190 0
 103 0048 53F80419 	 ldr r1,[r3],#-4
 104              	.LVL11:
 105 004c 52F8040B 	 ldr r0,[r2],#4
 106              	.LVL12:
 189:../Dave/Generated/CMSIS_DSP/FilteringFunctions/arm_conv_fast_q31.c ****                       ((q63_t) * px++ * (*py--))) >> 32);
 107              	 .loc 1 189 0
 108 0050 4FF00008 	 mov r8,#0
 109 0054 4446     	 mov r4,r8
 110 0056 4D46     	 mov r5,r9
 111 0058 C1FB0045 	 smlal r4,r5,r1,r0
 186:../Dave/Generated/CMSIS_DSP/FilteringFunctions/arm_conv_fast_q31.c ****     {
 112              	 .loc 1 186 0
 113 005c 013E     	 subs r6,r6,#1
 114              	.LVL13:
 189:../Dave/Generated/CMSIS_DSP/FilteringFunctions/arm_conv_fast_q31.c ****                       ((q63_t) * px++ * (*py--))) >> 32);
 115              	 .loc 1 189 0
 116 005e 2846     	 mov r0,r5
 117              	.LVL14:
 186:../Dave/Generated/CMSIS_DSP/FilteringFunctions/arm_conv_fast_q31.c ****     {
 118              	 .loc 1 186 0
 119 0060 F1D1     	 bne .L8
 120 0062 DDE90445 	 ldrd r4,[sp,#16]
 121              	.L7:
 191:../Dave/Generated/CMSIS_DSP/FilteringFunctions/arm_conv_fast_q31.c **** 
 192:../Dave/Generated/CMSIS_DSP/FilteringFunctions/arm_conv_fast_q31.c ****       /* Decrement the loop counter */
 193:../Dave/Generated/CMSIS_DSP/FilteringFunctions/arm_conv_fast_q31.c ****       k--;
 194:../Dave/Generated/CMSIS_DSP/FilteringFunctions/arm_conv_fast_q31.c ****     }
 195:../Dave/Generated/CMSIS_DSP/FilteringFunctions/arm_conv_fast_q31.c **** 
 196:../Dave/Generated/CMSIS_DSP/FilteringFunctions/arm_conv_fast_q31.c ****     /* Store the result in the accumulator in the destination buffer. */
 197:../Dave/Generated/CMSIS_DSP/FilteringFunctions/arm_conv_fast_q31.c ****     *pOut++ = sum << 1;
 122              	 .loc 1 197 0
 123 0066 2C9B     	 ldr r3,[sp,#176]
 124              	.LVL15:
 150:../Dave/Generated/CMSIS_DSP/FilteringFunctions/arm_conv_fast_q31.c ****   {
 125              	 .loc 1 150 0
 126 0068 3A9A     	 ldr r2,[sp,#232]
 127              	.LVL16:
 128              	 .loc 1 197 0
 129 006a 4000     	 lsls r0,r0,#1
 130 006c 43F8040B 	 str r0,[r3],#4
 198:../Dave/Generated/CMSIS_DSP/FilteringFunctions/arm_conv_fast_q31.c **** 
 199:../Dave/Generated/CMSIS_DSP/FilteringFunctions/arm_conv_fast_q31.c ****     /* Update the inputA and inputB pointers for next MAC calculation */
 200:../Dave/Generated/CMSIS_DSP/FilteringFunctions/arm_conv_fast_q31.c ****     py = pIn2 + count;
 201:../Dave/Generated/CMSIS_DSP/FilteringFunctions/arm_conv_fast_q31.c ****     px = pIn1;
 202:../Dave/Generated/CMSIS_DSP/FilteringFunctions/arm_conv_fast_q31.c **** 
 203:../Dave/Generated/CMSIS_DSP/FilteringFunctions/arm_conv_fast_q31.c ****     /* Increment the MAC count */
 204:../Dave/Generated/CMSIS_DSP/FilteringFunctions/arm_conv_fast_q31.c ****     count++;
 131              	 .loc 1 204 0
 132 0070 0CF1010C 	 add ip,ip,#1
 150:../Dave/Generated/CMSIS_DSP/FilteringFunctions/arm_conv_fast_q31.c ****   {
 133              	 .loc 1 150 0
 134 0074 9445     	 cmp ip,r2
 197:../Dave/Generated/CMSIS_DSP/FilteringFunctions/arm_conv_fast_q31.c **** 
 135              	 .loc 1 197 0
 136 0076 2C93     	 str r3,[sp,#176]
 137              	.LVL17:
 200:../Dave/Generated/CMSIS_DSP/FilteringFunctions/arm_conv_fast_q31.c ****     px = pIn1;
 138              	 .loc 1 200 0
 139 0078 7346     	 mov r3,lr
 140              	.LVL18:
 150:../Dave/Generated/CMSIS_DSP/FilteringFunctions/arm_conv_fast_q31.c ****   {
 141              	 .loc 1 150 0
 142 007a 43D0     	 beq .L77
 143              	.LVL19:
 160:../Dave/Generated/CMSIS_DSP/FilteringFunctions/arm_conv_fast_q31.c ****     {
 144              	 .loc 1 160 0
 145 007c 5FEA9C07 	 lsrs r7,ip,#2
 146              	.LVL20:
 147 0080 00F01383 	 beq .L38
 148 0084 329B     	 ldr r3,[sp,#200]
 149              	.LVL21:
 150 0086 3397     	 str r7,[sp,#204]
 151 0088 CDE93489 	 strd r8,[sp,#208]
 152 008c 03F11002 	 add r2,r3,#16
 153 0090 0020     	 movs r0,#0
 154 0092 AEF11003 	 sub r3,lr,#16
 155 0096 0497     	 str r7,[sp,#16]
 156              	.LVL22:
 157              	.L6:
 163:../Dave/Generated/CMSIS_DSP/FilteringFunctions/arm_conv_fast_q31.c ****                       ((q63_t) * px++ * (*py--))) >> 32);
 158              	 .loc 1 163 0
 159 0098 0024     	 movs r4,#0
 164:../Dave/Generated/CMSIS_DSP/FilteringFunctions/arm_conv_fast_q31.c **** 
 160              	 .loc 1 164 0
 161 009a 1969     	 ldr r1,[r3,#16]
 167:../Dave/Generated/CMSIS_DSP/FilteringFunctions/arm_conv_fast_q31.c ****                       ((q63_t) * px++ * (*py--))) >> 32);
 162              	 .loc 1 167 0
 163 009c 0094     	 str r4,[sp]
 163:../Dave/Generated/CMSIS_DSP/FilteringFunctions/arm_conv_fast_q31.c ****                       ((q63_t) * px++ * (*py--))) >> 32);
 164              	 .loc 1 163 0
 165 009e 0546     	 mov r5,r0
 164:../Dave/Generated/CMSIS_DSP/FilteringFunctions/arm_conv_fast_q31.c **** 
 166              	 .loc 1 164 0
 167 00a0 52F8100C 	 ldr r0,[r2,#-16]
 168              	.LVL23:
 163:../Dave/Generated/CMSIS_DSP/FilteringFunctions/arm_conv_fast_q31.c ****                       ((q63_t) * px++ * (*py--))) >> 32);
 169              	 .loc 1 163 0
 170 00a4 2646     	 mov r6,r4
 171 00a6 2F46     	 mov r7,r5
 172 00a8 C1FB0067 	 smlal r6,r7,r1,r0
 173              	.LVL24:
 167:../Dave/Generated/CMSIS_DSP/FilteringFunctions/arm_conv_fast_q31.c ****                       ((q63_t) * px++ * (*py--))) >> 32);
 174              	 .loc 1 167 0
 175 00ac 0197     	 str r7,[sp,#4]
 176 00ae DDE90067 	 ldrd r6,[sp]
 168:../Dave/Generated/CMSIS_DSP/FilteringFunctions/arm_conv_fast_q31.c **** 
 177              	 .loc 1 168 0
 178 00b2 D968     	 ldr r1,[r3,#12]
 167:../Dave/Generated/CMSIS_DSP/FilteringFunctions/arm_conv_fast_q31.c ****                       ((q63_t) * px++ * (*py--))) >> 32);
 179              	 .loc 1 167 0
 180 00b4 52F80C0C 	 ldr r0,[r2,#-12]
 181 00b8 C1FB0067 	 smlal r6,r7,r1,r0
 182              	.LVL25:
 172:../Dave/Generated/CMSIS_DSP/FilteringFunctions/arm_conv_fast_q31.c **** 
 183              	 .loc 1 172 0
 184 00bc 9968     	 ldr r1,[r3,#8]
 171:../Dave/Generated/CMSIS_DSP/FilteringFunctions/arm_conv_fast_q31.c ****                       ((q63_t) * px++ * (*py--))) >> 32);
 185              	 .loc 1 171 0
 186 00be 52F8080C 	 ldr r0,[r2,#-8]
 187 00c2 2646     	 mov r6,r4
 188 00c4 B946     	 mov r9,r7
 189 00c6 A046     	 mov r8,r4
 190 00c8 C1FB0067 	 smlal r6,r7,r1,r0
 191              	.LVL26:
 176:../Dave/Generated/CMSIS_DSP/FilteringFunctions/arm_conv_fast_q31.c **** 
 192              	 .loc 1 176 0
 193 00cc 5968     	 ldr r1,[r3,#4]
 175:../Dave/Generated/CMSIS_DSP/FilteringFunctions/arm_conv_fast_q31.c ****                       ((q63_t) * px++ * (*py--))) >> 32);
 194              	 .loc 1 175 0
 195 00ce 52F8040C 	 ldr r0,[r2,#-4]
 196 00d2 4646     	 mov r6,r8
 197 00d4 C1FB0067 	 smlal r6,r7,r1,r0
 160:../Dave/Generated/CMSIS_DSP/FilteringFunctions/arm_conv_fast_q31.c ****     {
 198              	 .loc 1 160 0
 199 00d8 0499     	 ldr r1,[sp,#16]
 200 00da 0139     	 subs r1,r1,#1
 201 00dc 02F11002 	 add r2,r2,#16
 202              	.LVL27:
 175:../Dave/Generated/CMSIS_DSP/FilteringFunctions/arm_conv_fast_q31.c ****                       ((q63_t) * px++ * (*py--))) >> 32);
 203              	 .loc 1 175 0
 204 00e0 3846     	 mov r0,r7
 205              	.LVL28:
 206 00e2 A3F11003 	 sub r3,r3,#16
 207              	.LVL29:
 160:../Dave/Generated/CMSIS_DSP/FilteringFunctions/arm_conv_fast_q31.c ****     {
 208              	 .loc 1 160 0
 209 00e6 0491     	 str r1,[sp,#16]
 210 00e8 D6D1     	 bne .L6
 211 00ea 339F     	 ldr r7,[sp,#204]
 212 00ec 329B     	 ldr r3,[sp,#200]
 213              	.LVL30:
 214 00ee CDE92E89 	 strd r8,[sp,#184]
 215 00f2 DDE93489 	 ldrd r8,[sp,#208]
 216 00f6 03EB0712 	 add r2,r3,r7,lsl#4
 217              	.LVL31:
 218 00fa AEEB0713 	 sub r3,lr,r7,lsl#4
 219              	.LVL32:
 220              	.L5:
 221 00fe 0EF1040E 	 add lr,lr,#4
 222 0102 9BE7     	 b .L4
 223              	.LVL33:
 224              	.L77:
 225 0104 02F18043 	 add r3,r2,#1073741824
 226              	.LVL34:
 227 0108 629A     	 ldr r2,[sp,#392]
 228 010a 013B     	 subs r3,r3,#1
 229 010c 02EB8302 	 add r2,r2,r3,lsl#2
 230 0110 6292     	 str r2,[sp,#392]
 231              	.LVL35:
 232              	.L3:
 205:../Dave/Generated/CMSIS_DSP/FilteringFunctions/arm_conv_fast_q31.c **** 
 206:../Dave/Generated/CMSIS_DSP/FilteringFunctions/arm_conv_fast_q31.c ****     /* Decrement the loop counter */
 207:../Dave/Generated/CMSIS_DSP/FilteringFunctions/arm_conv_fast_q31.c ****     blockSize1--;
 208:../Dave/Generated/CMSIS_DSP/FilteringFunctions/arm_conv_fast_q31.c ****   }
 209:../Dave/Generated/CMSIS_DSP/FilteringFunctions/arm_conv_fast_q31.c **** 
 210:../Dave/Generated/CMSIS_DSP/FilteringFunctions/arm_conv_fast_q31.c ****   /* --------------------------
 211:../Dave/Generated/CMSIS_DSP/FilteringFunctions/arm_conv_fast_q31.c ****    * Initializations of stage2
 212:../Dave/Generated/CMSIS_DSP/FilteringFunctions/arm_conv_fast_q31.c ****    * ------------------------*/
 213:../Dave/Generated/CMSIS_DSP/FilteringFunctions/arm_conv_fast_q31.c **** 
 214:../Dave/Generated/CMSIS_DSP/FilteringFunctions/arm_conv_fast_q31.c ****   /* sum = x[0] * y[srcBLen-1] + x[1] * y[srcBLen-2] +...+ x[srcBLen-1] * y[0]
 215:../Dave/Generated/CMSIS_DSP/FilteringFunctions/arm_conv_fast_q31.c ****    * sum = x[1] * y[srcBLen-1] + x[2] * y[srcBLen-2] +...+ x[srcBLen] * y[0]
 216:../Dave/Generated/CMSIS_DSP/FilteringFunctions/arm_conv_fast_q31.c ****    * ....
 217:../Dave/Generated/CMSIS_DSP/FilteringFunctions/arm_conv_fast_q31.c ****    * sum = x[srcALen-srcBLen-2] * y[srcBLen-1] + x[srcALen] * y[srcBLen-2] +...+ x[srcALen-1] * y[0
 218:../Dave/Generated/CMSIS_DSP/FilteringFunctions/arm_conv_fast_q31.c ****    */
 219:../Dave/Generated/CMSIS_DSP/FilteringFunctions/arm_conv_fast_q31.c **** 
 220:../Dave/Generated/CMSIS_DSP/FilteringFunctions/arm_conv_fast_q31.c ****   /* Working pointer of inputA */
 221:../Dave/Generated/CMSIS_DSP/FilteringFunctions/arm_conv_fast_q31.c ****   px = pIn1;
 222:../Dave/Generated/CMSIS_DSP/FilteringFunctions/arm_conv_fast_q31.c **** 
 223:../Dave/Generated/CMSIS_DSP/FilteringFunctions/arm_conv_fast_q31.c ****   /* Working pointer of inputB */
 224:../Dave/Generated/CMSIS_DSP/FilteringFunctions/arm_conv_fast_q31.c ****   pSrc2 = pIn2 + (srcBLen - 1u);
 233              	 .loc 1 224 0
 234 0112 3B9A     	 ldr r2,[sp,#236]
 235 0114 02EB8303 	 add r3,r2,r3,lsl#2
 236 0118 3393     	 str r3,[sp,#204]
 237              	.LVL36:
 225:../Dave/Generated/CMSIS_DSP/FilteringFunctions/arm_conv_fast_q31.c ****   py = pSrc2;
 226:../Dave/Generated/CMSIS_DSP/FilteringFunctions/arm_conv_fast_q31.c **** 
 227:../Dave/Generated/CMSIS_DSP/FilteringFunctions/arm_conv_fast_q31.c ****   /* count is index by which the pointer pIn1 to be incremented */
 228:../Dave/Generated/CMSIS_DSP/FilteringFunctions/arm_conv_fast_q31.c ****   count = 0u;
 229:../Dave/Generated/CMSIS_DSP/FilteringFunctions/arm_conv_fast_q31.c **** 
 230:../Dave/Generated/CMSIS_DSP/FilteringFunctions/arm_conv_fast_q31.c ****   /* -------------------
 231:../Dave/Generated/CMSIS_DSP/FilteringFunctions/arm_conv_fast_q31.c ****    * Stage2 process
 232:../Dave/Generated/CMSIS_DSP/FilteringFunctions/arm_conv_fast_q31.c ****    * ------------------*/
 233:../Dave/Generated/CMSIS_DSP/FilteringFunctions/arm_conv_fast_q31.c **** 
 234:../Dave/Generated/CMSIS_DSP/FilteringFunctions/arm_conv_fast_q31.c ****   /* Stage2 depends on srcBLen as in this stage srcBLen number of MACS are performed.
 235:../Dave/Generated/CMSIS_DSP/FilteringFunctions/arm_conv_fast_q31.c ****    * So, to loop unroll over blockSize2,
 236:../Dave/Generated/CMSIS_DSP/FilteringFunctions/arm_conv_fast_q31.c ****    * srcBLen should be greater than or equal to 4 */
 237:../Dave/Generated/CMSIS_DSP/FilteringFunctions/arm_conv_fast_q31.c ****   if (srcBLen >= 4u)
 238              	 .loc 1 237 0
 239 011a 3A9B     	 ldr r3,[sp,#232]
 240              	.LVL37:
 241 011c 032B     	 cmp r3,#3
 238:../Dave/Generated/CMSIS_DSP/FilteringFunctions/arm_conv_fast_q31.c ****   {
 239:../Dave/Generated/CMSIS_DSP/FilteringFunctions/arm_conv_fast_q31.c ****     /* Loop unroll over blockSize2, by 4 */
 240:../Dave/Generated/CMSIS_DSP/FilteringFunctions/arm_conv_fast_q31.c ****     blkCnt = blockSize2 >> 2u;
 241:../Dave/Generated/CMSIS_DSP/FilteringFunctions/arm_conv_fast_q31.c **** 
 242:../Dave/Generated/CMSIS_DSP/FilteringFunctions/arm_conv_fast_q31.c ****     while (blkCnt > 0u)
 242              	 .loc 1 242 0
 243 011e 479B     	 ldr r3,[sp,#284]
 237:../Dave/Generated/CMSIS_DSP/FilteringFunctions/arm_conv_fast_q31.c ****   {
 244              	 .loc 1 237 0
 245 0120 40D8     	 bhi .L10
 246              	.LVL38:
 243:../Dave/Generated/CMSIS_DSP/FilteringFunctions/arm_conv_fast_q31.c ****     {
 244:../Dave/Generated/CMSIS_DSP/FilteringFunctions/arm_conv_fast_q31.c ****       /* Set all accumulators to zero */
 245:../Dave/Generated/CMSIS_DSP/FilteringFunctions/arm_conv_fast_q31.c ****       acc0 = 0;
 246:../Dave/Generated/CMSIS_DSP/FilteringFunctions/arm_conv_fast_q31.c ****       acc1 = 0;
 247:../Dave/Generated/CMSIS_DSP/FilteringFunctions/arm_conv_fast_q31.c ****       acc2 = 0;
 248:../Dave/Generated/CMSIS_DSP/FilteringFunctions/arm_conv_fast_q31.c ****       acc3 = 0;
 249:../Dave/Generated/CMSIS_DSP/FilteringFunctions/arm_conv_fast_q31.c **** 
 250:../Dave/Generated/CMSIS_DSP/FilteringFunctions/arm_conv_fast_q31.c ****       /* read x[0], x[1], x[2] samples */
 251:../Dave/Generated/CMSIS_DSP/FilteringFunctions/arm_conv_fast_q31.c ****       x0 = *(px++);
 252:../Dave/Generated/CMSIS_DSP/FilteringFunctions/arm_conv_fast_q31.c ****       x1 = *(px++);
 253:../Dave/Generated/CMSIS_DSP/FilteringFunctions/arm_conv_fast_q31.c ****       x2 = *(px++);
 254:../Dave/Generated/CMSIS_DSP/FilteringFunctions/arm_conv_fast_q31.c **** 
 255:../Dave/Generated/CMSIS_DSP/FilteringFunctions/arm_conv_fast_q31.c ****       /* Apply loop unrolling and compute 4 MACs simultaneously. */
 256:../Dave/Generated/CMSIS_DSP/FilteringFunctions/arm_conv_fast_q31.c ****       k = srcBLen >> 2u;
 257:../Dave/Generated/CMSIS_DSP/FilteringFunctions/arm_conv_fast_q31.c **** 
 258:../Dave/Generated/CMSIS_DSP/FilteringFunctions/arm_conv_fast_q31.c ****       /* First part of the processing with loop unrolling.  Compute 4 MACs at a time.
 259:../Dave/Generated/CMSIS_DSP/FilteringFunctions/arm_conv_fast_q31.c ****        ** a second loop below computes MACs for the remaining 1 to 3 samples. */
 260:../Dave/Generated/CMSIS_DSP/FilteringFunctions/arm_conv_fast_q31.c ****       do
 261:../Dave/Generated/CMSIS_DSP/FilteringFunctions/arm_conv_fast_q31.c ****       {
 262:../Dave/Generated/CMSIS_DSP/FilteringFunctions/arm_conv_fast_q31.c ****         /* Read y[srcBLen - 1] sample */
 263:../Dave/Generated/CMSIS_DSP/FilteringFunctions/arm_conv_fast_q31.c ****         c0 = *(py--);
 264:../Dave/Generated/CMSIS_DSP/FilteringFunctions/arm_conv_fast_q31.c **** 
 265:../Dave/Generated/CMSIS_DSP/FilteringFunctions/arm_conv_fast_q31.c ****         /* Read x[3] sample */
 266:../Dave/Generated/CMSIS_DSP/FilteringFunctions/arm_conv_fast_q31.c ****         x3 = *(px++);
 267:../Dave/Generated/CMSIS_DSP/FilteringFunctions/arm_conv_fast_q31.c **** 
 268:../Dave/Generated/CMSIS_DSP/FilteringFunctions/arm_conv_fast_q31.c ****         /* Perform the multiply-accumulates */
 269:../Dave/Generated/CMSIS_DSP/FilteringFunctions/arm_conv_fast_q31.c ****         /* acc0 +=  x[0] * y[srcBLen - 1] */
 270:../Dave/Generated/CMSIS_DSP/FilteringFunctions/arm_conv_fast_q31.c ****         acc0 = (q31_t) ((((q63_t) acc0 << 32) + ((q63_t) x0 * c0)) >> 32);
 271:../Dave/Generated/CMSIS_DSP/FilteringFunctions/arm_conv_fast_q31.c **** 
 272:../Dave/Generated/CMSIS_DSP/FilteringFunctions/arm_conv_fast_q31.c ****         /* acc1 +=  x[1] * y[srcBLen - 1] */
 273:../Dave/Generated/CMSIS_DSP/FilteringFunctions/arm_conv_fast_q31.c ****         acc1 = (q31_t) ((((q63_t) acc1 << 32) + ((q63_t) x1 * c0)) >> 32);
 274:../Dave/Generated/CMSIS_DSP/FilteringFunctions/arm_conv_fast_q31.c **** 
 275:../Dave/Generated/CMSIS_DSP/FilteringFunctions/arm_conv_fast_q31.c ****         /* acc2 +=  x[2] * y[srcBLen - 1] */
 276:../Dave/Generated/CMSIS_DSP/FilteringFunctions/arm_conv_fast_q31.c ****         acc2 = (q31_t) ((((q63_t) acc2 << 32) + ((q63_t) x2 * c0)) >> 32);
 277:../Dave/Generated/CMSIS_DSP/FilteringFunctions/arm_conv_fast_q31.c **** 
 278:../Dave/Generated/CMSIS_DSP/FilteringFunctions/arm_conv_fast_q31.c ****         /* acc3 +=  x[3] * y[srcBLen - 1] */
 279:../Dave/Generated/CMSIS_DSP/FilteringFunctions/arm_conv_fast_q31.c ****         acc3 = (q31_t) ((((q63_t) acc3 << 32) + ((q63_t) x3 * c0)) >> 32);
 280:../Dave/Generated/CMSIS_DSP/FilteringFunctions/arm_conv_fast_q31.c **** 
 281:../Dave/Generated/CMSIS_DSP/FilteringFunctions/arm_conv_fast_q31.c ****         /* Read y[srcBLen - 2] sample */
 282:../Dave/Generated/CMSIS_DSP/FilteringFunctions/arm_conv_fast_q31.c ****         c0 = *(py--);
 283:../Dave/Generated/CMSIS_DSP/FilteringFunctions/arm_conv_fast_q31.c **** 
 284:../Dave/Generated/CMSIS_DSP/FilteringFunctions/arm_conv_fast_q31.c ****         /* Read x[4] sample */
 285:../Dave/Generated/CMSIS_DSP/FilteringFunctions/arm_conv_fast_q31.c ****         x0 = *(px++);
 286:../Dave/Generated/CMSIS_DSP/FilteringFunctions/arm_conv_fast_q31.c **** 
 287:../Dave/Generated/CMSIS_DSP/FilteringFunctions/arm_conv_fast_q31.c ****         /* Perform the multiply-accumulate */
 288:../Dave/Generated/CMSIS_DSP/FilteringFunctions/arm_conv_fast_q31.c ****         /* acc0 +=  x[1] * y[srcBLen - 2] */
 289:../Dave/Generated/CMSIS_DSP/FilteringFunctions/arm_conv_fast_q31.c ****         acc0 = (q31_t) ((((q63_t) acc0 << 32) + ((q63_t) x1 * c0)) >> 32);
 290:../Dave/Generated/CMSIS_DSP/FilteringFunctions/arm_conv_fast_q31.c ****         /* acc1 +=  x[2] * y[srcBLen - 2] */
 291:../Dave/Generated/CMSIS_DSP/FilteringFunctions/arm_conv_fast_q31.c ****         acc1 = (q31_t) ((((q63_t) acc1 << 32) + ((q63_t) x2 * c0)) >> 32);
 292:../Dave/Generated/CMSIS_DSP/FilteringFunctions/arm_conv_fast_q31.c ****         /* acc2 +=  x[3] * y[srcBLen - 2] */
 293:../Dave/Generated/CMSIS_DSP/FilteringFunctions/arm_conv_fast_q31.c ****         acc2 = (q31_t) ((((q63_t) acc2 << 32) + ((q63_t) x3 * c0)) >> 32);
 294:../Dave/Generated/CMSIS_DSP/FilteringFunctions/arm_conv_fast_q31.c ****         /* acc3 +=  x[4] * y[srcBLen - 2] */
 295:../Dave/Generated/CMSIS_DSP/FilteringFunctions/arm_conv_fast_q31.c ****         acc3 = (q31_t) ((((q63_t) acc3 << 32) + ((q63_t) x0 * c0)) >> 32);
 296:../Dave/Generated/CMSIS_DSP/FilteringFunctions/arm_conv_fast_q31.c **** 
 297:../Dave/Generated/CMSIS_DSP/FilteringFunctions/arm_conv_fast_q31.c ****         /* Read y[srcBLen - 3] sample */
 298:../Dave/Generated/CMSIS_DSP/FilteringFunctions/arm_conv_fast_q31.c ****         c0 = *(py--);
 299:../Dave/Generated/CMSIS_DSP/FilteringFunctions/arm_conv_fast_q31.c **** 
 300:../Dave/Generated/CMSIS_DSP/FilteringFunctions/arm_conv_fast_q31.c ****         /* Read x[5] sample */
 301:../Dave/Generated/CMSIS_DSP/FilteringFunctions/arm_conv_fast_q31.c ****         x1 = *(px++);
 302:../Dave/Generated/CMSIS_DSP/FilteringFunctions/arm_conv_fast_q31.c **** 
 303:../Dave/Generated/CMSIS_DSP/FilteringFunctions/arm_conv_fast_q31.c ****         /* Perform the multiply-accumulates */
 304:../Dave/Generated/CMSIS_DSP/FilteringFunctions/arm_conv_fast_q31.c ****         /* acc0 +=  x[2] * y[srcBLen - 3] */
 305:../Dave/Generated/CMSIS_DSP/FilteringFunctions/arm_conv_fast_q31.c ****         acc0 = (q31_t) ((((q63_t) acc0 << 32) + ((q63_t) x2 * c0)) >> 32);
 306:../Dave/Generated/CMSIS_DSP/FilteringFunctions/arm_conv_fast_q31.c ****         /* acc1 +=  x[3] * y[srcBLen - 3] */
 307:../Dave/Generated/CMSIS_DSP/FilteringFunctions/arm_conv_fast_q31.c ****         acc1 = (q31_t) ((((q63_t) acc1 << 32) + ((q63_t) x3 * c0)) >> 32);
 308:../Dave/Generated/CMSIS_DSP/FilteringFunctions/arm_conv_fast_q31.c ****         /* acc2 +=  x[4] * y[srcBLen - 3] */
 309:../Dave/Generated/CMSIS_DSP/FilteringFunctions/arm_conv_fast_q31.c ****         acc2 = (q31_t) ((((q63_t) acc2 << 32) + ((q63_t) x0 * c0)) >> 32);
 310:../Dave/Generated/CMSIS_DSP/FilteringFunctions/arm_conv_fast_q31.c ****         /* acc3 +=  x[5] * y[srcBLen - 3] */
 311:../Dave/Generated/CMSIS_DSP/FilteringFunctions/arm_conv_fast_q31.c ****         acc3 = (q31_t) ((((q63_t) acc3 << 32) + ((q63_t) x1 * c0)) >> 32);
 312:../Dave/Generated/CMSIS_DSP/FilteringFunctions/arm_conv_fast_q31.c **** 
 313:../Dave/Generated/CMSIS_DSP/FilteringFunctions/arm_conv_fast_q31.c ****         /* Read y[srcBLen - 4] sample */
 314:../Dave/Generated/CMSIS_DSP/FilteringFunctions/arm_conv_fast_q31.c ****         c0 = *(py--);
 315:../Dave/Generated/CMSIS_DSP/FilteringFunctions/arm_conv_fast_q31.c **** 
 316:../Dave/Generated/CMSIS_DSP/FilteringFunctions/arm_conv_fast_q31.c ****         /* Read x[6] sample */
 317:../Dave/Generated/CMSIS_DSP/FilteringFunctions/arm_conv_fast_q31.c ****         x2 = *(px++);
 318:../Dave/Generated/CMSIS_DSP/FilteringFunctions/arm_conv_fast_q31.c **** 
 319:../Dave/Generated/CMSIS_DSP/FilteringFunctions/arm_conv_fast_q31.c ****         /* Perform the multiply-accumulates */
 320:../Dave/Generated/CMSIS_DSP/FilteringFunctions/arm_conv_fast_q31.c ****         /* acc0 +=  x[3] * y[srcBLen - 4] */
 321:../Dave/Generated/CMSIS_DSP/FilteringFunctions/arm_conv_fast_q31.c ****         acc0 = (q31_t) ((((q63_t) acc0 << 32) + ((q63_t) x3 * c0)) >> 32);
 322:../Dave/Generated/CMSIS_DSP/FilteringFunctions/arm_conv_fast_q31.c ****         /* acc1 +=  x[4] * y[srcBLen - 4] */
 323:../Dave/Generated/CMSIS_DSP/FilteringFunctions/arm_conv_fast_q31.c ****         acc1 = (q31_t) ((((q63_t) acc1 << 32) + ((q63_t) x0 * c0)) >> 32);
 324:../Dave/Generated/CMSIS_DSP/FilteringFunctions/arm_conv_fast_q31.c ****         /* acc2 +=  x[5] * y[srcBLen - 4] */
 325:../Dave/Generated/CMSIS_DSP/FilteringFunctions/arm_conv_fast_q31.c ****         acc2 = (q31_t) ((((q63_t) acc2 << 32) + ((q63_t) x1 * c0)) >> 32);
 326:../Dave/Generated/CMSIS_DSP/FilteringFunctions/arm_conv_fast_q31.c ****         /* acc3 +=  x[6] * y[srcBLen - 4] */
 327:../Dave/Generated/CMSIS_DSP/FilteringFunctions/arm_conv_fast_q31.c ****         acc3 = (q31_t) ((((q63_t) acc3 << 32) + ((q63_t) x2 * c0)) >> 32);
 328:../Dave/Generated/CMSIS_DSP/FilteringFunctions/arm_conv_fast_q31.c **** 
 329:../Dave/Generated/CMSIS_DSP/FilteringFunctions/arm_conv_fast_q31.c **** 
 330:../Dave/Generated/CMSIS_DSP/FilteringFunctions/arm_conv_fast_q31.c ****       } while (--k);
 331:../Dave/Generated/CMSIS_DSP/FilteringFunctions/arm_conv_fast_q31.c **** 
 332:../Dave/Generated/CMSIS_DSP/FilteringFunctions/arm_conv_fast_q31.c ****       /* If the srcBLen is not a multiple of 4, compute any remaining MACs here.
 333:../Dave/Generated/CMSIS_DSP/FilteringFunctions/arm_conv_fast_q31.c ****        ** No loop unrolling is used. */
 334:../Dave/Generated/CMSIS_DSP/FilteringFunctions/arm_conv_fast_q31.c ****       k = srcBLen % 0x4u;
 335:../Dave/Generated/CMSIS_DSP/FilteringFunctions/arm_conv_fast_q31.c **** 
 336:../Dave/Generated/CMSIS_DSP/FilteringFunctions/arm_conv_fast_q31.c ****       while (k > 0u)
 337:../Dave/Generated/CMSIS_DSP/FilteringFunctions/arm_conv_fast_q31.c ****       {
 338:../Dave/Generated/CMSIS_DSP/FilteringFunctions/arm_conv_fast_q31.c ****         /* Read y[srcBLen - 5] sample */
 339:../Dave/Generated/CMSIS_DSP/FilteringFunctions/arm_conv_fast_q31.c ****         c0 = *(py--);
 340:../Dave/Generated/CMSIS_DSP/FilteringFunctions/arm_conv_fast_q31.c **** 
 341:../Dave/Generated/CMSIS_DSP/FilteringFunctions/arm_conv_fast_q31.c ****         /* Read x[7] sample */
 342:../Dave/Generated/CMSIS_DSP/FilteringFunctions/arm_conv_fast_q31.c ****         x3 = *(px++);
 343:../Dave/Generated/CMSIS_DSP/FilteringFunctions/arm_conv_fast_q31.c **** 
 344:../Dave/Generated/CMSIS_DSP/FilteringFunctions/arm_conv_fast_q31.c ****         /* Perform the multiply-accumulates */
 345:../Dave/Generated/CMSIS_DSP/FilteringFunctions/arm_conv_fast_q31.c ****         /* acc0 +=  x[4] * y[srcBLen - 5] */
 346:../Dave/Generated/CMSIS_DSP/FilteringFunctions/arm_conv_fast_q31.c ****         acc0 = (q31_t) ((((q63_t) acc0 << 32) + ((q63_t) x0 * c0)) >> 32);
 347:../Dave/Generated/CMSIS_DSP/FilteringFunctions/arm_conv_fast_q31.c ****         /* acc1 +=  x[5] * y[srcBLen - 5] */
 348:../Dave/Generated/CMSIS_DSP/FilteringFunctions/arm_conv_fast_q31.c ****         acc1 = (q31_t) ((((q63_t) acc1 << 32) + ((q63_t) x1 * c0)) >> 32);
 349:../Dave/Generated/CMSIS_DSP/FilteringFunctions/arm_conv_fast_q31.c ****         /* acc2 +=  x[6] * y[srcBLen - 5] */
 350:../Dave/Generated/CMSIS_DSP/FilteringFunctions/arm_conv_fast_q31.c ****         acc2 = (q31_t) ((((q63_t) acc2 << 32) + ((q63_t) x2 * c0)) >> 32);
 351:../Dave/Generated/CMSIS_DSP/FilteringFunctions/arm_conv_fast_q31.c ****         /* acc3 +=  x[7] * y[srcBLen - 5] */
 352:../Dave/Generated/CMSIS_DSP/FilteringFunctions/arm_conv_fast_q31.c ****         acc3 = (q31_t) ((((q63_t) acc3 << 32) + ((q63_t) x3 * c0)) >> 32);
 353:../Dave/Generated/CMSIS_DSP/FilteringFunctions/arm_conv_fast_q31.c **** 
 354:../Dave/Generated/CMSIS_DSP/FilteringFunctions/arm_conv_fast_q31.c ****         /* Reuse the present samples for the next MAC */
 355:../Dave/Generated/CMSIS_DSP/FilteringFunctions/arm_conv_fast_q31.c ****         x0 = x1;
 356:../Dave/Generated/CMSIS_DSP/FilteringFunctions/arm_conv_fast_q31.c ****         x1 = x2;
 357:../Dave/Generated/CMSIS_DSP/FilteringFunctions/arm_conv_fast_q31.c ****         x2 = x3;
 358:../Dave/Generated/CMSIS_DSP/FilteringFunctions/arm_conv_fast_q31.c **** 
 359:../Dave/Generated/CMSIS_DSP/FilteringFunctions/arm_conv_fast_q31.c ****         /* Decrement the loop counter */
 360:../Dave/Generated/CMSIS_DSP/FilteringFunctions/arm_conv_fast_q31.c ****         k--;
 361:../Dave/Generated/CMSIS_DSP/FilteringFunctions/arm_conv_fast_q31.c ****       }
 362:../Dave/Generated/CMSIS_DSP/FilteringFunctions/arm_conv_fast_q31.c **** 
 363:../Dave/Generated/CMSIS_DSP/FilteringFunctions/arm_conv_fast_q31.c ****       /* Store the results in the accumulators in the destination buffer. */
 364:../Dave/Generated/CMSIS_DSP/FilteringFunctions/arm_conv_fast_q31.c ****       *pOut++ = (q31_t) (acc0 << 1);
 365:../Dave/Generated/CMSIS_DSP/FilteringFunctions/arm_conv_fast_q31.c ****       *pOut++ = (q31_t) (acc1 << 1);
 366:../Dave/Generated/CMSIS_DSP/FilteringFunctions/arm_conv_fast_q31.c ****       *pOut++ = (q31_t) (acc2 << 1);
 367:../Dave/Generated/CMSIS_DSP/FilteringFunctions/arm_conv_fast_q31.c ****       *pOut++ = (q31_t) (acc3 << 1);
 368:../Dave/Generated/CMSIS_DSP/FilteringFunctions/arm_conv_fast_q31.c **** 
 369:../Dave/Generated/CMSIS_DSP/FilteringFunctions/arm_conv_fast_q31.c ****       /* Increment the pointer pIn1 index, count by 4 */
 370:../Dave/Generated/CMSIS_DSP/FilteringFunctions/arm_conv_fast_q31.c ****       count += 4u;
 371:../Dave/Generated/CMSIS_DSP/FilteringFunctions/arm_conv_fast_q31.c **** 
 372:../Dave/Generated/CMSIS_DSP/FilteringFunctions/arm_conv_fast_q31.c ****       /* Update the inputA and inputB pointers for next MAC calculation */
 373:../Dave/Generated/CMSIS_DSP/FilteringFunctions/arm_conv_fast_q31.c ****       px = pIn1 + count;
 374:../Dave/Generated/CMSIS_DSP/FilteringFunctions/arm_conv_fast_q31.c ****       py = pSrc2;
 375:../Dave/Generated/CMSIS_DSP/FilteringFunctions/arm_conv_fast_q31.c **** 
 376:../Dave/Generated/CMSIS_DSP/FilteringFunctions/arm_conv_fast_q31.c ****       /* Decrement the loop counter */
 377:../Dave/Generated/CMSIS_DSP/FilteringFunctions/arm_conv_fast_q31.c ****       blkCnt--;
 378:../Dave/Generated/CMSIS_DSP/FilteringFunctions/arm_conv_fast_q31.c ****     }
 379:../Dave/Generated/CMSIS_DSP/FilteringFunctions/arm_conv_fast_q31.c **** 
 380:../Dave/Generated/CMSIS_DSP/FilteringFunctions/arm_conv_fast_q31.c ****     /* If the blockSize2 is not a multiple of 4, compute any remaining output samples here.
 381:../Dave/Generated/CMSIS_DSP/FilteringFunctions/arm_conv_fast_q31.c ****      ** No loop unrolling is used. */
 382:../Dave/Generated/CMSIS_DSP/FilteringFunctions/arm_conv_fast_q31.c ****     blkCnt = blockSize2 % 0x4u;
 383:../Dave/Generated/CMSIS_DSP/FilteringFunctions/arm_conv_fast_q31.c **** 
 384:../Dave/Generated/CMSIS_DSP/FilteringFunctions/arm_conv_fast_q31.c ****     while (blkCnt > 0u)
 385:../Dave/Generated/CMSIS_DSP/FilteringFunctions/arm_conv_fast_q31.c ****     {
 386:../Dave/Generated/CMSIS_DSP/FilteringFunctions/arm_conv_fast_q31.c ****       /* Accumulator is made zero for every iteration */
 387:../Dave/Generated/CMSIS_DSP/FilteringFunctions/arm_conv_fast_q31.c ****       sum = 0;
 388:../Dave/Generated/CMSIS_DSP/FilteringFunctions/arm_conv_fast_q31.c **** 
 389:../Dave/Generated/CMSIS_DSP/FilteringFunctions/arm_conv_fast_q31.c ****       /* Apply loop unrolling and compute 4 MACs simultaneously. */
 390:../Dave/Generated/CMSIS_DSP/FilteringFunctions/arm_conv_fast_q31.c ****       k = srcBLen >> 2u;
 391:../Dave/Generated/CMSIS_DSP/FilteringFunctions/arm_conv_fast_q31.c **** 
 392:../Dave/Generated/CMSIS_DSP/FilteringFunctions/arm_conv_fast_q31.c ****       /* First part of the processing with loop unrolling.  Compute 4 MACs at a time.
 393:../Dave/Generated/CMSIS_DSP/FilteringFunctions/arm_conv_fast_q31.c ****        ** a second loop below computes MACs for the remaining 1 to 3 samples. */
 394:../Dave/Generated/CMSIS_DSP/FilteringFunctions/arm_conv_fast_q31.c ****       while (k > 0u)
 395:../Dave/Generated/CMSIS_DSP/FilteringFunctions/arm_conv_fast_q31.c ****       {
 396:../Dave/Generated/CMSIS_DSP/FilteringFunctions/arm_conv_fast_q31.c ****         /* Perform the multiply-accumulates */
 397:../Dave/Generated/CMSIS_DSP/FilteringFunctions/arm_conv_fast_q31.c ****         sum = (q31_t) ((((q63_t) sum << 32) +
 398:../Dave/Generated/CMSIS_DSP/FilteringFunctions/arm_conv_fast_q31.c ****                         ((q63_t) * px++ * (*py--))) >> 32);
 399:../Dave/Generated/CMSIS_DSP/FilteringFunctions/arm_conv_fast_q31.c ****         sum = (q31_t) ((((q63_t) sum << 32) +
 400:../Dave/Generated/CMSIS_DSP/FilteringFunctions/arm_conv_fast_q31.c ****                         ((q63_t) * px++ * (*py--))) >> 32);
 401:../Dave/Generated/CMSIS_DSP/FilteringFunctions/arm_conv_fast_q31.c ****         sum = (q31_t) ((((q63_t) sum << 32) +
 402:../Dave/Generated/CMSIS_DSP/FilteringFunctions/arm_conv_fast_q31.c ****                         ((q63_t) * px++ * (*py--))) >> 32);
 403:../Dave/Generated/CMSIS_DSP/FilteringFunctions/arm_conv_fast_q31.c ****         sum = (q31_t) ((((q63_t) sum << 32) +
 404:../Dave/Generated/CMSIS_DSP/FilteringFunctions/arm_conv_fast_q31.c ****                         ((q63_t) * px++ * (*py--))) >> 32);
 405:../Dave/Generated/CMSIS_DSP/FilteringFunctions/arm_conv_fast_q31.c **** 
 406:../Dave/Generated/CMSIS_DSP/FilteringFunctions/arm_conv_fast_q31.c ****         /* Decrement the loop counter */
 407:../Dave/Generated/CMSIS_DSP/FilteringFunctions/arm_conv_fast_q31.c ****         k--;
 408:../Dave/Generated/CMSIS_DSP/FilteringFunctions/arm_conv_fast_q31.c ****       }
 409:../Dave/Generated/CMSIS_DSP/FilteringFunctions/arm_conv_fast_q31.c **** 
 410:../Dave/Generated/CMSIS_DSP/FilteringFunctions/arm_conv_fast_q31.c ****       /* If the srcBLen is not a multiple of 4, compute any remaining MACs here.
 411:../Dave/Generated/CMSIS_DSP/FilteringFunctions/arm_conv_fast_q31.c ****        ** No loop unrolling is used. */
 412:../Dave/Generated/CMSIS_DSP/FilteringFunctions/arm_conv_fast_q31.c ****       k = srcBLen % 0x4u;
 413:../Dave/Generated/CMSIS_DSP/FilteringFunctions/arm_conv_fast_q31.c **** 
 414:../Dave/Generated/CMSIS_DSP/FilteringFunctions/arm_conv_fast_q31.c ****       while (k > 0u)
 415:../Dave/Generated/CMSIS_DSP/FilteringFunctions/arm_conv_fast_q31.c ****       {
 416:../Dave/Generated/CMSIS_DSP/FilteringFunctions/arm_conv_fast_q31.c ****         /* Perform the multiply-accumulate */
 417:../Dave/Generated/CMSIS_DSP/FilteringFunctions/arm_conv_fast_q31.c ****         sum = (q31_t) ((((q63_t) sum << 32) +
 418:../Dave/Generated/CMSIS_DSP/FilteringFunctions/arm_conv_fast_q31.c ****                         ((q63_t) * px++ * (*py--))) >> 32);
 419:../Dave/Generated/CMSIS_DSP/FilteringFunctions/arm_conv_fast_q31.c **** 
 420:../Dave/Generated/CMSIS_DSP/FilteringFunctions/arm_conv_fast_q31.c ****         /* Decrement the loop counter */
 421:../Dave/Generated/CMSIS_DSP/FilteringFunctions/arm_conv_fast_q31.c ****         k--;
 422:../Dave/Generated/CMSIS_DSP/FilteringFunctions/arm_conv_fast_q31.c ****       }
 423:../Dave/Generated/CMSIS_DSP/FilteringFunctions/arm_conv_fast_q31.c **** 
 424:../Dave/Generated/CMSIS_DSP/FilteringFunctions/arm_conv_fast_q31.c ****       /* Store the result in the accumulator in the destination buffer. */
 425:../Dave/Generated/CMSIS_DSP/FilteringFunctions/arm_conv_fast_q31.c ****       *pOut++ = sum << 1;
 426:../Dave/Generated/CMSIS_DSP/FilteringFunctions/arm_conv_fast_q31.c **** 
 427:../Dave/Generated/CMSIS_DSP/FilteringFunctions/arm_conv_fast_q31.c ****       /* Increment the MAC count */
 428:../Dave/Generated/CMSIS_DSP/FilteringFunctions/arm_conv_fast_q31.c ****       count++;
 429:../Dave/Generated/CMSIS_DSP/FilteringFunctions/arm_conv_fast_q31.c **** 
 430:../Dave/Generated/CMSIS_DSP/FilteringFunctions/arm_conv_fast_q31.c ****       /* Update the inputA and inputB pointers for next MAC calculation */
 431:../Dave/Generated/CMSIS_DSP/FilteringFunctions/arm_conv_fast_q31.c ****       px = pIn1 + count;
 432:../Dave/Generated/CMSIS_DSP/FilteringFunctions/arm_conv_fast_q31.c ****       py = pSrc2;
 433:../Dave/Generated/CMSIS_DSP/FilteringFunctions/arm_conv_fast_q31.c **** 
 434:../Dave/Generated/CMSIS_DSP/FilteringFunctions/arm_conv_fast_q31.c ****       /* Decrement the loop counter */
 435:../Dave/Generated/CMSIS_DSP/FilteringFunctions/arm_conv_fast_q31.c ****       blkCnt--;
 436:../Dave/Generated/CMSIS_DSP/FilteringFunctions/arm_conv_fast_q31.c ****     }
 437:../Dave/Generated/CMSIS_DSP/FilteringFunctions/arm_conv_fast_q31.c ****   }
 438:../Dave/Generated/CMSIS_DSP/FilteringFunctions/arm_conv_fast_q31.c ****   else
 439:../Dave/Generated/CMSIS_DSP/FilteringFunctions/arm_conv_fast_q31.c ****   {
 440:../Dave/Generated/CMSIS_DSP/FilteringFunctions/arm_conv_fast_q31.c ****     /* If the srcBLen is not a multiple of 4,
 441:../Dave/Generated/CMSIS_DSP/FilteringFunctions/arm_conv_fast_q31.c ****      * the blockSize2 loop cannot be unrolled by 4 */
 442:../Dave/Generated/CMSIS_DSP/FilteringFunctions/arm_conv_fast_q31.c ****     blkCnt = blockSize2;
 443:../Dave/Generated/CMSIS_DSP/FilteringFunctions/arm_conv_fast_q31.c **** 
 444:../Dave/Generated/CMSIS_DSP/FilteringFunctions/arm_conv_fast_q31.c ****     while (blkCnt > 0u)
 247              	 .loc 1 444 0
 248 0122 002B     	 cmp r3,#0
 249 0124 00F07582 	 beq .L39
 250 0128 3A9A     	 ldr r2,[sp,#232]
 251 012a 002A     	 cmp r2,#0
 252 012c 00F07D82 	 beq .L12
 253 0130 022A     	 cmp r2,#2
 254 0132 00F09D82 	 beq .L13
 255 0136 319A     	 ldr r2,[sp,#196]
 256 0138 002A     	 cmp r2,#0
 257 013a 00F08582 	 beq .L14
 258 013e 9E00     	 lsls r6,r3,#2
 259 0140 629B     	 ldr r3,[sp,#392]
 260              	.LVL39:
 261 0142 629F     	 ldr r7,[sp,#392]
 262 0144 03EB060E 	 add lr,r3,r6
 263 0148 329B     	 ldr r3,[sp,#200]
 264 014a B146     	 mov r9,r6
 265 014c 339E     	 ldr r6,[sp,#204]
 266 014e 181D     	 adds r0,r3,#4
 267 0150 1946     	 mov r1,r3
 268              	.LVL40:
 269              	.L15:
 445:../Dave/Generated/CMSIS_DSP/FilteringFunctions/arm_conv_fast_q31.c ****     {
 446:../Dave/Generated/CMSIS_DSP/FilteringFunctions/arm_conv_fast_q31.c ****       /* Accumulator is made zero for every iteration */
 447:../Dave/Generated/CMSIS_DSP/FilteringFunctions/arm_conv_fast_q31.c ****       sum = 0;
 448:../Dave/Generated/CMSIS_DSP/FilteringFunctions/arm_conv_fast_q31.c **** 
 449:../Dave/Generated/CMSIS_DSP/FilteringFunctions/arm_conv_fast_q31.c ****       /* srcBLen number of MACS should be performed */
 450:../Dave/Generated/CMSIS_DSP/FilteringFunctions/arm_conv_fast_q31.c ****       k = srcBLen;
 451:../Dave/Generated/CMSIS_DSP/FilteringFunctions/arm_conv_fast_q31.c **** 
 452:../Dave/Generated/CMSIS_DSP/FilteringFunctions/arm_conv_fast_q31.c ****       while (k > 0u)
 453:../Dave/Generated/CMSIS_DSP/FilteringFunctions/arm_conv_fast_q31.c ****       {
 454:../Dave/Generated/CMSIS_DSP/FilteringFunctions/arm_conv_fast_q31.c ****         /* Perform the multiply-accumulate */
 455:../Dave/Generated/CMSIS_DSP/FilteringFunctions/arm_conv_fast_q31.c ****         sum = (q31_t) ((((q63_t) sum << 32) +
 456:../Dave/Generated/CMSIS_DSP/FilteringFunctions/arm_conv_fast_q31.c ****                         ((q63_t) * px++ * (*py--))) >> 32);
 270              	 .loc 1 456 0
 271 0152 0D68     	 ldr r5,[r1]
 272              	.LVL41:
 273 0154 3468     	 ldr r4,[r6]
 274              	.LVL42:
 275 0156 51F8048F 	 ldr r8,[r1,#4]!
 276              	.LVL43:
 277 015a 50F804CF 	 ldr ip,[r0,#4]!
 278 015e 85FB0445 	 smull r4,r5,r5,r4
 279              	.LVL44:
 455:../Dave/Generated/CMSIS_DSP/FilteringFunctions/arm_conv_fast_q31.c ****                         ((q63_t) * px++ * (*py--))) >> 32);
 280              	 .loc 1 455 0
 281 0162 0022     	 movs r2,#0
 282              	 .loc 1 456 0
 283 0164 56F8044C 	 ldr r4,[r6,#-4]
 284              	.LVL45:
 455:../Dave/Generated/CMSIS_DSP/FilteringFunctions/arm_conv_fast_q31.c ****                         ((q63_t) * px++ * (*py--))) >> 32);
 285              	 .loc 1 455 0
 286 0168 3892     	 str r2,[sp,#224]
 287 016a AB46     	 mov fp,r5
 288 016c 9246     	 mov r10,r2
 289 016e C4FB08AB 	 smlal r10,fp,r4,r8
 290 0172 CDF8E4B0 	 str fp,[sp,#228]
 291 0176 DDE938AB 	 ldrd r10,[sp,#224]
 292              	 .loc 1 456 0
 293 017a 56F8084C 	 ldr r4,[r6,#-8]
 294              	.LVL46:
 455:../Dave/Generated/CMSIS_DSP/FilteringFunctions/arm_conv_fast_q31.c ****                         ((q63_t) * px++ * (*py--))) >> 32);
 295              	 .loc 1 455 0
 296 017e C4FB0CAB 	 smlal r10,fp,r4,ip
 297 0182 5D46     	 mov r5,fp
 298              	.LVL47:
 299 0184 6C00     	 lsls r4,r5,#1
 457:../Dave/Generated/CMSIS_DSP/FilteringFunctions/arm_conv_fast_q31.c **** 
 458:../Dave/Generated/CMSIS_DSP/FilteringFunctions/arm_conv_fast_q31.c ****         /* Decrement the loop counter */
 459:../Dave/Generated/CMSIS_DSP/FilteringFunctions/arm_conv_fast_q31.c ****         k--;
 460:../Dave/Generated/CMSIS_DSP/FilteringFunctions/arm_conv_fast_q31.c ****       }
 461:../Dave/Generated/CMSIS_DSP/FilteringFunctions/arm_conv_fast_q31.c **** 
 462:../Dave/Generated/CMSIS_DSP/FilteringFunctions/arm_conv_fast_q31.c ****       /* Store the result in the accumulator in the destination buffer. */
 463:../Dave/Generated/CMSIS_DSP/FilteringFunctions/arm_conv_fast_q31.c ****       *pOut++ = sum << 1;
 300              	 .loc 1 463 0
 301 0186 47F8044B 	 str r4,[r7],#4
 302              	.LVL48:
 444:../Dave/Generated/CMSIS_DSP/FilteringFunctions/arm_conv_fast_q31.c ****     {
 303              	 .loc 1 444 0
 304 018a 7745     	 cmp r7,lr
 305 018c E1D1     	 bne .L15
 464:../Dave/Generated/CMSIS_DSP/FilteringFunctions/arm_conv_fast_q31.c **** 
 465:../Dave/Generated/CMSIS_DSP/FilteringFunctions/arm_conv_fast_q31.c ****       /* Increment the MAC count */
 466:../Dave/Generated/CMSIS_DSP/FilteringFunctions/arm_conv_fast_q31.c ****       count++;
 467:../Dave/Generated/CMSIS_DSP/FilteringFunctions/arm_conv_fast_q31.c **** 
 468:../Dave/Generated/CMSIS_DSP/FilteringFunctions/arm_conv_fast_q31.c ****       /* Update the inputA and inputB pointers for next MAC calculation */
 469:../Dave/Generated/CMSIS_DSP/FilteringFunctions/arm_conv_fast_q31.c ****       px = pIn1 + count;
 470:../Dave/Generated/CMSIS_DSP/FilteringFunctions/arm_conv_fast_q31.c ****       py = pSrc2;
 471:../Dave/Generated/CMSIS_DSP/FilteringFunctions/arm_conv_fast_q31.c **** 
 472:../Dave/Generated/CMSIS_DSP/FilteringFunctions/arm_conv_fast_q31.c ****       /* Decrement the loop counter */
 473:../Dave/Generated/CMSIS_DSP/FilteringFunctions/arm_conv_fast_q31.c ****       blkCnt--;
 474:../Dave/Generated/CMSIS_DSP/FilteringFunctions/arm_conv_fast_q31.c ****     }
 475:../Dave/Generated/CMSIS_DSP/FilteringFunctions/arm_conv_fast_q31.c ****   }
 476:../Dave/Generated/CMSIS_DSP/FilteringFunctions/arm_conv_fast_q31.c **** 
 477:../Dave/Generated/CMSIS_DSP/FilteringFunctions/arm_conv_fast_q31.c **** 
 478:../Dave/Generated/CMSIS_DSP/FilteringFunctions/arm_conv_fast_q31.c ****   /* --------------------------
 479:../Dave/Generated/CMSIS_DSP/FilteringFunctions/arm_conv_fast_q31.c ****    * Initializations of stage3
 480:../Dave/Generated/CMSIS_DSP/FilteringFunctions/arm_conv_fast_q31.c ****    * -------------------------*/
 481:../Dave/Generated/CMSIS_DSP/FilteringFunctions/arm_conv_fast_q31.c **** 
 482:../Dave/Generated/CMSIS_DSP/FilteringFunctions/arm_conv_fast_q31.c ****   /* sum += x[srcALen-srcBLen+1] * y[srcBLen-1] + x[srcALen-srcBLen+2] * y[srcBLen-2] +...+ x[srcAL
 483:../Dave/Generated/CMSIS_DSP/FilteringFunctions/arm_conv_fast_q31.c ****    * sum += x[srcALen-srcBLen+2] * y[srcBLen-1] + x[srcALen-srcBLen+3] * y[srcBLen-2] +...+ x[srcAL
 484:../Dave/Generated/CMSIS_DSP/FilteringFunctions/arm_conv_fast_q31.c ****    * ....
 485:../Dave/Generated/CMSIS_DSP/FilteringFunctions/arm_conv_fast_q31.c ****    * sum +=  x[srcALen-2] * y[srcBLen-1] + x[srcALen-1] * y[srcBLen-2]
 486:../Dave/Generated/CMSIS_DSP/FilteringFunctions/arm_conv_fast_q31.c ****    * sum +=  x[srcALen-1] * y[srcBLen-1]
 487:../Dave/Generated/CMSIS_DSP/FilteringFunctions/arm_conv_fast_q31.c ****    */
 488:../Dave/Generated/CMSIS_DSP/FilteringFunctions/arm_conv_fast_q31.c **** 
 489:../Dave/Generated/CMSIS_DSP/FilteringFunctions/arm_conv_fast_q31.c ****   /* In this stage the MAC operations are decreased by 1 for every iteration.
 490:../Dave/Generated/CMSIS_DSP/FilteringFunctions/arm_conv_fast_q31.c ****      The blockSize3 variable holds the number of MAC operations performed */
 491:../Dave/Generated/CMSIS_DSP/FilteringFunctions/arm_conv_fast_q31.c **** 
 492:../Dave/Generated/CMSIS_DSP/FilteringFunctions/arm_conv_fast_q31.c ****   /* Working pointer of inputA */
 493:../Dave/Generated/CMSIS_DSP/FilteringFunctions/arm_conv_fast_q31.c ****   pSrc1 = (pIn1 + srcALen) - (srcBLen - 1u);
 306              	 .loc 1 493 0
 307 018e 329B     	 ldr r3,[sp,#200]
 308 0190 4E46     	 mov r6,r9
 309              	.LVL49:
 310 0192 3344     	 add r3,r3,r6
 311 0194 1E46     	 mov r6,r3
 312              	.LVL50:
 494:../Dave/Generated/CMSIS_DSP/FilteringFunctions/arm_conv_fast_q31.c ****   px = pSrc1;
 495:../Dave/Generated/CMSIS_DSP/FilteringFunctions/arm_conv_fast_q31.c **** 
 496:../Dave/Generated/CMSIS_DSP/FilteringFunctions/arm_conv_fast_q31.c ****   /* Working pointer of inputB */
 497:../Dave/Generated/CMSIS_DSP/FilteringFunctions/arm_conv_fast_q31.c ****   pSrc2 = pIn2 + (srcBLen - 1u);
 498:../Dave/Generated/CMSIS_DSP/FilteringFunctions/arm_conv_fast_q31.c ****   py = pSrc2;
 499:../Dave/Generated/CMSIS_DSP/FilteringFunctions/arm_conv_fast_q31.c **** 
 500:../Dave/Generated/CMSIS_DSP/FilteringFunctions/arm_conv_fast_q31.c ****   /* -------------------
 501:../Dave/Generated/CMSIS_DSP/FilteringFunctions/arm_conv_fast_q31.c ****    * Stage3 process
 502:../Dave/Generated/CMSIS_DSP/FilteringFunctions/arm_conv_fast_q31.c ****    * ------------------*/
 503:../Dave/Generated/CMSIS_DSP/FilteringFunctions/arm_conv_fast_q31.c **** 
 504:../Dave/Generated/CMSIS_DSP/FilteringFunctions/arm_conv_fast_q31.c ****   while (blockSize3 > 0u)
 313              	 .loc 1 504 0
 314 0196 319B     	 ldr r3,[sp,#196]
 315              	.LVL51:
 316 0198 002B     	 cmp r3,#0
 317 019a 40F0C881 	 bne .L78
 318              	.LVL52:
 319              	.L1:
 505:../Dave/Generated/CMSIS_DSP/FilteringFunctions/arm_conv_fast_q31.c ****   {
 506:../Dave/Generated/CMSIS_DSP/FilteringFunctions/arm_conv_fast_q31.c ****     /* Accumulator is made zero for every iteration */
 507:../Dave/Generated/CMSIS_DSP/FilteringFunctions/arm_conv_fast_q31.c ****     sum = 0;
 508:../Dave/Generated/CMSIS_DSP/FilteringFunctions/arm_conv_fast_q31.c **** 
 509:../Dave/Generated/CMSIS_DSP/FilteringFunctions/arm_conv_fast_q31.c ****     /* Apply loop unrolling and compute 4 MACs simultaneously. */
 510:../Dave/Generated/CMSIS_DSP/FilteringFunctions/arm_conv_fast_q31.c ****     k = blockSize3 >> 2u;
 511:../Dave/Generated/CMSIS_DSP/FilteringFunctions/arm_conv_fast_q31.c **** 
 512:../Dave/Generated/CMSIS_DSP/FilteringFunctions/arm_conv_fast_q31.c ****     /* First part of the processing with loop unrolling.  Compute 4 MACs at a time.
 513:../Dave/Generated/CMSIS_DSP/FilteringFunctions/arm_conv_fast_q31.c ****      ** a second loop below computes MACs for the remaining 1 to 3 samples. */
 514:../Dave/Generated/CMSIS_DSP/FilteringFunctions/arm_conv_fast_q31.c ****     while (k > 0u)
 515:../Dave/Generated/CMSIS_DSP/FilteringFunctions/arm_conv_fast_q31.c ****     {
 516:../Dave/Generated/CMSIS_DSP/FilteringFunctions/arm_conv_fast_q31.c ****       /* sum += x[srcALen - srcBLen + 1] * y[srcBLen - 1] */
 517:../Dave/Generated/CMSIS_DSP/FilteringFunctions/arm_conv_fast_q31.c ****       sum = (q31_t) ((((q63_t) sum << 32) +
 518:../Dave/Generated/CMSIS_DSP/FilteringFunctions/arm_conv_fast_q31.c ****                       ((q63_t) * px++ * (*py--))) >> 32);
 519:../Dave/Generated/CMSIS_DSP/FilteringFunctions/arm_conv_fast_q31.c **** 
 520:../Dave/Generated/CMSIS_DSP/FilteringFunctions/arm_conv_fast_q31.c ****       /* sum += x[srcALen - srcBLen + 2] * y[srcBLen - 2] */
 521:../Dave/Generated/CMSIS_DSP/FilteringFunctions/arm_conv_fast_q31.c ****       sum = (q31_t) ((((q63_t) sum << 32) +
 522:../Dave/Generated/CMSIS_DSP/FilteringFunctions/arm_conv_fast_q31.c ****                       ((q63_t) * px++ * (*py--))) >> 32);
 523:../Dave/Generated/CMSIS_DSP/FilteringFunctions/arm_conv_fast_q31.c **** 
 524:../Dave/Generated/CMSIS_DSP/FilteringFunctions/arm_conv_fast_q31.c ****       /* sum += x[srcALen - srcBLen + 3] * y[srcBLen - 3] */
 525:../Dave/Generated/CMSIS_DSP/FilteringFunctions/arm_conv_fast_q31.c ****       sum = (q31_t) ((((q63_t) sum << 32) +
 526:../Dave/Generated/CMSIS_DSP/FilteringFunctions/arm_conv_fast_q31.c ****                       ((q63_t) * px++ * (*py--))) >> 32);
 527:../Dave/Generated/CMSIS_DSP/FilteringFunctions/arm_conv_fast_q31.c **** 
 528:../Dave/Generated/CMSIS_DSP/FilteringFunctions/arm_conv_fast_q31.c ****       /* sum += x[srcALen - srcBLen + 4] * y[srcBLen - 4] */
 529:../Dave/Generated/CMSIS_DSP/FilteringFunctions/arm_conv_fast_q31.c ****       sum = (q31_t) ((((q63_t) sum << 32) +
 530:../Dave/Generated/CMSIS_DSP/FilteringFunctions/arm_conv_fast_q31.c ****                       ((q63_t) * px++ * (*py--))) >> 32);
 531:../Dave/Generated/CMSIS_DSP/FilteringFunctions/arm_conv_fast_q31.c **** 
 532:../Dave/Generated/CMSIS_DSP/FilteringFunctions/arm_conv_fast_q31.c ****       /* Decrement the loop counter */
 533:../Dave/Generated/CMSIS_DSP/FilteringFunctions/arm_conv_fast_q31.c ****       k--;
 534:../Dave/Generated/CMSIS_DSP/FilteringFunctions/arm_conv_fast_q31.c ****     }
 535:../Dave/Generated/CMSIS_DSP/FilteringFunctions/arm_conv_fast_q31.c **** 
 536:../Dave/Generated/CMSIS_DSP/FilteringFunctions/arm_conv_fast_q31.c ****     /* If the blockSize3 is not a multiple of 4, compute any remaining MACs here.
 537:../Dave/Generated/CMSIS_DSP/FilteringFunctions/arm_conv_fast_q31.c ****      ** No loop unrolling is used. */
 538:../Dave/Generated/CMSIS_DSP/FilteringFunctions/arm_conv_fast_q31.c ****     k = blockSize3 % 0x4u;
 539:../Dave/Generated/CMSIS_DSP/FilteringFunctions/arm_conv_fast_q31.c **** 
 540:../Dave/Generated/CMSIS_DSP/FilteringFunctions/arm_conv_fast_q31.c ****     while (k > 0u)
 541:../Dave/Generated/CMSIS_DSP/FilteringFunctions/arm_conv_fast_q31.c ****     {
 542:../Dave/Generated/CMSIS_DSP/FilteringFunctions/arm_conv_fast_q31.c ****       /* Perform the multiply-accumulate */
 543:../Dave/Generated/CMSIS_DSP/FilteringFunctions/arm_conv_fast_q31.c ****       sum = (q31_t) ((((q63_t) sum << 32) +
 544:../Dave/Generated/CMSIS_DSP/FilteringFunctions/arm_conv_fast_q31.c ****                       ((q63_t) * px++ * (*py--))) >> 32);
 545:../Dave/Generated/CMSIS_DSP/FilteringFunctions/arm_conv_fast_q31.c **** 
 546:../Dave/Generated/CMSIS_DSP/FilteringFunctions/arm_conv_fast_q31.c ****       /* Decrement the loop counter */
 547:../Dave/Generated/CMSIS_DSP/FilteringFunctions/arm_conv_fast_q31.c ****       k--;
 548:../Dave/Generated/CMSIS_DSP/FilteringFunctions/arm_conv_fast_q31.c ****     }
 549:../Dave/Generated/CMSIS_DSP/FilteringFunctions/arm_conv_fast_q31.c **** 
 550:../Dave/Generated/CMSIS_DSP/FilteringFunctions/arm_conv_fast_q31.c ****     /* Store the result in the accumulator in the destination buffer. */
 551:../Dave/Generated/CMSIS_DSP/FilteringFunctions/arm_conv_fast_q31.c ****     *pOut++ = sum << 1;
 552:../Dave/Generated/CMSIS_DSP/FilteringFunctions/arm_conv_fast_q31.c **** 
 553:../Dave/Generated/CMSIS_DSP/FilteringFunctions/arm_conv_fast_q31.c ****     /* Update the inputA and inputB pointers for next MAC calculation */
 554:../Dave/Generated/CMSIS_DSP/FilteringFunctions/arm_conv_fast_q31.c ****     px = ++pSrc1;
 555:../Dave/Generated/CMSIS_DSP/FilteringFunctions/arm_conv_fast_q31.c ****     py = pSrc2;
 556:../Dave/Generated/CMSIS_DSP/FilteringFunctions/arm_conv_fast_q31.c **** 
 557:../Dave/Generated/CMSIS_DSP/FilteringFunctions/arm_conv_fast_q31.c ****     /* Decrement the loop counter */
 558:../Dave/Generated/CMSIS_DSP/FilteringFunctions/arm_conv_fast_q31.c ****     blockSize3--;
 559:../Dave/Generated/CMSIS_DSP/FilteringFunctions/arm_conv_fast_q31.c ****   }
 560:../Dave/Generated/CMSIS_DSP/FilteringFunctions/arm_conv_fast_q31.c **** 
 561:../Dave/Generated/CMSIS_DSP/FilteringFunctions/arm_conv_fast_q31.c **** }
 320              	 .loc 1 561 0
 321 019e 59B0     	 add sp,sp,#356
 322              	.LCFI2:
 323              	 .cfi_remember_state
 324              	 .cfi_def_cfa_offset 36
 325              	 
 326 01a0 BDE8F08F 	 pop {r4,r5,r6,r7,r8,r9,r10,fp,pc}
 327              	.LVL53:
 328              	.L10:
 329              	.LCFI3:
 330              	 .cfi_restore_state
 242:../Dave/Generated/CMSIS_DSP/FilteringFunctions/arm_conv_fast_q31.c ****     {
 331              	 .loc 1 242 0
 332 01a4 9B08     	 lsrs r3,r3,#2
 333 01a6 4893     	 str r3,[sp,#288]
 334 01a8 00F03782 	 beq .L40
 335 01ac 0133     	 adds r3,r3,#1
 336 01ae 1B01     	 lsls r3,r3,#4
 337 01b0 6298     	 ldr r0,[sp,#392]
 338 01b2 3A99     	 ldr r1,[sp,#232]
 339 01b4 4993     	 str r3,[sp,#292]
 340 01b6 1A46     	 mov r2,r3
 341 01b8 8218     	 adds r2,r0,r2
 342 01ba 3398     	 ldr r0,[sp,#204]
 343 01bc 4292     	 str r2,[sp,#264]
 344 01be 8B08     	 lsrs r3,r1,#2
 345 01c0 A0EB0312 	 sub r2,r0,r3,lsl#4
 346 01c4 4493     	 str r3,[sp,#272]
 347 01c6 1B01     	 lsls r3,r3,#4
 348 01c8 4093     	 str r3,[sp,#256]
 349 01ca 01F00303 	 and r3,r1,#3
 350 01ce 4593     	 str r3,[sp,#276]
 351 01d0 629B     	 ldr r3,[sp,#392]
 352 01d2 4692     	 str r2,[sp,#280]
 353 01d4 1033     	 adds r3,r3,#16
 354 01d6 3B93     	 str r3,[sp,#236]
 355              	.LVL54:
 356 01d8 329B     	 ldr r3,[sp,#200]
 357 01da 0C33     	 adds r3,r3,#12
 358 01dc 3493     	 str r3,[sp,#208]
 359 01de A0F11003 	 sub r3,r0,#16
 360 01e2 3893     	 str r3,[sp,#224]
 361              	.LVL55:
 362              	.L26:
 251:../Dave/Generated/CMSIS_DSP/FilteringFunctions/arm_conv_fast_q31.c ****       x1 = *(px++);
 363              	 .loc 1 251 0
 364 01e4 349F     	 ldr r7,[sp,#208]
 365 01e6 389A     	 ldr r2,[sp,#224]
 366 01e8 57F80C3C 	 ldr r3,[r7,#-12]
 252:../Dave/Generated/CMSIS_DSP/FilteringFunctions/arm_conv_fast_q31.c ****       x2 = *(px++);
 367              	 .loc 1 252 0
 368 01ec 57F808CC 	 ldr ip,[r7,#-8]
 369              	.LVL56:
 251:../Dave/Generated/CMSIS_DSP/FilteringFunctions/arm_conv_fast_q31.c ****       x1 = *(px++);
 370              	 .loc 1 251 0
 371 01f0 2E93     	 str r3,[sp,#184]
 372              	.LVL57:
 248:../Dave/Generated/CMSIS_DSP/FilteringFunctions/arm_conv_fast_q31.c **** 
 373              	 .loc 1 248 0
 374 01f2 0025     	 movs r5,#0
 253:../Dave/Generated/CMSIS_DSP/FilteringFunctions/arm_conv_fast_q31.c **** 
 375              	 .loc 1 253 0
 376 01f4 BE46     	 mov lr,r7
 377 01f6 57F8043C 	 ldr r3,[r7,#-4]
 378              	.LVL58:
 379 01fa 3968     	 ldr r1,[r7]
 256:../Dave/Generated/CMSIS_DSP/FilteringFunctions/arm_conv_fast_q31.c **** 
 380              	 .loc 1 256 0
 381 01fc 449F     	 ldr r7,[sp,#272]
 382 01fe 2C97     	 str r7,[sp,#176]
 383 0200 CDF800C0 	 str ip,[sp]
 247:../Dave/Generated/CMSIS_DSP/FilteringFunctions/arm_conv_fast_q31.c ****       acc3 = 0;
 384              	 .loc 1 247 0
 385 0204 2C46     	 mov r4,r5
 256:../Dave/Generated/CMSIS_DSP/FilteringFunctions/arm_conv_fast_q31.c **** 
 386              	 .loc 1 256 0
 387 0206 F446     	 mov ip,lr
 388              	.LVL59:
 246:../Dave/Generated/CMSIS_DSP/FilteringFunctions/arm_conv_fast_q31.c ****       acc2 = 0;
 389              	 .loc 1 246 0
 390 0208 2846     	 mov r0,r5
 245:../Dave/Generated/CMSIS_DSP/FilteringFunctions/arm_conv_fast_q31.c ****       acc1 = 0;
 391              	 .loc 1 245 0
 392 020a 2E46     	 mov r6,r5
 256:../Dave/Generated/CMSIS_DSP/FilteringFunctions/arm_conv_fast_q31.c **** 
 393              	 .loc 1 256 0
 394 020c 0495     	 str r5,[sp,#16]
 395 020e 2F46     	 mov r7,r5
 396 0210 DDF8B8E0 	 ldr lr,[sp,#184]
 397 0214 02E0     	 b .L23
 398              	.LVL60:
 399              	.L79:
 317:../Dave/Generated/CMSIS_DSP/FilteringFunctions/arm_conv_fast_q31.c **** 
 400              	 .loc 1 317 0
 401 0216 5CF8101F 	 ldr r1,[ip,#16]!
 402              	.LVL61:
 403 021a 0498     	 ldr r0,[sp,#16]
 404              	.LVL62:
 405              	.L23:
 273:../Dave/Generated/CMSIS_DSP/FilteringFunctions/arm_conv_fast_q31.c **** 
 406              	 .loc 1 273 0 discriminator 1
 407 021c 0790     	 str r0,[sp,#28]
 270:../Dave/Generated/CMSIS_DSP/FilteringFunctions/arm_conv_fast_q31.c **** 
 408              	 .loc 1 270 0 discriminator 1
 409 021e 4FF0000A 	 mov r10,#0
 298:../Dave/Generated/CMSIS_DSP/FilteringFunctions/arm_conv_fast_q31.c **** 
 410              	 .loc 1 298 0 discriminator 1
 411 0222 02F10800 	 add r0,r2,#8
 276:../Dave/Generated/CMSIS_DSP/FilteringFunctions/arm_conv_fast_q31.c **** 
 412              	 .loc 1 276 0 discriminator 1
 413 0226 0994     	 str r4,[sp,#36]
 273:../Dave/Generated/CMSIS_DSP/FilteringFunctions/arm_conv_fast_q31.c **** 
 414              	 .loc 1 273 0 discriminator 1
 415 0228 CDF818A0 	 str r10,[sp,#24]
 298:../Dave/Generated/CMSIS_DSP/FilteringFunctions/arm_conv_fast_q31.c **** 
 416              	 .loc 1 298 0 discriminator 1
 417 022c 90E81101 	 ldmia r0,{r0,r4,r8}
 418              	.LVL63:
 279:../Dave/Generated/CMSIS_DSP/FilteringFunctions/arm_conv_fast_q31.c **** 
 419              	 .loc 1 279 0 discriminator 1
 420 0230 0B97     	 str r7,[sp,#44]
 270:../Dave/Generated/CMSIS_DSP/FilteringFunctions/arm_conv_fast_q31.c **** 
 421              	 .loc 1 270 0 discriminator 1
 422 0232 B346     	 mov fp,r6
 273:../Dave/Generated/CMSIS_DSP/FilteringFunctions/arm_conv_fast_q31.c **** 
 423              	 .loc 1 273 0 discriminator 1
 424 0234 DDE90667 	 ldrd r6,[sp,#24]
 425              	.LVL64:
 426 0238 009D     	 ldr r5,[sp]
 276:../Dave/Generated/CMSIS_DSP/FilteringFunctions/arm_conv_fast_q31.c **** 
 427              	 .loc 1 276 0 discriminator 1
 428 023a CDF820A0 	 str r10,[sp,#32]
 273:../Dave/Generated/CMSIS_DSP/FilteringFunctions/arm_conv_fast_q31.c **** 
 429              	 .loc 1 273 0 discriminator 1
 430 023e C5FB0867 	 smlal r6,r7,r5,r8
 431 0242 CDE90467 	 strd r6,[sp,#16]
 432              	.LVL65:
 270:../Dave/Generated/CMSIS_DSP/FilteringFunctions/arm_conv_fast_q31.c **** 
 433              	 .loc 1 270 0 discriminator 1
 434 0246 5646     	 mov r6,r10
 435 0248 5F46     	 mov r7,fp
 436              	.LVL66:
 437 024a C8FB0E67 	 smlal r6,r7,r8,lr
 438              	.LVL67:
 289:../Dave/Generated/CMSIS_DSP/FilteringFunctions/arm_conv_fast_q31.c ****         /* acc1 +=  x[2] * y[srcBLen - 2] */
 439              	 .loc 1 289 0 discriminator 1
 440 024e 0D97     	 str r7,[sp,#52]
 276:../Dave/Generated/CMSIS_DSP/FilteringFunctions/arm_conv_fast_q31.c **** 
 441              	 .loc 1 276 0 discriminator 1
 442 0250 DDE90867 	 ldrd r6,[sp,#32]
 279:../Dave/Generated/CMSIS_DSP/FilteringFunctions/arm_conv_fast_q31.c **** 
 443              	 .loc 1 279 0 discriminator 1
 444 0254 CDF828A0 	 str r10,[sp,#40]
 276:../Dave/Generated/CMSIS_DSP/FilteringFunctions/arm_conv_fast_q31.c **** 
 445              	 .loc 1 276 0 discriminator 1
 446 0258 C3FB0867 	 smlal r6,r7,r3,r8
 447              	.LVL68:
 293:../Dave/Generated/CMSIS_DSP/FilteringFunctions/arm_conv_fast_q31.c ****         /* acc3 +=  x[4] * y[srcBLen - 2] */
 448              	 .loc 1 293 0 discriminator 1
 449 025c 1197     	 str r7,[sp,#68]
 279:../Dave/Generated/CMSIS_DSP/FilteringFunctions/arm_conv_fast_q31.c **** 
 450              	 .loc 1 279 0 discriminator 1
 451 025e DDE90A67 	 ldrd r6,[sp,#40]
 291:../Dave/Generated/CMSIS_DSP/FilteringFunctions/arm_conv_fast_q31.c ****         /* acc2 +=  x[3] * y[srcBLen - 2] */
 452              	 .loc 1 291 0 discriminator 1
 453 0262 059D     	 ldr r5,[sp,#20]
 454 0264 0F95     	 str r5,[sp,#60]
 279:../Dave/Generated/CMSIS_DSP/FilteringFunctions/arm_conv_fast_q31.c **** 
 455              	 .loc 1 279 0 discriminator 1
 456 0266 C1FB0867 	 smlal r6,r7,r1,r8
 457              	.LVL69:
 291:../Dave/Generated/CMSIS_DSP/FilteringFunctions/arm_conv_fast_q31.c ****         /* acc2 +=  x[3] * y[srcBLen - 2] */
 458              	 .loc 1 291 0 discriminator 1
 459 026a CDF838A0 	 str r10,[sp,#56]
 295:../Dave/Generated/CMSIS_DSP/FilteringFunctions/arm_conv_fast_q31.c **** 
 460              	 .loc 1 295 0 discriminator 1
 461 026e 1397     	 str r7,[sp,#76]
 293:../Dave/Generated/CMSIS_DSP/FilteringFunctions/arm_conv_fast_q31.c ****         /* acc3 +=  x[4] * y[srcBLen - 2] */
 462              	 .loc 1 293 0 discriminator 1
 463 0270 CDF840A0 	 str r10,[sp,#64]
 291:../Dave/Generated/CMSIS_DSP/FilteringFunctions/arm_conv_fast_q31.c ****         /* acc2 +=  x[3] * y[srcBLen - 2] */
 464              	 .loc 1 291 0 discriminator 1
 465 0274 DDE90E67 	 ldrd r6,[sp,#56]
 293:../Dave/Generated/CMSIS_DSP/FilteringFunctions/arm_conv_fast_q31.c ****         /* acc3 +=  x[4] * y[srcBLen - 2] */
 466              	 .loc 1 293 0 discriminator 1
 467 0278 DDE91089 	 ldrd r8,[sp,#64]
 291:../Dave/Generated/CMSIS_DSP/FilteringFunctions/arm_conv_fast_q31.c ****         /* acc2 +=  x[3] * y[srcBLen - 2] */
 468              	 .loc 1 291 0 discriminator 1
 469 027c C4FB0367 	 smlal r6,r7,r4,r3
 289:../Dave/Generated/CMSIS_DSP/FilteringFunctions/arm_conv_fast_q31.c ****         /* acc1 +=  x[2] * y[srcBLen - 2] */
 470              	 .loc 1 289 0 discriminator 1
 471 0280 CDF830A0 	 str r10,[sp,#48]
 293:../Dave/Generated/CMSIS_DSP/FilteringFunctions/arm_conv_fast_q31.c ****         /* acc3 +=  x[4] * y[srcBLen - 2] */
 472              	 .loc 1 293 0 discriminator 1
 473 0284 C4FB0189 	 smlal r8,r9,r4,r1
 291:../Dave/Generated/CMSIS_DSP/FilteringFunctions/arm_conv_fast_q31.c ****         /* acc2 +=  x[3] * y[srcBLen - 2] */
 474              	 .loc 1 291 0 discriminator 1
 475 0288 CDE90467 	 strd r6,[sp,#16]
 476              	.LVL70:
 295:../Dave/Generated/CMSIS_DSP/FilteringFunctions/arm_conv_fast_q31.c **** 
 477              	 .loc 1 295 0 discriminator 1
 478 028c CDF848A0 	 str r10,[sp,#72]
 289:../Dave/Generated/CMSIS_DSP/FilteringFunctions/arm_conv_fast_q31.c ****         /* acc1 +=  x[2] * y[srcBLen - 2] */
 479              	 .loc 1 289 0 discriminator 1
 480 0290 DDE90C67 	 ldrd r6,[sp,#48]
 481 0294 009D     	 ldr r5,[sp]
 482              	.LVL71:
 309:../Dave/Generated/CMSIS_DSP/FilteringFunctions/arm_conv_fast_q31.c ****         /* acc3 +=  x[5] * y[srcBLen - 3] */
 483              	 .loc 1 309 0 discriminator 1
 484 0296 CDF86490 	 str r9,[sp,#100]
 295:../Dave/Generated/CMSIS_DSP/FilteringFunctions/arm_conv_fast_q31.c **** 
 485              	 .loc 1 295 0 discriminator 1
 486 029a DDE91289 	 ldrd r8,[sp,#72]
 285:../Dave/Generated/CMSIS_DSP/FilteringFunctions/arm_conv_fast_q31.c **** 
 487              	 .loc 1 285 0 discriminator 1
 488 029e DCF804E0 	 ldr lr,[ip,#4]
 489              	.LVL72:
 289:../Dave/Generated/CMSIS_DSP/FilteringFunctions/arm_conv_fast_q31.c ****         /* acc1 +=  x[2] * y[srcBLen - 2] */
 490              	 .loc 1 289 0 discriminator 1
 491 02a2 C4FB0567 	 smlal r6,r7,r4,r5
 492              	.LVL73:
 307:../Dave/Generated/CMSIS_DSP/FilteringFunctions/arm_conv_fast_q31.c ****         /* acc2 +=  x[4] * y[srcBLen - 3] */
 493              	 .loc 1 307 0 discriminator 1
 494 02a6 059D     	 ldr r5,[sp,#20]
 495 02a8 1795     	 str r5,[sp,#92]
 295:../Dave/Generated/CMSIS_DSP/FilteringFunctions/arm_conv_fast_q31.c **** 
 496              	 .loc 1 295 0 discriminator 1
 497 02aa CEFB0489 	 smlal r8,r9,lr,r4
 498              	.LVL74:
 305:../Dave/Generated/CMSIS_DSP/FilteringFunctions/arm_conv_fast_q31.c ****         /* acc1 +=  x[3] * y[srcBLen - 3] */
 499              	 .loc 1 305 0 discriminator 1
 500 02ae 1597     	 str r7,[sp,#84]
 501              	.LVL75:
 301:../Dave/Generated/CMSIS_DSP/FilteringFunctions/arm_conv_fast_q31.c **** 
 502              	 .loc 1 301 0 discriminator 1
 503 02b0 DCF80840 	 ldr r4,[ip,#8]
 305:../Dave/Generated/CMSIS_DSP/FilteringFunctions/arm_conv_fast_q31.c ****         /* acc1 +=  x[3] * y[srcBLen - 3] */
 504              	 .loc 1 305 0 discriminator 1
 505 02b4 CDF850A0 	 str r10,[sp,#80]
 301:../Dave/Generated/CMSIS_DSP/FilteringFunctions/arm_conv_fast_q31.c **** 
 506              	 .loc 1 301 0 discriminator 1
 507 02b8 0094     	 str r4,[sp]
 508              	.LVL76:
 305:../Dave/Generated/CMSIS_DSP/FilteringFunctions/arm_conv_fast_q31.c ****         /* acc1 +=  x[3] * y[srcBLen - 3] */
 509              	 .loc 1 305 0 discriminator 1
 510 02ba DDE91445 	 ldrd r4,[sp,#80]
 311:../Dave/Generated/CMSIS_DSP/FilteringFunctions/arm_conv_fast_q31.c **** 
 511              	 .loc 1 311 0 discriminator 1
 512 02be CDF86C90 	 str r9,[sp,#108]
 305:../Dave/Generated/CMSIS_DSP/FilteringFunctions/arm_conv_fast_q31.c ****         /* acc1 +=  x[3] * y[srcBLen - 3] */
 513              	 .loc 1 305 0 discriminator 1
 514 02c2 C0FB0345 	 smlal r4,r5,r0,r3
 311:../Dave/Generated/CMSIS_DSP/FilteringFunctions/arm_conv_fast_q31.c **** 
 515              	 .loc 1 311 0 discriminator 1
 516 02c6 CDF868A0 	 str r10,[sp,#104]
 305:../Dave/Generated/CMSIS_DSP/FilteringFunctions/arm_conv_fast_q31.c ****         /* acc1 +=  x[3] * y[srcBLen - 3] */
 517              	 .loc 1 305 0 discriminator 1
 518 02ca CDE90445 	 strd r4,[sp,#16]
 519              	.LVL77:
 309:../Dave/Generated/CMSIS_DSP/FilteringFunctions/arm_conv_fast_q31.c ****         /* acc3 +=  x[5] * y[srcBLen - 3] */
 520              	 .loc 1 309 0 discriminator 1
 521 02ce CDF860A0 	 str r10,[sp,#96]
 311:../Dave/Generated/CMSIS_DSP/FilteringFunctions/arm_conv_fast_q31.c **** 
 522              	 .loc 1 311 0 discriminator 1
 523 02d2 DDE91A45 	 ldrd r4,[sp,#104]
 524 02d6 009B     	 ldr r3,[sp]
 525              	.LVL78:
 307:../Dave/Generated/CMSIS_DSP/FilteringFunctions/arm_conv_fast_q31.c ****         /* acc2 +=  x[4] * y[srcBLen - 3] */
 526              	 .loc 1 307 0 discriminator 1
 527 02d8 CDF858A0 	 str r10,[sp,#88]
 309:../Dave/Generated/CMSIS_DSP/FilteringFunctions/arm_conv_fast_q31.c ****         /* acc3 +=  x[5] * y[srcBLen - 3] */
 528              	 .loc 1 309 0 discriminator 1
 529 02dc DDE91867 	 ldrd r6,[sp,#96]
 307:../Dave/Generated/CMSIS_DSP/FilteringFunctions/arm_conv_fast_q31.c ****         /* acc2 +=  x[4] * y[srcBLen - 3] */
 530              	 .loc 1 307 0 discriminator 1
 531 02e0 DDE91689 	 ldrd r8,[sp,#88]
 311:../Dave/Generated/CMSIS_DSP/FilteringFunctions/arm_conv_fast_q31.c **** 
 532              	 .loc 1 311 0 discriminator 1
 533 02e4 C3FB0045 	 smlal r4,r5,r3,r0
 309:../Dave/Generated/CMSIS_DSP/FilteringFunctions/arm_conv_fast_q31.c ****         /* acc3 +=  x[5] * y[srcBLen - 3] */
 534              	 .loc 1 309 0 discriminator 1
 535 02e8 C0FB0E67 	 smlal r6,r7,r0,lr
 327:../Dave/Generated/CMSIS_DSP/FilteringFunctions/arm_conv_fast_q31.c **** 
 536              	 .loc 1 327 0 discriminator 1
 537 02ec 2395     	 str r5,[sp,#140]
 538 02ee CDF888A0 	 str r10,[sp,#136]
 307:../Dave/Generated/CMSIS_DSP/FilteringFunctions/arm_conv_fast_q31.c ****         /* acc2 +=  x[4] * y[srcBLen - 3] */
 539              	 .loc 1 307 0 discriminator 1
 540 02f2 C0FB0189 	 smlal r8,r9,r0,r1
 541              	.LVL79:
 321:../Dave/Generated/CMSIS_DSP/FilteringFunctions/arm_conv_fast_q31.c ****         /* acc1 +=  x[4] * y[srcBLen - 4] */
 542              	 .loc 1 321 0 discriminator 1
 543 02f6 059B     	 ldr r3,[sp,#20]
 325:../Dave/Generated/CMSIS_DSP/FilteringFunctions/arm_conv_fast_q31.c ****         /* acc3 +=  x[6] * y[srcBLen - 4] */
 544              	 .loc 1 325 0 discriminator 1
 545 02f8 2197     	 str r7,[sp,#132]
 327:../Dave/Generated/CMSIS_DSP/FilteringFunctions/arm_conv_fast_q31.c **** 
 546              	 .loc 1 327 0 discriminator 1
 547 02fa DDE92267 	 ldrd r6,[sp,#136]
 323:../Dave/Generated/CMSIS_DSP/FilteringFunctions/arm_conv_fast_q31.c ****         /* acc2 +=  x[5] * y[srcBLen - 4] */
 548              	 .loc 1 323 0 discriminator 1
 549 02fe 5068     	 ldr r0,[r2,#4]
 550 0300 CDF87C90 	 str r9,[sp,#124]
 321:../Dave/Generated/CMSIS_DSP/FilteringFunctions/arm_conv_fast_q31.c ****         /* acc1 +=  x[4] * y[srcBLen - 4] */
 551              	 .loc 1 321 0 discriminator 1
 552 0304 1D93     	 str r3,[sp,#116]
 323:../Dave/Generated/CMSIS_DSP/FilteringFunctions/arm_conv_fast_q31.c ****         /* acc2 +=  x[5] * y[srcBLen - 4] */
 553              	 .loc 1 323 0 discriminator 1
 554 0306 CDF878A0 	 str r10,[sp,#120]
 317:../Dave/Generated/CMSIS_DSP/FilteringFunctions/arm_conv_fast_q31.c **** 
 555              	 .loc 1 317 0 discriminator 1
 556 030a DCF80C30 	 ldr r3,[ip,#12]
 557              	.LVL80:
 321:../Dave/Generated/CMSIS_DSP/FilteringFunctions/arm_conv_fast_q31.c ****         /* acc1 +=  x[4] * y[srcBLen - 4] */
 558              	 .loc 1 321 0 discriminator 1
 559 030e CDF870A0 	 str r10,[sp,#112]
 323:../Dave/Generated/CMSIS_DSP/FilteringFunctions/arm_conv_fast_q31.c ****         /* acc2 +=  x[5] * y[srcBLen - 4] */
 560              	 .loc 1 323 0 discriminator 1
 561 0312 DDE91E45 	 ldrd r4,[sp,#120]
 327:../Dave/Generated/CMSIS_DSP/FilteringFunctions/arm_conv_fast_q31.c **** 
 562              	 .loc 1 327 0 discriminator 1
 563 0316 C3FB0067 	 smlal r6,r7,r3,r0
 325:../Dave/Generated/CMSIS_DSP/FilteringFunctions/arm_conv_fast_q31.c ****         /* acc3 +=  x[6] * y[srcBLen - 4] */
 564              	 .loc 1 325 0 discriminator 1
 565 031a CDF880A0 	 str r10,[sp,#128]
 327:../Dave/Generated/CMSIS_DSP/FilteringFunctions/arm_conv_fast_q31.c **** 
 566              	 .loc 1 327 0 discriminator 1
 567 031e CDE92E67 	 strd r6,[sp,#184]
 321:../Dave/Generated/CMSIS_DSP/FilteringFunctions/arm_conv_fast_q31.c ****         /* acc1 +=  x[4] * y[srcBLen - 4] */
 568              	 .loc 1 321 0 discriminator 1
 569 0322 DDE91C67 	 ldrd r6,[sp,#112]
 323:../Dave/Generated/CMSIS_DSP/FilteringFunctions/arm_conv_fast_q31.c ****         /* acc2 +=  x[5] * y[srcBLen - 4] */
 570              	 .loc 1 323 0 discriminator 1
 571 0326 C0FB0E45 	 smlal r4,r5,r0,lr
 325:../Dave/Generated/CMSIS_DSP/FilteringFunctions/arm_conv_fast_q31.c ****         /* acc3 +=  x[6] * y[srcBLen - 4] */
 572              	 .loc 1 325 0 discriminator 1
 573 032a DDE92089 	 ldrd r8,[sp,#128]
 323:../Dave/Generated/CMSIS_DSP/FilteringFunctions/arm_conv_fast_q31.c ****         /* acc2 +=  x[5] * y[srcBLen - 4] */
 574              	 .loc 1 323 0 discriminator 1
 575 032e CDE90445 	 strd r4,[sp,#16]
 325:../Dave/Generated/CMSIS_DSP/FilteringFunctions/arm_conv_fast_q31.c ****         /* acc3 +=  x[6] * y[srcBLen - 4] */
 576              	 .loc 1 325 0 discriminator 1
 577 0332 009C     	 ldr r4,[sp]
 321:../Dave/Generated/CMSIS_DSP/FilteringFunctions/arm_conv_fast_q31.c ****         /* acc1 +=  x[4] * y[srcBLen - 4] */
 578              	 .loc 1 321 0 discriminator 1
 579 0334 C0FB0167 	 smlal r6,r7,r0,r1
 580 0338 3946     	 mov r1,r7
 325:../Dave/Generated/CMSIS_DSP/FilteringFunctions/arm_conv_fast_q31.c ****         /* acc3 +=  x[6] * y[srcBLen - 4] */
 581              	 .loc 1 325 0 discriminator 1
 582 033a C0FB0489 	 smlal r8,r9,r0,r4
 323:../Dave/Generated/CMSIS_DSP/FilteringFunctions/arm_conv_fast_q31.c ****         /* acc2 +=  x[5] * y[srcBLen - 4] */
 583              	 .loc 1 323 0 discriminator 1
 584 033e 059C     	 ldr r4,[sp,#20]
 585 0340 0494     	 str r4,[sp,#16]
 321:../Dave/Generated/CMSIS_DSP/FilteringFunctions/arm_conv_fast_q31.c ****         /* acc1 +=  x[4] * y[srcBLen - 4] */
 586              	 .loc 1 321 0 discriminator 1
 587 0342 0E46     	 mov r6,r1
 327:../Dave/Generated/CMSIS_DSP/FilteringFunctions/arm_conv_fast_q31.c **** 
 588              	 .loc 1 327 0 discriminator 1
 589 0344 2F9F     	 ldr r7,[sp,#188]
 330:../Dave/Generated/CMSIS_DSP/FilteringFunctions/arm_conv_fast_q31.c **** 
 590              	 .loc 1 330 0 discriminator 1
 591 0346 2C99     	 ldr r1,[sp,#176]
 592 0348 0139     	 subs r1,r1,#1
 593 034a A2F11002 	 sub r2,r2,#16
 594              	.LVL81:
 325:../Dave/Generated/CMSIS_DSP/FilteringFunctions/arm_conv_fast_q31.c ****         /* acc3 +=  x[6] * y[srcBLen - 4] */
 595              	 .loc 1 325 0 discriminator 1
 596 034e 4C46     	 mov r4,r9
 597              	.LVL82:
 330:../Dave/Generated/CMSIS_DSP/FilteringFunctions/arm_conv_fast_q31.c **** 
 598              	 .loc 1 330 0 discriminator 1
 599 0350 2C91     	 str r1,[sp,#176]
 600 0352 7FF460AF 	 bne .L79
 601 0356 409A     	 ldr r2,[sp,#256]
 602              	.LVL83:
 603 0358 3499     	 ldr r1,[sp,#208]
 604              	.LVL84:
 605 035a 0498     	 ldr r0,[sp,#16]
 606              	.LVL85:
 607 035c CDF8B8E0 	 str lr,[sp,#184]
 608 0360 02EB0109 	 add r9,r2,r1
 609              	.LVL86:
 336:../Dave/Generated/CMSIS_DSP/FilteringFunctions/arm_conv_fast_q31.c ****       {
 610              	 .loc 1 336 0
 611 0364 459A     	 ldr r2,[sp,#276]
 612 0366 DDF800C0 	 ldr ip,[sp]
 613              	.LVL87:
 614 036a 3D46     	 mov r5,r7
 615              	.LVL88:
 616 036c 002A     	 cmp r2,#0
 617 036e 3AD0     	 beq .L24
 618 0370 CDE92CAB 	 strd r10,[sp,#176]
 619 0374 DDF81881 	 ldr r8,[sp,#280]
 620 0378 CDF80080 	 str r8,[sp]
 621 037c 7746     	 mov r7,lr
 622 037e CDF81090 	 str r9,[sp,#16]
 623 0382 8646     	 mov lr,r0
 624              	.LVL89:
 625              	.L25:
 339:../Dave/Generated/CMSIS_DSP/FilteringFunctions/arm_conv_fast_q31.c **** 
 626              	 .loc 1 339 0
 627 0384 0099     	 ldr r1,[sp]
 350:../Dave/Generated/CMSIS_DSP/FilteringFunctions/arm_conv_fast_q31.c ****         /* acc3 +=  x[7] * y[srcBLen - 5] */
 628              	 .loc 1 350 0
 629 0386 2794     	 str r4,[sp,#156]
 342:../Dave/Generated/CMSIS_DSP/FilteringFunctions/arm_conv_fast_q31.c **** 
 630              	 .loc 1 342 0
 631 0388 049C     	 ldr r4,[sp,#16]
 632              	.LVL90:
 339:../Dave/Generated/CMSIS_DSP/FilteringFunctions/arm_conv_fast_q31.c **** 
 633              	 .loc 1 339 0
 634 038a 51F80409 	 ldr r0,[r1],#-4
 348:../Dave/Generated/CMSIS_DSP/FilteringFunctions/arm_conv_fast_q31.c ****         /* acc2 +=  x[6] * y[srcBLen - 5] */
 635              	 .loc 1 348 0
 636 038e CDF894E0 	 str lr,[sp,#148]
 346:../Dave/Generated/CMSIS_DSP/FilteringFunctions/arm_conv_fast_q31.c ****         /* acc1 +=  x[5] * y[srcBLen - 5] */
 637              	 .loc 1 346 0
 638 0392 4FF0000A 	 mov r10,#0
 339:../Dave/Generated/CMSIS_DSP/FilteringFunctions/arm_conv_fast_q31.c **** 
 639              	 .loc 1 339 0
 640 0396 0091     	 str r1,[sp]
 641              	.LVL91:
 348:../Dave/Generated/CMSIS_DSP/FilteringFunctions/arm_conv_fast_q31.c ****         /* acc2 +=  x[6] * y[srcBLen - 5] */
 642              	 .loc 1 348 0
 643 0398 CDF890A0 	 str r10,[sp,#144]
 342:../Dave/Generated/CMSIS_DSP/FilteringFunctions/arm_conv_fast_q31.c **** 
 644              	 .loc 1 342 0
 645 039c 54F8041B 	 ldr r1,[r4],#4
 646              	.LVL92:
 352:../Dave/Generated/CMSIS_DSP/FilteringFunctions/arm_conv_fast_q31.c **** 
 647              	 .loc 1 352 0
 648 03a0 2995     	 str r5,[sp,#164]
 342:../Dave/Generated/CMSIS_DSP/FilteringFunctions/arm_conv_fast_q31.c **** 
 649              	 .loc 1 342 0
 650 03a2 0494     	 str r4,[sp,#16]
 651              	.LVL93:
 348:../Dave/Generated/CMSIS_DSP/FilteringFunctions/arm_conv_fast_q31.c ****         /* acc2 +=  x[6] * y[srcBLen - 5] */
 652              	 .loc 1 348 0
 653 03a4 DDE92445 	 ldrd r4,[sp,#144]
 654              	.LVL94:
 346:../Dave/Generated/CMSIS_DSP/FilteringFunctions/arm_conv_fast_q31.c ****         /* acc1 +=  x[5] * y[srcBLen - 5] */
 655              	 .loc 1 346 0
 656 03a8 B146     	 mov r9,r6
 657 03aa D046     	 mov r8,r10
 348:../Dave/Generated/CMSIS_DSP/FilteringFunctions/arm_conv_fast_q31.c ****         /* acc2 +=  x[6] * y[srcBLen - 5] */
 658              	 .loc 1 348 0
 659 03ac CCFB0045 	 smlal r4,r5,ip,r0
 346:../Dave/Generated/CMSIS_DSP/FilteringFunctions/arm_conv_fast_q31.c ****         /* acc1 +=  x[5] * y[srcBLen - 5] */
 660              	 .loc 1 346 0
 661 03b0 C0FB0789 	 smlal r8,r9,r0,r7
 350:../Dave/Generated/CMSIS_DSP/FilteringFunctions/arm_conv_fast_q31.c ****         /* acc3 +=  x[7] * y[srcBLen - 5] */
 662              	 .loc 1 350 0
 663 03b4 CDF898A0 	 str r10,[sp,#152]
 352:../Dave/Generated/CMSIS_DSP/FilteringFunctions/arm_conv_fast_q31.c **** 
 664              	 .loc 1 352 0
 665 03b8 CDF8A0A0 	 str r10,[sp,#160]
 346:../Dave/Generated/CMSIS_DSP/FilteringFunctions/arm_conv_fast_q31.c ****         /* acc1 +=  x[5] * y[srcBLen - 5] */
 666              	 .loc 1 346 0
 667 03bc B346     	 mov fp,r6
 348:../Dave/Generated/CMSIS_DSP/FilteringFunctions/arm_conv_fast_q31.c ****         /* acc2 +=  x[6] * y[srcBLen - 5] */
 668              	 .loc 1 348 0
 669 03be AE46     	 mov lr,r5
 670              	.LVL95:
 346:../Dave/Generated/CMSIS_DSP/FilteringFunctions/arm_conv_fast_q31.c ****         /* acc1 +=  x[5] * y[srcBLen - 5] */
 671              	 .loc 1 346 0
 672 03c0 4E46     	 mov r6,r9
 673              	.LVL96:
 350:../Dave/Generated/CMSIS_DSP/FilteringFunctions/arm_conv_fast_q31.c ****         /* acc3 +=  x[7] * y[srcBLen - 5] */
 674              	 .loc 1 350 0
 675 03c2 DDE92645 	 ldrd r4,[sp,#152]
 352:../Dave/Generated/CMSIS_DSP/FilteringFunctions/arm_conv_fast_q31.c **** 
 676              	 .loc 1 352 0
 677 03c6 DDE92889 	 ldrd r8,[sp,#160]
 350:../Dave/Generated/CMSIS_DSP/FilteringFunctions/arm_conv_fast_q31.c ****         /* acc3 +=  x[7] * y[srcBLen - 5] */
 678              	 .loc 1 350 0
 679 03ca C3FB0045 	 smlal r4,r5,r3,r0
 352:../Dave/Generated/CMSIS_DSP/FilteringFunctions/arm_conv_fast_q31.c **** 
 680              	 .loc 1 352 0
 681 03ce C1FB0089 	 smlal r8,r9,r1,r0
 336:../Dave/Generated/CMSIS_DSP/FilteringFunctions/arm_conv_fast_q31.c ****       {
 682              	 .loc 1 336 0
 683 03d2 013A     	 subs r2,r2,#1
 684              	.LVL97:
 685 03d4 6746     	 mov r7,ip
 686              	.LVL98:
 350:../Dave/Generated/CMSIS_DSP/FilteringFunctions/arm_conv_fast_q31.c ****         /* acc3 +=  x[7] * y[srcBLen - 5] */
 687              	 .loc 1 350 0
 688 03d6 2C46     	 mov r4,r5
 689              	.LVL99:
 690 03d8 9C46     	 mov ip,r3
 691              	.LVL100:
 352:../Dave/Generated/CMSIS_DSP/FilteringFunctions/arm_conv_fast_q31.c **** 
 692              	 .loc 1 352 0
 693 03da 4D46     	 mov r5,r9
 694              	.LVL101:
 357:../Dave/Generated/CMSIS_DSP/FilteringFunctions/arm_conv_fast_q31.c **** 
 695              	 .loc 1 357 0
 696 03dc 0B46     	 mov r3,r1
 697              	.LVL102:
 336:../Dave/Generated/CMSIS_DSP/FilteringFunctions/arm_conv_fast_q31.c ****       {
 698              	 .loc 1 336 0
 699 03de D1D1     	 bne .L25
 700 03e0 CDE93CAB 	 strd r10,[sp,#240]
 701 03e4 7046     	 mov r0,lr
 702              	.LVL103:
 703              	.L24:
 364:../Dave/Generated/CMSIS_DSP/FilteringFunctions/arm_conv_fast_q31.c ****       *pOut++ = (q31_t) (acc1 << 1);
 704              	 .loc 1 364 0
 705 03e6 3B9A     	 ldr r2,[sp,#236]
 706 03e8 7600     	 lsls r6,r6,#1
 365:../Dave/Generated/CMSIS_DSP/FilteringFunctions/arm_conv_fast_q31.c ****       *pOut++ = (q31_t) (acc2 << 1);
 707              	 .loc 1 365 0
 708 03ea 4000     	 lsls r0,r0,#1
 366:../Dave/Generated/CMSIS_DSP/FilteringFunctions/arm_conv_fast_q31.c ****       *pOut++ = (q31_t) (acc3 << 1);
 709              	 .loc 1 366 0
 710 03ec 6400     	 lsls r4,r4,#1
 367:../Dave/Generated/CMSIS_DSP/FilteringFunctions/arm_conv_fast_q31.c **** 
 711              	 .loc 1 367 0
 712 03ee 6D00     	 lsls r5,r5,#1
 364:../Dave/Generated/CMSIS_DSP/FilteringFunctions/arm_conv_fast_q31.c ****       *pOut++ = (q31_t) (acc1 << 1);
 713              	 .loc 1 364 0
 714 03f0 1346     	 mov r3,r2
 715              	.LVL104:
 716 03f2 42F8106C 	 str r6,[r2,#-16]
 365:../Dave/Generated/CMSIS_DSP/FilteringFunctions/arm_conv_fast_q31.c ****       *pOut++ = (q31_t) (acc2 << 1);
 717              	 .loc 1 365 0
 718 03f6 42F80C0C 	 str r0,[r2,#-12]
 366:../Dave/Generated/CMSIS_DSP/FilteringFunctions/arm_conv_fast_q31.c ****       *pOut++ = (q31_t) (acc3 << 1);
 719              	 .loc 1 366 0
 720 03fa 42F8084C 	 str r4,[r2,#-8]
 367:../Dave/Generated/CMSIS_DSP/FilteringFunctions/arm_conv_fast_q31.c **** 
 721              	 .loc 1 367 0
 722 03fe 42F8045C 	 str r5,[r2,#-4]
 723              	.LVL105:
 724 0402 349A     	 ldr r2,[sp,#208]
 725 0404 1032     	 adds r2,r2,#16
 726 0406 3492     	 str r2,[sp,#208]
 727              	.LVL106:
 242:../Dave/Generated/CMSIS_DSP/FilteringFunctions/arm_conv_fast_q31.c ****     {
 728              	 .loc 1 242 0
 729 0408 429A     	 ldr r2,[sp,#264]
 730              	.LVL107:
 731 040a 1033     	 adds r3,r3,#16
 732 040c 9342     	 cmp r3,r2
 733 040e 3B93     	 str r3,[sp,#236]
 734 0410 7FF4E8AE 	 bne .L26
 735 0414 499B     	 ldr r3,[sp,#292]
 736 0416 A3F11000 	 sub r0,r3,#16
 737 041a 629B     	 ldr r3,[sp,#392]
 738 041c 0344     	 add r3,r3,r0
 739 041e 6293     	 str r3,[sp,#392]
 740 0420 329B     	 ldr r3,[sp,#200]
 741 0422 1844     	 add r0,r0,r3
 742 0424 489B     	 ldr r3,[sp,#288]
 743 0426 9E00     	 lsls r6,r3,#2
 744              	.LVL108:
 745              	.L21:
 384:../Dave/Generated/CMSIS_DSP/FilteringFunctions/arm_conv_fast_q31.c ****     {
 746              	 .loc 1 384 0
 747 0428 479B     	 ldr r3,[sp,#284]
 748 042a 13F0030E 	 ands lr,r3,#3
 749              	.LVL109:
 750 042e 00F00781 	 beq .L41
 751 0432 3A9A     	 ldr r2,[sp,#232]
 752 0434 329B     	 ldr r3,[sp,#200]
 753 0436 0136     	 adds r6,r6,#1
 754              	.LVL110:
 755 0438 4FEA920C 	 lsr ip,r2,#2
 756 043c 03EB8606 	 add r6,r3,r6,lsl#2
 757              	.LVL111:
 758 0440 02F00307 	 and r7,r2,#3
 759 0444 629B     	 ldr r3,[sp,#392]
 760 0446 339A     	 ldr r2,[sp,#204]
 761 0448 CDF828C0 	 str ip,[sp,#40]
 762 044c 03EB8E0E 	 add lr,r3,lr,lsl#2
 763              	.LVL112:
 764 0450 4FEA0C18 	 lsl r8,ip,#4
 765 0454 A2EB0C19 	 sub r9,r2,ip,lsl#4
 766 0458 A2F11003 	 sub r3,r2,#16
 767 045c 3893     	 str r3,[sp,#224]
 768 045e CDF818E0 	 str lr,[sp,#24]
 769 0462 0096     	 str r6,[sp]
 770 0464 CDF82080 	 str r8,[sp,#32]
 771 0468 8446     	 mov ip,r0
 772 046a 0C97     	 str r7,[sp,#48]
 773 046c CDF83890 	 str r9,[sp,#56]
 774              	.LVL113:
 775              	.L30:
 387:../Dave/Generated/CMSIS_DSP/FilteringFunctions/arm_conv_fast_q31.c **** 
 776              	 .loc 1 387 0
 777 0470 0026     	 movs r6,#0
 778 0472 389B     	 ldr r3,[sp,#224]
 390:../Dave/Generated/CMSIS_DSP/FilteringFunctions/arm_conv_fast_q31.c **** 
 779              	 .loc 1 390 0
 780 0474 DDF828E0 	 ldr lr,[sp,#40]
 781 0478 0CF11002 	 add r2,ip,#16
 387:../Dave/Generated/CMSIS_DSP/FilteringFunctions/arm_conv_fast_q31.c **** 
 782              	 .loc 1 387 0
 783 047c 3446     	 mov r4,r6
 784              	.LVL114:
 785              	.L27:
 397:../Dave/Generated/CMSIS_DSP/FilteringFunctions/arm_conv_fast_q31.c ****                         ((q63_t) * px++ * (*py--))) >> 32);
 786              	 .loc 1 397 0
 787 047e 0020     	 movs r0,#0
 398:../Dave/Generated/CMSIS_DSP/FilteringFunctions/arm_conv_fast_q31.c ****         sum = (q31_t) ((((q63_t) sum << 32) +
 788              	 .loc 1 398 0
 789 0480 52F8105C 	 ldr r5,[r2,#-16]
 790              	.LVL115:
 399:../Dave/Generated/CMSIS_DSP/FilteringFunctions/arm_conv_fast_q31.c ****                         ((q63_t) * px++ * (*py--))) >> 32);
 791              	 .loc 1 399 0
 792 0484 2A90     	 str r0,[sp,#168]
 397:../Dave/Generated/CMSIS_DSP/FilteringFunctions/arm_conv_fast_q31.c ****                         ((q63_t) * px++ * (*py--))) >> 32);
 793              	 .loc 1 397 0
 794 0486 2146     	 mov r1,r4
 398:../Dave/Generated/CMSIS_DSP/FilteringFunctions/arm_conv_fast_q31.c ****         sum = (q31_t) ((((q63_t) sum << 32) +
 795              	 .loc 1 398 0
 796 0488 1C69     	 ldr r4,[r3,#16]
 797              	.LVL116:
 397:../Dave/Generated/CMSIS_DSP/FilteringFunctions/arm_conv_fast_q31.c ****                         ((q63_t) * px++ * (*py--))) >> 32);
 798              	 .loc 1 397 0
 799 048a 0646     	 mov r6,r0
 800 048c 0F46     	 mov r7,r1
 801 048e C4FB0567 	 smlal r6,r7,r4,r5
 802              	.LVL117:
 399:../Dave/Generated/CMSIS_DSP/FilteringFunctions/arm_conv_fast_q31.c ****                         ((q63_t) * px++ * (*py--))) >> 32);
 803              	 .loc 1 399 0
 804 0492 2B97     	 str r7,[sp,#172]
 805 0494 DDE92A67 	 ldrd r6,[sp,#168]
 400:../Dave/Generated/CMSIS_DSP/FilteringFunctions/arm_conv_fast_q31.c ****         sum = (q31_t) ((((q63_t) sum << 32) +
 806              	 .loc 1 400 0
 807 0498 DC68     	 ldr r4,[r3,#12]
 399:../Dave/Generated/CMSIS_DSP/FilteringFunctions/arm_conv_fast_q31.c ****                         ((q63_t) * px++ * (*py--))) >> 32);
 808              	 .loc 1 399 0
 809 049a 52F80C5C 	 ldr r5,[r2,#-12]
 810 049e C4FB0567 	 smlal r6,r7,r4,r5
 811              	.LVL118:
 402:../Dave/Generated/CMSIS_DSP/FilteringFunctions/arm_conv_fast_q31.c ****         sum = (q31_t) ((((q63_t) sum << 32) +
 812              	 .loc 1 402 0
 813 04a2 9C68     	 ldr r4,[r3,#8]
 401:../Dave/Generated/CMSIS_DSP/FilteringFunctions/arm_conv_fast_q31.c ****                         ((q63_t) * px++ * (*py--))) >> 32);
 814              	 .loc 1 401 0
 815 04a4 52F8085C 	 ldr r5,[r2,#-8]
 816 04a8 0646     	 mov r6,r0
 817 04aa C4FB0567 	 smlal r6,r7,r4,r5
 818              	.LVL119:
 819 04ae 8246     	 mov r10,r0
 404:../Dave/Generated/CMSIS_DSP/FilteringFunctions/arm_conv_fast_q31.c **** 
 820              	 .loc 1 404 0
 821 04b0 5C68     	 ldr r4,[r3,#4]
 403:../Dave/Generated/CMSIS_DSP/FilteringFunctions/arm_conv_fast_q31.c ****                         ((q63_t) * px++ * (*py--))) >> 32);
 822              	 .loc 1 403 0
 823 04b2 52F8045C 	 ldr r5,[r2,#-4]
 824 04b6 5646     	 mov r6,r10
 825 04b8 C4FB0567 	 smlal r6,r7,r4,r5
 394:../Dave/Generated/CMSIS_DSP/FilteringFunctions/arm_conv_fast_q31.c ****       {
 826              	 .loc 1 394 0
 827 04bc BEF1010E 	 subs lr,lr,#1
 828              	.LVL120:
 829 04c0 02F11002 	 add r2,r2,#16
 830              	.LVL121:
 403:../Dave/Generated/CMSIS_DSP/FilteringFunctions/arm_conv_fast_q31.c ****                         ((q63_t) * px++ * (*py--))) >> 32);
 831              	 .loc 1 403 0
 832 04c4 3C46     	 mov r4,r7
 833              	.LVL122:
 834 04c6 A3F11003 	 sub r3,r3,#16
 835              	.LVL123:
 394:../Dave/Generated/CMSIS_DSP/FilteringFunctions/arm_conv_fast_q31.c ****       {
 836              	 .loc 1 394 0
 837 04ca D8D1     	 bne .L27
 838 04cc 089B     	 ldr r3,[sp,#32]
 839              	.LVL124:
 840 04ce 0CEB030E 	 add lr,ip,r3
 841              	.LVL125:
 414:../Dave/Generated/CMSIS_DSP/FilteringFunctions/arm_conv_fast_q31.c ****       {
 842              	 .loc 1 414 0
 843 04d2 0C9B     	 ldr r3,[sp,#48]
 844 04d4 3E46     	 mov r6,r7
 845              	.LVL126:
 846 04d6 9BB1     	 cbz r3,.L28
 847              	.LVL127:
 848 04d8 CDE90401 	 strd r0,[sp,#16]
 849 04dc DDF838C0 	 ldr ip,[sp,#56]
 850 04e0 1F46     	 mov r7,r3
 851              	.LVL128:
 852              	.L29:
 418:../Dave/Generated/CMSIS_DSP/FilteringFunctions/arm_conv_fast_q31.c **** 
 853              	 .loc 1 418 0
 854 04e2 5EF8042B 	 ldr r2,[lr],#4
 855              	.LVL129:
 856 04e6 5CF80439 	 ldr r3,[ip],#-4
 857              	.LVL130:
 417:../Dave/Generated/CMSIS_DSP/FilteringFunctions/arm_conv_fast_q31.c ****                         ((q63_t) * px++ * (*py--))) >> 32);
 858              	 .loc 1 417 0
 859 04ea 0024     	 movs r4,#0
 860 04ec 3146     	 mov r1,r6
 861 04ee 2046     	 mov r0,r4
 862 04f0 C3FB0201 	 smlal r0,r1,r3,r2
 414:../Dave/Generated/CMSIS_DSP/FilteringFunctions/arm_conv_fast_q31.c ****       {
 863              	 .loc 1 414 0
 864 04f4 013F     	 subs r7,r7,#1
 865              	.LVL131:
 417:../Dave/Generated/CMSIS_DSP/FilteringFunctions/arm_conv_fast_q31.c ****                         ((q63_t) * px++ * (*py--))) >> 32);
 866              	 .loc 1 417 0
 867 04f6 3546     	 mov r5,r6
 868 04f8 0E46     	 mov r6,r1
 869              	.LVL132:
 414:../Dave/Generated/CMSIS_DSP/FilteringFunctions/arm_conv_fast_q31.c ****       {
 870              	 .loc 1 414 0
 871 04fa F2D1     	 bne .L29
 872 04fc CDE93E45 	 strd r4,[sp,#248]
 873              	.LVL133:
 874              	.L28:
 425:../Dave/Generated/CMSIS_DSP/FilteringFunctions/arm_conv_fast_q31.c **** 
 875              	 .loc 1 425 0
 876 0500 629B     	 ldr r3,[sp,#392]
 384:../Dave/Generated/CMSIS_DSP/FilteringFunctions/arm_conv_fast_q31.c ****     {
 877              	 .loc 1 384 0
 878 0502 069A     	 ldr r2,[sp,#24]
 425:../Dave/Generated/CMSIS_DSP/FilteringFunctions/arm_conv_fast_q31.c **** 
 879              	 .loc 1 425 0
 880 0504 7600     	 lsls r6,r6,#1
 881 0506 43F8046B 	 str r6,[r3],#4
 882 050a 6293     	 str r3,[sp,#392]
 883              	.LVL134:
 431:../Dave/Generated/CMSIS_DSP/FilteringFunctions/arm_conv_fast_q31.c ****       py = pSrc2;
 884              	 .loc 1 431 0
 885 050c 009B     	 ldr r3,[sp]
 886              	.LVL135:
 887 050e 9C46     	 mov ip,r3
 888              	.LVL136:
 889 0510 0433     	 adds r3,r3,#4
 890              	.LVL137:
 891 0512 0093     	 str r3,[sp]
 384:../Dave/Generated/CMSIS_DSP/FilteringFunctions/arm_conv_fast_q31.c ****     {
 892              	 .loc 1 384 0
 893 0514 629B     	 ldr r3,[sp,#392]
 894 0516 9342     	 cmp r3,r2
 895 0518 AAD1     	 bne .L30
 896 051a 479B     	 ldr r3,[sp,#284]
 897 051c 9646     	 mov lr,r2
 898 051e 9E00     	 lsls r6,r3,#2
 899              	.LVL138:
 900              	.L11:
 493:../Dave/Generated/CMSIS_DSP/FilteringFunctions/arm_conv_fast_q31.c ****   px = pSrc1;
 901              	 .loc 1 493 0
 902 0520 329B     	 ldr r3,[sp,#200]
 903 0522 3344     	 add r3,r3,r6
 904 0524 1E46     	 mov r6,r3
 905              	.LVL139:
 504:../Dave/Generated/CMSIS_DSP/FilteringFunctions/arm_conv_fast_q31.c ****   {
 906              	 .loc 1 504 0
 907 0526 319B     	 ldr r3,[sp,#196]
 908              	.LVL140:
 909 0528 002B     	 cmp r3,#0
 910 052a 3FF438AE 	 beq .L1
 911              	.LVL141:
 912              	.L78:
 913 052e 4AAB     	 add r3,sp,#296
 914 0530 D3E90001 	 ldrd r0,[r3]
 915 0534 319B     	 ldr r3,[sp,#196]
 916 0536 CDF810E0 	 str lr,[sp,#16]
 917              	.LVL142:
 514:../Dave/Generated/CMSIS_DSP/FilteringFunctions/arm_conv_fast_q31.c ****     {
 918              	 .loc 1 514 0
 919 053a 9B08     	 lsrs r3,r3,#2
 920              	.LVL143:
 921 053c 0096     	 str r6,[sp]
 922              	.LVL144:
 923 053e 1C46     	 mov r4,r3
 924 0540 9C46     	 mov ip,r3
 925 0542 60D0     	 beq .L42
 926              	.L80:
 927 0544 009B     	 ldr r3,[sp]
 928              	.LVL145:
 929 0546 03F11002 	 add r2,r3,#16
 930 054a 339B     	 ldr r3,[sp,#204]
 931 054c 0026     	 movs r6,#0
 932 054e A646     	 mov lr,r4
 933 0550 103B     	 subs r3,r3,#16
 934 0552 3446     	 mov r4,r6
 935              	.LVL146:
 936              	.L33:
 517:../Dave/Generated/CMSIS_DSP/FilteringFunctions/arm_conv_fast_q31.c ****                       ((q63_t) * px++ * (*py--))) >> 32);
 937              	 .loc 1 517 0
 938 0554 0020     	 movs r0,#0
 518:../Dave/Generated/CMSIS_DSP/FilteringFunctions/arm_conv_fast_q31.c **** 
 939              	 .loc 1 518 0
 940 0556 52F8105C 	 ldr r5,[r2,#-16]
 941              	.LVL147:
 521:../Dave/Generated/CMSIS_DSP/FilteringFunctions/arm_conv_fast_q31.c ****                       ((q63_t) * px++ * (*py--))) >> 32);
 942              	 .loc 1 521 0
 943 055a 0290     	 str r0,[sp,#8]
 517:../Dave/Generated/CMSIS_DSP/FilteringFunctions/arm_conv_fast_q31.c ****                       ((q63_t) * px++ * (*py--))) >> 32);
 944              	 .loc 1 517 0
 945 055c 2146     	 mov r1,r4
 518:../Dave/Generated/CMSIS_DSP/FilteringFunctions/arm_conv_fast_q31.c **** 
 946              	 .loc 1 518 0
 947 055e 1C69     	 ldr r4,[r3,#16]
 948              	.LVL148:
 517:../Dave/Generated/CMSIS_DSP/FilteringFunctions/arm_conv_fast_q31.c ****                       ((q63_t) * px++ * (*py--))) >> 32);
 949              	 .loc 1 517 0
 950 0560 0646     	 mov r6,r0
 951 0562 0F46     	 mov r7,r1
 952 0564 C4FB0567 	 smlal r6,r7,r4,r5
 953              	.LVL149:
 521:../Dave/Generated/CMSIS_DSP/FilteringFunctions/arm_conv_fast_q31.c ****                       ((q63_t) * px++ * (*py--))) >> 32);
 954              	 .loc 1 521 0
 955 0568 0397     	 str r7,[sp,#12]
 956 056a DDE90267 	 ldrd r6,[sp,#8]
 522:../Dave/Generated/CMSIS_DSP/FilteringFunctions/arm_conv_fast_q31.c **** 
 957              	 .loc 1 522 0
 958 056e DC68     	 ldr r4,[r3,#12]
 521:../Dave/Generated/CMSIS_DSP/FilteringFunctions/arm_conv_fast_q31.c ****                       ((q63_t) * px++ * (*py--))) >> 32);
 959              	 .loc 1 521 0
 960 0570 52F80C5C 	 ldr r5,[r2,#-12]
 961 0574 C4FB0567 	 smlal r6,r7,r4,r5
 962              	.LVL150:
 526:../Dave/Generated/CMSIS_DSP/FilteringFunctions/arm_conv_fast_q31.c **** 
 963              	 .loc 1 526 0
 964 0578 9C68     	 ldr r4,[r3,#8]
 525:../Dave/Generated/CMSIS_DSP/FilteringFunctions/arm_conv_fast_q31.c ****                       ((q63_t) * px++ * (*py--))) >> 32);
 965              	 .loc 1 525 0
 966 057a 52F8085C 	 ldr r5,[r2,#-8]
 967 057e 0646     	 mov r6,r0
 968 0580 C4FB0567 	 smlal r6,r7,r4,r5
 969              	.LVL151:
 970 0584 8246     	 mov r10,r0
 530:../Dave/Generated/CMSIS_DSP/FilteringFunctions/arm_conv_fast_q31.c **** 
 971              	 .loc 1 530 0
 972 0586 5C68     	 ldr r4,[r3,#4]
 529:../Dave/Generated/CMSIS_DSP/FilteringFunctions/arm_conv_fast_q31.c ****                       ((q63_t) * px++ * (*py--))) >> 32);
 973              	 .loc 1 529 0
 974 0588 52F8045C 	 ldr r5,[r2,#-4]
 975 058c 5646     	 mov r6,r10
 976 058e C4FB0567 	 smlal r6,r7,r4,r5
 514:../Dave/Generated/CMSIS_DSP/FilteringFunctions/arm_conv_fast_q31.c ****     {
 977              	 .loc 1 514 0
 978 0592 BEF1010E 	 subs lr,lr,#1
 979              	.LVL152:
 980 0596 02F11002 	 add r2,r2,#16
 981              	.LVL153:
 529:../Dave/Generated/CMSIS_DSP/FilteringFunctions/arm_conv_fast_q31.c ****                       ((q63_t) * px++ * (*py--))) >> 32);
 982              	 .loc 1 529 0
 983 059a 3C46     	 mov r4,r7
 984              	.LVL154:
 985 059c A3F11003 	 sub r3,r3,#16
 986              	.LVL155:
 514:../Dave/Generated/CMSIS_DSP/FilteringFunctions/arm_conv_fast_q31.c ****     {
 987              	 .loc 1 514 0
 988 05a0 D8D1     	 bne .L33
 989 05a2 009B     	 ldr r3,[sp]
 990              	.LVL156:
 991 05a4 1C46     	 mov r4,r3
 992 05a6 339B     	 ldr r3,[sp,#204]
 993 05a8 6246     	 mov r2,ip
 994              	.LVL157:
 995 05aa 04EB0C1C 	 add ip,r4,ip,lsl#4
 996 05ae 1C46     	 mov r4,r3
 997 05b0 3E46     	 mov r6,r7
 998 05b2 A4EB021E 	 sub lr,r4,r2,lsl#4
 999              	.L32:
 1000              	.LVL158:
 540:../Dave/Generated/CMSIS_DSP/FilteringFunctions/arm_conv_fast_q31.c ****     {
 1001              	 .loc 1 540 0
 1002 05b6 319B     	 ldr r3,[sp,#196]
 1003 05b8 13F00307 	 ands r7,r3,#3
 1004              	.LVL159:
 1005 05bc 12D0     	 beq .L34
 1006 05be CDE90601 	 strd r0,[sp,#24]
 1007              	.LVL160:
 1008              	.L35:
 544:../Dave/Generated/CMSIS_DSP/FilteringFunctions/arm_conv_fast_q31.c **** 
 1009              	 .loc 1 544 0
 1010 05c2 5CF8042B 	 ldr r2,[ip],#4
 1011              	.LVL161:
 1012 05c6 5EF80439 	 ldr r3,[lr],#-4
 1013              	.LVL162:
 543:../Dave/Generated/CMSIS_DSP/FilteringFunctions/arm_conv_fast_q31.c ****                       ((q63_t) * px++ * (*py--))) >> 32);
 1014              	 .loc 1 543 0
 1015 05ca 0024     	 movs r4,#0
 1016 05cc 3146     	 mov r1,r6
 1017 05ce 2046     	 mov r0,r4
 1018 05d0 C3FB0201 	 smlal r0,r1,r3,r2
 540:../Dave/Generated/CMSIS_DSP/FilteringFunctions/arm_conv_fast_q31.c ****     {
 1019              	 .loc 1 540 0
 1020 05d4 013F     	 subs r7,r7,#1
 1021              	.LVL163:
 543:../Dave/Generated/CMSIS_DSP/FilteringFunctions/arm_conv_fast_q31.c ****                       ((q63_t) * px++ * (*py--))) >> 32);
 1022              	 .loc 1 543 0
 1023 05d6 3546     	 mov r5,r6
 1024 05d8 0E46     	 mov r6,r1
 1025              	.LVL164:
 540:../Dave/Generated/CMSIS_DSP/FilteringFunctions/arm_conv_fast_q31.c ****     {
 1026              	 .loc 1 540 0
 1027 05da F2D1     	 bne .L35
 1028 05dc DDE90601 	 ldrd r0,[sp,#24]
 1029 05e0 CDE93645 	 strd r4,[sp,#216]
 1030              	.L34:
 1031              	.LVL165:
 551:../Dave/Generated/CMSIS_DSP/FilteringFunctions/arm_conv_fast_q31.c **** 
 1032              	 .loc 1 551 0
 1033 05e4 049B     	 ldr r3,[sp,#16]
 1034 05e6 7600     	 lsls r6,r6,#1
 1035 05e8 43F8046B 	 str r6,[r3],#4
 1036 05ec 0493     	 str r3,[sp,#16]
 1037              	.LVL166:
 554:../Dave/Generated/CMSIS_DSP/FilteringFunctions/arm_conv_fast_q31.c ****     py = pSrc2;
 1038              	 .loc 1 554 0
 1039 05ee 009B     	 ldr r3,[sp]
 1040              	.LVL167:
 1041 05f0 0433     	 adds r3,r3,#4
 1042 05f2 0093     	 str r3,[sp]
 1043              	.LVL168:
 504:../Dave/Generated/CMSIS_DSP/FilteringFunctions/arm_conv_fast_q31.c ****   {
 1044              	 .loc 1 504 0
 1045 05f4 319B     	 ldr r3,[sp,#196]
 1046              	.LVL169:
 1047 05f6 013B     	 subs r3,r3,#1
 1048              	.LVL170:
 1049 05f8 3193     	 str r3,[sp,#196]
 1050 05fa 3FF4D0AD 	 beq .L1
 1051              	.LVL171:
 514:../Dave/Generated/CMSIS_DSP/FilteringFunctions/arm_conv_fast_q31.c ****     {
 1052              	 .loc 1 514 0
 1053 05fe 9B08     	 lsrs r3,r3,#2
 1054              	.LVL172:
 1055 0600 1C46     	 mov r4,r3
 1056 0602 9C46     	 mov ip,r3
 1057 0604 9ED1     	 bne .L80
 1058              	.LVL173:
 1059              	.L42:
 507:../Dave/Generated/CMSIS_DSP/FilteringFunctions/arm_conv_fast_q31.c **** 
 1060              	 .loc 1 507 0
 1061 0606 1E46     	 mov r6,r3
 224:../Dave/Generated/CMSIS_DSP/FilteringFunctions/arm_conv_fast_q31.c ****   py = pSrc2;
 1062              	 .loc 1 224 0
 1063 0608 DDF8CCE0 	 ldr lr,[sp,#204]
 514:../Dave/Generated/CMSIS_DSP/FilteringFunctions/arm_conv_fast_q31.c ****     {
 1064              	 .loc 1 514 0
 1065 060c DDF800C0 	 ldr ip,[sp]
 1066 0610 D1E7     	 b .L32
 1067              	.LVL174:
 1068              	.L39:
 1069 0612 1E46     	 mov r6,r3
 444:../Dave/Generated/CMSIS_DSP/FilteringFunctions/arm_conv_fast_q31.c ****     {
 1070              	 .loc 1 444 0
 1071 0614 DDF888E1 	 ldr lr,[sp,#392]
 1072 0618 82E7     	 b .L11
 1073              	.LVL175:
 1074              	.L40:
 1075 061a 1E46     	 mov r6,r3
 221:../Dave/Generated/CMSIS_DSP/FilteringFunctions/arm_conv_fast_q31.c **** 
 1076              	 .loc 1 221 0
 1077 061c 3298     	 ldr r0,[sp,#200]
 1078 061e 03E7     	 b .L21
 1079              	.LVL176:
 1080              	.L76:
 1081 0620 3A9B     	 ldr r3,[sp,#232]
 1082 0622 03F18043 	 add r3,r3,#1073741824
 1083 0626 013B     	 subs r3,r3,#1
 1084 0628 73E5     	 b .L3
 1085              	.LVL177:
 1086              	.L12:
 463:../Dave/Generated/CMSIS_DSP/FilteringFunctions/arm_conv_fast_q31.c **** 
 1087              	 .loc 1 463 0
 1088 062a 479B     	 ldr r3,[sp,#284]
 1089              	.LVL178:
 1090 062c 6298     	 ldr r0,[sp,#392]
 1091 062e 9E00     	 lsls r6,r3,#2
 1092 0630 1146     	 mov r1,r2
 1093 0632 3246     	 mov r2,r6
 1094 0634 FFF7FEFF 	 bl memset
 1095              	.LVL179:
 1096 0638 629B     	 ldr r3,[sp,#392]
 1097 063a 03EB060E 	 add lr,r3,r6
 1098 063e 6FE7     	 b .L11
 1099              	.LVL180:
 1100              	.L41:
 384:../Dave/Generated/CMSIS_DSP/FilteringFunctions/arm_conv_fast_q31.c ****     {
 1101              	 .loc 1 384 0
 1102 0640 DDF888E1 	 ldr lr,[sp,#392]
 1103              	.LVL181:
 1104 0644 9E00     	 lsls r6,r3,#2
 1105              	.LVL182:
 1106 0646 6BE7     	 b .L11
 1107              	.LVL183:
 1108              	.L14:
 1109 0648 479B     	 ldr r3,[sp,#284]
 1110              	.LVL184:
 1111 064a 339C     	 ldr r4,[sp,#204]
 1112 064c 6298     	 ldr r0,[sp,#392]
 1113 064e 9E00     	 lsls r6,r3,#2
 1114 0650 629B     	 ldr r3,[sp,#392]
 1115 0652 03EB060E 	 add lr,r3,r6
 1116 0656 329B     	 ldr r3,[sp,#200]
 1117 0658 191F     	 subs r1,r3,#4
 1118              	.LVL185:
 1119              	.L16:
 456:../Dave/Generated/CMSIS_DSP/FilteringFunctions/arm_conv_fast_q31.c **** 
 1120              	 .loc 1 456 0
 1121 065a 51F8043F 	 ldr r3,[r1,#4]!
 1122              	.LVL186:
 1123 065e 2268     	 ldr r2,[r4]
 1124              	.LVL187:
 1125 0660 83FB0223 	 smull r2,r3,r3,r2
 1126              	.LVL188:
 1127 0664 5B00     	 lsls r3,r3,#1
 1128              	.LVL189:
 463:../Dave/Generated/CMSIS_DSP/FilteringFunctions/arm_conv_fast_q31.c **** 
 1129              	 .loc 1 463 0
 1130 0666 40F8043B 	 str r3,[r0],#4
 1131              	.LVL190:
 444:../Dave/Generated/CMSIS_DSP/FilteringFunctions/arm_conv_fast_q31.c ****     {
 1132              	 .loc 1 444 0
 1133 066a 7045     	 cmp r0,lr
 1134 066c F5D1     	 bne .L16
 1135 066e 57E7     	 b .L11
 1136              	.LVL191:
 1137              	.L13:
 1138 0670 319B     	 ldr r3,[sp,#196]
 1139              	.LVL192:
 1140 0672 EBB1     	 cbz r3,.L81
 1141 0674 479B     	 ldr r3,[sp,#284]
 1142 0676 329C     	 ldr r4,[sp,#200]
 1143 0678 3398     	 ldr r0,[sp,#204]
 1144 067a 9E00     	 lsls r6,r3,#2
 1145 067c 629B     	 ldr r3,[sp,#392]
 1146 067e 03EB060E 	 add lr,r3,r6
 1147 0682 1946     	 mov r1,r3
 1148              	.LVL193:
 1149              	.L20:
 456:../Dave/Generated/CMSIS_DSP/FilteringFunctions/arm_conv_fast_q31.c **** 
 1150              	 .loc 1 456 0
 1151 0684 2268     	 ldr r2,[r4]
 1152              	.LVL194:
 1153 0686 0368     	 ldr r3,[r0]
 1154              	.LVL195:
 1155 0688 54F8047F 	 ldr r7,[r4,#4]!
 1156              	.LVL196:
 1157 068c 50F8045C 	 ldr r5,[r0,#-4]
 1158              	.LVL197:
 455:../Dave/Generated/CMSIS_DSP/FilteringFunctions/arm_conv_fast_q31.c ****                         ((q63_t) * px++ * (*py--))) >> 32);
 1159              	 .loc 1 455 0
 1160 0690 4FF00008 	 mov r8,#0
 456:../Dave/Generated/CMSIS_DSP/FilteringFunctions/arm_conv_fast_q31.c **** 
 1161              	 .loc 1 456 0
 1162 0694 82FB0323 	 smull r2,r3,r2,r3
 1163              	.LVL198:
 455:../Dave/Generated/CMSIS_DSP/FilteringFunctions/arm_conv_fast_q31.c ****                         ((q63_t) * px++ * (*py--))) >> 32);
 1164              	 .loc 1 455 0
 1165 0698 4246     	 mov r2,r8
 1166              	.LVL199:
 1167 069a C5FB0723 	 smlal r2,r3,r5,r7
 1168 069e 5B00     	 lsls r3,r3,#1
 1169              	.LVL200:
 463:../Dave/Generated/CMSIS_DSP/FilteringFunctions/arm_conv_fast_q31.c **** 
 1170              	 .loc 1 463 0
 1171 06a0 41F8043B 	 str r3,[r1],#4
 1172              	.LVL201:
 444:../Dave/Generated/CMSIS_DSP/FilteringFunctions/arm_conv_fast_q31.c ****     {
 1173              	 .loc 1 444 0
 1174 06a4 7145     	 cmp r1,lr
 1175 06a6 EDD1     	 bne .L20
 1176 06a8 3AE7     	 b .L11
 1177              	.LVL202:
 1178              	.L38:
 153:../Dave/Generated/CMSIS_DSP/FilteringFunctions/arm_conv_fast_q31.c **** 
 1179              	 .loc 1 153 0
 1180 06aa 3846     	 mov r0,r7
 160:../Dave/Generated/CMSIS_DSP/FilteringFunctions/arm_conv_fast_q31.c ****     {
 1181              	 .loc 1 160 0
 1182 06ac 329A     	 ldr r2,[sp,#200]
 1183 06ae 26E5     	 b .L5
 1184              	.LVL203:
 1185              	.L81:
 1186 06b0 479B     	 ldr r3,[sp,#284]
 1187 06b2 339C     	 ldr r4,[sp,#204]
 1188 06b4 6298     	 ldr r0,[sp,#392]
 1189 06b6 9E00     	 lsls r6,r3,#2
 1190 06b8 629B     	 ldr r3,[sp,#392]
 1191 06ba 03EB060E 	 add lr,r3,r6
 1192 06be 329B     	 ldr r3,[sp,#200]
 1193 06c0 191F     	 subs r1,r3,#4
 1194              	.LVL204:
 1195              	.L19:
 456:../Dave/Generated/CMSIS_DSP/FilteringFunctions/arm_conv_fast_q31.c **** 
 1196              	 .loc 1 456 0
 1197 06c2 51F8043F 	 ldr r3,[r1,#4]!
 1198              	.LVL205:
 1199 06c6 2268     	 ldr r2,[r4]
 1200              	.LVL206:
 1201 06c8 83FB0223 	 smull r2,r3,r3,r2
 1202              	.LVL207:
 1203 06cc 5B00     	 lsls r3,r3,#1
 1204              	.LVL208:
 463:../Dave/Generated/CMSIS_DSP/FilteringFunctions/arm_conv_fast_q31.c **** 
 1205              	 .loc 1 463 0
 1206 06ce 40F8043B 	 str r3,[r0],#4
 1207              	.LVL209:
 444:../Dave/Generated/CMSIS_DSP/FilteringFunctions/arm_conv_fast_q31.c ****     {
 1208              	 .loc 1 444 0
 1209 06d2 7045     	 cmp r0,lr
 1210 06d4 F5D1     	 bne .L19
 1211 06d6 23E7     	 b .L11
 1212              	 .cfi_endproc
 1213              	.LFE135:
 1215              	 .text
 1216              	.Letext0:
 1217              	 .file 2 "c:\\infineon\\tools\\dave ide\\4.5.0.202105191637\\eclipse\\arm-gcc-49\\arm-none-eabi\\include\\machine\\_default_types.h"
 1218              	 .file 3 "c:\\infineon\\tools\\dave ide\\4.5.0.202105191637\\eclipse\\arm-gcc-49\\arm-none-eabi\\include\\stdint.h"
 1219              	 .file 4 "C:/Users/Utente/Desktop/Tesi/Firmware_Software/DAVE project/S2GLP_Pulsed_Doppler/Dave/Generated/CMSIS_DSP/arm_math.h"