   1              	 .syntax unified
   2              	 .cpu cortex-m4
   3              	 .eabi_attribute 27,3
   4              	 .fpu fpv4-sp-d16
   5              	 .eabi_attribute 20,1
   6              	 .eabi_attribute 21,1
   7              	 .eabi_attribute 23,3
   8              	 .eabi_attribute 24,1
   9              	 .eabi_attribute 25,1
  10              	 .eabi_attribute 26,1
  11              	 .eabi_attribute 30,2
  12              	 .eabi_attribute 34,1
  13              	 .eabi_attribute 18,4
  14              	 .thumb
  15              	 .file "arm_biquad_cascade_df1_fast_q31.c"
  16              	 .text
  17              	.Ltext0:
  18              	 .cfi_sections .debug_frame
  19              	 .section .text.arm_biquad_cascade_df1_fast_q31,"ax",%progbits
  20              	 .align 2
  21              	 .global arm_biquad_cascade_df1_fast_q31
  22              	 .thumb
  23              	 .thumb_func
  25              	arm_biquad_cascade_df1_fast_q31:
  26              	.LFB135:
  27              	 .file 1 "../Dave/Generated/CMSIS_DSP/FilteringFunctions/arm_biquad_cascade_df1_fast_q31.c"
   1:../Dave/Generated/CMSIS_DSP/FilteringFunctions/arm_biquad_cascade_df1_fast_q31.c **** /* ----------------------------------------------------------------------
   2:../Dave/Generated/CMSIS_DSP/FilteringFunctions/arm_biquad_cascade_df1_fast_q31.c ****  * Project:      CMSIS DSP Library
   3:../Dave/Generated/CMSIS_DSP/FilteringFunctions/arm_biquad_cascade_df1_fast_q31.c ****  * Title:        arm_biquad_cascade_df1_fast_q31.c
   4:../Dave/Generated/CMSIS_DSP/FilteringFunctions/arm_biquad_cascade_df1_fast_q31.c ****  * Description:  Processing function for the Q31 Fast Biquad cascade DirectFormI(DF1) filter
   5:../Dave/Generated/CMSIS_DSP/FilteringFunctions/arm_biquad_cascade_df1_fast_q31.c ****  *
   6:../Dave/Generated/CMSIS_DSP/FilteringFunctions/arm_biquad_cascade_df1_fast_q31.c ****  * $Date:        27. January 2017
   7:../Dave/Generated/CMSIS_DSP/FilteringFunctions/arm_biquad_cascade_df1_fast_q31.c ****  * $Revision:    V.1.5.1
   8:../Dave/Generated/CMSIS_DSP/FilteringFunctions/arm_biquad_cascade_df1_fast_q31.c ****  *
   9:../Dave/Generated/CMSIS_DSP/FilteringFunctions/arm_biquad_cascade_df1_fast_q31.c ****  * Target Processor: Cortex-M cores
  10:../Dave/Generated/CMSIS_DSP/FilteringFunctions/arm_biquad_cascade_df1_fast_q31.c ****  * -------------------------------------------------------------------- */
  11:../Dave/Generated/CMSIS_DSP/FilteringFunctions/arm_biquad_cascade_df1_fast_q31.c **** /*
  12:../Dave/Generated/CMSIS_DSP/FilteringFunctions/arm_biquad_cascade_df1_fast_q31.c ****  * Copyright (C) 2010-2017 ARM Limited or its affiliates. All rights reserved.
  13:../Dave/Generated/CMSIS_DSP/FilteringFunctions/arm_biquad_cascade_df1_fast_q31.c ****  *
  14:../Dave/Generated/CMSIS_DSP/FilteringFunctions/arm_biquad_cascade_df1_fast_q31.c ****  * SPDX-License-Identifier: Apache-2.0
  15:../Dave/Generated/CMSIS_DSP/FilteringFunctions/arm_biquad_cascade_df1_fast_q31.c ****  *
  16:../Dave/Generated/CMSIS_DSP/FilteringFunctions/arm_biquad_cascade_df1_fast_q31.c ****  * Licensed under the Apache License, Version 2.0 (the License); you may
  17:../Dave/Generated/CMSIS_DSP/FilteringFunctions/arm_biquad_cascade_df1_fast_q31.c ****  * not use this file except in compliance with the License.
  18:../Dave/Generated/CMSIS_DSP/FilteringFunctions/arm_biquad_cascade_df1_fast_q31.c ****  * You may obtain a copy of the License at
  19:../Dave/Generated/CMSIS_DSP/FilteringFunctions/arm_biquad_cascade_df1_fast_q31.c ****  *
  20:../Dave/Generated/CMSIS_DSP/FilteringFunctions/arm_biquad_cascade_df1_fast_q31.c ****  * www.apache.org/licenses/LICENSE-2.0
  21:../Dave/Generated/CMSIS_DSP/FilteringFunctions/arm_biquad_cascade_df1_fast_q31.c ****  *
  22:../Dave/Generated/CMSIS_DSP/FilteringFunctions/arm_biquad_cascade_df1_fast_q31.c ****  * Unless required by applicable law or agreed to in writing, software
  23:../Dave/Generated/CMSIS_DSP/FilteringFunctions/arm_biquad_cascade_df1_fast_q31.c ****  * distributed under the License is distributed on an AS IS BASIS, WITHOUT
  24:../Dave/Generated/CMSIS_DSP/FilteringFunctions/arm_biquad_cascade_df1_fast_q31.c ****  * WARRANTIES OR CONDITIONS OF ANY KIND, either express or implied.
  25:../Dave/Generated/CMSIS_DSP/FilteringFunctions/arm_biquad_cascade_df1_fast_q31.c ****  * See the License for the specific language governing permissions and
  26:../Dave/Generated/CMSIS_DSP/FilteringFunctions/arm_biquad_cascade_df1_fast_q31.c ****  * limitations under the License.
  27:../Dave/Generated/CMSIS_DSP/FilteringFunctions/arm_biquad_cascade_df1_fast_q31.c ****  */
  28:../Dave/Generated/CMSIS_DSP/FilteringFunctions/arm_biquad_cascade_df1_fast_q31.c **** 
  29:../Dave/Generated/CMSIS_DSP/FilteringFunctions/arm_biquad_cascade_df1_fast_q31.c **** #include "CMSIS_DSP/cmsis_dsp.h"
  30:../Dave/Generated/CMSIS_DSP/FilteringFunctions/arm_biquad_cascade_df1_fast_q31.c **** 
  31:../Dave/Generated/CMSIS_DSP/FilteringFunctions/arm_biquad_cascade_df1_fast_q31.c **** /**
  32:../Dave/Generated/CMSIS_DSP/FilteringFunctions/arm_biquad_cascade_df1_fast_q31.c ****  * @ingroup groupFilters
  33:../Dave/Generated/CMSIS_DSP/FilteringFunctions/arm_biquad_cascade_df1_fast_q31.c ****  */
  34:../Dave/Generated/CMSIS_DSP/FilteringFunctions/arm_biquad_cascade_df1_fast_q31.c **** 
  35:../Dave/Generated/CMSIS_DSP/FilteringFunctions/arm_biquad_cascade_df1_fast_q31.c **** /**
  36:../Dave/Generated/CMSIS_DSP/FilteringFunctions/arm_biquad_cascade_df1_fast_q31.c ****  * @addtogroup BiquadCascadeDF1
  37:../Dave/Generated/CMSIS_DSP/FilteringFunctions/arm_biquad_cascade_df1_fast_q31.c ****  * @{
  38:../Dave/Generated/CMSIS_DSP/FilteringFunctions/arm_biquad_cascade_df1_fast_q31.c ****  */
  39:../Dave/Generated/CMSIS_DSP/FilteringFunctions/arm_biquad_cascade_df1_fast_q31.c **** 
  40:../Dave/Generated/CMSIS_DSP/FilteringFunctions/arm_biquad_cascade_df1_fast_q31.c **** /**
  41:../Dave/Generated/CMSIS_DSP/FilteringFunctions/arm_biquad_cascade_df1_fast_q31.c ****  * @details
  42:../Dave/Generated/CMSIS_DSP/FilteringFunctions/arm_biquad_cascade_df1_fast_q31.c ****  *
  43:../Dave/Generated/CMSIS_DSP/FilteringFunctions/arm_biquad_cascade_df1_fast_q31.c ****  * @param[in]  *S        points to an instance of the Q31 Biquad cascade structure.
  44:../Dave/Generated/CMSIS_DSP/FilteringFunctions/arm_biquad_cascade_df1_fast_q31.c ****  * @param[in]  *pSrc     points to the block of input data.
  45:../Dave/Generated/CMSIS_DSP/FilteringFunctions/arm_biquad_cascade_df1_fast_q31.c ****  * @param[out] *pDst     points to the block of output data.
  46:../Dave/Generated/CMSIS_DSP/FilteringFunctions/arm_biquad_cascade_df1_fast_q31.c ****  * @param[in]  blockSize number of samples to process per call.
  47:../Dave/Generated/CMSIS_DSP/FilteringFunctions/arm_biquad_cascade_df1_fast_q31.c ****  * @return     none.
  48:../Dave/Generated/CMSIS_DSP/FilteringFunctions/arm_biquad_cascade_df1_fast_q31.c ****  *
  49:../Dave/Generated/CMSIS_DSP/FilteringFunctions/arm_biquad_cascade_df1_fast_q31.c ****  * <b>Scaling and Overflow Behavior:</b>
  50:../Dave/Generated/CMSIS_DSP/FilteringFunctions/arm_biquad_cascade_df1_fast_q31.c ****  * \par
  51:../Dave/Generated/CMSIS_DSP/FilteringFunctions/arm_biquad_cascade_df1_fast_q31.c ****  * This function is optimized for speed at the expense of fixed-point precision and overflow protec
  52:../Dave/Generated/CMSIS_DSP/FilteringFunctions/arm_biquad_cascade_df1_fast_q31.c ****  * The result of each 1.31 x 1.31 multiplication is truncated to 2.30 format.
  53:../Dave/Generated/CMSIS_DSP/FilteringFunctions/arm_biquad_cascade_df1_fast_q31.c ****  * These intermediate results are added to a 2.30 accumulator.
  54:../Dave/Generated/CMSIS_DSP/FilteringFunctions/arm_biquad_cascade_df1_fast_q31.c ****  * Finally, the accumulator is saturated and converted to a 1.31 result.
  55:../Dave/Generated/CMSIS_DSP/FilteringFunctions/arm_biquad_cascade_df1_fast_q31.c ****  * The fast version has the same overflow behavior as the standard version and provides less precis
  56:../Dave/Generated/CMSIS_DSP/FilteringFunctions/arm_biquad_cascade_df1_fast_q31.c ****  * In order to avoid overflows completely the input signal must be scaled down by two bits and lie 
  57:../Dave/Generated/CMSIS_DSP/FilteringFunctions/arm_biquad_cascade_df1_fast_q31.c ****  * arm_biquad_cascade_df1_init_q31() to initialize filter structure.
  58:../Dave/Generated/CMSIS_DSP/FilteringFunctions/arm_biquad_cascade_df1_fast_q31.c ****  *
  59:../Dave/Generated/CMSIS_DSP/FilteringFunctions/arm_biquad_cascade_df1_fast_q31.c ****  * \par
  60:../Dave/Generated/CMSIS_DSP/FilteringFunctions/arm_biquad_cascade_df1_fast_q31.c ****  * Refer to the function <code>arm_biquad_cascade_df1_q31()</code> for a slower implementation of t
  61:../Dave/Generated/CMSIS_DSP/FilteringFunctions/arm_biquad_cascade_df1_fast_q31.c ****  * Use the function <code>arm_biquad_cascade_df1_init_q31()</code> to initialize the filter structu
  62:../Dave/Generated/CMSIS_DSP/FilteringFunctions/arm_biquad_cascade_df1_fast_q31.c ****  */
  63:../Dave/Generated/CMSIS_DSP/FilteringFunctions/arm_biquad_cascade_df1_fast_q31.c **** 
  64:../Dave/Generated/CMSIS_DSP/FilteringFunctions/arm_biquad_cascade_df1_fast_q31.c **** void arm_biquad_cascade_df1_fast_q31(
  65:../Dave/Generated/CMSIS_DSP/FilteringFunctions/arm_biquad_cascade_df1_fast_q31.c ****   const arm_biquad_casd_df1_inst_q31 * S,
  66:../Dave/Generated/CMSIS_DSP/FilteringFunctions/arm_biquad_cascade_df1_fast_q31.c ****   q31_t * pSrc,
  67:../Dave/Generated/CMSIS_DSP/FilteringFunctions/arm_biquad_cascade_df1_fast_q31.c ****   q31_t * pDst,
  68:../Dave/Generated/CMSIS_DSP/FilteringFunctions/arm_biquad_cascade_df1_fast_q31.c ****   uint32_t blockSize)
  69:../Dave/Generated/CMSIS_DSP/FilteringFunctions/arm_biquad_cascade_df1_fast_q31.c **** {
  28              	 .loc 1 69 0
  29              	 .cfi_startproc
  30              	 
  31              	 
  32              	.LVL0:
  33 0000 2DE9F04F 	 push {r4,r5,r6,r7,r8,r9,r10,fp,lr}
  34              	.LCFI0:
  35              	 .cfi_def_cfa_offset 36
  36              	 .cfi_offset 4,-36
  37              	 .cfi_offset 5,-32
  38              	 .cfi_offset 6,-28
  39              	 .cfi_offset 7,-24
  40              	 .cfi_offset 8,-20
  41              	 .cfi_offset 9,-16
  42              	 .cfi_offset 10,-12
  43              	 .cfi_offset 11,-8
  44              	 .cfi_offset 14,-4
  45 0004 BDB0     	 sub sp,sp,#244
  46              	.LCFI1:
  47              	 .cfi_def_cfa_offset 280
  48 0006 9E08     	 lsrs r6,r3,#2
  49 0008 3896     	 str r6,[sp,#224]
  70:../Dave/Generated/CMSIS_DSP/FilteringFunctions/arm_biquad_cascade_df1_fast_q31.c ****   q31_t acc = 0;                                 /*  accumulator                   */
  71:../Dave/Generated/CMSIS_DSP/FilteringFunctions/arm_biquad_cascade_df1_fast_q31.c ****   q31_t Xn1, Xn2, Yn1, Yn2;                      /*  Filter state variables        */
  72:../Dave/Generated/CMSIS_DSP/FilteringFunctions/arm_biquad_cascade_df1_fast_q31.c ****   q31_t b0, b1, b2, a1, a2;                      /*  Filter coefficients           */
  73:../Dave/Generated/CMSIS_DSP/FilteringFunctions/arm_biquad_cascade_df1_fast_q31.c ****   q31_t *pIn = pSrc;                             /*  input pointer initialization  */
  74:../Dave/Generated/CMSIS_DSP/FilteringFunctions/arm_biquad_cascade_df1_fast_q31.c ****   q31_t *pOut = pDst;                            /*  output pointer initialization */
  75:../Dave/Generated/CMSIS_DSP/FilteringFunctions/arm_biquad_cascade_df1_fast_q31.c ****   q31_t *pState = S->pState;                     /*  pState pointer initialization */
  76:../Dave/Generated/CMSIS_DSP/FilteringFunctions/arm_biquad_cascade_df1_fast_q31.c ****   q31_t *pCoeffs = S->pCoeffs;                   /*  coeff pointer initialization  */
  77:../Dave/Generated/CMSIS_DSP/FilteringFunctions/arm_biquad_cascade_df1_fast_q31.c ****   q31_t Xn;                                      /*  temporary input               */
  78:../Dave/Generated/CMSIS_DSP/FilteringFunctions/arm_biquad_cascade_df1_fast_q31.c ****   int32_t shift = (int32_t) S->postShift + 1;    /*  Shift to be applied to the output */
  50              	 .loc 1 78 0
  51 000a 90F80CE0 	 ldrb lr,[r0,#12]
  69:../Dave/Generated/CMSIS_DSP/FilteringFunctions/arm_biquad_cascade_df1_fast_q31.c ****   q31_t acc = 0;                                 /*  accumulator                   */
  52              	 .loc 1 69 0
  53 000e 3392     	 str r2,[sp,#204]
  79:../Dave/Generated/CMSIS_DSP/FilteringFunctions/arm_biquad_cascade_df1_fast_q31.c ****   uint32_t sample, stage = S->numStages;         /*  loop counters                     */
  54              	 .loc 1 79 0
  55 0010 C1C8     	 ldmia r0,{r0,r6,r7}
  56              	.LVL1:
  57 0012 3290     	 str r0,[sp,#200]
  58 0014 3898     	 ldr r0,[sp,#224]
  69:../Dave/Generated/CMSIS_DSP/FilteringFunctions/arm_biquad_cascade_df1_fast_q31.c ****   q31_t acc = 0;                                 /*  accumulator                   */
  59              	 .loc 1 69 0
  60 0016 2C91     	 str r1,[sp,#176]
  61              	.LVL2:
  62 0018 03F00303 	 and r3,r3,#3
  63              	.LVL3:
  64 001c 0001     	 lsls r0,r0,#4
  65 001e 3993     	 str r3,[sp,#228]
  66 0020 1346     	 mov r3,r2
  67 0022 0344     	 add r3,r3,r0
  68 0024 3B93     	 str r3,[sp,#236]
  78:../Dave/Generated/CMSIS_DSP/FilteringFunctions/arm_biquad_cascade_df1_fast_q31.c ****   uint32_t sample, stage = S->numStages;         /*  loop counters                     */
  69              	 .loc 1 78 0
  70 0026 0EF10103 	 add r3,lr,#1
  71 002a 2F93     	 str r3,[sp,#188]
  72              	.LVL4:
  73 002c 07F11403 	 add r3,r7,#20
  74              	.LVL5:
  75 0030 3093     	 str r3,[sp,#192]
  76 0032 309A     	 ldr r2,[sp,#192]
  77              	.LVL6:
  78 0034 3A90     	 str r0,[sp,#232]
  79 0036 06F11003 	 add r3,r6,#16
  80 003a 3193     	 str r3,[sp,#196]
  80:../Dave/Generated/CMSIS_DSP/FilteringFunctions/arm_biquad_cascade_df1_fast_q31.c **** 
  81:../Dave/Generated/CMSIS_DSP/FilteringFunctions/arm_biquad_cascade_df1_fast_q31.c **** 
  82:../Dave/Generated/CMSIS_DSP/FilteringFunctions/arm_biquad_cascade_df1_fast_q31.c ****   do
  83:../Dave/Generated/CMSIS_DSP/FilteringFunctions/arm_biquad_cascade_df1_fast_q31.c ****   {
  84:../Dave/Generated/CMSIS_DSP/FilteringFunctions/arm_biquad_cascade_df1_fast_q31.c ****     /* Reading the coefficients */
  85:../Dave/Generated/CMSIS_DSP/FilteringFunctions/arm_biquad_cascade_df1_fast_q31.c ****     b0 = *pCoeffs++;
  86:../Dave/Generated/CMSIS_DSP/FilteringFunctions/arm_biquad_cascade_df1_fast_q31.c ****     b1 = *pCoeffs++;
  87:../Dave/Generated/CMSIS_DSP/FilteringFunctions/arm_biquad_cascade_df1_fast_q31.c ****     b2 = *pCoeffs++;
  88:../Dave/Generated/CMSIS_DSP/FilteringFunctions/arm_biquad_cascade_df1_fast_q31.c ****     a1 = *pCoeffs++;
  89:../Dave/Generated/CMSIS_DSP/FilteringFunctions/arm_biquad_cascade_df1_fast_q31.c ****     a2 = *pCoeffs++;
  90:../Dave/Generated/CMSIS_DSP/FilteringFunctions/arm_biquad_cascade_df1_fast_q31.c **** 
  91:../Dave/Generated/CMSIS_DSP/FilteringFunctions/arm_biquad_cascade_df1_fast_q31.c ****     /* Reading the state values */
  92:../Dave/Generated/CMSIS_DSP/FilteringFunctions/arm_biquad_cascade_df1_fast_q31.c ****     Xn1 = pState[0];
  93:../Dave/Generated/CMSIS_DSP/FilteringFunctions/arm_biquad_cascade_df1_fast_q31.c ****     Xn2 = pState[1];
  94:../Dave/Generated/CMSIS_DSP/FilteringFunctions/arm_biquad_cascade_df1_fast_q31.c ****     Yn1 = pState[2];
  95:../Dave/Generated/CMSIS_DSP/FilteringFunctions/arm_biquad_cascade_df1_fast_q31.c ****     Yn2 = pState[3];
  96:../Dave/Generated/CMSIS_DSP/FilteringFunctions/arm_biquad_cascade_df1_fast_q31.c **** 
  97:../Dave/Generated/CMSIS_DSP/FilteringFunctions/arm_biquad_cascade_df1_fast_q31.c ****     /* Apply loop unrolling and compute 4 output values simultaneously. */
  98:../Dave/Generated/CMSIS_DSP/FilteringFunctions/arm_biquad_cascade_df1_fast_q31.c ****     /*      The variables acc ... acc3 hold output values that are being computed:
  99:../Dave/Generated/CMSIS_DSP/FilteringFunctions/arm_biquad_cascade_df1_fast_q31.c ****      *
 100:../Dave/Generated/CMSIS_DSP/FilteringFunctions/arm_biquad_cascade_df1_fast_q31.c ****      *    acc =  b0 * x[n] + b1 * x[n-1] + b2 * x[n-2] + a1 * y[n-1] + a2 * y[n-2]
 101:../Dave/Generated/CMSIS_DSP/FilteringFunctions/arm_biquad_cascade_df1_fast_q31.c ****      */
 102:../Dave/Generated/CMSIS_DSP/FilteringFunctions/arm_biquad_cascade_df1_fast_q31.c **** 
 103:../Dave/Generated/CMSIS_DSP/FilteringFunctions/arm_biquad_cascade_df1_fast_q31.c ****     sample = blockSize >> 2u;
 104:../Dave/Generated/CMSIS_DSP/FilteringFunctions/arm_biquad_cascade_df1_fast_q31.c **** 
 105:../Dave/Generated/CMSIS_DSP/FilteringFunctions/arm_biquad_cascade_df1_fast_q31.c ****     /* First part of the processing with loop unrolling.  Compute 4 outputs at a time.
 106:../Dave/Generated/CMSIS_DSP/FilteringFunctions/arm_biquad_cascade_df1_fast_q31.c ****      ** a second loop below computes the remaining 1 to 3 samples. */
 107:../Dave/Generated/CMSIS_DSP/FilteringFunctions/arm_biquad_cascade_df1_fast_q31.c ****     while (sample > 0u)
 108:../Dave/Generated/CMSIS_DSP/FilteringFunctions/arm_biquad_cascade_df1_fast_q31.c ****     {
 109:../Dave/Generated/CMSIS_DSP/FilteringFunctions/arm_biquad_cascade_df1_fast_q31.c ****       /* Read the input */
 110:../Dave/Generated/CMSIS_DSP/FilteringFunctions/arm_biquad_cascade_df1_fast_q31.c ****       Xn = *pIn;
 111:../Dave/Generated/CMSIS_DSP/FilteringFunctions/arm_biquad_cascade_df1_fast_q31.c **** 
 112:../Dave/Generated/CMSIS_DSP/FilteringFunctions/arm_biquad_cascade_df1_fast_q31.c ****       /* acc =  b0 * x[n] + b1 * x[n-1] + b2 * x[n-2] + a1 * y[n-1] + a2 * y[n-2] */
 113:../Dave/Generated/CMSIS_DSP/FilteringFunctions/arm_biquad_cascade_df1_fast_q31.c ****       /* acc =  b0 * x[n] */
 114:../Dave/Generated/CMSIS_DSP/FilteringFunctions/arm_biquad_cascade_df1_fast_q31.c ****       /*acc = (q31_t) (((q63_t) b1 * Xn1) >> 32);*/
 115:../Dave/Generated/CMSIS_DSP/FilteringFunctions/arm_biquad_cascade_df1_fast_q31.c ****       mult_32x32_keep32_R(acc, b1, Xn1);
  81              	 .loc 1 115 0
  82 003c A246     	 mov r10,r4
  83 003e AB46     	 mov fp,r5
  84              	.LVL7:
  85              	.L6:
  85:../Dave/Generated/CMSIS_DSP/FilteringFunctions/arm_biquad_cascade_df1_fast_q31.c ****     b1 = *pCoeffs++;
  86              	 .loc 1 85 0
  87 0040 1346     	 mov r3,r2
  88 0042 52F814CC 	 ldr ip,[r2,#-20]
  89              	.LVL8:
  86:../Dave/Generated/CMSIS_DSP/FilteringFunctions/arm_biquad_cascade_df1_fast_q31.c ****     b2 = *pCoeffs++;
  90              	 .loc 1 86 0
  91 0046 52F8102C 	 ldr r2,[r2,#-16]
  92 004a 2E92     	 str r2,[sp,#184]
  93 004c 1446     	 mov r4,r2
  94              	.LVL9:
  87:../Dave/Generated/CMSIS_DSP/FilteringFunctions/arm_biquad_cascade_df1_fast_q31.c ****     a1 = *pCoeffs++;
  95              	 .loc 1 87 0
  96 004e 1A46     	 mov r2,r3
  97              	.LVL10:
  98 0050 53F80C3C 	 ldr r3,[r3,#-12]
  92:../Dave/Generated/CMSIS_DSP/FilteringFunctions/arm_biquad_cascade_df1_fast_q31.c ****     Xn2 = pState[1];
  99              	 .loc 1 92 0
 100 0054 3198     	 ldr r0,[sp,#196]
  87:../Dave/Generated/CMSIS_DSP/FilteringFunctions/arm_biquad_cascade_df1_fast_q31.c ****     a1 = *pCoeffs++;
 101              	 .loc 1 87 0
 102 0056 0293     	 str r3,[sp,#8]
 103              	.LVL11:
  88:../Dave/Generated/CMSIS_DSP/FilteringFunctions/arm_biquad_cascade_df1_fast_q31.c ****     a2 = *pCoeffs++;
 104              	 .loc 1 88 0
 105 0058 52F8083C 	 ldr r3,[r2,#-8]
 106              	.LVL12:
 107 005c 0393     	 str r3,[sp,#12]
 108              	.LVL13:
  89:../Dave/Generated/CMSIS_DSP/FilteringFunctions/arm_biquad_cascade_df1_fast_q31.c **** 
 109              	 .loc 1 89 0
 110 005e 52F8043C 	 ldr r3,[r2,#-4]
 111              	.LVL14:
 112 0062 0493     	 str r3,[sp,#16]
 113              	.LVL15:
  93:../Dave/Generated/CMSIS_DSP/FilteringFunctions/arm_biquad_cascade_df1_fast_q31.c ****     Yn1 = pState[2];
 114              	 .loc 1 93 0
 115 0064 50F80CEC 	 ldr lr,[r0,#-12]
  92:../Dave/Generated/CMSIS_DSP/FilteringFunctions/arm_biquad_cascade_df1_fast_q31.c ****     Xn2 = pState[1];
 116              	 .loc 1 92 0
 117 0068 50F8103C 	 ldr r3,[r0,#-16]
 118              	.LVL16:
  94:../Dave/Generated/CMSIS_DSP/FilteringFunctions/arm_biquad_cascade_df1_fast_q31.c ****     Yn2 = pState[3];
 119              	 .loc 1 94 0
 120 006c 50F8082C 	 ldr r2,[r0,#-8]
 121              	.LVL17:
  95:../Dave/Generated/CMSIS_DSP/FilteringFunctions/arm_biquad_cascade_df1_fast_q31.c **** 
 122              	 .loc 1 95 0
 123 0070 50F8041C 	 ldr r1,[r0,#-4]
 124              	.LVL18:
 107:../Dave/Generated/CMSIS_DSP/FilteringFunctions/arm_biquad_cascade_df1_fast_q31.c ****     {
 125              	 .loc 1 107 0
 126 0074 3898     	 ldr r0,[sp,#224]
 127 0076 0028     	 cmp r0,#0
 128 0078 00F0A481 	 beq .L7
 129 007c 2C9D     	 ldr r5,[sp,#176]
 130 007e 2D90     	 str r0,[sp,#180]
 131 0080 05F11009 	 add r9,r5,#16
 132 0084 339D     	 ldr r5,[sp,#204]
 133 0086 CDF814C0 	 str ip,[sp,#20]
 134 008a 05F11008 	 add r8,r5,#16
 135 008e 1846     	 mov r0,r3
 136 0090 7346     	 mov r3,lr
 137              	.LVL19:
 138 0092 DDF8BCE0 	 ldr lr,[sp,#188]
 139              	.LVL20:
 140 0096 CDF80490 	 str r9,[sp,#4]
 141 009a A446     	 mov ip,r4
 142              	.LVL21:
 143 009c CDF81880 	 str r8,[sp,#24]
 144              	.LVL22:
 145              	.L3:
 110:../Dave/Generated/CMSIS_DSP/FilteringFunctions/arm_biquad_cascade_df1_fast_q31.c **** 
 146              	 .loc 1 110 0
 147 00a0 019E     	 ldr r6,[sp,#4]
 116:../Dave/Generated/CMSIS_DSP/FilteringFunctions/arm_biquad_cascade_df1_fast_q31.c ****       /* acc +=  b1 * x[n-1] */
 117:../Dave/Generated/CMSIS_DSP/FilteringFunctions/arm_biquad_cascade_df1_fast_q31.c ****       /*acc = (q31_t) ((((q63_t) acc << 32) + ((q63_t) b0 * (Xn))) >> 32);*/
 118:../Dave/Generated/CMSIS_DSP/FilteringFunctions/arm_biquad_cascade_df1_fast_q31.c ****       multAcc_32x32_keep32_R(acc, b0, Xn);
 148              	 .loc 1 118 0
 149 00a2 059F     	 ldr r7,[sp,#20]
 115:../Dave/Generated/CMSIS_DSP/FilteringFunctions/arm_biquad_cascade_df1_fast_q31.c ****       /* acc +=  b1 * x[n-1] */
 150              	 .loc 1 115 0
 151 00a4 4FF00044 	 mov r4,#-2147483648
 152 00a8 0025     	 movs r5,#0
 153 00aa CCFB0045 	 smlal r4,r5,ip,r0
 110:../Dave/Generated/CMSIS_DSP/FilteringFunctions/arm_biquad_cascade_df1_fast_q31.c **** 
 154              	 .loc 1 110 0
 155 00ae 56F8104C 	 ldr r4,[r6,#-16]
 156              	 .loc 1 118 0
 157 00b2 4FF0000A 	 mov r10,#0
 158 00b6 AB46     	 mov fp,r5
 159 00b8 D046     	 mov r8,r10
 110:../Dave/Generated/CMSIS_DSP/FilteringFunctions/arm_biquad_cascade_df1_fast_q31.c **** 
 160              	 .loc 1 110 0
 161 00ba 2546     	 mov r5,r4
 162              	.LVL23:
 163              	 .loc 1 118 0
 164 00bc D946     	 mov r9,fp
 119:../Dave/Generated/CMSIS_DSP/FilteringFunctions/arm_biquad_cascade_df1_fast_q31.c ****       /* acc +=  b[2] * x[n-2] */
 120:../Dave/Generated/CMSIS_DSP/FilteringFunctions/arm_biquad_cascade_df1_fast_q31.c ****       /*acc = (q31_t) ((((q63_t) acc << 32) + ((q63_t) b2 * (Xn2))) >> 32);*/
 121:../Dave/Generated/CMSIS_DSP/FilteringFunctions/arm_biquad_cascade_df1_fast_q31.c ****       multAcc_32x32_keep32_R(acc, b2, Xn2);
 122:../Dave/Generated/CMSIS_DSP/FilteringFunctions/arm_biquad_cascade_df1_fast_q31.c ****       /* acc +=  a1 * y[n-1] */
 123:../Dave/Generated/CMSIS_DSP/FilteringFunctions/arm_biquad_cascade_df1_fast_q31.c ****       /*acc = (q31_t) ((((q63_t) acc << 32) + ((q63_t) a1 * (Yn1))) >> 32);*/
 124:../Dave/Generated/CMSIS_DSP/FilteringFunctions/arm_biquad_cascade_df1_fast_q31.c ****       multAcc_32x32_keep32_R(acc, a1, Yn1);
 125:../Dave/Generated/CMSIS_DSP/FilteringFunctions/arm_biquad_cascade_df1_fast_q31.c ****       /* acc +=  a2 * y[n-2] */
 126:../Dave/Generated/CMSIS_DSP/FilteringFunctions/arm_biquad_cascade_df1_fast_q31.c ****       /*acc = (q31_t) ((((q63_t) acc << 32) + ((q63_t) a2 * (Yn2))) >> 32);*/
 127:../Dave/Generated/CMSIS_DSP/FilteringFunctions/arm_biquad_cascade_df1_fast_q31.c ****       multAcc_32x32_keep32_R(acc, a2, Yn2);
 128:../Dave/Generated/CMSIS_DSP/FilteringFunctions/arm_biquad_cascade_df1_fast_q31.c **** 
 129:../Dave/Generated/CMSIS_DSP/FilteringFunctions/arm_biquad_cascade_df1_fast_q31.c ****       /* The result is converted to 1.31 , Yn2 variable is reused */
 130:../Dave/Generated/CMSIS_DSP/FilteringFunctions/arm_biquad_cascade_df1_fast_q31.c ****       Yn2 = acc << shift;
 131:../Dave/Generated/CMSIS_DSP/FilteringFunctions/arm_biquad_cascade_df1_fast_q31.c **** 
 132:../Dave/Generated/CMSIS_DSP/FilteringFunctions/arm_biquad_cascade_df1_fast_q31.c ****       /* Read the second input */
 133:../Dave/Generated/CMSIS_DSP/FilteringFunctions/arm_biquad_cascade_df1_fast_q31.c ****       Xn2 = *(pIn + 1u);
 165              	 .loc 1 133 0
 166 00be 56F80C4C 	 ldr r4,[r6,#-12]
 167              	.LVL24:
 118:../Dave/Generated/CMSIS_DSP/FilteringFunctions/arm_biquad_cascade_df1_fast_q31.c ****       /* acc +=  b[2] * x[n-2] */
 168              	 .loc 1 118 0
 169 00c2 0895     	 str r5,[sp,#32]
 170 00c4 C7FB0589 	 smlal r8,r9,r7,r5
 171              	 .loc 1 133 0
 172 00c8 2646     	 mov r6,r4
 118:../Dave/Generated/CMSIS_DSP/FilteringFunctions/arm_biquad_cascade_df1_fast_q31.c ****       /* acc +=  b[2] * x[n-2] */
 173              	 .loc 1 118 0
 174 00ca 4446     	 mov r4,r8
 175 00cc 14F10044 	 adds r4,r4,#-2147483648
 176 00d0 49F10005 	 adc r5,r9,#0
 177              	.LVL25:
 121:../Dave/Generated/CMSIS_DSP/FilteringFunctions/arm_biquad_cascade_df1_fast_q31.c ****       /* acc +=  a1 * y[n-1] */
 178              	 .loc 1 121 0
 179 00d4 0B95     	 str r5,[sp,#44]
 180 00d6 CDF828A0 	 str r10,[sp,#40]
 181 00da DDE90A89 	 ldrd r8,[sp,#40]
 182 00de 029D     	 ldr r5,[sp,#8]
 134:../Dave/Generated/CMSIS_DSP/FilteringFunctions/arm_biquad_cascade_df1_fast_q31.c **** 
 135:../Dave/Generated/CMSIS_DSP/FilteringFunctions/arm_biquad_cascade_df1_fast_q31.c ****       /* Store the output in the destination buffer. */
 136:../Dave/Generated/CMSIS_DSP/FilteringFunctions/arm_biquad_cascade_df1_fast_q31.c ****       *pOut = Yn2;
 137:../Dave/Generated/CMSIS_DSP/FilteringFunctions/arm_biquad_cascade_df1_fast_q31.c **** 
 138:../Dave/Generated/CMSIS_DSP/FilteringFunctions/arm_biquad_cascade_df1_fast_q31.c ****       /* acc =  b0 * x[n] + b1 * x[n-1] + b2 * x[n-2] + a1 * y[n-1] + a2 * y[n-2] */
 139:../Dave/Generated/CMSIS_DSP/FilteringFunctions/arm_biquad_cascade_df1_fast_q31.c ****       /* acc =  b0 * x[n] */
 140:../Dave/Generated/CMSIS_DSP/FilteringFunctions/arm_biquad_cascade_df1_fast_q31.c ****       /*acc = (q31_t) (((q63_t) b0 * (Xn2)) >> 32);*/
 141:../Dave/Generated/CMSIS_DSP/FilteringFunctions/arm_biquad_cascade_df1_fast_q31.c ****       mult_32x32_keep32_R(acc, b0, Xn2);
 142:../Dave/Generated/CMSIS_DSP/FilteringFunctions/arm_biquad_cascade_df1_fast_q31.c ****       /* acc +=  b1 * x[n-1] */
 143:../Dave/Generated/CMSIS_DSP/FilteringFunctions/arm_biquad_cascade_df1_fast_q31.c ****       /*acc = (q31_t) ((((q63_t) acc << 32) + ((q63_t) b1 * (Xn))) >> 32);*/
 144:../Dave/Generated/CMSIS_DSP/FilteringFunctions/arm_biquad_cascade_df1_fast_q31.c ****       multAcc_32x32_keep32_R(acc, b1, Xn);
 183              	 .loc 1 144 0
 184 00e0 CDF840A0 	 str r10,[sp,#64]
 121:../Dave/Generated/CMSIS_DSP/FilteringFunctions/arm_biquad_cascade_df1_fast_q31.c ****       /* acc +=  a1 * y[n-1] */
 185              	 .loc 1 121 0
 186 00e4 C5FB0389 	 smlal r8,r9,r5,r3
 187 00e8 4446     	 mov r4,r8
 188 00ea 14F10044 	 adds r4,r4,#-2147483648
 189 00ee 49F10005 	 adc r5,r9,#0
 190              	.LVL26:
 141:../Dave/Generated/CMSIS_DSP/FilteringFunctions/arm_biquad_cascade_df1_fast_q31.c ****       /* acc +=  b1 * x[n-1] */
 191              	 .loc 1 141 0
 192 00f2 4FF00048 	 mov r8,#-2147483648
 193 00f6 4FF00009 	 mov r9,#0
 194 00fa C7FB0689 	 smlal r8,r9,r7,r6
 195              	 .loc 1 144 0
 196 00fe CDF84490 	 str r9,[sp,#68]
 197 0102 DDE91089 	 ldrd r8,[sp,#64]
 198 0106 089F     	 ldr r7,[sp,#32]
 124:../Dave/Generated/CMSIS_DSP/FilteringFunctions/arm_biquad_cascade_df1_fast_q31.c ****       /* acc +=  a2 * y[n-2] */
 199              	 .loc 1 124 0
 200 0108 0D95     	 str r5,[sp,#52]
 201 010a CDF830A0 	 str r10,[sp,#48]
 202 010e DDE90C45 	 ldrd r4,[sp,#48]
 203 0112 039B     	 ldr r3,[sp,#12]
 204              	.LVL27:
 141:../Dave/Generated/CMSIS_DSP/FilteringFunctions/arm_biquad_cascade_df1_fast_q31.c ****       /* acc +=  b1 * x[n-1] */
 205              	 .loc 1 141 0
 206 0114 0996     	 str r6,[sp,#36]
 207              	 .loc 1 144 0
 208 0116 CCFB0789 	 smlal r8,r9,ip,r7
 209 011a 4646     	 mov r6,r8
 124:../Dave/Generated/CMSIS_DSP/FilteringFunctions/arm_biquad_cascade_df1_fast_q31.c ****       /* acc +=  a2 * y[n-2] */
 210              	 .loc 1 124 0
 211 011c C3FB0245 	 smlal r4,r5,r3,r2
 212              	 .loc 1 144 0
 213 0120 16F10046 	 adds r6,r6,#-2147483648
 214 0124 49F10007 	 adc r7,r9,#0
 124:../Dave/Generated/CMSIS_DSP/FilteringFunctions/arm_biquad_cascade_df1_fast_q31.c ****       /* acc +=  a2 * y[n-2] */
 215              	 .loc 1 124 0
 216 0128 14F10044 	 adds r4,r4,#-2147483648
 217 012c 45F10005 	 adc r5,r5,#0
 218              	.LVL28:
 145:../Dave/Generated/CMSIS_DSP/FilteringFunctions/arm_biquad_cascade_df1_fast_q31.c ****       /* acc +=  b[2] * x[n-2] */
 146:../Dave/Generated/CMSIS_DSP/FilteringFunctions/arm_biquad_cascade_df1_fast_q31.c ****       /*acc = (q31_t) ((((q63_t) acc << 32) + ((q63_t) b2 * (Xn1))) >> 32);*/
 147:../Dave/Generated/CMSIS_DSP/FilteringFunctions/arm_biquad_cascade_df1_fast_q31.c ****       multAcc_32x32_keep32_R(acc, b2, Xn1);
 219              	 .loc 1 147 0
 220 0130 1397     	 str r7,[sp,#76]
 221 0132 CDF848A0 	 str r10,[sp,#72]
 127:../Dave/Generated/CMSIS_DSP/FilteringFunctions/arm_biquad_cascade_df1_fast_q31.c **** 
 222              	 .loc 1 127 0
 223 0136 0F95     	 str r5,[sp,#60]
 224              	 .loc 1 147 0
 225 0138 DDE91245 	 ldrd r4,[sp,#72]
 226 013c 029E     	 ldr r6,[sp,#8]
 127:../Dave/Generated/CMSIS_DSP/FilteringFunctions/arm_biquad_cascade_df1_fast_q31.c **** 
 227              	 .loc 1 127 0
 228 013e CDF838A0 	 str r10,[sp,#56]
 229 0142 DDE90E89 	 ldrd r8,[sp,#56]
 230              	 .loc 1 147 0
 231 0146 C6FB0045 	 smlal r4,r5,r6,r0
 127:../Dave/Generated/CMSIS_DSP/FilteringFunctions/arm_biquad_cascade_df1_fast_q31.c **** 
 232              	 .loc 1 127 0
 233 014a 049E     	 ldr r6,[sp,#16]
 148:../Dave/Generated/CMSIS_DSP/FilteringFunctions/arm_biquad_cascade_df1_fast_q31.c ****       /* acc +=  a1 * y[n-1] */
 149:../Dave/Generated/CMSIS_DSP/FilteringFunctions/arm_biquad_cascade_df1_fast_q31.c ****       /*acc = (q31_t) ((((q63_t) acc << 32) + ((q63_t) a1 * (Yn2))) >> 32);*/
 150:../Dave/Generated/CMSIS_DSP/FilteringFunctions/arm_biquad_cascade_df1_fast_q31.c ****       multAcc_32x32_keep32_R(acc, a1, Yn2);
 234              	 .loc 1 150 0
 235 014c CDF850A0 	 str r10,[sp,#80]
 127:../Dave/Generated/CMSIS_DSP/FilteringFunctions/arm_biquad_cascade_df1_fast_q31.c **** 
 236              	 .loc 1 127 0
 237 0150 C6FB0189 	 smlal r8,r9,r6,r1
 147:../Dave/Generated/CMSIS_DSP/FilteringFunctions/arm_biquad_cascade_df1_fast_q31.c ****       /* acc +=  a1 * y[n-1] */
 238              	 .loc 1 147 0
 239 0154 14F10044 	 adds r4,r4,#-2147483648
 127:../Dave/Generated/CMSIS_DSP/FilteringFunctions/arm_biquad_cascade_df1_fast_q31.c **** 
 240              	 .loc 1 127 0
 241 0158 4046     	 mov r0,r8
 242              	.LVL29:
 147:../Dave/Generated/CMSIS_DSP/FilteringFunctions/arm_biquad_cascade_df1_fast_q31.c ****       /* acc +=  a1 * y[n-1] */
 243              	 .loc 1 147 0
 244 015a 45F10005 	 adc r5,r5,#0
 245              	.LVL30:
 127:../Dave/Generated/CMSIS_DSP/FilteringFunctions/arm_biquad_cascade_df1_fast_q31.c **** 
 246              	 .loc 1 127 0
 247 015e 10F10040 	 adds r0,r0,#-2147483648
 248 0162 49F10001 	 adc r1,r9,#0
 249              	.LVL31:
 136:../Dave/Generated/CMSIS_DSP/FilteringFunctions/arm_biquad_cascade_df1_fast_q31.c **** 
 250              	 .loc 1 136 0
 251 0166 069C     	 ldr r4,[sp,#24]
 252              	 .loc 1 150 0
 253 0168 1595     	 str r5,[sp,#84]
 130:../Dave/Generated/CMSIS_DSP/FilteringFunctions/arm_biquad_cascade_df1_fast_q31.c **** 
 254              	 .loc 1 130 0
 255 016a 01FA0EF1 	 lsl r1,r1,lr
 256              	.LVL32:
 136:../Dave/Generated/CMSIS_DSP/FilteringFunctions/arm_biquad_cascade_df1_fast_q31.c **** 
 257              	 .loc 1 136 0
 258 016e 44F8101C 	 str r1,[r4,#-16]
 259              	.LVL33:
 260              	 .loc 1 150 0
 261 0172 DDE91445 	 ldrd r4,[sp,#80]
 262 0176 C3FB0145 	 smlal r4,r5,r3,r1
 263 017a 14F10044 	 adds r4,r4,#-2147483648
 151:../Dave/Generated/CMSIS_DSP/FilteringFunctions/arm_biquad_cascade_df1_fast_q31.c ****       /* acc +=  a2 * y[n-2] */
 152:../Dave/Generated/CMSIS_DSP/FilteringFunctions/arm_biquad_cascade_df1_fast_q31.c ****       /*acc = (q31_t) ((((q63_t) acc << 32) + ((q63_t) a2 * (Yn1))) >> 32);*/
 153:../Dave/Generated/CMSIS_DSP/FilteringFunctions/arm_biquad_cascade_df1_fast_q31.c ****       multAcc_32x32_keep32_R(acc, a2, Yn1);
 154:../Dave/Generated/CMSIS_DSP/FilteringFunctions/arm_biquad_cascade_df1_fast_q31.c **** 
 155:../Dave/Generated/CMSIS_DSP/FilteringFunctions/arm_biquad_cascade_df1_fast_q31.c ****       /* The result is converted to 1.31, Yn1 variable is reused  */
 156:../Dave/Generated/CMSIS_DSP/FilteringFunctions/arm_biquad_cascade_df1_fast_q31.c ****       Yn1 = acc << shift;
 157:../Dave/Generated/CMSIS_DSP/FilteringFunctions/arm_biquad_cascade_df1_fast_q31.c **** 
 158:../Dave/Generated/CMSIS_DSP/FilteringFunctions/arm_biquad_cascade_df1_fast_q31.c ****       /* Read the third input  */
 159:../Dave/Generated/CMSIS_DSP/FilteringFunctions/arm_biquad_cascade_df1_fast_q31.c ****       Xn1 = *(pIn + 2u);
 264              	 .loc 1 159 0
 265 017e 019B     	 ldr r3,[sp,#4]
 150:../Dave/Generated/CMSIS_DSP/FilteringFunctions/arm_biquad_cascade_df1_fast_q31.c ****       /* acc +=  a2 * y[n-2] */
 266              	 .loc 1 150 0
 267 0180 45F10005 	 adc r5,r5,#0
 268              	.LVL34:
 269              	 .loc 1 159 0
 270 0184 53F8083C 	 ldr r3,[r3,#-8]
 153:../Dave/Generated/CMSIS_DSP/FilteringFunctions/arm_biquad_cascade_df1_fast_q31.c **** 
 271              	 .loc 1 153 0
 272 0188 1795     	 str r5,[sp,#92]
 160:../Dave/Generated/CMSIS_DSP/FilteringFunctions/arm_biquad_cascade_df1_fast_q31.c **** 
 161:../Dave/Generated/CMSIS_DSP/FilteringFunctions/arm_biquad_cascade_df1_fast_q31.c ****       /* Store the output in the destination buffer. */
 162:../Dave/Generated/CMSIS_DSP/FilteringFunctions/arm_biquad_cascade_df1_fast_q31.c ****       *(pOut + 1u) = Yn1;
 163:../Dave/Generated/CMSIS_DSP/FilteringFunctions/arm_biquad_cascade_df1_fast_q31.c **** 
 164:../Dave/Generated/CMSIS_DSP/FilteringFunctions/arm_biquad_cascade_df1_fast_q31.c ****       /* acc =  b0 * x[n] + b1 * x[n-1] + b2 * x[n-2] + a1 * y[n-1] + a2 * y[n-2] */
 165:../Dave/Generated/CMSIS_DSP/FilteringFunctions/arm_biquad_cascade_df1_fast_q31.c ****       /* acc =  b0 * x[n] */
 166:../Dave/Generated/CMSIS_DSP/FilteringFunctions/arm_biquad_cascade_df1_fast_q31.c ****       /*acc = (q31_t) (((q63_t) b0 * (Xn1)) >> 32);*/
 167:../Dave/Generated/CMSIS_DSP/FilteringFunctions/arm_biquad_cascade_df1_fast_q31.c ****       mult_32x32_keep32_R(acc, b0, Xn1);
 273              	 .loc 1 167 0
 274 018a 0598     	 ldr r0,[sp,#20]
 153:../Dave/Generated/CMSIS_DSP/FilteringFunctions/arm_biquad_cascade_df1_fast_q31.c **** 
 275              	 .loc 1 153 0
 276 018c CDF858A0 	 str r10,[sp,#88]
 277              	 .loc 1 167 0
 278 0190 4FF00044 	 mov r4,#-2147483648
 279 0194 0025     	 movs r5,#0
 280              	.LVL35:
 281 0196 C0FB0345 	 smlal r4,r5,r0,r3
 153:../Dave/Generated/CMSIS_DSP/FilteringFunctions/arm_biquad_cascade_df1_fast_q31.c **** 
 282              	 .loc 1 153 0
 283 019a DDE91689 	 ldrd r8,[sp,#88]
 168:../Dave/Generated/CMSIS_DSP/FilteringFunctions/arm_biquad_cascade_df1_fast_q31.c ****       /* acc +=  b1 * x[n-1] */
 169:../Dave/Generated/CMSIS_DSP/FilteringFunctions/arm_biquad_cascade_df1_fast_q31.c ****       /*acc = (q31_t) ((((q63_t) acc << 32) + ((q63_t) b1 * (Xn2))) >> 32);*/
 170:../Dave/Generated/CMSIS_DSP/FilteringFunctions/arm_biquad_cascade_df1_fast_q31.c ****       multAcc_32x32_keep32_R(acc, b1, Xn2);
 284              	 .loc 1 170 0
 285 019e 1995     	 str r5,[sp,#100]
 286 01a0 CDF860A0 	 str r10,[sp,#96]
 287 01a4 DDE91845 	 ldrd r4,[sp,#96]
 153:../Dave/Generated/CMSIS_DSP/FilteringFunctions/arm_biquad_cascade_df1_fast_q31.c **** 
 288              	 .loc 1 153 0
 289 01a8 C6FB0289 	 smlal r8,r9,r6,r2
 290              	 .loc 1 170 0
 291 01ac 099A     	 ldr r2,[sp,#36]
 292              	.LVL36:
 171:../Dave/Generated/CMSIS_DSP/FilteringFunctions/arm_biquad_cascade_df1_fast_q31.c ****       /* acc +=  b[2] * x[n-2] */
 172:../Dave/Generated/CMSIS_DSP/FilteringFunctions/arm_biquad_cascade_df1_fast_q31.c ****       /*acc = (q31_t) ((((q63_t) acc << 32) + ((q63_t) b2 * (Xn))) >> 32);*/
 173:../Dave/Generated/CMSIS_DSP/FilteringFunctions/arm_biquad_cascade_df1_fast_q31.c ****       multAcc_32x32_keep32_R(acc, b2, Xn);
 293              	 .loc 1 173 0
 294 01ae CDF868A0 	 str r10,[sp,#104]
 153:../Dave/Generated/CMSIS_DSP/FilteringFunctions/arm_biquad_cascade_df1_fast_q31.c **** 
 295              	 .loc 1 153 0
 296 01b2 4646     	 mov r6,r8
 297 01b4 16F10046 	 adds r6,r6,#-2147483648
 170:../Dave/Generated/CMSIS_DSP/FilteringFunctions/arm_biquad_cascade_df1_fast_q31.c ****       /* acc +=  b[2] * x[n-2] */
 298              	 .loc 1 170 0
 299 01b8 CCFB0245 	 smlal r4,r5,ip,r2
 153:../Dave/Generated/CMSIS_DSP/FilteringFunctions/arm_biquad_cascade_df1_fast_q31.c **** 
 300              	 .loc 1 153 0
 301 01bc 49F10007 	 adc r7,r9,#0
 302              	.LVL37:
 170:../Dave/Generated/CMSIS_DSP/FilteringFunctions/arm_biquad_cascade_df1_fast_q31.c ****       /* acc +=  b[2] * x[n-2] */
 303              	 .loc 1 170 0
 304 01c0 14F10044 	 adds r4,r4,#-2147483648
 305 01c4 45F10005 	 adc r5,r5,#0
 306              	 .loc 1 173 0
 307 01c8 1B95     	 str r5,[sp,#108]
 162:../Dave/Generated/CMSIS_DSP/FilteringFunctions/arm_biquad_cascade_df1_fast_q31.c **** 
 308              	 .loc 1 162 0
 309 01ca 0698     	 ldr r0,[sp,#24]
 174:../Dave/Generated/CMSIS_DSP/FilteringFunctions/arm_biquad_cascade_df1_fast_q31.c ****       /* acc +=  a1 * y[n-1] */
 175:../Dave/Generated/CMSIS_DSP/FilteringFunctions/arm_biquad_cascade_df1_fast_q31.c ****       /*acc = (q31_t) ((((q63_t) acc << 32) + ((q63_t) a1 * (Yn1))) >> 32);*/
 176:../Dave/Generated/CMSIS_DSP/FilteringFunctions/arm_biquad_cascade_df1_fast_q31.c ****       multAcc_32x32_keep32_R(acc, a1, Yn1);
 177:../Dave/Generated/CMSIS_DSP/FilteringFunctions/arm_biquad_cascade_df1_fast_q31.c ****       /* acc +=  a2 * y[n-2] */
 178:../Dave/Generated/CMSIS_DSP/FilteringFunctions/arm_biquad_cascade_df1_fast_q31.c ****       /*acc = (q31_t) ((((q63_t) acc << 32) + ((q63_t) a2 * (Yn2))) >> 32);*/
 179:../Dave/Generated/CMSIS_DSP/FilteringFunctions/arm_biquad_cascade_df1_fast_q31.c ****       multAcc_32x32_keep32_R(acc, a2, Yn2);
 180:../Dave/Generated/CMSIS_DSP/FilteringFunctions/arm_biquad_cascade_df1_fast_q31.c **** 
 181:../Dave/Generated/CMSIS_DSP/FilteringFunctions/arm_biquad_cascade_df1_fast_q31.c ****       /* The result is converted to 1.31, Yn2 variable is reused  */
 182:../Dave/Generated/CMSIS_DSP/FilteringFunctions/arm_biquad_cascade_df1_fast_q31.c ****       Yn2 = acc << shift;
 183:../Dave/Generated/CMSIS_DSP/FilteringFunctions/arm_biquad_cascade_df1_fast_q31.c **** 
 184:../Dave/Generated/CMSIS_DSP/FilteringFunctions/arm_biquad_cascade_df1_fast_q31.c ****       /* Read the forth input */
 185:../Dave/Generated/CMSIS_DSP/FilteringFunctions/arm_biquad_cascade_df1_fast_q31.c ****       Xn = *(pIn + 3u);
 310              	 .loc 1 185 0
 311 01cc 019E     	 ldr r6,[sp,#4]
 173:../Dave/Generated/CMSIS_DSP/FilteringFunctions/arm_biquad_cascade_df1_fast_q31.c ****       /* acc +=  a1 * y[n-1] */
 312              	 .loc 1 173 0
 313 01ce 029D     	 ldr r5,[sp,#8]
 186:../Dave/Generated/CMSIS_DSP/FilteringFunctions/arm_biquad_cascade_df1_fast_q31.c **** 
 187:../Dave/Generated/CMSIS_DSP/FilteringFunctions/arm_biquad_cascade_df1_fast_q31.c ****       /* Store the output in the destination buffer. */
 188:../Dave/Generated/CMSIS_DSP/FilteringFunctions/arm_biquad_cascade_df1_fast_q31.c ****       *(pOut + 2u) = Yn2;
 189:../Dave/Generated/CMSIS_DSP/FilteringFunctions/arm_biquad_cascade_df1_fast_q31.c ****       pIn += 4u;
 190:../Dave/Generated/CMSIS_DSP/FilteringFunctions/arm_biquad_cascade_df1_fast_q31.c **** 
 191:../Dave/Generated/CMSIS_DSP/FilteringFunctions/arm_biquad_cascade_df1_fast_q31.c ****       /* acc =  b0 * x[n] + b1 * x[n-1] + b2 * x[n-2] + a1 * y[n-1] + a2 * y[n-2] */
 192:../Dave/Generated/CMSIS_DSP/FilteringFunctions/arm_biquad_cascade_df1_fast_q31.c ****       /* acc =  b0 * x[n] */
 193:../Dave/Generated/CMSIS_DSP/FilteringFunctions/arm_biquad_cascade_df1_fast_q31.c ****       /*acc = (q31_t) (((q63_t) b0 * (Xn)) >> 32);*/
 194:../Dave/Generated/CMSIS_DSP/FilteringFunctions/arm_biquad_cascade_df1_fast_q31.c ****       mult_32x32_keep32_R(acc, b0, Xn);
 195:../Dave/Generated/CMSIS_DSP/FilteringFunctions/arm_biquad_cascade_df1_fast_q31.c ****       /* acc +=  b1 * x[n-1] */
 196:../Dave/Generated/CMSIS_DSP/FilteringFunctions/arm_biquad_cascade_df1_fast_q31.c ****       /*acc = (q31_t) ((((q63_t) acc << 32) + ((q63_t) b1 * (Xn1))) >> 32);*/
 197:../Dave/Generated/CMSIS_DSP/FilteringFunctions/arm_biquad_cascade_df1_fast_q31.c ****       multAcc_32x32_keep32_R(acc, b1, Xn1);
 314              	 .loc 1 197 0
 315 01d0 CDF880A0 	 str r10,[sp,#128]
 173:../Dave/Generated/CMSIS_DSP/FilteringFunctions/arm_biquad_cascade_df1_fast_q31.c ****       /* acc +=  a1 * y[n-1] */
 316              	 .loc 1 173 0
 317 01d4 DDE91A89 	 ldrd r8,[sp,#104]
 156:../Dave/Generated/CMSIS_DSP/FilteringFunctions/arm_biquad_cascade_df1_fast_q31.c **** 
 318              	 .loc 1 156 0
 319 01d8 07FA0EF2 	 lsl r2,r7,lr
 320              	.LVL38:
 173:../Dave/Generated/CMSIS_DSP/FilteringFunctions/arm_biquad_cascade_df1_fast_q31.c ****       /* acc +=  a1 * y[n-1] */
 321              	 .loc 1 173 0
 322 01dc 089F     	 ldr r7,[sp,#32]
 323              	.LVL39:
 162:../Dave/Generated/CMSIS_DSP/FilteringFunctions/arm_biquad_cascade_df1_fast_q31.c **** 
 324              	 .loc 1 162 0
 325 01de 40F80C2C 	 str r2,[r0,#-12]
 326              	.LVL40:
 173:../Dave/Generated/CMSIS_DSP/FilteringFunctions/arm_biquad_cascade_df1_fast_q31.c ****       /* acc +=  a1 * y[n-1] */
 327              	 .loc 1 173 0
 328 01e2 C5FB0789 	 smlal r8,r9,r5,r7
 185:../Dave/Generated/CMSIS_DSP/FilteringFunctions/arm_biquad_cascade_df1_fast_q31.c **** 
 329              	 .loc 1 185 0
 330 01e6 56F8040C 	 ldr r0,[r6,#-4]
 194:../Dave/Generated/CMSIS_DSP/FilteringFunctions/arm_biquad_cascade_df1_fast_q31.c ****       /* acc +=  b1 * x[n-1] */
 331              	 .loc 1 194 0
 332 01ea 059F     	 ldr r7,[sp,#20]
 176:../Dave/Generated/CMSIS_DSP/FilteringFunctions/arm_biquad_cascade_df1_fast_q31.c ****       /* acc +=  a2 * y[n-2] */
 333              	 .loc 1 176 0
 334 01ec CDF870A0 	 str r10,[sp,#112]
 173:../Dave/Generated/CMSIS_DSP/FilteringFunctions/arm_biquad_cascade_df1_fast_q31.c ****       /* acc +=  a1 * y[n-1] */
 335              	 .loc 1 173 0
 336 01f0 4446     	 mov r4,r8
 337 01f2 4D46     	 mov r5,r9
 194:../Dave/Generated/CMSIS_DSP/FilteringFunctions/arm_biquad_cascade_df1_fast_q31.c ****       /* acc +=  b1 * x[n-1] */
 338              	 .loc 1 194 0
 339 01f4 4FF00048 	 mov r8,#-2147483648
 340 01f8 4FF00009 	 mov r9,#0
 341 01fc C7FB0089 	 smlal r8,r9,r7,r0
 342              	 .loc 1 197 0
 343 0200 CDF88490 	 str r9,[sp,#132]
 344 0204 DDE92089 	 ldrd r8,[sp,#128]
 173:../Dave/Generated/CMSIS_DSP/FilteringFunctions/arm_biquad_cascade_df1_fast_q31.c ****       /* acc +=  a1 * y[n-1] */
 345              	 .loc 1 173 0
 346 0208 14F10044 	 adds r4,r4,#-2147483648
 347 020c 45F10005 	 adc r5,r5,#0
 348              	.LVL41:
 176:../Dave/Generated/CMSIS_DSP/FilteringFunctions/arm_biquad_cascade_df1_fast_q31.c ****       /* acc +=  a2 * y[n-2] */
 349              	 .loc 1 176 0
 350 0210 1D95     	 str r5,[sp,#116]
 351              	 .loc 1 197 0
 352 0212 CCFB0389 	 smlal r8,r9,ip,r3
 353 0216 4646     	 mov r6,r8
 354 0218 4F46     	 mov r7,r9
 176:../Dave/Generated/CMSIS_DSP/FilteringFunctions/arm_biquad_cascade_df1_fast_q31.c ****       /* acc +=  a2 * y[n-2] */
 355              	 .loc 1 176 0
 356 021a DDE91C89 	 ldrd r8,[sp,#112]
 357 021e 039C     	 ldr r4,[sp,#12]
 198:../Dave/Generated/CMSIS_DSP/FilteringFunctions/arm_biquad_cascade_df1_fast_q31.c ****       /* acc +=  b[2] * x[n-2] */
 199:../Dave/Generated/CMSIS_DSP/FilteringFunctions/arm_biquad_cascade_df1_fast_q31.c ****       /*acc = (q31_t) ((((q63_t) acc << 32) + ((q63_t) b2 * (Xn2))) >> 32);*/
 200:../Dave/Generated/CMSIS_DSP/FilteringFunctions/arm_biquad_cascade_df1_fast_q31.c ****       multAcc_32x32_keep32_R(acc, b2, Xn2);
 358              	 .loc 1 200 0
 359 0220 CDF888A0 	 str r10,[sp,#136]
 176:../Dave/Generated/CMSIS_DSP/FilteringFunctions/arm_biquad_cascade_df1_fast_q31.c ****       /* acc +=  a2 * y[n-2] */
 360              	 .loc 1 176 0
 361 0224 C4FB0289 	 smlal r8,r9,r4,r2
 197:../Dave/Generated/CMSIS_DSP/FilteringFunctions/arm_biquad_cascade_df1_fast_q31.c ****       /* acc +=  b[2] * x[n-2] */
 362              	 .loc 1 197 0
 363 0228 16F10046 	 adds r6,r6,#-2147483648
 364 022c 47F10007 	 adc r7,r7,#0
 176:../Dave/Generated/CMSIS_DSP/FilteringFunctions/arm_biquad_cascade_df1_fast_q31.c ****       /* acc +=  a2 * y[n-2] */
 365              	 .loc 1 176 0
 366 0230 4446     	 mov r4,r8
 367 0232 14F10044 	 adds r4,r4,#-2147483648
 368              	 .loc 1 200 0
 369 0236 2397     	 str r7,[sp,#140]
 176:../Dave/Generated/CMSIS_DSP/FilteringFunctions/arm_biquad_cascade_df1_fast_q31.c ****       /* acc +=  a2 * y[n-2] */
 370              	 .loc 1 176 0
 371 0238 49F10005 	 adc r5,r9,#0
 372              	.LVL42:
 373              	 .loc 1 200 0
 374 023c DDE92289 	 ldrd r8,[sp,#136]
 179:../Dave/Generated/CMSIS_DSP/FilteringFunctions/arm_biquad_cascade_df1_fast_q31.c **** 
 375              	 .loc 1 179 0
 376 0240 1F95     	 str r5,[sp,#124]
 377              	 .loc 1 200 0
 378 0242 099F     	 ldr r7,[sp,#36]
 379 0244 029D     	 ldr r5,[sp,#8]
 380              	.LVL43:
 179:../Dave/Generated/CMSIS_DSP/FilteringFunctions/arm_biquad_cascade_df1_fast_q31.c **** 
 381              	 .loc 1 179 0
 382 0246 CDF878A0 	 str r10,[sp,#120]
 383              	 .loc 1 200 0
 384 024a C5FB0789 	 smlal r8,r9,r5,r7
 385 024e 4446     	 mov r4,r8
 386 0250 4D46     	 mov r5,r9
 179:../Dave/Generated/CMSIS_DSP/FilteringFunctions/arm_biquad_cascade_df1_fast_q31.c **** 
 387              	 .loc 1 179 0
 388 0252 DDE91E89 	 ldrd r8,[sp,#120]
 389 0256 049F     	 ldr r7,[sp,#16]
 390 0258 C7FB0189 	 smlal r8,r9,r7,r1
 391              	 .loc 1 200 0
 392 025c 14F10044 	 adds r4,r4,#-2147483648
 179:../Dave/Generated/CMSIS_DSP/FilteringFunctions/arm_biquad_cascade_df1_fast_q31.c **** 
 393              	 .loc 1 179 0
 394 0260 4646     	 mov r6,r8
 395              	 .loc 1 200 0
 396 0262 45F10005 	 adc r5,r5,#0
 179:../Dave/Generated/CMSIS_DSP/FilteringFunctions/arm_biquad_cascade_df1_fast_q31.c **** 
 397              	 .loc 1 179 0
 398 0266 16F10046 	 adds r6,r6,#-2147483648
 201:../Dave/Generated/CMSIS_DSP/FilteringFunctions/arm_biquad_cascade_df1_fast_q31.c ****       /* acc +=  a1 * y[n-1] */
 202:../Dave/Generated/CMSIS_DSP/FilteringFunctions/arm_biquad_cascade_df1_fast_q31.c ****       /*acc = (q31_t) ((((q63_t) acc << 32) + ((q63_t) a1 * (Yn2))) >> 32);*/
 203:../Dave/Generated/CMSIS_DSP/FilteringFunctions/arm_biquad_cascade_df1_fast_q31.c ****       multAcc_32x32_keep32_R(acc, a1, Yn2);
 399              	 .loc 1 203 0
 400 026a 2595     	 str r5,[sp,#148]
 179:../Dave/Generated/CMSIS_DSP/FilteringFunctions/arm_biquad_cascade_df1_fast_q31.c **** 
 401              	 .loc 1 179 0
 402 026c 49F10007 	 adc r7,r9,#0
 403              	.LVL44:
 404              	 .loc 1 203 0
 405 0270 CDF890A0 	 str r10,[sp,#144]
 182:../Dave/Generated/CMSIS_DSP/FilteringFunctions/arm_biquad_cascade_df1_fast_q31.c **** 
 406              	 .loc 1 182 0
 407 0274 07FA0EF1 	 lsl r1,r7,lr
 408              	.LVL45:
 409              	 .loc 1 203 0
 410 0278 DDE92467 	 ldrd r6,[sp,#144]
 411 027c 039D     	 ldr r5,[sp,#12]
 204:../Dave/Generated/CMSIS_DSP/FilteringFunctions/arm_biquad_cascade_df1_fast_q31.c ****       /* acc +=  a2 * y[n-2] */
 205:../Dave/Generated/CMSIS_DSP/FilteringFunctions/arm_biquad_cascade_df1_fast_q31.c ****       /*acc = (q31_t) ((((q63_t) acc << 32) + ((q63_t) a2 * (Yn1))) >> 32);*/
 206:../Dave/Generated/CMSIS_DSP/FilteringFunctions/arm_biquad_cascade_df1_fast_q31.c ****       multAcc_32x32_keep32_R(acc, a2, Yn1);
 412              	 .loc 1 206 0
 413 027e CDF898A0 	 str r10,[sp,#152]
 203:../Dave/Generated/CMSIS_DSP/FilteringFunctions/arm_biquad_cascade_df1_fast_q31.c ****       /* acc +=  a2 * y[n-2] */
 414              	 .loc 1 203 0
 415 0282 C5FB0167 	 smlal r6,r7,r5,r1
 416 0286 3446     	 mov r4,r6
 417 0288 14F10044 	 adds r4,r4,#-2147483648
 418 028c 47F10005 	 adc r5,r7,#0
 419              	 .loc 1 206 0
 420 0290 2795     	 str r5,[sp,#156]
 421 0292 DDE92645 	 ldrd r4,[sp,#152]
 422 0296 049F     	 ldr r7,[sp,#16]
 423              	.LVL46:
 424 0298 C7FB0245 	 smlal r4,r5,r7,r2
 425 029c 14F10044 	 adds r4,r4,#-2147483648
 426 02a0 45F10005 	 adc r5,r5,#0
 188:../Dave/Generated/CMSIS_DSP/FilteringFunctions/arm_biquad_cascade_df1_fast_q31.c ****       pIn += 4u;
 427              	 .loc 1 188 0
 428 02a4 069C     	 ldr r4,[sp,#24]
 207:../Dave/Generated/CMSIS_DSP/FilteringFunctions/arm_biquad_cascade_df1_fast_q31.c **** 
 208:../Dave/Generated/CMSIS_DSP/FilteringFunctions/arm_biquad_cascade_df1_fast_q31.c ****       /* Every time after the output is computed state should be updated. */
 209:../Dave/Generated/CMSIS_DSP/FilteringFunctions/arm_biquad_cascade_df1_fast_q31.c ****       /* The states should be updated as:  */
 210:../Dave/Generated/CMSIS_DSP/FilteringFunctions/arm_biquad_cascade_df1_fast_q31.c ****       /* Xn2 = Xn1    */
 211:../Dave/Generated/CMSIS_DSP/FilteringFunctions/arm_biquad_cascade_df1_fast_q31.c ****       Xn2 = Xn1;
 212:../Dave/Generated/CMSIS_DSP/FilteringFunctions/arm_biquad_cascade_df1_fast_q31.c **** 
 213:../Dave/Generated/CMSIS_DSP/FilteringFunctions/arm_biquad_cascade_df1_fast_q31.c ****       /* The result is converted to 1.31, Yn1 variable is reused  */
 214:../Dave/Generated/CMSIS_DSP/FilteringFunctions/arm_biquad_cascade_df1_fast_q31.c ****       Yn1 = acc << shift;
 429              	 .loc 1 214 0
 430 02a6 05FA0EF2 	 lsl r2,r5,lr
 431              	.LVL47:
 188:../Dave/Generated/CMSIS_DSP/FilteringFunctions/arm_biquad_cascade_df1_fast_q31.c ****       pIn += 4u;
 432              	 .loc 1 188 0
 433 02aa 44F8081C 	 str r1,[r4,#-8]
 434              	.LVL48:
 215:../Dave/Generated/CMSIS_DSP/FilteringFunctions/arm_biquad_cascade_df1_fast_q31.c **** 
 216:../Dave/Generated/CMSIS_DSP/FilteringFunctions/arm_biquad_cascade_df1_fast_q31.c ****       /* Xn1 = Xn     */
 217:../Dave/Generated/CMSIS_DSP/FilteringFunctions/arm_biquad_cascade_df1_fast_q31.c ****       Xn1 = Xn;
 218:../Dave/Generated/CMSIS_DSP/FilteringFunctions/arm_biquad_cascade_df1_fast_q31.c **** 
 219:../Dave/Generated/CMSIS_DSP/FilteringFunctions/arm_biquad_cascade_df1_fast_q31.c ****       /* Store the output in the destination buffer. */
 220:../Dave/Generated/CMSIS_DSP/FilteringFunctions/arm_biquad_cascade_df1_fast_q31.c ****       *(pOut + 3u) = Yn1;
 435              	 .loc 1 220 0
 436 02ae 44F8042C 	 str r2,[r4,#-4]
 437              	.LVL49:
 438 02b2 1034     	 adds r4,r4,#16
 439 02b4 019D     	 ldr r5,[sp,#4]
 440 02b6 0694     	 str r4,[sp,#24]
 107:../Dave/Generated/CMSIS_DSP/FilteringFunctions/arm_biquad_cascade_df1_fast_q31.c ****     {
 441              	 .loc 1 107 0
 442 02b8 2D9C     	 ldr r4,[sp,#180]
 443 02ba 1035     	 adds r5,r5,#16
 444 02bc 013C     	 subs r4,r4,#1
 445              	.LVL50:
 446 02be 0195     	 str r5,[sp,#4]
 447              	.LVL51:
 448 02c0 2D94     	 str r4,[sp,#180]
 449 02c2 7FF4EDAE 	 bne .L3
 450 02c6 9E46     	 mov lr,r3
 451 02c8 3A9C     	 ldr r4,[sp,#232]
 452              	.LVL52:
 453 02ca DDF814C0 	 ldr ip,[sp,#20]
 454              	.LVL53:
 221:../Dave/Generated/CMSIS_DSP/FilteringFunctions/arm_biquad_cascade_df1_fast_q31.c ****       pOut += 4u;
 455              	 .loc 1 221 0
 456 02ce 3B9D     	 ldr r5,[sp,#236]
 457              	.LVL54:
 458 02d0 0346     	 mov r3,r0
 459              	.LVL55:
 460 02d2 2C98     	 ldr r0,[sp,#176]
 461              	.LVL56:
 462 02d4 2044     	 add r0,r0,r4
 463 02d6 2C90     	 str r0,[sp,#176]
 464              	.LVL57:
 465              	.L2:
 222:../Dave/Generated/CMSIS_DSP/FilteringFunctions/arm_biquad_cascade_df1_fast_q31.c **** 
 223:../Dave/Generated/CMSIS_DSP/FilteringFunctions/arm_biquad_cascade_df1_fast_q31.c ****       /* decrement the loop counter */
 224:../Dave/Generated/CMSIS_DSP/FilteringFunctions/arm_biquad_cascade_df1_fast_q31.c ****       sample--;
 225:../Dave/Generated/CMSIS_DSP/FilteringFunctions/arm_biquad_cascade_df1_fast_q31.c ****     }
 226:../Dave/Generated/CMSIS_DSP/FilteringFunctions/arm_biquad_cascade_df1_fast_q31.c **** 
 227:../Dave/Generated/CMSIS_DSP/FilteringFunctions/arm_biquad_cascade_df1_fast_q31.c ****     /* If the blockSize is not a multiple of 4, compute any remaining output samples here.
 228:../Dave/Generated/CMSIS_DSP/FilteringFunctions/arm_biquad_cascade_df1_fast_q31.c ****      ** No loop unrolling is used. */
 229:../Dave/Generated/CMSIS_DSP/FilteringFunctions/arm_biquad_cascade_df1_fast_q31.c ****     sample = (blockSize & 0x3u);
 230:../Dave/Generated/CMSIS_DSP/FilteringFunctions/arm_biquad_cascade_df1_fast_q31.c **** 
 231:../Dave/Generated/CMSIS_DSP/FilteringFunctions/arm_biquad_cascade_df1_fast_q31.c ****    while (sample > 0u)
 466              	 .loc 1 231 0
 467 02d8 3998     	 ldr r0,[sp,#228]
 468 02da 0028     	 cmp r0,#0
 469 02dc 6DD0     	 beq .L8
 470 02de 0191     	 str r1,[sp,#4]
 471 02e0 0590     	 str r0,[sp,#20]
 472 02e2 CDE906AB 	 strd r10,[sp,#24]
 473 02e6 01E0     	 b .L5
 474              	.LVL58:
 475              	.L9:
 232:../Dave/Generated/CMSIS_DSP/FilteringFunctions/arm_biquad_cascade_df1_fast_q31.c ****    {
 233:../Dave/Generated/CMSIS_DSP/FilteringFunctions/arm_biquad_cascade_df1_fast_q31.c ****       /* Read the input */
 234:../Dave/Generated/CMSIS_DSP/FilteringFunctions/arm_biquad_cascade_df1_fast_q31.c ****       Xn = *pIn++;
 235:../Dave/Generated/CMSIS_DSP/FilteringFunctions/arm_biquad_cascade_df1_fast_q31.c **** 
 236:../Dave/Generated/CMSIS_DSP/FilteringFunctions/arm_biquad_cascade_df1_fast_q31.c ****       /* acc =  b0 * x[n] + b1 * x[n-1] + b2 * x[n-2] + a1 * y[n-1] + a2 * y[n-2] */
 237:../Dave/Generated/CMSIS_DSP/FilteringFunctions/arm_biquad_cascade_df1_fast_q31.c ****       /* acc =  b0 * x[n] */
 238:../Dave/Generated/CMSIS_DSP/FilteringFunctions/arm_biquad_cascade_df1_fast_q31.c ****       /*acc = (q31_t) (((q63_t) b0 * (Xn)) >> 32);*/
 239:../Dave/Generated/CMSIS_DSP/FilteringFunctions/arm_biquad_cascade_df1_fast_q31.c ****       mult_32x32_keep32_R(acc, b0, Xn);
 240:../Dave/Generated/CMSIS_DSP/FilteringFunctions/arm_biquad_cascade_df1_fast_q31.c ****       /* acc +=  b1 * x[n-1] */
 241:../Dave/Generated/CMSIS_DSP/FilteringFunctions/arm_biquad_cascade_df1_fast_q31.c ****       /*acc = (q31_t) ((((q63_t) acc << 32) + ((q63_t) b1 * (Xn1))) >> 32);*/
 242:../Dave/Generated/CMSIS_DSP/FilteringFunctions/arm_biquad_cascade_df1_fast_q31.c ****       multAcc_32x32_keep32_R(acc, b1, Xn1);
 243:../Dave/Generated/CMSIS_DSP/FilteringFunctions/arm_biquad_cascade_df1_fast_q31.c ****       /* acc +=  b[2] * x[n-2] */
 244:../Dave/Generated/CMSIS_DSP/FilteringFunctions/arm_biquad_cascade_df1_fast_q31.c ****       /*acc = (q31_t) ((((q63_t) acc << 32) + ((q63_t) b2 * (Xn2))) >> 32);*/
 245:../Dave/Generated/CMSIS_DSP/FilteringFunctions/arm_biquad_cascade_df1_fast_q31.c ****       multAcc_32x32_keep32_R(acc, b2, Xn2);
 246:../Dave/Generated/CMSIS_DSP/FilteringFunctions/arm_biquad_cascade_df1_fast_q31.c ****       /* acc +=  a1 * y[n-1] */
 247:../Dave/Generated/CMSIS_DSP/FilteringFunctions/arm_biquad_cascade_df1_fast_q31.c ****       /*acc = (q31_t) ((((q63_t) acc << 32) + ((q63_t) a1 * (Yn1))) >> 32);*/
 248:../Dave/Generated/CMSIS_DSP/FilteringFunctions/arm_biquad_cascade_df1_fast_q31.c ****       multAcc_32x32_keep32_R(acc, a1, Yn1);
 249:../Dave/Generated/CMSIS_DSP/FilteringFunctions/arm_biquad_cascade_df1_fast_q31.c ****       /* acc +=  a2 * y[n-2] */
 250:../Dave/Generated/CMSIS_DSP/FilteringFunctions/arm_biquad_cascade_df1_fast_q31.c ****       /*acc = (q31_t) ((((q63_t) acc << 32) + ((q63_t) a2 * (Yn2))) >> 32);*/
 251:../Dave/Generated/CMSIS_DSP/FilteringFunctions/arm_biquad_cascade_df1_fast_q31.c ****       multAcc_32x32_keep32_R(acc, a2, Yn2);
 252:../Dave/Generated/CMSIS_DSP/FilteringFunctions/arm_biquad_cascade_df1_fast_q31.c **** 
 253:../Dave/Generated/CMSIS_DSP/FilteringFunctions/arm_biquad_cascade_df1_fast_q31.c ****       /* The result is converted to 1.31  */
 254:../Dave/Generated/CMSIS_DSP/FilteringFunctions/arm_biquad_cascade_df1_fast_q31.c ****       acc = acc << shift;
 476              	 .loc 1 254 0
 477 02e8 3246     	 mov r2,r6
 478              	.LVL59:
 234:../Dave/Generated/CMSIS_DSP/FilteringFunctions/arm_biquad_cascade_df1_fast_q31.c **** 
 479              	 .loc 1 234 0
 480 02ea 2346     	 mov r3,r4
 481              	.LVL60:
 482              	.L5:
 483 02ec 2C9E     	 ldr r6,[sp,#176]
 484 02ee 56F8044B 	 ldr r4,[r6],#4
 485 02f2 2C96     	 str r6,[sp,#176]
 486              	.LVL61:
 239:../Dave/Generated/CMSIS_DSP/FilteringFunctions/arm_biquad_cascade_df1_fast_q31.c ****       /* acc +=  b1 * x[n-1] */
 487              	 .loc 1 239 0
 488 02f4 0027     	 movs r7,#0
 489 02f6 4FF00046 	 mov r6,#-2147483648
 490              	.LVL62:
 491 02fa CCFB0467 	 smlal r6,r7,ip,r4
 242:../Dave/Generated/CMSIS_DSP/FilteringFunctions/arm_biquad_cascade_df1_fast_q31.c ****       /* acc +=  b[2] * x[n-2] */
 492              	 .loc 1 242 0
 493 02fe 4FF0000A 	 mov r10,#0
 494 0302 3946     	 mov r1,r7
 495 0304 BB46     	 mov fp,r7
 496 0306 2E9F     	 ldr r7,[sp,#184]
 248:../Dave/Generated/CMSIS_DSP/FilteringFunctions/arm_biquad_cascade_df1_fast_q31.c ****       /* acc +=  a2 * y[n-2] */
 497              	 .loc 1 248 0
 498 0308 CDF8A0A0 	 str r10,[sp,#160]
 242:../Dave/Generated/CMSIS_DSP/FilteringFunctions/arm_biquad_cascade_df1_fast_q31.c ****       /* acc +=  b[2] * x[n-2] */
 499              	 .loc 1 242 0
 500 030c 5046     	 mov r0,r10
 501 030e C7FB0301 	 smlal r0,r1,r7,r3
 502 0312 0646     	 mov r6,r0
 503 0314 16F10046 	 adds r6,r6,#-2147483648
 504 0318 41F10007 	 adc r7,r1,#0
 245:../Dave/Generated/CMSIS_DSP/FilteringFunctions/arm_biquad_cascade_df1_fast_q31.c ****       /* acc +=  a1 * y[n-1] */
 505              	 .loc 1 245 0
 506 031c 3946     	 mov r1,r7
 507 031e B946     	 mov r9,r7
 508 0320 029F     	 ldr r7,[sp,#8]
 251:../Dave/Generated/CMSIS_DSP/FilteringFunctions/arm_biquad_cascade_df1_fast_q31.c **** 
 509              	 .loc 1 251 0
 510 0322 CDF8A8A0 	 str r10,[sp,#168]
 245:../Dave/Generated/CMSIS_DSP/FilteringFunctions/arm_biquad_cascade_df1_fast_q31.c ****       /* acc +=  a1 * y[n-1] */
 511              	 .loc 1 245 0
 512 0326 5046     	 mov r0,r10
 513 0328 C7FB0E01 	 smlal r0,r1,r7,lr
 514 032c 0646     	 mov r6,r0
 515 032e 16F10046 	 adds r6,r6,#-2147483648
 516 0332 41F10007 	 adc r7,r1,#0
 517              	.LVL63:
 248:../Dave/Generated/CMSIS_DSP/FilteringFunctions/arm_biquad_cascade_df1_fast_q31.c ****       /* acc +=  a2 * y[n-2] */
 518              	 .loc 1 248 0
 519 0336 2997     	 str r7,[sp,#164]
 520 0338 DDE92801 	 ldrd r0,[sp,#160]
 521 033c 039F     	 ldr r7,[sp,#12]
 522              	.LVL64:
 523 033e C7FB0201 	 smlal r0,r1,r7,r2
 524 0342 0646     	 mov r6,r0
 525 0344 16F10046 	 adds r6,r6,#-2147483648
 526 0348 41F10007 	 adc r7,r1,#0
 527              	.LVL65:
 251:../Dave/Generated/CMSIS_DSP/FilteringFunctions/arm_biquad_cascade_df1_fast_q31.c **** 
 528              	 .loc 1 251 0
 529 034c 2B97     	 str r7,[sp,#172]
 530 034e DDE92A01 	 ldrd r0,[sp,#168]
 531 0352 019E     	 ldr r6,[sp,#4]
 532 0354 049F     	 ldr r7,[sp,#16]
 533              	.LVL66:
 534 0356 0192     	 str r2,[sp,#4]
 535              	.LVL67:
 536 0358 C7FB0601 	 smlal r0,r1,r7,r6
 537 035c 0646     	 mov r6,r0
 538              	.LVL68:
 539 035e 16F10046 	 adds r6,r6,#-2147483648
 540 0362 41F10007 	 adc r7,r1,#0
 541              	.LVL69:
 542              	 .loc 1 254 0
 543 0366 2F99     	 ldr r1,[sp,#188]
 544 0368 07FA01F6 	 lsl r6,r7,r1
 545              	.LVL70:
 231:../Dave/Generated/CMSIS_DSP/FilteringFunctions/arm_biquad_cascade_df1_fast_q31.c ****    {
 546              	 .loc 1 231 0
 547 036c 0599     	 ldr r1,[sp,#20]
 255:../Dave/Generated/CMSIS_DSP/FilteringFunctions/arm_biquad_cascade_df1_fast_q31.c **** 
 256:../Dave/Generated/CMSIS_DSP/FilteringFunctions/arm_biquad_cascade_df1_fast_q31.c ****       /* Every time after the output is computed state should be updated. */
 257:../Dave/Generated/CMSIS_DSP/FilteringFunctions/arm_biquad_cascade_df1_fast_q31.c ****       /* The states should be updated as:  */
 258:../Dave/Generated/CMSIS_DSP/FilteringFunctions/arm_biquad_cascade_df1_fast_q31.c ****       /* Xn2 = Xn1    */
 259:../Dave/Generated/CMSIS_DSP/FilteringFunctions/arm_biquad_cascade_df1_fast_q31.c ****       /* Xn1 = Xn     */
 260:../Dave/Generated/CMSIS_DSP/FilteringFunctions/arm_biquad_cascade_df1_fast_q31.c ****       /* Yn2 = Yn1    */
 261:../Dave/Generated/CMSIS_DSP/FilteringFunctions/arm_biquad_cascade_df1_fast_q31.c ****       /* Yn1 = acc    */
 262:../Dave/Generated/CMSIS_DSP/FilteringFunctions/arm_biquad_cascade_df1_fast_q31.c ****       Xn2 = Xn1;
 263:../Dave/Generated/CMSIS_DSP/FilteringFunctions/arm_biquad_cascade_df1_fast_q31.c ****       Xn1 = Xn;
 264:../Dave/Generated/CMSIS_DSP/FilteringFunctions/arm_biquad_cascade_df1_fast_q31.c ****       Yn2 = Yn1;
 265:../Dave/Generated/CMSIS_DSP/FilteringFunctions/arm_biquad_cascade_df1_fast_q31.c ****       Yn1 = acc;
 266:../Dave/Generated/CMSIS_DSP/FilteringFunctions/arm_biquad_cascade_df1_fast_q31.c **** 
 267:../Dave/Generated/CMSIS_DSP/FilteringFunctions/arm_biquad_cascade_df1_fast_q31.c ****       /* Store the output in the destination buffer. */
 268:../Dave/Generated/CMSIS_DSP/FilteringFunctions/arm_biquad_cascade_df1_fast_q31.c ****       *pOut++ = acc;
 548              	 .loc 1 268 0
 549 036e 45F8046B 	 str r6,[r5],#4
 550              	.LVL71:
 231:../Dave/Generated/CMSIS_DSP/FilteringFunctions/arm_biquad_cascade_df1_fast_q31.c ****    {
 551              	 .loc 1 231 0
 552 0372 0139     	 subs r1,r1,#1
 553              	.LVL72:
 245:../Dave/Generated/CMSIS_DSP/FilteringFunctions/arm_biquad_cascade_df1_fast_q31.c ****       /* acc +=  a1 * y[n-1] */
 554              	 .loc 1 245 0
 555 0374 D046     	 mov r8,r10
 556 0376 9E46     	 mov lr,r3
 231:../Dave/Generated/CMSIS_DSP/FilteringFunctions/arm_biquad_cascade_df1_fast_q31.c ****    {
 557              	 .loc 1 231 0
 558 0378 0591     	 str r1,[sp,#20]
 559 037a B5D1     	 bne .L9
 560 037c CDE934AB 	 strd r10,[sp,#208]
 561 0380 CDE93689 	 strd r8,[sp,#216]
 562 0384 DDE906AB 	 ldrd r10,[sp,#24]
 563              	.LVL73:
 564              	.L4:
 269:../Dave/Generated/CMSIS_DSP/FilteringFunctions/arm_biquad_cascade_df1_fast_q31.c **** 
 270:../Dave/Generated/CMSIS_DSP/FilteringFunctions/arm_biquad_cascade_df1_fast_q31.c ****       /* decrement the loop counter */
 271:../Dave/Generated/CMSIS_DSP/FilteringFunctions/arm_biquad_cascade_df1_fast_q31.c ****       sample--;
 272:../Dave/Generated/CMSIS_DSP/FilteringFunctions/arm_biquad_cascade_df1_fast_q31.c ****    }
 273:../Dave/Generated/CMSIS_DSP/FilteringFunctions/arm_biquad_cascade_df1_fast_q31.c **** 
 274:../Dave/Generated/CMSIS_DSP/FilteringFunctions/arm_biquad_cascade_df1_fast_q31.c ****     /*  The first stage goes from the input buffer to the output buffer. */
 275:../Dave/Generated/CMSIS_DSP/FilteringFunctions/arm_biquad_cascade_df1_fast_q31.c ****     /*  Subsequent stages occur in-place in the output buffer */
 276:../Dave/Generated/CMSIS_DSP/FilteringFunctions/arm_biquad_cascade_df1_fast_q31.c ****     pIn = pDst;
 277:../Dave/Generated/CMSIS_DSP/FilteringFunctions/arm_biquad_cascade_df1_fast_q31.c **** 
 278:../Dave/Generated/CMSIS_DSP/FilteringFunctions/arm_biquad_cascade_df1_fast_q31.c ****     /* Reset to destination pointer */
 279:../Dave/Generated/CMSIS_DSP/FilteringFunctions/arm_biquad_cascade_df1_fast_q31.c ****     pOut = pDst;
 280:../Dave/Generated/CMSIS_DSP/FilteringFunctions/arm_biquad_cascade_df1_fast_q31.c **** 
 281:../Dave/Generated/CMSIS_DSP/FilteringFunctions/arm_biquad_cascade_df1_fast_q31.c ****     /*  Store the updated state variables back into the pState array */
 282:../Dave/Generated/CMSIS_DSP/FilteringFunctions/arm_biquad_cascade_df1_fast_q31.c ****     *pState++ = Xn1;
 565              	 .loc 1 282 0
 566 0388 3198     	 ldr r0,[sp,#196]
 283:../Dave/Generated/CMSIS_DSP/FilteringFunctions/arm_biquad_cascade_df1_fast_q31.c ****     *pState++ = Xn2;
 567              	 .loc 1 283 0
 568 038a 40F80C3C 	 str r3,[r0,#-12]
 569 038e 00F11003 	 add r3,r0,#16
 570              	.LVL74:
 571 0392 3193     	 str r3,[sp,#196]
 572              	.LVL75:
 276:../Dave/Generated/CMSIS_DSP/FilteringFunctions/arm_biquad_cascade_df1_fast_q31.c **** 
 573              	 .loc 1 276 0
 574 0394 339B     	 ldr r3,[sp,#204]
 284:../Dave/Generated/CMSIS_DSP/FilteringFunctions/arm_biquad_cascade_df1_fast_q31.c ****     *pState++ = Yn1;
 285:../Dave/Generated/CMSIS_DSP/FilteringFunctions/arm_biquad_cascade_df1_fast_q31.c ****     *pState++ = Yn2;
 575              	 .loc 1 285 0
 576 0396 40F8042C 	 str r2,[r0,#-4]
 276:../Dave/Generated/CMSIS_DSP/FilteringFunctions/arm_biquad_cascade_df1_fast_q31.c **** 
 577              	 .loc 1 276 0
 578 039a 2C93     	 str r3,[sp,#176]
 579 039c 309A     	 ldr r2,[sp,#192]
 580              	.LVL76:
 286:../Dave/Generated/CMSIS_DSP/FilteringFunctions/arm_biquad_cascade_df1_fast_q31.c **** 
 287:../Dave/Generated/CMSIS_DSP/FilteringFunctions/arm_biquad_cascade_df1_fast_q31.c ****   } while (--stage);
 581              	 .loc 1 287 0
 582 039e 329B     	 ldr r3,[sp,#200]
 282:../Dave/Generated/CMSIS_DSP/FilteringFunctions/arm_biquad_cascade_df1_fast_q31.c ****     *pState++ = Xn2;
 583              	 .loc 1 282 0
 584 03a0 40F8104C 	 str r4,[r0,#-16]
 585 03a4 1432     	 adds r2,r2,#20
 586              	 .loc 1 287 0
 587 03a6 013B     	 subs r3,r3,#1
 284:../Dave/Generated/CMSIS_DSP/FilteringFunctions/arm_biquad_cascade_df1_fast_q31.c ****     *pState++ = Yn1;
 588              	 .loc 1 284 0
 589 03a8 40F8086C 	 str r6,[r0,#-8]
 590              	.LVL77:
 591 03ac 3092     	 str r2,[sp,#192]
 592              	 .loc 1 287 0
 593 03ae 3293     	 str r3,[sp,#200]
 594 03b0 7FF446AE 	 bne .L6
 288:../Dave/Generated/CMSIS_DSP/FilteringFunctions/arm_biquad_cascade_df1_fast_q31.c **** }
 595              	 .loc 1 288 0
 596 03b4 3DB0     	 add sp,sp,#244
 597              	.LCFI2:
 598              	 .cfi_remember_state
 599              	 .cfi_def_cfa_offset 36
 600              	 
 601 03b6 BDE8F08F 	 pop {r4,r5,r6,r7,r8,r9,r10,fp,pc}
 602              	.LVL78:
 603              	.L8:
 604              	.LCFI3:
 605              	 .cfi_restore_state
 231:../Dave/Generated/CMSIS_DSP/FilteringFunctions/arm_biquad_cascade_df1_fast_q31.c ****    {
 606              	 .loc 1 231 0
 607 03ba 1646     	 mov r6,r2
 608 03bc 1C46     	 mov r4,r3
 609 03be 0A46     	 mov r2,r1
 610              	.LVL79:
 611 03c0 7346     	 mov r3,lr
 612              	.LVL80:
 613 03c2 E1E7     	 b .L4
 614              	.LVL81:
 615              	.L7:
 107:../Dave/Generated/CMSIS_DSP/FilteringFunctions/arm_biquad_cascade_df1_fast_q31.c ****     {
 616              	 .loc 1 107 0
 617 03c4 339D     	 ldr r5,[sp,#204]
 618 03c6 87E7     	 b .L2
 619              	 .cfi_endproc
 620              	.LFE135:
 622              	 .text
 623              	.Letext0:
 624              	 .file 2 "c:\\infineon\\tools\\dave ide\\4.5.0.202105191637\\eclipse\\arm-gcc-49\\arm-none-eabi\\include\\machine\\_default_types.h"
 625              	 .file 3 "c:\\infineon\\tools\\dave ide\\4.5.0.202105191637\\eclipse\\arm-gcc-49\\arm-none-eabi\\include\\stdint.h"
 626              	 .file 4 "C:/Users/Utente/Desktop/Tesi/Firmware_Software/DAVE project/S2GLP_Pulsed_Doppler/Dave/Generated/CMSIS_DSP/arm_math.h"