   1              	 .syntax unified
   2              	 .cpu cortex-m4
   3              	 .eabi_attribute 27,3
   4              	 .fpu fpv4-sp-d16
   5              	 .eabi_attribute 20,1
   6              	 .eabi_attribute 21,1
   7              	 .eabi_attribute 23,3
   8              	 .eabi_attribute 24,1
   9              	 .eabi_attribute 25,1
  10              	 .eabi_attribute 26,1
  11              	 .eabi_attribute 30,2
  12              	 .eabi_attribute 34,1
  13              	 .eabi_attribute 18,4
  14              	 .thumb
  15              	 .file "arm_fir_interpolate_q31.c"
  16              	 .text
  17              	.Ltext0:
  18              	 .cfi_sections .debug_frame
  19              	 .section .text.arm_fir_interpolate_q31,"ax",%progbits
  20              	 .align 2
  21              	 .global arm_fir_interpolate_q31
  22              	 .thumb
  23              	 .thumb_func
  25              	arm_fir_interpolate_q31:
  26              	.LFB135:
  27              	 .file 1 "../Dave/Generated/CMSIS_DSP/FilteringFunctions/arm_fir_interpolate_q31.c"
   1:../Dave/Generated/CMSIS_DSP/FilteringFunctions/arm_fir_interpolate_q31.c **** /* ----------------------------------------------------------------------
   2:../Dave/Generated/CMSIS_DSP/FilteringFunctions/arm_fir_interpolate_q31.c ****  * Project:      CMSIS DSP Library
   3:../Dave/Generated/CMSIS_DSP/FilteringFunctions/arm_fir_interpolate_q31.c ****  * Title:        arm_fir_interpolate_q31.c
   4:../Dave/Generated/CMSIS_DSP/FilteringFunctions/arm_fir_interpolate_q31.c ****  * Description:  Q31 FIR interpolation
   5:../Dave/Generated/CMSIS_DSP/FilteringFunctions/arm_fir_interpolate_q31.c ****  *
   6:../Dave/Generated/CMSIS_DSP/FilteringFunctions/arm_fir_interpolate_q31.c ****  * $Date:        27. January 2017
   7:../Dave/Generated/CMSIS_DSP/FilteringFunctions/arm_fir_interpolate_q31.c ****  * $Revision:    V.1.5.1
   8:../Dave/Generated/CMSIS_DSP/FilteringFunctions/arm_fir_interpolate_q31.c ****  *
   9:../Dave/Generated/CMSIS_DSP/FilteringFunctions/arm_fir_interpolate_q31.c ****  * Target Processor: Cortex-M cores
  10:../Dave/Generated/CMSIS_DSP/FilteringFunctions/arm_fir_interpolate_q31.c ****  * -------------------------------------------------------------------- */
  11:../Dave/Generated/CMSIS_DSP/FilteringFunctions/arm_fir_interpolate_q31.c **** /*
  12:../Dave/Generated/CMSIS_DSP/FilteringFunctions/arm_fir_interpolate_q31.c ****  * Copyright (C) 2010-2017 ARM Limited or its affiliates. All rights reserved.
  13:../Dave/Generated/CMSIS_DSP/FilteringFunctions/arm_fir_interpolate_q31.c ****  *
  14:../Dave/Generated/CMSIS_DSP/FilteringFunctions/arm_fir_interpolate_q31.c ****  * SPDX-License-Identifier: Apache-2.0
  15:../Dave/Generated/CMSIS_DSP/FilteringFunctions/arm_fir_interpolate_q31.c ****  *
  16:../Dave/Generated/CMSIS_DSP/FilteringFunctions/arm_fir_interpolate_q31.c ****  * Licensed under the Apache License, Version 2.0 (the License); you may
  17:../Dave/Generated/CMSIS_DSP/FilteringFunctions/arm_fir_interpolate_q31.c ****  * not use this file except in compliance with the License.
  18:../Dave/Generated/CMSIS_DSP/FilteringFunctions/arm_fir_interpolate_q31.c ****  * You may obtain a copy of the License at
  19:../Dave/Generated/CMSIS_DSP/FilteringFunctions/arm_fir_interpolate_q31.c ****  *
  20:../Dave/Generated/CMSIS_DSP/FilteringFunctions/arm_fir_interpolate_q31.c ****  * www.apache.org/licenses/LICENSE-2.0
  21:../Dave/Generated/CMSIS_DSP/FilteringFunctions/arm_fir_interpolate_q31.c ****  *
  22:../Dave/Generated/CMSIS_DSP/FilteringFunctions/arm_fir_interpolate_q31.c ****  * Unless required by applicable law or agreed to in writing, software
  23:../Dave/Generated/CMSIS_DSP/FilteringFunctions/arm_fir_interpolate_q31.c ****  * distributed under the License is distributed on an AS IS BASIS, WITHOUT
  24:../Dave/Generated/CMSIS_DSP/FilteringFunctions/arm_fir_interpolate_q31.c ****  * WARRANTIES OR CONDITIONS OF ANY KIND, either express or implied.
  25:../Dave/Generated/CMSIS_DSP/FilteringFunctions/arm_fir_interpolate_q31.c ****  * See the License for the specific language governing permissions and
  26:../Dave/Generated/CMSIS_DSP/FilteringFunctions/arm_fir_interpolate_q31.c ****  * limitations under the License.
  27:../Dave/Generated/CMSIS_DSP/FilteringFunctions/arm_fir_interpolate_q31.c ****  */
  28:../Dave/Generated/CMSIS_DSP/FilteringFunctions/arm_fir_interpolate_q31.c **** 
  29:../Dave/Generated/CMSIS_DSP/FilteringFunctions/arm_fir_interpolate_q31.c **** #include "CMSIS_DSP/cmsis_dsp.h"
  30:../Dave/Generated/CMSIS_DSP/FilteringFunctions/arm_fir_interpolate_q31.c **** 
  31:../Dave/Generated/CMSIS_DSP/FilteringFunctions/arm_fir_interpolate_q31.c **** /**
  32:../Dave/Generated/CMSIS_DSP/FilteringFunctions/arm_fir_interpolate_q31.c ****  * @ingroup groupFilters
  33:../Dave/Generated/CMSIS_DSP/FilteringFunctions/arm_fir_interpolate_q31.c ****  */
  34:../Dave/Generated/CMSIS_DSP/FilteringFunctions/arm_fir_interpolate_q31.c **** 
  35:../Dave/Generated/CMSIS_DSP/FilteringFunctions/arm_fir_interpolate_q31.c **** /**
  36:../Dave/Generated/CMSIS_DSP/FilteringFunctions/arm_fir_interpolate_q31.c ****  * @addtogroup FIR_Interpolate
  37:../Dave/Generated/CMSIS_DSP/FilteringFunctions/arm_fir_interpolate_q31.c ****  * @{
  38:../Dave/Generated/CMSIS_DSP/FilteringFunctions/arm_fir_interpolate_q31.c ****  */
  39:../Dave/Generated/CMSIS_DSP/FilteringFunctions/arm_fir_interpolate_q31.c **** 
  40:../Dave/Generated/CMSIS_DSP/FilteringFunctions/arm_fir_interpolate_q31.c **** /**
  41:../Dave/Generated/CMSIS_DSP/FilteringFunctions/arm_fir_interpolate_q31.c ****  * @brief Processing function for the Q31 FIR interpolator.
  42:../Dave/Generated/CMSIS_DSP/FilteringFunctions/arm_fir_interpolate_q31.c ****  * @param[in] *S        points to an instance of the Q31 FIR interpolator structure.
  43:../Dave/Generated/CMSIS_DSP/FilteringFunctions/arm_fir_interpolate_q31.c ****  * @param[in] *pSrc     points to the block of input data.
  44:../Dave/Generated/CMSIS_DSP/FilteringFunctions/arm_fir_interpolate_q31.c ****  * @param[out] *pDst    points to the block of output data.
  45:../Dave/Generated/CMSIS_DSP/FilteringFunctions/arm_fir_interpolate_q31.c ****  * @param[in] blockSize number of input samples to process per call.
  46:../Dave/Generated/CMSIS_DSP/FilteringFunctions/arm_fir_interpolate_q31.c ****  * @return none.
  47:../Dave/Generated/CMSIS_DSP/FilteringFunctions/arm_fir_interpolate_q31.c ****  *
  48:../Dave/Generated/CMSIS_DSP/FilteringFunctions/arm_fir_interpolate_q31.c ****  * <b>Scaling and Overflow Behavior:</b>
  49:../Dave/Generated/CMSIS_DSP/FilteringFunctions/arm_fir_interpolate_q31.c ****  * \par
  50:../Dave/Generated/CMSIS_DSP/FilteringFunctions/arm_fir_interpolate_q31.c ****  * The function is implemented using an internal 64-bit accumulator.
  51:../Dave/Generated/CMSIS_DSP/FilteringFunctions/arm_fir_interpolate_q31.c ****  * The accumulator has a 2.62 format and maintains full precision of the intermediate multiplicatio
  52:../Dave/Generated/CMSIS_DSP/FilteringFunctions/arm_fir_interpolate_q31.c ****  * Thus, if the accumulator result overflows it wraps around rather than clip.
  53:../Dave/Generated/CMSIS_DSP/FilteringFunctions/arm_fir_interpolate_q31.c ****  * In order to avoid overflows completely the input signal must be scaled down by <code>1/(numTaps/
  54:../Dave/Generated/CMSIS_DSP/FilteringFunctions/arm_fir_interpolate_q31.c ****  * since <code>numTaps/L</code> additions occur per output sample.
  55:../Dave/Generated/CMSIS_DSP/FilteringFunctions/arm_fir_interpolate_q31.c ****  * After all multiply-accumulates are performed, the 2.62 accumulator is truncated to 1.32 format a
  56:../Dave/Generated/CMSIS_DSP/FilteringFunctions/arm_fir_interpolate_q31.c ****  */
  57:../Dave/Generated/CMSIS_DSP/FilteringFunctions/arm_fir_interpolate_q31.c **** 
  58:../Dave/Generated/CMSIS_DSP/FilteringFunctions/arm_fir_interpolate_q31.c **** #if defined (ARM_MATH_DSP)
  59:../Dave/Generated/CMSIS_DSP/FilteringFunctions/arm_fir_interpolate_q31.c **** 
  60:../Dave/Generated/CMSIS_DSP/FilteringFunctions/arm_fir_interpolate_q31.c ****   /* Run the below code for Cortex-M4 and Cortex-M3 */
  61:../Dave/Generated/CMSIS_DSP/FilteringFunctions/arm_fir_interpolate_q31.c **** 
  62:../Dave/Generated/CMSIS_DSP/FilteringFunctions/arm_fir_interpolate_q31.c **** void arm_fir_interpolate_q31(
  63:../Dave/Generated/CMSIS_DSP/FilteringFunctions/arm_fir_interpolate_q31.c ****   const arm_fir_interpolate_instance_q31 * S,
  64:../Dave/Generated/CMSIS_DSP/FilteringFunctions/arm_fir_interpolate_q31.c ****   q31_t * pSrc,
  65:../Dave/Generated/CMSIS_DSP/FilteringFunctions/arm_fir_interpolate_q31.c ****   q31_t * pDst,
  66:../Dave/Generated/CMSIS_DSP/FilteringFunctions/arm_fir_interpolate_q31.c ****   uint32_t blockSize)
  67:../Dave/Generated/CMSIS_DSP/FilteringFunctions/arm_fir_interpolate_q31.c **** {
  28              	 .loc 1 67 0
  29              	 .cfi_startproc
  30              	 
  31              	 
  32              	.LVL0:
  33 0000 2DE9F04F 	 push {r4,r5,r6,r7,r8,r9,r10,fp,lr}
  34              	.LCFI0:
  35              	 .cfi_def_cfa_offset 36
  36              	 .cfi_offset 4,-36
  37              	 .cfi_offset 5,-32
  38              	 .cfi_offset 6,-28
  39              	 .cfi_offset 7,-24
  40              	 .cfi_offset 8,-20
  41              	 .cfi_offset 9,-16
  42              	 .cfi_offset 10,-12
  43              	 .cfi_offset 11,-8
  44              	 .cfi_offset 14,-4
  45 0004 9DB0     	 sub sp,sp,#116
  46              	.LCFI1:
  47              	 .cfi_def_cfa_offset 152
  48              	 .loc 1 67 0
  49 0006 0646     	 mov r6,r0
  50 0008 0590     	 str r0,[sp,#20]
  68:../Dave/Generated/CMSIS_DSP/FilteringFunctions/arm_fir_interpolate_q31.c ****   q31_t *pState = S->pState;                     /* State pointer */
  69:../Dave/Generated/CMSIS_DSP/FilteringFunctions/arm_fir_interpolate_q31.c ****   q31_t *pCoeffs = S->pCoeffs;                   /* Coefficient pointer */
  70:../Dave/Generated/CMSIS_DSP/FilteringFunctions/arm_fir_interpolate_q31.c ****   q31_t *pStateCurnt;                            /* Points to the current sample of the state */
  71:../Dave/Generated/CMSIS_DSP/FilteringFunctions/arm_fir_interpolate_q31.c ****   q31_t *ptr1, *ptr2;                            /* Temporary pointers for state and coefficient bu
  72:../Dave/Generated/CMSIS_DSP/FilteringFunctions/arm_fir_interpolate_q31.c ****   q63_t sum0;                                    /* Accumulators */
  73:../Dave/Generated/CMSIS_DSP/FilteringFunctions/arm_fir_interpolate_q31.c ****   q31_t x0, c0;                                  /* Temporary variables to hold state and coefficie
  74:../Dave/Generated/CMSIS_DSP/FilteringFunctions/arm_fir_interpolate_q31.c ****   uint32_t i, blkCnt, j;                         /* Loop counters */
  75:../Dave/Generated/CMSIS_DSP/FilteringFunctions/arm_fir_interpolate_q31.c ****   uint16_t phaseLen = S->phaseLength, tapCnt;    /* Length of each polyphase filter component */
  51              	 .loc 1 75 0
  52 000a 4088     	 ldrh r0,[r0,#2]
  53              	.LVL1:
  68:../Dave/Generated/CMSIS_DSP/FilteringFunctions/arm_fir_interpolate_q31.c ****   q31_t *pState = S->pState;                     /* State pointer */
  54              	 .loc 1 68 0
  55 000c B468     	 ldr r4,[r6,#8]
  67:../Dave/Generated/CMSIS_DSP/FilteringFunctions/arm_fir_interpolate_q31.c ****   q31_t *pState = S->pState;                     /* State pointer */
  56              	 .loc 1 67 0
  57 000e 1491     	 str r1,[sp,#80]
  58 0010 8E46     	 mov lr,r1
  76:../Dave/Generated/CMSIS_DSP/FilteringFunctions/arm_fir_interpolate_q31.c **** 
  77:../Dave/Generated/CMSIS_DSP/FilteringFunctions/arm_fir_interpolate_q31.c ****   uint32_t blkCntN2;
  78:../Dave/Generated/CMSIS_DSP/FilteringFunctions/arm_fir_interpolate_q31.c ****   q63_t acc0, acc1;
  79:../Dave/Generated/CMSIS_DSP/FilteringFunctions/arm_fir_interpolate_q31.c ****   q31_t x1;
  80:../Dave/Generated/CMSIS_DSP/FilteringFunctions/arm_fir_interpolate_q31.c **** 
  81:../Dave/Generated/CMSIS_DSP/FilteringFunctions/arm_fir_interpolate_q31.c ****   /* S->pState buffer contains previous frame (phaseLen - 1) samples */
  82:../Dave/Generated/CMSIS_DSP/FilteringFunctions/arm_fir_interpolate_q31.c ****   /* pStateCurnt points to the location where the new input data should be written */
  83:../Dave/Generated/CMSIS_DSP/FilteringFunctions/arm_fir_interpolate_q31.c ****   pStateCurnt = S->pState + ((q31_t) phaseLen - 1);
  59              	 .loc 1 83 0
  60 0012 00F18041 	 add r1,r0,#1073741824
  61              	.LVL2:
  68:../Dave/Generated/CMSIS_DSP/FilteringFunctions/arm_fir_interpolate_q31.c ****   q31_t *pCoeffs = S->pCoeffs;                   /* Coefficient pointer */
  62              	 .loc 1 68 0
  63 0016 2546     	 mov r5,r4
  64              	 .loc 1 83 0
  65 0018 0139     	 subs r1,r1,#1
  67:../Dave/Generated/CMSIS_DSP/FilteringFunctions/arm_fir_interpolate_q31.c ****   q31_t *pState = S->pState;                     /* State pointer */
  66              	 .loc 1 67 0
  67 001a 1092     	 str r2,[sp,#64]
  68              	 .loc 1 83 0
  69 001c 05EB8102 	 add r2,r5,r1,lsl#2
  70              	.LVL3:
  68:../Dave/Generated/CMSIS_DSP/FilteringFunctions/arm_fir_interpolate_q31.c ****   q31_t *pCoeffs = S->pCoeffs;                   /* Coefficient pointer */
  71              	 .loc 1 68 0
  72 0020 1794     	 str r4,[sp,#92]
  73              	.LVL4:
  74              	 .loc 1 83 0
  75 0022 1892     	 str r2,[sp,#96]
  69:../Dave/Generated/CMSIS_DSP/FilteringFunctions/arm_fir_interpolate_q31.c ****   q31_t *pStateCurnt;                            /* Points to the current sample of the state */
  76              	 .loc 1 69 0
  77 0024 7468     	 ldr r4,[r6,#4]
  78              	.LVL5:
  75:../Dave/Generated/CMSIS_DSP/FilteringFunctions/arm_fir_interpolate_q31.c **** 
  79              	 .loc 1 75 0
  80 0026 1990     	 str r0,[sp,#100]
  81              	 .loc 1 83 0
  82 0028 1646     	 mov r6,r2
  83              	.LVL6:
  84:../Dave/Generated/CMSIS_DSP/FilteringFunctions/arm_fir_interpolate_q31.c **** 
  85:../Dave/Generated/CMSIS_DSP/FilteringFunctions/arm_fir_interpolate_q31.c ****   /* Initialise  blkCnt */
  86:../Dave/Generated/CMSIS_DSP/FilteringFunctions/arm_fir_interpolate_q31.c ****   blkCnt = blockSize / 2;
  87:../Dave/Generated/CMSIS_DSP/FilteringFunctions/arm_fir_interpolate_q31.c ****   blkCntN2 = blockSize - (2 * blkCnt);
  84              	 .loc 1 87 0
  85 002a 03F00102 	 and r2,r3,#1
  88:../Dave/Generated/CMSIS_DSP/FilteringFunctions/arm_fir_interpolate_q31.c **** 
  89:../Dave/Generated/CMSIS_DSP/FilteringFunctions/arm_fir_interpolate_q31.c ****   /* Samples loop unrolled by 2 */
  90:../Dave/Generated/CMSIS_DSP/FilteringFunctions/arm_fir_interpolate_q31.c ****   while (blkCnt > 0u)
  86              	 .loc 1 90 0
  87 002e 5B08     	 lsrs r3,r3,#1
  88              	.LVL7:
  69:../Dave/Generated/CMSIS_DSP/FilteringFunctions/arm_fir_interpolate_q31.c ****   q31_t *pStateCurnt;                            /* Points to the current sample of the state */
  89              	 .loc 1 69 0
  90 0030 0794     	 str r4,[sp,#28]
  91              	.LVL8:
  87:../Dave/Generated/CMSIS_DSP/FilteringFunctions/arm_fir_interpolate_q31.c **** 
  92              	 .loc 1 87 0
  93 0032 1A92     	 str r2,[sp,#104]
  94              	.LVL9:
  95              	 .loc 1 90 0
  96 0034 1F46     	 mov r7,r3
  97 0036 1B93     	 str r3,[sp,#108]
  98 0038 00F0E481 	 beq .L25
  99 003c 8308     	 lsrs r3,r0,#2
 100 003e 5A1E     	 subs r2,r3,#1
 101              	.LVL10:
 102 0040 0C93     	 str r3,[sp,#48]
 103 0042 00F00303 	 and r3,r0,#3
 104 0046 0D93     	 str r3,[sp,#52]
 105 0048 013B     	 subs r3,r3,#1
 106 004a 9BB2     	 uxth r3,r3
 107 004c 9B00     	 lsls r3,r3,#2
 108 004e 0E93     	 str r3,[sp,#56]
 109 0050 06F10803 	 add r3,r6,#8
 110 0054 92B2     	 uxth r2,r2
 111 0056 1193     	 str r3,[sp,#68]
 112 0058 7346     	 mov r3,lr
 113 005a 05EB0211 	 add r1,r5,r2,lsl#4
 114              	.LVL11:
 115 005e 0833     	 adds r3,r3,#8
 116 0060 01F12400 	 add r0,r1,#36
 117              	.LVL12:
 118 0064 0132     	 adds r2,r2,#1
 119 0066 1393     	 str r3,[sp,#76]
 120 0068 2B1D     	 adds r3,r5,#4
 121 006a 1290     	 str r0,[sp,#72]
 122 006c 0F92     	 str r2,[sp,#60]
 123 006e 0A93     	 str r3,[sp,#40]
 124 0070 1697     	 str r7,[sp,#88]
 125              	.LVL13:
 126              	.L10:
  91:../Dave/Generated/CMSIS_DSP/FilteringFunctions/arm_fir_interpolate_q31.c ****   {
  92:../Dave/Generated/CMSIS_DSP/FilteringFunctions/arm_fir_interpolate_q31.c ****     /* Copy new input sample into the state buffer */
  93:../Dave/Generated/CMSIS_DSP/FilteringFunctions/arm_fir_interpolate_q31.c ****     *pStateCurnt++ = *pSrc++;
 127              	 .loc 1 93 0
 128 0072 139A     	 ldr r2,[sp,#76]
 129 0074 1198     	 ldr r0,[sp,#68]
 130 0076 52F8083C 	 ldr r3,[r2,#-8]
 131 007a 40F8083C 	 str r3,[r0,#-8]
 132              	.LVL14:
  94:../Dave/Generated/CMSIS_DSP/FilteringFunctions/arm_fir_interpolate_q31.c ****     *pStateCurnt++ = *pSrc++;
 133              	 .loc 1 94 0
 134 007e 52F8043C 	 ldr r3,[r2,#-4]
 135 0082 40F8043C 	 str r3,[r0,#-4]
 136              	.LVL15:
  95:../Dave/Generated/CMSIS_DSP/FilteringFunctions/arm_fir_interpolate_q31.c **** 
  96:../Dave/Generated/CMSIS_DSP/FilteringFunctions/arm_fir_interpolate_q31.c ****     /* Address modifier index of coefficient buffer */
  97:../Dave/Generated/CMSIS_DSP/FilteringFunctions/arm_fir_interpolate_q31.c ****     j = 1u;
  98:../Dave/Generated/CMSIS_DSP/FilteringFunctions/arm_fir_interpolate_q31.c **** 
  99:../Dave/Generated/CMSIS_DSP/FilteringFunctions/arm_fir_interpolate_q31.c ****     /* Loop over the Interpolation factor. */
 100:../Dave/Generated/CMSIS_DSP/FilteringFunctions/arm_fir_interpolate_q31.c ****     i = (S->L);
 137              	 .loc 1 100 0
 138 0086 059B     	 ldr r3,[sp,#20]
 139 0088 1B78     	 ldrb r3,[r3]
 140 008a 1593     	 str r3,[sp,#84]
 141              	.LVL16:
 101:../Dave/Generated/CMSIS_DSP/FilteringFunctions/arm_fir_interpolate_q31.c **** 
 102:../Dave/Generated/CMSIS_DSP/FilteringFunctions/arm_fir_interpolate_q31.c ****     while (i > 0u)
 142              	 .loc 1 102 0
 143 008c 002B     	 cmp r3,#0
 144 008e 00F0AC80 	 beq .L3
 145 0092 5A1C     	 adds r2,r3,#1
 146 0094 0493     	 str r3,[sp,#16]
 147 0096 109B     	 ldr r3,[sp,#64]
 148              	.LVL17:
 149 0098 0B92     	 str r2,[sp,#44]
 150 009a 0693     	 str r3,[sp,#24]
 151 009c DDF848C0 	 ldr ip,[sp,#72]
 152 00a0 049A     	 ldr r2,[sp,#16]
 153 00a2 0123     	 movs r3,#1
 154 00a4 0393     	 str r3,[sp,#12]
 155 00a6 1946     	 mov r1,r3
 156              	.LVL18:
 157              	.L9:
 103:../Dave/Generated/CMSIS_DSP/FilteringFunctions/arm_fir_interpolate_q31.c ****     {
 104:../Dave/Generated/CMSIS_DSP/FilteringFunctions/arm_fir_interpolate_q31.c ****       /* Set accumulator to zero */
 105:../Dave/Generated/CMSIS_DSP/FilteringFunctions/arm_fir_interpolate_q31.c ****       acc0 = 0;
 106:../Dave/Generated/CMSIS_DSP/FilteringFunctions/arm_fir_interpolate_q31.c ****       acc1 = 0;
 107:../Dave/Generated/CMSIS_DSP/FilteringFunctions/arm_fir_interpolate_q31.c **** 
 108:../Dave/Generated/CMSIS_DSP/FilteringFunctions/arm_fir_interpolate_q31.c ****       /* Initialize state pointer */
 109:../Dave/Generated/CMSIS_DSP/FilteringFunctions/arm_fir_interpolate_q31.c ****       ptr1 = pState;
 110:../Dave/Generated/CMSIS_DSP/FilteringFunctions/arm_fir_interpolate_q31.c **** 
 111:../Dave/Generated/CMSIS_DSP/FilteringFunctions/arm_fir_interpolate_q31.c ****       /* Initialize coefficient pointer */
 112:../Dave/Generated/CMSIS_DSP/FilteringFunctions/arm_fir_interpolate_q31.c ****       ptr2 = pCoeffs + (S->L - j);
 158              	 .loc 1 112 0
 159 00a8 079B     	 ldr r3,[sp,#28]
 113:../Dave/Generated/CMSIS_DSP/FilteringFunctions/arm_fir_interpolate_q31.c **** 
 114:../Dave/Generated/CMSIS_DSP/FilteringFunctions/arm_fir_interpolate_q31.c ****       /* Loop over the polyPhase length. Unroll by a factor of 4.
 115:../Dave/Generated/CMSIS_DSP/FilteringFunctions/arm_fir_interpolate_q31.c ****        ** Repeat until we've computed numTaps-(4*S->L) coefficients. */
 116:../Dave/Generated/CMSIS_DSP/FilteringFunctions/arm_fir_interpolate_q31.c ****       tapCnt = phaseLen >> 2u;
 117:../Dave/Generated/CMSIS_DSP/FilteringFunctions/arm_fir_interpolate_q31.c **** 
 118:../Dave/Generated/CMSIS_DSP/FilteringFunctions/arm_fir_interpolate_q31.c ****       x0 = *(ptr1++);
 160              	 .loc 1 118 0
 161 00aa 0A9E     	 ldr r6,[sp,#40]
 112:../Dave/Generated/CMSIS_DSP/FilteringFunctions/arm_fir_interpolate_q31.c **** 
 162              	 .loc 1 112 0
 163 00ac C1EB020B 	 rsb fp,r1,r2
 164 00b0 03EB8B0B 	 add fp,r3,fp,lsl#2
 165              	.LVL19:
 119:../Dave/Generated/CMSIS_DSP/FilteringFunctions/arm_fir_interpolate_q31.c **** 
 120:../Dave/Generated/CMSIS_DSP/FilteringFunctions/arm_fir_interpolate_q31.c ****       while (tapCnt > 0u)
 166              	 .loc 1 120 0
 167 00b4 0C9B     	 ldr r3,[sp,#48]
 118:../Dave/Generated/CMSIS_DSP/FilteringFunctions/arm_fir_interpolate_q31.c **** 
 168              	 .loc 1 118 0
 169 00b6 56F8049C 	 ldr r9,[r6,#-4]
 170              	.LVL20:
 171              	 .loc 1 120 0
 172 00ba 002B     	 cmp r3,#0
 173 00bc 00F09C81 	 beq .L27
 174 00c0 13B2     	 sxth r3,r2
 175 00c2 0024     	 movs r4,#0
 176 00c4 0025     	 movs r5,#0
 177 00c6 4FEA8308 	 lsl r8,r3,#2
 178 00ca 1B01     	 lsls r3,r3,#4
 179 00cc 06F11002 	 add r2,r6,#16
 180 00d0 DE46     	 mov lr,fp
 181 00d2 4E46     	 mov r6,r9
 182              	.LVL21:
 183 00d4 CDF824B0 	 str fp,[sp,#36]
 184 00d8 0893     	 str r3,[sp,#32]
 185 00da 2046     	 mov r0,r4
 186 00dc 2946     	 mov r1,r5
 187 00de A246     	 mov r10,r4
 188 00e0 AB46     	 mov fp,r5
 189              	.LVL22:
 190 00e2 E146     	 mov r9,ip
 191              	.LVL23:
 192              	.L5:
 121:../Dave/Generated/CMSIS_DSP/FilteringFunctions/arm_fir_interpolate_q31.c ****       {
 122:../Dave/Generated/CMSIS_DSP/FilteringFunctions/arm_fir_interpolate_q31.c **** 
 123:../Dave/Generated/CMSIS_DSP/FilteringFunctions/arm_fir_interpolate_q31.c ****         /* Read the input sample */
 124:../Dave/Generated/CMSIS_DSP/FilteringFunctions/arm_fir_interpolate_q31.c ****         x1 = *(ptr1++);
 193              	 .loc 1 124 0
 194 00e4 52F8104C 	 ldr r4,[r2,#-16]
 195              	.LVL24:
 125:../Dave/Generated/CMSIS_DSP/FilteringFunctions/arm_fir_interpolate_q31.c **** 
 126:../Dave/Generated/CMSIS_DSP/FilteringFunctions/arm_fir_interpolate_q31.c ****         /* Read the coefficient */
 127:../Dave/Generated/CMSIS_DSP/FilteringFunctions/arm_fir_interpolate_q31.c ****         c0 = *(ptr2);
 196              	 .loc 1 127 0
 197 00e8 DEF80030 	 ldr r3,[lr]
 198              	.LVL25:
 128:../Dave/Generated/CMSIS_DSP/FilteringFunctions/arm_fir_interpolate_q31.c **** 
 129:../Dave/Generated/CMSIS_DSP/FilteringFunctions/arm_fir_interpolate_q31.c ****         /* Perform the multiply-accumulate */
 130:../Dave/Generated/CMSIS_DSP/FilteringFunctions/arm_fir_interpolate_q31.c ****         acc0 += (q63_t) x0 *c0;
 131:../Dave/Generated/CMSIS_DSP/FilteringFunctions/arm_fir_interpolate_q31.c ****         acc1 += (q63_t) x1 *c0;
 132:../Dave/Generated/CMSIS_DSP/FilteringFunctions/arm_fir_interpolate_q31.c **** 
 133:../Dave/Generated/CMSIS_DSP/FilteringFunctions/arm_fir_interpolate_q31.c **** 
 134:../Dave/Generated/CMSIS_DSP/FilteringFunctions/arm_fir_interpolate_q31.c ****         /* Read the coefficient */
 135:../Dave/Generated/CMSIS_DSP/FilteringFunctions/arm_fir_interpolate_q31.c ****         c0 = *(ptr2 + S->L);
 199              	 .loc 1 135 0
 200 00ec 5EF80850 	 ldr r5,[lr,r8]
 136:../Dave/Generated/CMSIS_DSP/FilteringFunctions/arm_fir_interpolate_q31.c **** 
 137:../Dave/Generated/CMSIS_DSP/FilteringFunctions/arm_fir_interpolate_q31.c ****         /* Read the input sample */
 138:../Dave/Generated/CMSIS_DSP/FilteringFunctions/arm_fir_interpolate_q31.c ****         x0 = *(ptr1++);
 139:../Dave/Generated/CMSIS_DSP/FilteringFunctions/arm_fir_interpolate_q31.c **** 
 140:../Dave/Generated/CMSIS_DSP/FilteringFunctions/arm_fir_interpolate_q31.c ****         /* Perform the multiply-accumulate */
 141:../Dave/Generated/CMSIS_DSP/FilteringFunctions/arm_fir_interpolate_q31.c ****         acc0 += (q63_t) x1 *c0;
 142:../Dave/Generated/CMSIS_DSP/FilteringFunctions/arm_fir_interpolate_q31.c ****         acc1 += (q63_t) x0 *c0;
 143:../Dave/Generated/CMSIS_DSP/FilteringFunctions/arm_fir_interpolate_q31.c **** 
 144:../Dave/Generated/CMSIS_DSP/FilteringFunctions/arm_fir_interpolate_q31.c **** 
 145:../Dave/Generated/CMSIS_DSP/FilteringFunctions/arm_fir_interpolate_q31.c ****         /* Read the coefficient */
 146:../Dave/Generated/CMSIS_DSP/FilteringFunctions/arm_fir_interpolate_q31.c ****         c0 = *(ptr2 + S->L * 2);
 201              	 .loc 1 146 0
 202 00f0 5EF818C0 	 ldr ip,[lr,r8,lsl#1]
 130:../Dave/Generated/CMSIS_DSP/FilteringFunctions/arm_fir_interpolate_q31.c ****         acc1 += (q63_t) x1 *c0;
 203              	 .loc 1 130 0
 204 00f4 C3FB06AB 	 smlal r10,fp,r3,r6
 205              	.LVL26:
 131:../Dave/Generated/CMSIS_DSP/FilteringFunctions/arm_fir_interpolate_q31.c **** 
 206              	 .loc 1 131 0
 207 00f8 C4FB0301 	 smlal r0,r1,r4,r3
 208              	.LVL27:
 209 00fc CDE90001 	 strd r0,[sp]
 130:../Dave/Generated/CMSIS_DSP/FilteringFunctions/arm_fir_interpolate_q31.c ****         acc1 += (q63_t) x1 *c0;
 210              	 .loc 1 130 0
 211 0100 5046     	 mov r0,r10
 212 0102 5946     	 mov r1,fp
 213              	.LVL28:
 141:../Dave/Generated/CMSIS_DSP/FilteringFunctions/arm_fir_interpolate_q31.c ****         acc1 += (q63_t) x0 *c0;
 214              	 .loc 1 141 0
 215 0104 C5FB0401 	 smlal r0,r1,r5,r4
 216              	.LVL29:
 217 0108 8246     	 mov r10,r0
 218 010a 8B46     	 mov fp,r1
 219              	.LVL30:
 142:../Dave/Generated/CMSIS_DSP/FilteringFunctions/arm_fir_interpolate_q31.c **** 
 220              	 .loc 1 142 0
 221 010c DDE90001 	 ldrd r0,[sp]
 222 0110 52F80C6C 	 ldr r6,[r2,#-12]
 223 0114 C6FB0501 	 smlal r0,r1,r6,r5
 224 0118 0EEB0803 	 add r3,lr,r8
 225 011c 0D46     	 mov r5,r1
 226              	.LVL31:
 147:../Dave/Generated/CMSIS_DSP/FilteringFunctions/arm_fir_interpolate_q31.c **** 
 148:../Dave/Generated/CMSIS_DSP/FilteringFunctions/arm_fir_interpolate_q31.c ****         /* Read the input sample */
 149:../Dave/Generated/CMSIS_DSP/FilteringFunctions/arm_fir_interpolate_q31.c ****         x1 = *(ptr1++);
 150:../Dave/Generated/CMSIS_DSP/FilteringFunctions/arm_fir_interpolate_q31.c **** 
 151:../Dave/Generated/CMSIS_DSP/FilteringFunctions/arm_fir_interpolate_q31.c ****         /* Perform the multiply-accumulate */
 152:../Dave/Generated/CMSIS_DSP/FilteringFunctions/arm_fir_interpolate_q31.c ****         acc0 += (q63_t) x0 *c0;
 227              	 .loc 1 152 0
 228 011e 52F80C1C 	 ldr r1,[r2,#-12]
 149:../Dave/Generated/CMSIS_DSP/FilteringFunctions/arm_fir_interpolate_q31.c **** 
 229              	 .loc 1 149 0
 230 0122 52F808EC 	 ldr lr,[r2,#-8]
 231              	.LVL32:
 153:../Dave/Generated/CMSIS_DSP/FilteringFunctions/arm_fir_interpolate_q31.c ****         acc1 += (q63_t) x1 *c0;
 154:../Dave/Generated/CMSIS_DSP/FilteringFunctions/arm_fir_interpolate_q31.c **** 
 155:../Dave/Generated/CMSIS_DSP/FilteringFunctions/arm_fir_interpolate_q31.c ****         /* Read the coefficient */
 156:../Dave/Generated/CMSIS_DSP/FilteringFunctions/arm_fir_interpolate_q31.c ****         c0 = *(ptr2 + S->L * 3);
 232              	 .loc 1 156 0
 233 0126 53F81870 	 ldr r7,[r3,r8,lsl#1]
 157:../Dave/Generated/CMSIS_DSP/FilteringFunctions/arm_fir_interpolate_q31.c **** 
 158:../Dave/Generated/CMSIS_DSP/FilteringFunctions/arm_fir_interpolate_q31.c ****         /* Read the input sample */
 159:../Dave/Generated/CMSIS_DSP/FilteringFunctions/arm_fir_interpolate_q31.c ****         x0 = *(ptr1++);
 234              	 .loc 1 159 0
 235 012a 52F8046C 	 ldr r6,[r2,#-4]
 152:../Dave/Generated/CMSIS_DSP/FilteringFunctions/arm_fir_interpolate_q31.c ****         acc1 += (q63_t) x1 *c0;
 236              	 .loc 1 152 0
 237 012e CCFB01AB 	 smlal r10,fp,ip,r1
 238              	.LVL33:
 142:../Dave/Generated/CMSIS_DSP/FilteringFunctions/arm_fir_interpolate_q31.c **** 
 239              	 .loc 1 142 0
 240 0132 0446     	 mov r4,r0
 241              	.LVL34:
 152:../Dave/Generated/CMSIS_DSP/FilteringFunctions/arm_fir_interpolate_q31.c ****         acc1 += (q63_t) x1 *c0;
 242              	 .loc 1 152 0
 243 0134 5946     	 mov r1,fp
 244 0136 5046     	 mov r0,r10
 245              	.LVL35:
 160:../Dave/Generated/CMSIS_DSP/FilteringFunctions/arm_fir_interpolate_q31.c **** 
 161:../Dave/Generated/CMSIS_DSP/FilteringFunctions/arm_fir_interpolate_q31.c ****         /* Perform the multiply-accumulate */
 162:../Dave/Generated/CMSIS_DSP/FilteringFunctions/arm_fir_interpolate_q31.c ****         acc0 += (q63_t) x1 *c0;
 246              	 .loc 1 162 0
 247 0138 C7FB0E01 	 smlal r0,r1,r7,lr
 248              	.LVL36:
 153:../Dave/Generated/CMSIS_DSP/FilteringFunctions/arm_fir_interpolate_q31.c **** 
 249              	 .loc 1 153 0
 250 013c CEFB0C45 	 smlal r4,r5,lr,ip
 251              	.LVL37:
 252 0140 1032     	 adds r2,r2,#16
 253              	.LVL38:
 254 0142 03EB4803 	 add r3,r3,r8,lsl#1
 255              	 .loc 1 162 0
 256 0146 8246     	 mov r10,r0
 257 0148 8B46     	 mov fp,r1
 258              	.LVL39:
 163:../Dave/Generated/CMSIS_DSP/FilteringFunctions/arm_fir_interpolate_q31.c ****         acc1 += (q63_t) x0 *c0;
 259              	 .loc 1 163 0
 260 014a 2046     	 mov r0,r4
 261 014c 2946     	 mov r1,r5
 120:../Dave/Generated/CMSIS_DSP/FilteringFunctions/arm_fir_interpolate_q31.c ****       {
 262              	 .loc 1 120 0
 263 014e 4A45     	 cmp r2,r9
 164:../Dave/Generated/CMSIS_DSP/FilteringFunctions/arm_fir_interpolate_q31.c **** 
 165:../Dave/Generated/CMSIS_DSP/FilteringFunctions/arm_fir_interpolate_q31.c **** 
 166:../Dave/Generated/CMSIS_DSP/FilteringFunctions/arm_fir_interpolate_q31.c ****         /* Upsampling is done by stuffing L-1 zeros between each sample.
 167:../Dave/Generated/CMSIS_DSP/FilteringFunctions/arm_fir_interpolate_q31.c ****          * So instead of multiplying zeros with coefficients,
 168:../Dave/Generated/CMSIS_DSP/FilteringFunctions/arm_fir_interpolate_q31.c ****          * Increment the coefficient pointer by interpolation factor times. */
 169:../Dave/Generated/CMSIS_DSP/FilteringFunctions/arm_fir_interpolate_q31.c ****         ptr2 += 4 * S->L;
 264              	 .loc 1 169 0
 265 0150 03EB080E 	 add lr,r3,r8
 266              	.LVL40:
 163:../Dave/Generated/CMSIS_DSP/FilteringFunctions/arm_fir_interpolate_q31.c **** 
 267              	 .loc 1 163 0
 268 0154 C6FB0701 	 smlal r0,r1,r6,r7
 269              	.LVL41:
 120:../Dave/Generated/CMSIS_DSP/FilteringFunctions/arm_fir_interpolate_q31.c ****       {
 270              	 .loc 1 120 0
 271 0158 C4D1     	 bne .L5
 272 015a 0D46     	 mov r5,r1
 273 015c 0F9B     	 ldr r3,[sp,#60]
 274 015e 089A     	 ldr r2,[sp,#32]
 275              	.LVL42:
 276 0160 5946     	 mov r1,fp
 277 0162 DDF824B0 	 ldr fp,[sp,#36]
 278 0166 CC46     	 mov ip,r9
 279 0168 0446     	 mov r4,r0
 280 016a B146     	 mov r9,r6
 281 016c 5046     	 mov r0,r10
 282              	.LVL43:
 283 016e 02FB03BB 	 mla fp,r2,r3,fp
 284 0172 ACF11007 	 sub r7,ip,#16
 285              	.LVL44:
 286              	.L4:
 170:../Dave/Generated/CMSIS_DSP/FilteringFunctions/arm_fir_interpolate_q31.c **** 
 171:../Dave/Generated/CMSIS_DSP/FilteringFunctions/arm_fir_interpolate_q31.c ****         /* Decrement the loop counter */
 172:../Dave/Generated/CMSIS_DSP/FilteringFunctions/arm_fir_interpolate_q31.c ****         tapCnt--;
 173:../Dave/Generated/CMSIS_DSP/FilteringFunctions/arm_fir_interpolate_q31.c ****       }
 174:../Dave/Generated/CMSIS_DSP/FilteringFunctions/arm_fir_interpolate_q31.c **** 
 175:../Dave/Generated/CMSIS_DSP/FilteringFunctions/arm_fir_interpolate_q31.c ****       /* If the polyPhase length is not a multiple of 4, compute the remaining filter taps */
 176:../Dave/Generated/CMSIS_DSP/FilteringFunctions/arm_fir_interpolate_q31.c ****       tapCnt = phaseLen % 0x4u;
 177:../Dave/Generated/CMSIS_DSP/FilteringFunctions/arm_fir_interpolate_q31.c **** 
 178:../Dave/Generated/CMSIS_DSP/FilteringFunctions/arm_fir_interpolate_q31.c ****       while (tapCnt > 0u)
 287              	 .loc 1 178 0
 288 0176 0D9B     	 ldr r3,[sp,#52]
 289 0178 BBB1     	 cbz r3,.L6
 290 017a 049B     	 ldr r3,[sp,#16]
 291 017c 0E9A     	 ldr r2,[sp,#56]
 292 017e 4FEA830E 	 lsl lr,r3,#2
 293 0182 3B1F     	 subs r3,r7,#4
 294 0184 1744     	 add r7,r7,r2
 295              	.LVL45:
 296 0186 3A46     	 mov r2,r7
 297 0188 0646     	 mov r6,r0
 298 018a 0F46     	 mov r7,r1
 299 018c 1046     	 mov r0,r2
 300              	.LVL46:
 301              	.L7:
 179:../Dave/Generated/CMSIS_DSP/FilteringFunctions/arm_fir_interpolate_q31.c ****       {
 180:../Dave/Generated/CMSIS_DSP/FilteringFunctions/arm_fir_interpolate_q31.c **** 
 181:../Dave/Generated/CMSIS_DSP/FilteringFunctions/arm_fir_interpolate_q31.c ****         /* Read the input sample */
 182:../Dave/Generated/CMSIS_DSP/FilteringFunctions/arm_fir_interpolate_q31.c ****         x1 = *(ptr1++);
 302              	 .loc 1 182 0
 303 018e 53F8042F 	 ldr r2,[r3,#4]!
 304              	.LVL47:
 183:../Dave/Generated/CMSIS_DSP/FilteringFunctions/arm_fir_interpolate_q31.c **** 
 184:../Dave/Generated/CMSIS_DSP/FilteringFunctions/arm_fir_interpolate_q31.c ****         /* Read the coefficient */
 185:../Dave/Generated/CMSIS_DSP/FilteringFunctions/arm_fir_interpolate_q31.c ****         c0 = *(ptr2);
 305              	 .loc 1 185 0
 306 0192 DBF80010 	 ldr r1,[fp]
 307              	.LVL48:
 178:../Dave/Generated/CMSIS_DSP/FilteringFunctions/arm_fir_interpolate_q31.c ****       {
 308              	 .loc 1 178 0
 309 0196 8342     	 cmp r3,r0
 186:../Dave/Generated/CMSIS_DSP/FilteringFunctions/arm_fir_interpolate_q31.c **** 
 187:../Dave/Generated/CMSIS_DSP/FilteringFunctions/arm_fir_interpolate_q31.c ****         /* Perform the multiply-accumulate */
 188:../Dave/Generated/CMSIS_DSP/FilteringFunctions/arm_fir_interpolate_q31.c ****         acc0 += (q63_t) x0 *c0;
 310              	 .loc 1 188 0
 311 0198 C1FB0967 	 smlal r6,r7,r1,r9
 312              	.LVL49:
 189:../Dave/Generated/CMSIS_DSP/FilteringFunctions/arm_fir_interpolate_q31.c ****         acc1 += (q63_t) x1 *c0;
 190:../Dave/Generated/CMSIS_DSP/FilteringFunctions/arm_fir_interpolate_q31.c **** 
 191:../Dave/Generated/CMSIS_DSP/FilteringFunctions/arm_fir_interpolate_q31.c ****         /* Increment the coefficient pointer by interpolation factor times. */
 192:../Dave/Generated/CMSIS_DSP/FilteringFunctions/arm_fir_interpolate_q31.c ****         ptr2 += S->L;
 313              	 .loc 1 192 0
 314 019c F344     	 add fp,fp,lr
 315              	.LVL50:
 189:../Dave/Generated/CMSIS_DSP/FilteringFunctions/arm_fir_interpolate_q31.c ****         acc1 += (q63_t) x1 *c0;
 316              	 .loc 1 189 0
 317 019e C2FB0145 	 smlal r4,r5,r2,r1
 318              	.LVL51:
 193:../Dave/Generated/CMSIS_DSP/FilteringFunctions/arm_fir_interpolate_q31.c **** 
 194:../Dave/Generated/CMSIS_DSP/FilteringFunctions/arm_fir_interpolate_q31.c ****         /* update states for next sample processing */
 195:../Dave/Generated/CMSIS_DSP/FilteringFunctions/arm_fir_interpolate_q31.c ****         x0 = x1;
 319              	 .loc 1 195 0
 320 01a2 9146     	 mov r9,r2
 178:../Dave/Generated/CMSIS_DSP/FilteringFunctions/arm_fir_interpolate_q31.c ****       {
 321              	 .loc 1 178 0
 322 01a4 F3D1     	 bne .L7
 323 01a6 3046     	 mov r0,r6
 324 01a8 3946     	 mov r1,r7
 325              	.LVL52:
 326              	.L6:
 196:../Dave/Generated/CMSIS_DSP/FilteringFunctions/arm_fir_interpolate_q31.c **** 
 197:../Dave/Generated/CMSIS_DSP/FilteringFunctions/arm_fir_interpolate_q31.c ****         /* Decrement the loop counter */
 198:../Dave/Generated/CMSIS_DSP/FilteringFunctions/arm_fir_interpolate_q31.c ****         tapCnt--;
 199:../Dave/Generated/CMSIS_DSP/FilteringFunctions/arm_fir_interpolate_q31.c ****       }
 200:../Dave/Generated/CMSIS_DSP/FilteringFunctions/arm_fir_interpolate_q31.c **** 
 201:../Dave/Generated/CMSIS_DSP/FilteringFunctions/arm_fir_interpolate_q31.c ****       /* The result is in the accumulator, store in the destination buffer. */
 202:../Dave/Generated/CMSIS_DSP/FilteringFunctions/arm_fir_interpolate_q31.c ****       *pDst = (q31_t) (acc0 >> 31);
 327              	 .loc 1 202 0
 328 01aa C30F     	 lsrs r3,r0,#31
 329 01ac 43EA4103 	 orr r3,r3,r1,lsl#1
 330 01b0 0699     	 ldr r1,[sp,#24]
 203:../Dave/Generated/CMSIS_DSP/FilteringFunctions/arm_fir_interpolate_q31.c ****       *(pDst + S->L) = (q31_t) (acc1 >> 31);
 331              	 .loc 1 203 0
 332 01b2 059F     	 ldr r7,[sp,#20]
 202:../Dave/Generated/CMSIS_DSP/FilteringFunctions/arm_fir_interpolate_q31.c ****       *(pDst + S->L) = (q31_t) (acc1 >> 31);
 333              	 .loc 1 202 0
 334 01b4 0B60     	 str r3,[r1]
 335              	 .loc 1 203 0
 336 01b6 3B78     	 ldrb r3,[r7]
 204:../Dave/Generated/CMSIS_DSP/FilteringFunctions/arm_fir_interpolate_q31.c **** 
 205:../Dave/Generated/CMSIS_DSP/FilteringFunctions/arm_fir_interpolate_q31.c **** 
 206:../Dave/Generated/CMSIS_DSP/FilteringFunctions/arm_fir_interpolate_q31.c ****       pDst++;
 207:../Dave/Generated/CMSIS_DSP/FilteringFunctions/arm_fir_interpolate_q31.c **** 
 208:../Dave/Generated/CMSIS_DSP/FilteringFunctions/arm_fir_interpolate_q31.c ****       /* Increment the address modifier index of coefficient buffer */
 209:../Dave/Generated/CMSIS_DSP/FilteringFunctions/arm_fir_interpolate_q31.c ****       j++;
 337              	 .loc 1 209 0
 338 01b8 0398     	 ldr r0,[sp,#12]
 203:../Dave/Generated/CMSIS_DSP/FilteringFunctions/arm_fir_interpolate_q31.c **** 
 339              	 .loc 1 203 0
 340 01ba E20F     	 lsrs r2,r4,#31
 341 01bc 42EA4502 	 orr r2,r2,r5,lsl#1
 342 01c0 41F82320 	 str r2,[r1,r3,lsl#2]
 206:../Dave/Generated/CMSIS_DSP/FilteringFunctions/arm_fir_interpolate_q31.c **** 
 343              	 .loc 1 206 0
 344 01c4 0B1D     	 adds r3,r1,#4
 345 01c6 0693     	 str r3,[sp,#24]
 346              	.LVL53:
 102:../Dave/Generated/CMSIS_DSP/FilteringFunctions/arm_fir_interpolate_q31.c ****     {
 347              	 .loc 1 102 0
 348 01c8 0B9B     	 ldr r3,[sp,#44]
 349              	 .loc 1 209 0
 350 01ca 0130     	 adds r0,r0,#1
 351              	.LVL54:
 102:../Dave/Generated/CMSIS_DSP/FilteringFunctions/arm_fir_interpolate_q31.c ****     {
 352              	 .loc 1 102 0
 353 01cc 9842     	 cmp r0,r3
 354              	 .loc 1 209 0
 355 01ce 0390     	 str r0,[sp,#12]
 102:../Dave/Generated/CMSIS_DSP/FilteringFunctions/arm_fir_interpolate_q31.c ****     {
 356              	 .loc 1 102 0
 357 01d0 04D0     	 beq .L8
 358 01d2 3B78     	 ldrb r3,[r7]
 359 01d4 0493     	 str r3,[sp,#16]
 360 01d6 1A46     	 mov r2,r3
 361 01d8 0399     	 ldr r1,[sp,#12]
 362 01da 65E7     	 b .L9
 363              	.L8:
 364 01dc 109B     	 ldr r3,[sp,#64]
 365 01de 159A     	 ldr r2,[sp,#84]
 366 01e0 03EB8203 	 add r3,r3,r2,lsl#2
 367 01e4 1093     	 str r3,[sp,#64]
 368 01e6 059B     	 ldr r3,[sp,#20]
 369 01e8 1B78     	 ldrb r3,[r3]
 370              	.LVL55:
 371              	.L3:
 210:../Dave/Generated/CMSIS_DSP/FilteringFunctions/arm_fir_interpolate_q31.c **** 
 211:../Dave/Generated/CMSIS_DSP/FilteringFunctions/arm_fir_interpolate_q31.c ****       /* Decrement the loop counter */
 212:../Dave/Generated/CMSIS_DSP/FilteringFunctions/arm_fir_interpolate_q31.c ****       i--;
 213:../Dave/Generated/CMSIS_DSP/FilteringFunctions/arm_fir_interpolate_q31.c ****     }
 214:../Dave/Generated/CMSIS_DSP/FilteringFunctions/arm_fir_interpolate_q31.c **** 
 215:../Dave/Generated/CMSIS_DSP/FilteringFunctions/arm_fir_interpolate_q31.c ****     /* Advance the state pointer by 1
 216:../Dave/Generated/CMSIS_DSP/FilteringFunctions/arm_fir_interpolate_q31.c ****      * to process the next group of interpolation factor number samples */
 217:../Dave/Generated/CMSIS_DSP/FilteringFunctions/arm_fir_interpolate_q31.c ****     pState = pState + 2;
 218:../Dave/Generated/CMSIS_DSP/FilteringFunctions/arm_fir_interpolate_q31.c **** 
 219:../Dave/Generated/CMSIS_DSP/FilteringFunctions/arm_fir_interpolate_q31.c ****     pDst += S->L;
 372              	 .loc 1 219 0
 373 01ea 109A     	 ldr r2,[sp,#64]
 374 01ec 02EB8303 	 add r3,r2,r3,lsl#2
 375 01f0 1093     	 str r3,[sp,#64]
 376              	.LVL56:
 377 01f2 119B     	 ldr r3,[sp,#68]
 378              	.LVL57:
 379 01f4 0833     	 adds r3,r3,#8
 380 01f6 1193     	 str r3,[sp,#68]
 381 01f8 139B     	 ldr r3,[sp,#76]
 382 01fa 0833     	 adds r3,r3,#8
 383 01fc 1393     	 str r3,[sp,#76]
 384              	.LVL58:
 385 01fe 0A9B     	 ldr r3,[sp,#40]
 386 0200 0833     	 adds r3,r3,#8
 387 0202 0A93     	 str r3,[sp,#40]
 388 0204 129B     	 ldr r3,[sp,#72]
 389 0206 0833     	 adds r3,r3,#8
 390 0208 1293     	 str r3,[sp,#72]
  90:../Dave/Generated/CMSIS_DSP/FilteringFunctions/arm_fir_interpolate_q31.c ****   {
 391              	 .loc 1 90 0
 392 020a 169B     	 ldr r3,[sp,#88]
 393 020c 013B     	 subs r3,r3,#1
 394              	.LVL59:
 395 020e 1693     	 str r3,[sp,#88]
 396 0210 7FF42FAF 	 bne .L10
 397 0214 1B9B     	 ldr r3,[sp,#108]
 398              	.LVL60:
 399 0216 189A     	 ldr r2,[sp,#96]
 400 0218 DB00     	 lsls r3,r3,#3
 401 021a 1A44     	 add r2,r2,r3
 402 021c 1892     	 str r2,[sp,#96]
 403 021e 149A     	 ldr r2,[sp,#80]
 404 0220 1A44     	 add r2,r2,r3
 405 0222 1492     	 str r2,[sp,#80]
 406 0224 179A     	 ldr r2,[sp,#92]
 407 0226 D318     	 adds r3,r2,r3
 408 0228 0F93     	 str r3,[sp,#60]
 409              	.LVL61:
 410              	.L2:
 220:../Dave/Generated/CMSIS_DSP/FilteringFunctions/arm_fir_interpolate_q31.c **** 
 221:../Dave/Generated/CMSIS_DSP/FilteringFunctions/arm_fir_interpolate_q31.c ****     /* Decrement the loop counter */
 222:../Dave/Generated/CMSIS_DSP/FilteringFunctions/arm_fir_interpolate_q31.c ****     blkCnt--;
 223:../Dave/Generated/CMSIS_DSP/FilteringFunctions/arm_fir_interpolate_q31.c ****   }
 224:../Dave/Generated/CMSIS_DSP/FilteringFunctions/arm_fir_interpolate_q31.c **** 
 225:../Dave/Generated/CMSIS_DSP/FilteringFunctions/arm_fir_interpolate_q31.c ****   /* If the blockSize is not a multiple of 2, compute any remaining output samples here.
 226:../Dave/Generated/CMSIS_DSP/FilteringFunctions/arm_fir_interpolate_q31.c ****    ** No loop unrolling is used. */
 227:../Dave/Generated/CMSIS_DSP/FilteringFunctions/arm_fir_interpolate_q31.c ****   blkCnt = blkCntN2;
 228:../Dave/Generated/CMSIS_DSP/FilteringFunctions/arm_fir_interpolate_q31.c **** 
 229:../Dave/Generated/CMSIS_DSP/FilteringFunctions/arm_fir_interpolate_q31.c ****   /* Loop over the blockSize. */
 230:../Dave/Generated/CMSIS_DSP/FilteringFunctions/arm_fir_interpolate_q31.c ****   while (blkCnt > 0u)
 411              	 .loc 1 230 0
 412 022a 1A99     	 ldr r1,[sp,#104]
 413 022c 0029     	 cmp r1,#0
 414 022e 00F09E80 	 beq .L11
 415 0232 1998     	 ldr r0,[sp,#100]
 416 0234 0F9C     	 ldr r4,[sp,#60]
 417 0236 0D91     	 str r1,[sp,#52]
 418 0238 8308     	 lsrs r3,r0,#2
 419 023a 5A1E     	 subs r2,r3,#1
 420 023c 0893     	 str r3,[sp,#32]
 421 023e 00F00303 	 and r3,r0,#3
 422 0242 0993     	 str r3,[sp,#36]
 423 0244 92B2     	 uxth r2,r2
 424 0246 013B     	 subs r3,r3,#1
 425 0248 1898     	 ldr r0,[sp,#96]
 426 024a 0394     	 str r4,[sp,#12]
 427 024c 0132     	 adds r2,r2,#1
 428 024e 9BB2     	 uxth r3,r3
 429 0250 0A92     	 str r2,[sp,#40]
 430 0252 0438     	 subs r0,r0,#4
 431 0254 04EB0212 	 add r2,r4,r2,lsl#4
 432 0258 9B00     	 lsls r3,r3,#2
 433 025a 0C90     	 str r0,[sp,#48]
 434 025c 0492     	 str r2,[sp,#16]
 435 025e 0B93     	 str r3,[sp,#44]
 436              	.LVL62:
 437              	.L19:
 231:../Dave/Generated/CMSIS_DSP/FilteringFunctions/arm_fir_interpolate_q31.c ****   {
 232:../Dave/Generated/CMSIS_DSP/FilteringFunctions/arm_fir_interpolate_q31.c ****     /* Copy new input sample into the state buffer */
 233:../Dave/Generated/CMSIS_DSP/FilteringFunctions/arm_fir_interpolate_q31.c ****     *pStateCurnt++ = *pSrc++;
 438              	 .loc 1 233 0
 439 0260 149A     	 ldr r2,[sp,#80]
 440 0262 52F8043B 	 ldr r3,[r2],#4
 441 0266 1492     	 str r2,[sp,#80]
 442              	.LVL63:
 443 0268 0C9A     	 ldr r2,[sp,#48]
 444              	.LVL64:
 445 026a 42F8043F 	 str r3,[r2,#4]!
 234:../Dave/Generated/CMSIS_DSP/FilteringFunctions/arm_fir_interpolate_q31.c **** 
 235:../Dave/Generated/CMSIS_DSP/FilteringFunctions/arm_fir_interpolate_q31.c ****     /* Address modifier index of coefficient buffer */
 236:../Dave/Generated/CMSIS_DSP/FilteringFunctions/arm_fir_interpolate_q31.c ****     j = 1u;
 237:../Dave/Generated/CMSIS_DSP/FilteringFunctions/arm_fir_interpolate_q31.c **** 
 238:../Dave/Generated/CMSIS_DSP/FilteringFunctions/arm_fir_interpolate_q31.c ****     /* Loop over the Interpolation factor. */
 239:../Dave/Generated/CMSIS_DSP/FilteringFunctions/arm_fir_interpolate_q31.c ****     i = S->L;
 446              	 .loc 1 239 0
 447 026e 059B     	 ldr r3,[sp,#20]
 233:../Dave/Generated/CMSIS_DSP/FilteringFunctions/arm_fir_interpolate_q31.c **** 
 448              	 .loc 1 233 0
 449 0270 0C92     	 str r2,[sp,#48]
 450              	.LVL65:
 451              	 .loc 1 239 0
 452 0272 1B78     	 ldrb r3,[r3]
 453 0274 0E93     	 str r3,[sp,#56]
 454              	.LVL66:
 240:../Dave/Generated/CMSIS_DSP/FilteringFunctions/arm_fir_interpolate_q31.c ****     while (i > 0u)
 455              	 .loc 1 240 0
 456 0276 002B     	 cmp r3,#0
 457 0278 69D0     	 beq .L12
 458 027a 5A1C     	 adds r2,r3,#1
 459 027c 9946     	 mov r9,r3
 460 027e 049B     	 ldr r3,[sp,#16]
 461              	.LVL67:
 462 0280 DDF840B0 	 ldr fp,[sp,#64]
 463 0284 0692     	 str r2,[sp,#24]
 464 0286 4FF0010A 	 mov r10,#1
 465 028a 03F1100E 	 add lr,r3,#16
 466              	.LVL68:
 467              	.L18:
 241:../Dave/Generated/CMSIS_DSP/FilteringFunctions/arm_fir_interpolate_q31.c ****     {
 242:../Dave/Generated/CMSIS_DSP/FilteringFunctions/arm_fir_interpolate_q31.c ****       /* Set accumulator to zero */
 243:../Dave/Generated/CMSIS_DSP/FilteringFunctions/arm_fir_interpolate_q31.c ****       sum0 = 0;
 244:../Dave/Generated/CMSIS_DSP/FilteringFunctions/arm_fir_interpolate_q31.c **** 
 245:../Dave/Generated/CMSIS_DSP/FilteringFunctions/arm_fir_interpolate_q31.c ****       /* Initialize state pointer */
 246:../Dave/Generated/CMSIS_DSP/FilteringFunctions/arm_fir_interpolate_q31.c ****       ptr1 = pState;
 247:../Dave/Generated/CMSIS_DSP/FilteringFunctions/arm_fir_interpolate_q31.c **** 
 248:../Dave/Generated/CMSIS_DSP/FilteringFunctions/arm_fir_interpolate_q31.c ****       /* Initialize coefficient pointer */
 249:../Dave/Generated/CMSIS_DSP/FilteringFunctions/arm_fir_interpolate_q31.c ****       ptr2 = pCoeffs + (S->L - j);
 468              	 .loc 1 249 0
 469 028e 079B     	 ldr r3,[sp,#28]
 470 0290 CAEB0905 	 rsb r5,r10,r9
 471 0294 03EB8505 	 add r5,r3,r5,lsl#2
 472              	.LVL69:
 250:../Dave/Generated/CMSIS_DSP/FilteringFunctions/arm_fir_interpolate_q31.c **** 
 251:../Dave/Generated/CMSIS_DSP/FilteringFunctions/arm_fir_interpolate_q31.c ****       /* Loop over the polyPhase length. Unroll by a factor of 4.
 252:../Dave/Generated/CMSIS_DSP/FilteringFunctions/arm_fir_interpolate_q31.c ****        ** Repeat until we've computed numTaps-(4*S->L) coefficients. */
 253:../Dave/Generated/CMSIS_DSP/FilteringFunctions/arm_fir_interpolate_q31.c ****       tapCnt = phaseLen >> 2;
 254:../Dave/Generated/CMSIS_DSP/FilteringFunctions/arm_fir_interpolate_q31.c ****       while (tapCnt > 0u)
 473              	 .loc 1 254 0
 474 0298 089B     	 ldr r3,[sp,#32]
 475 029a 002B     	 cmp r3,#0
 476 029c 00F0A680 	 beq .L28
 477 02a0 039B     	 ldr r3,[sp,#12]
 478 02a2 4FEA8904 	 lsl r4,r9,#2
 479 02a6 03F11000 	 add r0,r3,#16
 480 02aa 2946     	 mov r1,r5
 481 02ac 0022     	 movs r2,#0
 482 02ae 0023     	 movs r3,#0
 483 02b0 A846     	 mov r8,r5
 484              	.LVL70:
 485              	.L14:
 255:../Dave/Generated/CMSIS_DSP/FilteringFunctions/arm_fir_interpolate_q31.c ****       {
 256:../Dave/Generated/CMSIS_DSP/FilteringFunctions/arm_fir_interpolate_q31.c **** 
 257:../Dave/Generated/CMSIS_DSP/FilteringFunctions/arm_fir_interpolate_q31.c ****         /* Read the coefficient */
 258:../Dave/Generated/CMSIS_DSP/FilteringFunctions/arm_fir_interpolate_q31.c ****         c0 = *(ptr2);
 259:../Dave/Generated/CMSIS_DSP/FilteringFunctions/arm_fir_interpolate_q31.c **** 
 260:../Dave/Generated/CMSIS_DSP/FilteringFunctions/arm_fir_interpolate_q31.c ****         /* Upsampling is done by stuffing L-1 zeros between each sample.
 261:../Dave/Generated/CMSIS_DSP/FilteringFunctions/arm_fir_interpolate_q31.c ****          * So instead of multiplying zeros with coefficients,
 262:../Dave/Generated/CMSIS_DSP/FilteringFunctions/arm_fir_interpolate_q31.c ****          * Increment the coefficient pointer by interpolation factor times. */
 263:../Dave/Generated/CMSIS_DSP/FilteringFunctions/arm_fir_interpolate_q31.c ****         ptr2 += S->L;
 264:../Dave/Generated/CMSIS_DSP/FilteringFunctions/arm_fir_interpolate_q31.c **** 
 265:../Dave/Generated/CMSIS_DSP/FilteringFunctions/arm_fir_interpolate_q31.c ****         /* Read the input sample */
 266:../Dave/Generated/CMSIS_DSP/FilteringFunctions/arm_fir_interpolate_q31.c ****         x0 = *(ptr1++);
 486              	 .loc 1 266 0
 487 02b2 50F8106C 	 ldr r6,[r0,#-16]
 258:../Dave/Generated/CMSIS_DSP/FilteringFunctions/arm_fir_interpolate_q31.c **** 
 488              	 .loc 1 258 0
 489 02b6 0F68     	 ldr r7,[r1]
 490              	.LVL71:
 267:../Dave/Generated/CMSIS_DSP/FilteringFunctions/arm_fir_interpolate_q31.c **** 
 268:../Dave/Generated/CMSIS_DSP/FilteringFunctions/arm_fir_interpolate_q31.c ****         /* Perform the multiply-accumulate */
 269:../Dave/Generated/CMSIS_DSP/FilteringFunctions/arm_fir_interpolate_q31.c ****         sum0 += (q63_t) x0 *c0;
 270:../Dave/Generated/CMSIS_DSP/FilteringFunctions/arm_fir_interpolate_q31.c **** 
 271:../Dave/Generated/CMSIS_DSP/FilteringFunctions/arm_fir_interpolate_q31.c ****         /* Read the coefficient */
 272:../Dave/Generated/CMSIS_DSP/FilteringFunctions/arm_fir_interpolate_q31.c ****         c0 = *(ptr2);
 491              	 .loc 1 272 0
 492 02b8 0D59     	 ldr r5,[r1,r4]
 269:../Dave/Generated/CMSIS_DSP/FilteringFunctions/arm_fir_interpolate_q31.c **** 
 493              	 .loc 1 269 0
 494 02ba C7FB0623 	 smlal r2,r3,r7,r6
 495              	.LVL72:
 496 02be 1646     	 mov r6,r2
 273:../Dave/Generated/CMSIS_DSP/FilteringFunctions/arm_fir_interpolate_q31.c **** 
 274:../Dave/Generated/CMSIS_DSP/FilteringFunctions/arm_fir_interpolate_q31.c ****         /* Increment the coefficient pointer by interpolation factor times. */
 275:../Dave/Generated/CMSIS_DSP/FilteringFunctions/arm_fir_interpolate_q31.c ****         ptr2 += S->L;
 276:../Dave/Generated/CMSIS_DSP/FilteringFunctions/arm_fir_interpolate_q31.c **** 
 277:../Dave/Generated/CMSIS_DSP/FilteringFunctions/arm_fir_interpolate_q31.c ****         /* Read the input sample */
 278:../Dave/Generated/CMSIS_DSP/FilteringFunctions/arm_fir_interpolate_q31.c ****         x0 = *(ptr1++);
 279:../Dave/Generated/CMSIS_DSP/FilteringFunctions/arm_fir_interpolate_q31.c **** 
 280:../Dave/Generated/CMSIS_DSP/FilteringFunctions/arm_fir_interpolate_q31.c ****         /* Perform the multiply-accumulate */
 281:../Dave/Generated/CMSIS_DSP/FilteringFunctions/arm_fir_interpolate_q31.c ****         sum0 += (q63_t) x0 *c0;
 497              	 .loc 1 281 0
 498 02c0 50F80C2C 	 ldr r2,[r0,#-12]
 269:../Dave/Generated/CMSIS_DSP/FilteringFunctions/arm_fir_interpolate_q31.c **** 
 499              	 .loc 1 269 0
 500 02c4 1F46     	 mov r7,r3
 501              	.LVL73:
 502              	 .loc 1 281 0
 503 02c6 C5FB0267 	 smlal r6,r7,r5,r2
 282:../Dave/Generated/CMSIS_DSP/FilteringFunctions/arm_fir_interpolate_q31.c **** 
 283:../Dave/Generated/CMSIS_DSP/FilteringFunctions/arm_fir_interpolate_q31.c ****         /* Read the coefficient */
 284:../Dave/Generated/CMSIS_DSP/FilteringFunctions/arm_fir_interpolate_q31.c ****         c0 = *(ptr2);
 285:../Dave/Generated/CMSIS_DSP/FilteringFunctions/arm_fir_interpolate_q31.c **** 
 286:../Dave/Generated/CMSIS_DSP/FilteringFunctions/arm_fir_interpolate_q31.c ****         /* Increment the coefficient pointer by interpolation factor times. */
 287:../Dave/Generated/CMSIS_DSP/FilteringFunctions/arm_fir_interpolate_q31.c ****         ptr2 += S->L;
 288:../Dave/Generated/CMSIS_DSP/FilteringFunctions/arm_fir_interpolate_q31.c **** 
 289:../Dave/Generated/CMSIS_DSP/FilteringFunctions/arm_fir_interpolate_q31.c ****         /* Read the input sample */
 290:../Dave/Generated/CMSIS_DSP/FilteringFunctions/arm_fir_interpolate_q31.c ****         x0 = *(ptr1++);
 291:../Dave/Generated/CMSIS_DSP/FilteringFunctions/arm_fir_interpolate_q31.c **** 
 292:../Dave/Generated/CMSIS_DSP/FilteringFunctions/arm_fir_interpolate_q31.c ****         /* Perform the multiply-accumulate */
 293:../Dave/Generated/CMSIS_DSP/FilteringFunctions/arm_fir_interpolate_q31.c ****         sum0 += (q63_t) x0 *c0;
 504              	 .loc 1 293 0
 505 02ca 10E92400 	 ldmdb r0,{r2,r5}
 506 02ce 0B19     	 adds r3,r1,r4
 507              	.LVL74:
 284:../Dave/Generated/CMSIS_DSP/FilteringFunctions/arm_fir_interpolate_q31.c **** 
 508              	 .loc 1 284 0
 509 02d0 51F81410 	 ldr r1,[r1,r4,lsl#1]
 510              	.LVL75:
 294:../Dave/Generated/CMSIS_DSP/FilteringFunctions/arm_fir_interpolate_q31.c **** 
 295:../Dave/Generated/CMSIS_DSP/FilteringFunctions/arm_fir_interpolate_q31.c ****         /* Read the coefficient */
 296:../Dave/Generated/CMSIS_DSP/FilteringFunctions/arm_fir_interpolate_q31.c ****         c0 = *(ptr2);
 511              	 .loc 1 296 0
 512 02d4 53F814C0 	 ldr ip,[r3,r4,lsl#1]
 293:../Dave/Generated/CMSIS_DSP/FilteringFunctions/arm_fir_interpolate_q31.c **** 
 513              	 .loc 1 293 0
 514 02d8 C1FB0267 	 smlal r6,r7,r1,r2
 515              	.LVL76:
 516 02dc 1030     	 adds r0,r0,#16
 517              	.LVL77:
 518 02de 03EB4401 	 add r1,r3,r4,lsl#1
 519              	.LVL78:
 297:../Dave/Generated/CMSIS_DSP/FilteringFunctions/arm_fir_interpolate_q31.c **** 
 298:../Dave/Generated/CMSIS_DSP/FilteringFunctions/arm_fir_interpolate_q31.c ****         /* Increment the coefficient pointer by interpolation factor times. */
 299:../Dave/Generated/CMSIS_DSP/FilteringFunctions/arm_fir_interpolate_q31.c ****         ptr2 += S->L;
 300:../Dave/Generated/CMSIS_DSP/FilteringFunctions/arm_fir_interpolate_q31.c **** 
 301:../Dave/Generated/CMSIS_DSP/FilteringFunctions/arm_fir_interpolate_q31.c ****         /* Read the input sample */
 302:../Dave/Generated/CMSIS_DSP/FilteringFunctions/arm_fir_interpolate_q31.c ****         x0 = *(ptr1++);
 303:../Dave/Generated/CMSIS_DSP/FilteringFunctions/arm_fir_interpolate_q31.c **** 
 304:../Dave/Generated/CMSIS_DSP/FilteringFunctions/arm_fir_interpolate_q31.c ****         /* Perform the multiply-accumulate */
 305:../Dave/Generated/CMSIS_DSP/FilteringFunctions/arm_fir_interpolate_q31.c ****         sum0 += (q63_t) x0 *c0;
 520              	 .loc 1 305 0
 521 02e2 3246     	 mov r2,r6
 522 02e4 3B46     	 mov r3,r7
 254:../Dave/Generated/CMSIS_DSP/FilteringFunctions/arm_fir_interpolate_q31.c ****       {
 523              	 .loc 1 254 0
 524 02e6 7045     	 cmp r0,lr
 525 02e8 2144     	 add r1,r1,r4
 526              	.LVL79:
 527              	 .loc 1 305 0
 528 02ea CCFB0523 	 smlal r2,r3,ip,r5
 529              	.LVL80:
 254:../Dave/Generated/CMSIS_DSP/FilteringFunctions/arm_fir_interpolate_q31.c ****       {
 530              	 .loc 1 254 0
 531 02ee E0D1     	 bne .L14
 532 02f0 CDE90023 	 strd r2,[sp]
 533 02f4 0A9B     	 ldr r3,[sp,#40]
 534 02f6 049E     	 ldr r6,[sp,#16]
 535 02f8 A400     	 lsls r4,r4,#2
 536 02fa 03FB0485 	 mla r5,r3,r4,r8
 537              	.LVL81:
 538              	.L13:
 306:../Dave/Generated/CMSIS_DSP/FilteringFunctions/arm_fir_interpolate_q31.c **** 
 307:../Dave/Generated/CMSIS_DSP/FilteringFunctions/arm_fir_interpolate_q31.c ****         /* Decrement the loop counter */
 308:../Dave/Generated/CMSIS_DSP/FilteringFunctions/arm_fir_interpolate_q31.c ****         tapCnt--;
 309:../Dave/Generated/CMSIS_DSP/FilteringFunctions/arm_fir_interpolate_q31.c ****       }
 310:../Dave/Generated/CMSIS_DSP/FilteringFunctions/arm_fir_interpolate_q31.c **** 
 311:../Dave/Generated/CMSIS_DSP/FilteringFunctions/arm_fir_interpolate_q31.c ****       /* If the polyPhase length is not a multiple of 4, compute the remaining filter taps */
 312:../Dave/Generated/CMSIS_DSP/FilteringFunctions/arm_fir_interpolate_q31.c ****       tapCnt = phaseLen & 0x3u;
 313:../Dave/Generated/CMSIS_DSP/FilteringFunctions/arm_fir_interpolate_q31.c **** 
 314:../Dave/Generated/CMSIS_DSP/FilteringFunctions/arm_fir_interpolate_q31.c ****       while (tapCnt > 0u)
 539              	 .loc 1 314 0
 540 02fe 099B     	 ldr r3,[sp,#36]
 541 0300 83B1     	 cbz r3,.L15
 542 0302 0B9B     	 ldr r3,[sp,#44]
 543 0304 311F     	 subs r1,r6,#4
 544 0306 1E44     	 add r6,r6,r3
 545              	.LVL82:
 546 0308 DDE90023 	 ldrd r2,[sp]
 547 030c 4FEA8909 	 lsl r9,r9,#2
 548              	.LVL83:
 549              	.L16:
 315:../Dave/Generated/CMSIS_DSP/FilteringFunctions/arm_fir_interpolate_q31.c ****       {
 316:../Dave/Generated/CMSIS_DSP/FilteringFunctions/arm_fir_interpolate_q31.c ****         /* Read the coefficient */
 317:../Dave/Generated/CMSIS_DSP/FilteringFunctions/arm_fir_interpolate_q31.c ****         c0 = *(ptr2);
 318:../Dave/Generated/CMSIS_DSP/FilteringFunctions/arm_fir_interpolate_q31.c **** 
 319:../Dave/Generated/CMSIS_DSP/FilteringFunctions/arm_fir_interpolate_q31.c ****         /* Increment the coefficient pointer by interpolation factor times. */
 320:../Dave/Generated/CMSIS_DSP/FilteringFunctions/arm_fir_interpolate_q31.c ****         ptr2 += S->L;
 321:../Dave/Generated/CMSIS_DSP/FilteringFunctions/arm_fir_interpolate_q31.c **** 
 322:../Dave/Generated/CMSIS_DSP/FilteringFunctions/arm_fir_interpolate_q31.c ****         /* Read the input sample */
 323:../Dave/Generated/CMSIS_DSP/FilteringFunctions/arm_fir_interpolate_q31.c ****         x0 = *(ptr1++);
 550              	 .loc 1 323 0
 551 0310 51F8044F 	 ldr r4,[r1,#4]!
 552              	.LVL84:
 317:../Dave/Generated/CMSIS_DSP/FilteringFunctions/arm_fir_interpolate_q31.c **** 
 553              	 .loc 1 317 0
 554 0314 2868     	 ldr r0,[r5]
 555              	.LVL85:
 314:../Dave/Generated/CMSIS_DSP/FilteringFunctions/arm_fir_interpolate_q31.c ****       {
 556              	 .loc 1 314 0
 557 0316 B142     	 cmp r1,r6
 320:../Dave/Generated/CMSIS_DSP/FilteringFunctions/arm_fir_interpolate_q31.c **** 
 558              	 .loc 1 320 0
 559 0318 4D44     	 add r5,r5,r9
 560              	.LVL86:
 324:../Dave/Generated/CMSIS_DSP/FilteringFunctions/arm_fir_interpolate_q31.c **** 
 325:../Dave/Generated/CMSIS_DSP/FilteringFunctions/arm_fir_interpolate_q31.c ****         /* Perform the multiply-accumulate */
 326:../Dave/Generated/CMSIS_DSP/FilteringFunctions/arm_fir_interpolate_q31.c ****         sum0 += (q63_t) x0 *c0;
 561              	 .loc 1 326 0
 562 031a C0FB0423 	 smlal r2,r3,r0,r4
 563              	.LVL87:
 314:../Dave/Generated/CMSIS_DSP/FilteringFunctions/arm_fir_interpolate_q31.c ****       {
 564              	 .loc 1 314 0
 565 031e F7D1     	 bne .L16
 566 0320 CDE90023 	 strd r2,[sp]
 567              	.LVL88:
 568              	.L15:
 327:../Dave/Generated/CMSIS_DSP/FilteringFunctions/arm_fir_interpolate_q31.c **** 
 328:../Dave/Generated/CMSIS_DSP/FilteringFunctions/arm_fir_interpolate_q31.c ****         /* Decrement the loop counter */
 329:../Dave/Generated/CMSIS_DSP/FilteringFunctions/arm_fir_interpolate_q31.c ****         tapCnt--;
 330:../Dave/Generated/CMSIS_DSP/FilteringFunctions/arm_fir_interpolate_q31.c ****       }
 331:../Dave/Generated/CMSIS_DSP/FilteringFunctions/arm_fir_interpolate_q31.c **** 
 332:../Dave/Generated/CMSIS_DSP/FilteringFunctions/arm_fir_interpolate_q31.c ****       /* The result is in the accumulator, store in the destination buffer. */
 333:../Dave/Generated/CMSIS_DSP/FilteringFunctions/arm_fir_interpolate_q31.c ****       *pDst++ = (q31_t) (sum0 >> 31);
 569              	 .loc 1 333 0
 570 0324 DDE90001 	 ldrd r0,[sp]
 240:../Dave/Generated/CMSIS_DSP/FilteringFunctions/arm_fir_interpolate_q31.c ****     {
 571              	 .loc 1 240 0
 572 0328 069B     	 ldr r3,[sp,#24]
 573              	 .loc 1 333 0
 574 032a C20F     	 lsrs r2,r0,#31
 334:../Dave/Generated/CMSIS_DSP/FilteringFunctions/arm_fir_interpolate_q31.c **** 
 335:../Dave/Generated/CMSIS_DSP/FilteringFunctions/arm_fir_interpolate_q31.c ****       /* Increment the address modifier index of coefficient buffer */
 336:../Dave/Generated/CMSIS_DSP/FilteringFunctions/arm_fir_interpolate_q31.c ****       j++;
 575              	 .loc 1 336 0
 576 032c 0AF1010A 	 add r10,r10,#1
 577              	.LVL89:
 333:../Dave/Generated/CMSIS_DSP/FilteringFunctions/arm_fir_interpolate_q31.c **** 
 578              	 .loc 1 333 0
 579 0330 42EA4102 	 orr r2,r2,r1,lsl#1
 240:../Dave/Generated/CMSIS_DSP/FilteringFunctions/arm_fir_interpolate_q31.c ****     {
 580              	 .loc 1 240 0
 581 0334 9A45     	 cmp r10,r3
 333:../Dave/Generated/CMSIS_DSP/FilteringFunctions/arm_fir_interpolate_q31.c **** 
 582              	 .loc 1 333 0
 583 0336 4BF8042B 	 str r2,[fp],#4
 584              	.LVL90:
 240:../Dave/Generated/CMSIS_DSP/FilteringFunctions/arm_fir_interpolate_q31.c ****     {
 585              	 .loc 1 240 0
 586 033a 03D0     	 beq .L17
 587 033c 059B     	 ldr r3,[sp,#20]
 588 033e 93F80090 	 ldrb r9,[r3]
 589 0342 A4E7     	 b .L18
 590              	.L17:
 591 0344 109B     	 ldr r3,[sp,#64]
 592 0346 0E9A     	 ldr r2,[sp,#56]
 593 0348 03EB8203 	 add r3,r3,r2,lsl#2
 594 034c 1093     	 str r3,[sp,#64]
 595              	.LVL91:
 596              	.L12:
 337:../Dave/Generated/CMSIS_DSP/FilteringFunctions/arm_fir_interpolate_q31.c **** 
 338:../Dave/Generated/CMSIS_DSP/FilteringFunctions/arm_fir_interpolate_q31.c ****       /* Decrement the loop counter */
 339:../Dave/Generated/CMSIS_DSP/FilteringFunctions/arm_fir_interpolate_q31.c ****       i--;
 340:../Dave/Generated/CMSIS_DSP/FilteringFunctions/arm_fir_interpolate_q31.c ****     }
 341:../Dave/Generated/CMSIS_DSP/FilteringFunctions/arm_fir_interpolate_q31.c **** 
 342:../Dave/Generated/CMSIS_DSP/FilteringFunctions/arm_fir_interpolate_q31.c ****     /* Advance the state pointer by 1
 343:../Dave/Generated/CMSIS_DSP/FilteringFunctions/arm_fir_interpolate_q31.c ****      * to process the next group of interpolation factor number samples */
 344:../Dave/Generated/CMSIS_DSP/FilteringFunctions/arm_fir_interpolate_q31.c ****     pState = pState + 1;
 597              	 .loc 1 344 0
 598 034e 039B     	 ldr r3,[sp,#12]
 599 0350 0433     	 adds r3,r3,#4
 600 0352 0393     	 str r3,[sp,#12]
 601              	.LVL92:
 602 0354 049B     	 ldr r3,[sp,#16]
 603              	.LVL93:
 604 0356 0433     	 adds r3,r3,#4
 605 0358 0493     	 str r3,[sp,#16]
 230:../Dave/Generated/CMSIS_DSP/FilteringFunctions/arm_fir_interpolate_q31.c ****   {
 606              	 .loc 1 230 0
 607 035a 0D9B     	 ldr r3,[sp,#52]
 608 035c 013B     	 subs r3,r3,#1
 609              	.LVL94:
 610 035e 0D93     	 str r3,[sp,#52]
 611 0360 7FF47EAF 	 bne .L19
 612 0364 0F9B     	 ldr r3,[sp,#60]
 613              	.LVL95:
 614 0366 1A9A     	 ldr r2,[sp,#104]
 615 0368 03EB8203 	 add r3,r3,r2,lsl#2
 616 036c 0F93     	 str r3,[sp,#60]
 617              	.LVL96:
 618              	.L11:
 345:../Dave/Generated/CMSIS_DSP/FilteringFunctions/arm_fir_interpolate_q31.c **** 
 346:../Dave/Generated/CMSIS_DSP/FilteringFunctions/arm_fir_interpolate_q31.c ****     /* Decrement the loop counter */
 347:../Dave/Generated/CMSIS_DSP/FilteringFunctions/arm_fir_interpolate_q31.c ****     blkCnt--;
 348:../Dave/Generated/CMSIS_DSP/FilteringFunctions/arm_fir_interpolate_q31.c ****   }
 349:../Dave/Generated/CMSIS_DSP/FilteringFunctions/arm_fir_interpolate_q31.c **** 
 350:../Dave/Generated/CMSIS_DSP/FilteringFunctions/arm_fir_interpolate_q31.c ****   /* Processing is complete.
 351:../Dave/Generated/CMSIS_DSP/FilteringFunctions/arm_fir_interpolate_q31.c ****    ** Now copy the last phaseLen - 1 samples to the satrt of the state buffer.
 352:../Dave/Generated/CMSIS_DSP/FilteringFunctions/arm_fir_interpolate_q31.c ****    ** This prepares the state buffer for the next function call. */
 353:../Dave/Generated/CMSIS_DSP/FilteringFunctions/arm_fir_interpolate_q31.c **** 
 354:../Dave/Generated/CMSIS_DSP/FilteringFunctions/arm_fir_interpolate_q31.c ****   /* Points to the start of the state buffer */
 355:../Dave/Generated/CMSIS_DSP/FilteringFunctions/arm_fir_interpolate_q31.c ****   pStateCurnt = S->pState;
 356:../Dave/Generated/CMSIS_DSP/FilteringFunctions/arm_fir_interpolate_q31.c **** 
 357:../Dave/Generated/CMSIS_DSP/FilteringFunctions/arm_fir_interpolate_q31.c ****   tapCnt = (phaseLen - 1u) >> 2u;
 619              	 .loc 1 357 0
 620 036e 199B     	 ldr r3,[sp,#100]
 621 0370 591E     	 subs r1,r3,#1
 622 0372 C1F38F03 	 ubfx r3,r1,#2,#16
 623              	.LVL97:
 358:../Dave/Generated/CMSIS_DSP/FilteringFunctions/arm_fir_interpolate_q31.c **** 
 359:../Dave/Generated/CMSIS_DSP/FilteringFunctions/arm_fir_interpolate_q31.c ****   /* copy data */
 360:../Dave/Generated/CMSIS_DSP/FilteringFunctions/arm_fir_interpolate_q31.c ****   while (tapCnt > 0u)
 624              	 .loc 1 360 0
 625 0376 33B3     	 cbz r3,.L20
 626 0378 013B     	 subs r3,r3,#1
 627              	.LVL98:
 628 037a 179A     	 ldr r2,[sp,#92]
 629 037c 9CB2     	 uxth r4,r3
 630 037e A51C     	 adds r5,r4,#2
 631 0380 1346     	 mov r3,r2
 632              	.LVL99:
 633 0382 02EB0515 	 add r5,r2,r5,lsl#4
 634 0386 0F9A     	 ldr r2,[sp,#60]
 635 0388 1033     	 adds r3,r3,#16
 636 038a 1032     	 adds r2,r2,#16
 637              	.LVL100:
 638              	.L21:
 361:../Dave/Generated/CMSIS_DSP/FilteringFunctions/arm_fir_interpolate_q31.c ****   {
 362:../Dave/Generated/CMSIS_DSP/FilteringFunctions/arm_fir_interpolate_q31.c ****     *pStateCurnt++ = *pState++;
 639              	 .loc 1 362 0
 640 038c 52F8100C 	 ldr r0,[r2,#-16]
 641 0390 43F8100C 	 str r0,[r3,#-16]
 642              	.LVL101:
 363:../Dave/Generated/CMSIS_DSP/FilteringFunctions/arm_fir_interpolate_q31.c ****     *pStateCurnt++ = *pState++;
 643              	 .loc 1 363 0
 644 0394 52F80C0C 	 ldr r0,[r2,#-12]
 645 0398 43F80C0C 	 str r0,[r3,#-12]
 646              	.LVL102:
 364:../Dave/Generated/CMSIS_DSP/FilteringFunctions/arm_fir_interpolate_q31.c ****     *pStateCurnt++ = *pState++;
 647              	 .loc 1 364 0
 648 039c 52F8080C 	 ldr r0,[r2,#-8]
 649 03a0 43F8080C 	 str r0,[r3,#-8]
 650              	.LVL103:
 365:../Dave/Generated/CMSIS_DSP/FilteringFunctions/arm_fir_interpolate_q31.c ****     *pStateCurnt++ = *pState++;
 651              	 .loc 1 365 0
 652 03a4 52F8040C 	 ldr r0,[r2,#-4]
 653 03a8 43F8040C 	 str r0,[r3,#-4]
 654 03ac 1033     	 adds r3,r3,#16
 360:../Dave/Generated/CMSIS_DSP/FilteringFunctions/arm_fir_interpolate_q31.c ****   {
 655              	 .loc 1 360 0
 656 03ae AB42     	 cmp r3,r5
 657 03b0 02F11002 	 add r2,r2,#16
 658              	.LVL104:
 659 03b4 EAD1     	 bne .L21
 660 03b6 179A     	 ldr r2,[sp,#92]
 661              	.LVL105:
 662 03b8 631C     	 adds r3,r4,#1
 663 03ba 1B01     	 lsls r3,r3,#4
 664 03bc 1A44     	 add r2,r2,r3
 665 03be 1792     	 str r2,[sp,#92]
 666 03c0 0F9A     	 ldr r2,[sp,#60]
 667 03c2 1A44     	 add r2,r2,r3
 668 03c4 0F92     	 str r2,[sp,#60]
 669              	.L20:
 670              	.LVL106:
 366:../Dave/Generated/CMSIS_DSP/FilteringFunctions/arm_fir_interpolate_q31.c **** 
 367:../Dave/Generated/CMSIS_DSP/FilteringFunctions/arm_fir_interpolate_q31.c ****     /* Decrement the loop counter */
 368:../Dave/Generated/CMSIS_DSP/FilteringFunctions/arm_fir_interpolate_q31.c ****     tapCnt--;
 369:../Dave/Generated/CMSIS_DSP/FilteringFunctions/arm_fir_interpolate_q31.c ****   }
 370:../Dave/Generated/CMSIS_DSP/FilteringFunctions/arm_fir_interpolate_q31.c **** 
 371:../Dave/Generated/CMSIS_DSP/FilteringFunctions/arm_fir_interpolate_q31.c ****   tapCnt = (phaseLen - 1u) % 0x04u;
 372:../Dave/Generated/CMSIS_DSP/FilteringFunctions/arm_fir_interpolate_q31.c **** 
 373:../Dave/Generated/CMSIS_DSP/FilteringFunctions/arm_fir_interpolate_q31.c ****   /* copy data */
 374:../Dave/Generated/CMSIS_DSP/FilteringFunctions/arm_fir_interpolate_q31.c ****   while (tapCnt > 0u)
 671              	 .loc 1 374 0
 672 03c6 11F00302 	 ands r2,r1,#3
 673 03ca 0CD0     	 beq .L1
 674 03cc 1799     	 ldr r1,[sp,#92]
 675              	.LVL107:
 676 03ce 013A     	 subs r2,r2,#1
 677 03d0 92B2     	 uxth r2,r2
 678 03d2 01EB8202 	 add r2,r1,r2,lsl#2
 679 03d6 0B1F     	 subs r3,r1,#4
 680 03d8 0F99     	 ldr r1,[sp,#60]
 681              	.LVL108:
 682              	.L23:
 375:../Dave/Generated/CMSIS_DSP/FilteringFunctions/arm_fir_interpolate_q31.c ****   {
 376:../Dave/Generated/CMSIS_DSP/FilteringFunctions/arm_fir_interpolate_q31.c ****     *pStateCurnt++ = *pState++;
 683              	 .loc 1 376 0
 684 03da 51F8040B 	 ldr r0,[r1],#4
 685              	.LVL109:
 686 03de 43F8040F 	 str r0,[r3,#4]!
 687              	.LVL110:
 374:../Dave/Generated/CMSIS_DSP/FilteringFunctions/arm_fir_interpolate_q31.c ****   {
 688              	 .loc 1 374 0
 689 03e2 9342     	 cmp r3,r2
 690 03e4 F9D1     	 bne .L23
 691              	.LVL111:
 692              	.L1:
 377:../Dave/Generated/CMSIS_DSP/FilteringFunctions/arm_fir_interpolate_q31.c **** 
 378:../Dave/Generated/CMSIS_DSP/FilteringFunctions/arm_fir_interpolate_q31.c ****     /* Decrement the loop counter */
 379:../Dave/Generated/CMSIS_DSP/FilteringFunctions/arm_fir_interpolate_q31.c ****     tapCnt--;
 380:../Dave/Generated/CMSIS_DSP/FilteringFunctions/arm_fir_interpolate_q31.c ****   }
 381:../Dave/Generated/CMSIS_DSP/FilteringFunctions/arm_fir_interpolate_q31.c **** 
 382:../Dave/Generated/CMSIS_DSP/FilteringFunctions/arm_fir_interpolate_q31.c **** }
 693              	 .loc 1 382 0
 694 03e6 1DB0     	 add sp,sp,#116
 695              	.LCFI2:
 696              	 .cfi_remember_state
 697              	 .cfi_def_cfa_offset 36
 698              	 
 699 03e8 BDE8F08F 	 pop {r4,r5,r6,r7,r8,r9,r10,fp,pc}
 700              	.LVL112:
 701              	.L28:
 702              	.LCFI3:
 703              	 .cfi_restore_state
 243:../Dave/Generated/CMSIS_DSP/FilteringFunctions/arm_fir_interpolate_q31.c **** 
 704              	 .loc 1 243 0
 705 03ec 0022     	 movs r2,#0
 706 03ee 0023     	 movs r3,#0
 254:../Dave/Generated/CMSIS_DSP/FilteringFunctions/arm_fir_interpolate_q31.c ****       {
 707              	 .loc 1 254 0
 708 03f0 039E     	 ldr r6,[sp,#12]
 243:../Dave/Generated/CMSIS_DSP/FilteringFunctions/arm_fir_interpolate_q31.c **** 
 709              	 .loc 1 243 0
 710 03f2 CDE90023 	 strd r2,[sp]
 711 03f6 82E7     	 b .L13
 712              	.LVL113:
 713              	.L27:
 106:../Dave/Generated/CMSIS_DSP/FilteringFunctions/arm_fir_interpolate_q31.c **** 
 714              	 .loc 1 106 0
 715 03f8 0024     	 movs r4,#0
 716 03fa 0025     	 movs r5,#0
 717 03fc 3746     	 mov r7,r6
 105:../Dave/Generated/CMSIS_DSP/FilteringFunctions/arm_fir_interpolate_q31.c ****       acc1 = 0;
 718              	 .loc 1 105 0
 719 03fe 2046     	 mov r0,r4
 720 0400 2946     	 mov r1,r5
 721 0402 B8E6     	 b .L4
 722              	.LVL114:
 723              	.L25:
  68:../Dave/Generated/CMSIS_DSP/FilteringFunctions/arm_fir_interpolate_q31.c ****   q31_t *pCoeffs = S->pCoeffs;                   /* Coefficient pointer */
 724              	 .loc 1 68 0
 725 0404 0F95     	 str r5,[sp,#60]
 726 0406 10E7     	 b .L2
 727              	 .cfi_endproc
 728              	.LFE135:
 730              	 .text
 731              	.Letext0:
 732              	 .file 2 "c:\\infineon\\tools\\dave ide\\4.5.0.202105191637\\eclipse\\arm-gcc-49\\arm-none-eabi\\include\\machine\\_default_types.h"
 733              	 .file 3 "c:\\infineon\\tools\\dave ide\\4.5.0.202105191637\\eclipse\\arm-gcc-49\\arm-none-eabi\\include\\stdint.h"
 734              	 .file 4 "C:/Users/Utente/Desktop/Tesi/Firmware_Software/DAVE project/S2GLP_Pulsed_Doppler/Dave/Generated/CMSIS_DSP/arm_math.h"