   1              	 .syntax unified
   2              	 .cpu cortex-m4
   3              	 .eabi_attribute 27,3
   4              	 .fpu fpv4-sp-d16
   5              	 .eabi_attribute 20,1
   6              	 .eabi_attribute 21,1
   7              	 .eabi_attribute 23,3
   8              	 .eabi_attribute 24,1
   9              	 .eabi_attribute 25,1
  10              	 .eabi_attribute 26,1
  11              	 .eabi_attribute 30,2
  12              	 .eabi_attribute 34,1
  13              	 .eabi_attribute 18,4
  14              	 .thumb
  15              	 .file "arm_conv_partial_fast_q31.c"
  16              	 .text
  17              	.Ltext0:
  18              	 .cfi_sections .debug_frame
  19              	 .section .text.arm_conv_partial_fast_q31,"ax",%progbits
  20              	 .align 2
  21              	 .global arm_conv_partial_fast_q31
  22              	 .thumb
  23              	 .thumb_func
  25              	arm_conv_partial_fast_q31:
  26              	.LFB135:
  27              	 .file 1 "../Dave/Generated/CMSIS_DSP/FilteringFunctions/arm_conv_partial_fast_q31.c"
   1:../Dave/Generated/CMSIS_DSP/FilteringFunctions/arm_conv_partial_fast_q31.c **** /* ----------------------------------------------------------------------
   2:../Dave/Generated/CMSIS_DSP/FilteringFunctions/arm_conv_partial_fast_q31.c ****  * Project:      CMSIS DSP Library
   3:../Dave/Generated/CMSIS_DSP/FilteringFunctions/arm_conv_partial_fast_q31.c ****  * Title:        arm_conv_partial_fast_q31.c
   4:../Dave/Generated/CMSIS_DSP/FilteringFunctions/arm_conv_partial_fast_q31.c ****  * Description:  Fast Q31 Partial convolution
   5:../Dave/Generated/CMSIS_DSP/FilteringFunctions/arm_conv_partial_fast_q31.c ****  *
   6:../Dave/Generated/CMSIS_DSP/FilteringFunctions/arm_conv_partial_fast_q31.c ****  * $Date:        27. January 2017
   7:../Dave/Generated/CMSIS_DSP/FilteringFunctions/arm_conv_partial_fast_q31.c ****  * $Revision:    V.1.5.1
   8:../Dave/Generated/CMSIS_DSP/FilteringFunctions/arm_conv_partial_fast_q31.c ****  *
   9:../Dave/Generated/CMSIS_DSP/FilteringFunctions/arm_conv_partial_fast_q31.c ****  * Target Processor: Cortex-M cores
  10:../Dave/Generated/CMSIS_DSP/FilteringFunctions/arm_conv_partial_fast_q31.c ****  * -------------------------------------------------------------------- */
  11:../Dave/Generated/CMSIS_DSP/FilteringFunctions/arm_conv_partial_fast_q31.c **** /*
  12:../Dave/Generated/CMSIS_DSP/FilteringFunctions/arm_conv_partial_fast_q31.c ****  * Copyright (C) 2010-2017 ARM Limited or its affiliates. All rights reserved.
  13:../Dave/Generated/CMSIS_DSP/FilteringFunctions/arm_conv_partial_fast_q31.c ****  *
  14:../Dave/Generated/CMSIS_DSP/FilteringFunctions/arm_conv_partial_fast_q31.c ****  * SPDX-License-Identifier: Apache-2.0
  15:../Dave/Generated/CMSIS_DSP/FilteringFunctions/arm_conv_partial_fast_q31.c ****  *
  16:../Dave/Generated/CMSIS_DSP/FilteringFunctions/arm_conv_partial_fast_q31.c ****  * Licensed under the Apache License, Version 2.0 (the License); you may
  17:../Dave/Generated/CMSIS_DSP/FilteringFunctions/arm_conv_partial_fast_q31.c ****  * not use this file except in compliance with the License.
  18:../Dave/Generated/CMSIS_DSP/FilteringFunctions/arm_conv_partial_fast_q31.c ****  * You may obtain a copy of the License at
  19:../Dave/Generated/CMSIS_DSP/FilteringFunctions/arm_conv_partial_fast_q31.c ****  *
  20:../Dave/Generated/CMSIS_DSP/FilteringFunctions/arm_conv_partial_fast_q31.c ****  * www.apache.org/licenses/LICENSE-2.0
  21:../Dave/Generated/CMSIS_DSP/FilteringFunctions/arm_conv_partial_fast_q31.c ****  *
  22:../Dave/Generated/CMSIS_DSP/FilteringFunctions/arm_conv_partial_fast_q31.c ****  * Unless required by applicable law or agreed to in writing, software
  23:../Dave/Generated/CMSIS_DSP/FilteringFunctions/arm_conv_partial_fast_q31.c ****  * distributed under the License is distributed on an AS IS BASIS, WITHOUT
  24:../Dave/Generated/CMSIS_DSP/FilteringFunctions/arm_conv_partial_fast_q31.c ****  * WARRANTIES OR CONDITIONS OF ANY KIND, either express or implied.
  25:../Dave/Generated/CMSIS_DSP/FilteringFunctions/arm_conv_partial_fast_q31.c ****  * See the License for the specific language governing permissions and
  26:../Dave/Generated/CMSIS_DSP/FilteringFunctions/arm_conv_partial_fast_q31.c ****  * limitations under the License.
  27:../Dave/Generated/CMSIS_DSP/FilteringFunctions/arm_conv_partial_fast_q31.c ****  */
  28:../Dave/Generated/CMSIS_DSP/FilteringFunctions/arm_conv_partial_fast_q31.c **** 
  29:../Dave/Generated/CMSIS_DSP/FilteringFunctions/arm_conv_partial_fast_q31.c **** #include "CMSIS_DSP/cmsis_dsp.h"
  30:../Dave/Generated/CMSIS_DSP/FilteringFunctions/arm_conv_partial_fast_q31.c **** 
  31:../Dave/Generated/CMSIS_DSP/FilteringFunctions/arm_conv_partial_fast_q31.c **** /**
  32:../Dave/Generated/CMSIS_DSP/FilteringFunctions/arm_conv_partial_fast_q31.c ****  * @ingroup groupFilters
  33:../Dave/Generated/CMSIS_DSP/FilteringFunctions/arm_conv_partial_fast_q31.c ****  */
  34:../Dave/Generated/CMSIS_DSP/FilteringFunctions/arm_conv_partial_fast_q31.c **** 
  35:../Dave/Generated/CMSIS_DSP/FilteringFunctions/arm_conv_partial_fast_q31.c **** /**
  36:../Dave/Generated/CMSIS_DSP/FilteringFunctions/arm_conv_partial_fast_q31.c ****  * @addtogroup PartialConv
  37:../Dave/Generated/CMSIS_DSP/FilteringFunctions/arm_conv_partial_fast_q31.c ****  * @{
  38:../Dave/Generated/CMSIS_DSP/FilteringFunctions/arm_conv_partial_fast_q31.c ****  */
  39:../Dave/Generated/CMSIS_DSP/FilteringFunctions/arm_conv_partial_fast_q31.c **** 
  40:../Dave/Generated/CMSIS_DSP/FilteringFunctions/arm_conv_partial_fast_q31.c **** /**
  41:../Dave/Generated/CMSIS_DSP/FilteringFunctions/arm_conv_partial_fast_q31.c ****  * @brief Partial convolution of Q31 sequences (fast version) for Cortex-M3 and Cortex-M4.
  42:../Dave/Generated/CMSIS_DSP/FilteringFunctions/arm_conv_partial_fast_q31.c ****  * @param[in]       *pSrcA points to the first input sequence.
  43:../Dave/Generated/CMSIS_DSP/FilteringFunctions/arm_conv_partial_fast_q31.c ****  * @param[in]       srcALen length of the first input sequence.
  44:../Dave/Generated/CMSIS_DSP/FilteringFunctions/arm_conv_partial_fast_q31.c ****  * @param[in]       *pSrcB points to the second input sequence.
  45:../Dave/Generated/CMSIS_DSP/FilteringFunctions/arm_conv_partial_fast_q31.c ****  * @param[in]       srcBLen length of the second input sequence.
  46:../Dave/Generated/CMSIS_DSP/FilteringFunctions/arm_conv_partial_fast_q31.c ****  * @param[out]      *pDst points to the location where the output result is written.
  47:../Dave/Generated/CMSIS_DSP/FilteringFunctions/arm_conv_partial_fast_q31.c ****  * @param[in]       firstIndex is the first output sample to start with.
  48:../Dave/Generated/CMSIS_DSP/FilteringFunctions/arm_conv_partial_fast_q31.c ****  * @param[in]       numPoints is the number of output points to be computed.
  49:../Dave/Generated/CMSIS_DSP/FilteringFunctions/arm_conv_partial_fast_q31.c ****  * @return Returns either ARM_MATH_SUCCESS if the function completed correctly or ARM_MATH_ARGUMENT
  50:../Dave/Generated/CMSIS_DSP/FilteringFunctions/arm_conv_partial_fast_q31.c ****  *
  51:../Dave/Generated/CMSIS_DSP/FilteringFunctions/arm_conv_partial_fast_q31.c ****  * \par
  52:../Dave/Generated/CMSIS_DSP/FilteringFunctions/arm_conv_partial_fast_q31.c ****  * See <code>arm_conv_partial_q31()</code> for a slower implementation of this function which uses 
  53:../Dave/Generated/CMSIS_DSP/FilteringFunctions/arm_conv_partial_fast_q31.c ****  */
  54:../Dave/Generated/CMSIS_DSP/FilteringFunctions/arm_conv_partial_fast_q31.c **** 
  55:../Dave/Generated/CMSIS_DSP/FilteringFunctions/arm_conv_partial_fast_q31.c **** arm_status arm_conv_partial_fast_q31(
  56:../Dave/Generated/CMSIS_DSP/FilteringFunctions/arm_conv_partial_fast_q31.c ****   q31_t * pSrcA,
  57:../Dave/Generated/CMSIS_DSP/FilteringFunctions/arm_conv_partial_fast_q31.c ****   uint32_t srcALen,
  58:../Dave/Generated/CMSIS_DSP/FilteringFunctions/arm_conv_partial_fast_q31.c ****   q31_t * pSrcB,
  59:../Dave/Generated/CMSIS_DSP/FilteringFunctions/arm_conv_partial_fast_q31.c ****   uint32_t srcBLen,
  60:../Dave/Generated/CMSIS_DSP/FilteringFunctions/arm_conv_partial_fast_q31.c ****   q31_t * pDst,
  61:../Dave/Generated/CMSIS_DSP/FilteringFunctions/arm_conv_partial_fast_q31.c ****   uint32_t firstIndex,
  62:../Dave/Generated/CMSIS_DSP/FilteringFunctions/arm_conv_partial_fast_q31.c ****   uint32_t numPoints)
  63:../Dave/Generated/CMSIS_DSP/FilteringFunctions/arm_conv_partial_fast_q31.c **** {
  28              	 .loc 1 63 0
  29              	 .cfi_startproc
  30              	 
  31              	 
  32              	.LVL0:
  33 0000 2DE9F04F 	 push {r4,r5,r6,r7,r8,r9,r10,fp,lr}
  34              	.LCFI0:
  35              	 .cfi_def_cfa_offset 36
  36              	 .cfi_offset 4,-36
  37              	 .cfi_offset 5,-32
  38              	 .cfi_offset 6,-28
  39              	 .cfi_offset 7,-24
  40              	 .cfi_offset 8,-20
  41              	 .cfi_offset 9,-16
  42              	 .cfi_offset 10,-12
  43              	 .cfi_offset 11,-8
  44              	 .cfi_offset 14,-4
  45 0004 9E46     	 mov lr,r3
  46 0006 DBB0     	 sub sp,sp,#364
  47              	.LCFI1:
  48              	 .cfi_def_cfa_offset 400
  49              	.LVL1:
  64:../Dave/Generated/CMSIS_DSP/FilteringFunctions/arm_conv_partial_fast_q31.c ****   q31_t *pIn1;                                   /* inputA pointer               */
  65:../Dave/Generated/CMSIS_DSP/FilteringFunctions/arm_conv_partial_fast_q31.c ****   q31_t *pIn2;                                   /* inputB pointer               */
  66:../Dave/Generated/CMSIS_DSP/FilteringFunctions/arm_conv_partial_fast_q31.c ****   q31_t *pOut = pDst;                            /* output pointer               */
  67:../Dave/Generated/CMSIS_DSP/FilteringFunctions/arm_conv_partial_fast_q31.c ****   q31_t *px;                                     /* Intermediate inputA pointer  */
  68:../Dave/Generated/CMSIS_DSP/FilteringFunctions/arm_conv_partial_fast_q31.c ****   q31_t *py;                                     /* Intermediate inputB pointer  */
  69:../Dave/Generated/CMSIS_DSP/FilteringFunctions/arm_conv_partial_fast_q31.c ****   q31_t *pSrc1, *pSrc2;                          /* Intermediate pointers        */
  70:../Dave/Generated/CMSIS_DSP/FilteringFunctions/arm_conv_partial_fast_q31.c ****   q31_t sum, acc0, acc1, acc2, acc3;             /* Accumulators                  */
  71:../Dave/Generated/CMSIS_DSP/FilteringFunctions/arm_conv_partial_fast_q31.c ****   q31_t x0, x1, x2, x3, c0;
  72:../Dave/Generated/CMSIS_DSP/FilteringFunctions/arm_conv_partial_fast_q31.c ****   uint32_t j, k, count, check, blkCnt;
  73:../Dave/Generated/CMSIS_DSP/FilteringFunctions/arm_conv_partial_fast_q31.c ****   int32_t blockSize1, blockSize2, blockSize3;    /* loop counters                 */
  74:../Dave/Generated/CMSIS_DSP/FilteringFunctions/arm_conv_partial_fast_q31.c ****   arm_status status;                             /* status of Partial convolution */
  75:../Dave/Generated/CMSIS_DSP/FilteringFunctions/arm_conv_partial_fast_q31.c **** 
  76:../Dave/Generated/CMSIS_DSP/FilteringFunctions/arm_conv_partial_fast_q31.c **** 
  77:../Dave/Generated/CMSIS_DSP/FilteringFunctions/arm_conv_partial_fast_q31.c ****   /* Check for range of output samples to be calculated */
  78:../Dave/Generated/CMSIS_DSP/FilteringFunctions/arm_conv_partial_fast_q31.c ****   if ((firstIndex + numPoints) > ((srcALen + (srcBLen - 1u))))
  50              	 .loc 1 78 0
  51 0008 7646     	 mov r6,lr
  52 000a 4B1E     	 subs r3,r1,#1
  53              	.LVL2:
  63:../Dave/Generated/CMSIS_DSP/FilteringFunctions/arm_conv_partial_fast_q31.c ****   q31_t *pIn1;                                   /* inputA pointer               */
  54              	 .loc 1 63 0
  55 000c 8C46     	 mov ip,r1
  56 000e 669F     	 ldr r7,[sp,#408]
  57 0010 4891     	 str r1,[sp,#288]
  58              	 .loc 1 78 0
  59 0012 9919     	 adds r1,r3,r6
  60              	.LVL3:
  61 0014 659E     	 ldr r6,[sp,#404]
  62              	.LVL4:
  63 0016 CDF804E1 	 str lr,[sp,#260]
  64 001a 3E44     	 add r6,r6,r7
  65 001c 8E42     	 cmp r6,r1
  63:../Dave/Generated/CMSIS_DSP/FilteringFunctions/arm_conv_partial_fast_q31.c ****   q31_t *pIn1;                                   /* inputA pointer               */
  66              	 .loc 1 63 0
  67 001e 3290     	 str r0,[sp,#200]
  68 0020 4092     	 str r2,[sp,#256]
  69              	 .loc 1 78 0
  70 0022 00F25083 	 bhi .L42
  79:../Dave/Generated/CMSIS_DSP/FilteringFunctions/arm_conv_partial_fast_q31.c ****   {
  80:../Dave/Generated/CMSIS_DSP/FilteringFunctions/arm_conv_partial_fast_q31.c ****     /* Set status as ARM_MATH_ARGUMENT_ERROR */
  81:../Dave/Generated/CMSIS_DSP/FilteringFunctions/arm_conv_partial_fast_q31.c ****     status = ARM_MATH_ARGUMENT_ERROR;
  82:../Dave/Generated/CMSIS_DSP/FilteringFunctions/arm_conv_partial_fast_q31.c ****   }
  83:../Dave/Generated/CMSIS_DSP/FilteringFunctions/arm_conv_partial_fast_q31.c ****   else
  84:../Dave/Generated/CMSIS_DSP/FilteringFunctions/arm_conv_partial_fast_q31.c ****   {
  85:../Dave/Generated/CMSIS_DSP/FilteringFunctions/arm_conv_partial_fast_q31.c **** 
  86:../Dave/Generated/CMSIS_DSP/FilteringFunctions/arm_conv_partial_fast_q31.c ****     /* The algorithm implementation is based on the lengths of the inputs. */
  87:../Dave/Generated/CMSIS_DSP/FilteringFunctions/arm_conv_partial_fast_q31.c ****     /* srcB is always made to slide across srcA. */
  88:../Dave/Generated/CMSIS_DSP/FilteringFunctions/arm_conv_partial_fast_q31.c ****     /* So srcBLen is always considered as shorter or equal to srcALen */
  89:../Dave/Generated/CMSIS_DSP/FilteringFunctions/arm_conv_partial_fast_q31.c ****     if (srcALen >= srcBLen)
  71              	 .loc 1 89 0
  72 0026 E645     	 cmp lr,ip
  73 0028 40F2E782 	 bls .L81
  90:../Dave/Generated/CMSIS_DSP/FilteringFunctions/arm_conv_partial_fast_q31.c ****     {
  91:../Dave/Generated/CMSIS_DSP/FilteringFunctions/arm_conv_partial_fast_q31.c ****       /* Initialization of inputA pointer */
  92:../Dave/Generated/CMSIS_DSP/FilteringFunctions/arm_conv_partial_fast_q31.c ****       pIn1 = pSrcA;
  93:../Dave/Generated/CMSIS_DSP/FilteringFunctions/arm_conv_partial_fast_q31.c **** 
  94:../Dave/Generated/CMSIS_DSP/FilteringFunctions/arm_conv_partial_fast_q31.c ****       /* Initialization of inputB pointer */
  95:../Dave/Generated/CMSIS_DSP/FilteringFunctions/arm_conv_partial_fast_q31.c ****       pIn2 = pSrcB;
  96:../Dave/Generated/CMSIS_DSP/FilteringFunctions/arm_conv_partial_fast_q31.c ****     }
  97:../Dave/Generated/CMSIS_DSP/FilteringFunctions/arm_conv_partial_fast_q31.c ****     else
  98:../Dave/Generated/CMSIS_DSP/FilteringFunctions/arm_conv_partial_fast_q31.c ****     {
  99:../Dave/Generated/CMSIS_DSP/FilteringFunctions/arm_conv_partial_fast_q31.c ****       /* Initialization of inputA pointer */
 100:../Dave/Generated/CMSIS_DSP/FilteringFunctions/arm_conv_partial_fast_q31.c ****       pIn1 = pSrcB;
  74              	 .loc 1 100 0
  75 002c 4098     	 ldr r0,[sp,#256]
  76              	.LVL5:
  77 002e 3299     	 ldr r1,[sp,#200]
  78 0030 3290     	 str r0,[sp,#200]
  79              	.LVL6:
  80 0032 4198     	 ldr r0,[sp,#260]
  81 0034 489A     	 ldr r2,[sp,#288]
  82              	.LVL7:
  83 0036 3093     	 str r3,[sp,#192]
  84 0038 4890     	 str r0,[sp,#288]
 101:../Dave/Generated/CMSIS_DSP/FilteringFunctions/arm_conv_partial_fast_q31.c **** 
 102:../Dave/Generated/CMSIS_DSP/FilteringFunctions/arm_conv_partial_fast_q31.c ****       /* Initialization of inputB pointer */
 103:../Dave/Generated/CMSIS_DSP/FilteringFunctions/arm_conv_partial_fast_q31.c ****       pIn2 = pSrcA;
  85              	 .loc 1 103 0
  86 003a 4091     	 str r1,[sp,#256]
  87 003c 4192     	 str r2,[sp,#260]
  88 003e 0346     	 mov r3,r0
  89              	.LVL8:
  90              	.L3:
 104:../Dave/Generated/CMSIS_DSP/FilteringFunctions/arm_conv_partial_fast_q31.c **** 
 105:../Dave/Generated/CMSIS_DSP/FilteringFunctions/arm_conv_partial_fast_q31.c ****       /* srcBLen is always considered as shorter or equal to srcALen */
 106:../Dave/Generated/CMSIS_DSP/FilteringFunctions/arm_conv_partial_fast_q31.c ****       j = srcBLen;
 107:../Dave/Generated/CMSIS_DSP/FilteringFunctions/arm_conv_partial_fast_q31.c ****       srcBLen = srcALen;
 108:../Dave/Generated/CMSIS_DSP/FilteringFunctions/arm_conv_partial_fast_q31.c ****       srcALen = j;
 109:../Dave/Generated/CMSIS_DSP/FilteringFunctions/arm_conv_partial_fast_q31.c ****     }
 110:../Dave/Generated/CMSIS_DSP/FilteringFunctions/arm_conv_partial_fast_q31.c **** 
 111:../Dave/Generated/CMSIS_DSP/FilteringFunctions/arm_conv_partial_fast_q31.c ****     /* Conditions to check which loopCounter holds
 112:../Dave/Generated/CMSIS_DSP/FilteringFunctions/arm_conv_partial_fast_q31.c ****      * the first and last indices of the output samples to be calculated. */
 113:../Dave/Generated/CMSIS_DSP/FilteringFunctions/arm_conv_partial_fast_q31.c ****     check = firstIndex + numPoints;
 114:../Dave/Generated/CMSIS_DSP/FilteringFunctions/arm_conv_partial_fast_q31.c ****     blockSize3 = ((int32_t)check > (int32_t)srcALen) ? (int32_t)check - (int32_t)srcALen : 0;
  91              	 .loc 1 114 0
  92 0040 9E42     	 cmp r6,r3
  93 0042 CCBF     	 ite gt
  94 0044 F31A     	 subgt r3,r6,r3
  95 0046 0023     	 movle r3,#0
  96 0048 4A93     	 str r3,[sp,#296]
  97              	.LVL9:
 115:../Dave/Generated/CMSIS_DSP/FilteringFunctions/arm_conv_partial_fast_q31.c ****     blockSize3 = ((int32_t)firstIndex > (int32_t)srcALen - 1) ? blockSize3 - (int32_t)firstIndex + 
  98              	 .loc 1 115 0
  99 004a 659A     	 ldr r2,[sp,#404]
 100 004c 489B     	 ldr r3,[sp,#288]
 101 004e 9342     	 cmp r3,r2
 102 0050 04DC     	 bgt .L5
 103              	 .loc 1 115 0 is_stmt 0 discriminator 1
 104 0052 4A9B     	 ldr r3,[sp,#296]
 105 0054 9B1A     	 subs r3,r3,r2
 106              	.LVL10:
 107 0056 489A     	 ldr r2,[sp,#288]
 108 0058 D318     	 adds r3,r2,r3
 109              	.LVL11:
 110 005a 4A93     	 str r3,[sp,#296]
 111              	.LVL12:
 112              	.L5:
 113 005c 659B     	 ldr r3,[sp,#404]
 116:../Dave/Generated/CMSIS_DSP/FilteringFunctions/arm_conv_partial_fast_q31.c ****     blockSize1 = (((int32_t) srcBLen - 1) - (int32_t) firstIndex);
 114              	 .loc 1 116 0 is_stmt 1 discriminator 4
 115 005e 419A     	 ldr r2,[sp,#260]
 116 0060 DB43     	 mvns r3,r3
 117 0062 1344     	 add r3,r3,r2
 117:../Dave/Generated/CMSIS_DSP/FilteringFunctions/arm_conv_partial_fast_q31.c ****     blockSize1 = (blockSize1 > 0) ? ((check > (srcBLen - 1u)) ? blockSize1 :
 118:../Dave/Generated/CMSIS_DSP/FilteringFunctions/arm_conv_partial_fast_q31.c ****                                      (int32_t) numPoints) : 0;
 118              	 .loc 1 118 0 discriminator 4
 119 0064 002B     	 cmp r3,#0
 116:../Dave/Generated/CMSIS_DSP/FilteringFunctions/arm_conv_partial_fast_q31.c ****     blockSize1 = (((int32_t) srcBLen - 1) - (int32_t) firstIndex);
 120              	 .loc 1 116 0 discriminator 4
 121 0066 2C93     	 str r3,[sp,#176]
 122              	.LVL13:
 123              	 .loc 1 118 0 discriminator 4
 124 0068 40F31783 	 ble .L6
 117:../Dave/Generated/CMSIS_DSP/FilteringFunctions/arm_conv_partial_fast_q31.c ****     blockSize1 = (blockSize1 > 0) ? ((check > (srcBLen - 1u)) ? blockSize1 :
 125              	 .loc 1 117 0
 126 006c 309B     	 ldr r3,[sp,#192]
 127              	.LVL14:
 128 006e 9E42     	 cmp r6,r3
 129 0070 00F20083 	 bhi .L7
 119:../Dave/Generated/CMSIS_DSP/FilteringFunctions/arm_conv_partial_fast_q31.c ****     blockSize2 = (int32_t) check - ((blockSize3 + blockSize1) +
 130              	 .loc 1 119 0 discriminator 1
 131 0074 4A99     	 ldr r1,[sp,#296]
 117:../Dave/Generated/CMSIS_DSP/FilteringFunctions/arm_conv_partial_fast_q31.c ****     blockSize1 = (blockSize1 > 0) ? ((check > (srcBLen - 1u)) ? blockSize1 :
 132              	 .loc 1 117 0 discriminator 1
 133 0076 2C97     	 str r7,[sp,#176]
 134              	.LVL15:
 135              	 .loc 1 119 0 discriminator 1
 136 0078 CB19     	 adds r3,r1,r7
 137 007a 6599     	 ldr r1,[sp,#404]
 138 007c 0B44     	 add r3,r3,r1
 139 007e F61A     	 subs r6,r6,r3
 140              	.LVL16:
 120:../Dave/Generated/CMSIS_DSP/FilteringFunctions/arm_conv_partial_fast_q31.c ****                                     (int32_t) firstIndex);
 121:../Dave/Generated/CMSIS_DSP/FilteringFunctions/arm_conv_partial_fast_q31.c ****     blockSize2 = (blockSize2 > 0) ? blockSize2 : 0;
 141              	 .loc 1 121 0 discriminator 1
 142 0080 26EAE673 	 bic r3,r6,r6,asr#31
 143 0084 4B93     	 str r3,[sp,#300]
 144              	.LVL17:
 122:../Dave/Generated/CMSIS_DSP/FilteringFunctions/arm_conv_partial_fast_q31.c **** 
 123:../Dave/Generated/CMSIS_DSP/FilteringFunctions/arm_conv_partial_fast_q31.c ****     /* conv(x,y) at n = x[n] * y[0] + x[n-1] * y[1] + x[n-2] * y[2] + ...+ x[n-N+1] * y[N -1] */
 124:../Dave/Generated/CMSIS_DSP/FilteringFunctions/arm_conv_partial_fast_q31.c ****     /* The function is internally
 125:../Dave/Generated/CMSIS_DSP/FilteringFunctions/arm_conv_partial_fast_q31.c ****      * divided into three stages according to the number of multiplications that has to be
 126:../Dave/Generated/CMSIS_DSP/FilteringFunctions/arm_conv_partial_fast_q31.c ****      * taken place between inputA samples and inputB samples. In the first stage of the
 127:../Dave/Generated/CMSIS_DSP/FilteringFunctions/arm_conv_partial_fast_q31.c ****      * algorithm, the multiplications increase by one for every iteration.
 128:../Dave/Generated/CMSIS_DSP/FilteringFunctions/arm_conv_partial_fast_q31.c ****      * In the second stage of the algorithm, srcBLen number of multiplications are done.
 129:../Dave/Generated/CMSIS_DSP/FilteringFunctions/arm_conv_partial_fast_q31.c ****      * In the third stage of the algorithm, the multiplications decrease by one
 130:../Dave/Generated/CMSIS_DSP/FilteringFunctions/arm_conv_partial_fast_q31.c ****      * for every iteration. */
 131:../Dave/Generated/CMSIS_DSP/FilteringFunctions/arm_conv_partial_fast_q31.c **** 
 132:../Dave/Generated/CMSIS_DSP/FilteringFunctions/arm_conv_partial_fast_q31.c ****     /* Set the output pointer to point to the firstIndex
 133:../Dave/Generated/CMSIS_DSP/FilteringFunctions/arm_conv_partial_fast_q31.c ****      * of the output sample to be calculated. */
 134:../Dave/Generated/CMSIS_DSP/FilteringFunctions/arm_conv_partial_fast_q31.c ****     pOut = pDst + firstIndex;
 145              	 .loc 1 134 0 discriminator 1
 146 0086 649B     	 ldr r3,[sp,#400]
 147              	.LVL18:
 148 0088 4FEA810C 	 lsl ip,r1,#2
 149 008c 6344     	 add r3,r3,ip
 150 008e 3193     	 str r3,[sp,#196]
 151              	.LVL19:
 135:../Dave/Generated/CMSIS_DSP/FilteringFunctions/arm_conv_partial_fast_q31.c **** 
 136:../Dave/Generated/CMSIS_DSP/FilteringFunctions/arm_conv_partial_fast_q31.c ****     /* --------------------------
 137:../Dave/Generated/CMSIS_DSP/FilteringFunctions/arm_conv_partial_fast_q31.c ****      * Initializations of stage1
 138:../Dave/Generated/CMSIS_DSP/FilteringFunctions/arm_conv_partial_fast_q31.c ****      * -------------------------*/
 139:../Dave/Generated/CMSIS_DSP/FilteringFunctions/arm_conv_partial_fast_q31.c **** 
 140:../Dave/Generated/CMSIS_DSP/FilteringFunctions/arm_conv_partial_fast_q31.c ****     /* sum = x[0] * y[0]
 141:../Dave/Generated/CMSIS_DSP/FilteringFunctions/arm_conv_partial_fast_q31.c ****      * sum = x[0] * y[1] + x[1] * y[0]
 142:../Dave/Generated/CMSIS_DSP/FilteringFunctions/arm_conv_partial_fast_q31.c ****      * ....
 143:../Dave/Generated/CMSIS_DSP/FilteringFunctions/arm_conv_partial_fast_q31.c ****      * sum = x[0] * y[srcBlen - 1] + x[1] * y[srcBlen - 2] +...+ x[srcBLen - 1] * y[0]
 144:../Dave/Generated/CMSIS_DSP/FilteringFunctions/arm_conv_partial_fast_q31.c ****      */
 145:../Dave/Generated/CMSIS_DSP/FilteringFunctions/arm_conv_partial_fast_q31.c **** 
 146:../Dave/Generated/CMSIS_DSP/FilteringFunctions/arm_conv_partial_fast_q31.c ****     /* In this stage the MAC operations are increased by 1 for every iteration.
 147:../Dave/Generated/CMSIS_DSP/FilteringFunctions/arm_conv_partial_fast_q31.c ****        The count variable holds the number of MAC operations performed.
 148:../Dave/Generated/CMSIS_DSP/FilteringFunctions/arm_conv_partial_fast_q31.c ****        Since the partial convolution starts from firstIndex
 149:../Dave/Generated/CMSIS_DSP/FilteringFunctions/arm_conv_partial_fast_q31.c ****        Number of Macs to be performed is firstIndex + 1 */
 150:../Dave/Generated/CMSIS_DSP/FilteringFunctions/arm_conv_partial_fast_q31.c ****     count = 1u + firstIndex;
 151:../Dave/Generated/CMSIS_DSP/FilteringFunctions/arm_conv_partial_fast_q31.c **** 
 152:../Dave/Generated/CMSIS_DSP/FilteringFunctions/arm_conv_partial_fast_q31.c ****     /* Working pointer of inputA */
 153:../Dave/Generated/CMSIS_DSP/FilteringFunctions/arm_conv_partial_fast_q31.c ****     px = pIn1;
 154:../Dave/Generated/CMSIS_DSP/FilteringFunctions/arm_conv_partial_fast_q31.c **** 
 155:../Dave/Generated/CMSIS_DSP/FilteringFunctions/arm_conv_partial_fast_q31.c ****     /* Working pointer of inputB */
 156:../Dave/Generated/CMSIS_DSP/FilteringFunctions/arm_conv_partial_fast_q31.c ****     pSrc2 = pIn2 + firstIndex;
 152              	 .loc 1 156 0 discriminator 1
 153 0090 409B     	 ldr r3,[sp,#256]
 154              	.LVL20:
 157:../Dave/Generated/CMSIS_DSP/FilteringFunctions/arm_conv_partial_fast_q31.c ****     py = pSrc2;
 158:../Dave/Generated/CMSIS_DSP/FilteringFunctions/arm_conv_partial_fast_q31.c **** 
 159:../Dave/Generated/CMSIS_DSP/FilteringFunctions/arm_conv_partial_fast_q31.c ****     /* ------------------------
 160:../Dave/Generated/CMSIS_DSP/FilteringFunctions/arm_conv_partial_fast_q31.c ****      * Stage1 process
 161:../Dave/Generated/CMSIS_DSP/FilteringFunctions/arm_conv_partial_fast_q31.c ****      * ----------------------*/
 162:../Dave/Generated/CMSIS_DSP/FilteringFunctions/arm_conv_partial_fast_q31.c **** 
 163:../Dave/Generated/CMSIS_DSP/FilteringFunctions/arm_conv_partial_fast_q31.c ****     /* The first loop starts here */
 164:../Dave/Generated/CMSIS_DSP/FilteringFunctions/arm_conv_partial_fast_q31.c ****     while (blockSize1 > 0)
 155              	 .loc 1 164 0 discriminator 1
 156 0092 002F     	 cmp r7,#0
 156:../Dave/Generated/CMSIS_DSP/FilteringFunctions/arm_conv_partial_fast_q31.c ****     py = pSrc2;
 157              	 .loc 1 156 0 discriminator 1
 158 0094 9C44     	 add ip,ip,r3
 150:../Dave/Generated/CMSIS_DSP/FilteringFunctions/arm_conv_partial_fast_q31.c **** 
 159              	 .loc 1 150 0 discriminator 1
 160 0096 01F1010E 	 add lr,r1,#1
 161              	.LVL21:
 162              	 .loc 1 164 0 discriminator 1
 163 009a 62DD     	 ble .L8
 164              	.LVL22:
 165              	.L13:
 165:../Dave/Generated/CMSIS_DSP/FilteringFunctions/arm_conv_partial_fast_q31.c ****     {
 166:../Dave/Generated/CMSIS_DSP/FilteringFunctions/arm_conv_partial_fast_q31.c ****       /* Accumulator is made zero for every iteration */
 167:../Dave/Generated/CMSIS_DSP/FilteringFunctions/arm_conv_partial_fast_q31.c ****       sum = 0;
 168:../Dave/Generated/CMSIS_DSP/FilteringFunctions/arm_conv_partial_fast_q31.c **** 
 169:../Dave/Generated/CMSIS_DSP/FilteringFunctions/arm_conv_partial_fast_q31.c ****       /* Apply loop unrolling and compute 4 MACs simultaneously. */
 170:../Dave/Generated/CMSIS_DSP/FilteringFunctions/arm_conv_partial_fast_q31.c ****       k = count >> 2u;
 171:../Dave/Generated/CMSIS_DSP/FilteringFunctions/arm_conv_partial_fast_q31.c **** 
 172:../Dave/Generated/CMSIS_DSP/FilteringFunctions/arm_conv_partial_fast_q31.c ****       /* First part of the processing with loop unrolling.  Compute 4 MACs at a time.
 173:../Dave/Generated/CMSIS_DSP/FilteringFunctions/arm_conv_partial_fast_q31.c ****        ** a second loop below computes MACs for the remaining 1 to 3 samples. */
 174:../Dave/Generated/CMSIS_DSP/FilteringFunctions/arm_conv_partial_fast_q31.c ****       while (k > 0u)
 166              	 .loc 1 174 0
 167 009c 5FEA9E07 	 lsrs r7,lr,#2
 168              	.LVL23:
 169 00a0 00F0B682 	 beq .L45
 170 00a4 329B     	 ldr r3,[sp,#200]
 171 00a6 3397     	 str r7,[sp,#204]
 172 00a8 CDE93689 	 strd r8,[sp,#216]
 173 00ac 03F11002 	 add r2,r3,#16
 174 00b0 0021     	 movs r1,#0
 175 00b2 ACF11003 	 sub r3,ip,#16
 176 00b6 0497     	 str r7,[sp,#16]
 177              	.LVL24:
 178              	.L10:
 175:../Dave/Generated/CMSIS_DSP/FilteringFunctions/arm_conv_partial_fast_q31.c ****       {
 176:../Dave/Generated/CMSIS_DSP/FilteringFunctions/arm_conv_partial_fast_q31.c ****         /* x[0] * y[srcBLen - 1] */
 177:../Dave/Generated/CMSIS_DSP/FilteringFunctions/arm_conv_partial_fast_q31.c ****         sum = (q31_t) ((((q63_t) sum << 32) +
 179              	 .loc 1 177 0
 180 00b8 0024     	 movs r4,#0
 178:../Dave/Generated/CMSIS_DSP/FilteringFunctions/arm_conv_partial_fast_q31.c ****                         ((q63_t) * px++ * (*py--))) >> 32);
 181              	 .loc 1 178 0
 182 00ba 52F8100C 	 ldr r0,[r2,#-16]
 183              	.LVL25:
 179:../Dave/Generated/CMSIS_DSP/FilteringFunctions/arm_conv_partial_fast_q31.c **** 
 180:../Dave/Generated/CMSIS_DSP/FilteringFunctions/arm_conv_partial_fast_q31.c ****         /* x[1] * y[srcBLen - 2] */
 181:../Dave/Generated/CMSIS_DSP/FilteringFunctions/arm_conv_partial_fast_q31.c ****         sum = (q31_t) ((((q63_t) sum << 32) +
 184              	 .loc 1 181 0
 185 00be 0094     	 str r4,[sp]
 177:../Dave/Generated/CMSIS_DSP/FilteringFunctions/arm_conv_partial_fast_q31.c ****                         ((q63_t) * px++ * (*py--))) >> 32);
 186              	 .loc 1 177 0
 187 00c0 0D46     	 mov r5,r1
 178:../Dave/Generated/CMSIS_DSP/FilteringFunctions/arm_conv_partial_fast_q31.c ****                         ((q63_t) * px++ * (*py--))) >> 32);
 188              	 .loc 1 178 0
 189 00c2 1969     	 ldr r1,[r3,#16]
 190              	.LVL26:
 177:../Dave/Generated/CMSIS_DSP/FilteringFunctions/arm_conv_partial_fast_q31.c ****                         ((q63_t) * px++ * (*py--))) >> 32);
 191              	 .loc 1 177 0
 192 00c4 2646     	 mov r6,r4
 193 00c6 2F46     	 mov r7,r5
 194 00c8 C1FB0067 	 smlal r6,r7,r1,r0
 195              	.LVL27:
 196              	 .loc 1 181 0
 197 00cc 0197     	 str r7,[sp,#4]
 198 00ce DDE90067 	 ldrd r6,[sp]
 182:../Dave/Generated/CMSIS_DSP/FilteringFunctions/arm_conv_partial_fast_q31.c ****                         ((q63_t) * px++ * (*py--))) >> 32);
 199              	 .loc 1 182 0
 200 00d2 D968     	 ldr r1,[r3,#12]
 181:../Dave/Generated/CMSIS_DSP/FilteringFunctions/arm_conv_partial_fast_q31.c ****                         ((q63_t) * px++ * (*py--))) >> 32);
 201              	 .loc 1 181 0
 202 00d4 52F80C0C 	 ldr r0,[r2,#-12]
 203 00d8 C1FB0067 	 smlal r6,r7,r1,r0
 204              	.LVL28:
 183:../Dave/Generated/CMSIS_DSP/FilteringFunctions/arm_conv_partial_fast_q31.c **** 
 184:../Dave/Generated/CMSIS_DSP/FilteringFunctions/arm_conv_partial_fast_q31.c ****         /* x[2] * y[srcBLen - 3] */
 185:../Dave/Generated/CMSIS_DSP/FilteringFunctions/arm_conv_partial_fast_q31.c ****         sum = (q31_t) ((((q63_t) sum << 32) +
 186:../Dave/Generated/CMSIS_DSP/FilteringFunctions/arm_conv_partial_fast_q31.c ****                         ((q63_t) * px++ * (*py--))) >> 32);
 205              	 .loc 1 186 0
 206 00dc 9968     	 ldr r1,[r3,#8]
 185:../Dave/Generated/CMSIS_DSP/FilteringFunctions/arm_conv_partial_fast_q31.c ****                         ((q63_t) * px++ * (*py--))) >> 32);
 207              	 .loc 1 185 0
 208 00de 52F8080C 	 ldr r0,[r2,#-8]
 209 00e2 2646     	 mov r6,r4
 210 00e4 B946     	 mov r9,r7
 211 00e6 A046     	 mov r8,r4
 212 00e8 C1FB0067 	 smlal r6,r7,r1,r0
 213              	.LVL29:
 187:../Dave/Generated/CMSIS_DSP/FilteringFunctions/arm_conv_partial_fast_q31.c **** 
 188:../Dave/Generated/CMSIS_DSP/FilteringFunctions/arm_conv_partial_fast_q31.c ****         /* x[3] * y[srcBLen - 4] */
 189:../Dave/Generated/CMSIS_DSP/FilteringFunctions/arm_conv_partial_fast_q31.c ****         sum = (q31_t) ((((q63_t) sum << 32) +
 190:../Dave/Generated/CMSIS_DSP/FilteringFunctions/arm_conv_partial_fast_q31.c ****                         ((q63_t) * px++ * (*py--))) >> 32);
 214              	 .loc 1 190 0
 215 00ec 5968     	 ldr r1,[r3,#4]
 189:../Dave/Generated/CMSIS_DSP/FilteringFunctions/arm_conv_partial_fast_q31.c ****                         ((q63_t) * px++ * (*py--))) >> 32);
 216              	 .loc 1 189 0
 217 00ee 52F8040C 	 ldr r0,[r2,#-4]
 218 00f2 4646     	 mov r6,r8
 219 00f4 C1FB0067 	 smlal r6,r7,r1,r0
 174:../Dave/Generated/CMSIS_DSP/FilteringFunctions/arm_conv_partial_fast_q31.c ****       {
 220              	 .loc 1 174 0
 221 00f8 0498     	 ldr r0,[sp,#16]
 222 00fa 0138     	 subs r0,r0,#1
 189:../Dave/Generated/CMSIS_DSP/FilteringFunctions/arm_conv_partial_fast_q31.c ****                         ((q63_t) * px++ * (*py--))) >> 32);
 223              	 .loc 1 189 0
 224 00fc 3946     	 mov r1,r7
 225 00fe 02F11002 	 add r2,r2,#16
 226              	.LVL30:
 227 0102 A3F11003 	 sub r3,r3,#16
 228              	.LVL31:
 174:../Dave/Generated/CMSIS_DSP/FilteringFunctions/arm_conv_partial_fast_q31.c ****       {
 229              	 .loc 1 174 0
 230 0106 0490     	 str r0,[sp,#16]
 231 0108 D6D1     	 bne .L10
 232 010a 339F     	 ldr r7,[sp,#204]
 233 010c 329B     	 ldr r3,[sp,#200]
 234              	.LVL32:
 235 010e CDE92E89 	 strd r8,[sp,#184]
 236 0112 DDE93689 	 ldrd r8,[sp,#216]
 237 0116 03EB0716 	 add r6,r3,r7,lsl#4
 238 011a ACEB0717 	 sub r7,ip,r7,lsl#4
 239              	.LVL33:
 240              	.L9:
 191:../Dave/Generated/CMSIS_DSP/FilteringFunctions/arm_conv_partial_fast_q31.c **** 
 192:../Dave/Generated/CMSIS_DSP/FilteringFunctions/arm_conv_partial_fast_q31.c ****         /* Decrement the loop counter */
 193:../Dave/Generated/CMSIS_DSP/FilteringFunctions/arm_conv_partial_fast_q31.c ****         k--;
 194:../Dave/Generated/CMSIS_DSP/FilteringFunctions/arm_conv_partial_fast_q31.c ****       }
 195:../Dave/Generated/CMSIS_DSP/FilteringFunctions/arm_conv_partial_fast_q31.c **** 
 196:../Dave/Generated/CMSIS_DSP/FilteringFunctions/arm_conv_partial_fast_q31.c ****       /* If the count is not a multiple of 4, compute any remaining MACs here.
 197:../Dave/Generated/CMSIS_DSP/FilteringFunctions/arm_conv_partial_fast_q31.c ****        ** No loop unrolling is used. */
 198:../Dave/Generated/CMSIS_DSP/FilteringFunctions/arm_conv_partial_fast_q31.c ****       k = count % 0x4u;
 199:../Dave/Generated/CMSIS_DSP/FilteringFunctions/arm_conv_partial_fast_q31.c **** 
 200:../Dave/Generated/CMSIS_DSP/FilteringFunctions/arm_conv_partial_fast_q31.c ****       while (k > 0u)
 241              	 .loc 1 200 0
 242 011e 1EF00300 	 ands r0,lr,#3
 243              	.LVL34:
 244 0122 11D0     	 beq .L11
 245 0124 CDE90445 	 strd r4,[sp,#16]
 246              	.LVL35:
 247              	.L12:
 201:../Dave/Generated/CMSIS_DSP/FilteringFunctions/arm_conv_partial_fast_q31.c ****       {
 202:../Dave/Generated/CMSIS_DSP/FilteringFunctions/arm_conv_partial_fast_q31.c ****         /* Perform the multiply-accumulates */
 203:../Dave/Generated/CMSIS_DSP/FilteringFunctions/arm_conv_partial_fast_q31.c ****         sum = (q31_t) ((((q63_t) sum << 32) +
 204:../Dave/Generated/CMSIS_DSP/FilteringFunctions/arm_conv_partial_fast_q31.c ****                         ((q63_t) * px++ * (*py--))) >> 32);
 248              	 .loc 1 204 0
 249 0128 56F8042B 	 ldr r2,[r6],#4
 250              	.LVL36:
 251 012c 57F80439 	 ldr r3,[r7],#-4
 252              	.LVL37:
 203:../Dave/Generated/CMSIS_DSP/FilteringFunctions/arm_conv_partial_fast_q31.c ****                         ((q63_t) * px++ * (*py--))) >> 32);
 253              	 .loc 1 203 0
 254 0130 4FF00008 	 mov r8,#0
 255 0134 0D46     	 mov r5,r1
 256 0136 4446     	 mov r4,r8
 257 0138 C3FB0245 	 smlal r4,r5,r3,r2
 200:../Dave/Generated/CMSIS_DSP/FilteringFunctions/arm_conv_partial_fast_q31.c ****       {
 258              	 .loc 1 200 0
 259 013c 0138     	 subs r0,r0,#1
 260              	.LVL38:
 203:../Dave/Generated/CMSIS_DSP/FilteringFunctions/arm_conv_partial_fast_q31.c ****                         ((q63_t) * px++ * (*py--))) >> 32);
 261              	 .loc 1 203 0
 262 013e 8946     	 mov r9,r1
 263 0140 2946     	 mov r1,r5
 264              	.LVL39:
 200:../Dave/Generated/CMSIS_DSP/FilteringFunctions/arm_conv_partial_fast_q31.c ****       {
 265              	 .loc 1 200 0
 266 0142 F1D1     	 bne .L12
 267 0144 DDE90445 	 ldrd r4,[sp,#16]
 268              	.L11:
 205:../Dave/Generated/CMSIS_DSP/FilteringFunctions/arm_conv_partial_fast_q31.c **** 
 206:../Dave/Generated/CMSIS_DSP/FilteringFunctions/arm_conv_partial_fast_q31.c ****         /* Decrement the loop counter */
 207:../Dave/Generated/CMSIS_DSP/FilteringFunctions/arm_conv_partial_fast_q31.c ****         k--;
 208:../Dave/Generated/CMSIS_DSP/FilteringFunctions/arm_conv_partial_fast_q31.c ****       }
 209:../Dave/Generated/CMSIS_DSP/FilteringFunctions/arm_conv_partial_fast_q31.c **** 
 210:../Dave/Generated/CMSIS_DSP/FilteringFunctions/arm_conv_partial_fast_q31.c ****       /* Store the result in the accumulator in the destination buffer. */
 211:../Dave/Generated/CMSIS_DSP/FilteringFunctions/arm_conv_partial_fast_q31.c ****       *pOut++ = sum << 1;
 269              	 .loc 1 211 0
 270 0148 319B     	 ldr r3,[sp,#196]
 271 014a 4900     	 lsls r1,r1,#1
 272 014c 43F8041B 	 str r1,[r3],#4
 273 0150 3193     	 str r3,[sp,#196]
 274              	.LVL40:
 164:../Dave/Generated/CMSIS_DSP/FilteringFunctions/arm_conv_partial_fast_q31.c ****     {
 275              	 .loc 1 164 0
 276 0152 2C9B     	 ldr r3,[sp,#176]
 277              	.LVL41:
 278 0154 013B     	 subs r3,r3,#1
 212:../Dave/Generated/CMSIS_DSP/FilteringFunctions/arm_conv_partial_fast_q31.c **** 
 213:../Dave/Generated/CMSIS_DSP/FilteringFunctions/arm_conv_partial_fast_q31.c ****       /* Update the inputA and inputB pointers for next MAC calculation */
 214:../Dave/Generated/CMSIS_DSP/FilteringFunctions/arm_conv_partial_fast_q31.c ****       py = ++pSrc2;
 279              	 .loc 1 214 0
 280 0156 0CF1040C 	 add ip,ip,#4
 281              	.LVL42:
 215:../Dave/Generated/CMSIS_DSP/FilteringFunctions/arm_conv_partial_fast_q31.c ****       px = pIn1;
 216:../Dave/Generated/CMSIS_DSP/FilteringFunctions/arm_conv_partial_fast_q31.c **** 
 217:../Dave/Generated/CMSIS_DSP/FilteringFunctions/arm_conv_partial_fast_q31.c ****       /* Increment the MAC count */
 218:../Dave/Generated/CMSIS_DSP/FilteringFunctions/arm_conv_partial_fast_q31.c ****       count++;
 282              	 .loc 1 218 0
 283 015a 0EF1010E 	 add lr,lr,#1
 284              	.LVL43:
 164:../Dave/Generated/CMSIS_DSP/FilteringFunctions/arm_conv_partial_fast_q31.c ****     {
 285              	 .loc 1 164 0
 286 015e 2C93     	 str r3,[sp,#176]
 287 0160 9CD1     	 bne .L13
 288              	.LVL44:
 289              	.L8:
 219:../Dave/Generated/CMSIS_DSP/FilteringFunctions/arm_conv_partial_fast_q31.c **** 
 220:../Dave/Generated/CMSIS_DSP/FilteringFunctions/arm_conv_partial_fast_q31.c ****       /* Decrement the loop counter */
 221:../Dave/Generated/CMSIS_DSP/FilteringFunctions/arm_conv_partial_fast_q31.c ****       blockSize1--;
 222:../Dave/Generated/CMSIS_DSP/FilteringFunctions/arm_conv_partial_fast_q31.c ****     }
 223:../Dave/Generated/CMSIS_DSP/FilteringFunctions/arm_conv_partial_fast_q31.c **** 
 224:../Dave/Generated/CMSIS_DSP/FilteringFunctions/arm_conv_partial_fast_q31.c ****     /* --------------------------
 225:../Dave/Generated/CMSIS_DSP/FilteringFunctions/arm_conv_partial_fast_q31.c ****      * Initializations of stage2
 226:../Dave/Generated/CMSIS_DSP/FilteringFunctions/arm_conv_partial_fast_q31.c ****      * ------------------------*/
 227:../Dave/Generated/CMSIS_DSP/FilteringFunctions/arm_conv_partial_fast_q31.c **** 
 228:../Dave/Generated/CMSIS_DSP/FilteringFunctions/arm_conv_partial_fast_q31.c ****     /* sum = x[0] * y[srcBLen-1] + x[1] * y[srcBLen-2] +...+ x[srcBLen-1] * y[0]
 229:../Dave/Generated/CMSIS_DSP/FilteringFunctions/arm_conv_partial_fast_q31.c ****      * sum = x[1] * y[srcBLen-1] + x[2] * y[srcBLen-2] +...+ x[srcBLen] * y[0]
 230:../Dave/Generated/CMSIS_DSP/FilteringFunctions/arm_conv_partial_fast_q31.c ****      * ....
 231:../Dave/Generated/CMSIS_DSP/FilteringFunctions/arm_conv_partial_fast_q31.c ****      * sum = x[srcALen-srcBLen-2] * y[srcBLen-1] + x[srcALen] * y[srcBLen-2] +...+ x[srcALen-1] * y
 232:../Dave/Generated/CMSIS_DSP/FilteringFunctions/arm_conv_partial_fast_q31.c ****      */
 233:../Dave/Generated/CMSIS_DSP/FilteringFunctions/arm_conv_partial_fast_q31.c **** 
 234:../Dave/Generated/CMSIS_DSP/FilteringFunctions/arm_conv_partial_fast_q31.c ****     /* Working pointer of inputA */
 235:../Dave/Generated/CMSIS_DSP/FilteringFunctions/arm_conv_partial_fast_q31.c ****     if ((int32_t)firstIndex - (int32_t)srcBLen + 1 > 0)
 290              	 .loc 1 235 0
 291 0162 6599     	 ldr r1,[sp,#404]
 292 0164 419A     	 ldr r2,[sp,#260]
 293 0166 8B1A     	 subs r3,r1,r2
 294 0168 002B     	 cmp r3,#0
 295 016a C0F2A782 	 blt .L46
 296              	.LVL45:
 297              	.L83:
 298 016e 481C     	 adds r0,r1,#1
 236:../Dave/Generated/CMSIS_DSP/FilteringFunctions/arm_conv_partial_fast_q31.c ****     {
 237:../Dave/Generated/CMSIS_DSP/FilteringFunctions/arm_conv_partial_fast_q31.c ****       px = pIn1 + firstIndex - srcBLen + 1;
 299              	 .loc 1 237 0
 300 0170 329B     	 ldr r3,[sp,#200]
 301 0172 801A     	 subs r0,r0,r2
 302 0174 03EB8000 	 add r0,r3,r0,lsl#2
 303              	.LVL46:
 304              	.L14:
 238:../Dave/Generated/CMSIS_DSP/FilteringFunctions/arm_conv_partial_fast_q31.c ****     }
 239:../Dave/Generated/CMSIS_DSP/FilteringFunctions/arm_conv_partial_fast_q31.c ****     else
 240:../Dave/Generated/CMSIS_DSP/FilteringFunctions/arm_conv_partial_fast_q31.c ****     {
 241:../Dave/Generated/CMSIS_DSP/FilteringFunctions/arm_conv_partial_fast_q31.c ****       px = pIn1;
 242:../Dave/Generated/CMSIS_DSP/FilteringFunctions/arm_conv_partial_fast_q31.c ****     }
 243:../Dave/Generated/CMSIS_DSP/FilteringFunctions/arm_conv_partial_fast_q31.c **** 
 244:../Dave/Generated/CMSIS_DSP/FilteringFunctions/arm_conv_partial_fast_q31.c ****     /* Working pointer of inputB */
 245:../Dave/Generated/CMSIS_DSP/FilteringFunctions/arm_conv_partial_fast_q31.c ****     pSrc2 = pIn2 + (srcBLen - 1u);
 305              	 .loc 1 245 0
 306 0178 419A     	 ldr r2,[sp,#260]
 307 017a 4099     	 ldr r1,[sp,#256]
 308 017c 02F18043 	 add r3,r2,#1073741824
 309 0180 013B     	 subs r3,r3,#1
 310 0182 01EB8303 	 add r3,r1,r3,lsl#2
 246:../Dave/Generated/CMSIS_DSP/FilteringFunctions/arm_conv_partial_fast_q31.c ****     py = pSrc2;
 247:../Dave/Generated/CMSIS_DSP/FilteringFunctions/arm_conv_partial_fast_q31.c **** 
 248:../Dave/Generated/CMSIS_DSP/FilteringFunctions/arm_conv_partial_fast_q31.c ****     /* count is index by which the pointer pIn1 to be incremented */
 249:../Dave/Generated/CMSIS_DSP/FilteringFunctions/arm_conv_partial_fast_q31.c ****     count = 0u;
 250:../Dave/Generated/CMSIS_DSP/FilteringFunctions/arm_conv_partial_fast_q31.c **** 
 251:../Dave/Generated/CMSIS_DSP/FilteringFunctions/arm_conv_partial_fast_q31.c ****     /* -------------------
 252:../Dave/Generated/CMSIS_DSP/FilteringFunctions/arm_conv_partial_fast_q31.c ****      * Stage2 process
 253:../Dave/Generated/CMSIS_DSP/FilteringFunctions/arm_conv_partial_fast_q31.c ****      * ------------------*/
 254:../Dave/Generated/CMSIS_DSP/FilteringFunctions/arm_conv_partial_fast_q31.c **** 
 255:../Dave/Generated/CMSIS_DSP/FilteringFunctions/arm_conv_partial_fast_q31.c ****     /* Stage2 depends on srcBLen as in this stage srcBLen number of MACS are performed.
 256:../Dave/Generated/CMSIS_DSP/FilteringFunctions/arm_conv_partial_fast_q31.c ****      * So, to loop unroll over blockSize2,
 257:../Dave/Generated/CMSIS_DSP/FilteringFunctions/arm_conv_partial_fast_q31.c ****      * srcBLen should be greater than or equal to 4 */
 258:../Dave/Generated/CMSIS_DSP/FilteringFunctions/arm_conv_partial_fast_q31.c ****     if (srcBLen >= 4u)
 311              	 .loc 1 258 0
 312 0186 032A     	 cmp r2,#3
 245:../Dave/Generated/CMSIS_DSP/FilteringFunctions/arm_conv_partial_fast_q31.c ****     py = pSrc2;
 313              	 .loc 1 245 0
 314 0188 3393     	 str r3,[sp,#204]
 315              	.LVL47:
 316              	 .loc 1 258 0
 317 018a 40F24582 	 bls .L15
 318              	.LVL48:
 259:../Dave/Generated/CMSIS_DSP/FilteringFunctions/arm_conv_partial_fast_q31.c ****     {
 260:../Dave/Generated/CMSIS_DSP/FilteringFunctions/arm_conv_partial_fast_q31.c ****       /* Loop unroll over blockSize2 */
 261:../Dave/Generated/CMSIS_DSP/FilteringFunctions/arm_conv_partial_fast_q31.c ****       blkCnt = ((uint32_t) blockSize2 >> 2u);
 262:../Dave/Generated/CMSIS_DSP/FilteringFunctions/arm_conv_partial_fast_q31.c **** 
 263:../Dave/Generated/CMSIS_DSP/FilteringFunctions/arm_conv_partial_fast_q31.c ****       while (blkCnt > 0u)
 319              	 .loc 1 263 0
 320 018e 4B9B     	 ldr r3,[sp,#300]
 321              	.LVL49:
 322 0190 9B08     	 lsrs r3,r3,#2
 323              	.LVL50:
 324 0192 4C93     	 str r3,[sp,#304]
 325 0194 00F04081 	 beq .L16
 326 0198 0133     	 adds r3,r3,#1
 327              	.LVL51:
 328 019a 1B01     	 lsls r3,r3,#4
 329 019c 4199     	 ldr r1,[sp,#260]
 330 019e 319C     	 ldr r4,[sp,#196]
 331 01a0 339D     	 ldr r5,[sp,#204]
 332 01a2 4D93     	 str r3,[sp,#308]
 333 01a4 1A46     	 mov r2,r3
 334 01a6 A218     	 adds r2,r4,r2
 335 01a8 8B08     	 lsrs r3,r1,#2
 336 01aa 4493     	 str r3,[sp,#272]
 337 01ac 4792     	 str r2,[sp,#284]
 338 01ae A5EB0312 	 sub r2,r5,r3,lsl#4
 339 01b2 1B01     	 lsls r3,r3,#4
 340 01b4 4293     	 str r3,[sp,#264]
 341 01b6 01F00303 	 and r3,r1,#3
 342 01ba 4693     	 str r3,[sp,#280]
 343 01bc 04F11003 	 add r3,r4,#16
 344 01c0 4093     	 str r3,[sp,#256]
 345              	.LVL52:
 346 01c2 329B     	 ldr r3,[sp,#200]
 347 01c4 4992     	 str r2,[sp,#292]
 348 01c6 1033     	 adds r3,r3,#16
 349 01c8 3893     	 str r3,[sp,#224]
 350 01ca A5F11003 	 sub r3,r5,#16
 351 01ce 3693     	 str r3,[sp,#216]
 352              	.LVL53:
 353              	.L21:
 264:../Dave/Generated/CMSIS_DSP/FilteringFunctions/arm_conv_partial_fast_q31.c ****       {
 265:../Dave/Generated/CMSIS_DSP/FilteringFunctions/arm_conv_partial_fast_q31.c ****         /* Set all accumulators to zero */
 266:../Dave/Generated/CMSIS_DSP/FilteringFunctions/arm_conv_partial_fast_q31.c ****         acc0 = 0;
 267:../Dave/Generated/CMSIS_DSP/FilteringFunctions/arm_conv_partial_fast_q31.c ****         acc1 = 0;
 268:../Dave/Generated/CMSIS_DSP/FilteringFunctions/arm_conv_partial_fast_q31.c ****         acc2 = 0;
 269:../Dave/Generated/CMSIS_DSP/FilteringFunctions/arm_conv_partial_fast_q31.c ****         acc3 = 0;
 270:../Dave/Generated/CMSIS_DSP/FilteringFunctions/arm_conv_partial_fast_q31.c **** 
 271:../Dave/Generated/CMSIS_DSP/FilteringFunctions/arm_conv_partial_fast_q31.c ****         /* read x[0], x[1], x[2] samples */
 272:../Dave/Generated/CMSIS_DSP/FilteringFunctions/arm_conv_partial_fast_q31.c ****         x0 = *(px++);
 273:../Dave/Generated/CMSIS_DSP/FilteringFunctions/arm_conv_partial_fast_q31.c ****         x1 = *(px++);
 274:../Dave/Generated/CMSIS_DSP/FilteringFunctions/arm_conv_partial_fast_q31.c ****         x2 = *(px++);
 354              	 .loc 1 274 0
 355 01d0 00F10C03 	 add r3,r0,#12
 356 01d4 1A46     	 mov r2,r3
 357 01d6 3A93     	 str r3,[sp,#232]
 272:../Dave/Generated/CMSIS_DSP/FilteringFunctions/arm_conv_partial_fast_q31.c ****         x1 = *(px++);
 358              	 .loc 1 272 0
 359 01d8 0368     	 ldr r3,[r0]
 273:../Dave/Generated/CMSIS_DSP/FilteringFunctions/arm_conv_partial_fast_q31.c ****         x2 = *(px++);
 360              	 .loc 1 273 0
 361 01da D0F804C0 	 ldr ip,[r0,#4]
 362              	.LVL54:
 272:../Dave/Generated/CMSIS_DSP/FilteringFunctions/arm_conv_partial_fast_q31.c ****         x1 = *(px++);
 363              	 .loc 1 272 0
 364 01de 2E93     	 str r3,[sp,#184]
 365              	.LVL55:
 269:../Dave/Generated/CMSIS_DSP/FilteringFunctions/arm_conv_partial_fast_q31.c **** 
 366              	 .loc 1 269 0
 367 01e0 0025     	 movs r5,#0
 368 01e2 9646     	 mov lr,r2
 275:../Dave/Generated/CMSIS_DSP/FilteringFunctions/arm_conv_partial_fast_q31.c **** 
 276:../Dave/Generated/CMSIS_DSP/FilteringFunctions/arm_conv_partial_fast_q31.c ****         /* Apply loop unrolling and compute 4 MACs simultaneously. */
 277:../Dave/Generated/CMSIS_DSP/FilteringFunctions/arm_conv_partial_fast_q31.c ****         k = srcBLen >> 2u;
 369              	 .loc 1 277 0
 370 01e4 449F     	 ldr r7,[sp,#272]
 274:../Dave/Generated/CMSIS_DSP/FilteringFunctions/arm_conv_partial_fast_q31.c **** 
 371              	 .loc 1 274 0
 372 01e6 8368     	 ldr r3,[r0,#8]
 373              	.LVL56:
 374 01e8 C168     	 ldr r1,[r0,#12]
 375              	 .loc 1 277 0
 376 01ea 2C97     	 str r7,[sp,#176]
 377 01ec CDF800C0 	 str ip,[sp]
 268:../Dave/Generated/CMSIS_DSP/FilteringFunctions/arm_conv_partial_fast_q31.c ****         acc3 = 0;
 378              	 .loc 1 268 0
 379 01f0 2C46     	 mov r4,r5
 380              	 .loc 1 277 0
 381 01f2 F446     	 mov ip,lr
 382              	.LVL57:
 267:../Dave/Generated/CMSIS_DSP/FilteringFunctions/arm_conv_partial_fast_q31.c ****         acc2 = 0;
 383              	 .loc 1 267 0
 384 01f4 2846     	 mov r0,r5
 266:../Dave/Generated/CMSIS_DSP/FilteringFunctions/arm_conv_partial_fast_q31.c ****         acc1 = 0;
 385              	 .loc 1 266 0
 386 01f6 2E46     	 mov r6,r5
 387 01f8 369A     	 ldr r2,[sp,#216]
 388              	.LVL58:
 389              	 .loc 1 277 0
 390 01fa 0495     	 str r5,[sp,#16]
 391 01fc 2F46     	 mov r7,r5
 392 01fe DDF8B8E0 	 ldr lr,[sp,#184]
 393 0202 02E0     	 b .L18
 394              	.LVL59:
 395              	.L82:
 278:../Dave/Generated/CMSIS_DSP/FilteringFunctions/arm_conv_partial_fast_q31.c **** 
 279:../Dave/Generated/CMSIS_DSP/FilteringFunctions/arm_conv_partial_fast_q31.c ****         /* First part of the processing with loop unrolling.  Compute 4 MACs at a time.
 280:../Dave/Generated/CMSIS_DSP/FilteringFunctions/arm_conv_partial_fast_q31.c ****          ** a second loop below computes MACs for the remaining 1 to 3 samples. */
 281:../Dave/Generated/CMSIS_DSP/FilteringFunctions/arm_conv_partial_fast_q31.c ****         do
 282:../Dave/Generated/CMSIS_DSP/FilteringFunctions/arm_conv_partial_fast_q31.c ****         {
 283:../Dave/Generated/CMSIS_DSP/FilteringFunctions/arm_conv_partial_fast_q31.c ****           /* Read y[srcBLen - 1] sample */
 284:../Dave/Generated/CMSIS_DSP/FilteringFunctions/arm_conv_partial_fast_q31.c ****           c0 = *(py--);
 285:../Dave/Generated/CMSIS_DSP/FilteringFunctions/arm_conv_partial_fast_q31.c **** 
 286:../Dave/Generated/CMSIS_DSP/FilteringFunctions/arm_conv_partial_fast_q31.c ****           /* Read x[3] sample */
 287:../Dave/Generated/CMSIS_DSP/FilteringFunctions/arm_conv_partial_fast_q31.c ****           x3 = *(px++);
 288:../Dave/Generated/CMSIS_DSP/FilteringFunctions/arm_conv_partial_fast_q31.c **** 
 289:../Dave/Generated/CMSIS_DSP/FilteringFunctions/arm_conv_partial_fast_q31.c ****           /* Perform the multiply-accumulate */
 290:../Dave/Generated/CMSIS_DSP/FilteringFunctions/arm_conv_partial_fast_q31.c ****           /* acc0 +=  x[0] * y[srcBLen - 1] */
 291:../Dave/Generated/CMSIS_DSP/FilteringFunctions/arm_conv_partial_fast_q31.c ****           acc0 = (q31_t) ((((q63_t) acc0 << 32) + ((q63_t) x0 * c0)) >> 32);
 292:../Dave/Generated/CMSIS_DSP/FilteringFunctions/arm_conv_partial_fast_q31.c **** 
 293:../Dave/Generated/CMSIS_DSP/FilteringFunctions/arm_conv_partial_fast_q31.c ****           /* acc1 +=  x[1] * y[srcBLen - 1] */
 294:../Dave/Generated/CMSIS_DSP/FilteringFunctions/arm_conv_partial_fast_q31.c ****           acc1 = (q31_t) ((((q63_t) acc1 << 32) + ((q63_t) x1 * c0)) >> 32);
 295:../Dave/Generated/CMSIS_DSP/FilteringFunctions/arm_conv_partial_fast_q31.c **** 
 296:../Dave/Generated/CMSIS_DSP/FilteringFunctions/arm_conv_partial_fast_q31.c ****           /* acc2 +=  x[2] * y[srcBLen - 1] */
 297:../Dave/Generated/CMSIS_DSP/FilteringFunctions/arm_conv_partial_fast_q31.c ****           acc2 = (q31_t) ((((q63_t) acc2 << 32) + ((q63_t) x2 * c0)) >> 32);
 298:../Dave/Generated/CMSIS_DSP/FilteringFunctions/arm_conv_partial_fast_q31.c **** 
 299:../Dave/Generated/CMSIS_DSP/FilteringFunctions/arm_conv_partial_fast_q31.c ****           /* acc3 +=  x[3] * y[srcBLen - 1] */
 300:../Dave/Generated/CMSIS_DSP/FilteringFunctions/arm_conv_partial_fast_q31.c ****           acc3 = (q31_t) ((((q63_t) acc3 << 32) + ((q63_t) x3 * c0)) >> 32);
 301:../Dave/Generated/CMSIS_DSP/FilteringFunctions/arm_conv_partial_fast_q31.c **** 
 302:../Dave/Generated/CMSIS_DSP/FilteringFunctions/arm_conv_partial_fast_q31.c ****           /* Read y[srcBLen - 2] sample */
 303:../Dave/Generated/CMSIS_DSP/FilteringFunctions/arm_conv_partial_fast_q31.c ****           c0 = *(py--);
 304:../Dave/Generated/CMSIS_DSP/FilteringFunctions/arm_conv_partial_fast_q31.c **** 
 305:../Dave/Generated/CMSIS_DSP/FilteringFunctions/arm_conv_partial_fast_q31.c ****           /* Read x[4] sample */
 306:../Dave/Generated/CMSIS_DSP/FilteringFunctions/arm_conv_partial_fast_q31.c ****           x0 = *(px++);
 307:../Dave/Generated/CMSIS_DSP/FilteringFunctions/arm_conv_partial_fast_q31.c **** 
 308:../Dave/Generated/CMSIS_DSP/FilteringFunctions/arm_conv_partial_fast_q31.c ****           /* Perform the multiply-accumulate */
 309:../Dave/Generated/CMSIS_DSP/FilteringFunctions/arm_conv_partial_fast_q31.c ****           /* acc0 +=  x[1] * y[srcBLen - 2] */
 310:../Dave/Generated/CMSIS_DSP/FilteringFunctions/arm_conv_partial_fast_q31.c ****           acc0 = (q31_t) ((((q63_t) acc0 << 32) + ((q63_t) x1 * c0)) >> 32);
 311:../Dave/Generated/CMSIS_DSP/FilteringFunctions/arm_conv_partial_fast_q31.c ****           /* acc1 +=  x[2] * y[srcBLen - 2] */
 312:../Dave/Generated/CMSIS_DSP/FilteringFunctions/arm_conv_partial_fast_q31.c ****           acc1 = (q31_t) ((((q63_t) acc1 << 32) + ((q63_t) x2 * c0)) >> 32);
 313:../Dave/Generated/CMSIS_DSP/FilteringFunctions/arm_conv_partial_fast_q31.c ****           /* acc2 +=  x[3] * y[srcBLen - 2] */
 314:../Dave/Generated/CMSIS_DSP/FilteringFunctions/arm_conv_partial_fast_q31.c ****           acc2 = (q31_t) ((((q63_t) acc2 << 32) + ((q63_t) x3 * c0)) >> 32);
 315:../Dave/Generated/CMSIS_DSP/FilteringFunctions/arm_conv_partial_fast_q31.c ****           /* acc3 +=  x[4] * y[srcBLen - 2] */
 316:../Dave/Generated/CMSIS_DSP/FilteringFunctions/arm_conv_partial_fast_q31.c ****           acc3 = (q31_t) ((((q63_t) acc3 << 32) + ((q63_t) x0 * c0)) >> 32);
 317:../Dave/Generated/CMSIS_DSP/FilteringFunctions/arm_conv_partial_fast_q31.c **** 
 318:../Dave/Generated/CMSIS_DSP/FilteringFunctions/arm_conv_partial_fast_q31.c ****           /* Read y[srcBLen - 3] sample */
 319:../Dave/Generated/CMSIS_DSP/FilteringFunctions/arm_conv_partial_fast_q31.c ****           c0 = *(py--);
 320:../Dave/Generated/CMSIS_DSP/FilteringFunctions/arm_conv_partial_fast_q31.c **** 
 321:../Dave/Generated/CMSIS_DSP/FilteringFunctions/arm_conv_partial_fast_q31.c ****           /* Read x[5] sample */
 322:../Dave/Generated/CMSIS_DSP/FilteringFunctions/arm_conv_partial_fast_q31.c ****           x1 = *(px++);
 323:../Dave/Generated/CMSIS_DSP/FilteringFunctions/arm_conv_partial_fast_q31.c **** 
 324:../Dave/Generated/CMSIS_DSP/FilteringFunctions/arm_conv_partial_fast_q31.c ****           /* Perform the multiply-accumulates */
 325:../Dave/Generated/CMSIS_DSP/FilteringFunctions/arm_conv_partial_fast_q31.c ****           /* acc0 +=  x[2] * y[srcBLen - 3] */
 326:../Dave/Generated/CMSIS_DSP/FilteringFunctions/arm_conv_partial_fast_q31.c ****           acc0 = (q31_t) ((((q63_t) acc0 << 32) + ((q63_t) x2 * c0)) >> 32);
 327:../Dave/Generated/CMSIS_DSP/FilteringFunctions/arm_conv_partial_fast_q31.c ****           /* acc1 +=  x[3] * y[srcBLen - 2] */
 328:../Dave/Generated/CMSIS_DSP/FilteringFunctions/arm_conv_partial_fast_q31.c ****           acc1 = (q31_t) ((((q63_t) acc1 << 32) + ((q63_t) x3 * c0)) >> 32);
 329:../Dave/Generated/CMSIS_DSP/FilteringFunctions/arm_conv_partial_fast_q31.c ****           /* acc2 +=  x[4] * y[srcBLen - 2] */
 330:../Dave/Generated/CMSIS_DSP/FilteringFunctions/arm_conv_partial_fast_q31.c ****           acc2 = (q31_t) ((((q63_t) acc2 << 32) + ((q63_t) x0 * c0)) >> 32);
 331:../Dave/Generated/CMSIS_DSP/FilteringFunctions/arm_conv_partial_fast_q31.c ****           /* acc3 +=  x[5] * y[srcBLen - 2] */
 332:../Dave/Generated/CMSIS_DSP/FilteringFunctions/arm_conv_partial_fast_q31.c ****           acc3 = (q31_t) ((((q63_t) acc3 << 32) + ((q63_t) x1 * c0)) >> 32);
 333:../Dave/Generated/CMSIS_DSP/FilteringFunctions/arm_conv_partial_fast_q31.c **** 
 334:../Dave/Generated/CMSIS_DSP/FilteringFunctions/arm_conv_partial_fast_q31.c ****           /* Read y[srcBLen - 4] sample */
 335:../Dave/Generated/CMSIS_DSP/FilteringFunctions/arm_conv_partial_fast_q31.c ****           c0 = *(py--);
 336:../Dave/Generated/CMSIS_DSP/FilteringFunctions/arm_conv_partial_fast_q31.c **** 
 337:../Dave/Generated/CMSIS_DSP/FilteringFunctions/arm_conv_partial_fast_q31.c ****           /* Read x[6] sample */
 338:../Dave/Generated/CMSIS_DSP/FilteringFunctions/arm_conv_partial_fast_q31.c ****           x2 = *(px++);
 396              	 .loc 1 338 0
 397 0204 5CF8101F 	 ldr r1,[ip,#16]!
 398              	.LVL60:
 399 0208 0498     	 ldr r0,[sp,#16]
 400              	.LVL61:
 401              	.L18:
 294:../Dave/Generated/CMSIS_DSP/FilteringFunctions/arm_conv_partial_fast_q31.c **** 
 402              	 .loc 1 294 0 discriminator 1
 403 020a 0790     	 str r0,[sp,#28]
 291:../Dave/Generated/CMSIS_DSP/FilteringFunctions/arm_conv_partial_fast_q31.c **** 
 404              	 .loc 1 291 0 discriminator 1
 405 020c 4FF0000A 	 mov r10,#0
 319:../Dave/Generated/CMSIS_DSP/FilteringFunctions/arm_conv_partial_fast_q31.c **** 
 406              	 .loc 1 319 0 discriminator 1
 407 0210 02F10800 	 add r0,r2,#8
 297:../Dave/Generated/CMSIS_DSP/FilteringFunctions/arm_conv_partial_fast_q31.c **** 
 408              	 .loc 1 297 0 discriminator 1
 409 0214 0994     	 str r4,[sp,#36]
 294:../Dave/Generated/CMSIS_DSP/FilteringFunctions/arm_conv_partial_fast_q31.c **** 
 410              	 .loc 1 294 0 discriminator 1
 411 0216 CDF818A0 	 str r10,[sp,#24]
 319:../Dave/Generated/CMSIS_DSP/FilteringFunctions/arm_conv_partial_fast_q31.c **** 
 412              	 .loc 1 319 0 discriminator 1
 413 021a 90E81101 	 ldmia r0,{r0,r4,r8}
 414              	.LVL62:
 300:../Dave/Generated/CMSIS_DSP/FilteringFunctions/arm_conv_partial_fast_q31.c **** 
 415              	 .loc 1 300 0 discriminator 1
 416 021e 0B97     	 str r7,[sp,#44]
 291:../Dave/Generated/CMSIS_DSP/FilteringFunctions/arm_conv_partial_fast_q31.c **** 
 417              	 .loc 1 291 0 discriminator 1
 418 0220 B346     	 mov fp,r6
 294:../Dave/Generated/CMSIS_DSP/FilteringFunctions/arm_conv_partial_fast_q31.c **** 
 419              	 .loc 1 294 0 discriminator 1
 420 0222 DDE90667 	 ldrd r6,[sp,#24]
 421              	.LVL63:
 422 0226 009D     	 ldr r5,[sp]
 297:../Dave/Generated/CMSIS_DSP/FilteringFunctions/arm_conv_partial_fast_q31.c **** 
 423              	 .loc 1 297 0 discriminator 1
 424 0228 CDF820A0 	 str r10,[sp,#32]
 294:../Dave/Generated/CMSIS_DSP/FilteringFunctions/arm_conv_partial_fast_q31.c **** 
 425              	 .loc 1 294 0 discriminator 1
 426 022c C5FB0867 	 smlal r6,r7,r5,r8
 427 0230 CDE90467 	 strd r6,[sp,#16]
 428              	.LVL64:
 291:../Dave/Generated/CMSIS_DSP/FilteringFunctions/arm_conv_partial_fast_q31.c **** 
 429              	 .loc 1 291 0 discriminator 1
 430 0234 5646     	 mov r6,r10
 431 0236 5F46     	 mov r7,fp
 432              	.LVL65:
 433 0238 C8FB0E67 	 smlal r6,r7,r8,lr
 434              	.LVL66:
 310:../Dave/Generated/CMSIS_DSP/FilteringFunctions/arm_conv_partial_fast_q31.c ****           /* acc1 +=  x[2] * y[srcBLen - 2] */
 435              	 .loc 1 310 0 discriminator 1
 436 023c 0D97     	 str r7,[sp,#52]
 297:../Dave/Generated/CMSIS_DSP/FilteringFunctions/arm_conv_partial_fast_q31.c **** 
 437              	 .loc 1 297 0 discriminator 1
 438 023e DDE90867 	 ldrd r6,[sp,#32]
 300:../Dave/Generated/CMSIS_DSP/FilteringFunctions/arm_conv_partial_fast_q31.c **** 
 439              	 .loc 1 300 0 discriminator 1
 440 0242 CDF828A0 	 str r10,[sp,#40]
 297:../Dave/Generated/CMSIS_DSP/FilteringFunctions/arm_conv_partial_fast_q31.c **** 
 441              	 .loc 1 297 0 discriminator 1
 442 0246 C3FB0867 	 smlal r6,r7,r3,r8
 443              	.LVL67:
 314:../Dave/Generated/CMSIS_DSP/FilteringFunctions/arm_conv_partial_fast_q31.c ****           /* acc3 +=  x[4] * y[srcBLen - 2] */
 444              	 .loc 1 314 0 discriminator 1
 445 024a 1197     	 str r7,[sp,#68]
 300:../Dave/Generated/CMSIS_DSP/FilteringFunctions/arm_conv_partial_fast_q31.c **** 
 446              	 .loc 1 300 0 discriminator 1
 447 024c DDE90A67 	 ldrd r6,[sp,#40]
 312:../Dave/Generated/CMSIS_DSP/FilteringFunctions/arm_conv_partial_fast_q31.c ****           /* acc2 +=  x[3] * y[srcBLen - 2] */
 448              	 .loc 1 312 0 discriminator 1
 449 0250 059D     	 ldr r5,[sp,#20]
 450 0252 0F95     	 str r5,[sp,#60]
 300:../Dave/Generated/CMSIS_DSP/FilteringFunctions/arm_conv_partial_fast_q31.c **** 
 451              	 .loc 1 300 0 discriminator 1
 452 0254 C1FB0867 	 smlal r6,r7,r1,r8
 453              	.LVL68:
 312:../Dave/Generated/CMSIS_DSP/FilteringFunctions/arm_conv_partial_fast_q31.c ****           /* acc2 +=  x[3] * y[srcBLen - 2] */
 454              	 .loc 1 312 0 discriminator 1
 455 0258 CDF838A0 	 str r10,[sp,#56]
 316:../Dave/Generated/CMSIS_DSP/FilteringFunctions/arm_conv_partial_fast_q31.c **** 
 456              	 .loc 1 316 0 discriminator 1
 457 025c 1397     	 str r7,[sp,#76]
 312:../Dave/Generated/CMSIS_DSP/FilteringFunctions/arm_conv_partial_fast_q31.c ****           /* acc2 +=  x[3] * y[srcBLen - 2] */
 458              	 .loc 1 312 0 discriminator 1
 459 025e DDE90E67 	 ldrd r6,[sp,#56]
 314:../Dave/Generated/CMSIS_DSP/FilteringFunctions/arm_conv_partial_fast_q31.c ****           /* acc3 +=  x[4] * y[srcBLen - 2] */
 460              	 .loc 1 314 0 discriminator 1
 461 0262 CDF840A0 	 str r10,[sp,#64]
 312:../Dave/Generated/CMSIS_DSP/FilteringFunctions/arm_conv_partial_fast_q31.c ****           /* acc2 +=  x[3] * y[srcBLen - 2] */
 462              	 .loc 1 312 0 discriminator 1
 463 0266 C4FB0367 	 smlal r6,r7,r4,r3
 310:../Dave/Generated/CMSIS_DSP/FilteringFunctions/arm_conv_partial_fast_q31.c ****           /* acc1 +=  x[2] * y[srcBLen - 2] */
 464              	 .loc 1 310 0 discriminator 1
 465 026a CDF830A0 	 str r10,[sp,#48]
 314:../Dave/Generated/CMSIS_DSP/FilteringFunctions/arm_conv_partial_fast_q31.c ****           /* acc3 +=  x[4] * y[srcBLen - 2] */
 466              	 .loc 1 314 0 discriminator 1
 467 026e DDE91089 	 ldrd r8,[sp,#64]
 312:../Dave/Generated/CMSIS_DSP/FilteringFunctions/arm_conv_partial_fast_q31.c ****           /* acc2 +=  x[3] * y[srcBLen - 2] */
 468              	 .loc 1 312 0 discriminator 1
 469 0272 CDE90467 	 strd r6,[sp,#16]
 470              	.LVL69:
 310:../Dave/Generated/CMSIS_DSP/FilteringFunctions/arm_conv_partial_fast_q31.c ****           /* acc1 +=  x[2] * y[srcBLen - 2] */
 471              	 .loc 1 310 0 discriminator 1
 472 0276 DDE90C67 	 ldrd r6,[sp,#48]
 473 027a 009D     	 ldr r5,[sp]
 474              	.LVL70:
 316:../Dave/Generated/CMSIS_DSP/FilteringFunctions/arm_conv_partial_fast_q31.c **** 
 475              	 .loc 1 316 0 discriminator 1
 476 027c CDF848A0 	 str r10,[sp,#72]
 314:../Dave/Generated/CMSIS_DSP/FilteringFunctions/arm_conv_partial_fast_q31.c ****           /* acc3 +=  x[4] * y[srcBLen - 2] */
 477              	 .loc 1 314 0 discriminator 1
 478 0280 C4FB0189 	 smlal r8,r9,r4,r1
 310:../Dave/Generated/CMSIS_DSP/FilteringFunctions/arm_conv_partial_fast_q31.c ****           /* acc1 +=  x[2] * y[srcBLen - 2] */
 479              	 .loc 1 310 0 discriminator 1
 480 0284 C4FB0567 	 smlal r6,r7,r4,r5
 330:../Dave/Generated/CMSIS_DSP/FilteringFunctions/arm_conv_partial_fast_q31.c ****           /* acc3 +=  x[5] * y[srcBLen - 2] */
 481              	 .loc 1 330 0 discriminator 1
 482 0288 CDF86490 	 str r9,[sp,#100]
 328:../Dave/Generated/CMSIS_DSP/FilteringFunctions/arm_conv_partial_fast_q31.c ****           /* acc2 +=  x[4] * y[srcBLen - 2] */
 483              	 .loc 1 328 0 discriminator 1
 484 028c 059D     	 ldr r5,[sp,#20]
 306:../Dave/Generated/CMSIS_DSP/FilteringFunctions/arm_conv_partial_fast_q31.c **** 
 485              	 .loc 1 306 0 discriminator 1
 486 028e DCF804E0 	 ldr lr,[ip,#4]
 487              	.LVL71:
 328:../Dave/Generated/CMSIS_DSP/FilteringFunctions/arm_conv_partial_fast_q31.c ****           /* acc2 +=  x[4] * y[srcBLen - 2] */
 488              	 .loc 1 328 0 discriminator 1
 489 0292 1795     	 str r5,[sp,#92]
 316:../Dave/Generated/CMSIS_DSP/FilteringFunctions/arm_conv_partial_fast_q31.c **** 
 490              	 .loc 1 316 0 discriminator 1
 491 0294 DDE91289 	 ldrd r8,[sp,#72]
 326:../Dave/Generated/CMSIS_DSP/FilteringFunctions/arm_conv_partial_fast_q31.c ****           /* acc1 +=  x[3] * y[srcBLen - 2] */
 492              	 .loc 1 326 0 discriminator 1
 493 0298 1597     	 str r7,[sp,#84]
 330:../Dave/Generated/CMSIS_DSP/FilteringFunctions/arm_conv_partial_fast_q31.c ****           /* acc3 +=  x[5] * y[srcBLen - 2] */
 494              	 .loc 1 330 0 discriminator 1
 495 029a CDF860A0 	 str r10,[sp,#96]
 496 029e DDE91867 	 ldrd r6,[sp,#96]
 316:../Dave/Generated/CMSIS_DSP/FilteringFunctions/arm_conv_partial_fast_q31.c **** 
 497              	 .loc 1 316 0 discriminator 1
 498 02a2 CEFB0489 	 smlal r8,r9,lr,r4
 499              	.LVL72:
 326:../Dave/Generated/CMSIS_DSP/FilteringFunctions/arm_conv_partial_fast_q31.c ****           /* acc1 +=  x[3] * y[srcBLen - 2] */
 500              	 .loc 1 326 0 discriminator 1
 501 02a6 CDF850A0 	 str r10,[sp,#80]
 322:../Dave/Generated/CMSIS_DSP/FilteringFunctions/arm_conv_partial_fast_q31.c **** 
 502              	 .loc 1 322 0 discriminator 1
 503 02aa DCF80840 	 ldr r4,[ip,#8]
 504 02ae 0094     	 str r4,[sp]
 505              	.LVL73:
 326:../Dave/Generated/CMSIS_DSP/FilteringFunctions/arm_conv_partial_fast_q31.c ****           /* acc1 +=  x[3] * y[srcBLen - 2] */
 506              	 .loc 1 326 0 discriminator 1
 507 02b0 DDE91445 	 ldrd r4,[sp,#80]
 332:../Dave/Generated/CMSIS_DSP/FilteringFunctions/arm_conv_partial_fast_q31.c **** 
 508              	 .loc 1 332 0 discriminator 1
 509 02b4 CDF86C90 	 str r9,[sp,#108]
 330:../Dave/Generated/CMSIS_DSP/FilteringFunctions/arm_conv_partial_fast_q31.c ****           /* acc3 +=  x[5] * y[srcBLen - 2] */
 510              	 .loc 1 330 0 discriminator 1
 511 02b8 C0FB0E67 	 smlal r6,r7,r0,lr
 332:../Dave/Generated/CMSIS_DSP/FilteringFunctions/arm_conv_partial_fast_q31.c **** 
 512              	 .loc 1 332 0 discriminator 1
 513 02bc CDF868A0 	 str r10,[sp,#104]
 330:../Dave/Generated/CMSIS_DSP/FilteringFunctions/arm_conv_partial_fast_q31.c ****           /* acc3 +=  x[5] * y[srcBLen - 2] */
 514              	 .loc 1 330 0 discriminator 1
 515 02c0 CDE90467 	 strd r6,[sp,#16]
 332:../Dave/Generated/CMSIS_DSP/FilteringFunctions/arm_conv_partial_fast_q31.c **** 
 516              	 .loc 1 332 0 discriminator 1
 517 02c4 DDE91A67 	 ldrd r6,[sp,#104]
 326:../Dave/Generated/CMSIS_DSP/FilteringFunctions/arm_conv_partial_fast_q31.c ****           /* acc1 +=  x[3] * y[srcBLen - 2] */
 518              	 .loc 1 326 0 discriminator 1
 519 02c8 C0FB0345 	 smlal r4,r5,r0,r3
 520              	.LVL74:
 328:../Dave/Generated/CMSIS_DSP/FilteringFunctions/arm_conv_partial_fast_q31.c ****           /* acc2 +=  x[4] * y[srcBLen - 2] */
 521              	 .loc 1 328 0 discriminator 1
 522 02cc CDF858A0 	 str r10,[sp,#88]
 332:../Dave/Generated/CMSIS_DSP/FilteringFunctions/arm_conv_partial_fast_q31.c **** 
 523              	 .loc 1 332 0 discriminator 1
 524 02d0 009B     	 ldr r3,[sp]
 525              	.LVL75:
 339:../Dave/Generated/CMSIS_DSP/FilteringFunctions/arm_conv_partial_fast_q31.c **** 
 340:../Dave/Generated/CMSIS_DSP/FilteringFunctions/arm_conv_partial_fast_q31.c ****           /* Perform the multiply-accumulates */
 341:../Dave/Generated/CMSIS_DSP/FilteringFunctions/arm_conv_partial_fast_q31.c ****           /* acc0 +=  x[3] * y[srcBLen - 4] */
 342:../Dave/Generated/CMSIS_DSP/FilteringFunctions/arm_conv_partial_fast_q31.c ****           acc0 = (q31_t) ((((q63_t) acc0 << 32) + ((q63_t) x3 * c0)) >> 32);
 343:../Dave/Generated/CMSIS_DSP/FilteringFunctions/arm_conv_partial_fast_q31.c ****           /* acc1 +=  x[4] * y[srcBLen - 4] */
 344:../Dave/Generated/CMSIS_DSP/FilteringFunctions/arm_conv_partial_fast_q31.c ****           acc1 = (q31_t) ((((q63_t) acc1 << 32) + ((q63_t) x0 * c0)) >> 32);
 345:../Dave/Generated/CMSIS_DSP/FilteringFunctions/arm_conv_partial_fast_q31.c ****           /* acc2 +=  x[5] * y[srcBLen - 4] */
 346:../Dave/Generated/CMSIS_DSP/FilteringFunctions/arm_conv_partial_fast_q31.c ****           acc2 = (q31_t) ((((q63_t) acc2 << 32) + ((q63_t) x1 * c0)) >> 32);
 347:../Dave/Generated/CMSIS_DSP/FilteringFunctions/arm_conv_partial_fast_q31.c ****           /* acc3 +=  x[6] * y[srcBLen - 4] */
 348:../Dave/Generated/CMSIS_DSP/FilteringFunctions/arm_conv_partial_fast_q31.c ****           acc3 = (q31_t) ((((q63_t) acc3 << 32) + ((q63_t) x2 * c0)) >> 32);
 526              	 .loc 1 348 0 discriminator 1
 527 02d2 CDF888A0 	 str r10,[sp,#136]
 328:../Dave/Generated/CMSIS_DSP/FilteringFunctions/arm_conv_partial_fast_q31.c ****           /* acc2 +=  x[4] * y[srcBLen - 2] */
 528              	 .loc 1 328 0 discriminator 1
 529 02d6 DDE91689 	 ldrd r8,[sp,#88]
 332:../Dave/Generated/CMSIS_DSP/FilteringFunctions/arm_conv_partial_fast_q31.c **** 
 530              	 .loc 1 332 0 discriminator 1
 531 02da C3FB0067 	 smlal r6,r7,r3,r0
 532              	 .loc 1 348 0 discriminator 1
 533 02de 2397     	 str r7,[sp,#140]
 328:../Dave/Generated/CMSIS_DSP/FilteringFunctions/arm_conv_partial_fast_q31.c ****           /* acc2 +=  x[4] * y[srcBLen - 2] */
 534              	 .loc 1 328 0 discriminator 1
 535 02e0 C0FB0189 	 smlal r8,r9,r0,r1
 536              	.LVL76:
 537              	 .loc 1 348 0 discriminator 1
 538 02e4 DDE92267 	 ldrd r6,[sp,#136]
 346:../Dave/Generated/CMSIS_DSP/FilteringFunctions/arm_conv_partial_fast_q31.c ****           /* acc3 +=  x[6] * y[srcBLen - 4] */
 539              	 .loc 1 346 0 discriminator 1
 540 02e8 0598     	 ldr r0,[sp,#20]
 344:../Dave/Generated/CMSIS_DSP/FilteringFunctions/arm_conv_partial_fast_q31.c ****           /* acc2 +=  x[5] * y[srcBLen - 4] */
 541              	 .loc 1 344 0 discriminator 1
 542 02ea CDF87C90 	 str r9,[sp,#124]
 346:../Dave/Generated/CMSIS_DSP/FilteringFunctions/arm_conv_partial_fast_q31.c ****           /* acc3 +=  x[6] * y[srcBLen - 4] */
 543              	 .loc 1 346 0 discriminator 1
 544 02ee 2190     	 str r0,[sp,#132]
 338:../Dave/Generated/CMSIS_DSP/FilteringFunctions/arm_conv_partial_fast_q31.c **** 
 545              	 .loc 1 338 0 discriminator 1
 546 02f0 DCF80C30 	 ldr r3,[ip,#12]
 547              	.LVL77:
 344:../Dave/Generated/CMSIS_DSP/FilteringFunctions/arm_conv_partial_fast_q31.c ****           /* acc2 +=  x[5] * y[srcBLen - 4] */
 548              	 .loc 1 344 0 discriminator 1
 549 02f4 5068     	 ldr r0,[r2,#4]
 550 02f6 CDF878A0 	 str r10,[sp,#120]
 342:../Dave/Generated/CMSIS_DSP/FilteringFunctions/arm_conv_partial_fast_q31.c ****           /* acc1 +=  x[4] * y[srcBLen - 4] */
 551              	 .loc 1 342 0 discriminator 1
 552 02fa 1D95     	 str r5,[sp,#116]
 344:../Dave/Generated/CMSIS_DSP/FilteringFunctions/arm_conv_partial_fast_q31.c ****           /* acc2 +=  x[5] * y[srcBLen - 4] */
 553              	 .loc 1 344 0 discriminator 1
 554 02fc DDE91E45 	 ldrd r4,[sp,#120]
 342:../Dave/Generated/CMSIS_DSP/FilteringFunctions/arm_conv_partial_fast_q31.c ****           /* acc1 +=  x[4] * y[srcBLen - 4] */
 555              	 .loc 1 342 0 discriminator 1
 556 0300 CDF870A0 	 str r10,[sp,#112]
 557              	 .loc 1 348 0 discriminator 1
 558 0304 C3FB0067 	 smlal r6,r7,r3,r0
 346:../Dave/Generated/CMSIS_DSP/FilteringFunctions/arm_conv_partial_fast_q31.c ****           /* acc3 +=  x[6] * y[srcBLen - 4] */
 559              	 .loc 1 346 0 discriminator 1
 560 0308 CDF880A0 	 str r10,[sp,#128]
 561              	 .loc 1 348 0 discriminator 1
 562 030c CDE92E67 	 strd r6,[sp,#184]
 342:../Dave/Generated/CMSIS_DSP/FilteringFunctions/arm_conv_partial_fast_q31.c ****           /* acc1 +=  x[4] * y[srcBLen - 4] */
 563              	 .loc 1 342 0 discriminator 1
 564 0310 DDE91C67 	 ldrd r6,[sp,#112]
 344:../Dave/Generated/CMSIS_DSP/FilteringFunctions/arm_conv_partial_fast_q31.c ****           /* acc2 +=  x[5] * y[srcBLen - 4] */
 565              	 .loc 1 344 0 discriminator 1
 566 0314 C0FB0E45 	 smlal r4,r5,r0,lr
 346:../Dave/Generated/CMSIS_DSP/FilteringFunctions/arm_conv_partial_fast_q31.c ****           /* acc3 +=  x[6] * y[srcBLen - 4] */
 567              	 .loc 1 346 0 discriminator 1
 568 0318 DDE92089 	 ldrd r8,[sp,#128]
 344:../Dave/Generated/CMSIS_DSP/FilteringFunctions/arm_conv_partial_fast_q31.c ****           /* acc2 +=  x[5] * y[srcBLen - 4] */
 569              	 .loc 1 344 0 discriminator 1
 570 031c CDE90445 	 strd r4,[sp,#16]
 571              	.LVL78:
 346:../Dave/Generated/CMSIS_DSP/FilteringFunctions/arm_conv_partial_fast_q31.c ****           /* acc3 +=  x[6] * y[srcBLen - 4] */
 572              	 .loc 1 346 0 discriminator 1
 573 0320 009C     	 ldr r4,[sp]
 342:../Dave/Generated/CMSIS_DSP/FilteringFunctions/arm_conv_partial_fast_q31.c ****           /* acc1 +=  x[4] * y[srcBLen - 4] */
 574              	 .loc 1 342 0 discriminator 1
 575 0322 C0FB0167 	 smlal r6,r7,r0,r1
 576 0326 3946     	 mov r1,r7
 346:../Dave/Generated/CMSIS_DSP/FilteringFunctions/arm_conv_partial_fast_q31.c ****           /* acc3 +=  x[6] * y[srcBLen - 4] */
 577              	 .loc 1 346 0 discriminator 1
 578 0328 C0FB0489 	 smlal r8,r9,r0,r4
 344:../Dave/Generated/CMSIS_DSP/FilteringFunctions/arm_conv_partial_fast_q31.c ****           /* acc2 +=  x[5] * y[srcBLen - 4] */
 579              	 .loc 1 344 0 discriminator 1
 580 032c 059C     	 ldr r4,[sp,#20]
 581 032e 0494     	 str r4,[sp,#16]
 342:../Dave/Generated/CMSIS_DSP/FilteringFunctions/arm_conv_partial_fast_q31.c ****           /* acc1 +=  x[4] * y[srcBLen - 4] */
 582              	 .loc 1 342 0 discriminator 1
 583 0330 0E46     	 mov r6,r1
 584              	 .loc 1 348 0 discriminator 1
 585 0332 2F9F     	 ldr r7,[sp,#188]
 349:../Dave/Generated/CMSIS_DSP/FilteringFunctions/arm_conv_partial_fast_q31.c **** 
 350:../Dave/Generated/CMSIS_DSP/FilteringFunctions/arm_conv_partial_fast_q31.c **** 
 351:../Dave/Generated/CMSIS_DSP/FilteringFunctions/arm_conv_partial_fast_q31.c ****         } while (--k);
 586              	 .loc 1 351 0 discriminator 1
 587 0334 2C99     	 ldr r1,[sp,#176]
 588 0336 0139     	 subs r1,r1,#1
 589 0338 A2F11002 	 sub r2,r2,#16
 590              	.LVL79:
 346:../Dave/Generated/CMSIS_DSP/FilteringFunctions/arm_conv_partial_fast_q31.c ****           /* acc3 +=  x[6] * y[srcBLen - 4] */
 591              	 .loc 1 346 0 discriminator 1
 592 033c 4C46     	 mov r4,r9
 593              	.LVL80:
 594              	 .loc 1 351 0 discriminator 1
 595 033e 2C91     	 str r1,[sp,#176]
 596 0340 7FF460AF 	 bne .L82
 597 0344 3A9A     	 ldr r2,[sp,#232]
 598              	.LVL81:
 599 0346 4299     	 ldr r1,[sp,#264]
 600              	.LVL82:
 601 0348 0498     	 ldr r0,[sp,#16]
 602              	.LVL83:
 603 034a CDF8B8E0 	 str lr,[sp,#184]
 604 034e 0A44     	 add r2,r2,r1
 605 0350 9146     	 mov r9,r2
 606              	.LVL84:
 352:../Dave/Generated/CMSIS_DSP/FilteringFunctions/arm_conv_partial_fast_q31.c **** 
 353:../Dave/Generated/CMSIS_DSP/FilteringFunctions/arm_conv_partial_fast_q31.c ****         /* If the srcBLen is not a multiple of 4, compute any remaining MACs here.
 354:../Dave/Generated/CMSIS_DSP/FilteringFunctions/arm_conv_partial_fast_q31.c ****          ** No loop unrolling is used. */
 355:../Dave/Generated/CMSIS_DSP/FilteringFunctions/arm_conv_partial_fast_q31.c ****         k = srcBLen % 0x4u;
 356:../Dave/Generated/CMSIS_DSP/FilteringFunctions/arm_conv_partial_fast_q31.c **** 
 357:../Dave/Generated/CMSIS_DSP/FilteringFunctions/arm_conv_partial_fast_q31.c ****         while (k > 0u)
 607              	 .loc 1 357 0
 608 0352 469A     	 ldr r2,[sp,#280]
 609 0354 DDF800C0 	 ldr ip,[sp]
 610              	.LVL85:
 611 0358 3D46     	 mov r5,r7
 612              	.LVL86:
 613 035a 002A     	 cmp r2,#0
 614 035c 3AD0     	 beq .L19
 615 035e CDE92CAB 	 strd r10,[sp,#176]
 616 0362 DDF82481 	 ldr r8,[sp,#292]
 617 0366 CDF80080 	 str r8,[sp]
 618 036a 7746     	 mov r7,lr
 619 036c CDF81090 	 str r9,[sp,#16]
 620 0370 8646     	 mov lr,r0
 621              	.LVL87:
 622              	.L20:
 358:../Dave/Generated/CMSIS_DSP/FilteringFunctions/arm_conv_partial_fast_q31.c ****         {
 359:../Dave/Generated/CMSIS_DSP/FilteringFunctions/arm_conv_partial_fast_q31.c ****           /* Read y[srcBLen - 5] sample */
 360:../Dave/Generated/CMSIS_DSP/FilteringFunctions/arm_conv_partial_fast_q31.c ****           c0 = *(py--);
 623              	 .loc 1 360 0
 624 0372 0099     	 ldr r1,[sp]
 361:../Dave/Generated/CMSIS_DSP/FilteringFunctions/arm_conv_partial_fast_q31.c **** 
 362:../Dave/Generated/CMSIS_DSP/FilteringFunctions/arm_conv_partial_fast_q31.c ****           /* Read x[7] sample */
 363:../Dave/Generated/CMSIS_DSP/FilteringFunctions/arm_conv_partial_fast_q31.c ****           x3 = *(px++);
 364:../Dave/Generated/CMSIS_DSP/FilteringFunctions/arm_conv_partial_fast_q31.c **** 
 365:../Dave/Generated/CMSIS_DSP/FilteringFunctions/arm_conv_partial_fast_q31.c ****           /* Perform the multiply-accumulates */
 366:../Dave/Generated/CMSIS_DSP/FilteringFunctions/arm_conv_partial_fast_q31.c ****           /* acc0 +=  x[4] * y[srcBLen - 5] */
 367:../Dave/Generated/CMSIS_DSP/FilteringFunctions/arm_conv_partial_fast_q31.c ****           acc0 = (q31_t) ((((q63_t) acc0 << 32) + ((q63_t) x0 * c0)) >> 32);
 368:../Dave/Generated/CMSIS_DSP/FilteringFunctions/arm_conv_partial_fast_q31.c ****           /* acc1 +=  x[5] * y[srcBLen - 5] */
 369:../Dave/Generated/CMSIS_DSP/FilteringFunctions/arm_conv_partial_fast_q31.c ****           acc1 = (q31_t) ((((q63_t) acc1 << 32) + ((q63_t) x1 * c0)) >> 32);
 370:../Dave/Generated/CMSIS_DSP/FilteringFunctions/arm_conv_partial_fast_q31.c ****           /* acc2 +=  x[6] * y[srcBLen - 5] */
 371:../Dave/Generated/CMSIS_DSP/FilteringFunctions/arm_conv_partial_fast_q31.c ****           acc2 = (q31_t) ((((q63_t) acc2 << 32) + ((q63_t) x2 * c0)) >> 32);
 625              	 .loc 1 371 0
 626 0374 2794     	 str r4,[sp,#156]
 363:../Dave/Generated/CMSIS_DSP/FilteringFunctions/arm_conv_partial_fast_q31.c **** 
 627              	 .loc 1 363 0
 628 0376 049C     	 ldr r4,[sp,#16]
 629              	.LVL88:
 360:../Dave/Generated/CMSIS_DSP/FilteringFunctions/arm_conv_partial_fast_q31.c **** 
 630              	 .loc 1 360 0
 631 0378 51F80409 	 ldr r0,[r1],#-4
 369:../Dave/Generated/CMSIS_DSP/FilteringFunctions/arm_conv_partial_fast_q31.c ****           /* acc2 +=  x[6] * y[srcBLen - 5] */
 632              	 .loc 1 369 0
 633 037c CDF894E0 	 str lr,[sp,#148]
 367:../Dave/Generated/CMSIS_DSP/FilteringFunctions/arm_conv_partial_fast_q31.c ****           /* acc1 +=  x[5] * y[srcBLen - 5] */
 634              	 .loc 1 367 0
 635 0380 4FF0000A 	 mov r10,#0
 360:../Dave/Generated/CMSIS_DSP/FilteringFunctions/arm_conv_partial_fast_q31.c **** 
 636              	 .loc 1 360 0
 637 0384 0091     	 str r1,[sp]
 638              	.LVL89:
 369:../Dave/Generated/CMSIS_DSP/FilteringFunctions/arm_conv_partial_fast_q31.c ****           /* acc2 +=  x[6] * y[srcBLen - 5] */
 639              	 .loc 1 369 0
 640 0386 CDF890A0 	 str r10,[sp,#144]
 363:../Dave/Generated/CMSIS_DSP/FilteringFunctions/arm_conv_partial_fast_q31.c **** 
 641              	 .loc 1 363 0
 642 038a 54F8041B 	 ldr r1,[r4],#4
 643              	.LVL90:
 372:../Dave/Generated/CMSIS_DSP/FilteringFunctions/arm_conv_partial_fast_q31.c ****           /* acc3 +=  x[7] * y[srcBLen - 5] */
 373:../Dave/Generated/CMSIS_DSP/FilteringFunctions/arm_conv_partial_fast_q31.c ****           acc3 = (q31_t) ((((q63_t) acc3 << 32) + ((q63_t) x3 * c0)) >> 32);
 644              	 .loc 1 373 0
 645 038e 2995     	 str r5,[sp,#164]
 363:../Dave/Generated/CMSIS_DSP/FilteringFunctions/arm_conv_partial_fast_q31.c **** 
 646              	 .loc 1 363 0
 647 0390 0494     	 str r4,[sp,#16]
 648              	.LVL91:
 369:../Dave/Generated/CMSIS_DSP/FilteringFunctions/arm_conv_partial_fast_q31.c ****           /* acc2 +=  x[6] * y[srcBLen - 5] */
 649              	 .loc 1 369 0
 650 0392 DDE92445 	 ldrd r4,[sp,#144]
 651              	.LVL92:
 367:../Dave/Generated/CMSIS_DSP/FilteringFunctions/arm_conv_partial_fast_q31.c ****           /* acc1 +=  x[5] * y[srcBLen - 5] */
 652              	 .loc 1 367 0
 653 0396 B146     	 mov r9,r6
 654 0398 D046     	 mov r8,r10
 369:../Dave/Generated/CMSIS_DSP/FilteringFunctions/arm_conv_partial_fast_q31.c ****           /* acc2 +=  x[6] * y[srcBLen - 5] */
 655              	 .loc 1 369 0
 656 039a CCFB0045 	 smlal r4,r5,ip,r0
 367:../Dave/Generated/CMSIS_DSP/FilteringFunctions/arm_conv_partial_fast_q31.c ****           /* acc1 +=  x[5] * y[srcBLen - 5] */
 657              	 .loc 1 367 0
 658 039e C0FB0789 	 smlal r8,r9,r0,r7
 371:../Dave/Generated/CMSIS_DSP/FilteringFunctions/arm_conv_partial_fast_q31.c ****           /* acc3 +=  x[7] * y[srcBLen - 5] */
 659              	 .loc 1 371 0
 660 03a2 CDF898A0 	 str r10,[sp,#152]
 661              	 .loc 1 373 0
 662 03a6 CDF8A0A0 	 str r10,[sp,#160]
 367:../Dave/Generated/CMSIS_DSP/FilteringFunctions/arm_conv_partial_fast_q31.c ****           /* acc1 +=  x[5] * y[srcBLen - 5] */
 663              	 .loc 1 367 0
 664 03aa B346     	 mov fp,r6
 369:../Dave/Generated/CMSIS_DSP/FilteringFunctions/arm_conv_partial_fast_q31.c ****           /* acc2 +=  x[6] * y[srcBLen - 5] */
 665              	 .loc 1 369 0
 666 03ac AE46     	 mov lr,r5
 667              	.LVL93:
 367:../Dave/Generated/CMSIS_DSP/FilteringFunctions/arm_conv_partial_fast_q31.c ****           /* acc1 +=  x[5] * y[srcBLen - 5] */
 668              	 .loc 1 367 0
 669 03ae 4E46     	 mov r6,r9
 670              	.LVL94:
 371:../Dave/Generated/CMSIS_DSP/FilteringFunctions/arm_conv_partial_fast_q31.c ****           /* acc3 +=  x[7] * y[srcBLen - 5] */
 671              	 .loc 1 371 0
 672 03b0 DDE92645 	 ldrd r4,[sp,#152]
 673              	 .loc 1 373 0
 674 03b4 DDE92889 	 ldrd r8,[sp,#160]
 371:../Dave/Generated/CMSIS_DSP/FilteringFunctions/arm_conv_partial_fast_q31.c ****           /* acc3 +=  x[7] * y[srcBLen - 5] */
 675              	 .loc 1 371 0
 676 03b8 C3FB0045 	 smlal r4,r5,r3,r0
 677              	 .loc 1 373 0
 678 03bc C1FB0089 	 smlal r8,r9,r1,r0
 357:../Dave/Generated/CMSIS_DSP/FilteringFunctions/arm_conv_partial_fast_q31.c ****         {
 679              	 .loc 1 357 0
 680 03c0 013A     	 subs r2,r2,#1
 681              	.LVL95:
 682 03c2 6746     	 mov r7,ip
 683              	.LVL96:
 371:../Dave/Generated/CMSIS_DSP/FilteringFunctions/arm_conv_partial_fast_q31.c ****           /* acc3 +=  x[7] * y[srcBLen - 5] */
 684              	 .loc 1 371 0
 685 03c4 2C46     	 mov r4,r5
 686              	.LVL97:
 687 03c6 9C46     	 mov ip,r3
 688              	.LVL98:
 689              	 .loc 1 373 0
 690 03c8 4D46     	 mov r5,r9
 691              	.LVL99:
 374:../Dave/Generated/CMSIS_DSP/FilteringFunctions/arm_conv_partial_fast_q31.c **** 
 375:../Dave/Generated/CMSIS_DSP/FilteringFunctions/arm_conv_partial_fast_q31.c ****           /* Reuse the present samples for the next MAC */
 376:../Dave/Generated/CMSIS_DSP/FilteringFunctions/arm_conv_partial_fast_q31.c ****           x0 = x1;
 377:../Dave/Generated/CMSIS_DSP/FilteringFunctions/arm_conv_partial_fast_q31.c ****           x1 = x2;
 378:../Dave/Generated/CMSIS_DSP/FilteringFunctions/arm_conv_partial_fast_q31.c ****           x2 = x3;
 692              	 .loc 1 378 0
 693 03ca 0B46     	 mov r3,r1
 694              	.LVL100:
 357:../Dave/Generated/CMSIS_DSP/FilteringFunctions/arm_conv_partial_fast_q31.c ****         {
 695              	 .loc 1 357 0
 696 03cc D1D1     	 bne .L20
 697 03ce CDE93CAB 	 strd r10,[sp,#240]
 698 03d2 7046     	 mov r0,lr
 699              	.LVL101:
 700              	.L19:
 379:../Dave/Generated/CMSIS_DSP/FilteringFunctions/arm_conv_partial_fast_q31.c **** 
 380:../Dave/Generated/CMSIS_DSP/FilteringFunctions/arm_conv_partial_fast_q31.c ****           /* Decrement the loop counter */
 381:../Dave/Generated/CMSIS_DSP/FilteringFunctions/arm_conv_partial_fast_q31.c ****           k--;
 382:../Dave/Generated/CMSIS_DSP/FilteringFunctions/arm_conv_partial_fast_q31.c ****         }
 383:../Dave/Generated/CMSIS_DSP/FilteringFunctions/arm_conv_partial_fast_q31.c **** 
 384:../Dave/Generated/CMSIS_DSP/FilteringFunctions/arm_conv_partial_fast_q31.c ****         /* Store the result in the accumulator in the destination buffer. */
 385:../Dave/Generated/CMSIS_DSP/FilteringFunctions/arm_conv_partial_fast_q31.c ****         *pOut++ = (q31_t) (acc0 << 1);
 701              	 .loc 1 385 0
 702 03d4 409A     	 ldr r2,[sp,#256]
 386:../Dave/Generated/CMSIS_DSP/FilteringFunctions/arm_conv_partial_fast_q31.c ****         *pOut++ = (q31_t) (acc1 << 1);
 703              	 .loc 1 386 0
 704 03d6 4000     	 lsls r0,r0,#1
 705 03d8 42F80C0C 	 str r0,[r2,#-12]
 387:../Dave/Generated/CMSIS_DSP/FilteringFunctions/arm_conv_partial_fast_q31.c ****         *pOut++ = (q31_t) (acc2 << 1);
 388:../Dave/Generated/CMSIS_DSP/FilteringFunctions/arm_conv_partial_fast_q31.c ****         *pOut++ = (q31_t) (acc3 << 1);
 389:../Dave/Generated/CMSIS_DSP/FilteringFunctions/arm_conv_partial_fast_q31.c **** 
 390:../Dave/Generated/CMSIS_DSP/FilteringFunctions/arm_conv_partial_fast_q31.c ****         /* Increment the pointer pIn1 index, count by 4 */
 391:../Dave/Generated/CMSIS_DSP/FilteringFunctions/arm_conv_partial_fast_q31.c ****         count += 4u;
 392:../Dave/Generated/CMSIS_DSP/FilteringFunctions/arm_conv_partial_fast_q31.c **** 
 393:../Dave/Generated/CMSIS_DSP/FilteringFunctions/arm_conv_partial_fast_q31.c ****         /* Update the inputA and inputB pointers for next MAC calculation */
 394:../Dave/Generated/CMSIS_DSP/FilteringFunctions/arm_conv_partial_fast_q31.c ****         px = pIn1 + count;
 706              	 .loc 1 394 0
 707 03dc 3898     	 ldr r0,[sp,#224]
 385:../Dave/Generated/CMSIS_DSP/FilteringFunctions/arm_conv_partial_fast_q31.c ****         *pOut++ = (q31_t) (acc1 << 1);
 708              	 .loc 1 385 0
 709 03de 7600     	 lsls r6,r6,#1
 387:../Dave/Generated/CMSIS_DSP/FilteringFunctions/arm_conv_partial_fast_q31.c ****         *pOut++ = (q31_t) (acc2 << 1);
 710              	 .loc 1 387 0
 711 03e0 6400     	 lsls r4,r4,#1
 388:../Dave/Generated/CMSIS_DSP/FilteringFunctions/arm_conv_partial_fast_q31.c **** 
 712              	 .loc 1 388 0
 713 03e2 6D00     	 lsls r5,r5,#1
 385:../Dave/Generated/CMSIS_DSP/FilteringFunctions/arm_conv_partial_fast_q31.c ****         *pOut++ = (q31_t) (acc1 << 1);
 714              	 .loc 1 385 0
 715 03e4 1346     	 mov r3,r2
 716              	.LVL102:
 717 03e6 42F8106C 	 str r6,[r2,#-16]
 387:../Dave/Generated/CMSIS_DSP/FilteringFunctions/arm_conv_partial_fast_q31.c ****         *pOut++ = (q31_t) (acc2 << 1);
 718              	 .loc 1 387 0
 719 03ea 42F8084C 	 str r4,[r2,#-8]
 388:../Dave/Generated/CMSIS_DSP/FilteringFunctions/arm_conv_partial_fast_q31.c **** 
 720              	 .loc 1 388 0
 721 03ee 42F8045C 	 str r5,[r2,#-4]
 722              	.LVL103:
 723 03f2 00F11002 	 add r2,r0,#16
 724 03f6 3892     	 str r2,[sp,#224]
 263:../Dave/Generated/CMSIS_DSP/FilteringFunctions/arm_conv_partial_fast_q31.c ****       {
 725              	 .loc 1 263 0
 726 03f8 479A     	 ldr r2,[sp,#284]
 727 03fa 1033     	 adds r3,r3,#16
 728 03fc 9342     	 cmp r3,r2
 729 03fe 4093     	 str r3,[sp,#256]
 730 0400 7FF4E6AE 	 bne .L21
 731 0404 4D9B     	 ldr r3,[sp,#308]
 732 0406 A3F11000 	 sub r0,r3,#16
 733              	.LVL104:
 734 040a 319B     	 ldr r3,[sp,#196]
 735 040c 0344     	 add r3,r3,r0
 736 040e 3193     	 str r3,[sp,#196]
 737 0410 329B     	 ldr r3,[sp,#200]
 738 0412 1844     	 add r0,r0,r3
 739 0414 4C9B     	 ldr r3,[sp,#304]
 740 0416 9B00     	 lsls r3,r3,#2
 741              	.LVL105:
 742              	.L16:
 395:../Dave/Generated/CMSIS_DSP/FilteringFunctions/arm_conv_partial_fast_q31.c ****         py = pSrc2;
 396:../Dave/Generated/CMSIS_DSP/FilteringFunctions/arm_conv_partial_fast_q31.c **** 
 397:../Dave/Generated/CMSIS_DSP/FilteringFunctions/arm_conv_partial_fast_q31.c ****         /* Decrement the loop counter */
 398:../Dave/Generated/CMSIS_DSP/FilteringFunctions/arm_conv_partial_fast_q31.c ****         blkCnt--;
 399:../Dave/Generated/CMSIS_DSP/FilteringFunctions/arm_conv_partial_fast_q31.c ****       }
 400:../Dave/Generated/CMSIS_DSP/FilteringFunctions/arm_conv_partial_fast_q31.c **** 
 401:../Dave/Generated/CMSIS_DSP/FilteringFunctions/arm_conv_partial_fast_q31.c ****       /* If the blockSize2 is not a multiple of 4, compute any remaining output samples here.
 402:../Dave/Generated/CMSIS_DSP/FilteringFunctions/arm_conv_partial_fast_q31.c ****        ** No loop unrolling is used. */
 403:../Dave/Generated/CMSIS_DSP/FilteringFunctions/arm_conv_partial_fast_q31.c ****       blkCnt = (uint32_t) blockSize2 % 0x4u;
 404:../Dave/Generated/CMSIS_DSP/FilteringFunctions/arm_conv_partial_fast_q31.c **** 
 405:../Dave/Generated/CMSIS_DSP/FilteringFunctions/arm_conv_partial_fast_q31.c ****       while (blkCnt > 0u)
 743              	 .loc 1 405 0
 744 0418 4B9A     	 ldr r2,[sp,#300]
 745 041a 12F0030E 	 ands lr,r2,#3
 746              	.LVL106:
 747 041e 00F04F81 	 beq .L49
 748 0422 329A     	 ldr r2,[sp,#200]
 749 0424 4199     	 ldr r1,[sp,#260]
 750 0426 339C     	 ldr r4,[sp,#204]
 751 0428 0133     	 adds r3,r3,#1
 752              	.LVL107:
 753 042a 02EB8306 	 add r6,r2,r3,lsl#2
 754 042e 319B     	 ldr r3,[sp,#196]
 755              	.LVL108:
 756 0430 0096     	 str r6,[sp]
 757 0432 4FEA910C 	 lsr ip,r1,#2
 758 0436 03EB8E0E 	 add lr,r3,lr,lsl#2
 759              	.LVL109:
 760 043a 4FEA0C18 	 lsl r8,ip,#4
 761 043e A4EB0C19 	 sub r9,r4,ip,lsl#4
 762 0442 01F00307 	 and r7,r1,#3
 763 0446 A4F11003 	 sub r3,r4,#16
 764 044a CDF828C0 	 str ip,[sp,#40]
 765 044e 3693     	 str r3,[sp,#216]
 766 0450 CDF818E0 	 str lr,[sp,#24]
 767 0454 CDF82080 	 str r8,[sp,#32]
 768 0458 8446     	 mov ip,r0
 769 045a 0C97     	 str r7,[sp,#48]
 770 045c CDF83890 	 str r9,[sp,#56]
 771              	.LVL110:
 772              	.L26:
 406:../Dave/Generated/CMSIS_DSP/FilteringFunctions/arm_conv_partial_fast_q31.c ****       {
 407:../Dave/Generated/CMSIS_DSP/FilteringFunctions/arm_conv_partial_fast_q31.c ****         /* Accumulator is made zero for every iteration */
 408:../Dave/Generated/CMSIS_DSP/FilteringFunctions/arm_conv_partial_fast_q31.c ****         sum = 0;
 773              	 .loc 1 408 0
 774 0460 0026     	 movs r6,#0
 775 0462 369B     	 ldr r3,[sp,#216]
 409:../Dave/Generated/CMSIS_DSP/FilteringFunctions/arm_conv_partial_fast_q31.c **** 
 410:../Dave/Generated/CMSIS_DSP/FilteringFunctions/arm_conv_partial_fast_q31.c ****         /* Apply loop unrolling and compute 4 MACs simultaneously. */
 411:../Dave/Generated/CMSIS_DSP/FilteringFunctions/arm_conv_partial_fast_q31.c ****         k = srcBLen >> 2u;
 776              	 .loc 1 411 0
 777 0464 DDF828E0 	 ldr lr,[sp,#40]
 778 0468 0CF11002 	 add r2,ip,#16
 408:../Dave/Generated/CMSIS_DSP/FilteringFunctions/arm_conv_partial_fast_q31.c **** 
 779              	 .loc 1 408 0
 780 046c 3446     	 mov r4,r6
 781              	.LVL111:
 782              	.L23:
 412:../Dave/Generated/CMSIS_DSP/FilteringFunctions/arm_conv_partial_fast_q31.c **** 
 413:../Dave/Generated/CMSIS_DSP/FilteringFunctions/arm_conv_partial_fast_q31.c ****         /* First part of the processing with loop unrolling.  Compute 4 MACs at a time.
 414:../Dave/Generated/CMSIS_DSP/FilteringFunctions/arm_conv_partial_fast_q31.c ****          ** a second loop below computes MACs for the remaining 1 to 3 samples. */
 415:../Dave/Generated/CMSIS_DSP/FilteringFunctions/arm_conv_partial_fast_q31.c ****         while (k > 0u)
 416:../Dave/Generated/CMSIS_DSP/FilteringFunctions/arm_conv_partial_fast_q31.c ****         {
 417:../Dave/Generated/CMSIS_DSP/FilteringFunctions/arm_conv_partial_fast_q31.c ****           /* Perform the multiply-accumulates */
 418:../Dave/Generated/CMSIS_DSP/FilteringFunctions/arm_conv_partial_fast_q31.c ****           sum = (q31_t) ((((q63_t) sum << 32) +
 783              	 .loc 1 418 0
 784 046e 0020     	 movs r0,#0
 419:../Dave/Generated/CMSIS_DSP/FilteringFunctions/arm_conv_partial_fast_q31.c ****                           ((q63_t) * px++ * (*py--))) >> 32);
 785              	 .loc 1 419 0
 786 0470 52F8105C 	 ldr r5,[r2,#-16]
 787              	.LVL112:
 420:../Dave/Generated/CMSIS_DSP/FilteringFunctions/arm_conv_partial_fast_q31.c ****           sum = (q31_t) ((((q63_t) sum << 32) +
 788              	 .loc 1 420 0
 789 0474 2A90     	 str r0,[sp,#168]
 418:../Dave/Generated/CMSIS_DSP/FilteringFunctions/arm_conv_partial_fast_q31.c ****                           ((q63_t) * px++ * (*py--))) >> 32);
 790              	 .loc 1 418 0
 791 0476 2146     	 mov r1,r4
 419:../Dave/Generated/CMSIS_DSP/FilteringFunctions/arm_conv_partial_fast_q31.c ****                           ((q63_t) * px++ * (*py--))) >> 32);
 792              	 .loc 1 419 0
 793 0478 1C69     	 ldr r4,[r3,#16]
 794              	.LVL113:
 418:../Dave/Generated/CMSIS_DSP/FilteringFunctions/arm_conv_partial_fast_q31.c ****                           ((q63_t) * px++ * (*py--))) >> 32);
 795              	 .loc 1 418 0
 796 047a 0646     	 mov r6,r0
 797 047c 0F46     	 mov r7,r1
 798 047e C4FB0567 	 smlal r6,r7,r4,r5
 799              	.LVL114:
 800              	 .loc 1 420 0
 801 0482 2B97     	 str r7,[sp,#172]
 802 0484 DDE92A67 	 ldrd r6,[sp,#168]
 421:../Dave/Generated/CMSIS_DSP/FilteringFunctions/arm_conv_partial_fast_q31.c ****                           ((q63_t) * px++ * (*py--))) >> 32);
 803              	 .loc 1 421 0
 804 0488 DC68     	 ldr r4,[r3,#12]
 420:../Dave/Generated/CMSIS_DSP/FilteringFunctions/arm_conv_partial_fast_q31.c ****           sum = (q31_t) ((((q63_t) sum << 32) +
 805              	 .loc 1 420 0
 806 048a 52F80C5C 	 ldr r5,[r2,#-12]
 807 048e C4FB0567 	 smlal r6,r7,r4,r5
 808              	.LVL115:
 422:../Dave/Generated/CMSIS_DSP/FilteringFunctions/arm_conv_partial_fast_q31.c ****           sum = (q31_t) ((((q63_t) sum << 32) +
 423:../Dave/Generated/CMSIS_DSP/FilteringFunctions/arm_conv_partial_fast_q31.c ****                           ((q63_t) * px++ * (*py--))) >> 32);
 809              	 .loc 1 423 0
 810 0492 9C68     	 ldr r4,[r3,#8]
 422:../Dave/Generated/CMSIS_DSP/FilteringFunctions/arm_conv_partial_fast_q31.c ****           sum = (q31_t) ((((q63_t) sum << 32) +
 811              	 .loc 1 422 0
 812 0494 52F8085C 	 ldr r5,[r2,#-8]
 813 0498 0646     	 mov r6,r0
 814 049a C4FB0567 	 smlal r6,r7,r4,r5
 815              	.LVL116:
 816 049e 8246     	 mov r10,r0
 424:../Dave/Generated/CMSIS_DSP/FilteringFunctions/arm_conv_partial_fast_q31.c ****           sum = (q31_t) ((((q63_t) sum << 32) +
 425:../Dave/Generated/CMSIS_DSP/FilteringFunctions/arm_conv_partial_fast_q31.c ****                           ((q63_t) * px++ * (*py--))) >> 32);
 817              	 .loc 1 425 0
 818 04a0 5C68     	 ldr r4,[r3,#4]
 424:../Dave/Generated/CMSIS_DSP/FilteringFunctions/arm_conv_partial_fast_q31.c ****           sum = (q31_t) ((((q63_t) sum << 32) +
 819              	 .loc 1 424 0
 820 04a2 52F8045C 	 ldr r5,[r2,#-4]
 821 04a6 5646     	 mov r6,r10
 822 04a8 C4FB0567 	 smlal r6,r7,r4,r5
 415:../Dave/Generated/CMSIS_DSP/FilteringFunctions/arm_conv_partial_fast_q31.c ****         {
 823              	 .loc 1 415 0
 824 04ac BEF1010E 	 subs lr,lr,#1
 825              	.LVL117:
 826 04b0 02F11002 	 add r2,r2,#16
 827              	.LVL118:
 424:../Dave/Generated/CMSIS_DSP/FilteringFunctions/arm_conv_partial_fast_q31.c ****           sum = (q31_t) ((((q63_t) sum << 32) +
 828              	 .loc 1 424 0
 829 04b4 3C46     	 mov r4,r7
 830              	.LVL119:
 831 04b6 A3F11003 	 sub r3,r3,#16
 832              	.LVL120:
 415:../Dave/Generated/CMSIS_DSP/FilteringFunctions/arm_conv_partial_fast_q31.c ****         {
 833              	 .loc 1 415 0
 834 04ba D8D1     	 bne .L23
 835 04bc 089B     	 ldr r3,[sp,#32]
 836              	.LVL121:
 837 04be 0CEB030E 	 add lr,ip,r3
 838              	.LVL122:
 426:../Dave/Generated/CMSIS_DSP/FilteringFunctions/arm_conv_partial_fast_q31.c **** 
 427:../Dave/Generated/CMSIS_DSP/FilteringFunctions/arm_conv_partial_fast_q31.c ****           /* Decrement the loop counter */
 428:../Dave/Generated/CMSIS_DSP/FilteringFunctions/arm_conv_partial_fast_q31.c ****           k--;
 429:../Dave/Generated/CMSIS_DSP/FilteringFunctions/arm_conv_partial_fast_q31.c ****         }
 430:../Dave/Generated/CMSIS_DSP/FilteringFunctions/arm_conv_partial_fast_q31.c **** 
 431:../Dave/Generated/CMSIS_DSP/FilteringFunctions/arm_conv_partial_fast_q31.c ****         /* If the srcBLen is not a multiple of 4, compute any remaining MACs here.
 432:../Dave/Generated/CMSIS_DSP/FilteringFunctions/arm_conv_partial_fast_q31.c ****          ** No loop unrolling is used. */
 433:../Dave/Generated/CMSIS_DSP/FilteringFunctions/arm_conv_partial_fast_q31.c ****         k = srcBLen % 0x4u;
 434:../Dave/Generated/CMSIS_DSP/FilteringFunctions/arm_conv_partial_fast_q31.c **** 
 435:../Dave/Generated/CMSIS_DSP/FilteringFunctions/arm_conv_partial_fast_q31.c ****         while (k > 0u)
 839              	 .loc 1 435 0
 840 04c2 0C9B     	 ldr r3,[sp,#48]
 841 04c4 3E46     	 mov r6,r7
 842              	.LVL123:
 843 04c6 9BB1     	 cbz r3,.L24
 844              	.LVL124:
 845 04c8 CDE90401 	 strd r0,[sp,#16]
 846 04cc DDF838C0 	 ldr ip,[sp,#56]
 847 04d0 1F46     	 mov r7,r3
 848              	.LVL125:
 849              	.L25:
 436:../Dave/Generated/CMSIS_DSP/FilteringFunctions/arm_conv_partial_fast_q31.c ****         {
 437:../Dave/Generated/CMSIS_DSP/FilteringFunctions/arm_conv_partial_fast_q31.c ****           /* Perform the multiply-accumulate */
 438:../Dave/Generated/CMSIS_DSP/FilteringFunctions/arm_conv_partial_fast_q31.c ****           sum = (q31_t) ((((q63_t) sum << 32) +
 439:../Dave/Generated/CMSIS_DSP/FilteringFunctions/arm_conv_partial_fast_q31.c ****                           ((q63_t) * px++ * (*py--))) >> 32);
 850              	 .loc 1 439 0
 851 04d2 5EF8042B 	 ldr r2,[lr],#4
 852              	.LVL126:
 853 04d6 5CF80439 	 ldr r3,[ip],#-4
 854              	.LVL127:
 438:../Dave/Generated/CMSIS_DSP/FilteringFunctions/arm_conv_partial_fast_q31.c ****                           ((q63_t) * px++ * (*py--))) >> 32);
 855              	 .loc 1 438 0
 856 04da 0024     	 movs r4,#0
 857 04dc 3146     	 mov r1,r6
 858 04de 2046     	 mov r0,r4
 859 04e0 C3FB0201 	 smlal r0,r1,r3,r2
 435:../Dave/Generated/CMSIS_DSP/FilteringFunctions/arm_conv_partial_fast_q31.c ****         {
 860              	 .loc 1 435 0
 861 04e4 013F     	 subs r7,r7,#1
 862              	.LVL128:
 438:../Dave/Generated/CMSIS_DSP/FilteringFunctions/arm_conv_partial_fast_q31.c ****                           ((q63_t) * px++ * (*py--))) >> 32);
 863              	 .loc 1 438 0
 864 04e6 3546     	 mov r5,r6
 865 04e8 0E46     	 mov r6,r1
 866              	.LVL129:
 435:../Dave/Generated/CMSIS_DSP/FilteringFunctions/arm_conv_partial_fast_q31.c ****         {
 867              	 .loc 1 435 0
 868 04ea F2D1     	 bne .L25
 869 04ec CDE93E45 	 strd r4,[sp,#248]
 870              	.LVL130:
 871              	.L24:
 440:../Dave/Generated/CMSIS_DSP/FilteringFunctions/arm_conv_partial_fast_q31.c **** 
 441:../Dave/Generated/CMSIS_DSP/FilteringFunctions/arm_conv_partial_fast_q31.c ****           /* Decrement the loop counter */
 442:../Dave/Generated/CMSIS_DSP/FilteringFunctions/arm_conv_partial_fast_q31.c ****           k--;
 443:../Dave/Generated/CMSIS_DSP/FilteringFunctions/arm_conv_partial_fast_q31.c ****         }
 444:../Dave/Generated/CMSIS_DSP/FilteringFunctions/arm_conv_partial_fast_q31.c **** 
 445:../Dave/Generated/CMSIS_DSP/FilteringFunctions/arm_conv_partial_fast_q31.c ****         /* Store the result in the accumulator in the destination buffer. */
 446:../Dave/Generated/CMSIS_DSP/FilteringFunctions/arm_conv_partial_fast_q31.c ****         *pOut++ = sum << 1;
 447:../Dave/Generated/CMSIS_DSP/FilteringFunctions/arm_conv_partial_fast_q31.c **** 
 448:../Dave/Generated/CMSIS_DSP/FilteringFunctions/arm_conv_partial_fast_q31.c ****         /* Increment the MAC count */
 449:../Dave/Generated/CMSIS_DSP/FilteringFunctions/arm_conv_partial_fast_q31.c ****         count++;
 450:../Dave/Generated/CMSIS_DSP/FilteringFunctions/arm_conv_partial_fast_q31.c **** 
 451:../Dave/Generated/CMSIS_DSP/FilteringFunctions/arm_conv_partial_fast_q31.c ****         /* Update the inputA and inputB pointers for next MAC calculation */
 452:../Dave/Generated/CMSIS_DSP/FilteringFunctions/arm_conv_partial_fast_q31.c ****         px = pIn1 + count;
 872              	 .loc 1 452 0
 873 04f0 009A     	 ldr r2,[sp]
 446:../Dave/Generated/CMSIS_DSP/FilteringFunctions/arm_conv_partial_fast_q31.c **** 
 874              	 .loc 1 446 0
 875 04f2 319B     	 ldr r3,[sp,#196]
 876 04f4 7600     	 lsls r6,r6,#1
 877              	 .loc 1 452 0
 878 04f6 9446     	 mov ip,r2
 879 04f8 0432     	 adds r2,r2,#4
 446:../Dave/Generated/CMSIS_DSP/FilteringFunctions/arm_conv_partial_fast_q31.c **** 
 880              	 .loc 1 446 0
 881 04fa 43F8046B 	 str r6,[r3],#4
 882 04fe 0092     	 str r2,[sp]
 405:../Dave/Generated/CMSIS_DSP/FilteringFunctions/arm_conv_partial_fast_q31.c ****       {
 883              	 .loc 1 405 0
 884 0500 069A     	 ldr r2,[sp,#24]
 446:../Dave/Generated/CMSIS_DSP/FilteringFunctions/arm_conv_partial_fast_q31.c **** 
 885              	 .loc 1 446 0
 886 0502 3193     	 str r3,[sp,#196]
 887              	.LVL131:
 405:../Dave/Generated/CMSIS_DSP/FilteringFunctions/arm_conv_partial_fast_q31.c ****       {
 888              	 .loc 1 405 0
 889 0504 9342     	 cmp r3,r2
 890 0506 ABD1     	 bne .L26
 891 0508 9646     	 mov lr,r2
 892              	.LVL132:
 893              	.L22:
 894 050a 489E     	 ldr r6,[sp,#288]
 453:../Dave/Generated/CMSIS_DSP/FilteringFunctions/arm_conv_partial_fast_q31.c ****         py = pSrc2;
 454:../Dave/Generated/CMSIS_DSP/FilteringFunctions/arm_conv_partial_fast_q31.c **** 
 455:../Dave/Generated/CMSIS_DSP/FilteringFunctions/arm_conv_partial_fast_q31.c ****         /* Decrement the loop counter */
 456:../Dave/Generated/CMSIS_DSP/FilteringFunctions/arm_conv_partial_fast_q31.c ****         blkCnt--;
 457:../Dave/Generated/CMSIS_DSP/FilteringFunctions/arm_conv_partial_fast_q31.c ****       }
 458:../Dave/Generated/CMSIS_DSP/FilteringFunctions/arm_conv_partial_fast_q31.c ****     }
 459:../Dave/Generated/CMSIS_DSP/FilteringFunctions/arm_conv_partial_fast_q31.c ****     else
 460:../Dave/Generated/CMSIS_DSP/FilteringFunctions/arm_conv_partial_fast_q31.c ****     {
 461:../Dave/Generated/CMSIS_DSP/FilteringFunctions/arm_conv_partial_fast_q31.c ****       /* If the srcBLen is not a multiple of 4,
 462:../Dave/Generated/CMSIS_DSP/FilteringFunctions/arm_conv_partial_fast_q31.c ****        * the blockSize2 loop cannot be unrolled by 4 */
 463:../Dave/Generated/CMSIS_DSP/FilteringFunctions/arm_conv_partial_fast_q31.c ****       blkCnt = (uint32_t) blockSize2;
 464:../Dave/Generated/CMSIS_DSP/FilteringFunctions/arm_conv_partial_fast_q31.c **** 
 465:../Dave/Generated/CMSIS_DSP/FilteringFunctions/arm_conv_partial_fast_q31.c ****       while (blkCnt > 0u)
 466:../Dave/Generated/CMSIS_DSP/FilteringFunctions/arm_conv_partial_fast_q31.c ****       {
 467:../Dave/Generated/CMSIS_DSP/FilteringFunctions/arm_conv_partial_fast_q31.c ****         /* Accumulator is made zero for every iteration */
 468:../Dave/Generated/CMSIS_DSP/FilteringFunctions/arm_conv_partial_fast_q31.c ****         sum = 0;
 469:../Dave/Generated/CMSIS_DSP/FilteringFunctions/arm_conv_partial_fast_q31.c **** 
 470:../Dave/Generated/CMSIS_DSP/FilteringFunctions/arm_conv_partial_fast_q31.c ****         /* srcBLen number of MACS should be performed */
 471:../Dave/Generated/CMSIS_DSP/FilteringFunctions/arm_conv_partial_fast_q31.c ****         k = srcBLen;
 472:../Dave/Generated/CMSIS_DSP/FilteringFunctions/arm_conv_partial_fast_q31.c **** 
 473:../Dave/Generated/CMSIS_DSP/FilteringFunctions/arm_conv_partial_fast_q31.c ****         while (k > 0u)
 474:../Dave/Generated/CMSIS_DSP/FilteringFunctions/arm_conv_partial_fast_q31.c ****         {
 475:../Dave/Generated/CMSIS_DSP/FilteringFunctions/arm_conv_partial_fast_q31.c ****           /* Perform the multiply-accumulate */
 476:../Dave/Generated/CMSIS_DSP/FilteringFunctions/arm_conv_partial_fast_q31.c ****           sum = (q31_t) ((((q63_t) sum << 32) +
 477:../Dave/Generated/CMSIS_DSP/FilteringFunctions/arm_conv_partial_fast_q31.c ****                           ((q63_t) * px++ * (*py--))) >> 32);
 478:../Dave/Generated/CMSIS_DSP/FilteringFunctions/arm_conv_partial_fast_q31.c **** 
 479:../Dave/Generated/CMSIS_DSP/FilteringFunctions/arm_conv_partial_fast_q31.c ****           /* Decrement the loop counter */
 480:../Dave/Generated/CMSIS_DSP/FilteringFunctions/arm_conv_partial_fast_q31.c ****           k--;
 481:../Dave/Generated/CMSIS_DSP/FilteringFunctions/arm_conv_partial_fast_q31.c ****         }
 482:../Dave/Generated/CMSIS_DSP/FilteringFunctions/arm_conv_partial_fast_q31.c **** 
 483:../Dave/Generated/CMSIS_DSP/FilteringFunctions/arm_conv_partial_fast_q31.c ****         /* Store the result in the accumulator in the destination buffer. */
 484:../Dave/Generated/CMSIS_DSP/FilteringFunctions/arm_conv_partial_fast_q31.c ****         *pOut++ = sum << 1;
 485:../Dave/Generated/CMSIS_DSP/FilteringFunctions/arm_conv_partial_fast_q31.c **** 
 486:../Dave/Generated/CMSIS_DSP/FilteringFunctions/arm_conv_partial_fast_q31.c ****         /* Increment the MAC count */
 487:../Dave/Generated/CMSIS_DSP/FilteringFunctions/arm_conv_partial_fast_q31.c ****         count++;
 488:../Dave/Generated/CMSIS_DSP/FilteringFunctions/arm_conv_partial_fast_q31.c **** 
 489:../Dave/Generated/CMSIS_DSP/FilteringFunctions/arm_conv_partial_fast_q31.c ****         /* Update the inputA and inputB pointers for next MAC calculation */
 490:../Dave/Generated/CMSIS_DSP/FilteringFunctions/arm_conv_partial_fast_q31.c ****         px = pIn1 + count;
 491:../Dave/Generated/CMSIS_DSP/FilteringFunctions/arm_conv_partial_fast_q31.c ****         py = pSrc2;
 492:../Dave/Generated/CMSIS_DSP/FilteringFunctions/arm_conv_partial_fast_q31.c **** 
 493:../Dave/Generated/CMSIS_DSP/FilteringFunctions/arm_conv_partial_fast_q31.c ****         /* Decrement the loop counter */
 494:../Dave/Generated/CMSIS_DSP/FilteringFunctions/arm_conv_partial_fast_q31.c ****         blkCnt--;
 495:../Dave/Generated/CMSIS_DSP/FilteringFunctions/arm_conv_partial_fast_q31.c ****       }
 496:../Dave/Generated/CMSIS_DSP/FilteringFunctions/arm_conv_partial_fast_q31.c ****     }
 497:../Dave/Generated/CMSIS_DSP/FilteringFunctions/arm_conv_partial_fast_q31.c **** 
 498:../Dave/Generated/CMSIS_DSP/FilteringFunctions/arm_conv_partial_fast_q31.c **** 
 499:../Dave/Generated/CMSIS_DSP/FilteringFunctions/arm_conv_partial_fast_q31.c ****     /* --------------------------
 500:../Dave/Generated/CMSIS_DSP/FilteringFunctions/arm_conv_partial_fast_q31.c ****      * Initializations of stage3
 501:../Dave/Generated/CMSIS_DSP/FilteringFunctions/arm_conv_partial_fast_q31.c ****      * -------------------------*/
 502:../Dave/Generated/CMSIS_DSP/FilteringFunctions/arm_conv_partial_fast_q31.c **** 
 503:../Dave/Generated/CMSIS_DSP/FilteringFunctions/arm_conv_partial_fast_q31.c ****     /* sum += x[srcALen-srcBLen+1] * y[srcBLen-1] + x[srcALen-srcBLen+2] * y[srcBLen-2] +...+ x[src
 504:../Dave/Generated/CMSIS_DSP/FilteringFunctions/arm_conv_partial_fast_q31.c ****      * sum += x[srcALen-srcBLen+2] * y[srcBLen-1] + x[srcALen-srcBLen+3] * y[srcBLen-2] +...+ x[src
 505:../Dave/Generated/CMSIS_DSP/FilteringFunctions/arm_conv_partial_fast_q31.c ****      * ....
 506:../Dave/Generated/CMSIS_DSP/FilteringFunctions/arm_conv_partial_fast_q31.c ****      * sum +=  x[srcALen-2] * y[srcBLen-1] + x[srcALen-1] * y[srcBLen-2]
 507:../Dave/Generated/CMSIS_DSP/FilteringFunctions/arm_conv_partial_fast_q31.c ****      * sum +=  x[srcALen-1] * y[srcBLen-1]
 508:../Dave/Generated/CMSIS_DSP/FilteringFunctions/arm_conv_partial_fast_q31.c ****      */
 509:../Dave/Generated/CMSIS_DSP/FilteringFunctions/arm_conv_partial_fast_q31.c **** 
 510:../Dave/Generated/CMSIS_DSP/FilteringFunctions/arm_conv_partial_fast_q31.c ****     /* In this stage the MAC operations are decreased by 1 for every iteration.
 511:../Dave/Generated/CMSIS_DSP/FilteringFunctions/arm_conv_partial_fast_q31.c ****        The count variable holds the number of MAC operations performed */
 512:../Dave/Generated/CMSIS_DSP/FilteringFunctions/arm_conv_partial_fast_q31.c ****     count = srcBLen - 1u;
 513:../Dave/Generated/CMSIS_DSP/FilteringFunctions/arm_conv_partial_fast_q31.c **** 
 514:../Dave/Generated/CMSIS_DSP/FilteringFunctions/arm_conv_partial_fast_q31.c ****     /* Working pointer of inputA */
 515:../Dave/Generated/CMSIS_DSP/FilteringFunctions/arm_conv_partial_fast_q31.c ****     pSrc1 = (pIn1 + srcALen) - (srcBLen - 1u);
 895              	 .loc 1 515 0
 896 050c 419B     	 ldr r3,[sp,#260]
 897 050e 0136     	 adds r6,r6,#1
 898 0510 F61A     	 subs r6,r6,r3
 899 0512 329B     	 ldr r3,[sp,#200]
 900 0514 03EB8606 	 add r6,r3,r6,lsl#2
 901              	.LVL133:
 516:../Dave/Generated/CMSIS_DSP/FilteringFunctions/arm_conv_partial_fast_q31.c ****     px = pSrc1;
 517:../Dave/Generated/CMSIS_DSP/FilteringFunctions/arm_conv_partial_fast_q31.c **** 
 518:../Dave/Generated/CMSIS_DSP/FilteringFunctions/arm_conv_partial_fast_q31.c ****     /* Working pointer of inputB */
 519:../Dave/Generated/CMSIS_DSP/FilteringFunctions/arm_conv_partial_fast_q31.c ****     pSrc2 = pIn2 + (srcBLen - 1u);
 520:../Dave/Generated/CMSIS_DSP/FilteringFunctions/arm_conv_partial_fast_q31.c ****     py = pSrc2;
 521:../Dave/Generated/CMSIS_DSP/FilteringFunctions/arm_conv_partial_fast_q31.c **** 
 522:../Dave/Generated/CMSIS_DSP/FilteringFunctions/arm_conv_partial_fast_q31.c ****     /* -------------------
 523:../Dave/Generated/CMSIS_DSP/FilteringFunctions/arm_conv_partial_fast_q31.c ****      * Stage3 process
 524:../Dave/Generated/CMSIS_DSP/FilteringFunctions/arm_conv_partial_fast_q31.c ****      * ------------------*/
 525:../Dave/Generated/CMSIS_DSP/FilteringFunctions/arm_conv_partial_fast_q31.c **** 
 526:../Dave/Generated/CMSIS_DSP/FilteringFunctions/arm_conv_partial_fast_q31.c ****     while (blockSize3 > 0)
 902              	 .loc 1 526 0
 903 0518 4A9B     	 ldr r3,[sp,#296]
 904 051a 002B     	 cmp r3,#0
 905 051c 68DD     	 ble .L40
 906 051e 1A46     	 mov r2,r3
 907 0520 309B     	 ldr r3,[sp,#192]
 908 0522 CDF810E0 	 str lr,[sp,#16]
 909 0526 9F1A     	 subs r7,r3,r2
 910 0528 4EAB     	 add r3,sp,#312
 911 052a D3E90001 	 ldrd r0,[r3]
 912 052e 309B     	 ldr r3,[sp,#192]
 913 0530 0096     	 str r6,[sp]
 914 0532 0897     	 str r7,[sp,#32]
 915              	.LVL134:
 916              	.L39:
 527:../Dave/Generated/CMSIS_DSP/FilteringFunctions/arm_conv_partial_fast_q31.c ****     {
 528:../Dave/Generated/CMSIS_DSP/FilteringFunctions/arm_conv_partial_fast_q31.c ****       /* Accumulator is made zero for every iteration */
 529:../Dave/Generated/CMSIS_DSP/FilteringFunctions/arm_conv_partial_fast_q31.c ****       sum = 0;
 530:../Dave/Generated/CMSIS_DSP/FilteringFunctions/arm_conv_partial_fast_q31.c **** 
 531:../Dave/Generated/CMSIS_DSP/FilteringFunctions/arm_conv_partial_fast_q31.c ****       /* Apply loop unrolling and compute 4 MACs simultaneously. */
 532:../Dave/Generated/CMSIS_DSP/FilteringFunctions/arm_conv_partial_fast_q31.c ****       k = count >> 2u;
 533:../Dave/Generated/CMSIS_DSP/FilteringFunctions/arm_conv_partial_fast_q31.c **** 
 534:../Dave/Generated/CMSIS_DSP/FilteringFunctions/arm_conv_partial_fast_q31.c ****       /* First part of the processing with loop unrolling.  Compute 4 MACs at a time.
 535:../Dave/Generated/CMSIS_DSP/FilteringFunctions/arm_conv_partial_fast_q31.c ****        ** a second loop below computes MACs for the remaining 1 to 3 samples. */
 536:../Dave/Generated/CMSIS_DSP/FilteringFunctions/arm_conv_partial_fast_q31.c ****       while (k > 0u)
 917              	 .loc 1 536 0
 918 0534 5FEA930C 	 lsrs ip,r3,#2
 919 0538 64D0     	 beq .L50
 920 053a 009B     	 ldr r3,[sp]
 921 053c 03F11002 	 add r2,r3,#16
 922 0540 339B     	 ldr r3,[sp,#204]
 923 0542 0026     	 movs r6,#0
 924 0544 103B     	 subs r3,r3,#16
 925 0546 E646     	 mov lr,ip
 926 0548 3446     	 mov r4,r6
 927              	.LVL135:
 928              	.L36:
 537:../Dave/Generated/CMSIS_DSP/FilteringFunctions/arm_conv_partial_fast_q31.c ****       {
 538:../Dave/Generated/CMSIS_DSP/FilteringFunctions/arm_conv_partial_fast_q31.c ****         /* sum += x[srcALen - srcBLen + 1] * y[srcBLen - 1] */
 539:../Dave/Generated/CMSIS_DSP/FilteringFunctions/arm_conv_partial_fast_q31.c ****         sum = (q31_t) ((((q63_t) sum << 32) +
 929              	 .loc 1 539 0
 930 054a 0020     	 movs r0,#0
 540:../Dave/Generated/CMSIS_DSP/FilteringFunctions/arm_conv_partial_fast_q31.c ****                         ((q63_t) * px++ * (*py--))) >> 32);
 931              	 .loc 1 540 0
 932 054c 52F8105C 	 ldr r5,[r2,#-16]
 933              	.LVL136:
 541:../Dave/Generated/CMSIS_DSP/FilteringFunctions/arm_conv_partial_fast_q31.c **** 
 542:../Dave/Generated/CMSIS_DSP/FilteringFunctions/arm_conv_partial_fast_q31.c ****         /* sum += x[srcALen - srcBLen + 2] * y[srcBLen - 2] */
 543:../Dave/Generated/CMSIS_DSP/FilteringFunctions/arm_conv_partial_fast_q31.c ****         sum = (q31_t) ((((q63_t) sum << 32) +
 934              	 .loc 1 543 0
 935 0550 0290     	 str r0,[sp,#8]
 539:../Dave/Generated/CMSIS_DSP/FilteringFunctions/arm_conv_partial_fast_q31.c ****                         ((q63_t) * px++ * (*py--))) >> 32);
 936              	 .loc 1 539 0
 937 0552 2146     	 mov r1,r4
 540:../Dave/Generated/CMSIS_DSP/FilteringFunctions/arm_conv_partial_fast_q31.c ****                         ((q63_t) * px++ * (*py--))) >> 32);
 938              	 .loc 1 540 0
 939 0554 1C69     	 ldr r4,[r3,#16]
 940              	.LVL137:
 539:../Dave/Generated/CMSIS_DSP/FilteringFunctions/arm_conv_partial_fast_q31.c ****                         ((q63_t) * px++ * (*py--))) >> 32);
 941              	 .loc 1 539 0
 942 0556 0646     	 mov r6,r0
 943 0558 0F46     	 mov r7,r1
 944 055a C4FB0567 	 smlal r6,r7,r4,r5
 945              	.LVL138:
 946              	 .loc 1 543 0
 947 055e 0397     	 str r7,[sp,#12]
 948 0560 DDE90267 	 ldrd r6,[sp,#8]
 544:../Dave/Generated/CMSIS_DSP/FilteringFunctions/arm_conv_partial_fast_q31.c ****                         ((q63_t) * px++ * (*py--))) >> 32);
 949              	 .loc 1 544 0
 950 0564 DC68     	 ldr r4,[r3,#12]
 543:../Dave/Generated/CMSIS_DSP/FilteringFunctions/arm_conv_partial_fast_q31.c ****                         ((q63_t) * px++ * (*py--))) >> 32);
 951              	 .loc 1 543 0
 952 0566 52F80C5C 	 ldr r5,[r2,#-12]
 953 056a C4FB0567 	 smlal r6,r7,r4,r5
 954              	.LVL139:
 545:../Dave/Generated/CMSIS_DSP/FilteringFunctions/arm_conv_partial_fast_q31.c **** 
 546:../Dave/Generated/CMSIS_DSP/FilteringFunctions/arm_conv_partial_fast_q31.c ****         /* sum += x[srcALen - srcBLen + 3] * y[srcBLen - 3] */
 547:../Dave/Generated/CMSIS_DSP/FilteringFunctions/arm_conv_partial_fast_q31.c ****         sum = (q31_t) ((((q63_t) sum << 32) +
 548:../Dave/Generated/CMSIS_DSP/FilteringFunctions/arm_conv_partial_fast_q31.c ****                         ((q63_t) * px++ * (*py--))) >> 32);
 955              	 .loc 1 548 0
 956 056e 9C68     	 ldr r4,[r3,#8]
 547:../Dave/Generated/CMSIS_DSP/FilteringFunctions/arm_conv_partial_fast_q31.c ****                         ((q63_t) * px++ * (*py--))) >> 32);
 957              	 .loc 1 547 0
 958 0570 52F8085C 	 ldr r5,[r2,#-8]
 959 0574 0646     	 mov r6,r0
 960 0576 C4FB0567 	 smlal r6,r7,r4,r5
 961              	.LVL140:
 962 057a 8246     	 mov r10,r0
 549:../Dave/Generated/CMSIS_DSP/FilteringFunctions/arm_conv_partial_fast_q31.c **** 
 550:../Dave/Generated/CMSIS_DSP/FilteringFunctions/arm_conv_partial_fast_q31.c ****         /* sum += x[srcALen - srcBLen + 4] * y[srcBLen - 4] */
 551:../Dave/Generated/CMSIS_DSP/FilteringFunctions/arm_conv_partial_fast_q31.c ****         sum = (q31_t) ((((q63_t) sum << 32) +
 552:../Dave/Generated/CMSIS_DSP/FilteringFunctions/arm_conv_partial_fast_q31.c ****                         ((q63_t) * px++ * (*py--))) >> 32);
 963              	 .loc 1 552 0
 964 057c 5C68     	 ldr r4,[r3,#4]
 551:../Dave/Generated/CMSIS_DSP/FilteringFunctions/arm_conv_partial_fast_q31.c ****                         ((q63_t) * px++ * (*py--))) >> 32);
 965              	 .loc 1 551 0
 966 057e 52F8045C 	 ldr r5,[r2,#-4]
 967 0582 5646     	 mov r6,r10
 968 0584 C4FB0567 	 smlal r6,r7,r4,r5
 536:../Dave/Generated/CMSIS_DSP/FilteringFunctions/arm_conv_partial_fast_q31.c ****       {
 969              	 .loc 1 536 0
 970 0588 BEF1010E 	 subs lr,lr,#1
 971              	.LVL141:
 972 058c 02F11002 	 add r2,r2,#16
 973              	.LVL142:
 551:../Dave/Generated/CMSIS_DSP/FilteringFunctions/arm_conv_partial_fast_q31.c ****                         ((q63_t) * px++ * (*py--))) >> 32);
 974              	 .loc 1 551 0
 975 0590 3C46     	 mov r4,r7
 976              	.LVL143:
 977 0592 A3F11003 	 sub r3,r3,#16
 978              	.LVL144:
 536:../Dave/Generated/CMSIS_DSP/FilteringFunctions/arm_conv_partial_fast_q31.c ****       {
 979              	 .loc 1 536 0
 980 0596 D8D1     	 bne .L36
 981 0598 009B     	 ldr r3,[sp]
 982              	.LVL145:
 983 059a 03EB0C1E 	 add lr,r3,ip,lsl#4
 984 059e 339B     	 ldr r3,[sp,#204]
 985 05a0 3E46     	 mov r6,r7
 986 05a2 A3EB0C1C 	 sub ip,r3,ip,lsl#4
 987              	.LVL146:
 988              	.L35:
 553:../Dave/Generated/CMSIS_DSP/FilteringFunctions/arm_conv_partial_fast_q31.c **** 
 554:../Dave/Generated/CMSIS_DSP/FilteringFunctions/arm_conv_partial_fast_q31.c ****         /* Decrement the loop counter */
 555:../Dave/Generated/CMSIS_DSP/FilteringFunctions/arm_conv_partial_fast_q31.c ****         k--;
 556:../Dave/Generated/CMSIS_DSP/FilteringFunctions/arm_conv_partial_fast_q31.c ****       }
 557:../Dave/Generated/CMSIS_DSP/FilteringFunctions/arm_conv_partial_fast_q31.c **** 
 558:../Dave/Generated/CMSIS_DSP/FilteringFunctions/arm_conv_partial_fast_q31.c ****       /* If the count is not a multiple of 4, compute any remaining MACs here.
 559:../Dave/Generated/CMSIS_DSP/FilteringFunctions/arm_conv_partial_fast_q31.c ****        ** No loop unrolling is used. */
 560:../Dave/Generated/CMSIS_DSP/FilteringFunctions/arm_conv_partial_fast_q31.c ****       k = count % 0x4u;
 561:../Dave/Generated/CMSIS_DSP/FilteringFunctions/arm_conv_partial_fast_q31.c **** 
 562:../Dave/Generated/CMSIS_DSP/FilteringFunctions/arm_conv_partial_fast_q31.c ****       while (k > 0u)
 989              	 .loc 1 562 0
 990 05a6 309B     	 ldr r3,[sp,#192]
 991 05a8 13F00307 	 ands r7,r3,#3
 992              	.LVL147:
 993 05ac 13D0     	 beq .L37
 994 05ae CDE90601 	 strd r0,[sp,#24]
 995              	.LVL148:
 996              	.L38:
 563:../Dave/Generated/CMSIS_DSP/FilteringFunctions/arm_conv_partial_fast_q31.c ****       {
 564:../Dave/Generated/CMSIS_DSP/FilteringFunctions/arm_conv_partial_fast_q31.c ****         /* Perform the multiply-accumulates */
 565:../Dave/Generated/CMSIS_DSP/FilteringFunctions/arm_conv_partial_fast_q31.c ****         /* sum +=  x[srcALen-1] * y[srcBLen-1] */
 566:../Dave/Generated/CMSIS_DSP/FilteringFunctions/arm_conv_partial_fast_q31.c ****         sum = (q31_t) ((((q63_t) sum << 32) +
 567:../Dave/Generated/CMSIS_DSP/FilteringFunctions/arm_conv_partial_fast_q31.c ****                         ((q63_t) * px++ * (*py--))) >> 32);
 997              	 .loc 1 567 0
 998 05b2 5EF8042B 	 ldr r2,[lr],#4
 999              	.LVL149:
 1000 05b6 5CF80439 	 ldr r3,[ip],#-4
 1001              	.LVL150:
 566:../Dave/Generated/CMSIS_DSP/FilteringFunctions/arm_conv_partial_fast_q31.c ****                         ((q63_t) * px++ * (*py--))) >> 32);
 1002              	 .loc 1 566 0
 1003 05ba 0024     	 movs r4,#0
 1004 05bc 3146     	 mov r1,r6
 1005 05be 2046     	 mov r0,r4
 1006 05c0 C3FB0201 	 smlal r0,r1,r3,r2
 562:../Dave/Generated/CMSIS_DSP/FilteringFunctions/arm_conv_partial_fast_q31.c ****       {
 1007              	 .loc 1 562 0
 1008 05c4 013F     	 subs r7,r7,#1
 1009              	.LVL151:
 566:../Dave/Generated/CMSIS_DSP/FilteringFunctions/arm_conv_partial_fast_q31.c ****                         ((q63_t) * px++ * (*py--))) >> 32);
 1010              	 .loc 1 566 0
 1011 05c6 3546     	 mov r5,r6
 1012 05c8 0E46     	 mov r6,r1
 1013              	.LVL152:
 562:../Dave/Generated/CMSIS_DSP/FilteringFunctions/arm_conv_partial_fast_q31.c ****       {
 1014              	 .loc 1 562 0
 1015 05ca F2D1     	 bne .L38
 1016 05cc DDE90601 	 ldrd r0,[sp,#24]
 1017 05d0 CDE93445 	 strd r4,[sp,#208]
 1018 05d4 309B     	 ldr r3,[sp,#192]
 1019              	.L37:
 568:../Dave/Generated/CMSIS_DSP/FilteringFunctions/arm_conv_partial_fast_q31.c **** 
 569:../Dave/Generated/CMSIS_DSP/FilteringFunctions/arm_conv_partial_fast_q31.c ****         /* Decrement the loop counter */
 570:../Dave/Generated/CMSIS_DSP/FilteringFunctions/arm_conv_partial_fast_q31.c ****         k--;
 571:../Dave/Generated/CMSIS_DSP/FilteringFunctions/arm_conv_partial_fast_q31.c ****       }
 572:../Dave/Generated/CMSIS_DSP/FilteringFunctions/arm_conv_partial_fast_q31.c **** 
 573:../Dave/Generated/CMSIS_DSP/FilteringFunctions/arm_conv_partial_fast_q31.c ****       /* Store the result in the accumulator in the destination buffer. */
 574:../Dave/Generated/CMSIS_DSP/FilteringFunctions/arm_conv_partial_fast_q31.c ****       *pOut++ = sum << 1;
 1020              	 .loc 1 574 0
 1021 05d6 049A     	 ldr r2,[sp,#16]
 1022 05d8 7600     	 lsls r6,r6,#1
 1023 05da 42F8046B 	 str r6,[r2],#4
 1024 05de 0492     	 str r2,[sp,#16]
 1025              	.LVL153:
 575:../Dave/Generated/CMSIS_DSP/FilteringFunctions/arm_conv_partial_fast_q31.c **** 
 576:../Dave/Generated/CMSIS_DSP/FilteringFunctions/arm_conv_partial_fast_q31.c ****       /* Update the inputA and inputB pointers for next MAC calculation */
 577:../Dave/Generated/CMSIS_DSP/FilteringFunctions/arm_conv_partial_fast_q31.c ****       px = ++pSrc1;
 1026              	 .loc 1 577 0
 1027 05e0 009A     	 ldr r2,[sp]
 1028              	.LVL154:
 1029 05e2 0432     	 adds r2,r2,#4
 1030 05e4 0092     	 str r2,[sp]
 1031              	.LVL155:
 526:../Dave/Generated/CMSIS_DSP/FilteringFunctions/arm_conv_partial_fast_q31.c ****     {
 1032              	 .loc 1 526 0
 1033 05e6 089A     	 ldr r2,[sp,#32]
 578:../Dave/Generated/CMSIS_DSP/FilteringFunctions/arm_conv_partial_fast_q31.c ****       py = pSrc2;
 579:../Dave/Generated/CMSIS_DSP/FilteringFunctions/arm_conv_partial_fast_q31.c **** 
 580:../Dave/Generated/CMSIS_DSP/FilteringFunctions/arm_conv_partial_fast_q31.c ****       /* Decrement the MAC count */
 581:../Dave/Generated/CMSIS_DSP/FilteringFunctions/arm_conv_partial_fast_q31.c ****       count--;
 1034              	 .loc 1 581 0
 1035 05e8 013B     	 subs r3,r3,#1
 1036              	.LVL156:
 526:../Dave/Generated/CMSIS_DSP/FilteringFunctions/arm_conv_partial_fast_q31.c ****     {
 1037              	 .loc 1 526 0
 1038 05ea 9342     	 cmp r3,r2
 1039              	 .loc 1 581 0
 1040 05ec 3093     	 str r3,[sp,#192]
 526:../Dave/Generated/CMSIS_DSP/FilteringFunctions/arm_conv_partial_fast_q31.c ****     {
 1041              	 .loc 1 526 0
 1042 05ee A1D1     	 bne .L39
 1043              	.LVL157:
 1044              	.L40:
 582:../Dave/Generated/CMSIS_DSP/FilteringFunctions/arm_conv_partial_fast_q31.c **** 
 583:../Dave/Generated/CMSIS_DSP/FilteringFunctions/arm_conv_partial_fast_q31.c ****       /* Decrement the loop counter */
 584:../Dave/Generated/CMSIS_DSP/FilteringFunctions/arm_conv_partial_fast_q31.c ****       blockSize3--;
 585:../Dave/Generated/CMSIS_DSP/FilteringFunctions/arm_conv_partial_fast_q31.c **** 
 586:../Dave/Generated/CMSIS_DSP/FilteringFunctions/arm_conv_partial_fast_q31.c ****     }
 587:../Dave/Generated/CMSIS_DSP/FilteringFunctions/arm_conv_partial_fast_q31.c **** 
 588:../Dave/Generated/CMSIS_DSP/FilteringFunctions/arm_conv_partial_fast_q31.c ****     /* set status as ARM_MATH_SUCCESS */
 589:../Dave/Generated/CMSIS_DSP/FilteringFunctions/arm_conv_partial_fast_q31.c ****     status = ARM_MATH_SUCCESS;
 1045              	 .loc 1 589 0
 1046 05f0 0020     	 movs r0,#0
 1047              	.LVL158:
 1048              	.L2:
 590:../Dave/Generated/CMSIS_DSP/FilteringFunctions/arm_conv_partial_fast_q31.c ****   }
 591:../Dave/Generated/CMSIS_DSP/FilteringFunctions/arm_conv_partial_fast_q31.c **** 
 592:../Dave/Generated/CMSIS_DSP/FilteringFunctions/arm_conv_partial_fast_q31.c ****   /* Return to application */
 593:../Dave/Generated/CMSIS_DSP/FilteringFunctions/arm_conv_partial_fast_q31.c ****   return (status);
 1049              	 .loc 1 593 0
 1050 05f2 40B2     	 sxtb r0,r0
 594:../Dave/Generated/CMSIS_DSP/FilteringFunctions/arm_conv_partial_fast_q31.c **** 
 595:../Dave/Generated/CMSIS_DSP/FilteringFunctions/arm_conv_partial_fast_q31.c **** }
 1051              	 .loc 1 595 0
 1052 05f4 5BB0     	 add sp,sp,#364
 1053              	.LCFI2:
 1054              	 .cfi_remember_state
 1055              	 .cfi_def_cfa_offset 36
 1056              	 
 1057 05f6 BDE8F08F 	 pop {r4,r5,r6,r7,r8,r9,r10,fp,pc}
 1058              	.LVL159:
 1059              	.L81:
 1060              	.LCFI3:
 1061              	 .cfi_restore_state
 1062 05fa 0EF1FF33 	 add r3,lr,#-1
 1063 05fe 3093     	 str r3,[sp,#192]
 1064 0600 489B     	 ldr r3,[sp,#288]
 1065 0602 1DE5     	 b .L3
 1066              	.LVL160:
 1067              	.L50:
 529:../Dave/Generated/CMSIS_DSP/FilteringFunctions/arm_conv_partial_fast_q31.c **** 
 1068              	 .loc 1 529 0
 1069 0604 6646     	 mov r6,ip
 536:../Dave/Generated/CMSIS_DSP/FilteringFunctions/arm_conv_partial_fast_q31.c ****       {
 1070              	 .loc 1 536 0
 1071 0606 DDF800E0 	 ldr lr,[sp]
 245:../Dave/Generated/CMSIS_DSP/FilteringFunctions/arm_conv_partial_fast_q31.c ****     py = pSrc2;
 1072              	 .loc 1 245 0
 1073 060a DDF8CCC0 	 ldr ip,[sp,#204]
 1074 060e CAE7     	 b .L35
 1075              	.LVL161:
 1076              	.L45:
 167:../Dave/Generated/CMSIS_DSP/FilteringFunctions/arm_conv_partial_fast_q31.c **** 
 1077              	 .loc 1 167 0
 1078 0610 3946     	 mov r1,r7
 174:../Dave/Generated/CMSIS_DSP/FilteringFunctions/arm_conv_partial_fast_q31.c ****       {
 1079              	 .loc 1 174 0
 1080 0612 329E     	 ldr r6,[sp,#200]
 1081 0614 6746     	 mov r7,ip
 1082              	.LVL162:
 1083 0616 82E5     	 b .L9
 1084              	.LVL163:
 1085              	.L15:
 465:../Dave/Generated/CMSIS_DSP/FilteringFunctions/arm_conv_partial_fast_q31.c ****       {
 1086              	 .loc 1 465 0
 1087 0618 4B9A     	 ldr r2,[sp,#300]
 1088 061a 002A     	 cmp r2,#0
 1089 061c 50D0     	 beq .L49
 1090 061e 419B     	 ldr r3,[sp,#260]
 1091              	.LVL164:
 1092 0620 002B     	 cmp r3,#0
 1093 0622 52D0     	 beq .L27
 1094 0624 022B     	 cmp r3,#2
 1095 0626 6FD0     	 beq .L28
 1096 0628 012B     	 cmp r3,#1
 1097 062a 319C     	 ldr r4,[sp,#196]
 1098 062c 59D0     	 beq .L29
 1099 062e 329B     	 ldr r3,[sp,#200]
 1100 0630 339D     	 ldr r5,[sp,#204]
 1101 0632 191D     	 adds r1,r3,#4
 1102 0634 04EB820E 	 add lr,r4,r2,lsl#2
 1103 0638 0E46     	 mov r6,r1
 1104              	.LVL165:
 1105              	.L30:
 477:../Dave/Generated/CMSIS_DSP/FilteringFunctions/arm_conv_partial_fast_q31.c **** 
 1106              	 .loc 1 477 0
 1107 063a 90E80210 	 ldmia r0,{r1,ip}
 1108              	.LVL166:
 1109 063e 8768     	 ldr r7,[r0,#8]
 1110 0640 2868     	 ldr r0,[r5]
 1111              	.LVL167:
 1112 0642 81FB0001 	 smull r0,r1,r1,r0
 476:../Dave/Generated/CMSIS_DSP/FilteringFunctions/arm_conv_partial_fast_q31.c ****                           ((q63_t) * px++ * (*py--))) >> 32);
 1113              	 .loc 1 476 0
 1114 0646 0B46     	 mov r3,r1
 477:../Dave/Generated/CMSIS_DSP/FilteringFunctions/arm_conv_partial_fast_q31.c **** 
 1115              	 .loc 1 477 0
 1116 0648 55F8040C 	 ldr r0,[r5,#-4]
 1117              	.LVL168:
 1118 064c 55F8081C 	 ldr r1,[r5,#-8]
 1119              	.LVL169:
 476:../Dave/Generated/CMSIS_DSP/FilteringFunctions/arm_conv_partial_fast_q31.c ****                           ((q63_t) * px++ * (*py--))) >> 32);
 1120              	 .loc 1 476 0
 1121 0650 0022     	 movs r2,#0
 1122 0652 9046     	 mov r8,r2
 1123 0654 9946     	 mov r9,r3
 1124 0656 C0FB0C89 	 smlal r8,r9,r0,ip
 1125 065a 9046     	 mov r8,r2
 1126 065c C1FB0789 	 smlal r8,r9,r1,r7
 1127 0660 4946     	 mov r1,r9
 1128              	.LVL170:
 1129 0662 4900     	 lsls r1,r1,#1
 1130              	.LVL171:
 484:../Dave/Generated/CMSIS_DSP/FilteringFunctions/arm_conv_partial_fast_q31.c **** 
 1131              	 .loc 1 484 0
 1132 0664 44F8041B 	 str r1,[r4],#4
 1133              	.LVL172:
 465:../Dave/Generated/CMSIS_DSP/FilteringFunctions/arm_conv_partial_fast_q31.c ****       {
 1134              	 .loc 1 465 0
 1135 0668 7445     	 cmp r4,lr
 490:../Dave/Generated/CMSIS_DSP/FilteringFunctions/arm_conv_partial_fast_q31.c ****         py = pSrc2;
 1136              	 .loc 1 490 0
 1137 066a 3046     	 mov r0,r6
 1138              	.LVL173:
 1139 066c 06F10406 	 add r6,r6,#4
 465:../Dave/Generated/CMSIS_DSP/FilteringFunctions/arm_conv_partial_fast_q31.c ****       {
 1140              	 .loc 1 465 0
 1141 0670 E3D1     	 bne .L30
 1142 0672 4AE7     	 b .L22
 1143              	.LVL174:
 1144              	.L7:
 119:../Dave/Generated/CMSIS_DSP/FilteringFunctions/arm_conv_partial_fast_q31.c ****                                     (int32_t) firstIndex);
 1145              	 .loc 1 119 0
 1146 0674 2C9A     	 ldr r2,[sp,#176]
 1147 0676 4A9B     	 ldr r3,[sp,#296]
 1148 0678 1344     	 add r3,r3,r2
 1149 067a 659A     	 ldr r2,[sp,#404]
 1150 067c 1344     	 add r3,r3,r2
 1151 067e F61A     	 subs r6,r6,r3
 1152              	.LVL175:
 121:../Dave/Generated/CMSIS_DSP/FilteringFunctions/arm_conv_partial_fast_q31.c **** 
 1153              	 .loc 1 121 0
 1154 0680 26EAE673 	 bic r3,r6,r6,asr#31
 1155 0684 4B93     	 str r3,[sp,#300]
 1156              	.LVL176:
 134:../Dave/Generated/CMSIS_DSP/FilteringFunctions/arm_conv_partial_fast_q31.c **** 
 1157              	 .loc 1 134 0
 1158 0686 649B     	 ldr r3,[sp,#400]
 1159              	.LVL177:
 1160 0688 4FEA820C 	 lsl ip,r2,#2
 1161 068c 6344     	 add r3,r3,ip
 1162 068e 3193     	 str r3,[sp,#196]
 1163              	.LVL178:
 156:../Dave/Generated/CMSIS_DSP/FilteringFunctions/arm_conv_partial_fast_q31.c ****     py = pSrc2;
 1164              	 .loc 1 156 0
 1165 0690 409B     	 ldr r3,[sp,#256]
 1166              	.LVL179:
 150:../Dave/Generated/CMSIS_DSP/FilteringFunctions/arm_conv_partial_fast_q31.c **** 
 1167              	 .loc 1 150 0
 1168 0692 02F1010E 	 add lr,r2,#1
 1169              	.LVL180:
 156:../Dave/Generated/CMSIS_DSP/FilteringFunctions/arm_conv_partial_fast_q31.c ****     py = pSrc2;
 1170              	 .loc 1 156 0
 1171 0696 9C44     	 add ip,ip,r3
 1172              	.LVL181:
 1173 0698 00E5     	 b .L13
 1174              	.LVL182:
 1175              	.L6:
 119:../Dave/Generated/CMSIS_DSP/FilteringFunctions/arm_conv_partial_fast_q31.c ****                                     (int32_t) firstIndex);
 1176              	 .loc 1 119 0
 1177 069a 659A     	 ldr r2,[sp,#404]
 1178 069c 4A9B     	 ldr r3,[sp,#296]
 235:../Dave/Generated/CMSIS_DSP/FilteringFunctions/arm_conv_partial_fast_q31.c ****     {
 1179              	 .loc 1 235 0
 1180 069e 6599     	 ldr r1,[sp,#404]
 119:../Dave/Generated/CMSIS_DSP/FilteringFunctions/arm_conv_partial_fast_q31.c ****                                     (int32_t) firstIndex);
 1181              	 .loc 1 119 0
 1182 06a0 1344     	 add r3,r3,r2
 1183 06a2 F61A     	 subs r6,r6,r3
 1184              	.LVL183:
 121:../Dave/Generated/CMSIS_DSP/FilteringFunctions/arm_conv_partial_fast_q31.c **** 
 1185              	 .loc 1 121 0
 1186 06a4 26EAE673 	 bic r3,r6,r6,asr#31
 1187 06a8 4B93     	 str r3,[sp,#300]
 1188              	.LVL184:
 134:../Dave/Generated/CMSIS_DSP/FilteringFunctions/arm_conv_partial_fast_q31.c **** 
 1189              	 .loc 1 134 0
 1190 06aa 649B     	 ldr r3,[sp,#400]
 1191              	.LVL185:
 1192 06ac 03EB8203 	 add r3,r3,r2,lsl#2
 235:../Dave/Generated/CMSIS_DSP/FilteringFunctions/arm_conv_partial_fast_q31.c ****     {
 1193              	 .loc 1 235 0
 1194 06b0 419A     	 ldr r2,[sp,#260]
 134:../Dave/Generated/CMSIS_DSP/FilteringFunctions/arm_conv_partial_fast_q31.c **** 
 1195              	 .loc 1 134 0
 1196 06b2 3193     	 str r3,[sp,#196]
 1197              	.LVL186:
 235:../Dave/Generated/CMSIS_DSP/FilteringFunctions/arm_conv_partial_fast_q31.c ****     {
 1198              	 .loc 1 235 0
 1199 06b4 8B1A     	 subs r3,r1,r2
 1200              	.LVL187:
 1201 06b6 002B     	 cmp r3,#0
 1202 06b8 BFF659AD 	 bge .L83
 1203              	.LVL188:
 1204              	.L46:
 241:../Dave/Generated/CMSIS_DSP/FilteringFunctions/arm_conv_partial_fast_q31.c ****     }
 1205              	 .loc 1 241 0
 1206 06bc 3298     	 ldr r0,[sp,#200]
 1207 06be 5BE5     	 b .L14
 1208              	.LVL189:
 1209              	.L49:
 465:../Dave/Generated/CMSIS_DSP/FilteringFunctions/arm_conv_partial_fast_q31.c ****       {
 1210              	 .loc 1 465 0
 1211 06c0 DDF8C4E0 	 ldr lr,[sp,#196]
 1212 06c4 21E7     	 b .L22
 1213              	.LVL190:
 1214              	.L42:
  81:../Dave/Generated/CMSIS_DSP/FilteringFunctions/arm_conv_partial_fast_q31.c ****   }
 1215              	 .loc 1 81 0
 1216 06c6 FF20     	 movs r0,#255
 1217              	.LVL191:
 1218 06c8 93E7     	 b .L2
 1219              	.LVL192:
 1220              	.L27:
 1221 06ca 1946     	 mov r1,r3
 484:../Dave/Generated/CMSIS_DSP/FilteringFunctions/arm_conv_partial_fast_q31.c **** 
 1222              	 .loc 1 484 0
 1223 06cc 4B9B     	 ldr r3,[sp,#300]
 1224 06ce 319D     	 ldr r5,[sp,#196]
 1225 06d0 9C00     	 lsls r4,r3,#2
 1226 06d2 2246     	 mov r2,r4
 1227              	.LVL193:
 1228 06d4 2846     	 mov r0,r5
 1229              	.LVL194:
 1230 06d6 FFF7FEFF 	 bl memset
 1231              	.LVL195:
 1232 06da 2B46     	 mov r3,r5
 1233 06dc 2344     	 add r3,r3,r4
 1234 06de 9E46     	 mov lr,r3
 1235 06e0 13E7     	 b .L22
 1236              	.LVL196:
 1237              	.L29:
 1238 06e2 4B9A     	 ldr r2,[sp,#300]
 1239              	.LVL197:
 1240 06e4 329B     	 ldr r3,[sp,#200]
 1241 06e6 339D     	 ldr r5,[sp,#204]
 1242 06e8 04EB820E 	 add lr,r4,r2,lsl#2
 1243 06ec 191D     	 adds r1,r3,#4
 1244              	.LVL198:
 1245              	.L31:
 477:../Dave/Generated/CMSIS_DSP/FilteringFunctions/arm_conv_partial_fast_q31.c **** 
 1246              	 .loc 1 477 0
 1247 06ee 0368     	 ldr r3,[r0]
 1248              	.LVL199:
 1249 06f0 2A68     	 ldr r2,[r5]
 1250              	.LVL200:
 1251 06f2 83FB0223 	 smull r2,r3,r3,r2
 1252              	.LVL201:
 1253 06f6 5B00     	 lsls r3,r3,#1
 1254              	.LVL202:
 484:../Dave/Generated/CMSIS_DSP/FilteringFunctions/arm_conv_partial_fast_q31.c **** 
 1255              	 .loc 1 484 0
 1256 06f8 44F8043B 	 str r3,[r4],#4
 1257              	.LVL203:
 465:../Dave/Generated/CMSIS_DSP/FilteringFunctions/arm_conv_partial_fast_q31.c ****       {
 1258              	 .loc 1 465 0
 1259 06fc 7445     	 cmp r4,lr
 490:../Dave/Generated/CMSIS_DSP/FilteringFunctions/arm_conv_partial_fast_q31.c ****         py = pSrc2;
 1260              	 .loc 1 490 0
 1261 06fe 0846     	 mov r0,r1
 1262              	.LVL204:
 1263 0700 01F10401 	 add r1,r1,#4
 465:../Dave/Generated/CMSIS_DSP/FilteringFunctions/arm_conv_partial_fast_q31.c ****       {
 1264              	 .loc 1 465 0
 1265 0704 F3D1     	 bne .L31
 1266 0706 00E7     	 b .L22
 1267              	.LVL205:
 1268              	.L28:
 1269 0708 3199     	 ldr r1,[sp,#196]
 1270 070a 4B9A     	 ldr r2,[sp,#300]
 1271              	.LVL206:
 1272 070c 329B     	 ldr r3,[sp,#200]
 1273 070e 339D     	 ldr r5,[sp,#204]
 1274 0710 01EB820E 	 add lr,r1,r2,lsl#2
 1275 0714 1C1D     	 adds r4,r3,#4
 1276              	.LVL207:
 1277              	.L33:
 477:../Dave/Generated/CMSIS_DSP/FilteringFunctions/arm_conv_partial_fast_q31.c **** 
 1278              	 .loc 1 477 0
 1279 0716 0268     	 ldr r2,[r0]
 1280              	.LVL208:
 1281 0718 2B68     	 ldr r3,[r5]
 1282              	.LVL209:
 1283 071a 4068     	 ldr r0,[r0,#4]
 1284              	.LVL210:
 1285 071c 82FB0323 	 smull r2,r3,r2,r3
 1286              	.LVL211:
 476:../Dave/Generated/CMSIS_DSP/FilteringFunctions/arm_conv_partial_fast_q31.c ****                           ((q63_t) * px++ * (*py--))) >> 32);
 1287              	 .loc 1 476 0
 1288 0720 9946     	 mov r9,r3
 1289 0722 0026     	 movs r6,#0
 1290 0724 55F8043C 	 ldr r3,[r5,#-4]
 1291 0728 B046     	 mov r8,r6
 1292 072a C3FB0089 	 smlal r8,r9,r3,r0
 1293 072e 4B46     	 mov r3,r9
 1294 0730 5B00     	 lsls r3,r3,#1
 484:../Dave/Generated/CMSIS_DSP/FilteringFunctions/arm_conv_partial_fast_q31.c **** 
 1295              	 .loc 1 484 0
 1296 0732 41F8043B 	 str r3,[r1],#4
 1297              	.LVL212:
 465:../Dave/Generated/CMSIS_DSP/FilteringFunctions/arm_conv_partial_fast_q31.c ****       {
 1298              	 .loc 1 465 0
 1299 0736 7145     	 cmp r1,lr
 490:../Dave/Generated/CMSIS_DSP/FilteringFunctions/arm_conv_partial_fast_q31.c ****         py = pSrc2;
 1300              	 .loc 1 490 0
 1301 0738 2046     	 mov r0,r4
 1302              	.LVL213:
 1303 073a 04F10404 	 add r4,r4,#4
 465:../Dave/Generated/CMSIS_DSP/FilteringFunctions/arm_conv_partial_fast_q31.c ****       {
 1304              	 .loc 1 465 0
 1305 073e EAD1     	 bne .L33
 1306 0740 E3E6     	 b .L22
 1307              	 .cfi_endproc
 1308              	.LFE135:
 1310              	 .text
 1311              	.Letext0:
 1312              	 .file 2 "c:\\infineon\\tools\\dave ide\\4.5.0.202105191637\\eclipse\\arm-gcc-49\\arm-none-eabi\\include\\machine\\_default_types.h"
 1313              	 .file 3 "c:\\infineon\\tools\\dave ide\\4.5.0.202105191637\\eclipse\\arm-gcc-49\\arm-none-eabi\\include\\stdint.h"
 1314              	 .file 4 "C:/Users/Utente/Desktop/Tesi/Firmware_Software/DAVE project/S2GLP_Pulsed_Doppler/Dave/Generated/CMSIS_DSP/arm_math.h"