   1              	 .syntax unified
   2              	 .cpu cortex-m4
   3              	 .eabi_attribute 27,3
   4              	 .fpu fpv4-sp-d16
   5              	 .eabi_attribute 20,1
   6              	 .eabi_attribute 21,1
   7              	 .eabi_attribute 23,3
   8              	 .eabi_attribute 24,1
   9              	 .eabi_attribute 25,1
  10              	 .eabi_attribute 26,1
  11              	 .eabi_attribute 30,2
  12              	 .eabi_attribute 34,1
  13              	 .eabi_attribute 18,4
  14              	 .thumb
  15              	 .file "arm_fir_interpolate_f32.c"
  16              	 .text
  17              	.Ltext0:
  18              	 .cfi_sections .debug_frame
  19              	 .section .text.arm_fir_interpolate_f32,"ax",%progbits
  20              	 .align 2
  21              	 .global arm_fir_interpolate_f32
  22              	 .thumb
  23              	 .thumb_func
  25              	arm_fir_interpolate_f32:
  26              	.LFB135:
  27              	 .file 1 "../Dave/Generated/CMSIS_DSP/FilteringFunctions/arm_fir_interpolate_f32.c"
   1:../Dave/Generated/CMSIS_DSP/FilteringFunctions/arm_fir_interpolate_f32.c **** /* ----------------------------------------------------------------------
   2:../Dave/Generated/CMSIS_DSP/FilteringFunctions/arm_fir_interpolate_f32.c ****  * Project:      CMSIS DSP Library
   3:../Dave/Generated/CMSIS_DSP/FilteringFunctions/arm_fir_interpolate_f32.c ****  * Title:        arm_fir_interpolate_f32.c
   4:../Dave/Generated/CMSIS_DSP/FilteringFunctions/arm_fir_interpolate_f32.c ****  * Description:  Floating-point FIR interpolation sequences
   5:../Dave/Generated/CMSIS_DSP/FilteringFunctions/arm_fir_interpolate_f32.c ****  *
   6:../Dave/Generated/CMSIS_DSP/FilteringFunctions/arm_fir_interpolate_f32.c ****  * $Date:        27. January 2017
   7:../Dave/Generated/CMSIS_DSP/FilteringFunctions/arm_fir_interpolate_f32.c ****  * $Revision:    V.1.5.1
   8:../Dave/Generated/CMSIS_DSP/FilteringFunctions/arm_fir_interpolate_f32.c ****  *
   9:../Dave/Generated/CMSIS_DSP/FilteringFunctions/arm_fir_interpolate_f32.c ****  * Target Processor: Cortex-M cores
  10:../Dave/Generated/CMSIS_DSP/FilteringFunctions/arm_fir_interpolate_f32.c ****  * -------------------------------------------------------------------- */
  11:../Dave/Generated/CMSIS_DSP/FilteringFunctions/arm_fir_interpolate_f32.c **** /*
  12:../Dave/Generated/CMSIS_DSP/FilteringFunctions/arm_fir_interpolate_f32.c ****  * Copyright (C) 2010-2017 ARM Limited or its affiliates. All rights reserved.
  13:../Dave/Generated/CMSIS_DSP/FilteringFunctions/arm_fir_interpolate_f32.c ****  *
  14:../Dave/Generated/CMSIS_DSP/FilteringFunctions/arm_fir_interpolate_f32.c ****  * SPDX-License-Identifier: Apache-2.0
  15:../Dave/Generated/CMSIS_DSP/FilteringFunctions/arm_fir_interpolate_f32.c ****  *
  16:../Dave/Generated/CMSIS_DSP/FilteringFunctions/arm_fir_interpolate_f32.c ****  * Licensed under the Apache License, Version 2.0 (the License); you may
  17:../Dave/Generated/CMSIS_DSP/FilteringFunctions/arm_fir_interpolate_f32.c ****  * not use this file except in compliance with the License.
  18:../Dave/Generated/CMSIS_DSP/FilteringFunctions/arm_fir_interpolate_f32.c ****  * You may obtain a copy of the License at
  19:../Dave/Generated/CMSIS_DSP/FilteringFunctions/arm_fir_interpolate_f32.c ****  *
  20:../Dave/Generated/CMSIS_DSP/FilteringFunctions/arm_fir_interpolate_f32.c ****  * www.apache.org/licenses/LICENSE-2.0
  21:../Dave/Generated/CMSIS_DSP/FilteringFunctions/arm_fir_interpolate_f32.c ****  *
  22:../Dave/Generated/CMSIS_DSP/FilteringFunctions/arm_fir_interpolate_f32.c ****  * Unless required by applicable law or agreed to in writing, software
  23:../Dave/Generated/CMSIS_DSP/FilteringFunctions/arm_fir_interpolate_f32.c ****  * distributed under the License is distributed on an AS IS BASIS, WITHOUT
  24:../Dave/Generated/CMSIS_DSP/FilteringFunctions/arm_fir_interpolate_f32.c ****  * WARRANTIES OR CONDITIONS OF ANY KIND, either express or implied.
  25:../Dave/Generated/CMSIS_DSP/FilteringFunctions/arm_fir_interpolate_f32.c ****  * See the License for the specific language governing permissions and
  26:../Dave/Generated/CMSIS_DSP/FilteringFunctions/arm_fir_interpolate_f32.c ****  * limitations under the License.
  27:../Dave/Generated/CMSIS_DSP/FilteringFunctions/arm_fir_interpolate_f32.c ****  */
  28:../Dave/Generated/CMSIS_DSP/FilteringFunctions/arm_fir_interpolate_f32.c **** 
  29:../Dave/Generated/CMSIS_DSP/FilteringFunctions/arm_fir_interpolate_f32.c **** #include "CMSIS_DSP/cmsis_dsp.h"
  30:../Dave/Generated/CMSIS_DSP/FilteringFunctions/arm_fir_interpolate_f32.c **** 
  31:../Dave/Generated/CMSIS_DSP/FilteringFunctions/arm_fir_interpolate_f32.c **** /**
  32:../Dave/Generated/CMSIS_DSP/FilteringFunctions/arm_fir_interpolate_f32.c ****  * @defgroup FIR_Interpolate Finite Impulse Response (FIR) Interpolator
  33:../Dave/Generated/CMSIS_DSP/FilteringFunctions/arm_fir_interpolate_f32.c ****  *
  34:../Dave/Generated/CMSIS_DSP/FilteringFunctions/arm_fir_interpolate_f32.c ****  * These functions combine an upsampler (zero stuffer) and an FIR filter.
  35:../Dave/Generated/CMSIS_DSP/FilteringFunctions/arm_fir_interpolate_f32.c ****  * They are used in multirate systems for increasing the sample rate of a signal without introducin
  36:../Dave/Generated/CMSIS_DSP/FilteringFunctions/arm_fir_interpolate_f32.c ****  * Conceptually, the functions are equivalent to the block diagram below:
  37:../Dave/Generated/CMSIS_DSP/FilteringFunctions/arm_fir_interpolate_f32.c ****  * \image html FIRInterpolator.gif "Components included in the FIR Interpolator functions"
  38:../Dave/Generated/CMSIS_DSP/FilteringFunctions/arm_fir_interpolate_f32.c ****  * After upsampling by a factor of <code>L</code>, the signal should be filtered by a lowpass filte
  39:../Dave/Generated/CMSIS_DSP/FilteringFunctions/arm_fir_interpolate_f32.c ****  * cutoff frequency of <code>1/L</code> in order to eliminate high frequency copies of the spectrum
  40:../Dave/Generated/CMSIS_DSP/FilteringFunctions/arm_fir_interpolate_f32.c ****  * The user of the function is responsible for providing the filter coefficients.
  41:../Dave/Generated/CMSIS_DSP/FilteringFunctions/arm_fir_interpolate_f32.c ****  *
  42:../Dave/Generated/CMSIS_DSP/FilteringFunctions/arm_fir_interpolate_f32.c ****  * The FIR interpolator functions provided in the CMSIS DSP Library combine the upsampler and FIR f
  43:../Dave/Generated/CMSIS_DSP/FilteringFunctions/arm_fir_interpolate_f32.c ****  * The upsampler inserts <code>L-1</code> zeros between each sample.
  44:../Dave/Generated/CMSIS_DSP/FilteringFunctions/arm_fir_interpolate_f32.c ****  * Instead of multiplying by these zero values, the FIR filter is designed to skip them.
  45:../Dave/Generated/CMSIS_DSP/FilteringFunctions/arm_fir_interpolate_f32.c ****  * This leads to an efficient implementation without any wasted effort.
  46:../Dave/Generated/CMSIS_DSP/FilteringFunctions/arm_fir_interpolate_f32.c ****  * The functions operate on blocks of input and output data.
  47:../Dave/Generated/CMSIS_DSP/FilteringFunctions/arm_fir_interpolate_f32.c ****  * <code>pSrc</code> points to an array of <code>blockSize</code> input values and
  48:../Dave/Generated/CMSIS_DSP/FilteringFunctions/arm_fir_interpolate_f32.c ****  * <code>pDst</code> points to an array of <code>blockSize*L</code> output values.
  49:../Dave/Generated/CMSIS_DSP/FilteringFunctions/arm_fir_interpolate_f32.c ****  *
  50:../Dave/Generated/CMSIS_DSP/FilteringFunctions/arm_fir_interpolate_f32.c ****  * The library provides separate functions for Q15, Q31, and floating-point data types.
  51:../Dave/Generated/CMSIS_DSP/FilteringFunctions/arm_fir_interpolate_f32.c ****  *
  52:../Dave/Generated/CMSIS_DSP/FilteringFunctions/arm_fir_interpolate_f32.c ****  * \par Algorithm:
  53:../Dave/Generated/CMSIS_DSP/FilteringFunctions/arm_fir_interpolate_f32.c ****  * The functions use a polyphase filter structure:
  54:../Dave/Generated/CMSIS_DSP/FilteringFunctions/arm_fir_interpolate_f32.c ****  * <pre>
  55:../Dave/Generated/CMSIS_DSP/FilteringFunctions/arm_fir_interpolate_f32.c ****  *    y[n] = b[0] * x[n] + b[L]   * x[n-1] + ... + b[L*(phaseLength-1)] * x[n-phaseLength+1]
  56:../Dave/Generated/CMSIS_DSP/FilteringFunctions/arm_fir_interpolate_f32.c ****  *    y[n+1] = b[1] * x[n] + b[L+1] * x[n-1] + ... + b[L*(phaseLength-1)+1] * x[n-phaseLength+1]
  57:../Dave/Generated/CMSIS_DSP/FilteringFunctions/arm_fir_interpolate_f32.c ****  *    ...
  58:../Dave/Generated/CMSIS_DSP/FilteringFunctions/arm_fir_interpolate_f32.c ****  *    y[n+(L-1)] = b[L-1] * x[n] + b[2*L-1] * x[n-1] + ....+ b[L*(phaseLength-1)+(L-1)] * x[n-phase
  59:../Dave/Generated/CMSIS_DSP/FilteringFunctions/arm_fir_interpolate_f32.c ****  * </pre>
  60:../Dave/Generated/CMSIS_DSP/FilteringFunctions/arm_fir_interpolate_f32.c ****  * This approach is more efficient than straightforward upsample-then-filter algorithms.
  61:../Dave/Generated/CMSIS_DSP/FilteringFunctions/arm_fir_interpolate_f32.c ****  * With this method the computation is reduced by a factor of <code>1/L</code> when compared to usi
  62:../Dave/Generated/CMSIS_DSP/FilteringFunctions/arm_fir_interpolate_f32.c ****  * \par
  63:../Dave/Generated/CMSIS_DSP/FilteringFunctions/arm_fir_interpolate_f32.c ****  * <code>pCoeffs</code> points to a coefficient array of size <code>numTaps</code>.
  64:../Dave/Generated/CMSIS_DSP/FilteringFunctions/arm_fir_interpolate_f32.c ****  * <code>numTaps</code> must be a multiple of the interpolation factor <code>L</code> and this is c
  65:../Dave/Generated/CMSIS_DSP/FilteringFunctions/arm_fir_interpolate_f32.c ****  * initialization functions.
  66:../Dave/Generated/CMSIS_DSP/FilteringFunctions/arm_fir_interpolate_f32.c ****  * Internally, the function divides the FIR filter's impulse response into shorter filters of lengt
  67:../Dave/Generated/CMSIS_DSP/FilteringFunctions/arm_fir_interpolate_f32.c ****  * <code>phaseLength=numTaps/L</code>.
  68:../Dave/Generated/CMSIS_DSP/FilteringFunctions/arm_fir_interpolate_f32.c ****  * Coefficients are stored in time reversed order.
  69:../Dave/Generated/CMSIS_DSP/FilteringFunctions/arm_fir_interpolate_f32.c ****  * \par
  70:../Dave/Generated/CMSIS_DSP/FilteringFunctions/arm_fir_interpolate_f32.c ****  * <pre>
  71:../Dave/Generated/CMSIS_DSP/FilteringFunctions/arm_fir_interpolate_f32.c ****  *    {b[numTaps-1], b[numTaps-2], b[N-2], ..., b[1], b[0]}
  72:../Dave/Generated/CMSIS_DSP/FilteringFunctions/arm_fir_interpolate_f32.c ****  * </pre>
  73:../Dave/Generated/CMSIS_DSP/FilteringFunctions/arm_fir_interpolate_f32.c ****  * \par
  74:../Dave/Generated/CMSIS_DSP/FilteringFunctions/arm_fir_interpolate_f32.c ****  * <code>pState</code> points to a state array of size <code>blockSize + phaseLength - 1</code>.
  75:../Dave/Generated/CMSIS_DSP/FilteringFunctions/arm_fir_interpolate_f32.c ****  * Samples in the state buffer are stored in the order:
  76:../Dave/Generated/CMSIS_DSP/FilteringFunctions/arm_fir_interpolate_f32.c ****  * \par
  77:../Dave/Generated/CMSIS_DSP/FilteringFunctions/arm_fir_interpolate_f32.c ****  * <pre>
  78:../Dave/Generated/CMSIS_DSP/FilteringFunctions/arm_fir_interpolate_f32.c ****  *    {x[n-phaseLength+1], x[n-phaseLength], x[n-phaseLength-1], x[n-phaseLength-2]....x[0], x[1], 
  79:../Dave/Generated/CMSIS_DSP/FilteringFunctions/arm_fir_interpolate_f32.c ****  * </pre>
  80:../Dave/Generated/CMSIS_DSP/FilteringFunctions/arm_fir_interpolate_f32.c ****  * The state variables are updated after each block of data is processed, the coefficients are unto
  81:../Dave/Generated/CMSIS_DSP/FilteringFunctions/arm_fir_interpolate_f32.c ****  *
  82:../Dave/Generated/CMSIS_DSP/FilteringFunctions/arm_fir_interpolate_f32.c ****  * \par Instance Structure
  83:../Dave/Generated/CMSIS_DSP/FilteringFunctions/arm_fir_interpolate_f32.c ****  * The coefficients and state variables for a filter are stored together in an instance data struct
  84:../Dave/Generated/CMSIS_DSP/FilteringFunctions/arm_fir_interpolate_f32.c ****  * A separate instance structure must be defined for each filter.
  85:../Dave/Generated/CMSIS_DSP/FilteringFunctions/arm_fir_interpolate_f32.c ****  * Coefficient arrays may be shared among several instances while state variable array should be al
  86:../Dave/Generated/CMSIS_DSP/FilteringFunctions/arm_fir_interpolate_f32.c ****  * There are separate instance structure declarations for each of the 3 supported data types.
  87:../Dave/Generated/CMSIS_DSP/FilteringFunctions/arm_fir_interpolate_f32.c ****  *
  88:../Dave/Generated/CMSIS_DSP/FilteringFunctions/arm_fir_interpolate_f32.c ****  * \par Initialization Functions
  89:../Dave/Generated/CMSIS_DSP/FilteringFunctions/arm_fir_interpolate_f32.c ****  * There is also an associated initialization function for each data type.
  90:../Dave/Generated/CMSIS_DSP/FilteringFunctions/arm_fir_interpolate_f32.c ****  * The initialization function performs the following operations:
  91:../Dave/Generated/CMSIS_DSP/FilteringFunctions/arm_fir_interpolate_f32.c ****  * - Sets the values of the internal structure fields.
  92:../Dave/Generated/CMSIS_DSP/FilteringFunctions/arm_fir_interpolate_f32.c ****  * - Zeros out the values in the state buffer.
  93:../Dave/Generated/CMSIS_DSP/FilteringFunctions/arm_fir_interpolate_f32.c ****  * - Checks to make sure that the length of the filter is a multiple of the interpolation factor.
  94:../Dave/Generated/CMSIS_DSP/FilteringFunctions/arm_fir_interpolate_f32.c ****  * To do this manually without calling the init function, assign the follow subfields of the instan
  95:../Dave/Generated/CMSIS_DSP/FilteringFunctions/arm_fir_interpolate_f32.c ****  * L (interpolation factor), pCoeffs, phaseLength (numTaps / L), pState. Also set all of the values
  96:../Dave/Generated/CMSIS_DSP/FilteringFunctions/arm_fir_interpolate_f32.c ****  *
  97:../Dave/Generated/CMSIS_DSP/FilteringFunctions/arm_fir_interpolate_f32.c ****  * \par
  98:../Dave/Generated/CMSIS_DSP/FilteringFunctions/arm_fir_interpolate_f32.c ****  * Use of the initialization function is optional.
  99:../Dave/Generated/CMSIS_DSP/FilteringFunctions/arm_fir_interpolate_f32.c ****  * However, if the initialization function is used, then the instance structure cannot be placed in
 100:../Dave/Generated/CMSIS_DSP/FilteringFunctions/arm_fir_interpolate_f32.c ****  * To place an instance structure into a const data section, the instance structure must be manuall
 101:../Dave/Generated/CMSIS_DSP/FilteringFunctions/arm_fir_interpolate_f32.c ****  * The code below statically initializes each of the 3 different data type filter instance structur
 102:../Dave/Generated/CMSIS_DSP/FilteringFunctions/arm_fir_interpolate_f32.c ****  * <pre>
 103:../Dave/Generated/CMSIS_DSP/FilteringFunctions/arm_fir_interpolate_f32.c ****  * arm_fir_interpolate_instance_f32 S = {L, phaseLength, pCoeffs, pState};
 104:../Dave/Generated/CMSIS_DSP/FilteringFunctions/arm_fir_interpolate_f32.c ****  * arm_fir_interpolate_instance_q31 S = {L, phaseLength, pCoeffs, pState};
 105:../Dave/Generated/CMSIS_DSP/FilteringFunctions/arm_fir_interpolate_f32.c ****  * arm_fir_interpolate_instance_q15 S = {L, phaseLength, pCoeffs, pState};
 106:../Dave/Generated/CMSIS_DSP/FilteringFunctions/arm_fir_interpolate_f32.c ****  * </pre>
 107:../Dave/Generated/CMSIS_DSP/FilteringFunctions/arm_fir_interpolate_f32.c ****  * where <code>L</code> is the interpolation factor; <code>phaseLength=numTaps/L</code> is the
 108:../Dave/Generated/CMSIS_DSP/FilteringFunctions/arm_fir_interpolate_f32.c ****  * length of each of the shorter FIR filters used internally,
 109:../Dave/Generated/CMSIS_DSP/FilteringFunctions/arm_fir_interpolate_f32.c ****  * <code>pCoeffs</code> is the address of the coefficient buffer;
 110:../Dave/Generated/CMSIS_DSP/FilteringFunctions/arm_fir_interpolate_f32.c ****  * <code>pState</code> is the address of the state buffer.
 111:../Dave/Generated/CMSIS_DSP/FilteringFunctions/arm_fir_interpolate_f32.c ****  * Be sure to set the values in the state buffer to zeros when doing static initialization.
 112:../Dave/Generated/CMSIS_DSP/FilteringFunctions/arm_fir_interpolate_f32.c ****  *
 113:../Dave/Generated/CMSIS_DSP/FilteringFunctions/arm_fir_interpolate_f32.c ****  * \par Fixed-Point Behavior
 114:../Dave/Generated/CMSIS_DSP/FilteringFunctions/arm_fir_interpolate_f32.c ****  * Care must be taken when using the fixed-point versions of the FIR interpolate filter functions.
 115:../Dave/Generated/CMSIS_DSP/FilteringFunctions/arm_fir_interpolate_f32.c ****  * In particular, the overflow and saturation behavior of the accumulator used in each function mus
 116:../Dave/Generated/CMSIS_DSP/FilteringFunctions/arm_fir_interpolate_f32.c ****  * Refer to the function specific documentation below for usage guidelines.
 117:../Dave/Generated/CMSIS_DSP/FilteringFunctions/arm_fir_interpolate_f32.c ****  */
 118:../Dave/Generated/CMSIS_DSP/FilteringFunctions/arm_fir_interpolate_f32.c **** 
 119:../Dave/Generated/CMSIS_DSP/FilteringFunctions/arm_fir_interpolate_f32.c **** /**
 120:../Dave/Generated/CMSIS_DSP/FilteringFunctions/arm_fir_interpolate_f32.c ****  * @addtogroup FIR_Interpolate
 121:../Dave/Generated/CMSIS_DSP/FilteringFunctions/arm_fir_interpolate_f32.c ****  * @{
 122:../Dave/Generated/CMSIS_DSP/FilteringFunctions/arm_fir_interpolate_f32.c ****  */
 123:../Dave/Generated/CMSIS_DSP/FilteringFunctions/arm_fir_interpolate_f32.c **** 
 124:../Dave/Generated/CMSIS_DSP/FilteringFunctions/arm_fir_interpolate_f32.c **** /**
 125:../Dave/Generated/CMSIS_DSP/FilteringFunctions/arm_fir_interpolate_f32.c ****  * @brief Processing function for the floating-point FIR interpolator.
 126:../Dave/Generated/CMSIS_DSP/FilteringFunctions/arm_fir_interpolate_f32.c ****  * @param[in] *S        points to an instance of the floating-point FIR interpolator structure.
 127:../Dave/Generated/CMSIS_DSP/FilteringFunctions/arm_fir_interpolate_f32.c ****  * @param[in] *pSrc     points to the block of input data.
 128:../Dave/Generated/CMSIS_DSP/FilteringFunctions/arm_fir_interpolate_f32.c ****  * @param[out] *pDst    points to the block of output data.
 129:../Dave/Generated/CMSIS_DSP/FilteringFunctions/arm_fir_interpolate_f32.c ****  * @param[in] blockSize number of input samples to process per call.
 130:../Dave/Generated/CMSIS_DSP/FilteringFunctions/arm_fir_interpolate_f32.c ****  * @return none.
 131:../Dave/Generated/CMSIS_DSP/FilteringFunctions/arm_fir_interpolate_f32.c ****  */
 132:../Dave/Generated/CMSIS_DSP/FilteringFunctions/arm_fir_interpolate_f32.c **** #if defined (ARM_MATH_DSP)
 133:../Dave/Generated/CMSIS_DSP/FilteringFunctions/arm_fir_interpolate_f32.c **** 
 134:../Dave/Generated/CMSIS_DSP/FilteringFunctions/arm_fir_interpolate_f32.c ****   /* Run the below code for Cortex-M4 and Cortex-M3 */
 135:../Dave/Generated/CMSIS_DSP/FilteringFunctions/arm_fir_interpolate_f32.c **** 
 136:../Dave/Generated/CMSIS_DSP/FilteringFunctions/arm_fir_interpolate_f32.c **** void arm_fir_interpolate_f32(
 137:../Dave/Generated/CMSIS_DSP/FilteringFunctions/arm_fir_interpolate_f32.c ****   const arm_fir_interpolate_instance_f32 * S,
 138:../Dave/Generated/CMSIS_DSP/FilteringFunctions/arm_fir_interpolate_f32.c ****   float32_t * pSrc,
 139:../Dave/Generated/CMSIS_DSP/FilteringFunctions/arm_fir_interpolate_f32.c ****   float32_t * pDst,
 140:../Dave/Generated/CMSIS_DSP/FilteringFunctions/arm_fir_interpolate_f32.c ****   uint32_t blockSize)
 141:../Dave/Generated/CMSIS_DSP/FilteringFunctions/arm_fir_interpolate_f32.c **** {
  28              	 .loc 1 141 0
  29              	 .cfi_startproc
  30              	 
  31              	 
  32              	.LVL0:
  33 0000 2DE9F04F 	 push {r4,r5,r6,r7,r8,r9,r10,fp,lr}
  34              	.LCFI0:
  35              	 .cfi_def_cfa_offset 36
  36              	 .cfi_offset 4,-36
  37              	 .cfi_offset 5,-32
  38              	 .cfi_offset 6,-28
  39              	 .cfi_offset 7,-24
  40              	 .cfi_offset 8,-20
  41              	 .cfi_offset 9,-16
  42              	 .cfi_offset 10,-12
  43              	 .cfi_offset 11,-8
  44              	 .cfi_offset 14,-4
  45 0004 8246     	 mov r10,r0
  46 0006 93B0     	 sub sp,sp,#76
  47              	.LCFI1:
  48              	 .cfi_def_cfa_offset 112
 142:../Dave/Generated/CMSIS_DSP/FilteringFunctions/arm_fir_interpolate_f32.c ****   float32_t *pState = S->pState;                 /* State pointer */
 143:../Dave/Generated/CMSIS_DSP/FilteringFunctions/arm_fir_interpolate_f32.c ****   float32_t *pCoeffs = S->pCoeffs;               /* Coefficient pointer */
 144:../Dave/Generated/CMSIS_DSP/FilteringFunctions/arm_fir_interpolate_f32.c ****   float32_t *pStateCurnt;                        /* Points to the current sample of the state */
 145:../Dave/Generated/CMSIS_DSP/FilteringFunctions/arm_fir_interpolate_f32.c ****   float32_t *ptr1, *ptr2;                        /* Temporary pointers for state and coefficient bu
 146:../Dave/Generated/CMSIS_DSP/FilteringFunctions/arm_fir_interpolate_f32.c ****   float32_t sum0;                                /* Accumulators */
 147:../Dave/Generated/CMSIS_DSP/FilteringFunctions/arm_fir_interpolate_f32.c ****   float32_t x0, c0;                              /* Temporary variables to hold state and coefficie
 148:../Dave/Generated/CMSIS_DSP/FilteringFunctions/arm_fir_interpolate_f32.c ****   uint32_t i, blkCnt, j;                         /* Loop counters */
 149:../Dave/Generated/CMSIS_DSP/FilteringFunctions/arm_fir_interpolate_f32.c ****   uint16_t phaseLen = S->phaseLength, tapCnt;    /* Length of each polyphase filter component */
  49              	 .loc 1 149 0
  50 0008 4088     	 ldrh r0,[r0,#2]
  51              	.LVL1:
 142:../Dave/Generated/CMSIS_DSP/FilteringFunctions/arm_fir_interpolate_f32.c ****   float32_t *pState = S->pState;                 /* State pointer */
  52              	 .loc 1 142 0
  53 000a DAF80840 	 ldr r4,[r10,#8]
 141:../Dave/Generated/CMSIS_DSP/FilteringFunctions/arm_fir_interpolate_f32.c ****   float32_t *pState = S->pState;                 /* State pointer */
  54              	 .loc 1 141 0
  55 000e 0A91     	 str r1,[sp,#40]
  56 0010 8E46     	 mov lr,r1
 150:../Dave/Generated/CMSIS_DSP/FilteringFunctions/arm_fir_interpolate_f32.c ****   float32_t acc0, acc1, acc2, acc3;
 151:../Dave/Generated/CMSIS_DSP/FilteringFunctions/arm_fir_interpolate_f32.c ****   float32_t x1, x2, x3;
 152:../Dave/Generated/CMSIS_DSP/FilteringFunctions/arm_fir_interpolate_f32.c ****   uint32_t blkCntN4;
 153:../Dave/Generated/CMSIS_DSP/FilteringFunctions/arm_fir_interpolate_f32.c ****   float32_t c1, c2, c3;
 154:../Dave/Generated/CMSIS_DSP/FilteringFunctions/arm_fir_interpolate_f32.c **** 
 155:../Dave/Generated/CMSIS_DSP/FilteringFunctions/arm_fir_interpolate_f32.c ****   /* S->pState buffer contains previous frame (phaseLen - 1) samples */
 156:../Dave/Generated/CMSIS_DSP/FilteringFunctions/arm_fir_interpolate_f32.c ****   /* pStateCurnt points to the location where the new input data should be written */
 157:../Dave/Generated/CMSIS_DSP/FilteringFunctions/arm_fir_interpolate_f32.c ****   pStateCurnt = S->pState + (phaseLen - 1u);
  57              	 .loc 1 157 0
  58 0012 00F18041 	 add r1,r0,#1073741824
  59              	.LVL2:
 142:../Dave/Generated/CMSIS_DSP/FilteringFunctions/arm_fir_interpolate_f32.c ****   float32_t *pCoeffs = S->pCoeffs;               /* Coefficient pointer */
  60              	 .loc 1 142 0
  61 0016 2546     	 mov r5,r4
  62              	 .loc 1 157 0
  63 0018 0139     	 subs r1,r1,#1
 141:../Dave/Generated/CMSIS_DSP/FilteringFunctions/arm_fir_interpolate_f32.c ****   float32_t *pState = S->pState;                 /* State pointer */
  64              	 .loc 1 141 0
  65 001a 0792     	 str r2,[sp,#28]
  66              	 .loc 1 157 0
  67 001c 05EB8102 	 add r2,r5,r1,lsl#2
  68              	.LVL3:
 142:../Dave/Generated/CMSIS_DSP/FilteringFunctions/arm_fir_interpolate_f32.c ****   float32_t *pCoeffs = S->pCoeffs;               /* Coefficient pointer */
  69              	 .loc 1 142 0
  70 0020 0D94     	 str r4,[sp,#52]
  71              	.LVL4:
  72              	 .loc 1 157 0
  73 0022 1646     	 mov r6,r2
 143:../Dave/Generated/CMSIS_DSP/FilteringFunctions/arm_fir_interpolate_f32.c ****   float32_t *pStateCurnt;                        /* Points to the current sample of the state */
  74              	 .loc 1 143 0
  75 0024 DAF80440 	 ldr r4,[r10,#4]
  76              	.LVL5:
  77              	 .loc 1 157 0
  78 0028 0E92     	 str r2,[sp,#56]
 158:../Dave/Generated/CMSIS_DSP/FilteringFunctions/arm_fir_interpolate_f32.c **** 
 159:../Dave/Generated/CMSIS_DSP/FilteringFunctions/arm_fir_interpolate_f32.c ****   /* Initialise  blkCnt */
 160:../Dave/Generated/CMSIS_DSP/FilteringFunctions/arm_fir_interpolate_f32.c ****   blkCnt = blockSize / 4;
 161:../Dave/Generated/CMSIS_DSP/FilteringFunctions/arm_fir_interpolate_f32.c ****   blkCntN4 = blockSize - (4 * blkCnt);
  79              	 .loc 1 161 0
  80 002a 03F00302 	 and r2,r3,#3
 162:../Dave/Generated/CMSIS_DSP/FilteringFunctions/arm_fir_interpolate_f32.c **** 
 163:../Dave/Generated/CMSIS_DSP/FilteringFunctions/arm_fir_interpolate_f32.c ****   /* Samples loop unrolled by 4 */
 164:../Dave/Generated/CMSIS_DSP/FilteringFunctions/arm_fir_interpolate_f32.c ****   while (blkCnt > 0u)
  81              	 .loc 1 164 0
  82 002e 9B08     	 lsrs r3,r3,#2
  83              	.LVL6:
 149:../Dave/Generated/CMSIS_DSP/FilteringFunctions/arm_fir_interpolate_f32.c ****   float32_t acc0, acc1, acc2, acc3;
  84              	 .loc 1 149 0
  85 0030 0F90     	 str r0,[sp,#60]
 143:../Dave/Generated/CMSIS_DSP/FilteringFunctions/arm_fir_interpolate_f32.c ****   float32_t *pStateCurnt;                        /* Points to the current sample of the state */
  86              	 .loc 1 143 0
  87 0032 0294     	 str r4,[sp,#8]
  88              	.LVL7:
 161:../Dave/Generated/CMSIS_DSP/FilteringFunctions/arm_fir_interpolate_f32.c **** 
  89              	 .loc 1 161 0
  90 0034 1092     	 str r2,[sp,#64]
  91              	.LVL8:
  92              	 .loc 1 164 0
  93 0036 1F46     	 mov r7,r3
  94 0038 1193     	 str r3,[sp,#68]
  95 003a 00F0D581 	 beq .L25
  96 003e 8308     	 lsrs r3,r0,#2
  97 0040 5A1E     	 subs r2,r3,#1
  98              	.LVL9:
  99 0042 0393     	 str r3,[sp,#12]
 100 0044 00F00303 	 and r3,r0,#3
 101 0048 0493     	 str r3,[sp,#16]
 102 004a 013B     	 subs r3,r3,#1
 103 004c 9BB2     	 uxth r3,r3
 104 004e 0133     	 adds r3,r3,#1
 105 0050 9B00     	 lsls r3,r3,#2
 106 0052 92B2     	 uxth r2,r2
 107 0054 0132     	 adds r2,r2,#1
 108 0056 0593     	 str r3,[sp,#20]
 109 0058 06F11003 	 add r3,r6,#16
 110 005c 1046     	 mov r0,r2
 111              	.LVL10:
 112 005e 0893     	 str r3,[sp,#32]
 113 0060 7346     	 mov r3,lr
 114 0062 0692     	 str r2,[sp,#24]
 115 0064 1033     	 adds r3,r3,#16
 116 0066 05EB0012 	 add r2,r5,r0,lsl#4
 117 006a 02F10C08 	 add r8,r2,#12
 118 006e 0993     	 str r3,[sp,#36]
 119 0070 05F10C0C 	 add ip,r5,#12
 120 0074 0C97     	 str r7,[sp,#48]
 121              	.LVL11:
 122              	.L10:
 165:../Dave/Generated/CMSIS_DSP/FilteringFunctions/arm_fir_interpolate_f32.c ****   {
 166:../Dave/Generated/CMSIS_DSP/FilteringFunctions/arm_fir_interpolate_f32.c ****     /* Copy new input sample into the state buffer */
 167:../Dave/Generated/CMSIS_DSP/FilteringFunctions/arm_fir_interpolate_f32.c ****     *pStateCurnt++ = *pSrc++;
 123              	 .loc 1 167 0
 124 0076 099A     	 ldr r2,[sp,#36]
 125 0078 089C     	 ldr r4,[sp,#32]
 126 007a 52F8103C 	 ldr r3,[r2,#-16]
 127 007e 44F8103C 	 str r3,[r4,#-16]
 128              	.LVL12:
 168:../Dave/Generated/CMSIS_DSP/FilteringFunctions/arm_fir_interpolate_f32.c ****     *pStateCurnt++ = *pSrc++;
 129              	 .loc 1 168 0
 130 0082 52F80C3C 	 ldr r3,[r2,#-12]
 131 0086 44F80C3C 	 str r3,[r4,#-12]
 132              	.LVL13:
 133 008a 1146     	 mov r1,r2
 169:../Dave/Generated/CMSIS_DSP/FilteringFunctions/arm_fir_interpolate_f32.c ****     *pStateCurnt++ = *pSrc++;
 134              	 .loc 1 169 0
 135 008c 51F8083C 	 ldr r3,[r1,#-8]
 136 0090 44F8083C 	 str r3,[r4,#-8]
 137              	.LVL14:
 170:../Dave/Generated/CMSIS_DSP/FilteringFunctions/arm_fir_interpolate_f32.c ****     *pStateCurnt++ = *pSrc++;
 138              	 .loc 1 170 0
 139 0094 51F8043C 	 ldr r3,[r1,#-4]
 140 0098 44F8043C 	 str r3,[r4,#-4]
 141              	.LVL15:
 171:../Dave/Generated/CMSIS_DSP/FilteringFunctions/arm_fir_interpolate_f32.c **** 
 172:../Dave/Generated/CMSIS_DSP/FilteringFunctions/arm_fir_interpolate_f32.c ****     /* Address modifier index of coefficient buffer */
 173:../Dave/Generated/CMSIS_DSP/FilteringFunctions/arm_fir_interpolate_f32.c ****     j = 1u;
 174:../Dave/Generated/CMSIS_DSP/FilteringFunctions/arm_fir_interpolate_f32.c **** 
 175:../Dave/Generated/CMSIS_DSP/FilteringFunctions/arm_fir_interpolate_f32.c ****     /* Loop over the Interpolation factor. */
 176:../Dave/Generated/CMSIS_DSP/FilteringFunctions/arm_fir_interpolate_f32.c ****     i = (S->L);
 142              	 .loc 1 176 0
 143 009c 9AF80030 	 ldrb r3,[r10]
 144 00a0 0B93     	 str r3,[sp,#44]
 145              	.LVL16:
 146 00a2 1C46     	 mov r4,r3
 177:../Dave/Generated/CMSIS_DSP/FilteringFunctions/arm_fir_interpolate_f32.c **** 
 178:../Dave/Generated/CMSIS_DSP/FilteringFunctions/arm_fir_interpolate_f32.c ****     while (i > 0u)
 147              	 .loc 1 178 0
 148 00a4 002B     	 cmp r3,#0
 149 00a6 00F09881 	 beq .L26
 150 00aa 03F10109 	 add r9,r3,#1
 151 00ae 079F     	 ldr r7,[sp,#28]
 152 00b0 0CF11003 	 add r3,ip,#16
 153              	.LVL17:
 154 00b4 4FF0010E 	 mov lr,#1
 155 00b8 0193     	 str r3,[sp,#4]
 156 00ba 08F11005 	 add r5,r8,#16
 157              	.LVL18:
 158              	.L9:
 179:../Dave/Generated/CMSIS_DSP/FilteringFunctions/arm_fir_interpolate_f32.c ****     {
 180:../Dave/Generated/CMSIS_DSP/FilteringFunctions/arm_fir_interpolate_f32.c ****       /* Set accumulator to zero */
 181:../Dave/Generated/CMSIS_DSP/FilteringFunctions/arm_fir_interpolate_f32.c ****       acc0 = 0.0f;
 182:../Dave/Generated/CMSIS_DSP/FilteringFunctions/arm_fir_interpolate_f32.c ****       acc1 = 0.0f;
 183:../Dave/Generated/CMSIS_DSP/FilteringFunctions/arm_fir_interpolate_f32.c ****       acc2 = 0.0f;
 184:../Dave/Generated/CMSIS_DSP/FilteringFunctions/arm_fir_interpolate_f32.c ****       acc3 = 0.0f;
 185:../Dave/Generated/CMSIS_DSP/FilteringFunctions/arm_fir_interpolate_f32.c **** 
 186:../Dave/Generated/CMSIS_DSP/FilteringFunctions/arm_fir_interpolate_f32.c ****       /* Initialize state pointer */
 187:../Dave/Generated/CMSIS_DSP/FilteringFunctions/arm_fir_interpolate_f32.c ****       ptr1 = pState;
 188:../Dave/Generated/CMSIS_DSP/FilteringFunctions/arm_fir_interpolate_f32.c **** 
 189:../Dave/Generated/CMSIS_DSP/FilteringFunctions/arm_fir_interpolate_f32.c ****       /* Initialize coefficient pointer */
 190:../Dave/Generated/CMSIS_DSP/FilteringFunctions/arm_fir_interpolate_f32.c ****       ptr2 = pCoeffs + (S->L - j);
 159              	 .loc 1 190 0
 160 00be 029B     	 ldr r3,[sp,#8]
 191:../Dave/Generated/CMSIS_DSP/FilteringFunctions/arm_fir_interpolate_f32.c **** 
 192:../Dave/Generated/CMSIS_DSP/FilteringFunctions/arm_fir_interpolate_f32.c ****       /* Loop over the polyPhase length. Unroll by a factor of 4.
 193:../Dave/Generated/CMSIS_DSP/FilteringFunctions/arm_fir_interpolate_f32.c ****        ** Repeat until we've computed numTaps-(4*S->L) coefficients. */
 194:../Dave/Generated/CMSIS_DSP/FilteringFunctions/arm_fir_interpolate_f32.c ****       tapCnt = phaseLen >> 2u;
 195:../Dave/Generated/CMSIS_DSP/FilteringFunctions/arm_fir_interpolate_f32.c **** 
 196:../Dave/Generated/CMSIS_DSP/FilteringFunctions/arm_fir_interpolate_f32.c ****       x0 = *(ptr1++);
 161              	 .loc 1 196 0
 162 00c0 5CED034A 	 flds s9,[ip,#-12]
 197:../Dave/Generated/CMSIS_DSP/FilteringFunctions/arm_fir_interpolate_f32.c ****       x1 = *(ptr1++);
 163              	 .loc 1 197 0
 164 00c4 5CED025A 	 flds s11,[ip,#-8]
 198:../Dave/Generated/CMSIS_DSP/FilteringFunctions/arm_fir_interpolate_f32.c ****       x2 = *(ptr1++);
 165              	 .loc 1 198 0
 166 00c8 1CED015A 	 flds s10,[ip,#-4]
 199:../Dave/Generated/CMSIS_DSP/FilteringFunctions/arm_fir_interpolate_f32.c **** 
 200:../Dave/Generated/CMSIS_DSP/FilteringFunctions/arm_fir_interpolate_f32.c ****       while (tapCnt > 0u)
 167              	 .loc 1 200 0
 168 00cc DFEDC77A 	 flds s15,.L54
 190:../Dave/Generated/CMSIS_DSP/FilteringFunctions/arm_fir_interpolate_f32.c **** 
 169              	 .loc 1 190 0
 170 00d0 CEEB0400 	 rsb r0,lr,r4
 171 00d4 03EB8000 	 add r0,r3,r0,lsl#2
 172              	.LVL19:
 173              	 .loc 1 200 0
 174 00d8 039B     	 ldr r3,[sp,#12]
 175 00da 002B     	 cmp r3,#0
 176 00dc 00F08180 	 beq .L27
 177 00e0 26B2     	 sxth r6,r4
 178 00e2 019B     	 ldr r3,[sp,#4]
 179 00e4 B100     	 lsls r1,r6,#2
 180 00e6 B0EE677A 	 fcpys s14,s15
 181 00ea F0EE676A 	 fcpys s13,s15
 182 00ee B0EE676A 	 fcpys s12,s15
 183 00f2 3601     	 lsls r6,r6,#4
 184 00f4 0246     	 mov r2,r0
 185              	.LVL20:
 186              	.L5:
 201:../Dave/Generated/CMSIS_DSP/FilteringFunctions/arm_fir_interpolate_f32.c ****       {
 202:../Dave/Generated/CMSIS_DSP/FilteringFunctions/arm_fir_interpolate_f32.c **** 
 203:../Dave/Generated/CMSIS_DSP/FilteringFunctions/arm_fir_interpolate_f32.c ****         /* Read the input sample */
 204:../Dave/Generated/CMSIS_DSP/FilteringFunctions/arm_fir_interpolate_f32.c ****         x3 = *(ptr1++);
 205:../Dave/Generated/CMSIS_DSP/FilteringFunctions/arm_fir_interpolate_f32.c **** 
 206:../Dave/Generated/CMSIS_DSP/FilteringFunctions/arm_fir_interpolate_f32.c ****         /* Read the coefficient */
 207:../Dave/Generated/CMSIS_DSP/FilteringFunctions/arm_fir_interpolate_f32.c ****         c0 = *(ptr2);
 187              	 .loc 1 207 0
 188 00f6 92ED004A 	 flds s8,[r2]
 204:../Dave/Generated/CMSIS_DSP/FilteringFunctions/arm_fir_interpolate_f32.c **** 
 189              	 .loc 1 204 0
 190 00fa 53ED043A 	 flds s7,[r3,#-16]
 191              	.LVL21:
 208:../Dave/Generated/CMSIS_DSP/FilteringFunctions/arm_fir_interpolate_f32.c **** 
 209:../Dave/Generated/CMSIS_DSP/FilteringFunctions/arm_fir_interpolate_f32.c ****         /* Perform the multiply-accumulate */
 210:../Dave/Generated/CMSIS_DSP/FilteringFunctions/arm_fir_interpolate_f32.c ****         acc0 += x0 * c0;
 192              	 .loc 1 210 0
 193 00fe A4EE846A 	 vfma.f32 s12,s9,s8
 194              	.LVL22:
 195 0102 0A44     	 add r2,r2,r1
 196              	.LVL23:
 197 0104 02EB010B 	 add fp,r2,r1
 211:../Dave/Generated/CMSIS_DSP/FilteringFunctions/arm_fir_interpolate_f32.c ****         acc1 += x1 * c0;
 198              	 .loc 1 211 0
 199 0108 E5EE846A 	 vfma.f32 s13,s11,s8
 200              	.LVL24:
 201 010c 1033     	 adds r3,r3,#16
 202              	.LVL25:
 212:../Dave/Generated/CMSIS_DSP/FilteringFunctions/arm_fir_interpolate_f32.c ****         acc2 += x2 * c0;
 203              	 .loc 1 212 0
 204 010e A5EE047A 	 vfma.f32 s14,s10,s8
 205              	.LVL26:
 213:../Dave/Generated/CMSIS_DSP/FilteringFunctions/arm_fir_interpolate_f32.c ****         acc3 += x3 * c0;
 206              	 .loc 1 213 0
 207 0112 E3EE847A 	 vfma.f32 s15,s7,s8
 208              	.LVL27:
 214:../Dave/Generated/CMSIS_DSP/FilteringFunctions/arm_fir_interpolate_f32.c **** 
 215:../Dave/Generated/CMSIS_DSP/FilteringFunctions/arm_fir_interpolate_f32.c ****         /* Read the coefficient */
 216:../Dave/Generated/CMSIS_DSP/FilteringFunctions/arm_fir_interpolate_f32.c ****         c1 = *(ptr2 + S->L);
 217:../Dave/Generated/CMSIS_DSP/FilteringFunctions/arm_fir_interpolate_f32.c **** 
 218:../Dave/Generated/CMSIS_DSP/FilteringFunctions/arm_fir_interpolate_f32.c ****         /* Read the input sample */
 219:../Dave/Generated/CMSIS_DSP/FilteringFunctions/arm_fir_interpolate_f32.c ****         x0 = *(ptr1++);
 209              	 .loc 1 219 0
 210 0116 53ED074A 	 flds s9,[r3,#-28]
 211              	.LVL28:
 216:../Dave/Generated/CMSIS_DSP/FilteringFunctions/arm_fir_interpolate_f32.c **** 
 212              	 .loc 1 216 0
 213 011a 92ED004A 	 flds s8,[r2]
 214              	.LVL29:
 220:../Dave/Generated/CMSIS_DSP/FilteringFunctions/arm_fir_interpolate_f32.c **** 
 221:../Dave/Generated/CMSIS_DSP/FilteringFunctions/arm_fir_interpolate_f32.c ****         /* Perform the multiply-accumulate */
 222:../Dave/Generated/CMSIS_DSP/FilteringFunctions/arm_fir_interpolate_f32.c ****         acc0 += x1 * c1;
 223:../Dave/Generated/CMSIS_DSP/FilteringFunctions/arm_fir_interpolate_f32.c ****         acc1 += x2 * c1;
 224:../Dave/Generated/CMSIS_DSP/FilteringFunctions/arm_fir_interpolate_f32.c ****         acc2 += x3 * c1;
 225:../Dave/Generated/CMSIS_DSP/FilteringFunctions/arm_fir_interpolate_f32.c ****         acc3 += x0 * c1;
 226:../Dave/Generated/CMSIS_DSP/FilteringFunctions/arm_fir_interpolate_f32.c **** 
 227:../Dave/Generated/CMSIS_DSP/FilteringFunctions/arm_fir_interpolate_f32.c ****         /* Read the coefficient */
 228:../Dave/Generated/CMSIS_DSP/FilteringFunctions/arm_fir_interpolate_f32.c ****         c2 = *(ptr2 + S->L * 2);
 215              	 .loc 1 228 0
 216 011e 9BED003A 	 flds s6,[fp]
 222:../Dave/Generated/CMSIS_DSP/FilteringFunctions/arm_fir_interpolate_f32.c ****         acc1 += x2 * c1;
 217              	 .loc 1 222 0
 218 0122 A5EE846A 	 vfma.f32 s12,s11,s8
 219              	.LVL30:
 220 0126 8B44     	 add fp,fp,r1
 229:../Dave/Generated/CMSIS_DSP/FilteringFunctions/arm_fir_interpolate_f32.c **** 
 230:../Dave/Generated/CMSIS_DSP/FilteringFunctions/arm_fir_interpolate_f32.c ****         /* Read the input sample */
 231:../Dave/Generated/CMSIS_DSP/FilteringFunctions/arm_fir_interpolate_f32.c ****         x1 = *(ptr1++);
 232:../Dave/Generated/CMSIS_DSP/FilteringFunctions/arm_fir_interpolate_f32.c **** 
 233:../Dave/Generated/CMSIS_DSP/FilteringFunctions/arm_fir_interpolate_f32.c ****         /* Perform the multiply-accumulate */
 234:../Dave/Generated/CMSIS_DSP/FilteringFunctions/arm_fir_interpolate_f32.c ****         acc0 += x2 * c2;
 235:../Dave/Generated/CMSIS_DSP/FilteringFunctions/arm_fir_interpolate_f32.c ****         acc1 += x3 * c2;
 236:../Dave/Generated/CMSIS_DSP/FilteringFunctions/arm_fir_interpolate_f32.c ****         acc2 += x0 * c2;
 237:../Dave/Generated/CMSIS_DSP/FilteringFunctions/arm_fir_interpolate_f32.c ****         acc3 += x1 * c2;
 238:../Dave/Generated/CMSIS_DSP/FilteringFunctions/arm_fir_interpolate_f32.c **** 
 239:../Dave/Generated/CMSIS_DSP/FilteringFunctions/arm_fir_interpolate_f32.c ****         /* Read the coefficient */
 240:../Dave/Generated/CMSIS_DSP/FilteringFunctions/arm_fir_interpolate_f32.c ****         c3 = *(ptr2 + S->L * 3);
 241:../Dave/Generated/CMSIS_DSP/FilteringFunctions/arm_fir_interpolate_f32.c **** 
 242:../Dave/Generated/CMSIS_DSP/FilteringFunctions/arm_fir_interpolate_f32.c ****         /* Read the input sample */
 243:../Dave/Generated/CMSIS_DSP/FilteringFunctions/arm_fir_interpolate_f32.c ****         x2 = *(ptr1++);
 244:../Dave/Generated/CMSIS_DSP/FilteringFunctions/arm_fir_interpolate_f32.c **** 
 245:../Dave/Generated/CMSIS_DSP/FilteringFunctions/arm_fir_interpolate_f32.c ****         /* Perform the multiply-accumulate */
 246:../Dave/Generated/CMSIS_DSP/FilteringFunctions/arm_fir_interpolate_f32.c ****         acc0 += x3 * c3;
 247:../Dave/Generated/CMSIS_DSP/FilteringFunctions/arm_fir_interpolate_f32.c ****         acc1 += x0 * c3;
 248:../Dave/Generated/CMSIS_DSP/FilteringFunctions/arm_fir_interpolate_f32.c ****         acc2 += x1 * c3;
 249:../Dave/Generated/CMSIS_DSP/FilteringFunctions/arm_fir_interpolate_f32.c ****         acc3 += x2 * c3;
 250:../Dave/Generated/CMSIS_DSP/FilteringFunctions/arm_fir_interpolate_f32.c **** 
 251:../Dave/Generated/CMSIS_DSP/FilteringFunctions/arm_fir_interpolate_f32.c **** 
 252:../Dave/Generated/CMSIS_DSP/FilteringFunctions/arm_fir_interpolate_f32.c ****         /* Upsampling is done by stuffing L-1 zeros between each sample.
 253:../Dave/Generated/CMSIS_DSP/FilteringFunctions/arm_fir_interpolate_f32.c ****          * So instead of multiplying zeros with coefficients,
 254:../Dave/Generated/CMSIS_DSP/FilteringFunctions/arm_fir_interpolate_f32.c ****          * Increment the coefficient pointer by interpolation factor times. */
 255:../Dave/Generated/CMSIS_DSP/FilteringFunctions/arm_fir_interpolate_f32.c ****         ptr2 += 4 * S->L;
 221              	 .loc 1 255 0
 222 0128 0BEB0102 	 add r2,fp,r1
 223:../Dave/Generated/CMSIS_DSP/FilteringFunctions/arm_fir_interpolate_f32.c ****         acc2 += x3 * c1;
 223              	 .loc 1 223 0
 224 012c E5EE046A 	 vfma.f32 s13,s10,s8
 225              	.LVL31:
 224:../Dave/Generated/CMSIS_DSP/FilteringFunctions/arm_fir_interpolate_f32.c ****         acc3 += x0 * c1;
 226              	 .loc 1 224 0
 227 0130 A3EE847A 	 vfma.f32 s14,s7,s8
 228              	.LVL32:
 225:../Dave/Generated/CMSIS_DSP/FilteringFunctions/arm_fir_interpolate_f32.c **** 
 229              	 .loc 1 225 0
 230 0134 E4EE847A 	 vfma.f32 s15,s9,s8
 231              	.LVL33:
 231:../Dave/Generated/CMSIS_DSP/FilteringFunctions/arm_fir_interpolate_f32.c **** 
 232              	 .loc 1 231 0
 233 0138 53ED065A 	 flds s11,[r3,#-24]
 234              	.LVL34:
 240:../Dave/Generated/CMSIS_DSP/FilteringFunctions/arm_fir_interpolate_f32.c **** 
 235              	 .loc 1 240 0
 236 013c 9BED004A 	 flds s8,[fp]
 237              	.LVL35:
 234:../Dave/Generated/CMSIS_DSP/FilteringFunctions/arm_fir_interpolate_f32.c ****         acc1 += x3 * c2;
 238              	 .loc 1 234 0
 239 0140 A5EE036A 	 vfma.f32 s12,s10,s6
 240              	.LVL36:
 235:../Dave/Generated/CMSIS_DSP/FilteringFunctions/arm_fir_interpolate_f32.c ****         acc2 += x0 * c2;
 241              	 .loc 1 235 0
 242 0144 E3EE836A 	 vfma.f32 s13,s7,s6
 243              	.LVL37:
 236:../Dave/Generated/CMSIS_DSP/FilteringFunctions/arm_fir_interpolate_f32.c ****         acc3 += x1 * c2;
 244              	 .loc 1 236 0
 245 0148 A4EE837A 	 vfma.f32 s14,s9,s6
 246              	.LVL38:
 237:../Dave/Generated/CMSIS_DSP/FilteringFunctions/arm_fir_interpolate_f32.c **** 
 247              	 .loc 1 237 0
 248 014c E5EE837A 	 vfma.f32 s15,s11,s6
 249              	.LVL39:
 243:../Dave/Generated/CMSIS_DSP/FilteringFunctions/arm_fir_interpolate_f32.c **** 
 250              	 .loc 1 243 0
 251 0150 13ED055A 	 flds s10,[r3,#-20]
 252              	.LVL40:
 200:../Dave/Generated/CMSIS_DSP/FilteringFunctions/arm_fir_interpolate_f32.c ****       {
 253              	 .loc 1 200 0
 254 0154 AB42     	 cmp r3,r5
 246:../Dave/Generated/CMSIS_DSP/FilteringFunctions/arm_fir_interpolate_f32.c ****         acc1 += x0 * c3;
 255              	 .loc 1 246 0
 256 0156 A3EE846A 	 vfma.f32 s12,s7,s8
 257              	.LVL41:
 247:../Dave/Generated/CMSIS_DSP/FilteringFunctions/arm_fir_interpolate_f32.c ****         acc2 += x1 * c3;
 258              	 .loc 1 247 0
 259 015a E4EE846A 	 vfma.f32 s13,s9,s8
 260              	.LVL42:
 248:../Dave/Generated/CMSIS_DSP/FilteringFunctions/arm_fir_interpolate_f32.c ****         acc3 += x2 * c3;
 261              	 .loc 1 248 0
 262 015e A5EE847A 	 vfma.f32 s14,s11,s8
 263              	.LVL43:
 249:../Dave/Generated/CMSIS_DSP/FilteringFunctions/arm_fir_interpolate_f32.c **** 
 264              	 .loc 1 249 0
 265 0162 E5EE047A 	 vfma.f32 s15,s10,s8
 266              	.LVL44:
 200:../Dave/Generated/CMSIS_DSP/FilteringFunctions/arm_fir_interpolate_f32.c ****       {
 267              	 .loc 1 200 0
 268 0166 C6D1     	 bne .L5
 269 0168 069B     	 ldr r3,[sp,#24]
 270 016a 06FB0300 	 mla r0,r6,r3,r0
 271 016e 4346     	 mov r3,r8
 272              	.LVL45:
 273              	.L4:
 256:../Dave/Generated/CMSIS_DSP/FilteringFunctions/arm_fir_interpolate_f32.c **** 
 257:../Dave/Generated/CMSIS_DSP/FilteringFunctions/arm_fir_interpolate_f32.c ****         /* Decrement the loop counter */
 258:../Dave/Generated/CMSIS_DSP/FilteringFunctions/arm_fir_interpolate_f32.c ****         tapCnt--;
 259:../Dave/Generated/CMSIS_DSP/FilteringFunctions/arm_fir_interpolate_f32.c ****       }
 260:../Dave/Generated/CMSIS_DSP/FilteringFunctions/arm_fir_interpolate_f32.c **** 
 261:../Dave/Generated/CMSIS_DSP/FilteringFunctions/arm_fir_interpolate_f32.c ****       /* If the polyPhase length is not a multiple of 4, compute the remaining filter taps */
 262:../Dave/Generated/CMSIS_DSP/FilteringFunctions/arm_fir_interpolate_f32.c ****       tapCnt = phaseLen % 0x4u;
 263:../Dave/Generated/CMSIS_DSP/FilteringFunctions/arm_fir_interpolate_f32.c **** 
 264:../Dave/Generated/CMSIS_DSP/FilteringFunctions/arm_fir_interpolate_f32.c ****       while (tapCnt > 0u)
 274              	 .loc 1 264 0
 275 0170 049A     	 ldr r2,[sp,#16]
 276 0172 BAB1     	 cbz r2,.L6
 277 0174 059A     	 ldr r2,[sp,#20]
 278 0176 A400     	 lsls r4,r4,#2
 279 0178 9A18     	 adds r2,r3,r2
 280              	.LVL46:
 281              	.L7:
 265:../Dave/Generated/CMSIS_DSP/FilteringFunctions/arm_fir_interpolate_f32.c ****       {
 266:../Dave/Generated/CMSIS_DSP/FilteringFunctions/arm_fir_interpolate_f32.c **** 
 267:../Dave/Generated/CMSIS_DSP/FilteringFunctions/arm_fir_interpolate_f32.c ****         /* Read the input sample */
 268:../Dave/Generated/CMSIS_DSP/FilteringFunctions/arm_fir_interpolate_f32.c ****         x3 = *(ptr1++);
 282              	 .loc 1 268 0
 283 017a F3EC013A 	 fldmias r3!,{s7}
 284              	.LVL47:
 269:../Dave/Generated/CMSIS_DSP/FilteringFunctions/arm_fir_interpolate_f32.c **** 
 270:../Dave/Generated/CMSIS_DSP/FilteringFunctions/arm_fir_interpolate_f32.c ****         /* Read the coefficient */
 271:../Dave/Generated/CMSIS_DSP/FilteringFunctions/arm_fir_interpolate_f32.c ****         c0 = *(ptr2);
 285              	 .loc 1 271 0
 286 017e 90ED004A 	 flds s8,[r0]
 287              	.LVL48:
 264:../Dave/Generated/CMSIS_DSP/FilteringFunctions/arm_fir_interpolate_f32.c ****       {
 288              	 .loc 1 264 0
 289 0182 9342     	 cmp r3,r2
 272:../Dave/Generated/CMSIS_DSP/FilteringFunctions/arm_fir_interpolate_f32.c **** 
 273:../Dave/Generated/CMSIS_DSP/FilteringFunctions/arm_fir_interpolate_f32.c ****         /* Perform the multiply-accumulate */
 274:../Dave/Generated/CMSIS_DSP/FilteringFunctions/arm_fir_interpolate_f32.c ****         acc0 += x0 * c0;
 290              	 .loc 1 274 0
 291 0184 A4EE846A 	 vfma.f32 s12,s9,s8
 292              	.LVL49:
 275:../Dave/Generated/CMSIS_DSP/FilteringFunctions/arm_fir_interpolate_f32.c ****         acc1 += x1 * c0;
 276:../Dave/Generated/CMSIS_DSP/FilteringFunctions/arm_fir_interpolate_f32.c ****         acc2 += x2 * c0;
 277:../Dave/Generated/CMSIS_DSP/FilteringFunctions/arm_fir_interpolate_f32.c ****         acc3 += x3 * c0;
 278:../Dave/Generated/CMSIS_DSP/FilteringFunctions/arm_fir_interpolate_f32.c **** 
 279:../Dave/Generated/CMSIS_DSP/FilteringFunctions/arm_fir_interpolate_f32.c ****         /* Increment the coefficient pointer by interpolation factor times. */
 280:../Dave/Generated/CMSIS_DSP/FilteringFunctions/arm_fir_interpolate_f32.c ****         ptr2 += S->L;
 293              	 .loc 1 280 0
 294 0188 2044     	 add r0,r0,r4
 295              	.LVL50:
 275:../Dave/Generated/CMSIS_DSP/FilteringFunctions/arm_fir_interpolate_f32.c ****         acc1 += x1 * c0;
 296              	 .loc 1 275 0
 297 018a E5EE846A 	 vfma.f32 s13,s11,s8
 298              	.LVL51:
 276:../Dave/Generated/CMSIS_DSP/FilteringFunctions/arm_fir_interpolate_f32.c ****         acc3 += x3 * c0;
 299              	 .loc 1 276 0
 300 018e A5EE047A 	 vfma.f32 s14,s10,s8
 301              	.LVL52:
 302 0192 F0EE654A 	 fcpys s9,s11
 303              	.LVL53:
 277:../Dave/Generated/CMSIS_DSP/FilteringFunctions/arm_fir_interpolate_f32.c **** 
 304              	 .loc 1 277 0
 305 0196 E3EE847A 	 vfma.f32 s15,s7,s8
 306              	.LVL54:
 307 019a F0EE455A 	 fcpys s11,s10
 308              	.LVL55:
 281:../Dave/Generated/CMSIS_DSP/FilteringFunctions/arm_fir_interpolate_f32.c **** 
 282:../Dave/Generated/CMSIS_DSP/FilteringFunctions/arm_fir_interpolate_f32.c ****         /* update states for next sample processing */
 283:../Dave/Generated/CMSIS_DSP/FilteringFunctions/arm_fir_interpolate_f32.c ****         x0 = x1;
 284:../Dave/Generated/CMSIS_DSP/FilteringFunctions/arm_fir_interpolate_f32.c ****         x1 = x2;
 285:../Dave/Generated/CMSIS_DSP/FilteringFunctions/arm_fir_interpolate_f32.c ****         x2 = x3;
 309              	 .loc 1 285 0
 310 019e B0EE635A 	 fcpys s10,s7
 311              	.LVL56:
 264:../Dave/Generated/CMSIS_DSP/FilteringFunctions/arm_fir_interpolate_f32.c ****       {
 312              	 .loc 1 264 0
 313 01a2 EAD1     	 bne .L7
 314              	.LVL57:
 315              	.L6:
 286:../Dave/Generated/CMSIS_DSP/FilteringFunctions/arm_fir_interpolate_f32.c **** 
 287:../Dave/Generated/CMSIS_DSP/FilteringFunctions/arm_fir_interpolate_f32.c ****         /* Decrement the loop counter */
 288:../Dave/Generated/CMSIS_DSP/FilteringFunctions/arm_fir_interpolate_f32.c ****         tapCnt--;
 289:../Dave/Generated/CMSIS_DSP/FilteringFunctions/arm_fir_interpolate_f32.c ****       }
 290:../Dave/Generated/CMSIS_DSP/FilteringFunctions/arm_fir_interpolate_f32.c **** 
 291:../Dave/Generated/CMSIS_DSP/FilteringFunctions/arm_fir_interpolate_f32.c ****       /* The result is in the accumulator, store in the destination buffer. */
 292:../Dave/Generated/CMSIS_DSP/FilteringFunctions/arm_fir_interpolate_f32.c ****       *pDst = acc0;
 316              	 .loc 1 292 0
 317 01a4 87ED006A 	 fsts s12,[r7]
 293:../Dave/Generated/CMSIS_DSP/FilteringFunctions/arm_fir_interpolate_f32.c ****       *(pDst + S->L) = acc1;
 318              	 .loc 1 293 0
 319 01a8 9AF80030 	 ldrb r3,[r10]
 320              	.LVL58:
 321 01ac 07EB8303 	 add r3,r7,r3,lsl#2
 322 01b0 C3ED006A 	 fsts s13,[r3]
 294:../Dave/Generated/CMSIS_DSP/FilteringFunctions/arm_fir_interpolate_f32.c ****       *(pDst + 2 * S->L) = acc2;
 323              	 .loc 1 294 0
 324 01b4 9AF80030 	 ldrb r3,[r10]
 325 01b8 07EBC303 	 add r3,r7,r3,lsl#3
 326 01bc 83ED007A 	 fsts s14,[r3]
 295:../Dave/Generated/CMSIS_DSP/FilteringFunctions/arm_fir_interpolate_f32.c ****       *(pDst + 3 * S->L) = acc3;
 327              	 .loc 1 295 0
 328 01c0 9AF80030 	 ldrb r3,[r10]
 296:../Dave/Generated/CMSIS_DSP/FilteringFunctions/arm_fir_interpolate_f32.c **** 
 297:../Dave/Generated/CMSIS_DSP/FilteringFunctions/arm_fir_interpolate_f32.c ****       pDst++;
 298:../Dave/Generated/CMSIS_DSP/FilteringFunctions/arm_fir_interpolate_f32.c **** 
 299:../Dave/Generated/CMSIS_DSP/FilteringFunctions/arm_fir_interpolate_f32.c ****       /* Increment the address modifier index of coefficient buffer */
 300:../Dave/Generated/CMSIS_DSP/FilteringFunctions/arm_fir_interpolate_f32.c ****       j++;
 329              	 .loc 1 300 0
 330 01c4 0EF1010E 	 add lr,lr,#1
 331              	.LVL59:
 295:../Dave/Generated/CMSIS_DSP/FilteringFunctions/arm_fir_interpolate_f32.c ****       *(pDst + 3 * S->L) = acc3;
 332              	 .loc 1 295 0
 333 01c8 03EB4303 	 add r3,r3,r3,lsl#1
 334 01cc 07EB8303 	 add r3,r7,r3,lsl#2
 178:../Dave/Generated/CMSIS_DSP/FilteringFunctions/arm_fir_interpolate_f32.c ****     {
 335              	 .loc 1 178 0
 336 01d0 CE45     	 cmp lr,r9
 295:../Dave/Generated/CMSIS_DSP/FilteringFunctions/arm_fir_interpolate_f32.c ****       *(pDst + 3 * S->L) = acc3;
 337              	 .loc 1 295 0
 338 01d2 C3ED007A 	 fsts s15,[r3]
 297:../Dave/Generated/CMSIS_DSP/FilteringFunctions/arm_fir_interpolate_f32.c **** 
 339              	 .loc 1 297 0
 340 01d6 07F10407 	 add r7,r7,#4
 341              	.LVL60:
 178:../Dave/Generated/CMSIS_DSP/FilteringFunctions/arm_fir_interpolate_f32.c ****     {
 342              	 .loc 1 178 0
 343 01da 0AD0     	 beq .L8
 344 01dc 9AF80040 	 ldrb r4,[r10]
 345 01e0 6DE7     	 b .L9
 346              	.LVL61:
 347              	.L27:
 183:../Dave/Generated/CMSIS_DSP/FilteringFunctions/arm_fir_interpolate_f32.c ****       acc3 = 0.0f;
 348              	 .loc 1 183 0
 349 01e2 B0EE677A 	 fcpys s14,s15
 182:../Dave/Generated/CMSIS_DSP/FilteringFunctions/arm_fir_interpolate_f32.c ****       acc2 = 0.0f;
 350              	 .loc 1 182 0
 351 01e6 F0EE676A 	 fcpys s13,s15
 181:../Dave/Generated/CMSIS_DSP/FilteringFunctions/arm_fir_interpolate_f32.c ****       acc1 = 0.0f;
 352              	 .loc 1 181 0
 353 01ea B0EE676A 	 fcpys s12,s15
 200:../Dave/Generated/CMSIS_DSP/FilteringFunctions/arm_fir_interpolate_f32.c ****       {
 354              	 .loc 1 200 0
 355 01ee 6346     	 mov r3,ip
 356 01f0 BEE7     	 b .L4
 357              	.LVL62:
 358              	.L8:
 359 01f2 079B     	 ldr r3,[sp,#28]
 360 01f4 0B9A     	 ldr r2,[sp,#44]
 361 01f6 DDF804C0 	 ldr ip,[sp,#4]
 362 01fa 03EB8203 	 add r3,r3,r2,lsl#2
 363 01fe 0793     	 str r3,[sp,#28]
 364 0200 9AF80030 	 ldrb r3,[r10]
 365              	.LVL63:
 366              	.L3:
 301:../Dave/Generated/CMSIS_DSP/FilteringFunctions/arm_fir_interpolate_f32.c **** 
 302:../Dave/Generated/CMSIS_DSP/FilteringFunctions/arm_fir_interpolate_f32.c ****       /* Decrement the loop counter */
 303:../Dave/Generated/CMSIS_DSP/FilteringFunctions/arm_fir_interpolate_f32.c ****       i--;
 304:../Dave/Generated/CMSIS_DSP/FilteringFunctions/arm_fir_interpolate_f32.c ****     }
 305:../Dave/Generated/CMSIS_DSP/FilteringFunctions/arm_fir_interpolate_f32.c **** 
 306:../Dave/Generated/CMSIS_DSP/FilteringFunctions/arm_fir_interpolate_f32.c ****     /* Advance the state pointer by 1
 307:../Dave/Generated/CMSIS_DSP/FilteringFunctions/arm_fir_interpolate_f32.c ****      * to process the next group of interpolation factor number samples */
 308:../Dave/Generated/CMSIS_DSP/FilteringFunctions/arm_fir_interpolate_f32.c ****     pState = pState + 4;
 309:../Dave/Generated/CMSIS_DSP/FilteringFunctions/arm_fir_interpolate_f32.c **** 
 310:../Dave/Generated/CMSIS_DSP/FilteringFunctions/arm_fir_interpolate_f32.c ****     pDst += S->L * 3;
 367              	 .loc 1 310 0
 368 0204 079A     	 ldr r2,[sp,#28]
 369 0206 03EB4303 	 add r3,r3,r3,lsl#1
 370 020a 02EB8303 	 add r3,r2,r3,lsl#2
 371 020e 0793     	 str r3,[sp,#28]
 372              	.LVL64:
 373 0210 089B     	 ldr r3,[sp,#32]
 374              	.LVL65:
 375 0212 1033     	 adds r3,r3,#16
 376 0214 0893     	 str r3,[sp,#32]
 377 0216 099B     	 ldr r3,[sp,#36]
 378 0218 1033     	 adds r3,r3,#16
 379 021a 0993     	 str r3,[sp,#36]
 380              	.LVL66:
 164:../Dave/Generated/CMSIS_DSP/FilteringFunctions/arm_fir_interpolate_f32.c ****   {
 381              	 .loc 1 164 0
 382 021c 0C9B     	 ldr r3,[sp,#48]
 383 021e 013B     	 subs r3,r3,#1
 384              	.LVL67:
 385 0220 A846     	 mov r8,r5
 386 0222 0C93     	 str r3,[sp,#48]
 387 0224 7FF427AF 	 bne .L10
 388 0228 119B     	 ldr r3,[sp,#68]
 389              	.LVL68:
 390 022a 0E9A     	 ldr r2,[sp,#56]
 391 022c 1B01     	 lsls r3,r3,#4
 392 022e 1A44     	 add r2,r2,r3
 393 0230 0E92     	 str r2,[sp,#56]
 394 0232 0A9A     	 ldr r2,[sp,#40]
 395 0234 1A44     	 add r2,r2,r3
 396 0236 0A92     	 str r2,[sp,#40]
 397 0238 0D9A     	 ldr r2,[sp,#52]
 398 023a D318     	 adds r3,r2,r3
 399 023c 0993     	 str r3,[sp,#36]
 400              	.LVL69:
 401              	.L2:
 311:../Dave/Generated/CMSIS_DSP/FilteringFunctions/arm_fir_interpolate_f32.c **** 
 312:../Dave/Generated/CMSIS_DSP/FilteringFunctions/arm_fir_interpolate_f32.c ****     /* Decrement the loop counter */
 313:../Dave/Generated/CMSIS_DSP/FilteringFunctions/arm_fir_interpolate_f32.c ****     blkCnt--;
 314:../Dave/Generated/CMSIS_DSP/FilteringFunctions/arm_fir_interpolate_f32.c ****   }
 315:../Dave/Generated/CMSIS_DSP/FilteringFunctions/arm_fir_interpolate_f32.c **** 
 316:../Dave/Generated/CMSIS_DSP/FilteringFunctions/arm_fir_interpolate_f32.c ****   /* If the blockSize is not a multiple of 4, compute any remaining output samples here.
 317:../Dave/Generated/CMSIS_DSP/FilteringFunctions/arm_fir_interpolate_f32.c ****    ** No loop unrolling is used. */
 318:../Dave/Generated/CMSIS_DSP/FilteringFunctions/arm_fir_interpolate_f32.c **** 
 319:../Dave/Generated/CMSIS_DSP/FilteringFunctions/arm_fir_interpolate_f32.c ****   while (blkCntN4 > 0u)
 402              	 .loc 1 319 0
 403 023e 1099     	 ldr r1,[sp,#64]
 404 0240 0029     	 cmp r1,#0
 405 0242 00F08980 	 beq .L11
 406 0246 0F9A     	 ldr r2,[sp,#60]
 407 0248 0891     	 str r1,[sp,#32]
 408 024a 9308     	 lsrs r3,r2,#2
 409 024c 02F00302 	 and r2,r2,#3
 410 0250 1046     	 mov r0,r2
 411 0252 0193     	 str r3,[sp,#4]
 412 0254 0392     	 str r2,[sp,#12]
 413 0256 5A1E     	 subs r2,r3,#1
 414 0258 431E     	 subs r3,r0,#1
 415 025a 92B2     	 uxth r2,r2
 416 025c 0998     	 ldr r0,[sp,#36]
 417 025e 9BB2     	 uxth r3,r3
 418 0260 02F1010B 	 add fp,r2,#1
 419 0264 0133     	 adds r3,r3,#1
 420 0266 0E9A     	 ldr r2,[sp,#56]
 421 0268 CDF814B0 	 str fp,[sp,#20]
 422 026c 00EB0B18 	 add r8,r0,fp,lsl#4
 423 0270 9B00     	 lsls r3,r3,#2
 424 0272 DDF808B0 	 ldr fp,[sp,#8]
 425 0276 0692     	 str r2,[sp,#24]
 426 0278 0493     	 str r3,[sp,#16]
 427 027a 8446     	 mov ip,r0
 428              	.LVL70:
 429              	.L19:
 320:../Dave/Generated/CMSIS_DSP/FilteringFunctions/arm_fir_interpolate_f32.c ****   {
 321:../Dave/Generated/CMSIS_DSP/FilteringFunctions/arm_fir_interpolate_f32.c ****     /* Copy new input sample into the state buffer */
 322:../Dave/Generated/CMSIS_DSP/FilteringFunctions/arm_fir_interpolate_f32.c ****     *pStateCurnt++ = *pSrc++;
 430              	 .loc 1 322 0
 431 027c 0A9A     	 ldr r2,[sp,#40]
 432 027e 52F8043B 	 ldr r3,[r2],#4
 433 0282 0A92     	 str r2,[sp,#40]
 434              	.LVL71:
 435 0284 069A     	 ldr r2,[sp,#24]
 436              	.LVL72:
 437 0286 42F8043B 	 str r3,[r2],#4
 323:../Dave/Generated/CMSIS_DSP/FilteringFunctions/arm_fir_interpolate_f32.c **** 
 324:../Dave/Generated/CMSIS_DSP/FilteringFunctions/arm_fir_interpolate_f32.c ****     /* Address modifier index of coefficient buffer */
 325:../Dave/Generated/CMSIS_DSP/FilteringFunctions/arm_fir_interpolate_f32.c ****     j = 1u;
 326:../Dave/Generated/CMSIS_DSP/FilteringFunctions/arm_fir_interpolate_f32.c **** 
 327:../Dave/Generated/CMSIS_DSP/FilteringFunctions/arm_fir_interpolate_f32.c ****     /* Loop over the Interpolation factor. */
 328:../Dave/Generated/CMSIS_DSP/FilteringFunctions/arm_fir_interpolate_f32.c ****     i = S->L;
 438              	 .loc 1 328 0
 439 028a 9AF80030 	 ldrb r3,[r10]
 322:../Dave/Generated/CMSIS_DSP/FilteringFunctions/arm_fir_interpolate_f32.c **** 
 440              	 .loc 1 322 0
 441 028e 0692     	 str r2,[sp,#24]
 442              	.LVL73:
 443              	 .loc 1 328 0
 444 0290 1D46     	 mov r5,r3
 445 0292 0293     	 str r3,[sp,#8]
 446              	.LVL74:
 329:../Dave/Generated/CMSIS_DSP/FilteringFunctions/arm_fir_interpolate_f32.c ****     while (i > 0u)
 447              	 .loc 1 329 0
 448 0294 002B     	 cmp r3,#0
 449 0296 52D0     	 beq .L12
 450 0298 DDF81CE0 	 ldr lr,[sp,#28]
 451 029c 03F10109 	 add r9,r3,#1
 452 02a0 0127     	 movs r7,#1
 453 02a2 08F11006 	 add r6,r8,#16
 454              	.LVL75:
 455              	.L18:
 330:../Dave/Generated/CMSIS_DSP/FilteringFunctions/arm_fir_interpolate_f32.c ****     {
 331:../Dave/Generated/CMSIS_DSP/FilteringFunctions/arm_fir_interpolate_f32.c ****       /* Set accumulator to zero */
 332:../Dave/Generated/CMSIS_DSP/FilteringFunctions/arm_fir_interpolate_f32.c ****       sum0 = 0.0f;
 333:../Dave/Generated/CMSIS_DSP/FilteringFunctions/arm_fir_interpolate_f32.c **** 
 334:../Dave/Generated/CMSIS_DSP/FilteringFunctions/arm_fir_interpolate_f32.c ****       /* Initialize state pointer */
 335:../Dave/Generated/CMSIS_DSP/FilteringFunctions/arm_fir_interpolate_f32.c ****       ptr1 = pState;
 336:../Dave/Generated/CMSIS_DSP/FilteringFunctions/arm_fir_interpolate_f32.c **** 
 337:../Dave/Generated/CMSIS_DSP/FilteringFunctions/arm_fir_interpolate_f32.c ****       /* Initialize coefficient pointer */
 338:../Dave/Generated/CMSIS_DSP/FilteringFunctions/arm_fir_interpolate_f32.c ****       ptr2 = pCoeffs + (S->L - j);
 339:../Dave/Generated/CMSIS_DSP/FilteringFunctions/arm_fir_interpolate_f32.c **** 
 340:../Dave/Generated/CMSIS_DSP/FilteringFunctions/arm_fir_interpolate_f32.c ****       /* Loop over the polyPhase length. Unroll by a factor of 4.
 341:../Dave/Generated/CMSIS_DSP/FilteringFunctions/arm_fir_interpolate_f32.c ****        ** Repeat until we've computed numTaps-(4*S->L) coefficients. */
 342:../Dave/Generated/CMSIS_DSP/FilteringFunctions/arm_fir_interpolate_f32.c ****       tapCnt = phaseLen >> 2u;
 343:../Dave/Generated/CMSIS_DSP/FilteringFunctions/arm_fir_interpolate_f32.c ****       while (tapCnt > 0u)
 456              	 .loc 1 343 0
 457 02a6 019B     	 ldr r3,[sp,#4]
 458 02a8 DFED507A 	 flds s15,.L54
 338:../Dave/Generated/CMSIS_DSP/FilteringFunctions/arm_fir_interpolate_f32.c **** 
 459              	 .loc 1 338 0
 460 02ac EC1B     	 subs r4,r5,r7
 461 02ae 0BEB8404 	 add r4,fp,r4,lsl#2
 462              	.LVL76:
 463              	 .loc 1 343 0
 464 02b2 002B     	 cmp r3,#0
 465 02b4 00F08F80 	 beq .L28
 466 02b8 A800     	 lsls r0,r5,#2
 467 02ba 0CF11001 	 add r1,ip,#16
 468 02be 2346     	 mov r3,r4
 469              	.LVL77:
 470              	.L14:
 344:../Dave/Generated/CMSIS_DSP/FilteringFunctions/arm_fir_interpolate_f32.c ****       {
 345:../Dave/Generated/CMSIS_DSP/FilteringFunctions/arm_fir_interpolate_f32.c **** 
 346:../Dave/Generated/CMSIS_DSP/FilteringFunctions/arm_fir_interpolate_f32.c ****         /* Read the coefficient */
 347:../Dave/Generated/CMSIS_DSP/FilteringFunctions/arm_fir_interpolate_f32.c ****         c0 = *(ptr2);
 348:../Dave/Generated/CMSIS_DSP/FilteringFunctions/arm_fir_interpolate_f32.c **** 
 349:../Dave/Generated/CMSIS_DSP/FilteringFunctions/arm_fir_interpolate_f32.c ****         /* Upsampling is done by stuffing L-1 zeros between each sample.
 350:../Dave/Generated/CMSIS_DSP/FilteringFunctions/arm_fir_interpolate_f32.c ****          * So instead of multiplying zeros with coefficients,
 351:../Dave/Generated/CMSIS_DSP/FilteringFunctions/arm_fir_interpolate_f32.c ****          * Increment the coefficient pointer by interpolation factor times. */
 352:../Dave/Generated/CMSIS_DSP/FilteringFunctions/arm_fir_interpolate_f32.c ****         ptr2 += S->L;
 353:../Dave/Generated/CMSIS_DSP/FilteringFunctions/arm_fir_interpolate_f32.c **** 
 354:../Dave/Generated/CMSIS_DSP/FilteringFunctions/arm_fir_interpolate_f32.c ****         /* Read the input sample */
 355:../Dave/Generated/CMSIS_DSP/FilteringFunctions/arm_fir_interpolate_f32.c ****         x0 = *(ptr1++);
 356:../Dave/Generated/CMSIS_DSP/FilteringFunctions/arm_fir_interpolate_f32.c **** 
 357:../Dave/Generated/CMSIS_DSP/FilteringFunctions/arm_fir_interpolate_f32.c ****         /* Perform the multiply-accumulate */
 358:../Dave/Generated/CMSIS_DSP/FilteringFunctions/arm_fir_interpolate_f32.c ****         sum0 += x0 * c0;
 471              	 .loc 1 358 0
 472 02c0 11ED045A 	 flds s10,[r1,#-16]
 473 02c4 93ED007A 	 flds s14,[r3]
 359:../Dave/Generated/CMSIS_DSP/FilteringFunctions/arm_fir_interpolate_f32.c **** 
 360:../Dave/Generated/CMSIS_DSP/FilteringFunctions/arm_fir_interpolate_f32.c ****         /* Read the coefficient */
 361:../Dave/Generated/CMSIS_DSP/FilteringFunctions/arm_fir_interpolate_f32.c ****         c0 = *(ptr2);
 362:../Dave/Generated/CMSIS_DSP/FilteringFunctions/arm_fir_interpolate_f32.c **** 
 363:../Dave/Generated/CMSIS_DSP/FilteringFunctions/arm_fir_interpolate_f32.c ****         /* Increment the coefficient pointer by interpolation factor times. */
 364:../Dave/Generated/CMSIS_DSP/FilteringFunctions/arm_fir_interpolate_f32.c ****         ptr2 += S->L;
 365:../Dave/Generated/CMSIS_DSP/FilteringFunctions/arm_fir_interpolate_f32.c **** 
 366:../Dave/Generated/CMSIS_DSP/FilteringFunctions/arm_fir_interpolate_f32.c ****         /* Read the input sample */
 367:../Dave/Generated/CMSIS_DSP/FilteringFunctions/arm_fir_interpolate_f32.c ****         x0 = *(ptr1++);
 368:../Dave/Generated/CMSIS_DSP/FilteringFunctions/arm_fir_interpolate_f32.c **** 
 369:../Dave/Generated/CMSIS_DSP/FilteringFunctions/arm_fir_interpolate_f32.c ****         /* Perform the multiply-accumulate */
 370:../Dave/Generated/CMSIS_DSP/FilteringFunctions/arm_fir_interpolate_f32.c ****         sum0 += x0 * c0;
 474              	 .loc 1 370 0
 475 02c8 11ED036A 	 flds s12,[r1,#-12]
 371:../Dave/Generated/CMSIS_DSP/FilteringFunctions/arm_fir_interpolate_f32.c **** 
 372:../Dave/Generated/CMSIS_DSP/FilteringFunctions/arm_fir_interpolate_f32.c ****         /* Read the coefficient */
 373:../Dave/Generated/CMSIS_DSP/FilteringFunctions/arm_fir_interpolate_f32.c ****         c0 = *(ptr2);
 374:../Dave/Generated/CMSIS_DSP/FilteringFunctions/arm_fir_interpolate_f32.c **** 
 375:../Dave/Generated/CMSIS_DSP/FilteringFunctions/arm_fir_interpolate_f32.c ****         /* Increment the coefficient pointer by interpolation factor times. */
 376:../Dave/Generated/CMSIS_DSP/FilteringFunctions/arm_fir_interpolate_f32.c ****         ptr2 += S->L;
 377:../Dave/Generated/CMSIS_DSP/FilteringFunctions/arm_fir_interpolate_f32.c **** 
 378:../Dave/Generated/CMSIS_DSP/FilteringFunctions/arm_fir_interpolate_f32.c ****         /* Read the input sample */
 379:../Dave/Generated/CMSIS_DSP/FilteringFunctions/arm_fir_interpolate_f32.c ****         x0 = *(ptr1++);
 380:../Dave/Generated/CMSIS_DSP/FilteringFunctions/arm_fir_interpolate_f32.c **** 
 381:../Dave/Generated/CMSIS_DSP/FilteringFunctions/arm_fir_interpolate_f32.c ****         /* Perform the multiply-accumulate */
 382:../Dave/Generated/CMSIS_DSP/FilteringFunctions/arm_fir_interpolate_f32.c ****         sum0 += x0 * c0;
 476              	 .loc 1 382 0
 477 02cc 51ED025A 	 flds s11,[r1,#-8]
 383:../Dave/Generated/CMSIS_DSP/FilteringFunctions/arm_fir_interpolate_f32.c **** 
 384:../Dave/Generated/CMSIS_DSP/FilteringFunctions/arm_fir_interpolate_f32.c ****         /* Read the coefficient */
 385:../Dave/Generated/CMSIS_DSP/FilteringFunctions/arm_fir_interpolate_f32.c ****         c0 = *(ptr2);
 386:../Dave/Generated/CMSIS_DSP/FilteringFunctions/arm_fir_interpolate_f32.c **** 
 387:../Dave/Generated/CMSIS_DSP/FilteringFunctions/arm_fir_interpolate_f32.c ****         /* Increment the coefficient pointer by interpolation factor times. */
 388:../Dave/Generated/CMSIS_DSP/FilteringFunctions/arm_fir_interpolate_f32.c ****         ptr2 += S->L;
 389:../Dave/Generated/CMSIS_DSP/FilteringFunctions/arm_fir_interpolate_f32.c **** 
 390:../Dave/Generated/CMSIS_DSP/FilteringFunctions/arm_fir_interpolate_f32.c ****         /* Read the input sample */
 391:../Dave/Generated/CMSIS_DSP/FilteringFunctions/arm_fir_interpolate_f32.c ****         x0 = *(ptr1++);
 392:../Dave/Generated/CMSIS_DSP/FilteringFunctions/arm_fir_interpolate_f32.c **** 
 393:../Dave/Generated/CMSIS_DSP/FilteringFunctions/arm_fir_interpolate_f32.c ****         /* Perform the multiply-accumulate */
 394:../Dave/Generated/CMSIS_DSP/FilteringFunctions/arm_fir_interpolate_f32.c ****         sum0 += x0 * c0;
 478              	 .loc 1 394 0
 479 02d0 51ED016A 	 flds s13,[r1,#-4]
 358:../Dave/Generated/CMSIS_DSP/FilteringFunctions/arm_fir_interpolate_f32.c **** 
 480              	 .loc 1 358 0
 481 02d4 E5EE077A 	 vfma.f32 s15,s10,s14
 482              	.LVL78:
 483 02d8 0344     	 add r3,r3,r0
 484              	.LVL79:
 485 02da 1A18     	 adds r2,r3,r0
 486              	.LVL80:
 370:../Dave/Generated/CMSIS_DSP/FilteringFunctions/arm_fir_interpolate_f32.c **** 
 487              	 .loc 1 370 0
 488 02dc 93ED007A 	 flds s14,[r3]
 489 02e0 E6EE077A 	 vfma.f32 s15,s12,s14
 490              	.LVL81:
 491 02e4 1318     	 adds r3,r2,r0
 492              	.LVL82:
 493 02e6 1031     	 adds r1,r1,#16
 494              	.LVL83:
 382:../Dave/Generated/CMSIS_DSP/FilteringFunctions/arm_fir_interpolate_f32.c **** 
 495              	 .loc 1 382 0
 496 02e8 92ED006A 	 flds s12,[r2]
 497              	 .loc 1 394 0
 498 02ec 93ED007A 	 flds s14,[r3]
 382:../Dave/Generated/CMSIS_DSP/FilteringFunctions/arm_fir_interpolate_f32.c **** 
 499              	 .loc 1 382 0
 500 02f0 E5EE867A 	 vfma.f32 s15,s11,s12
 501              	.LVL84:
 343:../Dave/Generated/CMSIS_DSP/FilteringFunctions/arm_fir_interpolate_f32.c ****       {
 502              	 .loc 1 343 0
 503 02f4 B142     	 cmp r1,r6
 504 02f6 0344     	 add r3,r3,r0
 505              	.LVL85:
 506              	 .loc 1 394 0
 507 02f8 E6EE877A 	 vfma.f32 s15,s13,s14
 508              	.LVL86:
 343:../Dave/Generated/CMSIS_DSP/FilteringFunctions/arm_fir_interpolate_f32.c ****       {
 509              	 .loc 1 343 0
 510 02fc E0D1     	 bne .L14
 511 02fe 059B     	 ldr r3,[sp,#20]
 512              	.LVL87:
 513 0300 8000     	 lsls r0,r0,#2
 514              	.LVL88:
 515 0302 03FB0044 	 mla r4,r3,r0,r4
 516 0306 4346     	 mov r3,r8
 517              	.LVL89:
 518              	.L13:
 395:../Dave/Generated/CMSIS_DSP/FilteringFunctions/arm_fir_interpolate_f32.c **** 
 396:../Dave/Generated/CMSIS_DSP/FilteringFunctions/arm_fir_interpolate_f32.c ****         /* Decrement the loop counter */
 397:../Dave/Generated/CMSIS_DSP/FilteringFunctions/arm_fir_interpolate_f32.c ****         tapCnt--;
 398:../Dave/Generated/CMSIS_DSP/FilteringFunctions/arm_fir_interpolate_f32.c ****       }
 399:../Dave/Generated/CMSIS_DSP/FilteringFunctions/arm_fir_interpolate_f32.c **** 
 400:../Dave/Generated/CMSIS_DSP/FilteringFunctions/arm_fir_interpolate_f32.c ****       /* If the polyPhase length is not a multiple of 4, compute the remaining filter taps */
 401:../Dave/Generated/CMSIS_DSP/FilteringFunctions/arm_fir_interpolate_f32.c ****       tapCnt = phaseLen % 0x4u;
 402:../Dave/Generated/CMSIS_DSP/FilteringFunctions/arm_fir_interpolate_f32.c **** 
 403:../Dave/Generated/CMSIS_DSP/FilteringFunctions/arm_fir_interpolate_f32.c ****       while (tapCnt > 0u)
 519              	 .loc 1 403 0
 520 0308 039A     	 ldr r2,[sp,#12]
 521 030a 5AB1     	 cbz r2,.L15
 522 030c 049A     	 ldr r2,[sp,#16]
 523 030e AD00     	 lsls r5,r5,#2
 524 0310 9A18     	 adds r2,r3,r2
 525              	.LVL90:
 526              	.L16:
 404:../Dave/Generated/CMSIS_DSP/FilteringFunctions/arm_fir_interpolate_f32.c ****       {
 405:../Dave/Generated/CMSIS_DSP/FilteringFunctions/arm_fir_interpolate_f32.c ****         /* Perform the multiply-accumulate */
 406:../Dave/Generated/CMSIS_DSP/FilteringFunctions/arm_fir_interpolate_f32.c ****         sum0 += *(ptr1++) * (*ptr2);
 527              	 .loc 1 406 0
 528 0312 F3EC016A 	 fldmias r3!,{s13}
 529              	.LVL91:
 530 0316 94ED007A 	 flds s14,[r4]
 403:../Dave/Generated/CMSIS_DSP/FilteringFunctions/arm_fir_interpolate_f32.c ****       {
 531              	 .loc 1 403 0
 532 031a 9342     	 cmp r3,r2
 407:../Dave/Generated/CMSIS_DSP/FilteringFunctions/arm_fir_interpolate_f32.c **** 
 408:../Dave/Generated/CMSIS_DSP/FilteringFunctions/arm_fir_interpolate_f32.c ****         /* Increment the coefficient pointer by interpolation factor times. */
 409:../Dave/Generated/CMSIS_DSP/FilteringFunctions/arm_fir_interpolate_f32.c ****         ptr2 += S->L;
 533              	 .loc 1 409 0
 534 031c 2C44     	 add r4,r4,r5
 535              	.LVL92:
 406:../Dave/Generated/CMSIS_DSP/FilteringFunctions/arm_fir_interpolate_f32.c **** 
 536              	 .loc 1 406 0
 537 031e E6EE877A 	 vfma.f32 s15,s13,s14
 538              	.LVL93:
 403:../Dave/Generated/CMSIS_DSP/FilteringFunctions/arm_fir_interpolate_f32.c ****       {
 539              	 .loc 1 403 0
 540 0322 F6D1     	 bne .L16
 541              	.L15:
 410:../Dave/Generated/CMSIS_DSP/FilteringFunctions/arm_fir_interpolate_f32.c **** 
 411:../Dave/Generated/CMSIS_DSP/FilteringFunctions/arm_fir_interpolate_f32.c ****         /* Decrement the loop counter */
 412:../Dave/Generated/CMSIS_DSP/FilteringFunctions/arm_fir_interpolate_f32.c ****         tapCnt--;
 413:../Dave/Generated/CMSIS_DSP/FilteringFunctions/arm_fir_interpolate_f32.c ****       }
 414:../Dave/Generated/CMSIS_DSP/FilteringFunctions/arm_fir_interpolate_f32.c **** 
 415:../Dave/Generated/CMSIS_DSP/FilteringFunctions/arm_fir_interpolate_f32.c ****       /* The result is in the accumulator, store in the destination buffer. */
 416:../Dave/Generated/CMSIS_DSP/FilteringFunctions/arm_fir_interpolate_f32.c ****       *pDst++ = sum0;
 417:../Dave/Generated/CMSIS_DSP/FilteringFunctions/arm_fir_interpolate_f32.c **** 
 418:../Dave/Generated/CMSIS_DSP/FilteringFunctions/arm_fir_interpolate_f32.c ****       /* Increment the address modifier index of coefficient buffer */
 419:../Dave/Generated/CMSIS_DSP/FilteringFunctions/arm_fir_interpolate_f32.c ****       j++;
 542              	 .loc 1 419 0
 543 0324 0137     	 adds r7,r7,#1
 544              	.LVL94:
 329:../Dave/Generated/CMSIS_DSP/FilteringFunctions/arm_fir_interpolate_f32.c ****     {
 545              	 .loc 1 329 0
 546 0326 4F45     	 cmp r7,r9
 416:../Dave/Generated/CMSIS_DSP/FilteringFunctions/arm_fir_interpolate_f32.c **** 
 547              	 .loc 1 416 0
 548 0328 EEEC017A 	 fstmias lr!,{s15}
 549              	.LVL95:
 329:../Dave/Generated/CMSIS_DSP/FilteringFunctions/arm_fir_interpolate_f32.c ****     {
 550              	 .loc 1 329 0
 551 032c 02D0     	 beq .L17
 552 032e 9AF80050 	 ldrb r5,[r10]
 553 0332 B8E7     	 b .L18
 554              	.L17:
 555 0334 079B     	 ldr r3,[sp,#28]
 556              	.LVL96:
 557 0336 029A     	 ldr r2,[sp,#8]
 558 0338 03EB8203 	 add r3,r3,r2,lsl#2
 559 033c 0793     	 str r3,[sp,#28]
 560              	.LVL97:
 561              	.L12:
 319:../Dave/Generated/CMSIS_DSP/FilteringFunctions/arm_fir_interpolate_f32.c ****   {
 562              	 .loc 1 319 0
 563 033e 089B     	 ldr r3,[sp,#32]
 564 0340 013B     	 subs r3,r3,#1
 420:../Dave/Generated/CMSIS_DSP/FilteringFunctions/arm_fir_interpolate_f32.c **** 
 421:../Dave/Generated/CMSIS_DSP/FilteringFunctions/arm_fir_interpolate_f32.c ****       /* Decrement the loop counter */
 422:../Dave/Generated/CMSIS_DSP/FilteringFunctions/arm_fir_interpolate_f32.c ****       i--;
 423:../Dave/Generated/CMSIS_DSP/FilteringFunctions/arm_fir_interpolate_f32.c ****     }
 424:../Dave/Generated/CMSIS_DSP/FilteringFunctions/arm_fir_interpolate_f32.c **** 
 425:../Dave/Generated/CMSIS_DSP/FilteringFunctions/arm_fir_interpolate_f32.c ****     /* Advance the state pointer by 1
 426:../Dave/Generated/CMSIS_DSP/FilteringFunctions/arm_fir_interpolate_f32.c ****      * to process the next group of interpolation factor number samples */
 427:../Dave/Generated/CMSIS_DSP/FilteringFunctions/arm_fir_interpolate_f32.c ****     pState = pState + 1;
 565              	 .loc 1 427 0
 566 0342 0CF1040C 	 add ip,ip,#4
 567              	.LVL98:
 568 0346 08F10408 	 add r8,r8,#4
 319:../Dave/Generated/CMSIS_DSP/FilteringFunctions/arm_fir_interpolate_f32.c ****   {
 569              	 .loc 1 319 0
 570 034a 0893     	 str r3,[sp,#32]
 571 034c 96D1     	 bne .L19
 572 034e 099B     	 ldr r3,[sp,#36]
 573              	.LVL99:
 574 0350 109A     	 ldr r2,[sp,#64]
 575 0352 03EB8203 	 add r3,r3,r2,lsl#2
 576 0356 0993     	 str r3,[sp,#36]
 577              	.LVL100:
 578              	.L11:
 428:../Dave/Generated/CMSIS_DSP/FilteringFunctions/arm_fir_interpolate_f32.c **** 
 429:../Dave/Generated/CMSIS_DSP/FilteringFunctions/arm_fir_interpolate_f32.c ****     /* Decrement the loop counter */
 430:../Dave/Generated/CMSIS_DSP/FilteringFunctions/arm_fir_interpolate_f32.c ****     blkCntN4--;
 431:../Dave/Generated/CMSIS_DSP/FilteringFunctions/arm_fir_interpolate_f32.c ****   }
 432:../Dave/Generated/CMSIS_DSP/FilteringFunctions/arm_fir_interpolate_f32.c **** 
 433:../Dave/Generated/CMSIS_DSP/FilteringFunctions/arm_fir_interpolate_f32.c ****   /* Processing is complete.
 434:../Dave/Generated/CMSIS_DSP/FilteringFunctions/arm_fir_interpolate_f32.c ****    ** Now copy the last phaseLen - 1 samples to the satrt of the state buffer.
 435:../Dave/Generated/CMSIS_DSP/FilteringFunctions/arm_fir_interpolate_f32.c ****    ** This prepares the state buffer for the next function call. */
 436:../Dave/Generated/CMSIS_DSP/FilteringFunctions/arm_fir_interpolate_f32.c **** 
 437:../Dave/Generated/CMSIS_DSP/FilteringFunctions/arm_fir_interpolate_f32.c ****   /* Points to the start of the state buffer */
 438:../Dave/Generated/CMSIS_DSP/FilteringFunctions/arm_fir_interpolate_f32.c ****   pStateCurnt = S->pState;
 439:../Dave/Generated/CMSIS_DSP/FilteringFunctions/arm_fir_interpolate_f32.c **** 
 440:../Dave/Generated/CMSIS_DSP/FilteringFunctions/arm_fir_interpolate_f32.c ****   tapCnt = (phaseLen - 1u) >> 2u;
 579              	 .loc 1 440 0
 580 0358 0F9B     	 ldr r3,[sp,#60]
 581 035a 591E     	 subs r1,r3,#1
 582 035c C1F38F03 	 ubfx r3,r1,#2,#16
 583              	.LVL101:
 441:../Dave/Generated/CMSIS_DSP/FilteringFunctions/arm_fir_interpolate_f32.c **** 
 442:../Dave/Generated/CMSIS_DSP/FilteringFunctions/arm_fir_interpolate_f32.c ****   /* copy data */
 443:../Dave/Generated/CMSIS_DSP/FilteringFunctions/arm_fir_interpolate_f32.c ****   while (tapCnt > 0u)
 584              	 .loc 1 443 0
 585 0360 33B3     	 cbz r3,.L20
 586 0362 013B     	 subs r3,r3,#1
 587              	.LVL102:
 588 0364 0D9A     	 ldr r2,[sp,#52]
 589 0366 9CB2     	 uxth r4,r3
 590 0368 A51C     	 adds r5,r4,#2
 591 036a 1346     	 mov r3,r2
 592              	.LVL103:
 593 036c 02EB0515 	 add r5,r2,r5,lsl#4
 594 0370 099A     	 ldr r2,[sp,#36]
 595 0372 1033     	 adds r3,r3,#16
 596 0374 1032     	 adds r2,r2,#16
 597              	.LVL104:
 598              	.L21:
 444:../Dave/Generated/CMSIS_DSP/FilteringFunctions/arm_fir_interpolate_f32.c ****   {
 445:../Dave/Generated/CMSIS_DSP/FilteringFunctions/arm_fir_interpolate_f32.c ****     *pStateCurnt++ = *pState++;
 599              	 .loc 1 445 0
 600 0376 52F8100C 	 ldr r0,[r2,#-16]
 601 037a 43F8100C 	 str r0,[r3,#-16]
 602              	.LVL105:
 446:../Dave/Generated/CMSIS_DSP/FilteringFunctions/arm_fir_interpolate_f32.c ****     *pStateCurnt++ = *pState++;
 603              	 .loc 1 446 0
 604 037e 52F80C0C 	 ldr r0,[r2,#-12]
 605 0382 43F80C0C 	 str r0,[r3,#-12]
 606              	.LVL106:
 447:../Dave/Generated/CMSIS_DSP/FilteringFunctions/arm_fir_interpolate_f32.c ****     *pStateCurnt++ = *pState++;
 607              	 .loc 1 447 0
 608 0386 52F8080C 	 ldr r0,[r2,#-8]
 609 038a 43F8080C 	 str r0,[r3,#-8]
 610              	.LVL107:
 448:../Dave/Generated/CMSIS_DSP/FilteringFunctions/arm_fir_interpolate_f32.c ****     *pStateCurnt++ = *pState++;
 611              	 .loc 1 448 0
 612 038e 52F8040C 	 ldr r0,[r2,#-4]
 613 0392 43F8040C 	 str r0,[r3,#-4]
 614 0396 1033     	 adds r3,r3,#16
 443:../Dave/Generated/CMSIS_DSP/FilteringFunctions/arm_fir_interpolate_f32.c ****   {
 615              	 .loc 1 443 0
 616 0398 AB42     	 cmp r3,r5
 617 039a 02F11002 	 add r2,r2,#16
 618              	.LVL108:
 619 039e EAD1     	 bne .L21
 620 03a0 0D9A     	 ldr r2,[sp,#52]
 621              	.LVL109:
 622 03a2 631C     	 adds r3,r4,#1
 623 03a4 1B01     	 lsls r3,r3,#4
 624 03a6 1A44     	 add r2,r2,r3
 625 03a8 0D92     	 str r2,[sp,#52]
 626 03aa 099A     	 ldr r2,[sp,#36]
 627 03ac 1A44     	 add r2,r2,r3
 628 03ae 0992     	 str r2,[sp,#36]
 629              	.L20:
 630              	.LVL110:
 449:../Dave/Generated/CMSIS_DSP/FilteringFunctions/arm_fir_interpolate_f32.c **** 
 450:../Dave/Generated/CMSIS_DSP/FilteringFunctions/arm_fir_interpolate_f32.c ****     /* Decrement the loop counter */
 451:../Dave/Generated/CMSIS_DSP/FilteringFunctions/arm_fir_interpolate_f32.c ****     tapCnt--;
 452:../Dave/Generated/CMSIS_DSP/FilteringFunctions/arm_fir_interpolate_f32.c ****   }
 453:../Dave/Generated/CMSIS_DSP/FilteringFunctions/arm_fir_interpolate_f32.c **** 
 454:../Dave/Generated/CMSIS_DSP/FilteringFunctions/arm_fir_interpolate_f32.c ****   tapCnt = (phaseLen - 1u) % 0x04u;
 455:../Dave/Generated/CMSIS_DSP/FilteringFunctions/arm_fir_interpolate_f32.c **** 
 456:../Dave/Generated/CMSIS_DSP/FilteringFunctions/arm_fir_interpolate_f32.c ****   /* copy data */
 457:../Dave/Generated/CMSIS_DSP/FilteringFunctions/arm_fir_interpolate_f32.c ****   while (tapCnt > 0u)
 631              	 .loc 1 457 0
 632 03b0 11F00302 	 ands r2,r1,#3
 633 03b4 0CD0     	 beq .L1
 634 03b6 013A     	 subs r2,r2,#1
 635 03b8 92B2     	 uxth r2,r2
 636 03ba 0999     	 ldr r1,[sp,#36]
 637              	.LVL111:
 638 03bc 0D9B     	 ldr r3,[sp,#52]
 639 03be 0132     	 adds r2,r2,#1
 640 03c0 01EB8202 	 add r2,r1,r2,lsl#2
 641              	.LVL112:
 642              	.L23:
 458:../Dave/Generated/CMSIS_DSP/FilteringFunctions/arm_fir_interpolate_f32.c ****   {
 459:../Dave/Generated/CMSIS_DSP/FilteringFunctions/arm_fir_interpolate_f32.c ****     *pStateCurnt++ = *pState++;
 643              	 .loc 1 459 0
 644 03c4 51F8040B 	 ldr r0,[r1],#4
 645              	.LVL113:
 646 03c8 43F8040B 	 str r0,[r3],#4
 647              	.LVL114:
 457:../Dave/Generated/CMSIS_DSP/FilteringFunctions/arm_fir_interpolate_f32.c ****   {
 648              	 .loc 1 457 0
 649 03cc 9142     	 cmp r1,r2
 650 03ce F9D1     	 bne .L23
 651              	.LVL115:
 652              	.L1:
 460:../Dave/Generated/CMSIS_DSP/FilteringFunctions/arm_fir_interpolate_f32.c **** 
 461:../Dave/Generated/CMSIS_DSP/FilteringFunctions/arm_fir_interpolate_f32.c ****     /* Decrement the loop counter */
 462:../Dave/Generated/CMSIS_DSP/FilteringFunctions/arm_fir_interpolate_f32.c ****     tapCnt--;
 463:../Dave/Generated/CMSIS_DSP/FilteringFunctions/arm_fir_interpolate_f32.c ****   }
 464:../Dave/Generated/CMSIS_DSP/FilteringFunctions/arm_fir_interpolate_f32.c **** }
 653              	 .loc 1 464 0
 654 03d0 13B0     	 add sp,sp,#76
 655              	.LCFI2:
 656              	 .cfi_remember_state
 657              	 .cfi_def_cfa_offset 36
 658              	 
 659 03d2 BDE8F08F 	 pop {r4,r5,r6,r7,r8,r9,r10,fp,pc}
 660              	.LVL116:
 661              	.L28:
 662              	.LCFI3:
 663              	 .cfi_restore_state
 343:../Dave/Generated/CMSIS_DSP/FilteringFunctions/arm_fir_interpolate_f32.c ****       {
 664              	 .loc 1 343 0
 665 03d6 6346     	 mov r3,ip
 666 03d8 96E7     	 b .L13
 667              	.LVL117:
 668              	.L26:
 669 03da 0CF11002 	 add r2,ip,#16
 670 03de 0192     	 str r2,[sp,#4]
 671 03e0 08F11005 	 add r5,r8,#16
 672 03e4 9446     	 mov ip,r2
 673 03e6 0DE7     	 b .L3
 674              	.LVL118:
 675              	.L25:
 142:../Dave/Generated/CMSIS_DSP/FilteringFunctions/arm_fir_interpolate_f32.c ****   float32_t *pCoeffs = S->pCoeffs;               /* Coefficient pointer */
 676              	 .loc 1 142 0
 677 03e8 0995     	 str r5,[sp,#36]
 678 03ea 28E7     	 b .L2
 679              	.L55:
 680              	 .align 2
 681              	.L54:
 682 03ec 00000000 	 .word 0
 683              	 .cfi_endproc
 684              	.LFE135:
 686              	 .text
 687              	.Letext0:
 688              	 .file 2 "c:\\infineon\\tools\\dave ide\\4.5.0.202105191637\\eclipse\\arm-gcc-49\\arm-none-eabi\\include\\machine\\_default_types.h"
 689              	 .file 3 "c:\\infineon\\tools\\dave ide\\4.5.0.202105191637\\eclipse\\arm-gcc-49\\arm-none-eabi\\include\\stdint.h"
 690              	 .file 4 "C:/Users/Utente/Desktop/Tesi/Firmware_Software/DAVE project/S2GLP_Pulsed_Doppler/Dave/Generated/CMSIS_DSP/arm_math.h"