   1              	 .syntax unified
   2              	 .cpu cortex-m4
   3              	 .eabi_attribute 27,3
   4              	 .fpu fpv4-sp-d16
   5              	 .eabi_attribute 20,1
   6              	 .eabi_attribute 21,1
   7              	 .eabi_attribute 23,3
   8              	 .eabi_attribute 24,1
   9              	 .eabi_attribute 25,1
  10              	 .eabi_attribute 26,1
  11              	 .eabi_attribute 30,2
  12              	 .eabi_attribute 34,1
  13              	 .eabi_attribute 18,4
  14              	 .thumb
  15              	 .file "arm_fir_interpolate_q15.c"
  16              	 .text
  17              	.Ltext0:
  18              	 .cfi_sections .debug_frame
  19              	 .section .text.arm_fir_interpolate_q15,"ax",%progbits
  20              	 .align 2
  21              	 .global arm_fir_interpolate_q15
  22              	 .thumb
  23              	 .thumb_func
  25              	arm_fir_interpolate_q15:
  26              	.LFB135:
  27              	 .file 1 "../Dave/Generated/CMSIS_DSP/FilteringFunctions/arm_fir_interpolate_q15.c"
   1:../Dave/Generated/CMSIS_DSP/FilteringFunctions/arm_fir_interpolate_q15.c **** /* ----------------------------------------------------------------------
   2:../Dave/Generated/CMSIS_DSP/FilteringFunctions/arm_fir_interpolate_q15.c ****  * Project:      CMSIS DSP Library
   3:../Dave/Generated/CMSIS_DSP/FilteringFunctions/arm_fir_interpolate_q15.c ****  * Title:        arm_fir_interpolate_q15.c
   4:../Dave/Generated/CMSIS_DSP/FilteringFunctions/arm_fir_interpolate_q15.c ****  * Description:  Q15 FIR interpolation
   5:../Dave/Generated/CMSIS_DSP/FilteringFunctions/arm_fir_interpolate_q15.c ****  *
   6:../Dave/Generated/CMSIS_DSP/FilteringFunctions/arm_fir_interpolate_q15.c ****  * $Date:        27. January 2017
   7:../Dave/Generated/CMSIS_DSP/FilteringFunctions/arm_fir_interpolate_q15.c ****  * $Revision:    V.1.5.1
   8:../Dave/Generated/CMSIS_DSP/FilteringFunctions/arm_fir_interpolate_q15.c ****  *
   9:../Dave/Generated/CMSIS_DSP/FilteringFunctions/arm_fir_interpolate_q15.c ****  * Target Processor: Cortex-M cores
  10:../Dave/Generated/CMSIS_DSP/FilteringFunctions/arm_fir_interpolate_q15.c ****  * -------------------------------------------------------------------- */
  11:../Dave/Generated/CMSIS_DSP/FilteringFunctions/arm_fir_interpolate_q15.c **** /*
  12:../Dave/Generated/CMSIS_DSP/FilteringFunctions/arm_fir_interpolate_q15.c ****  * Copyright (C) 2010-2017 ARM Limited or its affiliates. All rights reserved.
  13:../Dave/Generated/CMSIS_DSP/FilteringFunctions/arm_fir_interpolate_q15.c ****  *
  14:../Dave/Generated/CMSIS_DSP/FilteringFunctions/arm_fir_interpolate_q15.c ****  * SPDX-License-Identifier: Apache-2.0
  15:../Dave/Generated/CMSIS_DSP/FilteringFunctions/arm_fir_interpolate_q15.c ****  *
  16:../Dave/Generated/CMSIS_DSP/FilteringFunctions/arm_fir_interpolate_q15.c ****  * Licensed under the Apache License, Version 2.0 (the License); you may
  17:../Dave/Generated/CMSIS_DSP/FilteringFunctions/arm_fir_interpolate_q15.c ****  * not use this file except in compliance with the License.
  18:../Dave/Generated/CMSIS_DSP/FilteringFunctions/arm_fir_interpolate_q15.c ****  * You may obtain a copy of the License at
  19:../Dave/Generated/CMSIS_DSP/FilteringFunctions/arm_fir_interpolate_q15.c ****  *
  20:../Dave/Generated/CMSIS_DSP/FilteringFunctions/arm_fir_interpolate_q15.c ****  * www.apache.org/licenses/LICENSE-2.0
  21:../Dave/Generated/CMSIS_DSP/FilteringFunctions/arm_fir_interpolate_q15.c ****  *
  22:../Dave/Generated/CMSIS_DSP/FilteringFunctions/arm_fir_interpolate_q15.c ****  * Unless required by applicable law or agreed to in writing, software
  23:../Dave/Generated/CMSIS_DSP/FilteringFunctions/arm_fir_interpolate_q15.c ****  * distributed under the License is distributed on an AS IS BASIS, WITHOUT
  24:../Dave/Generated/CMSIS_DSP/FilteringFunctions/arm_fir_interpolate_q15.c ****  * WARRANTIES OR CONDITIONS OF ANY KIND, either express or implied.
  25:../Dave/Generated/CMSIS_DSP/FilteringFunctions/arm_fir_interpolate_q15.c ****  * See the License for the specific language governing permissions and
  26:../Dave/Generated/CMSIS_DSP/FilteringFunctions/arm_fir_interpolate_q15.c ****  * limitations under the License.
  27:../Dave/Generated/CMSIS_DSP/FilteringFunctions/arm_fir_interpolate_q15.c ****  */
  28:../Dave/Generated/CMSIS_DSP/FilteringFunctions/arm_fir_interpolate_q15.c **** 
  29:../Dave/Generated/CMSIS_DSP/FilteringFunctions/arm_fir_interpolate_q15.c **** #include "CMSIS_DSP/cmsis_dsp.h"
  30:../Dave/Generated/CMSIS_DSP/FilteringFunctions/arm_fir_interpolate_q15.c **** 
  31:../Dave/Generated/CMSIS_DSP/FilteringFunctions/arm_fir_interpolate_q15.c **** /**
  32:../Dave/Generated/CMSIS_DSP/FilteringFunctions/arm_fir_interpolate_q15.c ****  * @ingroup groupFilters
  33:../Dave/Generated/CMSIS_DSP/FilteringFunctions/arm_fir_interpolate_q15.c ****  */
  34:../Dave/Generated/CMSIS_DSP/FilteringFunctions/arm_fir_interpolate_q15.c **** 
  35:../Dave/Generated/CMSIS_DSP/FilteringFunctions/arm_fir_interpolate_q15.c **** /**
  36:../Dave/Generated/CMSIS_DSP/FilteringFunctions/arm_fir_interpolate_q15.c ****  * @addtogroup FIR_Interpolate
  37:../Dave/Generated/CMSIS_DSP/FilteringFunctions/arm_fir_interpolate_q15.c ****  * @{
  38:../Dave/Generated/CMSIS_DSP/FilteringFunctions/arm_fir_interpolate_q15.c ****  */
  39:../Dave/Generated/CMSIS_DSP/FilteringFunctions/arm_fir_interpolate_q15.c **** 
  40:../Dave/Generated/CMSIS_DSP/FilteringFunctions/arm_fir_interpolate_q15.c **** /**
  41:../Dave/Generated/CMSIS_DSP/FilteringFunctions/arm_fir_interpolate_q15.c ****  * @brief Processing function for the Q15 FIR interpolator.
  42:../Dave/Generated/CMSIS_DSP/FilteringFunctions/arm_fir_interpolate_q15.c ****  * @param[in] *S        points to an instance of the Q15 FIR interpolator structure.
  43:../Dave/Generated/CMSIS_DSP/FilteringFunctions/arm_fir_interpolate_q15.c ****  * @param[in] *pSrc     points to the block of input data.
  44:../Dave/Generated/CMSIS_DSP/FilteringFunctions/arm_fir_interpolate_q15.c ****  * @param[out] *pDst    points to the block of output data.
  45:../Dave/Generated/CMSIS_DSP/FilteringFunctions/arm_fir_interpolate_q15.c ****  * @param[in] blockSize number of input samples to process per call.
  46:../Dave/Generated/CMSIS_DSP/FilteringFunctions/arm_fir_interpolate_q15.c ****  * @return none.
  47:../Dave/Generated/CMSIS_DSP/FilteringFunctions/arm_fir_interpolate_q15.c ****  *
  48:../Dave/Generated/CMSIS_DSP/FilteringFunctions/arm_fir_interpolate_q15.c ****  * <b>Scaling and Overflow Behavior:</b>
  49:../Dave/Generated/CMSIS_DSP/FilteringFunctions/arm_fir_interpolate_q15.c ****  * \par
  50:../Dave/Generated/CMSIS_DSP/FilteringFunctions/arm_fir_interpolate_q15.c ****  * The function is implemented using a 64-bit internal accumulator.
  51:../Dave/Generated/CMSIS_DSP/FilteringFunctions/arm_fir_interpolate_q15.c ****  * Both coefficients and state variables are represented in 1.15 format and multiplications yield a
  52:../Dave/Generated/CMSIS_DSP/FilteringFunctions/arm_fir_interpolate_q15.c ****  * The 2.30 intermediate results are accumulated in a 64-bit accumulator in 34.30 format.
  53:../Dave/Generated/CMSIS_DSP/FilteringFunctions/arm_fir_interpolate_q15.c ****  * There is no risk of internal overflow with this approach and the full precision of intermediate 
  54:../Dave/Generated/CMSIS_DSP/FilteringFunctions/arm_fir_interpolate_q15.c ****  * After all additions have been performed, the accumulator is truncated to 34.15 format by discard
  55:../Dave/Generated/CMSIS_DSP/FilteringFunctions/arm_fir_interpolate_q15.c ****  * Lastly, the accumulator is saturated to yield a result in 1.15 format.
  56:../Dave/Generated/CMSIS_DSP/FilteringFunctions/arm_fir_interpolate_q15.c ****  */
  57:../Dave/Generated/CMSIS_DSP/FilteringFunctions/arm_fir_interpolate_q15.c **** 
  58:../Dave/Generated/CMSIS_DSP/FilteringFunctions/arm_fir_interpolate_q15.c **** #if defined (ARM_MATH_DSP)
  59:../Dave/Generated/CMSIS_DSP/FilteringFunctions/arm_fir_interpolate_q15.c **** 
  60:../Dave/Generated/CMSIS_DSP/FilteringFunctions/arm_fir_interpolate_q15.c ****   /* Run the below code for Cortex-M4 and Cortex-M3 */
  61:../Dave/Generated/CMSIS_DSP/FilteringFunctions/arm_fir_interpolate_q15.c **** 
  62:../Dave/Generated/CMSIS_DSP/FilteringFunctions/arm_fir_interpolate_q15.c **** void arm_fir_interpolate_q15(
  63:../Dave/Generated/CMSIS_DSP/FilteringFunctions/arm_fir_interpolate_q15.c ****   const arm_fir_interpolate_instance_q15 * S,
  64:../Dave/Generated/CMSIS_DSP/FilteringFunctions/arm_fir_interpolate_q15.c ****   q15_t * pSrc,
  65:../Dave/Generated/CMSIS_DSP/FilteringFunctions/arm_fir_interpolate_q15.c ****   q15_t * pDst,
  66:../Dave/Generated/CMSIS_DSP/FilteringFunctions/arm_fir_interpolate_q15.c ****   uint32_t blockSize)
  67:../Dave/Generated/CMSIS_DSP/FilteringFunctions/arm_fir_interpolate_q15.c **** {
  28              	 .loc 1 67 0
  29              	 .cfi_startproc
  30              	 
  31              	 
  32              	.LVL0:
  33 0000 2DE9F04F 	 push {r4,r5,r6,r7,r8,r9,r10,fp,lr}
  34              	.LCFI0:
  35              	 .cfi_def_cfa_offset 36
  36              	 .cfi_offset 4,-36
  37              	 .cfi_offset 5,-32
  38              	 .cfi_offset 6,-28
  39              	 .cfi_offset 7,-24
  40              	 .cfi_offset 8,-20
  41              	 .cfi_offset 9,-16
  42              	 .cfi_offset 10,-12
  43              	 .cfi_offset 11,-8
  44              	 .cfi_offset 14,-4
  45 0004 9DB0     	 sub sp,sp,#116
  46              	.LCFI1:
  47              	 .cfi_def_cfa_offset 152
  48              	 .loc 1 67 0
  49 0006 0546     	 mov r5,r0
  50 0008 0690     	 str r0,[sp,#24]
  68:../Dave/Generated/CMSIS_DSP/FilteringFunctions/arm_fir_interpolate_q15.c ****   q15_t *pState = S->pState;                     /* State pointer                                  
  69:../Dave/Generated/CMSIS_DSP/FilteringFunctions/arm_fir_interpolate_q15.c ****   q15_t *pCoeffs = S->pCoeffs;                   /* Coefficient pointer                            
  70:../Dave/Generated/CMSIS_DSP/FilteringFunctions/arm_fir_interpolate_q15.c ****   q15_t *pStateCurnt;                            /* Points to the current sample of the state      
  71:../Dave/Generated/CMSIS_DSP/FilteringFunctions/arm_fir_interpolate_q15.c ****   q15_t *ptr1, *ptr2;                            /* Temporary pointers for state and coefficient bu
  72:../Dave/Generated/CMSIS_DSP/FilteringFunctions/arm_fir_interpolate_q15.c ****   q63_t sum0;                                    /* Accumulators                                   
  73:../Dave/Generated/CMSIS_DSP/FilteringFunctions/arm_fir_interpolate_q15.c ****   q15_t x0, c0;                                  /* Temporary variables to hold state and coefficie
  74:../Dave/Generated/CMSIS_DSP/FilteringFunctions/arm_fir_interpolate_q15.c ****   uint32_t i, blkCnt, j, tapCnt;                 /* Loop counters                                  
  75:../Dave/Generated/CMSIS_DSP/FilteringFunctions/arm_fir_interpolate_q15.c ****   uint16_t phaseLen = S->phaseLength;            /* Length of each polyphase filter component */
  51              	 .loc 1 75 0
  52 000a 4088     	 ldrh r0,[r0,#2]
  53              	.LVL1:
  68:../Dave/Generated/CMSIS_DSP/FilteringFunctions/arm_fir_interpolate_q15.c ****   q15_t *pState = S->pState;                     /* State pointer                                  
  54              	 .loc 1 68 0
  55 000c AC68     	 ldr r4,[r5,#8]
  67:../Dave/Generated/CMSIS_DSP/FilteringFunctions/arm_fir_interpolate_q15.c ****   q15_t *pState = S->pState;                     /* State pointer                                  
  56              	 .loc 1 67 0
  57 000e 1391     	 str r1,[sp,#76]
  58 0010 0F46     	 mov r7,r1
  76:../Dave/Generated/CMSIS_DSP/FilteringFunctions/arm_fir_interpolate_q15.c ****   uint32_t blkCntN2;
  77:../Dave/Generated/CMSIS_DSP/FilteringFunctions/arm_fir_interpolate_q15.c ****   q63_t acc0, acc1;
  78:../Dave/Generated/CMSIS_DSP/FilteringFunctions/arm_fir_interpolate_q15.c ****   q15_t x1;
  79:../Dave/Generated/CMSIS_DSP/FilteringFunctions/arm_fir_interpolate_q15.c **** 
  80:../Dave/Generated/CMSIS_DSP/FilteringFunctions/arm_fir_interpolate_q15.c ****   /* S->pState buffer contains previous frame (phaseLen - 1) samples */
  81:../Dave/Generated/CMSIS_DSP/FilteringFunctions/arm_fir_interpolate_q15.c ****   /* pStateCurnt points to the location where the new input data should be written */
  82:../Dave/Generated/CMSIS_DSP/FilteringFunctions/arm_fir_interpolate_q15.c ****   pStateCurnt = S->pState + ((q31_t) phaseLen - 1);
  59              	 .loc 1 82 0
  60 0012 00F10041 	 add r1,r0,#-2147483648
  61              	.LVL2:
  68:../Dave/Generated/CMSIS_DSP/FilteringFunctions/arm_fir_interpolate_q15.c ****   q15_t *pCoeffs = S->pCoeffs;                   /* Coefficient pointer                            
  62              	 .loc 1 68 0
  63 0016 2646     	 mov r6,r4
  64 0018 1794     	 str r4,[sp,#92]
  65              	.LVL3:
  66              	 .loc 1 82 0
  67 001a 0139     	 subs r1,r1,#1
  69:../Dave/Generated/CMSIS_DSP/FilteringFunctions/arm_fir_interpolate_q15.c ****   q15_t *pStateCurnt;                            /* Points to the current sample of the state      
  68              	 .loc 1 69 0
  69 001c 6C68     	 ldr r4,[r5,#4]
  70              	.LVL4:
  75:../Dave/Generated/CMSIS_DSP/FilteringFunctions/arm_fir_interpolate_q15.c ****   uint32_t blkCntN2;
  71              	 .loc 1 75 0
  72 001e 1990     	 str r0,[sp,#100]
  69:../Dave/Generated/CMSIS_DSP/FilteringFunctions/arm_fir_interpolate_q15.c ****   q15_t *pStateCurnt;                            /* Points to the current sample of the state      
  73              	 .loc 1 69 0
  74 0020 0894     	 str r4,[sp,#32]
  75              	.LVL5:
  67:../Dave/Generated/CMSIS_DSP/FilteringFunctions/arm_fir_interpolate_q15.c ****   q15_t *pState = S->pState;                     /* State pointer                                  
  76              	 .loc 1 67 0
  77 0022 1092     	 str r2,[sp,#64]
  78              	 .loc 1 82 0
  79 0024 0446     	 mov r4,r0
  80              	.LVL6:
  81 0026 06EB4102 	 add r2,r6,r1,lsl#1
  82              	.LVL7:
  83:../Dave/Generated/CMSIS_DSP/FilteringFunctions/arm_fir_interpolate_q15.c **** 
  84:../Dave/Generated/CMSIS_DSP/FilteringFunctions/arm_fir_interpolate_q15.c ****   /* Initialise  blkCnt */
  85:../Dave/Generated/CMSIS_DSP/FilteringFunctions/arm_fir_interpolate_q15.c ****   blkCnt = blockSize / 2;
  86:../Dave/Generated/CMSIS_DSP/FilteringFunctions/arm_fir_interpolate_q15.c ****   blkCntN2 = blockSize - (2 * blkCnt);
  83              	 .loc 1 86 0
  84 002a 03F00100 	 and r0,r3,#1
  85              	.LVL8:
  87:../Dave/Generated/CMSIS_DSP/FilteringFunctions/arm_fir_interpolate_q15.c **** 
  88:../Dave/Generated/CMSIS_DSP/FilteringFunctions/arm_fir_interpolate_q15.c ****   /* Samples loop unrolled by 2 */
  89:../Dave/Generated/CMSIS_DSP/FilteringFunctions/arm_fir_interpolate_q15.c ****   while (blkCnt > 0u)
  86              	 .loc 1 89 0
  87 002e 5B08     	 lsrs r3,r3,#1
  88              	.LVL9:
  82:../Dave/Generated/CMSIS_DSP/FilteringFunctions/arm_fir_interpolate_q15.c **** 
  89              	 .loc 1 82 0
  90 0030 1892     	 str r2,[sp,#96]
  91              	.LVL10:
  86:../Dave/Generated/CMSIS_DSP/FilteringFunctions/arm_fir_interpolate_q15.c **** 
  92              	 .loc 1 86 0
  93 0032 1A90     	 str r0,[sp,#104]
  94              	.LVL11:
  95              	 .loc 1 89 0
  96 0034 1B93     	 str r3,[sp,#108]
  97 0036 00F0B581 	 beq .L25
  98 003a 0432     	 adds r2,r2,#4
  99 003c 1192     	 str r2,[sp,#68]
 100 003e 3A46     	 mov r2,r7
 101 0040 0432     	 adds r2,r2,#4
 102 0042 2046     	 mov r0,r4
 103              	.LVL12:
 104 0044 1292     	 str r2,[sp,#72]
 105 0046 A408     	 lsrs r4,r4,#2
 106              	.LVL13:
 107 0048 3246     	 mov r2,r6
 108 004a 0994     	 str r4,[sp,#36]
 109 004c 00F00300 	 and r0,r0,#3
 110              	.LVL14:
 111 0050 E400     	 lsls r4,r4,#3
 112 0052 0232     	 adds r2,r2,#2
 113 0054 1694     	 str r4,[sp,#88]
 114 0056 0E90     	 str r0,[sp,#56]
 115 0058 0C92     	 str r2,[sp,#48]
 116 005a 1593     	 str r3,[sp,#84]
 117              	.LVL15:
 118              	.L10:
  90:../Dave/Generated/CMSIS_DSP/FilteringFunctions/arm_fir_interpolate_q15.c ****   {
  91:../Dave/Generated/CMSIS_DSP/FilteringFunctions/arm_fir_interpolate_q15.c ****     /* Copy new input sample into the state buffer */
  92:../Dave/Generated/CMSIS_DSP/FilteringFunctions/arm_fir_interpolate_q15.c ****     *pStateCurnt++ = *pSrc++;
 119              	 .loc 1 92 0
 120 005c 129A     	 ldr r2,[sp,#72]
 121 005e 1198     	 ldr r0,[sp,#68]
 122 0060 32F8043C 	 ldrh r3,[r2,#-4]
 123 0064 20F8043C 	 strh r3,[r0,#-4]
 124              	.LVL16:
  93:../Dave/Generated/CMSIS_DSP/FilteringFunctions/arm_fir_interpolate_q15.c ****     *pStateCurnt++ = *pSrc++;
 125              	 .loc 1 93 0
 126 0068 32F8023C 	 ldrh r3,[r2,#-2]
 127 006c 20F8023C 	 strh r3,[r0,#-2]
 128              	.LVL17:
  94:../Dave/Generated/CMSIS_DSP/FilteringFunctions/arm_fir_interpolate_q15.c **** 
  95:../Dave/Generated/CMSIS_DSP/FilteringFunctions/arm_fir_interpolate_q15.c ****     /* Address modifier index of coefficient buffer */
  96:../Dave/Generated/CMSIS_DSP/FilteringFunctions/arm_fir_interpolate_q15.c ****     j = 1u;
  97:../Dave/Generated/CMSIS_DSP/FilteringFunctions/arm_fir_interpolate_q15.c **** 
  98:../Dave/Generated/CMSIS_DSP/FilteringFunctions/arm_fir_interpolate_q15.c ****     /* Loop over the Interpolation factor. */
  99:../Dave/Generated/CMSIS_DSP/FilteringFunctions/arm_fir_interpolate_q15.c ****     i = (S->L);
 129              	 .loc 1 99 0
 130 0070 069B     	 ldr r3,[sp,#24]
 131 0072 1B78     	 ldrb r3,[r3]
 132 0074 1493     	 str r3,[sp,#80]
 133              	.LVL18:
 100:../Dave/Generated/CMSIS_DSP/FilteringFunctions/arm_fir_interpolate_q15.c **** 
 101:../Dave/Generated/CMSIS_DSP/FilteringFunctions/arm_fir_interpolate_q15.c ****     while (i > 0u)
 134              	 .loc 1 101 0
 135 0076 002B     	 cmp r3,#0
 136 0078 00F0A980 	 beq .L3
 137 007c 5A1C     	 adds r2,r3,#1
 138 007e 0C99     	 ldr r1,[sp,#48]
 139 0080 0D92     	 str r2,[sp,#52]
 140 0082 169A     	 ldr r2,[sp,#88]
 141 0084 0593     	 str r3,[sp,#20]
 142 0086 0A44     	 add r2,r2,r1
 143 0088 109B     	 ldr r3,[sp,#64]
 144              	.LVL19:
 145 008a 0F92     	 str r2,[sp,#60]
 146 008c 0793     	 str r3,[sp,#28]
 147 008e 059A     	 ldr r2,[sp,#20]
 148 0090 0123     	 movs r3,#1
 149 0092 0493     	 str r3,[sp,#16]
 150 0094 1946     	 mov r1,r3
 151              	.LVL20:
 152              	.L9:
 102:../Dave/Generated/CMSIS_DSP/FilteringFunctions/arm_fir_interpolate_q15.c ****     {
 103:../Dave/Generated/CMSIS_DSP/FilteringFunctions/arm_fir_interpolate_q15.c ****       /* Set accumulator to zero */
 104:../Dave/Generated/CMSIS_DSP/FilteringFunctions/arm_fir_interpolate_q15.c ****       acc0 = 0;
 105:../Dave/Generated/CMSIS_DSP/FilteringFunctions/arm_fir_interpolate_q15.c ****       acc1 = 0;
 106:../Dave/Generated/CMSIS_DSP/FilteringFunctions/arm_fir_interpolate_q15.c **** 
 107:../Dave/Generated/CMSIS_DSP/FilteringFunctions/arm_fir_interpolate_q15.c ****       /* Initialize state pointer */
 108:../Dave/Generated/CMSIS_DSP/FilteringFunctions/arm_fir_interpolate_q15.c ****       ptr1 = pState;
 109:../Dave/Generated/CMSIS_DSP/FilteringFunctions/arm_fir_interpolate_q15.c **** 
 110:../Dave/Generated/CMSIS_DSP/FilteringFunctions/arm_fir_interpolate_q15.c ****       /* Initialize coefficient pointer */
 111:../Dave/Generated/CMSIS_DSP/FilteringFunctions/arm_fir_interpolate_q15.c ****       ptr2 = pCoeffs + (S->L - j);
 153              	 .loc 1 111 0
 154 0096 531A     	 subs r3,r2,r1
 112:../Dave/Generated/CMSIS_DSP/FilteringFunctions/arm_fir_interpolate_q15.c **** 
 113:../Dave/Generated/CMSIS_DSP/FilteringFunctions/arm_fir_interpolate_q15.c ****       /* Loop over the polyPhase length. Unroll by a factor of 4.
 114:../Dave/Generated/CMSIS_DSP/FilteringFunctions/arm_fir_interpolate_q15.c ****        ** Repeat until we've computed numTaps-(4*S->L) coefficients. */
 115:../Dave/Generated/CMSIS_DSP/FilteringFunctions/arm_fir_interpolate_q15.c ****       tapCnt = phaseLen >> 2u;
 116:../Dave/Generated/CMSIS_DSP/FilteringFunctions/arm_fir_interpolate_q15.c **** 
 117:../Dave/Generated/CMSIS_DSP/FilteringFunctions/arm_fir_interpolate_q15.c ****       x0 = *(ptr1++);
 155              	 .loc 1 117 0
 156 0098 0C9E     	 ldr r6,[sp,#48]
 111:../Dave/Generated/CMSIS_DSP/FilteringFunctions/arm_fir_interpolate_q15.c **** 
 157              	 .loc 1 111 0
 158 009a 0899     	 ldr r1,[sp,#32]
 118:../Dave/Generated/CMSIS_DSP/FilteringFunctions/arm_fir_interpolate_q15.c **** 
 119:../Dave/Generated/CMSIS_DSP/FilteringFunctions/arm_fir_interpolate_q15.c ****       while (tapCnt > 0u)
 159              	 .loc 1 119 0
 160 009c 099F     	 ldr r7,[sp,#36]
 117:../Dave/Generated/CMSIS_DSP/FilteringFunctions/arm_fir_interpolate_q15.c **** 
 161              	 .loc 1 117 0
 162 009e 36F8029C 	 ldrh r9,[r6,#-2]
 111:../Dave/Generated/CMSIS_DSP/FilteringFunctions/arm_fir_interpolate_q15.c **** 
 163              	 .loc 1 111 0
 164 00a2 01EB430B 	 add fp,r1,r3,lsl#1
 165              	.LVL21:
 166              	 .loc 1 119 0
 167 00a6 002F     	 cmp r7,#0
 168 00a8 00F07681 	 beq .L27
 169 00ac 13B2     	 sxth r3,r2
 170 00ae 0024     	 movs r4,#0
 171 00b0 0025     	 movs r5,#0
 172 00b2 4FEA4308 	 lsl r8,r3,#1
 173 00b6 DB00     	 lsls r3,r3,#3
 174 00b8 0097     	 str r7,[sp]
 175 00ba CDF82CB0 	 str fp,[sp,#44]
 176 00be 5F46     	 mov r7,fp
 177              	.LVL22:
 178 00c0 0A93     	 str r3,[sp,#40]
 179 00c2 2046     	 mov r0,r4
 180 00c4 2946     	 mov r1,r5
 181 00c6 06F10802 	 add r2,r6,#8
 182 00ca A246     	 mov r10,r4
 183 00cc AB46     	 mov fp,r5
 184              	.LVL23:
 185              	.L5:
 120:../Dave/Generated/CMSIS_DSP/FilteringFunctions/arm_fir_interpolate_q15.c ****       {
 121:../Dave/Generated/CMSIS_DSP/FilteringFunctions/arm_fir_interpolate_q15.c **** 
 122:../Dave/Generated/CMSIS_DSP/FilteringFunctions/arm_fir_interpolate_q15.c ****         /* Read the input sample */
 123:../Dave/Generated/CMSIS_DSP/FilteringFunctions/arm_fir_interpolate_q15.c ****         x1 = *(ptr1++);
 186              	 .loc 1 123 0
 187 00ce 32F8084C 	 ldrh r4,[r2,#-8]
 188              	.LVL24:
 124:../Dave/Generated/CMSIS_DSP/FilteringFunctions/arm_fir_interpolate_q15.c **** 
 125:../Dave/Generated/CMSIS_DSP/FilteringFunctions/arm_fir_interpolate_q15.c ****         /* Read the coefficient */
 126:../Dave/Generated/CMSIS_DSP/FilteringFunctions/arm_fir_interpolate_q15.c ****         c0 = *(ptr2);
 189              	 .loc 1 126 0
 190 00d2 3B88     	 ldrh r3,[r7]
 191              	.LVL25:
 127:../Dave/Generated/CMSIS_DSP/FilteringFunctions/arm_fir_interpolate_q15.c **** 
 128:../Dave/Generated/CMSIS_DSP/FilteringFunctions/arm_fir_interpolate_q15.c ****         /* Perform the multiply-accumulate */
 129:../Dave/Generated/CMSIS_DSP/FilteringFunctions/arm_fir_interpolate_q15.c ****         acc0 += (q63_t) x0 *c0;
 130:../Dave/Generated/CMSIS_DSP/FilteringFunctions/arm_fir_interpolate_q15.c ****         acc1 += (q63_t) x1 *c0;
 131:../Dave/Generated/CMSIS_DSP/FilteringFunctions/arm_fir_interpolate_q15.c **** 
 132:../Dave/Generated/CMSIS_DSP/FilteringFunctions/arm_fir_interpolate_q15.c **** 
 133:../Dave/Generated/CMSIS_DSP/FilteringFunctions/arm_fir_interpolate_q15.c ****         /* Read the coefficient */
 134:../Dave/Generated/CMSIS_DSP/FilteringFunctions/arm_fir_interpolate_q15.c ****         c0 = *(ptr2 + S->L);
 192              	 .loc 1 134 0
 193 00d4 37F80850 	 ldrh r5,[r7,r8]
 135:../Dave/Generated/CMSIS_DSP/FilteringFunctions/arm_fir_interpolate_q15.c **** 
 136:../Dave/Generated/CMSIS_DSP/FilteringFunctions/arm_fir_interpolate_q15.c ****         /* Read the input sample */
 137:../Dave/Generated/CMSIS_DSP/FilteringFunctions/arm_fir_interpolate_q15.c ****         x0 = *(ptr1++);
 194              	 .loc 1 137 0
 195 00d8 32F806CC 	 ldrh ip,[r2,#-6]
 138:../Dave/Generated/CMSIS_DSP/FilteringFunctions/arm_fir_interpolate_q15.c **** 
 139:../Dave/Generated/CMSIS_DSP/FilteringFunctions/arm_fir_interpolate_q15.c ****         /* Perform the multiply-accumulate */
 140:../Dave/Generated/CMSIS_DSP/FilteringFunctions/arm_fir_interpolate_q15.c ****         acc0 += (q63_t) x1 *c0;
 141:../Dave/Generated/CMSIS_DSP/FilteringFunctions/arm_fir_interpolate_q15.c ****         acc1 += (q63_t) x0 *c0;
 142:../Dave/Generated/CMSIS_DSP/FilteringFunctions/arm_fir_interpolate_q15.c **** 
 143:../Dave/Generated/CMSIS_DSP/FilteringFunctions/arm_fir_interpolate_q15.c **** 
 144:../Dave/Generated/CMSIS_DSP/FilteringFunctions/arm_fir_interpolate_q15.c ****         /* Read the coefficient */
 145:../Dave/Generated/CMSIS_DSP/FilteringFunctions/arm_fir_interpolate_q15.c ****         c0 = *(ptr2 + S->L * 2);
 146:../Dave/Generated/CMSIS_DSP/FilteringFunctions/arm_fir_interpolate_q15.c **** 
 147:../Dave/Generated/CMSIS_DSP/FilteringFunctions/arm_fir_interpolate_q15.c ****         /* Read the input sample */
 148:../Dave/Generated/CMSIS_DSP/FilteringFunctions/arm_fir_interpolate_q15.c ****         x1 = *(ptr1++);
 196              	 .loc 1 148 0
 197 00dc 32F804EC 	 ldrh lr,[r2,#-4]
 130:../Dave/Generated/CMSIS_DSP/FilteringFunctions/arm_fir_interpolate_q15.c **** 
 198              	 .loc 1 130 0
 199 00e0 C3FB8401 	 smlalbb r0,r1,r3,r4
 200              	.LVL26:
 201 00e4 CDE90201 	 strd r0,[sp,#8]
 129:../Dave/Generated/CMSIS_DSP/FilteringFunctions/arm_fir_interpolate_q15.c ****         acc1 += (q63_t) x1 *c0;
 202              	 .loc 1 129 0
 203 00e8 5046     	 mov r0,r10
 204 00ea 5946     	 mov r1,fp
 141:../Dave/Generated/CMSIS_DSP/FilteringFunctions/arm_fir_interpolate_q15.c **** 
 205              	 .loc 1 141 0
 206 00ec DDE902AB 	 ldrd r10,[sp,#8]
 207              	.LVL27:
 129:../Dave/Generated/CMSIS_DSP/FilteringFunctions/arm_fir_interpolate_q15.c ****         acc1 += (q63_t) x1 *c0;
 208              	 .loc 1 129 0
 209 00f0 C9FB8301 	 smlalbb r0,r1,r9,r3
 210              	.LVL28:
 211 00f4 07EB0803 	 add r3,r7,r8
 141:../Dave/Generated/CMSIS_DSP/FilteringFunctions/arm_fir_interpolate_q15.c **** 
 212              	 .loc 1 141 0
 213 00f8 C5FB8CAB 	 smlalbb r10,fp,r5,ip
 214              	.LVL29:
 145:../Dave/Generated/CMSIS_DSP/FilteringFunctions/arm_fir_interpolate_q15.c **** 
 215              	 .loc 1 145 0
 216 00fc 37F81870 	 ldrh r7,[r7,r8,lsl#1]
 217              	.LVL30:
 149:../Dave/Generated/CMSIS_DSP/FilteringFunctions/arm_fir_interpolate_q15.c **** 
 150:../Dave/Generated/CMSIS_DSP/FilteringFunctions/arm_fir_interpolate_q15.c ****         /* Perform the multiply-accumulate */
 151:../Dave/Generated/CMSIS_DSP/FilteringFunctions/arm_fir_interpolate_q15.c ****         acc0 += (q63_t) x0 *c0;
 152:../Dave/Generated/CMSIS_DSP/FilteringFunctions/arm_fir_interpolate_q15.c ****         acc1 += (q63_t) x1 *c0;
 153:../Dave/Generated/CMSIS_DSP/FilteringFunctions/arm_fir_interpolate_q15.c **** 
 154:../Dave/Generated/CMSIS_DSP/FilteringFunctions/arm_fir_interpolate_q15.c ****         /* Read the coefficient */
 155:../Dave/Generated/CMSIS_DSP/FilteringFunctions/arm_fir_interpolate_q15.c ****         c0 = *(ptr2 + S->L * 3);
 218              	 .loc 1 155 0
 219 0100 33F81860 	 ldrh r6,[r3,r8,lsl#1]
 156:../Dave/Generated/CMSIS_DSP/FilteringFunctions/arm_fir_interpolate_q15.c **** 
 157:../Dave/Generated/CMSIS_DSP/FilteringFunctions/arm_fir_interpolate_q15.c ****         /* Read the input sample */
 158:../Dave/Generated/CMSIS_DSP/FilteringFunctions/arm_fir_interpolate_q15.c ****         x0 = *(ptr1++);
 220              	 .loc 1 158 0
 221 0104 32F8029C 	 ldrh r9,[r2,#-2]
 140:../Dave/Generated/CMSIS_DSP/FilteringFunctions/arm_fir_interpolate_q15.c ****         acc1 += (q63_t) x0 *c0;
 222              	 .loc 1 140 0
 223 0108 C4FB8501 	 smlalbb r0,r1,r4,r5
 224              	.LVL31:
 225 010c 03EB4803 	 add r3,r3,r8,lsl#1
 141:../Dave/Generated/CMSIS_DSP/FilteringFunctions/arm_fir_interpolate_q15.c **** 
 226              	 .loc 1 141 0
 227 0110 5446     	 mov r4,r10
 228              	.LVL32:
 229 0112 5D46     	 mov r5,fp
 230              	.LVL33:
 152:../Dave/Generated/CMSIS_DSP/FilteringFunctions/arm_fir_interpolate_q15.c **** 
 231              	 .loc 1 152 0
 232 0114 C7FB8E45 	 smlalbb r4,r5,r7,lr
 233              	.LVL34:
 151:../Dave/Generated/CMSIS_DSP/FilteringFunctions/arm_fir_interpolate_q15.c ****         acc1 += (q63_t) x1 *c0;
 234              	 .loc 1 151 0
 235 0118 CCFB8701 	 smlalbb r0,r1,ip,r7
 236              	.LVL35:
 159:../Dave/Generated/CMSIS_DSP/FilteringFunctions/arm_fir_interpolate_q15.c **** 
 160:../Dave/Generated/CMSIS_DSP/FilteringFunctions/arm_fir_interpolate_q15.c ****         /* Perform the multiply-accumulate */
 161:../Dave/Generated/CMSIS_DSP/FilteringFunctions/arm_fir_interpolate_q15.c ****         acc0 += (q63_t) x1 *c0;
 162:../Dave/Generated/CMSIS_DSP/FilteringFunctions/arm_fir_interpolate_q15.c ****         acc1 += (q63_t) x0 *c0;
 163:../Dave/Generated/CMSIS_DSP/FilteringFunctions/arm_fir_interpolate_q15.c **** 
 164:../Dave/Generated/CMSIS_DSP/FilteringFunctions/arm_fir_interpolate_q15.c **** 
 165:../Dave/Generated/CMSIS_DSP/FilteringFunctions/arm_fir_interpolate_q15.c ****         /* Upsampling is done by stuffing L-1 zeros between each sample.
 166:../Dave/Generated/CMSIS_DSP/FilteringFunctions/arm_fir_interpolate_q15.c ****          * So instead of multiplying zeros with coefficients,
 167:../Dave/Generated/CMSIS_DSP/FilteringFunctions/arm_fir_interpolate_q15.c ****          * Increment the coefficient pointer by interpolation factor times. */
 168:../Dave/Generated/CMSIS_DSP/FilteringFunctions/arm_fir_interpolate_q15.c ****         ptr2 += 4 * S->L;
 237              	 .loc 1 168 0
 238 011c 03EB0807 	 add r7,r3,r8
 119:../Dave/Generated/CMSIS_DSP/FilteringFunctions/arm_fir_interpolate_q15.c ****       {
 239              	 .loc 1 119 0
 240 0120 009B     	 ldr r3,[sp]
 161:../Dave/Generated/CMSIS_DSP/FilteringFunctions/arm_fir_interpolate_q15.c ****         acc1 += (q63_t) x0 *c0;
 241              	 .loc 1 161 0
 242 0122 CEFB8601 	 smlalbb r0,r1,lr,r6
 243              	.LVL36:
 244 0126 8246     	 mov r10,r0
 245 0128 8B46     	 mov fp,r1
 246              	.LVL37:
 162:../Dave/Generated/CMSIS_DSP/FilteringFunctions/arm_fir_interpolate_q15.c **** 
 247              	 .loc 1 162 0
 248 012a 2046     	 mov r0,r4
 249 012c 2946     	 mov r1,r5
 119:../Dave/Generated/CMSIS_DSP/FilteringFunctions/arm_fir_interpolate_q15.c ****       {
 250              	 .loc 1 119 0
 251 012e 013B     	 subs r3,r3,#1
 162:../Dave/Generated/CMSIS_DSP/FilteringFunctions/arm_fir_interpolate_q15.c **** 
 252              	 .loc 1 162 0
 253 0130 C6FB8901 	 smlalbb r0,r1,r6,r9
 254              	.LVL38:
 255 0134 02F10802 	 add r2,r2,#8
 256              	.LVL39:
 119:../Dave/Generated/CMSIS_DSP/FilteringFunctions/arm_fir_interpolate_q15.c ****       {
 257              	 .loc 1 119 0
 258 0138 0093     	 str r3,[sp]
 259 013a C8D1     	 bne .L5
 260 013c 0D46     	 mov r5,r1
 261 013e 099B     	 ldr r3,[sp,#36]
 262              	.LVL40:
 263 0140 0A9A     	 ldr r2,[sp,#40]
 264              	.LVL41:
 158:../Dave/Generated/CMSIS_DSP/FilteringFunctions/arm_fir_interpolate_q15.c **** 
 265              	 .loc 1 158 0
 266 0142 0F9F     	 ldr r7,[sp,#60]
 267              	.LVL42:
 268 0144 5946     	 mov r1,fp
 269 0146 DDF82CB0 	 ldr fp,[sp,#44]
 270 014a 0446     	 mov r4,r0
 271 014c 02FB03BB 	 mla fp,r2,r3,fp
 272 0150 5046     	 mov r0,r10
 273              	.LVL43:
 274              	.L4:
 169:../Dave/Generated/CMSIS_DSP/FilteringFunctions/arm_fir_interpolate_q15.c **** 
 170:../Dave/Generated/CMSIS_DSP/FilteringFunctions/arm_fir_interpolate_q15.c ****         /* Decrement the loop counter */
 171:../Dave/Generated/CMSIS_DSP/FilteringFunctions/arm_fir_interpolate_q15.c ****         tapCnt--;
 172:../Dave/Generated/CMSIS_DSP/FilteringFunctions/arm_fir_interpolate_q15.c ****       }
 173:../Dave/Generated/CMSIS_DSP/FilteringFunctions/arm_fir_interpolate_q15.c **** 
 174:../Dave/Generated/CMSIS_DSP/FilteringFunctions/arm_fir_interpolate_q15.c ****       /* If the polyPhase length is not a multiple of 4, compute the remaining filter taps */
 175:../Dave/Generated/CMSIS_DSP/FilteringFunctions/arm_fir_interpolate_q15.c ****       tapCnt = phaseLen % 0x4u;
 176:../Dave/Generated/CMSIS_DSP/FilteringFunctions/arm_fir_interpolate_q15.c **** 
 177:../Dave/Generated/CMSIS_DSP/FilteringFunctions/arm_fir_interpolate_q15.c ****       while (tapCnt > 0u)
 275              	 .loc 1 177 0
 276 0152 0E9B     	 ldr r3,[sp,#56]
 277 0154 B3B1     	 cbz r3,.L6
 278 0156 CDE90001 	 strd r0,[sp]
 279 015a 059A     	 ldr r2,[sp,#20]
 280 015c 3846     	 mov r0,r7
 281              	.LVL44:
 282 015e DDE90067 	 ldrd r6,[sp]
 283 0162 4FEA420E 	 lsl lr,r2,#1
 284              	.LVL45:
 285              	.L7:
 178:../Dave/Generated/CMSIS_DSP/FilteringFunctions/arm_fir_interpolate_q15.c ****       {
 179:../Dave/Generated/CMSIS_DSP/FilteringFunctions/arm_fir_interpolate_q15.c **** 
 180:../Dave/Generated/CMSIS_DSP/FilteringFunctions/arm_fir_interpolate_q15.c ****         /* Read the input sample */
 181:../Dave/Generated/CMSIS_DSP/FilteringFunctions/arm_fir_interpolate_q15.c ****         x1 = *(ptr1++);
 182:../Dave/Generated/CMSIS_DSP/FilteringFunctions/arm_fir_interpolate_q15.c **** 
 183:../Dave/Generated/CMSIS_DSP/FilteringFunctions/arm_fir_interpolate_q15.c ****         /* Read the coefficient */
 184:../Dave/Generated/CMSIS_DSP/FilteringFunctions/arm_fir_interpolate_q15.c ****         c0 = *(ptr2);
 286              	 .loc 1 184 0
 287 0166 BBF80010 	 ldrh r1,[fp]
 181:../Dave/Generated/CMSIS_DSP/FilteringFunctions/arm_fir_interpolate_q15.c **** 
 288              	 .loc 1 181 0
 289 016a 30F8022B 	 ldrh r2,[r0],#2
 290              	.LVL46:
 177:../Dave/Generated/CMSIS_DSP/FilteringFunctions/arm_fir_interpolate_q15.c ****       {
 291              	 .loc 1 177 0
 292 016e 013B     	 subs r3,r3,#1
 293              	.LVL47:
 185:../Dave/Generated/CMSIS_DSP/FilteringFunctions/arm_fir_interpolate_q15.c **** 
 186:../Dave/Generated/CMSIS_DSP/FilteringFunctions/arm_fir_interpolate_q15.c ****         /* Perform the multiply-accumulate */
 187:../Dave/Generated/CMSIS_DSP/FilteringFunctions/arm_fir_interpolate_q15.c ****         acc0 += (q63_t) x0 *c0;
 294              	 .loc 1 187 0
 295 0170 C9FB8167 	 smlalbb r6,r7,r9,r1
 296              	.LVL48:
 188:../Dave/Generated/CMSIS_DSP/FilteringFunctions/arm_fir_interpolate_q15.c ****         acc1 += (q63_t) x1 *c0;
 189:../Dave/Generated/CMSIS_DSP/FilteringFunctions/arm_fir_interpolate_q15.c **** 
 190:../Dave/Generated/CMSIS_DSP/FilteringFunctions/arm_fir_interpolate_q15.c ****         /* Increment the coefficient pointer by interpolation factor times. */
 191:../Dave/Generated/CMSIS_DSP/FilteringFunctions/arm_fir_interpolate_q15.c ****         ptr2 += S->L;
 297              	 .loc 1 191 0
 298 0174 F344     	 add fp,fp,lr
 299              	.LVL49:
 188:../Dave/Generated/CMSIS_DSP/FilteringFunctions/arm_fir_interpolate_q15.c ****         acc1 += (q63_t) x1 *c0;
 300              	 .loc 1 188 0
 301 0176 C1FB8245 	 smlalbb r4,r5,r1,r2
 302              	.LVL50:
 192:../Dave/Generated/CMSIS_DSP/FilteringFunctions/arm_fir_interpolate_q15.c **** 
 193:../Dave/Generated/CMSIS_DSP/FilteringFunctions/arm_fir_interpolate_q15.c ****         /* update states for next sample processing */
 194:../Dave/Generated/CMSIS_DSP/FilteringFunctions/arm_fir_interpolate_q15.c ****         x0 = x1;
 303              	 .loc 1 194 0
 304 017a 1FFA82F9 	 uxth r9,r2
 177:../Dave/Generated/CMSIS_DSP/FilteringFunctions/arm_fir_interpolate_q15.c ****       {
 305              	 .loc 1 177 0
 306 017e F2D1     	 bne .L7
 307 0180 3046     	 mov r0,r6
 308              	.LVL51:
 309 0182 3946     	 mov r1,r7
 310              	.LVL52:
 311              	.L6:
 312              	.LBB2:
 195:../Dave/Generated/CMSIS_DSP/FilteringFunctions/arm_fir_interpolate_q15.c **** 
 196:../Dave/Generated/CMSIS_DSP/FilteringFunctions/arm_fir_interpolate_q15.c ****         /* Decrement the loop counter */
 197:../Dave/Generated/CMSIS_DSP/FilteringFunctions/arm_fir_interpolate_q15.c ****         tapCnt--;
 198:../Dave/Generated/CMSIS_DSP/FilteringFunctions/arm_fir_interpolate_q15.c ****       }
 199:../Dave/Generated/CMSIS_DSP/FilteringFunctions/arm_fir_interpolate_q15.c **** 
 200:../Dave/Generated/CMSIS_DSP/FilteringFunctions/arm_fir_interpolate_q15.c ****       /* The result is in the accumulator, store in the destination buffer. */
 201:../Dave/Generated/CMSIS_DSP/FilteringFunctions/arm_fir_interpolate_q15.c ****       *pDst = (q15_t) (__SSAT((acc0 >> 15), 16));
 313              	 .loc 1 201 0
 314 0184 C30B     	 lsrs r3,r0,#15
 315              	.LBE2:
 316 0186 0798     	 ldr r0,[sp,#28]
 317              	.LVL53:
 202:../Dave/Generated/CMSIS_DSP/FilteringFunctions/arm_fir_interpolate_q15.c ****       *(pDst + S->L) = (q15_t) (__SSAT((acc1 >> 15), 16));
 318              	 .loc 1 202 0
 319 0188 069F     	 ldr r7,[sp,#24]
 320              	.LBB3:
 201:../Dave/Generated/CMSIS_DSP/FilteringFunctions/arm_fir_interpolate_q15.c ****       *(pDst + S->L) = (q15_t) (__SSAT((acc1 >> 15), 16));
 321              	 .loc 1 201 0
 322 018a 43EA4143 	 orr r3,r3,r1,lsl#17
 323              	
 324 018e 03F30F03 	 ssat r3,#16,r3
 325              	
 326              	.LVL54:
 327              	 .thumb
 328              	.LBE3:
 329 0192 0380     	 strh r3,[r0]
 203:../Dave/Generated/CMSIS_DSP/FilteringFunctions/arm_fir_interpolate_q15.c **** 
 204:../Dave/Generated/CMSIS_DSP/FilteringFunctions/arm_fir_interpolate_q15.c ****       pDst++;
 205:../Dave/Generated/CMSIS_DSP/FilteringFunctions/arm_fir_interpolate_q15.c **** 
 206:../Dave/Generated/CMSIS_DSP/FilteringFunctions/arm_fir_interpolate_q15.c ****       /* Increment the address modifier index of coefficient buffer */
 207:../Dave/Generated/CMSIS_DSP/FilteringFunctions/arm_fir_interpolate_q15.c ****       j++;
 330              	 .loc 1 207 0
 331 0194 049B     	 ldr r3,[sp,#16]
 332              	.LVL55:
 202:../Dave/Generated/CMSIS_DSP/FilteringFunctions/arm_fir_interpolate_q15.c **** 
 333              	 .loc 1 202 0
 334 0196 3A78     	 ldrb r2,[r7]
 335              	 .loc 1 207 0
 336 0198 0133     	 adds r3,r3,#1
 337 019a 1E46     	 mov r6,r3
 338 019c 0493     	 str r3,[sp,#16]
 339              	.LVL56:
 340              	.LBB4:
 202:../Dave/Generated/CMSIS_DSP/FilteringFunctions/arm_fir_interpolate_q15.c **** 
 341              	 .loc 1 202 0
 342 019e E30B     	 lsrs r3,r4,#15
 343 01a0 43EA4543 	 orr r3,r3,r5,lsl#17
 344              	
 345 01a4 03F30F03 	 ssat r3,#16,r3
 346              	
 347              	.LVL57:
 348              	 .thumb
 349              	.LBE4:
 350 01a8 20F81230 	 strh r3,[r0,r2,lsl#1]
 101:../Dave/Generated/CMSIS_DSP/FilteringFunctions/arm_fir_interpolate_q15.c ****     {
 351              	 .loc 1 101 0
 352 01ac 0D9A     	 ldr r2,[sp,#52]
 204:../Dave/Generated/CMSIS_DSP/FilteringFunctions/arm_fir_interpolate_q15.c **** 
 353              	 .loc 1 204 0
 354 01ae 831C     	 adds r3,r0,#2
 355              	.LVL58:
 101:../Dave/Generated/CMSIS_DSP/FilteringFunctions/arm_fir_interpolate_q15.c ****     {
 356              	 .loc 1 101 0
 357 01b0 9642     	 cmp r6,r2
 204:../Dave/Generated/CMSIS_DSP/FilteringFunctions/arm_fir_interpolate_q15.c **** 
 358              	 .loc 1 204 0
 359 01b2 0793     	 str r3,[sp,#28]
 360              	.LVL59:
 101:../Dave/Generated/CMSIS_DSP/FilteringFunctions/arm_fir_interpolate_q15.c ****     {
 361              	 .loc 1 101 0
 362 01b4 04D0     	 beq .L8
 363 01b6 3B78     	 ldrb r3,[r7]
 364              	.LVL60:
 365 01b8 0593     	 str r3,[sp,#20]
 366 01ba 1A46     	 mov r2,r3
 367 01bc 0499     	 ldr r1,[sp,#16]
 368 01be 6AE7     	 b .L9
 369              	.LVL61:
 370              	.L8:
 371 01c0 109B     	 ldr r3,[sp,#64]
 372              	.LVL62:
 373 01c2 149A     	 ldr r2,[sp,#80]
 374 01c4 03EB4203 	 add r3,r3,r2,lsl#1
 375 01c8 1093     	 str r3,[sp,#64]
 376 01ca 069B     	 ldr r3,[sp,#24]
 377 01cc 1B78     	 ldrb r3,[r3]
 378              	.LVL63:
 379              	.L3:
 208:../Dave/Generated/CMSIS_DSP/FilteringFunctions/arm_fir_interpolate_q15.c **** 
 209:../Dave/Generated/CMSIS_DSP/FilteringFunctions/arm_fir_interpolate_q15.c ****       /* Decrement the loop counter */
 210:../Dave/Generated/CMSIS_DSP/FilteringFunctions/arm_fir_interpolate_q15.c ****       i--;
 211:../Dave/Generated/CMSIS_DSP/FilteringFunctions/arm_fir_interpolate_q15.c ****     }
 212:../Dave/Generated/CMSIS_DSP/FilteringFunctions/arm_fir_interpolate_q15.c **** 
 213:../Dave/Generated/CMSIS_DSP/FilteringFunctions/arm_fir_interpolate_q15.c ****     /* Advance the state pointer by 1
 214:../Dave/Generated/CMSIS_DSP/FilteringFunctions/arm_fir_interpolate_q15.c ****      * to process the next group of interpolation factor number samples */
 215:../Dave/Generated/CMSIS_DSP/FilteringFunctions/arm_fir_interpolate_q15.c ****     pState = pState + 2;
 216:../Dave/Generated/CMSIS_DSP/FilteringFunctions/arm_fir_interpolate_q15.c **** 
 217:../Dave/Generated/CMSIS_DSP/FilteringFunctions/arm_fir_interpolate_q15.c ****     pDst += S->L;
 380              	 .loc 1 217 0
 381 01ce 109A     	 ldr r2,[sp,#64]
 382 01d0 02EB4303 	 add r3,r2,r3,lsl#1
 383 01d4 1093     	 str r3,[sp,#64]
 384              	.LVL64:
 385 01d6 119B     	 ldr r3,[sp,#68]
 386              	.LVL65:
 387 01d8 0433     	 adds r3,r3,#4
 388 01da 1193     	 str r3,[sp,#68]
 389 01dc 129B     	 ldr r3,[sp,#72]
 390 01de 0433     	 adds r3,r3,#4
 391 01e0 1293     	 str r3,[sp,#72]
 392              	.LVL66:
 393 01e2 0C9B     	 ldr r3,[sp,#48]
 394 01e4 0433     	 adds r3,r3,#4
 395 01e6 0C93     	 str r3,[sp,#48]
  89:../Dave/Generated/CMSIS_DSP/FilteringFunctions/arm_fir_interpolate_q15.c ****   {
 396              	 .loc 1 89 0
 397 01e8 159B     	 ldr r3,[sp,#84]
 398 01ea 013B     	 subs r3,r3,#1
 399              	.LVL67:
 400 01ec 1593     	 str r3,[sp,#84]
 401 01ee 7FF435AF 	 bne .L10
 402 01f2 1B9B     	 ldr r3,[sp,#108]
 403              	.LVL68:
 404 01f4 189A     	 ldr r2,[sp,#96]
 405 01f6 9B00     	 lsls r3,r3,#2
 406 01f8 1A44     	 add r2,r2,r3
 407 01fa 1892     	 str r2,[sp,#96]
 408 01fc 139A     	 ldr r2,[sp,#76]
 409 01fe 1A44     	 add r2,r2,r3
 410 0200 1392     	 str r2,[sp,#76]
 411 0202 179A     	 ldr r2,[sp,#92]
 412 0204 D318     	 adds r3,r2,r3
 413 0206 0D93     	 str r3,[sp,#52]
 414              	.LVL69:
 415              	.L2:
 218:../Dave/Generated/CMSIS_DSP/FilteringFunctions/arm_fir_interpolate_q15.c **** 
 219:../Dave/Generated/CMSIS_DSP/FilteringFunctions/arm_fir_interpolate_q15.c ****     /* Decrement the loop counter */
 220:../Dave/Generated/CMSIS_DSP/FilteringFunctions/arm_fir_interpolate_q15.c ****     blkCnt--;
 221:../Dave/Generated/CMSIS_DSP/FilteringFunctions/arm_fir_interpolate_q15.c ****   }
 222:../Dave/Generated/CMSIS_DSP/FilteringFunctions/arm_fir_interpolate_q15.c **** 
 223:../Dave/Generated/CMSIS_DSP/FilteringFunctions/arm_fir_interpolate_q15.c ****   /* If the blockSize is not a multiple of 2, compute any remaining output samples here.
 224:../Dave/Generated/CMSIS_DSP/FilteringFunctions/arm_fir_interpolate_q15.c ****    ** No loop unrolling is used. */
 225:../Dave/Generated/CMSIS_DSP/FilteringFunctions/arm_fir_interpolate_q15.c ****   blkCnt = blkCntN2;
 226:../Dave/Generated/CMSIS_DSP/FilteringFunctions/arm_fir_interpolate_q15.c **** 
 227:../Dave/Generated/CMSIS_DSP/FilteringFunctions/arm_fir_interpolate_q15.c ****   /* Loop over the blockSize. */
 228:../Dave/Generated/CMSIS_DSP/FilteringFunctions/arm_fir_interpolate_q15.c ****   while (blkCnt > 0u)
 416              	 .loc 1 228 0
 417 0208 1A9B     	 ldr r3,[sp,#104]
 418 020a 002B     	 cmp r3,#0
 419 020c 00F09680 	 beq .L11
 420 0210 1999     	 ldr r1,[sp,#100]
 421 0212 189A     	 ldr r2,[sp,#96]
 422 0214 0A93     	 str r3,[sp,#40]
 423 0216 023A     	 subs r2,r2,#2
 424 0218 4FEA910B 	 lsr fp,r1,#2
 425 021c 0992     	 str r2,[sp,#36]
 426 021e 4FEACB02 	 lsl r2,fp,#3
 427 0222 0C92     	 str r2,[sp,#48]
 428 0224 01F00302 	 and r2,r1,#3
 429 0228 0592     	 str r2,[sp,#20]
 430 022a 0D9A     	 ldr r2,[sp,#52]
 431 022c 0292     	 str r2,[sp,#8]
 432              	.LVL70:
 433              	.L19:
 229:../Dave/Generated/CMSIS_DSP/FilteringFunctions/arm_fir_interpolate_q15.c ****   {
 230:../Dave/Generated/CMSIS_DSP/FilteringFunctions/arm_fir_interpolate_q15.c ****     /* Copy new input sample into the state buffer */
 231:../Dave/Generated/CMSIS_DSP/FilteringFunctions/arm_fir_interpolate_q15.c ****     *pStateCurnt++ = *pSrc++;
 434              	 .loc 1 231 0
 435 022e 139A     	 ldr r2,[sp,#76]
 436 0230 32F8023B 	 ldrh r3,[r2],#2
 437 0234 1392     	 str r2,[sp,#76]
 438              	.LVL71:
 439 0236 099A     	 ldr r2,[sp,#36]
 440              	.LVL72:
 441 0238 22F8023F 	 strh r3,[r2,#2]!
 232:../Dave/Generated/CMSIS_DSP/FilteringFunctions/arm_fir_interpolate_q15.c **** 
 233:../Dave/Generated/CMSIS_DSP/FilteringFunctions/arm_fir_interpolate_q15.c ****     /* Address modifier index of coefficient buffer */
 234:../Dave/Generated/CMSIS_DSP/FilteringFunctions/arm_fir_interpolate_q15.c ****     j = 1u;
 235:../Dave/Generated/CMSIS_DSP/FilteringFunctions/arm_fir_interpolate_q15.c **** 
 236:../Dave/Generated/CMSIS_DSP/FilteringFunctions/arm_fir_interpolate_q15.c ****     /* Loop over the Interpolation factor. */
 237:../Dave/Generated/CMSIS_DSP/FilteringFunctions/arm_fir_interpolate_q15.c ****     i = S->L;
 442              	 .loc 1 237 0
 443 023c 069B     	 ldr r3,[sp,#24]
 231:../Dave/Generated/CMSIS_DSP/FilteringFunctions/arm_fir_interpolate_q15.c **** 
 444              	 .loc 1 231 0
 445 023e 0992     	 str r2,[sp,#36]
 446              	.LVL73:
 447              	 .loc 1 237 0
 448 0240 1B78     	 ldrb r3,[r3]
 449 0242 0B93     	 str r3,[sp,#44]
 450              	.LVL74:
 238:../Dave/Generated/CMSIS_DSP/FilteringFunctions/arm_fir_interpolate_q15.c ****     while (i > 0u)
 451              	 .loc 1 238 0
 452 0244 002B     	 cmp r3,#0
 453 0246 6CD0     	 beq .L12
 454 0248 5A1C     	 adds r2,r3,#1
 455 024a 9946     	 mov r9,r3
 456 024c 0492     	 str r2,[sp,#16]
 457 024e 109B     	 ldr r3,[sp,#64]
 458              	.LVL75:
 459 0250 029A     	 ldr r2,[sp,#8]
 460 0252 0C99     	 ldr r1,[sp,#48]
 461 0254 0093     	 str r3,[sp]
 462 0256 4FF0010A 	 mov r10,#1
 463              	.LVL76:
 239:../Dave/Generated/CMSIS_DSP/FilteringFunctions/arm_fir_interpolate_q15.c ****     {
 240:../Dave/Generated/CMSIS_DSP/FilteringFunctions/arm_fir_interpolate_q15.c ****       /* Set accumulator to zero */
 241:../Dave/Generated/CMSIS_DSP/FilteringFunctions/arm_fir_interpolate_q15.c ****       sum0 = 0;
 242:../Dave/Generated/CMSIS_DSP/FilteringFunctions/arm_fir_interpolate_q15.c **** 
 243:../Dave/Generated/CMSIS_DSP/FilteringFunctions/arm_fir_interpolate_q15.c ****       /* Initialize state pointer */
 244:../Dave/Generated/CMSIS_DSP/FilteringFunctions/arm_fir_interpolate_q15.c ****       ptr1 = pState;
 245:../Dave/Generated/CMSIS_DSP/FilteringFunctions/arm_fir_interpolate_q15.c **** 
 246:../Dave/Generated/CMSIS_DSP/FilteringFunctions/arm_fir_interpolate_q15.c ****       /* Initialize coefficient pointer */
 247:../Dave/Generated/CMSIS_DSP/FilteringFunctions/arm_fir_interpolate_q15.c ****       ptr2 = pCoeffs + (S->L - j);
 464              	 .loc 1 247 0
 465 025a 089B     	 ldr r3,[sp,#32]
 466 025c 0A44     	 add r2,r2,r1
 467 025e CAEB0906 	 rsb r6,r10,r9
 468 0262 0792     	 str r2,[sp,#28]
 469 0264 03EB4606 	 add r6,r3,r6,lsl#1
 470              	.LVL77:
 248:../Dave/Generated/CMSIS_DSP/FilteringFunctions/arm_fir_interpolate_q15.c **** 
 249:../Dave/Generated/CMSIS_DSP/FilteringFunctions/arm_fir_interpolate_q15.c ****       /* Loop over the polyPhase length. Unroll by a factor of 4.
 250:../Dave/Generated/CMSIS_DSP/FilteringFunctions/arm_fir_interpolate_q15.c ****        ** Repeat until we've computed numTaps-(4*S->L) coefficients. */
 251:../Dave/Generated/CMSIS_DSP/FilteringFunctions/arm_fir_interpolate_q15.c ****       tapCnt = phaseLen >> 2;
 252:../Dave/Generated/CMSIS_DSP/FilteringFunctions/arm_fir_interpolate_q15.c ****       while (tapCnt > 0u)
 471              	 .loc 1 252 0
 472 0268 BBF1000F 	 cmp fp,#0
 473 026c 50D0     	 beq .L28
 474              	.LVL78:
 475              	.L54:
 476 026e 029B     	 ldr r3,[sp,#8]
 477 0270 4FEA4904 	 lsl r4,r9,#1
 478 0274 03F10805 	 add r5,r3,#8
 479 0278 5F46     	 mov r7,fp
 480 027a 3346     	 mov r3,r6
 481 027c 0020     	 movs r0,#0
 482 027e 0021     	 movs r1,#0
 483 0280 B046     	 mov r8,r6
 484              	.LVL79:
 485              	.L14:
 253:../Dave/Generated/CMSIS_DSP/FilteringFunctions/arm_fir_interpolate_q15.c ****       {
 254:../Dave/Generated/CMSIS_DSP/FilteringFunctions/arm_fir_interpolate_q15.c **** 
 255:../Dave/Generated/CMSIS_DSP/FilteringFunctions/arm_fir_interpolate_q15.c ****         /* Read the coefficient */
 256:../Dave/Generated/CMSIS_DSP/FilteringFunctions/arm_fir_interpolate_q15.c ****         c0 = *(ptr2);
 486              	 .loc 1 256 0
 487 0282 1A88     	 ldrh r2,[r3]
 488              	.LVL80:
 257:../Dave/Generated/CMSIS_DSP/FilteringFunctions/arm_fir_interpolate_q15.c **** 
 258:../Dave/Generated/CMSIS_DSP/FilteringFunctions/arm_fir_interpolate_q15.c ****         /* Upsampling is done by stuffing L-1 zeros between each sample.
 259:../Dave/Generated/CMSIS_DSP/FilteringFunctions/arm_fir_interpolate_q15.c ****          * So instead of multiplying zeros with coefficients,
 260:../Dave/Generated/CMSIS_DSP/FilteringFunctions/arm_fir_interpolate_q15.c ****          * Increment the coefficient pointer by interpolation factor times. */
 261:../Dave/Generated/CMSIS_DSP/FilteringFunctions/arm_fir_interpolate_q15.c ****         ptr2 += S->L;
 262:../Dave/Generated/CMSIS_DSP/FilteringFunctions/arm_fir_interpolate_q15.c **** 
 263:../Dave/Generated/CMSIS_DSP/FilteringFunctions/arm_fir_interpolate_q15.c ****         /* Read the input sample */
 264:../Dave/Generated/CMSIS_DSP/FilteringFunctions/arm_fir_interpolate_q15.c ****         x0 = *(ptr1++);
 489              	 .loc 1 264 0
 490 0284 35F808CC 	 ldrh ip,[r5,#-8]
 265:../Dave/Generated/CMSIS_DSP/FilteringFunctions/arm_fir_interpolate_q15.c **** 
 266:../Dave/Generated/CMSIS_DSP/FilteringFunctions/arm_fir_interpolate_q15.c ****         /* Perform the multiply-accumulate */
 267:../Dave/Generated/CMSIS_DSP/FilteringFunctions/arm_fir_interpolate_q15.c ****         sum0 += (q63_t) x0 *c0;
 268:../Dave/Generated/CMSIS_DSP/FilteringFunctions/arm_fir_interpolate_q15.c **** 
 269:../Dave/Generated/CMSIS_DSP/FilteringFunctions/arm_fir_interpolate_q15.c ****         /* Read the coefficient */
 270:../Dave/Generated/CMSIS_DSP/FilteringFunctions/arm_fir_interpolate_q15.c ****         c0 = *(ptr2);
 491              	 .loc 1 270 0
 492 0288 1E5B     	 ldrh r6,[r3,r4]
 271:../Dave/Generated/CMSIS_DSP/FilteringFunctions/arm_fir_interpolate_q15.c **** 
 272:../Dave/Generated/CMSIS_DSP/FilteringFunctions/arm_fir_interpolate_q15.c ****         /* Increment the coefficient pointer by interpolation factor times. */
 273:../Dave/Generated/CMSIS_DSP/FilteringFunctions/arm_fir_interpolate_q15.c ****         ptr2 += S->L;
 274:../Dave/Generated/CMSIS_DSP/FilteringFunctions/arm_fir_interpolate_q15.c **** 
 275:../Dave/Generated/CMSIS_DSP/FilteringFunctions/arm_fir_interpolate_q15.c ****         /* Read the input sample */
 276:../Dave/Generated/CMSIS_DSP/FilteringFunctions/arm_fir_interpolate_q15.c ****         x0 = *(ptr1++);
 493              	 .loc 1 276 0
 494 028a 35F806EC 	 ldrh lr,[r5,#-6]
 267:../Dave/Generated/CMSIS_DSP/FilteringFunctions/arm_fir_interpolate_q15.c **** 
 495              	 .loc 1 267 0
 496 028e CCFB8201 	 smlalbb r0,r1,ip,r2
 497              	.LVL81:
 498 0292 1A19     	 adds r2,r3,r4
 499              	.LVL82:
 277:../Dave/Generated/CMSIS_DSP/FilteringFunctions/arm_fir_interpolate_q15.c **** 
 278:../Dave/Generated/CMSIS_DSP/FilteringFunctions/arm_fir_interpolate_q15.c ****         /* Perform the multiply-accumulate */
 279:../Dave/Generated/CMSIS_DSP/FilteringFunctions/arm_fir_interpolate_q15.c ****         sum0 += (q63_t) x0 *c0;
 280:../Dave/Generated/CMSIS_DSP/FilteringFunctions/arm_fir_interpolate_q15.c **** 
 281:../Dave/Generated/CMSIS_DSP/FilteringFunctions/arm_fir_interpolate_q15.c ****         /* Read the coefficient */
 282:../Dave/Generated/CMSIS_DSP/FilteringFunctions/arm_fir_interpolate_q15.c ****         c0 = *(ptr2);
 283:../Dave/Generated/CMSIS_DSP/FilteringFunctions/arm_fir_interpolate_q15.c **** 
 284:../Dave/Generated/CMSIS_DSP/FilteringFunctions/arm_fir_interpolate_q15.c ****         /* Increment the coefficient pointer by interpolation factor times. */
 285:../Dave/Generated/CMSIS_DSP/FilteringFunctions/arm_fir_interpolate_q15.c ****         ptr2 += S->L;
 286:../Dave/Generated/CMSIS_DSP/FilteringFunctions/arm_fir_interpolate_q15.c **** 
 287:../Dave/Generated/CMSIS_DSP/FilteringFunctions/arm_fir_interpolate_q15.c ****         /* Read the input sample */
 288:../Dave/Generated/CMSIS_DSP/FilteringFunctions/arm_fir_interpolate_q15.c ****         x0 = *(ptr1++);
 500              	 .loc 1 288 0
 501 0294 35F804CC 	 ldrh ip,[r5,#-4]
 282:../Dave/Generated/CMSIS_DSP/FilteringFunctions/arm_fir_interpolate_q15.c **** 
 502              	 .loc 1 282 0
 503 0298 33F81430 	 ldrh r3,[r3,r4,lsl#1]
 279:../Dave/Generated/CMSIS_DSP/FilteringFunctions/arm_fir_interpolate_q15.c **** 
 504              	 .loc 1 279 0
 505 029c CEFB8601 	 smlalbb r0,r1,lr,r6
 506              	.LVL83:
 289:../Dave/Generated/CMSIS_DSP/FilteringFunctions/arm_fir_interpolate_q15.c **** 
 290:../Dave/Generated/CMSIS_DSP/FilteringFunctions/arm_fir_interpolate_q15.c ****         /* Perform the multiply-accumulate */
 291:../Dave/Generated/CMSIS_DSP/FilteringFunctions/arm_fir_interpolate_q15.c ****         sum0 += (q63_t) x0 *c0;
 292:../Dave/Generated/CMSIS_DSP/FilteringFunctions/arm_fir_interpolate_q15.c **** 
 293:../Dave/Generated/CMSIS_DSP/FilteringFunctions/arm_fir_interpolate_q15.c ****         /* Read the coefficient */
 294:../Dave/Generated/CMSIS_DSP/FilteringFunctions/arm_fir_interpolate_q15.c ****         c0 = *(ptr2);
 295:../Dave/Generated/CMSIS_DSP/FilteringFunctions/arm_fir_interpolate_q15.c **** 
 296:../Dave/Generated/CMSIS_DSP/FilteringFunctions/arm_fir_interpolate_q15.c ****         /* Increment the coefficient pointer by interpolation factor times. */
 297:../Dave/Generated/CMSIS_DSP/FilteringFunctions/arm_fir_interpolate_q15.c ****         ptr2 += S->L;
 298:../Dave/Generated/CMSIS_DSP/FilteringFunctions/arm_fir_interpolate_q15.c **** 
 299:../Dave/Generated/CMSIS_DSP/FilteringFunctions/arm_fir_interpolate_q15.c ****         /* Read the input sample */
 300:../Dave/Generated/CMSIS_DSP/FilteringFunctions/arm_fir_interpolate_q15.c ****         x0 = *(ptr1++);
 507              	 .loc 1 300 0
 508 02a0 35F802EC 	 ldrh lr,[r5,#-2]
 509              	.LVL84:
 294:../Dave/Generated/CMSIS_DSP/FilteringFunctions/arm_fir_interpolate_q15.c **** 
 510              	 .loc 1 294 0
 511 02a4 32F81460 	 ldrh r6,[r2,r4,lsl#1]
 291:../Dave/Generated/CMSIS_DSP/FilteringFunctions/arm_fir_interpolate_q15.c **** 
 512              	 .loc 1 291 0
 513 02a8 CCFB8301 	 smlalbb r0,r1,ip,r3
 514              	.LVL85:
 252:../Dave/Generated/CMSIS_DSP/FilteringFunctions/arm_fir_interpolate_q15.c ****       {
 515              	 .loc 1 252 0
 516 02ac 013F     	 subs r7,r7,#1
 517              	.LVL86:
 518 02ae 02EB4403 	 add r3,r2,r4,lsl#1
 519              	.LVL87:
 520 02b2 2344     	 add r3,r3,r4
 521              	.LVL88:
 301:../Dave/Generated/CMSIS_DSP/FilteringFunctions/arm_fir_interpolate_q15.c **** 
 302:../Dave/Generated/CMSIS_DSP/FilteringFunctions/arm_fir_interpolate_q15.c ****         /* Perform the multiply-accumulate */
 303:../Dave/Generated/CMSIS_DSP/FilteringFunctions/arm_fir_interpolate_q15.c ****         sum0 += (q63_t) x0 *c0;
 522              	 .loc 1 303 0
 523 02b4 CEFB8601 	 smlalbb r0,r1,lr,r6
 524              	.LVL89:
 525 02b8 05F10805 	 add r5,r5,#8
 526              	.LVL90:
 252:../Dave/Generated/CMSIS_DSP/FilteringFunctions/arm_fir_interpolate_q15.c ****       {
 527              	 .loc 1 252 0
 528 02bc E1D1     	 bne .L14
 529 02be A400     	 lsls r4,r4,#2
 300:../Dave/Generated/CMSIS_DSP/FilteringFunctions/arm_fir_interpolate_q15.c **** 
 530              	 .loc 1 300 0
 531 02c0 079A     	 ldr r2,[sp,#28]
 532 02c2 0BFB0486 	 mla r6,fp,r4,r8
 533              	.LVL91:
 534              	.L13:
 304:../Dave/Generated/CMSIS_DSP/FilteringFunctions/arm_fir_interpolate_q15.c **** 
 305:../Dave/Generated/CMSIS_DSP/FilteringFunctions/arm_fir_interpolate_q15.c ****         /* Decrement the loop counter */
 306:../Dave/Generated/CMSIS_DSP/FilteringFunctions/arm_fir_interpolate_q15.c ****         tapCnt--;
 307:../Dave/Generated/CMSIS_DSP/FilteringFunctions/arm_fir_interpolate_q15.c ****       }
 308:../Dave/Generated/CMSIS_DSP/FilteringFunctions/arm_fir_interpolate_q15.c **** 
 309:../Dave/Generated/CMSIS_DSP/FilteringFunctions/arm_fir_interpolate_q15.c ****       /* If the polyPhase length is not a multiple of 4, compute the remaining filter taps */
 310:../Dave/Generated/CMSIS_DSP/FilteringFunctions/arm_fir_interpolate_q15.c ****       tapCnt = phaseLen & 0x3u;
 311:../Dave/Generated/CMSIS_DSP/FilteringFunctions/arm_fir_interpolate_q15.c **** 
 312:../Dave/Generated/CMSIS_DSP/FilteringFunctions/arm_fir_interpolate_q15.c ****       while (tapCnt > 0u)
 535              	 .loc 1 312 0
 536 02c6 059B     	 ldr r3,[sp,#20]
 537 02c8 4BB1     	 cbz r3,.L15
 538 02ca 4FEA4909 	 lsl r9,r9,#1
 539              	.LVL92:
 540              	.L16:
 313:../Dave/Generated/CMSIS_DSP/FilteringFunctions/arm_fir_interpolate_q15.c ****       {
 314:../Dave/Generated/CMSIS_DSP/FilteringFunctions/arm_fir_interpolate_q15.c ****         /* Read the coefficient */
 315:../Dave/Generated/CMSIS_DSP/FilteringFunctions/arm_fir_interpolate_q15.c ****         c0 = *(ptr2);
 541              	 .loc 1 315 0
 542 02ce 3488     	 ldrh r4,[r6]
 543              	.LVL93:
 316:../Dave/Generated/CMSIS_DSP/FilteringFunctions/arm_fir_interpolate_q15.c **** 
 317:../Dave/Generated/CMSIS_DSP/FilteringFunctions/arm_fir_interpolate_q15.c ****         /* Increment the coefficient pointer by interpolation factor times. */
 318:../Dave/Generated/CMSIS_DSP/FilteringFunctions/arm_fir_interpolate_q15.c ****         ptr2 += S->L;
 319:../Dave/Generated/CMSIS_DSP/FilteringFunctions/arm_fir_interpolate_q15.c **** 
 320:../Dave/Generated/CMSIS_DSP/FilteringFunctions/arm_fir_interpolate_q15.c ****         /* Read the input sample */
 321:../Dave/Generated/CMSIS_DSP/FilteringFunctions/arm_fir_interpolate_q15.c ****         x0 = *(ptr1++);
 544              	 .loc 1 321 0
 545 02d0 32F8025B 	 ldrh r5,[r2],#2
 546              	.LVL94:
 312:../Dave/Generated/CMSIS_DSP/FilteringFunctions/arm_fir_interpolate_q15.c ****       {
 547              	 .loc 1 312 0
 548 02d4 013B     	 subs r3,r3,#1
 549              	.LVL95:
 318:../Dave/Generated/CMSIS_DSP/FilteringFunctions/arm_fir_interpolate_q15.c **** 
 550              	 .loc 1 318 0
 551 02d6 4E44     	 add r6,r6,r9
 552              	.LVL96:
 322:../Dave/Generated/CMSIS_DSP/FilteringFunctions/arm_fir_interpolate_q15.c **** 
 323:../Dave/Generated/CMSIS_DSP/FilteringFunctions/arm_fir_interpolate_q15.c ****         /* Perform the multiply-accumulate */
 324:../Dave/Generated/CMSIS_DSP/FilteringFunctions/arm_fir_interpolate_q15.c ****         sum0 += (q63_t) x0 *c0;
 553              	 .loc 1 324 0
 554 02d8 C5FB8401 	 smlalbb r0,r1,r5,r4
 555              	.LVL97:
 312:../Dave/Generated/CMSIS_DSP/FilteringFunctions/arm_fir_interpolate_q15.c ****       {
 556              	 .loc 1 312 0
 557 02dc F7D1     	 bne .L16
 558              	.LVL98:
 559              	.L15:
 325:../Dave/Generated/CMSIS_DSP/FilteringFunctions/arm_fir_interpolate_q15.c **** 
 326:../Dave/Generated/CMSIS_DSP/FilteringFunctions/arm_fir_interpolate_q15.c ****         /* Decrement the loop counter */
 327:../Dave/Generated/CMSIS_DSP/FilteringFunctions/arm_fir_interpolate_q15.c ****         tapCnt--;
 328:../Dave/Generated/CMSIS_DSP/FilteringFunctions/arm_fir_interpolate_q15.c ****       }
 329:../Dave/Generated/CMSIS_DSP/FilteringFunctions/arm_fir_interpolate_q15.c **** 
 330:../Dave/Generated/CMSIS_DSP/FilteringFunctions/arm_fir_interpolate_q15.c ****       /* The result is in the accumulator, store in the destination buffer. */
 331:../Dave/Generated/CMSIS_DSP/FilteringFunctions/arm_fir_interpolate_q15.c ****       *pDst++ = (q15_t) (__SSAT((sum0 >> 15), 16));
 560              	 .loc 1 331 0
 561 02de 009A     	 ldr r2,[sp]
 562              	.LVL99:
 563              	.LBB5:
 564 02e0 C30B     	 lsrs r3,r0,#15
 565 02e2 43EA4143 	 orr r3,r3,r1,lsl#17
 566              	
 567 02e6 03F30F03 	 ssat r3,#16,r3
 568              	
 569              	.LVL100:
 570              	 .thumb
 571              	.LBE5:
 572 02ea 22F8023B 	 strh r3,[r2],#2
 238:../Dave/Generated/CMSIS_DSP/FilteringFunctions/arm_fir_interpolate_q15.c ****     {
 573              	 .loc 1 238 0
 574 02ee 049B     	 ldr r3,[sp,#16]
 575              	.LVL101:
 576              	 .loc 1 331 0
 577 02f0 0092     	 str r2,[sp]
 578              	.LVL102:
 332:../Dave/Generated/CMSIS_DSP/FilteringFunctions/arm_fir_interpolate_q15.c **** 
 333:../Dave/Generated/CMSIS_DSP/FilteringFunctions/arm_fir_interpolate_q15.c ****       j++;
 579              	 .loc 1 333 0
 580 02f2 0AF1010A 	 add r10,r10,#1
 581              	.LVL103:
 238:../Dave/Generated/CMSIS_DSP/FilteringFunctions/arm_fir_interpolate_q15.c ****     {
 582              	 .loc 1 238 0
 583 02f6 9A45     	 cmp r10,r3
 584 02f8 0ED0     	 beq .L17
 585 02fa 069B     	 ldr r3,[sp,#24]
 586 02fc 93F80090 	 ldrb r9,[r3]
 587              	.LVL104:
 247:../Dave/Generated/CMSIS_DSP/FilteringFunctions/arm_fir_interpolate_q15.c **** 
 588              	 .loc 1 247 0
 589 0300 089B     	 ldr r3,[sp,#32]
 590 0302 CAEB0906 	 rsb r6,r10,r9
 591              	.LVL105:
 592 0306 03EB4606 	 add r6,r3,r6,lsl#1
 593              	.LVL106:
 252:../Dave/Generated/CMSIS_DSP/FilteringFunctions/arm_fir_interpolate_q15.c ****       {
 594              	 .loc 1 252 0
 595 030a BBF1000F 	 cmp fp,#0
 596 030e AED1     	 bne .L54
 597              	.LVL107:
 598              	.L28:
 599 0310 029A     	 ldr r2,[sp,#8]
 241:../Dave/Generated/CMSIS_DSP/FilteringFunctions/arm_fir_interpolate_q15.c **** 
 600              	 .loc 1 241 0
 601 0312 0020     	 movs r0,#0
 602 0314 0021     	 movs r1,#0
 603 0316 D6E7     	 b .L13
 604              	.LVL108:
 605              	.L17:
 606 0318 109B     	 ldr r3,[sp,#64]
 607 031a 0B9A     	 ldr r2,[sp,#44]
 608              	.LVL109:
 609 031c 03EB4203 	 add r3,r3,r2,lsl#1
 610 0320 1093     	 str r3,[sp,#64]
 611              	.LVL110:
 612              	.L12:
 334:../Dave/Generated/CMSIS_DSP/FilteringFunctions/arm_fir_interpolate_q15.c **** 
 335:../Dave/Generated/CMSIS_DSP/FilteringFunctions/arm_fir_interpolate_q15.c ****       /* Decrement the loop counter */
 336:../Dave/Generated/CMSIS_DSP/FilteringFunctions/arm_fir_interpolate_q15.c ****       i--;
 337:../Dave/Generated/CMSIS_DSP/FilteringFunctions/arm_fir_interpolate_q15.c ****     }
 338:../Dave/Generated/CMSIS_DSP/FilteringFunctions/arm_fir_interpolate_q15.c **** 
 339:../Dave/Generated/CMSIS_DSP/FilteringFunctions/arm_fir_interpolate_q15.c ****     /* Advance the state pointer by 1
 340:../Dave/Generated/CMSIS_DSP/FilteringFunctions/arm_fir_interpolate_q15.c ****      * to process the next group of interpolation factor number samples */
 341:../Dave/Generated/CMSIS_DSP/FilteringFunctions/arm_fir_interpolate_q15.c ****     pState = pState + 1;
 613              	 .loc 1 341 0
 614 0322 029B     	 ldr r3,[sp,#8]
 615 0324 0233     	 adds r3,r3,#2
 616 0326 0293     	 str r3,[sp,#8]
 617              	.LVL111:
 228:../Dave/Generated/CMSIS_DSP/FilteringFunctions/arm_fir_interpolate_q15.c ****   {
 618              	 .loc 1 228 0
 619 0328 0A9B     	 ldr r3,[sp,#40]
 620              	.LVL112:
 621 032a 013B     	 subs r3,r3,#1
 622              	.LVL113:
 623 032c 0A93     	 str r3,[sp,#40]
 624 032e 7FF47EAF 	 bne .L19
 625 0332 0D9B     	 ldr r3,[sp,#52]
 626              	.LVL114:
 627 0334 1A9A     	 ldr r2,[sp,#104]
 628 0336 03EB4203 	 add r3,r3,r2,lsl#1
 629 033a 0D93     	 str r3,[sp,#52]
 630              	.LVL115:
 631              	.L11:
 342:../Dave/Generated/CMSIS_DSP/FilteringFunctions/arm_fir_interpolate_q15.c **** 
 343:../Dave/Generated/CMSIS_DSP/FilteringFunctions/arm_fir_interpolate_q15.c ****     /* Decrement the loop counter */
 344:../Dave/Generated/CMSIS_DSP/FilteringFunctions/arm_fir_interpolate_q15.c ****     blkCnt--;
 345:../Dave/Generated/CMSIS_DSP/FilteringFunctions/arm_fir_interpolate_q15.c ****   }
 346:../Dave/Generated/CMSIS_DSP/FilteringFunctions/arm_fir_interpolate_q15.c **** 
 347:../Dave/Generated/CMSIS_DSP/FilteringFunctions/arm_fir_interpolate_q15.c **** 
 348:../Dave/Generated/CMSIS_DSP/FilteringFunctions/arm_fir_interpolate_q15.c ****   /* Processing is complete.
 349:../Dave/Generated/CMSIS_DSP/FilteringFunctions/arm_fir_interpolate_q15.c ****    ** Now copy the last phaseLen - 1 samples to the satrt of the state buffer.
 350:../Dave/Generated/CMSIS_DSP/FilteringFunctions/arm_fir_interpolate_q15.c ****    ** This prepares the state buffer for the next function call. */
 351:../Dave/Generated/CMSIS_DSP/FilteringFunctions/arm_fir_interpolate_q15.c **** 
 352:../Dave/Generated/CMSIS_DSP/FilteringFunctions/arm_fir_interpolate_q15.c ****   /* Points to the start of the state buffer */
 353:../Dave/Generated/CMSIS_DSP/FilteringFunctions/arm_fir_interpolate_q15.c ****   pStateCurnt = S->pState;
 354:../Dave/Generated/CMSIS_DSP/FilteringFunctions/arm_fir_interpolate_q15.c **** 
 355:../Dave/Generated/CMSIS_DSP/FilteringFunctions/arm_fir_interpolate_q15.c ****   i = ((uint32_t) phaseLen - 1u) >> 2u;
 632              	 .loc 1 355 0
 633 033c 199B     	 ldr r3,[sp,#100]
 634 033e 581E     	 subs r0,r3,#1
 635              	.LVL116:
 356:../Dave/Generated/CMSIS_DSP/FilteringFunctions/arm_fir_interpolate_q15.c **** 
 357:../Dave/Generated/CMSIS_DSP/FilteringFunctions/arm_fir_interpolate_q15.c ****   /* copy data */
 358:../Dave/Generated/CMSIS_DSP/FilteringFunctions/arm_fir_interpolate_q15.c ****   while (i > 0u)
 636              	 .loc 1 358 0
 637 0340 8508     	 lsrs r5,r0,#2
 638              	.LVL117:
 639 0342 1AD0     	 beq .L20
 640 0344 179B     	 ldr r3,[sp,#92]
 641 0346 03F10802 	 add r2,r3,#8
 642 034a 0D9B     	 ldr r3,[sp,#52]
 643 034c 2946     	 mov r1,r5
 644 034e 0833     	 adds r3,r3,#8
 645              	.LVL118:
 646              	.L21:
 359:../Dave/Generated/CMSIS_DSP/FilteringFunctions/arm_fir_interpolate_q15.c ****   {
 360:../Dave/Generated/CMSIS_DSP/FilteringFunctions/arm_fir_interpolate_q15.c **** #ifndef UNALIGNED_SUPPORT_DISABLE
 361:../Dave/Generated/CMSIS_DSP/FilteringFunctions/arm_fir_interpolate_q15.c **** 
 362:../Dave/Generated/CMSIS_DSP/FilteringFunctions/arm_fir_interpolate_q15.c ****     *__SIMD32(pStateCurnt)++ = *__SIMD32(pState)++;
 647              	 .loc 1 362 0
 648 0350 53F8084C 	 ldr r4,[r3,#-8]
 649 0354 42F8084C 	 str r4,[r2,#-8]
 650              	.LVL119:
 363:../Dave/Generated/CMSIS_DSP/FilteringFunctions/arm_fir_interpolate_q15.c ****     *__SIMD32(pStateCurnt)++ = *__SIMD32(pState)++;
 651              	 .loc 1 363 0
 652 0358 53F8044C 	 ldr r4,[r3,#-4]
 653 035c 42F8044C 	 str r4,[r2,#-4]
 358:../Dave/Generated/CMSIS_DSP/FilteringFunctions/arm_fir_interpolate_q15.c ****   {
 654              	 .loc 1 358 0
 655 0360 0139     	 subs r1,r1,#1
 656              	.LVL120:
 657 0362 03F10803 	 add r3,r3,#8
 658              	.LVL121:
 659 0366 02F10802 	 add r2,r2,#8
 660 036a F1D1     	 bne .L21
 661 036c 179A     	 ldr r2,[sp,#92]
 662 036e EB00     	 lsls r3,r5,#3
 663              	.LVL122:
 664 0370 1A44     	 add r2,r2,r3
 665 0372 1792     	 str r2,[sp,#92]
 666 0374 0D9A     	 ldr r2,[sp,#52]
 667 0376 1A44     	 add r2,r2,r3
 668 0378 0D92     	 str r2,[sp,#52]
 669              	.LVL123:
 670              	.L20:
 364:../Dave/Generated/CMSIS_DSP/FilteringFunctions/arm_fir_interpolate_q15.c **** 
 365:../Dave/Generated/CMSIS_DSP/FilteringFunctions/arm_fir_interpolate_q15.c **** #else
 366:../Dave/Generated/CMSIS_DSP/FilteringFunctions/arm_fir_interpolate_q15.c **** 
 367:../Dave/Generated/CMSIS_DSP/FilteringFunctions/arm_fir_interpolate_q15.c ****     *pStateCurnt++ = *pState++;
 368:../Dave/Generated/CMSIS_DSP/FilteringFunctions/arm_fir_interpolate_q15.c **** 	*pStateCurnt++ = *pState++;
 369:../Dave/Generated/CMSIS_DSP/FilteringFunctions/arm_fir_interpolate_q15.c **** 	*pStateCurnt++ = *pState++;
 370:../Dave/Generated/CMSIS_DSP/FilteringFunctions/arm_fir_interpolate_q15.c **** 	*pStateCurnt++ = *pState++;
 371:../Dave/Generated/CMSIS_DSP/FilteringFunctions/arm_fir_interpolate_q15.c **** 
 372:../Dave/Generated/CMSIS_DSP/FilteringFunctions/arm_fir_interpolate_q15.c **** #endif	/*	#ifndef UNALIGNED_SUPPORT_DISABLE	*/
 373:../Dave/Generated/CMSIS_DSP/FilteringFunctions/arm_fir_interpolate_q15.c **** 
 374:../Dave/Generated/CMSIS_DSP/FilteringFunctions/arm_fir_interpolate_q15.c **** 	/* Decrement the loop counter */
 375:../Dave/Generated/CMSIS_DSP/FilteringFunctions/arm_fir_interpolate_q15.c ****     i--;
 376:../Dave/Generated/CMSIS_DSP/FilteringFunctions/arm_fir_interpolate_q15.c ****   }
 377:../Dave/Generated/CMSIS_DSP/FilteringFunctions/arm_fir_interpolate_q15.c **** 
 378:../Dave/Generated/CMSIS_DSP/FilteringFunctions/arm_fir_interpolate_q15.c ****   i = ((uint32_t) phaseLen - 1u) % 0x04u;
 379:../Dave/Generated/CMSIS_DSP/FilteringFunctions/arm_fir_interpolate_q15.c **** 
 380:../Dave/Generated/CMSIS_DSP/FilteringFunctions/arm_fir_interpolate_q15.c ****   while (i > 0u)
 671              	 .loc 1 380 0
 672 037a 10F00300 	 ands r0,r0,#3
 673              	.LVL124:
 674 037e 08D0     	 beq .L1
 675 0380 179B     	 ldr r3,[sp,#92]
 676 0382 0D9A     	 ldr r2,[sp,#52]
 677 0384 023B     	 subs r3,r3,#2
 678              	.LVL125:
 679              	.L23:
 381:../Dave/Generated/CMSIS_DSP/FilteringFunctions/arm_fir_interpolate_q15.c ****   {
 382:../Dave/Generated/CMSIS_DSP/FilteringFunctions/arm_fir_interpolate_q15.c ****     *pStateCurnt++ = *pState++;
 680              	 .loc 1 382 0
 681 0386 32F8021B 	 ldrh r1,[r2],#2
 682              	.LVL126:
 683 038a 23F8021F 	 strh r1,[r3,#2]!
 380:../Dave/Generated/CMSIS_DSP/FilteringFunctions/arm_fir_interpolate_q15.c ****   {
 684              	 .loc 1 380 0
 685 038e 0138     	 subs r0,r0,#1
 686              	.LVL127:
 687 0390 F9D1     	 bne .L23
 688              	.LVL128:
 689              	.L1:
 383:../Dave/Generated/CMSIS_DSP/FilteringFunctions/arm_fir_interpolate_q15.c **** 
 384:../Dave/Generated/CMSIS_DSP/FilteringFunctions/arm_fir_interpolate_q15.c ****     /* Decrement the loop counter */
 385:../Dave/Generated/CMSIS_DSP/FilteringFunctions/arm_fir_interpolate_q15.c ****     i--;
 386:../Dave/Generated/CMSIS_DSP/FilteringFunctions/arm_fir_interpolate_q15.c ****   }
 387:../Dave/Generated/CMSIS_DSP/FilteringFunctions/arm_fir_interpolate_q15.c **** }
 690              	 .loc 1 387 0
 691 0392 1DB0     	 add sp,sp,#116
 692              	.LCFI2:
 693              	 .cfi_remember_state
 694              	 .cfi_def_cfa_offset 36
 695              	 
 696 0394 BDE8F08F 	 pop {r4,r5,r6,r7,r8,r9,r10,fp,pc}
 697              	.LVL129:
 698              	.L27:
 699              	.LCFI3:
 700              	 .cfi_restore_state
 105:../Dave/Generated/CMSIS_DSP/FilteringFunctions/arm_fir_interpolate_q15.c **** 
 701              	 .loc 1 105 0
 702 0398 0024     	 movs r4,#0
 703 039a 0025     	 movs r5,#0
 704 039c 3746     	 mov r7,r6
 705              	.LVL130:
 104:../Dave/Generated/CMSIS_DSP/FilteringFunctions/arm_fir_interpolate_q15.c ****       acc1 = 0;
 706              	 .loc 1 104 0
 707 039e 2046     	 mov r0,r4
 708 03a0 2946     	 mov r1,r5
 709 03a2 D6E6     	 b .L4
 710              	.LVL131:
 711              	.L25:
  68:../Dave/Generated/CMSIS_DSP/FilteringFunctions/arm_fir_interpolate_q15.c ****   q15_t *pCoeffs = S->pCoeffs;                   /* Coefficient pointer                            
 712              	 .loc 1 68 0
 713 03a4 0D96     	 str r6,[sp,#52]
 714 03a6 2FE7     	 b .L2
 715              	 .cfi_endproc
 716              	.LFE135:
 718              	 .text
 719              	.Letext0:
 720              	 .file 2 "c:\\infineon\\tools\\dave ide\\4.5.0.202105191637\\eclipse\\arm-gcc-49\\arm-none-eabi\\include\\machine\\_default_types.h"
 721              	 .file 3 "c:\\infineon\\tools\\dave ide\\4.5.0.202105191637\\eclipse\\arm-gcc-49\\arm-none-eabi\\include\\stdint.h"
 722              	 .file 4 "C:/Users/Utente/Desktop/Tesi/Firmware_Software/DAVE project/S2GLP_Pulsed_Doppler/Dave/Generated/CMSIS_DSP/arm_math.h"